###############################################################################
#                                                                             #
# IAR C/C++ Compiler V8.10.1.10194/W32 for 8051         01/Jun/2015  00:49:40 #
# Copyright 2004-2011 IAR Systems AB.                                         #
#                                                                             #
#    Core               =  plain                                              #
#    Code model         =  banked                                             #
#    Data model         =  large                                              #
#    Calling convention =  xdata reentrant                                    #
#    Constant location  =  data_rom                                           #
#    Dptr setup         =  1,16                                               #
#    Source file        =  C:\Texas Instruments\ZStack-CC2530-2.5.1a\Componen #
#                          ts\stack\af\AF.c                                   #
#    Command line       =  -f "C:\Texas Instruments\ZStack-CC2530-2.5.1a\Proj #
#                          ects\zstack\Samples\WirelessMonitorSystem\CC2530DB #
#                          \..\..\..\Tools\CC2530DB\f8wEndev.cfg"             #
#                          (-DCPU32MHZ -DROOT=__near_func                     #
#                          -DMAC_CFG_TX_DATA_MAX=3 -DMAC_CFG_TX_MAX=6         #
#                          -DMAC_CFG_RX_MAX=3) -f "C:\Texas                   #
#                          Instruments\ZStack-CC2530-2.5.1a\Projects\zstack\S #
#                          amples\WirelessMonitorSystem\CC2530DB\..\..\..\Too #
#                          ls\CC2530DB\f8wConfig.cfg" (-DZIGBEEPRO            #
#                          -DSECURE=0 -DZG_SECURE_DYNAMIC=0 -DREFLECTOR       #
#                          -DDEFAULT_CHANLIST=0x00000800                      #
#                          -DZDAPP_CONFIG_PAN_ID=0xFFFF                       #
#                          -DNWK_START_DELAY=100 -DEXTENDED_JOINING_RANDOM_MA #
#                          SK=0x007F -DBEACON_REQUEST_DELAY=100               #
#                          -DBEACON_REQ_DELAY_MASK=0x00FF                     #
#                          -DLINK_STATUS_JITTER_MASK=0x007F                   #
#                          -DROUTE_EXPIRY_TIME=30 -DAPSC_ACK_WAIT_DURATION_PO #
#                          LLED=3000 -DNWK_INDIRECT_MSG_TIMEOUT=7             #
#                          -DMAX_RREQ_ENTRIES=8 -DAPSC_MAX_FRAME_RETRIES=3    #
#                          -DNWK_MAX_DATA_RETRIES=2                           #
#                          -DMAX_POLL_FAILURE_RETRIES=2 -DMAX_BCAST=9         #
#                          -DAPS_MAX_GROUPS=16 -DMAX_RTG_ENTRIES=40           #
#                          -DNWK_MAX_BINDING_ENTRIES=4                        #
#                          -DMAX_BINDING_CLUSTER_IDS=4 "-DDEFAULT_KEY={0x01,  #
#                          0x03, 0x05, 0x07, 0x09, 0x0B, 0x0D, 0x0F, 0x00,    #
#                          0x02, 0x04, 0x06, 0x08, 0x0A, 0x0C, 0x0D}"         #
#                          -DMAC_MAX_FRAME_SIZE=116                           #
#                          -DZDNWKMGR_MIN_TRANSMISSIONS=20 "-DCONST=const     #
#                          __code" -DGENERIC=__generic                        #
#                          -DRFD_RCVC_ALWAYS_ON=FALSE -DPOLL_RATE=500         #
#                          -DQUEUED_POLL_RATE=30 -DRESPONSE_POLL_RATE=100)    #
#                          -DREJOIN_POLL_RATE=440 "C:\Texas                   #
#                          Instruments\ZStack-CC2530-2.5.1a\Components\stack\ #
#                          af\AF.c" -D HAL_UART -D xOCM_CLK_PORT=0 -D         #
#                          xOCM_CLK_PIN=7 -D xOCM_DATA_PORT=0 -D              #
#                          xOCM_DATA_PIN=6 -lC "C:\Texas                      #
#                          Instruments\ZStack-CC2530-2.5.1a\Projects\zstack\S #
#                          amples\WirelessMonitorSystem\CC2530DB\Vibrate\List #
#                          \" -lA "C:\Texas Instruments\ZStack-CC2530-2.5.1a\ #
#                          Projects\zstack\Samples\WirelessMonitorSystem\CC25 #
#                          30DB\Vibrate\List\" --diag_suppress Pe001,Pa010    #
#                          -o "C:\Texas Instruments\ZStack-CC2530-2.5.1a\Proj #
#                          ects\zstack\Samples\WirelessMonitorSystem\CC2530DB #
#                          \Vibrate\Obj\" -e --debug --core=plain             #
#                          --dptr=16,1 --data_model=large                     #
#                          --code_model=banked --calling_convention=xdata_ree #
#                          ntrant --place_constants=data_rom                  #
#                          --nr_virtual_regs 16 -I "C:\Texas                  #
#                          Instruments\ZStack-CC2530-2.5.1a\Projects\zstack\S #
#                          amples\WirelessMonitorSystem\CC2530DB\" -I         #
#                          "C:\Texas Instruments\ZStack-CC2530-2.5.1a\Project #
#                          s\zstack\Samples\WirelessMonitorSystem\CC2530DB\.. #
#                          \Source\" -I "C:\Texas Instruments\ZStack-CC2530-2 #
#                          .5.1a\Projects\zstack\Samples\WirelessMonitorSyste #
#                          m\CC2530DB\..\..\..\ZMain\TI2530DB\" -I "C:\Texas  #
#                          Instruments\ZStack-CC2530-2.5.1a\Projects\zstack\S #
#                          amples\WirelessMonitorSystem\CC2530DB\..\..\..\..\ #
#                          ..\Components\hal\include\" -I "C:\Texas           #
#                          Instruments\ZStack-CC2530-2.5.1a\Projects\zstack\S #
#                          amples\WirelessMonitorSystem\CC2530DB\..\..\..\..\ #
#                          ..\Components\hal\target\CC2530EB\" -I "C:\Texas   #
#                          Instruments\ZStack-CC2530-2.5.1a\Projects\zstack\S #
#                          amples\WirelessMonitorSystem\CC2530DB\..\..\..\..\ #
#                          ..\Components\mac\include\" -I "C:\Texas           #
#                          Instruments\ZStack-CC2530-2.5.1a\Projects\zstack\S #
#                          amples\WirelessMonitorSystem\CC2530DB\..\..\..\..\ #
#                          ..\Components\mac\high_level\" -I "C:\Texas        #
#                          Instruments\ZStack-CC2530-2.5.1a\Projects\zstack\S #
#                          amples\WirelessMonitorSystem\CC2530DB\..\..\..\..\ #
#                          ..\Components\mac\low_level\srf04\" -I "C:\Texas   #
#                          Instruments\ZStack-CC2530-2.5.1a\Projects\zstack\S #
#                          amples\WirelessMonitorSystem\CC2530DB\..\..\..\..\ #
#                          ..\Components\mac\low_level\srf04\single_chip\"    #
#                          -I "C:\Texas Instruments\ZStack-CC2530-2.5.1a\Proj #
#                          ects\zstack\Samples\WirelessMonitorSystem\CC2530DB #
#                          \..\..\..\..\..\Components\mt\" -I "C:\Texas       #
#                          Instruments\ZStack-CC2530-2.5.1a\Projects\zstack\S #
#                          amples\WirelessMonitorSystem\CC2530DB\..\..\..\..\ #
#                          ..\Components\osal\include\" -I "C:\Texas          #
#                          Instruments\ZStack-CC2530-2.5.1a\Projects\zstack\S #
#                          amples\WirelessMonitorSystem\CC2530DB\..\..\..\..\ #
#                          ..\Components\services\saddr\" -I "C:\Texas        #
#                          Instruments\ZStack-CC2530-2.5.1a\Projects\zstack\S #
#                          amples\WirelessMonitorSystem\CC2530DB\..\..\..\..\ #
#                          ..\Components\services\sdata\" -I "C:\Texas        #
#                          Instruments\ZStack-CC2530-2.5.1a\Projects\zstack\S #
#                          amples\WirelessMonitorSystem\CC2530DB\..\..\..\..\ #
#                          ..\Components\stack\af\" -I "C:\Texas              #
#                          Instruments\ZStack-CC2530-2.5.1a\Projects\zstack\S #
#                          amples\WirelessMonitorSystem\CC2530DB\..\..\..\..\ #
#                          ..\Components\stack\nwk\" -I "C:\Texas             #
#                          Instruments\ZStack-CC2530-2.5.1a\Projects\zstack\S #
#                          amples\WirelessMonitorSystem\CC2530DB\..\..\..\..\ #
#                          ..\Components\stack\sapi\" -I "C:\Texas            #
#                          Instruments\ZStack-CC2530-2.5.1a\Projects\zstack\S #
#                          amples\WirelessMonitorSystem\CC2530DB\..\..\..\..\ #
#                          ..\Components\stack\sec\" -I "C:\Texas             #
#                          Instruments\ZStack-CC2530-2.5.1a\Projects\zstack\S #
#                          amples\WirelessMonitorSystem\CC2530DB\..\..\..\..\ #
#                          ..\Components\stack\sys\" -I "C:\Texas             #
#                          Instruments\ZStack-CC2530-2.5.1a\Projects\zstack\S #
#                          amples\WirelessMonitorSystem\CC2530DB\..\..\..\..\ #
#                          ..\Components\stack\zdo\" -I "C:\Texas             #
#                          Instruments\ZStack-CC2530-2.5.1a\Projects\zstack\S #
#                          amples\WirelessMonitorSystem\CC2530DB\..\..\..\..\ #
#                          ..\Components\zmac\" -I "C:\Texas                  #
#                          Instruments\ZStack-CC2530-2.5.1a\Projects\zstack\S #
#                          amples\WirelessMonitorSystem\CC2530DB\..\..\..\..\ #
#                          ..\Components\zmac\f8w\" -Ohz --require_prototypes #
#    List file          =  C:\Texas Instruments\ZStack-CC2530-2.5.1a\Projects #
#                          \zstack\Samples\WirelessMonitorSystem\CC2530DB\Vib #
#                          rate\List\AF.lst                                   #
#    Object file        =  C:\Texas Instruments\ZStack-CC2530-2.5.1a\Projects #
#                          \zstack\Samples\WirelessMonitorSystem\CC2530DB\Vib #
#                          rate\Obj\AF.r51                                    #
#                                                                             #
#                                                                             #
###############################################################################

C:\Texas Instruments\ZStack-CC2530-2.5.1a\Components\stack\af\AF.c
      1          /**************************************************************************************************
      2            Filename:       AF.c
      3            Revised:        $Date: 2011-11-18 16:03:29 -0800 (Fri, 18 Nov 2011) $
      4            Revision:       $Revision: 28423 $
      5          
      6            Description:    Application Framework - Device Description helper functions
      7          
      8          
      9            Copyright 2004-2011 Texas Instruments Incorporated. All rights reserved.
     10          
     11            IMPORTANT: Your use of this Software is limited to those specific rights
     12            granted under the terms of a software license agreement between the user
     13            who downloaded the software, his/her employer (which must be your employer)
     14            and Texas Instruments Incorporated (the "License").  You may not use this
     15            Software unless you agree to abide by the terms of the License. The License
     16            limits your use, and you acknowledge, that the Software may not be modified,
     17            copied or distributed unless embedded on a Texas Instruments microcontroller
     18            or used solely and exclusively in conjunction with a Texas Instruments radio
     19            frequency transceiver, which is integrated into your product.  Other than for
     20            the foregoing purpose, you may not use, reproduce, copy, prepare derivative
     21            works of, modify, distribute, perform, display or sell this Software and/or
     22            its documentation for any purpose.
     23          
     24            YOU FURTHER ACKNOWLEDGE AND AGREE THAT THE SOFTWARE AND DOCUMENTATION ARE
     25            PROVIDED “AS IS” WITHOUT WARRANTY OF ANY KIND, EITHER EXPRESS OR IMPLIED,
     26            INCLUDING WITHOUT LIMITATION, ANY WARRANTY OF MERCHANTABILITY, TITLE,
     27            NON-INFRINGEMENT AND FITNESS FOR A PARTICULAR PURPOSE. IN NO EVENT SHALL
     28            TEXAS INSTRUMENTS OR ITS LICENSORS BE LIABLE OR OBLIGATED UNDER CONTRACT,
     29            NEGLIGENCE, STRICT LIABILITY, CONTRIBUTION, BREACH OF WARRANTY, OR OTHER
     30            LEGAL EQUITABLE THEORY ANY DIRECT OR INDIRECT DAMAGES OR EXPENSES
     31            INCLUDING BUT NOT LIMITED TO ANY INCIDENTAL, SPECIAL, INDIRECT, PUNITIVE
     32            OR CONSEQUENTIAL DAMAGES, LOST PROFITS OR LOST DATA, COST OF PROCUREMENT
     33            OF SUBSTITUTE GOODS, TECHNOLOGY, SERVICES, OR ANY CLAIMS BY THIRD PARTIES
     34            (INCLUDING BUT NOT LIMITED TO ANY DEFENSE THEREOF), OR OTHER SIMILAR COSTS.
     35          
     36            Should you have any questions regarding your right to use this Software,
     37            contact Texas Instruments Incorporated at www.TI.com.
     38          **************************************************************************************************/
     39          
     40          /*********************************************************************
     41           * INCLUDES
     42           */
     43          
     44          #include "OSAL.h"
     45          #include "AF.h"
     46          #include "nwk_globals.h"
     47          #include "nwk_util.h"
     48          #include "aps_groups.h"
     49          #include "ZDProfile.h"
     50          #include "aps_frag.h"
     51          #include "rtg.h"
     52          
     53          #if defined ( MT_AF_CB_FUNC )
     54            #include "MT_AF.h"
     55          #endif
     56          
     57          #if defined ( INTER_PAN )
     58            #include "stub_aps.h"
     59          #endif
     60          
     61          /*********************************************************************
     62           * MACROS
     63           */
     64          
     65          /*********************************************************************
     66           * @fn      afSend
     67           *
     68           * @brief   Helper macro for V1 API to invoke V2 API.
     69           *
     70           * input parameters
     71           *
     72           * @param  *dstAddr - Full ZB destination address: Nwk Addr + End Point.
     73           * @param   srcEP - Origination (i.e. respond to or ack to) End Point.
     74           * @param   cID - A valid cluster ID as specified by the Profile.
     75           * @param   len - Number of bytes of data pointed to by next param.
     76           * @param  *buf - A pointer to the data bytes to send.
     77           * @param   options - Valid bit mask of AF Tx Options as defined in AF.h.
     78           * @param  *transID - A pointer to a byte which can be modified and which will
     79           *                    be used as the transaction sequence number of the msg.
     80           *
     81           * output parameters
     82           *
     83           * @param  *transID - Incremented by one if the return value is success.
     84           *
     85           * @return  afStatus_t - See previous definition of afStatus_... types.
     86           */
     87          #define afSend( dstAddr, srcEP, cID, len, buf, transID, options, radius ) \
     88                  AF_DataRequest( (dstAddr), afFindEndPointDesc( (srcEP) ), \
     89                                    (cID), (len), (buf), (transID), (options), (radius) )
     90          
     91          /*********************************************************************
     92           * GLOBAL VARIABLES
     93           */
     94          

   \                                 In  segment XDATA_Z, align 1, keep-with-next
     95          epList_t *epList;
   \                     epList:
   \   000000                DS 2
   \   000002                REQUIRE __INIT_XDATA_Z
     96          
     97          /*********************************************************************
     98           * LOCAL FUNCTIONS
     99           */
    100          
    101          static void afBuildMSGIncoming( aps_FrameFormat_t *aff, endPointDesc_t *epDesc,
    102                          zAddrType_t *SrcAddress, uint16 SrcPanId, NLDE_Signal_t *sig,
    103                          uint8 nwkSeqNum, uint8 SecurityUse, uint32 timestamp );
    104          
    105          static epList_t *afFindEndPointDescList( uint8 EndPoint );
    106          
    107          static pDescCB afGetDescCB( endPointDesc_t *epDesc );
    108          
    109          /*********************************************************************
    110           * PUBLIC FUNCTIONS
    111           */
    112          
    113          /*********************************************************************
    114           * @fn      afInit
    115           *
    116           * @brief   Initialization function for the AF.
    117           *
    118           * @param   none
    119           *
    120           * @return  none
    121          void afInit( void )
    122          {
    123          }
    124           */
    125          
    126          /*********************************************************************
    127           * @fn      afRegisterExtended
    128           *
    129           * @brief   Register an Application's EndPoint description.
    130           *
    131           * @param   epDesc - pointer to the Application's endpoint descriptor.
    132           * @param   descFn - pointer to descriptor callback function
    133           *
    134           * NOTE:  The memory that epDesc is pointing to must exist after this call.
    135           *
    136           * @return  Pointer to epList_t on success, NULL otherwise.
    137           */

   \                                 In  segment BANKED_CODE, align 1, keep-with-next
    138          epList_t *afRegisterExtended( endPointDesc_t *epDesc, pDescCB descFn )
   \                     afRegisterExtended:
    139          {
   \   000000   74F4         MOV     A,#-0xc
   \   000002   12....       LCALL   ?BANKED_ENTER_XDATA
   \   000005                ; Saved register size: 12
   \   000005                ; Auto size: 0
   \   000005   EA           MOV     A,R2
   \   000006   FE           MOV     R6,A
   \   000007   EB           MOV     A,R3
   \   000008   FF           MOV     R7,A
   \   000009   8C..         MOV     ?V0 + 0,R4
   \   00000B   8D..         MOV     ?V0 + 1,R5
    140            epList_t *ep = osal_mem_alloc(sizeof(epList_t));
   \   00000D                ; Setup parameters for call to function osal_mem_alloc
   \   00000D   7A09         MOV     R2,#0x9
   \   00000F   7B00         MOV     R3,#0x0
   \   000011   12....       LCALL   ??osal_mem_alloc?relay
    141          
    142            if (ep != NULL)
   \   000014   EA           MOV     A,R2
   \   000015   4B           ORL     A,R3
   \   000016   6035         JZ      ??afRegisterExtended_0
    143            {
    144              ep->nextDesc = epList;
   \   000018   90....       MOV     DPTR,#epList
   \   00001B   12....       LCALL   ??Subroutine37_0 & 0xFFFF
   \                     ??CrossCallReturnLabel_67:
   \   00001E   8A82         MOV     DPL,R2
   \   000020   8B83         MOV     DPH,R3
   \   000022   12....       LCALL   ??Subroutine36_0 & 0xFFFF
    145              epList = ep;
   \                     ??CrossCallReturnLabel_57:
   \   000025   90....       MOV     DPTR,#epList
   \   000028   EA           MOV     A,R2
   \   000029   F0           MOVX    @DPTR,A
   \   00002A   A3           INC     DPTR
   \   00002B   EB           MOV     A,R3
   \   00002C   12....       LCALL   ?Subroutine25 & 0xFFFF
    146              ep->epDesc = epDesc;
    147              ep->pfnDescCB = descFn;
    148              ep->apsfCfg.frameDelay = APSF_DEFAULT_INTERFRAME_DELAY;
    149              ep->apsfCfg.windowSize = APSF_DEFAULT_WINDOW_SIZE;
    150              ep->flags = eEP_AllowMatch;  // Default to allow Match Descriptor.
    151            }
   \                     ??CrossCallReturnLabel_40:
   \   00002F   EE           MOV     A,R6
   \   000030   F0           MOVX    @DPTR,A
   \   000031   A3           INC     DPTR
   \   000032   EF           MOV     A,R7
   \   000033   12....       LCALL   ?Subroutine24 & 0xFFFF
   \                     ??CrossCallReturnLabel_38:
   \   000036   E5..         MOV     A,?V0 + 0
   \   000038   F0           MOVX    @DPTR,A
   \   000039   A3           INC     DPTR
   \   00003A   E5..         MOV     A,?V0 + 1
   \   00003C   12....       LCALL   ?Subroutine24 & 0xFFFF
   \                     ??CrossCallReturnLabel_39:
   \   00003F   A3           INC     DPTR
   \   000040   A3           INC     DPTR
   \   000041   7432         MOV     A,#0x32
   \   000043   12....       LCALL   ?Subroutine22 & 0xFFFF
   \                     ??CrossCallReturnLabel_33:
   \   000046   7401         MOV     A,#0x1
   \   000048   12....       LCALL   ?Subroutine22 & 0xFFFF
   \                     ??CrossCallReturnLabel_34:
   \   00004B   A3           INC     DPTR
   \   00004C   F0           MOVX    @DPTR,A
    152          
    153            return ep;
   \                     ??afRegisterExtended_0:
   \   00004D   02....       LJMP    ?Subroutine0 & 0xFFFF
    154          }

   \                                 In  segment BANKED_CODE, align 1, keep-with-next
   \                     ?Subroutine24:
   \   000000   12....       LCALL   ?Subroutine31 & 0xFFFF
   \                     ??CrossCallReturnLabel_51:
   \   000003   22           RET

   \                                 In  segment BANKED_CODE, align 1, keep-with-next
   \                     ?Subroutine31:
   \   000000   F0           MOVX    @DPTR,A
   \   000001   8A82         MOV     DPL,R2
   \   000003   8B83         MOV     DPH,R3
   \   000005   A3           INC     DPTR
   \   000006   A3           INC     DPTR
   \   000007   A3           INC     DPTR
   \   000008   A3           INC     DPTR
   \   000009   22           RET

   \                                 In  segment BANKED_CODE, align 1, keep-with-next
   \                     ?Subroutine22:
   \   000000   12....       LCALL   ?Subroutine31 & 0xFFFF
   \                     ??CrossCallReturnLabel_52:
   \   000003   A3           INC     DPTR
   \   000004   A3           INC     DPTR
   \   000005   A3           INC     DPTR
   \   000006   22           RET

   \                                 In  segment BANKED_CODE, align 1, keep-with-next
   \                     ?Subroutine25:
   \   000000   F0           MOVX    @DPTR,A
   \   000001   8A82         MOV     DPL,R2
   \   000003   8B83         MOV     DPH,R3
   \   000005   A3           INC     DPTR
   \   000006   A3           INC     DPTR
   \   000007   22           RET

   \                                 In  segment BANKED_CODE, align 1, keep-with-next
   \                     ??Subroutine36_0:
   \   000000   E8           MOV     A,R0
   \   000001   F0           MOVX    @DPTR,A
   \   000002   A3           INC     DPTR
   \   000003   E9           MOV     A,R1
   \   000004   F0           MOVX    @DPTR,A
   \   000005   22           RET

   \                                 In  segment BANKED_CODE, align 1, keep-with-next
   \                     ??Subroutine37_0:
   \   000000   12....       LCALL   ??Subroutine38_0 & 0xFFFF
   \                     ??CrossCallReturnLabel_78:
   \   000003   22           RET

   \                                 In  segment BANKED_CODE, align 1, keep-with-next
   \                     ??Subroutine38_0:
   \   000000   E0           MOVX    A,@DPTR
   \   000001   F8           MOV     R0,A
   \   000002   A3           INC     DPTR
   \   000003   E0           MOVX    A,@DPTR
   \   000004   F9           MOV     R1,A
   \   000005   22           RET

   \                                 In  segment BANKED_CODE, align 1, keep-with-next
   \                     ?Subroutine0:
   \   000000   7F04         MOV     R7,#0x4
   \   000002   02....       LJMP    ?BANKED_LEAVE_XDATA
    155          
    156          /*********************************************************************
    157           * @fn      afRegister
    158           *
    159           * @brief   Register an Application's EndPoint description.
    160           *
    161           * @param   epDesc - pointer to the Application's endpoint descriptor.
    162           *
    163           * NOTE:  The memory that epDesc is pointing to must exist after this call.
    164           *
    165           * @return  afStatus_SUCCESS - Registered
    166           *          afStatus_MEM_FAIL - not enough memory to add descriptor
    167           *          afStatus_INVALID_PARAMETER - duplicate endpoint
    168           */

   \                                 In  segment BANKED_CODE, align 1, keep-with-next
    169          afStatus_t afRegister( endPointDesc_t *epDesc )
   \                     afRegister:
    170          {
   \   000000   74F6         MOV     A,#-0xa
   \   000002   12....       LCALL   ?BANKED_ENTER_XDATA
   \   000005                ; Saved register size: 10
   \   000005                ; Auto size: 0
   \   000005   EA           MOV     A,R2
   \   000006   FE           MOV     R6,A
   \   000007   EB           MOV     A,R3
   \   000008   FF           MOV     R7,A
    171            if (afFindEndPointDescList(epDesc->endPoint))  // Look for duplicate endpoint.
   \   000009                ; Setup parameters for call to function afFindEndPointDescList
   \   000009   8E82         MOV     DPL,R6
   \   00000B   8F83         MOV     DPH,R7
   \   00000D   E0           MOVX    A,@DPTR
   \   00000E   F9           MOV     R1,A
   \   00000F   12....       LCALL   ??afFindEndPointDescList?relay
   \   000012   8B..         MOV     ?V0 + 1,R3
   \   000014   EA           MOV     A,R2
   \   000015   45..         ORL     A,?V0 + 1
   \   000017   6004         JZ      ??afRegister_0
    172            {
    173              return afStatus_INVALID_PARAMETER;
   \   000019   7902         MOV     R1,#0x2
   \   00001B   8018         SJMP    ??afRegister_1
    174            }
    175          
    176            return ((NULL == afRegisterExtended(epDesc, NULL)) ? afStatus_MEM_FAIL : afStatus_SUCCESS);
   \                     ??afRegister_0:
   \   00001D                ; Setup parameters for call to function afRegisterExtended
   \   00001D   7C00         MOV     R4,#0x0
   \   00001F   7D00         MOV     R5,#0x0
   \   000021   EE           MOV     A,R6
   \   000022   FA           MOV     R2,A
   \   000023   EF           MOV     A,R7
   \   000024   FB           MOV     R3,A
   \   000025   12....       LCALL   ??afRegisterExtended?relay
   \   000028   8B..         MOV     ?V0 + 1,R3
   \   00002A   EA           MOV     A,R2
   \   00002B   45..         ORL     A,?V0 + 1
   \   00002D   7004         JNZ     ??afRegister_2
   \   00002F   7910         MOV     R1,#0x10
   \   000031   8002         SJMP    ??afRegister_1
   \                     ??afRegister_2:
   \   000033   7900         MOV     R1,#0x0
   \                     ??afRegister_1:
   \   000035   02....       LJMP    ?Subroutine1 & 0xFFFF
    177          }

   \                                 In  segment BANKED_CODE, align 1, keep-with-next
   \                     ?Subroutine1:
   \   000000   7F02         MOV     R7,#0x2
   \   000002   02....       LJMP    ?BANKED_LEAVE_XDATA
    178          
    179          /*********************************************************************
    180           * @fn      afDelete
    181           *
    182           * @brief   Delete an Application's EndPoint descriptor and frees the memory
    183           *
    184           * @param   EndPoint - Application Endpoint to delete
    185           *
    186           * @return  afStatus_SUCCESS - endpoint deleted
    187           *          afStatus_INVALID_PARAMETER - endpoint not found
    188           *          afStatus_FAILED - endpoint list empty
    189           */

   \                                 In  segment BANKED_CODE, align 1, keep-with-next
    190          afStatus_t afDelete( uint8 EndPoint )
   \                     afDelete:
    191          {
   \   000000   74F7         MOV     A,#-0x9
   \   000002   12....       LCALL   ?BANKED_ENTER_XDATA
   \   000005                ; Saved register size: 9
   \   000005                ; Auto size: 0
   \   000005   E9           MOV     A,R1
   \   000006   FE           MOV     R6,A
    192            epList_t *epCurrent;
    193            epList_t *epPrevious;
    194          
    195            if (epList != NULL)
   \   000007   90....       MOV     DPTR,#epList
   \   00000A   12....       LCALL   ?Subroutine9 & 0xFFFF
   \                     ??CrossCallReturnLabel_11:
   \   00000D   6047         JZ      ??afDelete_0
    196            {
    197              epPrevious = epCurrent = epList;
   \   00000F   90....       MOV     DPTR,#epList
   \   000012   12....       LCALL   ??Subroutine39_0 & 0xFFFF
   \                     ??CrossCallReturnLabel_79:
   \   000015   F9           MOV     R1,A
    198          
    199              // first element of the list matches
    200              if (epCurrent->epDesc->endPoint == EndPoint)
   \   000016   12....       LCALL   ?Subroutine12 & 0xFFFF
   \                     ??CrossCallReturnLabel_17:
   \   000019   7012         JNZ     ??afDelete_1
    201              {
    202                epList = epCurrent->nextDesc;
   \   00001B   12....       LCALL   ?Subroutine14 & 0xFFFF
   \                     ??CrossCallReturnLabel_73:
   \   00001E   90....       MOV     DPTR,#epList
   \   000021   E8           MOV     A,R0
   \   000022   F0           MOVX    @DPTR,A
   \   000023   A3           INC     DPTR
   \   000024   E9           MOV     A,R1
   \                     ??afDelete_2:
   \   000025   F0           MOVX    @DPTR,A
    203                osal_mem_free(epCurrent);
   \   000026                ; Setup parameters for call to function osal_mem_free
   \   000026   12....       LCALL   ??osal_mem_free?relay
    204          
    205                return (afStatus_SUCCESS);
   \   000029   7900         MOV     R1,#0x0
   \   00002B   802B         SJMP    ??afDelete_3
    206              }
    207              else
    208              {
    209                // search the list
    210                for (epCurrent = epPrevious->nextDesc; epCurrent != NULL; epPrevious = epCurrent)
   \                     ??afDelete_1:
   \   00002D   8882         MOV     DPL,R0
   \   00002F   8983         MOV     DPH,R1
   \   000031   12....       LCALL   ??Subroutine39_0 & 0xFFFF
   \                     ??CrossCallReturnLabel_80:
   \   000034   EA           MOV     A,R2
   \   000035   4B           ORL     A,R3
   \   000036   7008         JNZ     ??afDelete_4
    211                {
    212                  if (epCurrent->epDesc->endPoint == EndPoint)
    213                  {
    214                    epPrevious->nextDesc = epCurrent->nextDesc;
    215                    osal_mem_free(epCurrent);
    216          
    217                    // delete the entry and free the memory
    218                    return (afStatus_SUCCESS);
    219                  }
    220                }
    221              }
    222          
    223              // no endpoint found
    224              return (afStatus_INVALID_PARAMETER);
   \   000038   7902         MOV     R1,#0x2
   \   00003A   801C         SJMP    ??afDelete_3
   \                     ??afDelete_5:
   \   00003C   EA           MOV     A,R2
   \   00003D   F8           MOV     R0,A
   \   00003E   EB           MOV     A,R3
   \   00003F   F9           MOV     R1,A
   \                     ??afDelete_4:
   \   000040   12....       LCALL   ?Subroutine12 & 0xFFFF
   \                     ??CrossCallReturnLabel_18:
   \   000043   70F7         JNZ     ??afDelete_5
   \   000045   8A82         MOV     DPL,R2
   \   000047   8B83         MOV     DPH,R3
   \   000049   12....       LCALL   ?Subroutine18 & 0xFFFF
    225            }
   \                     ??CrossCallReturnLabel_25:
   \   00004C   8882         MOV     DPL,R0
   \   00004E   8983         MOV     DPH,R1
   \   000050   EC           MOV     A,R4
   \   000051   F0           MOVX    @DPTR,A
   \   000052   A3           INC     DPTR
   \   000053   ED           MOV     A,R5
   \   000054   80CF         SJMP    ??afDelete_2
    226            else
    227            {
    228              // epList is empty
    229              return (afStatus_FAILED);
   \                     ??afDelete_0:
   \   000056   7901         MOV     R1,#0x1
    230            }
   \                     ??afDelete_3:
   \   000058                REQUIRE ?Subroutine2
   \   000058                ; // Fall through to label ?Subroutine2
    231          }

   \                                 In  segment BANKED_CODE, align 1, keep-with-next
   \                     ?Subroutine2:
   \   000000   7F01         MOV     R7,#0x1
   \   000002   02....       LJMP    ?BANKED_LEAVE_XDATA

   \                                 In  segment BANKED_CODE, align 1, keep-with-next
   \                     ?Subroutine12:
   \   000000   8A82         MOV     DPL,R2
   \   000002   8B83         MOV     DPH,R3
   \   000004   A3           INC     DPTR
   \   000005   A3           INC     DPTR
   \   000006   E0           MOVX    A,@DPTR
   \   000007   FC           MOV     R4,A
   \   000008   A3           INC     DPTR
   \   000009   E0           MOVX    A,@DPTR
   \   00000A   F583         MOV     DPH,A
   \   00000C   8C82         MOV     DPL,R4
   \   00000E   E0           MOVX    A,@DPTR
   \   00000F   6E           XRL     A,R6
   \   000010   22           RET

   \                                 In  segment BANKED_CODE, align 1, keep-with-next
   \                     ?Subroutine14:
   \   000000   8A82         MOV     DPL,R2
   \   000002   8B83         MOV     DPH,R3
   \   000004                REQUIRE ??Subroutine37_0
   \   000004                ; // Fall through to label ??Subroutine37_0

   \                                 In  segment BANKED_CODE, align 1, keep-with-next
   \                     ?Subroutine9:
   \   000000   12....       LCALL   ??Subroutine38_0 & 0xFFFF
   \                     ??CrossCallReturnLabel_75:
   \   000003   E8           MOV     A,R0
   \   000004   49           ORL     A,R1
   \   000005   22           RET

   \                                 In  segment BANKED_CODE, align 1, keep-with-next
   \                     ?Subroutine18:
   \   000000   E0           MOVX    A,@DPTR
   \   000001   FC           MOV     R4,A
   \   000002   A3           INC     DPTR
   \   000003   E0           MOVX    A,@DPTR
   \   000004   FD           MOV     R5,A
   \   000005   22           RET

   \                                 In  segment BANKED_CODE, align 1, keep-with-next
   \                     ??Subroutine39_0:
   \   000000   E0           MOVX    A,@DPTR
   \   000001   FA           MOV     R2,A
   \   000002   A3           INC     DPTR
   \   000003   E0           MOVX    A,@DPTR
   \   000004   FB           MOV     R3,A
   \   000005   22           RET
    232          
    233          /*********************************************************************
    234           * @fn          afDataConfirm
    235           *
    236           * @brief       This function will generate the Data Confirm back to
    237           *              the application.
    238           *
    239           * @param       endPoint - confirm end point
    240           * @param       transID - transaction ID from APSDE_DATA_REQUEST
    241           * @param       status - status of APSDE_DATA_REQUEST
    242           *
    243           * @return      none
    244           */

   \                                 In  segment BANKED_CODE, align 1, keep-with-next
    245          void afDataConfirm( uint8 endPoint, uint8 transID, ZStatus_t status )
   \                     afDataConfirm:
    246          {
   \   000000   74F2         MOV     A,#-0xe
   \   000002   12....       LCALL   ?BANKED_ENTER_XDATA
   \   000005                ; Saved register size: 14
   \   000005                ; Auto size: 0
   \   000005   89..         MOV     ?V0 + 0,R1
   \   000007   8A..         MOV     ?V0 + 1,R2
   \   000009   8B..         MOV     ?V0 + 2,R3
    247            endPointDesc_t *epDesc;
    248            afDataConfirm_t *msgPtr;
    249          
    250            // Find the endpoint description
    251            epDesc = afFindEndPointDesc( endPoint );
   \   00000B                ; Setup parameters for call to function afFindEndPointDesc
   \   00000B   12....       LCALL   ??afFindEndPointDesc?relay
   \   00000E   8A..         MOV     ?V0 + 4,R2
   \   000010   8B..         MOV     ?V0 + 5,R3
   \   000012   AE..         MOV     R6,?V0 + 4
   \   000014   AF..         MOV     R7,?V0 + 5
    252            if ( epDesc == NULL )
   \   000016   EE           MOV     A,R6
   \   000017   4F           ORL     A,R7
   \   000018   6028         JZ      ??CrossCallReturnLabel_6
    253              return;
    254          
    255            // Determine the incoming command type
    256            msgPtr = (afDataConfirm_t *)osal_msg_allocate( sizeof(afDataConfirm_t) );
   \   00001A                ; Setup parameters for call to function osal_msg_allocate
   \   00001A   7A04         MOV     R2,#0x4
   \   00001C   7B00         MOV     R3,#0x0
   \   00001E   12....       LCALL   ??osal_msg_allocate?relay
    257            if ( msgPtr )
   \   000021   EA           MOV     A,R2
   \   000022   4B           ORL     A,R3
   \   000023   601D         JZ      ??CrossCallReturnLabel_6
    258            {
    259              // Build the Data Confirm message
    260              msgPtr->hdr.event = AF_DATA_CONFIRM_CMD;
   \   000025   8A82         MOV     DPL,R2
   \   000027   8B83         MOV     DPH,R3
   \   000029   74FD         MOV     A,#-0x3
   \   00002B   F0           MOVX    @DPTR,A
    261              msgPtr->hdr.status = status;
   \   00002C   A3           INC     DPTR
   \   00002D   E5..         MOV     A,?V0 + 2
   \   00002F   12....       LCALL   ?Subroutine25 & 0xFFFF
    262              msgPtr->endpoint = endPoint;
   \                     ??CrossCallReturnLabel_41:
   \   000032   E5..         MOV     A,?V0 + 0
   \   000034   12....       LCALL   ?Subroutine25 & 0xFFFF
    263              msgPtr->transID = transID;
   \                     ??CrossCallReturnLabel_42:
   \   000037   A3           INC     DPTR
   \   000038   E5..         MOV     A,?V0 + 1
   \   00003A   F0           MOVX    @DPTR,A
    264          
    265          #if defined ( MT_AF_CB_FUNC )
    266              /* If MT has subscribed for this callback, don't send as a message. */
    267              if ( AFCB_CHECK(CB_ID_AF_DATA_CNF,*(epDesc->task_id)) )
    268              {
    269                /* Send callback if it's subscribed */
    270                MT_AfDataConfirm ((void *)msgPtr);
    271                /* Release the memory. */
    272                osal_msg_deallocate( (void *)msgPtr );
    273              }
    274              else
    275          #endif
    276              {
    277                /* send message through task message */
    278                osal_msg_send( *(epDesc->task_id), (uint8 *)msgPtr );
   \   00003B                ; Setup parameters for call to function osal_msg_send
   \   00003B   8E82         MOV     DPL,R6
   \   00003D   8F83         MOV     DPH,R7
   \   00003F   12....       LCALL   ?Subroutine7 & 0xFFFF
    279              }
    280            }
   \                     ??CrossCallReturnLabel_6:
   \   000042   7F06         MOV     R7,#0x6
   \   000044   02....       LJMP    ?BANKED_LEAVE_XDATA
    281          }

   \                                 In  segment BANKED_CODE, align 1, keep-with-next
   \                     ?Subroutine7:
   \   000000   12....       LCALL   ??Subroutine40_0 & 0xFFFF
   \                     ??CrossCallReturnLabel_90:
   \   000003   E0           MOVX    A,@DPTR
   \   000004   F9           MOV     R1,A
   \   000005   12....       LCALL   ??osal_msg_send?relay
   \   000008   22           RET

   \                                 In  segment BANKED_CODE, align 1, keep-with-next
   \                     ??Subroutine40_0:
   \   000000   A3           INC     DPTR
   \   000001   E0           MOVX    A,@DPTR
   \   000002   F8           MOV     R0,A
   \   000003   A3           INC     DPTR
   \   000004                REQUIRE ??Subroutine41_0
   \   000004                ; // Fall through to label ??Subroutine41_0

   \                                 In  segment BANKED_CODE, align 1, keep-with-next
   \                     ??Subroutine41_0:
   \   000000   E0           MOVX    A,@DPTR
   \   000001   F583         MOV     DPH,A
   \   000003   8882         MOV     DPL,R0
   \   000005   22           RET
    282          
    283          /*********************************************************************
    284           * @fn          afIncomingData
    285           *
    286           * @brief       Transfer a data PDU (ASDU) from the APS sub-layer to the AF.
    287           *
    288           * @param       aff  - pointer to APS frame format
    289           * @param       SrcAddress  - Source address
    290           * @param       SrcPanId  - Source PAN ID
    291           * @param       sig - incoming message's link quality
    292           * @param       nwkSeqNum - incoming network sequence number (from nwk header frame)
    293           * @param       SecurityUse - Security enable/disable
    294           * @param       timestamp - the MAC Timer2 timestamp at Rx.
    295           *
    296           * @return      none
    297           */

   \                                 In  segment BANKED_CODE, align 1, keep-with-next
    298          void afIncomingData( aps_FrameFormat_t *aff, zAddrType_t *SrcAddress, uint16 SrcPanId,
   \                     afIncomingData:
    299                               NLDE_Signal_t *sig, uint8 nwkSeqNum, uint8 SecurityUse, uint32 timestamp )
    300          {
   \   000000   74E8         MOV     A,#-0x18
   \   000002   12....       LCALL   ?BANKED_ENTER_XDATA
   \   000005                ; Saved register size: 24
   \   000005                ; Auto size: 3
   \   000005   74FD         MOV     A,#-0x3
   \   000007   12....       LCALL   ?ALLOC_XSTACK8
   \   00000A   7401         MOV     A,#0x1
   \   00000C   12....       LCALL   ?XSTACK_DISP0_8
   \   00000F   EC           MOV     A,R4
   \   000010   F0           MOVX    @DPTR,A
   \   000011   A3           INC     DPTR
   \   000012   ED           MOV     A,R5
   \   000013   F0           MOVX    @DPTR,A
   \   000014   E9           MOV     A,R1
   \   000015   85..82       MOV     DPL,?XSP + 0
   \   000018   85..83       MOV     DPH,?XSP + 1
   \   00001B   F0           MOVX    @DPTR,A
   \   00001C   8A..         MOV     ?V0 + 8,R2
   \   00001E   8B..         MOV     ?V0 + 9,R3
   \   000020   741B         MOV     A,#0x1b
   \   000022   12....       LCALL   ?XSTACK_DISP0_8
   \   000025   E0           MOVX    A,@DPTR
   \   000026   F5..         MOV     ?V0 + 10,A
   \   000028   A3           INC     DPTR
   \   000029   E0           MOVX    A,@DPTR
   \   00002A   F5..         MOV     ?V0 + 11,A
   \   00002C   7420         MOV     A,#0x20
   \   00002E   12....       LCALL   ?XSTACK_DISP0_8
   \   000031   78..         MOV     R0,#?V0 + 4
   \   000033   12....       LCALL   ?L_MOV_X
    301            endPointDesc_t *epDesc = NULL;
    302            epList_t *pList = epList;
   \   000036   90....       MOV     DPTR,#epList
   \   000039   E0           MOVX    A,@DPTR
   \   00003A   F5..         MOV     ?V0 + 0,A
   \   00003C   A3           INC     DPTR
   \   00003D   E0           MOVX    A,@DPTR
   \   00003E   F5..         MOV     ?V0 + 1,A
    303          #if !defined ( APS_NO_GROUPS )
    304            uint8 grpEp = APS_GROUPS_EP_NOT_FOUND;
   \   000040   75..FE       MOV     ?V0 + 2,#-0x2
   \   000043   8A82         MOV     DPL,R2
   \   000045   8B83         MOV     DPH,R3
   \   000047   E0           MOVX    A,@DPTR
   \   000048   540C         ANL     A,#0xc
   \   00004A   640C         XRL     A,#0xc
   \   00004C   7017         JNZ     ??afIncomingData_0
    305          #endif
    306          
    307            if ( ((aff->FrmCtrl & APS_DELIVERYMODE_MASK) == APS_FC_DM_GROUP) )
    308            {
    309          #if !defined ( APS_NO_GROUPS )
    310              // Find the first endpoint for this group
    311              grpEp = aps_FindGroupForEndpoint( aff->GroupID, APS_GROUPS_FIND_FIRST );
   \   00004E                ; Setup parameters for call to function aps_FindGroupForEndpoint
   \   00004E   79FE         MOV     R1,#-0x2
   \   000050   12....       LCALL   ?Subroutine5 & 0xFFFF
    312              if ( grpEp == APS_GROUPS_EP_NOT_FOUND )
   \                     ??CrossCallReturnLabel_0:
   \   000053   7003         JNZ     $+5
   \   000055   02....       LJMP    ??afIncomingData_1 & 0xFFFF
    313                return;   // No endpoint found
    314          
    315              epDesc = afFindEndPointDesc( grpEp );
   \   000058                ; Setup parameters for call to function afFindEndPointDesc
   \   000058   12....       LCALL   ?Subroutine29 & 0xFFFF
    316              if ( epDesc == NULL )
   \                     ??CrossCallReturnLabel_47:
   \   00005B   7003         JNZ     $+5
   \   00005D   02....       LJMP    ??afIncomingData_1 & 0xFFFF
    317                return;   // Endpoint descriptor not found
    318          
    319              pList = afFindEndPointDescList( epDesc->endPoint );
   \                     ??afIncomingData_2:
   \   000060                ; Setup parameters for call to function afFindEndPointDescList
   \   000060   12....       LCALL   ?Subroutine15 & 0xFFFF
    320          #else
    321              return; // Not supported
    322          #endif
    323            }
   \                     ??CrossCallReturnLabel_21:
   \   000063   8036         SJMP    ??afIncomingData_3
    324            else if ( aff->DstEndPoint == AF_BROADCAST_ENDPOINT )
   \                     ??afIncomingData_0:
   \   000065   A3           INC     DPTR
   \   000066   A3           INC     DPTR
   \   000067   E0           MOVX    A,@DPTR
   \   000068   F9           MOV     R1,A
   \   000069   74FF         MOV     A,#-0x1
   \   00006B   69           XRL     A,R1
   \   00006C   700B         JNZ     ??afIncomingData_4
    325            {
    326              // Set the list
    327              if ( pList != NULL )
   \   00006E   E5..         MOV     A,?V0 + 0
   \   000070   45..         ORL     A,?V0 + 1
   \   000072   7003         JNZ     $+5
   \   000074   02....       LJMP    ??afIncomingData_1 & 0xFFFF
    328              {
    329                epDesc = pList->epDesc;
   \   000077   8015         SJMP    ??afIncomingData_5
    330              }
    331            }
    332            else if ( (epDesc = afFindEndPointDesc( aff->DstEndPoint )) )
   \                     ??afIncomingData_4:
   \   000079                ; Setup parameters for call to function afFindEndPointDesc
   \   000079   12....       LCALL   ??afFindEndPointDesc?relay
   \   00007C   8A..         MOV     ?V0 + 12,R2
   \   00007E   8B..         MOV     ?V0 + 13,R3
   \   000080   A8..         MOV     R0,?V0 + 12
   \   000082   A9..         MOV     R1,?V0 + 13
   \   000084   E8           MOV     A,R0
   \   000085   FE           MOV     R6,A
   \   000086   E9           MOV     A,R1
   \   000087   FF           MOV     R7,A
   \   000088   E8           MOV     A,R0
   \   000089   49           ORL     A,R1
   \   00008A   600F         JZ      ??afIncomingData_3
   \   00008C   80D2         SJMP    ??afIncomingData_2
    333            {
    334              pList = afFindEndPointDescList( epDesc->endPoint );
    335            }
    336          
    337            while ( epDesc )
    338            {
    339              uint16 epProfileID = 0xFFFF;  // Invalid Profile ID
    340          
    341              if ( pList->pfnDescCB )
    342              {
    343                uint16 *pID = (uint16 *)(pList->pfnDescCB(
    344                                           AF_DESCRIPTOR_PROFILE_ID, epDesc->endPoint ));
    345                if ( pID )
    346                {
    347                  epProfileID = *pID;
    348                  osal_mem_free( pID );
    349                }
    350              }
    351              else if ( epDesc->simpleDesc )
    352              {
    353                epProfileID = epDesc->simpleDesc->AppProfId;
    354              }
    355          
    356              if ( (aff->ProfileID == epProfileID) ||
    357                   ((epDesc->endPoint == ZDO_EP) && (aff->ProfileID == ZDO_PROFILE_ID)) )
    358              {
    359                {
    360                  // Save original endpoint
    361                  uint8 endpoint = aff->DstEndPoint;
    362          
    363                  // overwrite with descriptor's endpoint
    364                  aff->DstEndPoint = epDesc->endPoint;
    365          
    366                  afBuildMSGIncoming( aff, epDesc, SrcAddress, SrcPanId, sig,
    367                                     nwkSeqNum, SecurityUse, timestamp );
    368          
    369                  // Restore with original endpoint
    370                  aff->DstEndPoint = endpoint;
    371                }
    372              }
    373          
    374              if ( ((aff->FrmCtrl & APS_DELIVERYMODE_MASK) == APS_FC_DM_GROUP) )
    375              {
    376          #if !defined ( APS_NO_GROUPS )
    377                // Find the next endpoint for this group
    378                grpEp = aps_FindGroupForEndpoint( aff->GroupID, grpEp );
    379                if ( grpEp == APS_GROUPS_EP_NOT_FOUND )
    380                  return;   // No endpoint found
    381          
    382                epDesc = afFindEndPointDesc( grpEp );
    383                if ( epDesc == NULL )
    384                  return;   // Endpoint descriptor not found
    385          
    386                pList = afFindEndPointDescList( epDesc->endPoint );
    387          #else
    388                return;
    389          #endif
    390              }
    391              else if ( aff->DstEndPoint == AF_BROADCAST_ENDPOINT )
    392              {
    393                pList = pList->nextDesc;
    394                if ( pList )
    395                  epDesc = pList->epDesc;
   \                     ??afIncomingData_5:
   \   00008E   85..82       MOV     DPL,?V0 + 0
   \   000091   85..83       MOV     DPH,?V0 + 1
   \   000094   A3           INC     DPTR
   \   000095   A3           INC     DPTR
   \   000096   E0           MOVX    A,@DPTR
   \   000097   FE           MOV     R6,A
   \   000098   A3           INC     DPTR
   \   000099   E0           MOVX    A,@DPTR
   \   00009A   FF           MOV     R7,A
   \                     ??afIncomingData_3:
   \   00009B   EE           MOV     A,R6
   \   00009C   4F           ORL     A,R7
   \   00009D   7003         JNZ     $+5
   \   00009F   02....       LJMP    ??afIncomingData_1 & 0xFFFF
   \   0000A2   8015         SJMP    ??CrossCallReturnLabel_22
   \                     ??afIncomingData_6:
   \   0000A4                ; Setup parameters for call to function aps_FindGroupForEndpoint
   \   0000A4   A9..         MOV     R1,?V0 + 2
   \   0000A6   12....       LCALL   ?Subroutine5 & 0xFFFF
   \                     ??CrossCallReturnLabel_1:
   \   0000A9   7003         JNZ     $+5
   \   0000AB   02....       LJMP    ??afIncomingData_1 & 0xFFFF
   \   0000AE                ; Setup parameters for call to function afFindEndPointDesc
   \   0000AE   12....       LCALL   ?Subroutine29 & 0xFFFF
   \                     ??CrossCallReturnLabel_48:
   \   0000B1   7003         JNZ     $+5
   \   0000B3   02....       LJMP    ??afIncomingData_1 & 0xFFFF
   \   0000B6                ; Setup parameters for call to function afFindEndPointDescList
   \   0000B6   12....       LCALL   ?Subroutine15 & 0xFFFF
   \                     ??CrossCallReturnLabel_22:
   \   0000B9   75..FF       MOV     ?V0 + 14,#-0x1
   \   0000BC   75..FF       MOV     ?V0 + 15,#-0x1
   \   0000BF   85..82       MOV     DPL,?V0 + 0
   \   0000C2   85..83       MOV     DPH,?V0 + 1
   \   0000C5   12....       LCALL   ?Subroutine10 & 0xFFFF
   \                     ??CrossCallReturnLabel_14:
   \   0000C8   8E82         MOV     DPL,R6
   \   0000CA   8F83         MOV     DPH,R7
   \   0000CC   6016         JZ      ??afIncomingData_7
   \   0000CE                ; Setup parameters for indirect call
   \   0000CE   12....       LCALL   ?Subroutine20 & 0xFFFF
   \                     ??CrossCallReturnLabel_31:
   \   0000D1   12....       LCALL   ?CALL_IND
   \   0000D4   EA           MOV     A,R2
   \   0000D5   4B           ORL     A,R3
   \   0000D6   6015         JZ      ??CrossCallReturnLabel_3
   \   0000D8   8A82         MOV     DPL,R2
   \   0000DA   8B83         MOV     DPH,R3
   \   0000DC   12....       LCALL   ?Subroutine6 & 0xFFFF
   \                     ??CrossCallReturnLabel_2:
   \   0000DF                ; Setup parameters for call to function osal_mem_free
   \   0000DF   12....       LCALL   ??osal_mem_free?relay
   \   0000E2   8009         SJMP    ??CrossCallReturnLabel_3
   \                     ??afIncomingData_7:
   \   0000E4   12....       LCALL   ?Subroutine8 & 0xFFFF
   \                     ??CrossCallReturnLabel_8:
   \   0000E7   6004         JZ      ??CrossCallReturnLabel_3
   \   0000E9   A3           INC     DPTR
   \   0000EA   12....       LCALL   ?Subroutine6 & 0xFFFF
   \                     ??CrossCallReturnLabel_3:
   \   0000ED   85..82       MOV     DPL,?V0 + 8
   \   0000F0   85..83       MOV     DPH,?V0 + 9
   \   0000F3   A3           INC     DPTR
   \   0000F4   A3           INC     DPTR
   \   0000F5   A3           INC     DPTR
   \   0000F6   A3           INC     DPTR
   \   0000F7   A3           INC     DPTR
   \   0000F8   A3           INC     DPTR
   \   0000F9   A3           INC     DPTR
   \   0000FA   A3           INC     DPTR
   \   0000FB   12....       LCALL   ?Subroutine13 & 0xFFFF
   \                     ??CrossCallReturnLabel_19:
   \   0000FE   E0           MOVX    A,@DPTR
   \   0000FF   FA           MOV     R2,A
   \   000100   E5..         MOV     A,?V0 + 14
   \   000102   68           XRL     A,R0
   \   000103   7003         JNZ     ??afIncomingData_8
   \   000105   E5..         MOV     A,?V0 + 15
   \   000107   69           XRL     A,R1
   \                     ??afIncomingData_8:
   \   000108   6007         JZ      ??afIncomingData_9
   \   00010A   EA           MOV     A,R2
   \   00010B   7062         JNZ     ??afIncomingData_10
   \   00010D   E8           MOV     A,R0
   \   00010E   49           ORL     A,R1
   \   00010F   705E         JNZ     ??afIncomingData_10
   \                     ??afIncomingData_9:
   \   000111   85..82       MOV     DPL,?V0 + 8
   \   000114   85..83       MOV     DPH,?V0 + 9
   \   000117   A3           INC     DPTR
   \   000118   A3           INC     DPTR
   \   000119   E0           MOVX    A,@DPTR
   \   00011A   F5..         MOV     ?V0 + 3,A
   \   00011C   EA           MOV     A,R2
   \   00011D   85..82       MOV     DPL,?V0 + 8
   \   000120   85..83       MOV     DPH,?V0 + 9
   \   000123   A3           INC     DPTR
   \   000124   A3           INC     DPTR
   \   000125   F0           MOVX    @DPTR,A
   \   000126                ; Setup parameters for call to function afBuildMSGIncoming
   \   000126   78..         MOV     R0,#?V0 + 4
   \   000128   12....       LCALL   ?PUSH_XSTACK_I_FOUR
   \   00012B   7423         MOV     A,#0x23
   \   00012D   12....       LCALL   ?XSTACK_DISP0_8
   \   000130   E0           MOVX    A,@DPTR
   \   000131   F5..         MOV     ?V0 + 12,A
   \   000133   78..         MOV     R0,#?V0 + 12
   \   000135   12....       LCALL   ?PUSH_XSTACK_I_ONE
   \   000138   7422         MOV     A,#0x22
   \   00013A   12....       LCALL   ?XSTACK_DISP0_8
   \   00013D   12....       LCALL   ?PUSH_XSTACK8_X_TWO
   \   000140   78..         MOV     R0,#?V0 + 10
   \   000142   12....       LCALL   ?PUSH_XSTACK_I_TWO
   \   000145   740A         MOV     A,#0xa
   \   000147   12....       LCALL   ?XSTACK_DISP0_8
   \   00014A   12....       LCALL   ?PUSH_XSTACK8_X_TWO
   \   00014D   740B         MOV     A,#0xb
   \   00014F   12....       LCALL   ?XSTACK_DISP0_8
   \   000152   E0           MOVX    A,@DPTR
   \   000153   F9           MOV     R1,A
   \   000154   EE           MOV     A,R6
   \   000155   FC           MOV     R4,A
   \   000156   EF           MOV     A,R7
   \   000157   FD           MOV     R5,A
   \   000158   AA..         MOV     R2,?V0 + 8
   \   00015A   AB..         MOV     R3,?V0 + 9
   \   00015C   12....       LCALL   ??afBuildMSGIncoming?relay
   \   00015F   740B         MOV     A,#0xb
   \   000161   12....       LCALL   ?DEALLOC_XSTACK8
   \   000164   85..82       MOV     DPL,?V0 + 8
   \   000167   85..83       MOV     DPH,?V0 + 9
   \   00016A   A3           INC     DPTR
   \   00016B   A3           INC     DPTR
   \   00016C   E5..         MOV     A,?V0 + 3
   \   00016E   F0           MOVX    @DPTR,A
   \                     ??afIncomingData_10:
   \   00016F   85..82       MOV     DPL,?V0 + 8
   \   000172   85..83       MOV     DPH,?V0 + 9
   \   000175   E0           MOVX    A,@DPTR
   \   000176   540C         ANL     A,#0xc
   \   000178   640C         XRL     A,#0xc
   \   00017A   7003         JNZ     $+5
   \   00017C   02....       LJMP    ??afIncomingData_6 & 0xFFFF
   \   00017F   A3           INC     DPTR
   \   000180   A3           INC     DPTR
   \   000181   E0           MOVX    A,@DPTR
   \   000182   F4           CPL     A
   \   000183   7016         JNZ     ??afIncomingData_1
   \   000185   85..82       MOV     DPL,?V0 + 0
   \   000188   85..83       MOV     DPH,?V0 + 1
   \   00018B   E0           MOVX    A,@DPTR
   \   00018C   F5..         MOV     ?V0 + 0,A
   \   00018E   A3           INC     DPTR
   \   00018F   E0           MOVX    A,@DPTR
   \   000190   F5..         MOV     ?V0 + 1,A
   \   000192   E5..         MOV     A,?V0 + 0
   \   000194   45..         ORL     A,?V0 + 1
   \   000196   6003         JZ      $+5
   \   000198   02....       LJMP    ??afIncomingData_5 & 0xFFFF
    396                else
    397                  epDesc = NULL;
   \                     ??afIncomingData_1:
   \   00019B   7403         MOV     A,#0x3
   \   00019D                REQUIRE ?Subroutine3
   \   00019D                ; // Fall through to label ?Subroutine3
    398              }
    399              else
    400                epDesc = NULL;
    401            }
    402          }

   \                                 In  segment BANKED_CODE, align 1, keep-with-next
   \                     ?Subroutine3:
   \   000000   12....       LCALL   ?DEALLOC_XSTACK8
   \   000003   7F10         MOV     R7,#0x10
   \   000005   02....       LJMP    ?BANKED_LEAVE_XDATA

   \                                 In  segment BANKED_CODE, align 1, keep-with-next
   \                     ?Subroutine29:
   \   000000   12....       LCALL   ??afFindEndPointDesc?relay
   \   000003   8A..         MOV     ?V0 + 0,R2
   \   000005   8B..         MOV     ?V0 + 1,R3
   \   000007   AE..         MOV     R6,?V0 + 0
   \   000009   AF..         MOV     R7,?V0 + 1
   \   00000B   EE           MOV     A,R6
   \   00000C   4F           ORL     A,R7
   \   00000D   22           RET

   \                                 In  segment BANKED_CODE, align 1, keep-with-next
   \                     ?Subroutine15:
   \   000000   8E82         MOV     DPL,R6
   \   000002   8F83         MOV     DPH,R7
   \   000004   E0           MOVX    A,@DPTR
   \   000005   F9           MOV     R1,A
   \   000006   12....       LCALL   ??afFindEndPointDescList?relay
   \   000009   8A..         MOV     ?V0 + 0,R2
   \   00000B   8B..         MOV     ?V0 + 1,R3
   \   00000D   22           RET

   \                                 In  segment BANKED_CODE, align 1, keep-with-next
   \                     ?Subroutine5:
   \   000000   A3           INC     DPTR
   \   000001   A3           INC     DPTR
   \   000002   A3           INC     DPTR
   \   000003   A3           INC     DPTR
   \   000004   E0           MOVX    A,@DPTR
   \   000005   FA           MOV     R2,A
   \   000006   A3           INC     DPTR
   \   000007   E0           MOVX    A,@DPTR
   \   000008   FB           MOV     R3,A
   \   000009   12....       LCALL   ??aps_FindGroupForEndpoint?relay
   \   00000C   E9           MOV     A,R1
   \   00000D   F5..         MOV     ?V0 + 2,A
   \   00000F   74FE         MOV     A,#-0x2
   \   000011   65..         XRL     A,?V0 + 2
   \   000013   22           RET

   \                                 In  segment BANKED_CODE, align 1, keep-with-next
   \                     ?Subroutine6:
   \   000000   E0           MOVX    A,@DPTR
   \   000001   F5..         MOV     ?V0 + 14,A
   \   000003   A3           INC     DPTR
   \   000004   E0           MOVX    A,@DPTR
   \   000005   F5..         MOV     ?V0 + 15,A
   \   000007   22           RET

   \                                 In  segment BANKED_CODE, align 1, keep-with-next
   \                     ?Subroutine20:
   \   000000   E0           MOVX    A,@DPTR
   \   000001   FA           MOV     R2,A
   \   000002   7902         MOV     R1,#0x2
   \   000004   8C82         MOV     DPL,R4
   \   000006   8D83         MOV     DPH,R5
   \   000008   22           RET

   \                                 In  segment BANKED_CODE, align 1, keep-with-next
   \                     ?Subroutine10:
   \   000000   A3           INC     DPTR
   \   000001   12....       LCALL   ?Subroutine35 & 0xFFFF
   \                     ??CrossCallReturnLabel_77:
   \   000004   E8           MOV     A,R0
   \   000005   FC           MOV     R4,A
   \   000006   E9           MOV     A,R1
   \   000007   FD           MOV     R5,A
   \   000008   EC           MOV     A,R4
   \   000009   4D           ORL     A,R5
   \   00000A   22           RET

   \                                 In  segment BANKED_CODE, align 1, keep-with-next
   \                     ?Subroutine35:
   \   000000   A3           INC     DPTR
   \   000001   A3           INC     DPTR
   \   000002   A3           INC     DPTR
   \   000003                REQUIRE ??Subroutine38_0
   \   000003                ; // Fall through to label ??Subroutine38_0

   \                                 In  segment BANKED_CODE, align 1, keep-with-next
   \                     ?Subroutine8:
   \   000000   12....       LCALL   ?Subroutine35 & 0xFFFF
   \                     ??CrossCallReturnLabel_76:
   \   000003   8882         MOV     DPL,R0
   \   000005   8983         MOV     DPH,R1
   \   000007   E582         MOV     A,DPL
   \   000009   4583         ORL     A,DPH
   \   00000B   22           RET

   \                                 In  segment BANKED_CODE, align 1, keep-with-next
   \                     ?Subroutine13:
   \   000000   12....       LCALL   ?Subroutine34 & 0xFFFF
   \                     ??CrossCallReturnLabel_56:
   \   000003   22           RET

   \                                 In  segment BANKED_CODE, align 1, keep-with-next
   \                     ?Subroutine34:
   \   000000   E0           MOVX    A,@DPTR
   \   000001   F8           MOV     R0,A
   \   000002   A3           INC     DPTR
   \   000003   E0           MOVX    A,@DPTR
   \   000004   F9           MOV     R1,A
   \   000005   8E82         MOV     DPL,R6
   \   000007   8F83         MOV     DPH,R7
   \   000009   22           RET
    403          
    404          /*********************************************************************
    405           * @fn          afBuildMSGIncoming
    406           *
    407           * @brief       Build the message for the app
    408           *
    409           * @param
    410           *
    411           * @return      pointer to next in data buffer
    412           */

   \                                 In  segment BANKED_CODE, align 1, keep-with-next
    413          static void afBuildMSGIncoming( aps_FrameFormat_t *aff, endPointDesc_t *epDesc,
   \                     afBuildMSGIncoming:
    414                           zAddrType_t *SrcAddress, uint16 SrcPanId, NLDE_Signal_t *sig,
    415                           uint8 nwkSeqNum, uint8 SecurityUse, uint32 timestamp )
    416          {
   \   000000   74E8         MOV     A,#-0x18
   \   000002   12....       LCALL   ?BANKED_ENTER_XDATA
   \   000005                ; Saved register size: 24
   \   000005                ; Auto size: 1
   \   000005   74FF         MOV     A,#-0x1
   \   000007   12....       LCALL   ?ALLOC_XSTACK8
   \   00000A   E9           MOV     A,R1
   \   00000B   85..82       MOV     DPL,?XSP + 0
   \   00000E   85..83       MOV     DPH,?XSP + 1
   \   000011   F0           MOVX    @DPTR,A
   \   000012   8A..         MOV     ?V0 + 0,R2
   \   000014   8B..         MOV     ?V0 + 1,R3
   \   000016   8C..         MOV     ?V0 + 10,R4
   \   000018   8D..         MOV     ?V0 + 11,R5
   \   00001A   741D         MOV     A,#0x1d
   \   00001C   12....       LCALL   ?XSTACK_DISP0_8
   \   00001F   E0           MOVX    A,@DPTR
   \   000020   F5..         MOV     ?V0 + 2,A
   \   000022   A3           INC     DPTR
   \   000023   E0           MOVX    A,@DPTR
   \   000024   F5..         MOV     ?V0 + 3,A
   \   000026   7420         MOV     A,#0x20
   \   000028   12....       LCALL   ?XSTACK_DISP0_8
   \   00002B   78..         MOV     R0,#?V0 + 4
   \   00002D   12....       LCALL   ?L_MOV_X
    417            afIncomingMSGPacket_t *MSGpkt;
    418            const uint8 len = sizeof( afIncomingMSGPacket_t ) + aff->asduLength;
    419            uint8 *asdu = aff->asdu;
   \   000030   EA           MOV     A,R2
   \   000031   240E         ADD     A,#0xe
   \   000033   F582         MOV     DPL,A
   \   000035   EB           MOV     A,R3
   \   000036   12....       LCALL   ??Subroutine42_0 & 0xFFFF
   \                     ??CrossCallReturnLabel_93:
   \   000039   12....       LCALL   ?Subroutine6 & 0xFFFF
    420            MSGpkt = (afIncomingMSGPacket_t *)osal_msg_allocate( len );
   \                     ??CrossCallReturnLabel_4:
   \   00003C   EA           MOV     A,R2
   \   00003D   2410         ADD     A,#0x10
   \   00003F   F5..         MOV     ?V0 + 8,A
   \   000041   EB           MOV     A,R3
   \   000042   3400         ADDC    A,#0x0
   \   000044   F5..         MOV     ?V0 + 9,A
   \   000046                ; Setup parameters for call to function osal_msg_allocate
   \   000046   85..82       MOV     DPL,?V0 + 8
   \   000049   F583         MOV     DPH,A
   \   00004B   E0           MOVX    A,@DPTR
   \   00004C   2424         ADD     A,#0x24
   \   00004E   FA           MOV     R2,A
   \   00004F   7B00         MOV     R3,#0x0
   \   000051   12....       LCALL   ??osal_msg_allocate?relay
   \   000054   8A..         MOV     ?V0 + 12,R2
   \   000056   8B..         MOV     ?V0 + 13,R3
   \   000058   AE..         MOV     R6,?V0 + 12
   \   00005A   AF..         MOV     R7,?V0 + 13
    421          
    422            if ( MSGpkt == NULL )
   \   00005C   EE           MOV     A,R6
   \   00005D   4F           ORL     A,R7
   \   00005E   7003         JNZ     $+5
   \   000060   02....       LJMP    ??CrossCallReturnLabel_7 & 0xFFFF
    423            {
    424              return;
    425            }
    426          
    427            MSGpkt->hdr.event = AF_INCOMING_MSG_CMD;
   \   000063   8E82         MOV     DPL,R6
   \   000065   8F83         MOV     DPH,R7
   \   000067   741A         MOV     A,#0x1a
   \   000069   12....       LCALL   ?Subroutine23 & 0xFFFF
    428            MSGpkt->groupId = aff->GroupID;
   \                     ??CrossCallReturnLabel_35:
   \   00006C   12....       LCALL   ?Subroutine11 & 0xFFFF
   \                     ??CrossCallReturnLabel_15:
   \   00006F   12....       LCALL   ??Subroutine36_0 & 0xFFFF
    429            MSGpkt->clusterId = aff->ClusterID;
   \                     ??CrossCallReturnLabel_58:
   \   000072   85..82       MOV     DPL,?V0 + 0
   \   000075   85..83       MOV     DPH,?V0 + 1
   \   000078   A3           INC     DPTR
   \   000079   A3           INC     DPTR
   \   00007A   12....       LCALL   ?Subroutine11 & 0xFFFF
   \                     ??CrossCallReturnLabel_16:
   \   00007D   A3           INC     DPTR
   \   00007E   A3           INC     DPTR
   \   00007F   12....       LCALL   ??Subroutine36_0 & 0xFFFF
    430            afCopyAddress( &MSGpkt->srcAddr, SrcAddress );
   \                     ??CrossCallReturnLabel_59:
   \   000082                ; Setup parameters for call to function afCopyAddress
   \   000082   7419         MOV     A,#0x19
   \   000084   12....       LCALL   ?XSTACK_DISP0_8
   \   000087   12....       LCALL   ?Subroutine18 & 0xFFFF
   \                     ??CrossCallReturnLabel_26:
   \   00008A   EE           MOV     A,R6
   \   00008B   2406         ADD     A,#0x6
   \   00008D   FA           MOV     R2,A
   \   00008E   EF           MOV     A,R7
   \   00008F   3400         ADDC    A,#0x0
   \   000091   FB           MOV     R3,A
   \   000092   12....       LCALL   ??afCopyAddress?relay
    431            MSGpkt->srcAddr.endPoint = aff->SrcEndPoint;
   \   000095   85..82       MOV     DPL,?V0 + 0
   \   000098   85..83       MOV     DPH,?V0 + 1
   \   00009B   A3           INC     DPTR
   \   00009C   A3           INC     DPTR
   \   00009D   A3           INC     DPTR
   \   00009E   E0           MOVX    A,@DPTR
   \   00009F   C0E0         PUSH    A
   \   0000A1   EE           MOV     A,R6
   \   0000A2   240F         ADD     A,#0xf
   \   0000A4   12....       LCALL   ?Subroutine27 & 0xFFFF
   \                     ??CrossCallReturnLabel_96:
   \   0000A7   D0E0         POP     A
   \   0000A9   F0           MOVX    @DPTR,A
    432            MSGpkt->endPoint = epDesc->endPoint;
   \   0000AA   85..82       MOV     DPL,?V0 + 10
   \   0000AD   85..83       MOV     DPH,?V0 + 11
   \   0000B0   E0           MOVX    A,@DPTR
   \   0000B1   C0E0         PUSH    A
   \   0000B3   EE           MOV     A,R6
   \   0000B4   2414         ADD     A,#0x14
   \   0000B6   12....       LCALL   ?Subroutine27 & 0xFFFF
   \                     ??CrossCallReturnLabel_97:
   \   0000B9   D0E0         POP     A
   \   0000BB   F0           MOVX    @DPTR,A
    433            MSGpkt->wasBroadcast = aff->wasBroadcast;
   \   0000BC   E5..         MOV     A,?V0 + 0
   \   0000BE   240C         ADD     A,#0xc
   \   0000C0   F582         MOV     DPL,A
   \   0000C2   E5..         MOV     A,?V0 + 1
   \   0000C4   12....       LCALL   ??Subroutine42_0 & 0xFFFF
   \                     ??CrossCallReturnLabel_94:
   \   0000C7   E0           MOVX    A,@DPTR
   \   0000C8   C0E0         PUSH    A
   \   0000CA   EE           MOV     A,R6
   \   0000CB   2415         ADD     A,#0x15
   \   0000CD   12....       LCALL   ?Subroutine27 & 0xFFFF
   \                     ??CrossCallReturnLabel_98:
   \   0000D0   D0E0         POP     A
   \   0000D2   F0           MOVX    @DPTR,A
    434            MSGpkt->LinkQuality = sig->LinkQuality;
   \   0000D3   85..82       MOV     DPL,?V0 + 2
   \   0000D6   85..83       MOV     DPH,?V0 + 3
   \   0000D9   E0           MOVX    A,@DPTR
   \   0000DA   C0E0         PUSH    A
   \   0000DC   EE           MOV     A,R6
   \   0000DD   2416         ADD     A,#0x16
   \   0000DF   12....       LCALL   ?Subroutine27 & 0xFFFF
   \                     ??CrossCallReturnLabel_99:
   \   0000E2   D0E0         POP     A
   \   0000E4   12....       LCALL   ?Subroutine32 & 0xFFFF
    435            MSGpkt->correlation = sig->correlation;
   \                     ??CrossCallReturnLabel_53:
   \   0000E7   E0           MOVX    A,@DPTR
   \   0000E8   C0E0         PUSH    A
   \   0000EA   EE           MOV     A,R6
   \   0000EB   2417         ADD     A,#0x17
   \   0000ED   12....       LCALL   ?Subroutine27 & 0xFFFF
   \                     ??CrossCallReturnLabel_100:
   \   0000F0   D0E0         POP     A
   \   0000F2   12....       LCALL   ?Subroutine26 & 0xFFFF
    436            MSGpkt->rssi = sig->rssi;
   \                     ??CrossCallReturnLabel_43:
   \   0000F5   E0           MOVX    A,@DPTR
   \   0000F6   C0E0         PUSH    A
   \   0000F8   EE           MOV     A,R6
   \   0000F9   2418         ADD     A,#0x18
   \   0000FB   12....       LCALL   ?Subroutine27 & 0xFFFF
   \                     ??CrossCallReturnLabel_101:
   \   0000FE   D0E0         POP     A
   \   000100   F0           MOVX    @DPTR,A
    437            MSGpkt->SecurityUse = SecurityUse;
   \   000101   741F         MOV     A,#0x1f
   \   000103   12....       LCALL   ?XSTACK_DISP0_8
   \   000106   E0           MOVX    A,@DPTR
   \   000107   C0E0         PUSH    A
   \   000109   EE           MOV     A,R6
   \   00010A   2419         ADD     A,#0x19
   \   00010C   12....       LCALL   ?Subroutine27 & 0xFFFF
   \                     ??CrossCallReturnLabel_102:
   \   00010F   D0E0         POP     A
   \   000111   F0           MOVX    @DPTR,A
    438            MSGpkt->timestamp = timestamp;
   \   000112   EE           MOV     A,R6
   \   000113   241A         ADD     A,#0x1a
   \   000115   12....       LCALL   ?Subroutine27 & 0xFFFF
   \                     ??CrossCallReturnLabel_103:
   \   000118   78..         MOV     R0,#?V0 + 4
   \   00011A   12....       LCALL   ?L_MOV_TO_X
    439            MSGpkt->nwkSeqNum = nwkSeqNum;
   \   00011D   85..82       MOV     DPL,?XSP + 0
   \   000120   85..83       MOV     DPH,?XSP + 1
   \   000123   E0           MOVX    A,@DPTR
   \   000124   C0E0         PUSH    A
   \   000126   EE           MOV     A,R6
   \   000127   241E         ADD     A,#0x1e
   \   000129   12....       LCALL   ?Subroutine27 & 0xFFFF
   \                     ??CrossCallReturnLabel_104:
   \   00012C   D0E0         POP     A
   \   00012E   12....       LCALL   ?Subroutine23 & 0xFFFF
    440            MSGpkt->macDestAddr = aff->macDestAddr;
   \                     ??CrossCallReturnLabel_36:
   \   000131   A3           INC     DPTR
   \   000132   A3           INC     DPTR
   \   000133   A3           INC     DPTR
   \   000134   A3           INC     DPTR
   \   000135   A3           INC     DPTR
   \   000136   A3           INC     DPTR
   \   000137   A3           INC     DPTR
   \   000138   A3           INC     DPTR
   \   000139   A3           INC     DPTR
   \   00013A   A3           INC     DPTR
   \   00013B   12....       LCALL   ??Subroutine37_0 & 0xFFFF
   \                     ??CrossCallReturnLabel_68:
   \   00013E   EE           MOV     A,R6
   \   00013F   2412         ADD     A,#0x12
   \   000141   12....       LCALL   ?Subroutine21 & 0xFFFF
    441            MSGpkt->srcAddr.panId = SrcPanId;
   \                     ??CrossCallReturnLabel_65:
   \   000144   741B         MOV     A,#0x1b
   \   000146   12....       LCALL   ?XSTACK_DISP0_8
   \   000149   12....       LCALL   ??Subroutine37_0 & 0xFFFF
   \                     ??CrossCallReturnLabel_69:
   \   00014C   EE           MOV     A,R6
   \   00014D   2410         ADD     A,#0x10
   \   00014F   12....       LCALL   ?Subroutine21 & 0xFFFF
    442            MSGpkt->cmd.TransSeqNumber = 0;
   \                     ??CrossCallReturnLabel_66:
   \   000152   EE           MOV     A,R6
   \   000153   241F         ADD     A,#0x1f
   \   000155   12....       LCALL   ?Subroutine27 & 0xFFFF
   \                     ??CrossCallReturnLabel_105:
   \   000158   E4           CLR     A
   \   000159   F0           MOVX    @DPTR,A
    443            MSGpkt->cmd.DataLength = aff->asduLength;
   \   00015A   85..82       MOV     DPL,?V0 + 8
   \   00015D   85..83       MOV     DPH,?V0 + 9
   \   000160   E0           MOVX    A,@DPTR
   \   000161   FC           MOV     R4,A
   \   000162   7D00         MOV     R5,#0x0
   \   000164   EE           MOV     A,R6
   \   000165   2420         ADD     A,#0x20
   \   000167   12....       LCALL   ?Subroutine27 & 0xFFFF
   \                     ??CrossCallReturnLabel_106:
   \   00016A   EC           MOV     A,R4
   \   00016B   F0           MOVX    @DPTR,A
   \   00016C   A3           INC     DPTR
   \   00016D   E4           CLR     A
   \   00016E   F0           MOVX    @DPTR,A
    444          
    445            if ( MSGpkt->cmd.DataLength )
   \   00016F   EE           MOV     A,R6
   \   000170   2422         ADD     A,#0x22
   \   000172   F8           MOV     R0,A
   \   000173   EF           MOV     A,R7
   \   000174   3400         ADDC    A,#0x0
   \   000176   F9           MOV     R1,A
   \   000177   E8           MOV     A,R0
   \   000178   FA           MOV     R2,A
   \   000179   E9           MOV     A,R1
   \   00017A   FB           MOV     R3,A
   \   00017B   EC           MOV     A,R4
   \   00017C   602E         JZ      ??afBuildMSGIncoming_0
    446            {
    447              MSGpkt->cmd.Data = (uint8 *)(MSGpkt + 1);
   \   00017E   EE           MOV     A,R6
   \   00017F   2424         ADD     A,#0x24
   \   000181   08           INC     R0
   \   000182   08           INC     R0
   \   000183   EF           MOV     A,R7
   \   000184   3400         ADDC    A,#0x0
   \   000186   F9           MOV     R1,A
   \   000187   8A82         MOV     DPL,R2
   \   000189   8B83         MOV     DPH,R3
   \   00018B   12....       LCALL   ??Subroutine36_0 & 0xFFFF
    448              osal_memcpy( MSGpkt->cmd.Data, asdu, MSGpkt->cmd.DataLength );
   \                     ??CrossCallReturnLabel_60:
   \   00018E                ; Setup parameters for call to function osal_memcpy
   \   00018E   85....       MOV     ?V0 + 0,?V0 + 14
   \   000191   85....       MOV     ?V0 + 1,?V0 + 15
   \   000194   8D..         MOV     ?V0 + 2,R5
   \   000196   78..         MOV     R0,#?V0 + 0
   \   000198   12....       LCALL   ?PUSH_XSTACK_I_THREE
   \   00019B   8A82         MOV     DPL,R2
   \   00019D   8B83         MOV     DPH,R3
   \   00019F   12....       LCALL   ??Subroutine39_0 & 0xFFFF
    449            }
   \                     ??CrossCallReturnLabel_81:
   \   0001A2   12....       LCALL   ??osal_memcpy?relay
   \   0001A5   7403         MOV     A,#0x3
   \   0001A7   12....       LCALL   ?DEALLOC_XSTACK8
   \   0001AA   8008         SJMP    ??afBuildMSGIncoming_1
    450            else
    451            {
    452              MSGpkt->cmd.Data = NULL;
   \                     ??afBuildMSGIncoming_0:
   \   0001AC   8A82         MOV     DPL,R2
   \   0001AE   8B83         MOV     DPH,R3
   \   0001B0   E4           CLR     A
   \   0001B1   F0           MOVX    @DPTR,A
   \   0001B2   A3           INC     DPTR
   \   0001B3   F0           MOVX    @DPTR,A
    453            }
    454          
    455          #if defined ( MT_AF_CB_FUNC )
    456            // If ZDO or SAPI have registered for this endpoint, dont intercept it here
    457            if (AFCB_CHECK(CB_ID_AF_DATA_IND, *(epDesc->task_id)))
    458            {
    459              MT_AfIncomingMsg( (void *)MSGpkt );
    460              // Release the memory.
    461              osal_msg_deallocate( (void *)MSGpkt );
    462            }
    463            else
    464          #endif
    465            {
    466              // Send message through task message.
    467              osal_msg_send( *(epDesc->task_id), (uint8 *)MSGpkt );
   \                     ??afBuildMSGIncoming_1:
   \   0001B4                ; Setup parameters for call to function osal_msg_send
   \   0001B4   EE           MOV     A,R6
   \   0001B5   FA           MOV     R2,A
   \   0001B6   EF           MOV     A,R7
   \   0001B7   FB           MOV     R3,A
   \   0001B8   85..82       MOV     DPL,?V0 + 10
   \   0001BB   85..83       MOV     DPH,?V0 + 11
   \   0001BE   12....       LCALL   ?Subroutine7 & 0xFFFF
    468            }
    469          }
   \                     ??CrossCallReturnLabel_7:
   \   0001C1   7401         MOV     A,#0x1
   \   0001C3   02....       LJMP    ?Subroutine3 & 0xFFFF

   \                                 In  segment BANKED_CODE, align 1, keep-with-next
   \                     ?Subroutine11:
   \   000000   A3           INC     DPTR
   \   000001   A3           INC     DPTR
   \   000002   A3           INC     DPTR
   \   000003   A3           INC     DPTR
   \   000004   12....       LCALL   ?Subroutine34 & 0xFFFF
   \                     ??CrossCallReturnLabel_55:
   \   000007   A3           INC     DPTR
   \   000008   A3           INC     DPTR
   \   000009   22           RET

   \                                 In  segment BANKED_CODE, align 1, keep-with-next
   \                     ?Subroutine26:
   \   000000   12....       LCALL   ?Subroutine32 & 0xFFFF
   \                     ??CrossCallReturnLabel_54:
   \   000003   A3           INC     DPTR
   \   000004   22           RET

   \                                 In  segment BANKED_CODE, align 1, keep-with-next
   \                     ?Subroutine32:
   \   000000   F0           MOVX    @DPTR,A
   \   000001   85..82       MOV     DPL,?V0 + 2
   \   000004   85..83       MOV     DPH,?V0 + 3
   \   000007   A3           INC     DPTR
   \   000008   22           RET

   \                                 In  segment BANKED_CODE, align 1, keep-with-next
   \                     ?Subroutine23:
   \   000000   F0           MOVX    @DPTR,A
   \   000001   85..82       MOV     DPL,?V0 + 0
   \   000004   85..83       MOV     DPH,?V0 + 1
   \   000007   22           RET

   \                                 In  segment BANKED_CODE, align 1, keep-with-next
   \                     ?Subroutine21:
   \   000000   F582         MOV     DPL,A
   \   000002   EF           MOV     A,R7
   \   000003   3400         ADDC    A,#0x0
   \   000005   F583         MOV     DPH,A
   \   000007                REQUIRE ??Subroutine36_0
   \   000007                ; // Fall through to label ??Subroutine36_0

   \                                 In  segment BANKED_CODE, align 1, keep-with-next
   \                     ?Subroutine27:
   \   000000   F582         MOV     DPL,A
   \   000002   EF           MOV     A,R7
   \   000003                REQUIRE ??Subroutine42_0
   \   000003                ; // Fall through to label ??Subroutine42_0

   \                                 In  segment BANKED_CODE, align 1, keep-with-next
   \                     ??Subroutine42_0:
   \   000000   3400         ADDC    A,#0x0
   \   000002   F583         MOV     DPH,A
   \   000004   22           RET
    470          
    471          /*********************************************************************
    472           * @fn      AF_DataRequest
    473           *
    474           * @brief   Common functionality for invoking APSDE_DataReq() for both
    475           *          SendMulti and MSG-Send.
    476           *
    477           * input parameters
    478           *
    479           * @param  *dstAddr - Full ZB destination address: Nwk Addr + End Point.
    480           * @param  *srcEP - Origination (i.e. respond to or ack to) End Point Descr.
    481           * @param   cID - A valid cluster ID as specified by the Profile.
    482           * @param   len - Number of bytes of data pointed to by next param.
    483           * @param  *buf - A pointer to the data bytes to send.
    484           * @param  *transID - A pointer to a byte which can be modified and which will
    485           *                    be used as the transaction sequence number of the msg.
    486           * @param   options - Valid bit mask of Tx options.
    487           * @param   radius - Normally set to AF_DEFAULT_RADIUS.
    488           *
    489           * output parameters
    490           *
    491           * @param  *transID - Incremented by one if the return value is success.
    492           *
    493           * @return  afStatus_t - See previous definition of afStatus_... types.
    494           */

   \                                 In  segment XDATA_I, align 1, keep-with-next
    495          uint8 AF_DataRequestDiscoverRoute = TRUE;
   \                     AF_DataRequestDiscoverRoute:
   \   000000                DS 1
   \   000001                REQUIRE `?<Initializer for AF_DataRequestDiscoverRoute>`
   \   000001                REQUIRE __INIT_XDATA_I

   \                                 In  segment BANKED_CODE, align 1, keep-with-next
    496          afStatus_t AF_DataRequest( afAddrType_t *dstAddr, endPointDesc_t *srcEP,
   \                     AF_DataRequest:
    497                                     uint16 cID, uint16 len, uint8 *buf, uint8 *transID,
    498                                     uint8 options, uint8 radius )
    499          {
   \   000000   74E8         MOV     A,#-0x18
   \   000002   12....       LCALL   ?BANKED_ENTER_XDATA
   \   000005                ; Saved register size: 24
   \   000005                ; Auto size: 30
   \   000005   74E2         MOV     A,#-0x1e
   \   000007   12....       LCALL   ?ALLOC_XSTACK8
   \   00000A   8A..         MOV     ?V0 + 2,R2
   \   00000C   8B..         MOV     ?V0 + 3,R3
   \   00000E   EC           MOV     A,R4
   \   00000F   FE           MOV     R6,A
   \   000010   ED           MOV     A,R5
   \   000011   FF           MOV     R7,A
   \   000012   89..         MOV     ?V0 + 4,R1
   \   000014   7436         MOV     A,#0x36
   \   000016   12....       LCALL   ?XSTACK_DISP0_8
   \   000019   E0           MOVX    A,@DPTR
   \   00001A   F5..         MOV     ?V0 + 12,A
   \   00001C   A3           INC     DPTR
   \   00001D   E0           MOVX    A,@DPTR
   \   00001E   F5..         MOV     ?V0 + 13,A
   \   000020   7438         MOV     A,#0x38
   \   000022   12....       LCALL   ?XSTACK_DISP0_8
   \   000025   E0           MOVX    A,@DPTR
   \   000026   F5..         MOV     ?V0 + 8,A
   \   000028   A3           INC     DPTR
   \   000029   E0           MOVX    A,@DPTR
   \   00002A   F5..         MOV     ?V0 + 9,A
   \   00002C   743A         MOV     A,#0x3a
   \   00002E   12....       LCALL   ?XSTACK_DISP0_8
   \   000031   12....       LCALL   ?Subroutine6 & 0xFFFF
   \                     ??CrossCallReturnLabel_5:
   \   000034   743C         MOV     A,#0x3c
   \   000036   12....       LCALL   ?XSTACK_DISP0_8
   \   000039   E0           MOVX    A,@DPTR
   \   00003A   F5..         MOV     ?V0 + 6,A
   \   00003C   A3           INC     DPTR
   \   00003D   E0           MOVX    A,@DPTR
   \   00003E   F5..         MOV     ?V0 + 7,A
   \   000040   743E         MOV     A,#0x3e
   \   000042   12....       LCALL   ?XSTACK_DISP0_8
   \   000045   E0           MOVX    A,@DPTR
   \   000046   F5..         MOV     ?V0 + 5,A
    500            pDescCB pfnDescCB;
    501            ZStatus_t stat;
    502            APSDE_DataReq_t req;
    503            afDataReqMTU_t mtu;
    504          
    505            // Verify source end point
    506            if ( srcEP == NULL )
   \   000048   EE           MOV     A,R6
   \   000049   4F           ORL     A,R7
   \   00004A   7005         JNZ     ??AF_DataRequest_0
    507            {
    508              return afStatus_INVALID_PARAMETER;
   \                     ??AF_DataRequest_1:
   \   00004C   7902         MOV     R1,#0x2
   \   00004E   02....       LJMP    ??AF_DataRequest_2 & 0xFFFF
    509            }
    510          
    511          #if !defined( REFLECTOR )
    512            if ( dstAddr->addrMode == afAddrNotPresent )
    513            {
    514              return afStatus_INVALID_PARAMETER;
    515            }
    516          #endif
    517          
    518            // Check if route is available before sending data
    519            if ( options & AF_LIMIT_CONCENTRATOR  )
   \                     ??AF_DataRequest_0:
   \   000051   EA           MOV     A,R2
   \   000052   2408         ADD     A,#0x8
   \   000054   F5..         MOV     ?V0 + 0,A
   \   000056   EB           MOV     A,R3
   \   000057   3400         ADDC    A,#0x0
   \   000059   F5..         MOV     ?V0 + 1,A
   \   00005B   E9           MOV     A,R1
   \   00005C   A2E3         MOV     C,0xE0 /* A   */.3
   \   00005E   502E         JNC     ??AF_DataRequest_3
    520            {
    521              if ( dstAddr->addrMode != afAddr16Bit )
   \   000060   85..82       MOV     DPL,?V0 + 0
   \   000063   85..83       MOV     DPH,?V0 + 1
   \   000066   E0           MOVX    A,@DPTR
   \   000067   6402         XRL     A,#0x2
   \   000069   70E1         JNZ     ??AF_DataRequest_1
    522              {
    523                return ( afStatus_INVALID_PARAMETER );
    524              }
    525          
    526              // First, make sure the destination is not its self, then check for an existing route.
    527              if ( (dstAddr->addr.shortAddr != NLME_GetShortAddr())
    528                  && (RTG_CheckRtStatus( dstAddr->addr.shortAddr, RT_ACTIVE, (MTO_ROUTE | NO_ROUTE_CACHE) ) != RTG_SUCCESS) )
   \   00006B                ; Setup parameters for call to function NLME_GetShortAddr
   \   00006B   12....       LCALL   ??NLME_GetShortAddr?relay
   \   00006E   8A..         MOV     ?V0 + 10,R2
   \   000070   8B..         MOV     ?V0 + 11,R3
   \   000072   12....       LCALL   ?Subroutine17 & 0xFFFF
   \                     ??CrossCallReturnLabel_87:
   \   000075   E5..         MOV     A,?V0 + 10
   \   000077   6A           XRL     A,R2
   \   000078   7003         JNZ     ??AF_DataRequest_4
   \   00007A   E5..         MOV     A,?V0 + 11
   \   00007C   6B           XRL     A,R3
   \                     ??AF_DataRequest_4:
   \   00007D   600F         JZ      ??AF_DataRequest_3
   \   00007F                ; Setup parameters for call to function RTG_CheckRtStatus
   \   00007F   7C03         MOV     R4,#0x3
   \   000081   7901         MOV     R1,#0x1
   \   000083   12....       LCALL   ??RTG_CheckRtStatus?relay
   \   000086   E9           MOV     A,R1
   \   000087   6005         JZ      ??AF_DataRequest_3
    529              {
    530                // A valid route to a concentrator wasn't found
    531                return ( afStatus_NO_ROUTE );
   \   000089   79CD         MOV     R1,#-0x33
   \   00008B   02....       LJMP    ??AF_DataRequest_2 & 0xFFFF
    532              }
    533            }
    534          
    535            // Validate broadcasting
    536            if ( ( dstAddr->addrMode == afAddr16Bit     ) ||
    537                 ( dstAddr->addrMode == afAddrBroadcast )    )
   \                     ??AF_DataRequest_3:
   \   00008E   85..82       MOV     DPL,?V0 + 0
   \   000091   85..83       MOV     DPH,?V0 + 1
   \   000094   E0           MOVX    A,@DPTR
   \   000095   F8           MOV     R0,A
   \   000096   7402         MOV     A,#0x2
   \   000098   68           XRL     A,R0
   \   000099   6005         JZ      ??AF_DataRequest_5
   \   00009B   740F         MOV     A,#0xf
   \   00009D   68           XRL     A,R0
   \   00009E   701B         JNZ     ??AF_DataRequest_6
    538            {
    539              // Check for valid broadcast values
    540              if( ADDR_NOT_BCAST != NLME_IsAddressBroadcast( dstAddr->addr.shortAddr )  )
   \                     ??AF_DataRequest_5:
   \   0000A0                ; Setup parameters for call to function NLME_IsAddressBroadcast
   \   0000A0   12....       LCALL   ?Subroutine17 & 0xFFFF
   \                     ??CrossCallReturnLabel_88:
   \   0000A3   12....       LCALL   ??NLME_IsAddressBroadcast?relay
   \   0000A6   E9           MOV     A,R1
   \   0000A7   85..82       MOV     DPL,?V0 + 0
   \   0000AA   85..83       MOV     DPH,?V0 + 1
   \   0000AD   6005         JZ      ??AF_DataRequest_7
    541              {
    542                // Force mode to broadcast
    543                dstAddr->addrMode = afAddrBroadcast;
   \   0000AF   740F         MOV     A,#0xf
   \   0000B1   F0           MOVX    @DPTR,A
   \   0000B2   8014         SJMP    ??AF_DataRequest_8
    544              }
    545              else
    546              {
    547                // Address is not a valid broadcast type
    548                if ( dstAddr->addrMode == afAddrBroadcast )
   \                     ??AF_DataRequest_7:
   \   0000B4   E0           MOVX    A,@DPTR
   \   0000B5   640F         XRL     A,#0xf
   \   0000B7   700F         JNZ     ??AF_DataRequest_8
   \   0000B9   8091         SJMP    ??AF_DataRequest_1
    549                {
    550                  return afStatus_INVALID_PARAMETER;
    551                }
    552              }
    553            }
    554            else if ( dstAddr->addrMode != afAddr64Bit &&
    555                      dstAddr->addrMode != afAddrGroup &&
    556                      dstAddr->addrMode != afAddrNotPresent )
   \                     ??AF_DataRequest_6:
   \   0000BB   7403         MOV     A,#0x3
   \   0000BD   68           XRL     A,R0
   \   0000BE   6008         JZ      ??AF_DataRequest_8
   \   0000C0   7401         MOV     A,#0x1
   \   0000C2   68           XRL     A,R0
   \   0000C3   6003         JZ      ??AF_DataRequest_8
   \   0000C5   E8           MOV     A,R0
   \   0000C6   7084         JNZ     ??AF_DataRequest_1
    557            {
    558              return afStatus_INVALID_PARAMETER;
    559            }
    560          
    561            // Set destination address
    562            req.dstAddr.addrMode = dstAddr->addrMode;
   \                     ??AF_DataRequest_8:
   \   0000C8   E0           MOVX    A,@DPTR
   \   0000C9   C0E0         PUSH    A
   \   0000CB   740A         MOV     A,#0xa
   \   0000CD   12....       LCALL   ?XSTACK_DISP0_8
   \   0000D0   D0E0         POP     A
   \   0000D2   12....       LCALL   ?Subroutine23 & 0xFFFF
    563            if ( dstAddr->addrMode == afAddr64Bit )
   \                     ??CrossCallReturnLabel_37:
   \   0000D5   E0           MOVX    A,@DPTR
   \   0000D6   6403         XRL     A,#0x3
   \   0000D8   7012         JNZ     ??AF_DataRequest_9
    564              osal_cpyExtAddr( req.dstAddr.addr.extAddr, dstAddr->addr.extAddr );
   \   0000DA                ; Setup parameters for call to function sAddrExtCpy
   \   0000DA   AC..         MOV     R4,?V0 + 2
   \   0000DC   AD..         MOV     R5,?V0 + 3
   \   0000DE   7402         MOV     A,#0x2
   \   0000E0   12....       LCALL   ?XSTACK_DISP0_8
   \   0000E3   AA82         MOV     R2,DPL
   \   0000E5   AB83         MOV     R3,DPH
   \   0000E7   12....       LCALL   ??sAddrExtCpy?relay
   \   0000EA   8011         SJMP    ??CrossCallReturnLabel_61
    565            else
    566              req.dstAddr.addr.shortAddr = dstAddr->addr.shortAddr;
   \                     ??AF_DataRequest_9:
   \   0000EC   85..82       MOV     DPL,?V0 + 2
   \   0000EF   85..83       MOV     DPH,?V0 + 3
   \   0000F2   12....       LCALL   ??Subroutine37_0 & 0xFFFF
   \                     ??CrossCallReturnLabel_70:
   \   0000F5   7402         MOV     A,#0x2
   \   0000F7   12....       LCALL   ?XSTACK_DISP0_8
   \   0000FA   12....       LCALL   ??Subroutine36_0 & 0xFFFF
    567          
    568            req.profileID = ZDO_PROFILE_ID;
   \                     ??CrossCallReturnLabel_61:
   \   0000FD   7411         MOV     A,#0x11
   \   0000FF   12....       LCALL   ?XSTACK_DISP0_8
   \   000102   E4           CLR     A
   \   000103   F0           MOVX    @DPTR,A
   \   000104   A3           INC     DPTR
   \   000105   F0           MOVX    @DPTR,A
    569          
    570            if ( (pfnDescCB = afGetDescCB( srcEP )) )
   \   000106   90....       MOV     DPTR,#epList
   \                     ??AF_DataRequest_10:
   \   000109   12....       LCALL   ?Subroutine9 & 0xFFFF
   \                     ??CrossCallReturnLabel_10:
   \   00010C   6038         JZ      ??AF_DataRequest_11
   \   00010E   8882         MOV     DPL,R0
   \   000110   8983         MOV     DPH,R1
   \   000112   A3           INC     DPTR
   \   000113   A3           INC     DPTR
   \   000114   12....       LCALL   ??Subroutine39_0 & 0xFFFF
   \                     ??CrossCallReturnLabel_82:
   \   000117   EE           MOV     A,R6
   \   000118   6A           XRL     A,R2
   \   000119   7002         JNZ     ??AF_DataRequest_12
   \   00011B   EF           MOV     A,R7
   \   00011C   6B           XRL     A,R3
   \                     ??AF_DataRequest_12:
   \   00011D   8882         MOV     DPL,R0
   \   00011F   8983         MOV     DPH,R1
   \   000121   70E6         JNZ     ??AF_DataRequest_10
   \   000123   12....       LCALL   ?Subroutine10 & 0xFFFF
   \                     ??CrossCallReturnLabel_13:
   \   000126   601E         JZ      ??AF_DataRequest_11
    571            {
    572              uint16 *pID = (uint16 *)(pfnDescCB(
    573                                           AF_DESCRIPTOR_PROFILE_ID, srcEP->endPoint ));
   \   000128                ; Setup parameters for indirect call
   \   000128   8E82         MOV     DPL,R6
   \   00012A   8F83         MOV     DPH,R7
   \   00012C   12....       LCALL   ?Subroutine20 & 0xFFFF
   \                     ??CrossCallReturnLabel_32:
   \   00012F   12....       LCALL   ?CALL_IND
    574              if ( pID )
   \   000132   EA           MOV     A,R2
   \   000133   4B           ORL     A,R3
   \   000134   6025         JZ      ??CrossCallReturnLabel_63
    575              {
    576                req.profileID = *pID;
   \   000136   12....       LCALL   ?Subroutine14 & 0xFFFF
   \                     ??CrossCallReturnLabel_74:
   \   000139   7411         MOV     A,#0x11
   \   00013B   12....       LCALL   ?XSTACK_DISP0_8
   \   00013E   12....       LCALL   ??Subroutine36_0 & 0xFFFF
    577                osal_mem_free( pID );
   \                     ??CrossCallReturnLabel_62:
   \   000141                ; Setup parameters for call to function osal_mem_free
   \   000141   12....       LCALL   ??osal_mem_free?relay
   \   000144   8015         SJMP    ??CrossCallReturnLabel_63
    578              }
    579            }
    580            else if ( srcEP->simpleDesc )
   \                     ??AF_DataRequest_11:
   \   000146   8E82         MOV     DPL,R6
   \   000148   8F83         MOV     DPH,R7
   \   00014A   12....       LCALL   ?Subroutine8 & 0xFFFF
   \                     ??CrossCallReturnLabel_9:
   \   00014D   600C         JZ      ??CrossCallReturnLabel_63
    581            {
    582              req.profileID = srcEP->simpleDesc->AppProfId;
   \   00014F   A3           INC     DPTR
   \   000150   12....       LCALL   ??Subroutine37_0 & 0xFFFF
    583            }
   \                     ??CrossCallReturnLabel_71:
   \   000153   7411         MOV     A,#0x11
   \   000155   12....       LCALL   ?XSTACK_DISP0_8
   \   000158   12....       LCALL   ??Subroutine36_0 & 0xFFFF
    584          
    585            req.txOptions = 0;
   \                     ??CrossCallReturnLabel_63:
   \   00015B   7417         MOV     A,#0x17
   \   00015D   12....       LCALL   ?XSTACK_DISP0_8
   \   000160   E4           CLR     A
   \   000161   F0           MOVX    @DPTR,A
   \   000162   A3           INC     DPTR
   \   000163   F0           MOVX    @DPTR,A
    586          
    587            if ( ( options & AF_ACK_REQUEST              ) &&
    588                 ( req.dstAddr.addrMode != AddrBroadcast ) &&
    589                 ( req.dstAddr.addrMode != AddrGroup     )    )
   \   000164   E5..         MOV     A,?V0 + 4
   \   000166   A2E4         MOV     C,0xE0 /* A   */.4
   \   000168   501C         JNC     ??AF_DataRequest_13
   \   00016A   740A         MOV     A,#0xa
   \   00016C   12....       LCALL   ?XSTACK_DISP0_8
   \   00016F   E0           MOVX    A,@DPTR
   \   000170   F8           MOV     R0,A
   \   000171   740F         MOV     A,#0xf
   \   000173   68           XRL     A,R0
   \   000174   6010         JZ      ??AF_DataRequest_13
   \   000176   7401         MOV     A,#0x1
   \   000178   68           XRL     A,R0
   \   000179   600B         JZ      ??AF_DataRequest_13
    590            {
    591              req.txOptions |=  APS_TX_OPTIONS_ACK;
   \   00017B   7417         MOV     A,#0x17
   \   00017D   12....       LCALL   ?XSTACK_DISP0_8
   \   000180   7404         MOV     A,#0x4
   \   000182   F0           MOVX    @DPTR,A
   \   000183   A3           INC     DPTR
   \   000184   E4           CLR     A
   \   000185   F0           MOVX    @DPTR,A
    592            }
    593          
    594            if ( options & AF_SKIP_ROUTING )
   \                     ??AF_DataRequest_13:
   \   000186   E5..         MOV     A,?V0 + 4
   \   000188   A2E7         MOV     C,0xE0 /* A   */.7
   \   00018A   5009         JNC     ??AF_DataRequest_14
    595            {
    596              req.txOptions |=  APS_TX_OPTIONS_SKIP_ROUTING;
   \   00018C   7417         MOV     A,#0x17
   \   00018E   12....       LCALL   ?XSTACK_DISP0_8
   \   000191   E0           MOVX    A,@DPTR
   \   000192   4410         ORL     A,#0x10
   \   000194   F0           MOVX    @DPTR,A
    597            }
    598          
    599            if ( options & AF_EN_SECURITY )
   \                     ??AF_DataRequest_14:
   \   000195   E5..         MOV     A,?V0 + 4
   \   000197   A2E6         MOV     C,0xE0 /* A   */.6
   \   000199   5012         JNC     ??AF_DataRequest_15
    600            {
    601              req.txOptions |= APS_TX_OPTIONS_SECURITY_ENABLE;
   \   00019B   7417         MOV     A,#0x17
   \   00019D   12....       LCALL   ?XSTACK_DISP0_8
   \   0001A0   E0           MOVX    A,@DPTR
   \   0001A1   4401         ORL     A,#0x1
   \   0001A3   F0           MOVX    @DPTR,A
    602              mtu.aps.secure = TRUE;
   \   0001A4   7401         MOV     A,#0x1
   \   0001A6   12....       LCALL   ?XSTACK_DISP0_8
   \   0001A9   7401         MOV     A,#0x1
   \   0001AB   8006         SJMP    ??AF_DataRequest_16
    603            }
    604            else
    605            {
    606              mtu.aps.secure = FALSE;
   \                     ??AF_DataRequest_15:
   \   0001AD   7401         MOV     A,#0x1
   \   0001AF   12....       LCALL   ?XSTACK_DISP0_8
   \   0001B2   E4           CLR     A
   \                     ??AF_DataRequest_16:
   \   0001B3   F0           MOVX    @DPTR,A
    607            }
    608          
    609            if ( options & AF_PREPROCESS )
   \   0001B4   E5..         MOV     A,?V0 + 4
   \   0001B6   A2E2         MOV     C,0xE0 /* A   */.2
   \   0001B8   5009         JNC     ??AF_DataRequest_17
    610            {
    611              req.txOptions |=  APS_TX_OPTIONS_PREPROCESS;
   \   0001BA   7417         MOV     A,#0x17
   \   0001BC   12....       LCALL   ?XSTACK_DISP0_8
   \   0001BF   E0           MOVX    A,@DPTR
   \   0001C0   4440         ORL     A,#0x40
   \   0001C2   F0           MOVX    @DPTR,A
    612            }
    613          
    614            mtu.kvp = FALSE;
   \                     ??AF_DataRequest_17:
   \   0001C3   85..82       MOV     DPL,?XSP + 0
   \   0001C6   85..83       MOV     DPH,?XSP + 1
   \   0001C9   E4           CLR     A
   \   0001CA   F0           MOVX    @DPTR,A
    615          
    616            req.transID       = *transID;
   \   0001CB   85..82       MOV     DPL,?V0 + 6
   \   0001CE   85..83       MOV     DPH,?V0 + 7
   \   0001D1   E0           MOVX    A,@DPTR
   \   0001D2   C0E0         PUSH    A
   \   0001D4   7419         MOV     A,#0x19
   \   0001D6   12....       LCALL   ?XSTACK_DISP0_8
   \   0001D9   D0E0         POP     A
   \   0001DB   F0           MOVX    @DPTR,A
    617            req.srcEP         = srcEP->endPoint;
   \   0001DC   8E82         MOV     DPL,R6
   \   0001DE   8F83         MOV     DPH,R7
   \   0001E0   E0           MOVX    A,@DPTR
   \   0001E1   C0E0         PUSH    A
   \   0001E3   740B         MOV     A,#0xb
   \   0001E5   12....       LCALL   ?XSTACK_DISP0_8
   \   0001E8   D0E0         POP     A
   \   0001EA   12....       LCALL   ?Subroutine26 & 0xFFFF
    618            req.dstEP         = dstAddr->endPoint;
   \                     ??CrossCallReturnLabel_44:
   \   0001ED   A3           INC     DPTR
   \   0001EE   A3           INC     DPTR
   \   0001EF   A3           INC     DPTR
   \   0001F0   A3           INC     DPTR
   \   0001F1   A3           INC     DPTR
   \   0001F2   A3           INC     DPTR
   \   0001F3   A3           INC     DPTR
   \   0001F4   E0           MOVX    A,@DPTR
   \   0001F5   C0E0         PUSH    A
   \   0001F7   740C         MOV     A,#0xc
   \   0001F9   12....       LCALL   ?XSTACK_DISP0_8
   \   0001FC   D0E0         POP     A
   \   0001FE   F0           MOVX    @DPTR,A
    619            req.clusterID     = cID;
   \   0001FF   740F         MOV     A,#0xf
   \   000201   12....       LCALL   ?XSTACK_DISP0_8
   \   000204   E5..         MOV     A,?V0 + 12
   \   000206   F0           MOVX    @DPTR,A
   \   000207   A3           INC     DPTR
   \   000208   E5..         MOV     A,?V0 + 13
   \   00020A   F0           MOVX    @DPTR,A
    620            req.asduLen       = len;
   \   00020B   7413         MOV     A,#0x13
   \   00020D   12....       LCALL   ?XSTACK_DISP0_8
   \   000210   E5..         MOV     A,?V0 + 8
   \   000212   F0           MOVX    @DPTR,A
   \   000213   A3           INC     DPTR
   \   000214   E5..         MOV     A,?V0 + 9
   \   000216   F0           MOVX    @DPTR,A
    621            req.asdu          = buf;
   \   000217   7415         MOV     A,#0x15
   \   000219   12....       LCALL   ?XSTACK_DISP0_8
   \   00021C   E5..         MOV     A,?V0 + 14
   \   00021E   F0           MOVX    @DPTR,A
   \   00021F   A3           INC     DPTR
   \   000220   E5..         MOV     A,?V0 + 15
   \   000222   F0           MOVX    @DPTR,A
    622            req.discoverRoute = AF_DataRequestDiscoverRoute;//(uint8)((options & AF_DISCV_ROUTE) ? 1 : 0);
   \   000223   90....       MOV     DPTR,#AF_DataRequestDiscoverRoute
   \   000226   E0           MOVX    A,@DPTR
   \   000227   C0E0         PUSH    A
   \   000229   741A         MOV     A,#0x1a
   \   00022B   12....       LCALL   ?XSTACK_DISP0_8
   \   00022E   D0E0         POP     A
   \   000230   F0           MOVX    @DPTR,A
    623            req.radiusCounter = radius;
   \   000231   741B         MOV     A,#0x1b
   \   000233   12....       LCALL   ?XSTACK_DISP0_8
   \   000236   E5..         MOV     A,?V0 + 5
   \   000238   F0           MOVX    @DPTR,A
    624          #if defined ( INTER_PAN )
    625            req.dstPanId      = dstAddr->panId;
    626          
    627            if ( StubAPS_InterPan( dstAddr->panId, dstAddr->endPoint ) )
    628            {
    629              if ( len > INTERP_DataReqMTU() )
    630              {
    631                stat = afStatus_INVALID_PARAMETER;
    632              }
    633              else
    634              {
    635                stat = INTERP_DataReq( &req );
    636              }
    637            }
    638            else
    639          #endif // INTER_PAN
    640            {
    641              if (len > afDataReqMTU( &mtu ) )
   \   000239                ; Setup parameters for call to function afDataReqMTU
   \   000239   85..82       MOV     DPL,?XSP + 0
   \   00023C   85..83       MOV     DPH,?XSP + 1
   \   00023F   AA82         MOV     R2,DPL
   \   000241   AB83         MOV     R3,DPH
   \   000243   12....       LCALL   ??afDataReqMTU?relay
   \   000246   E9           MOV     A,R1
   \   000247   C3           CLR     C
   \   000248   95..         SUBB    A,?V0 + 8
   \   00024A   E4           CLR     A
   \   00024B   95..         SUBB    A,?V0 + 9
   \   00024D   5021         JNC     ??AF_DataRequest_18
    642              {
    643                if (apsfSendFragmented)
   \   00024F   90....       MOV     DPTR,#apsfSendFragmented
   \   000252   12....       LCALL   ?Subroutine9 & 0xFFFF
   \                     ??CrossCallReturnLabel_12:
   \   000255   6014         JZ      ??AF_DataRequest_19
    644                {
    645                  stat = (*apsfSendFragmented)( &req );
   \   000257                ; Setup parameters for indirect call
   \   000257   7402         MOV     A,#0x2
   \   000259   12....       LCALL   ?XSTACK_DISP0_8
   \   00025C   AA82         MOV     R2,DPL
   \   00025E   AB83         MOV     R3,DPH
   \   000260   90....       MOV     DPTR,#apsfSendFragmented + 1
   \   000263   12....       LCALL   ??Subroutine41_0 & 0xFFFF
    646                }
   \                     ??CrossCallReturnLabel_89:
   \   000266   12....       LCALL   ?CALL_IND
   \   000269   8011         SJMP    ??AF_DataRequest_20
    647                else
    648                {
    649                  stat = afStatus_INVALID_PARAMETER;
   \                     ??AF_DataRequest_19:
   \   00026B   75..02       MOV     ?V0 + 0,#0x2
   \   00026E   800F         SJMP    ??AF_DataRequest_21
    650                }
    651              }
    652              else
    653              {
    654                stat = APSDE_DataReq( &req );
   \                     ??AF_DataRequest_18:
   \   000270                ; Setup parameters for call to function APSDE_DataReq
   \   000270   7402         MOV     A,#0x2
   \   000272   12....       LCALL   ?XSTACK_DISP0_8
   \   000275   AA82         MOV     R2,DPL
   \   000277   AB83         MOV     R3,DPH
   \   000279   12....       LCALL   ??APSDE_DataReq?relay
   \                     ??AF_DataRequest_20:
   \   00027C   E9           MOV     A,R1
   \   00027D   F5..         MOV     ?V0 + 0,A
    655              }
    656            }
    657          
    658            /*
    659             * If this is an EndPoint-to-EndPoint message on the same device, it will not
    660             * get added to the NWK databufs. So it will not go OTA and it will not get
    661             * a MACCB_DATA_CONFIRM_CMD callback. Thus it is necessary to generate the
    662             * AF_DATA_CONFIRM_CMD here. Note that APSDE_DataConfirm() only generates one
    663             * message with the first in line TransSeqNumber, even on a multi message.
    664             * Also note that a reflected msg will not have its confirmation generated
    665             * here.
    666             */
    667            if ( (req.dstAddr.addrMode == Addr16Bit) &&
    668                 (req.dstAddr.addr.shortAddr == NLME_GetShortAddr()) )
   \                     ??AF_DataRequest_21:
   \   00027F   740A         MOV     A,#0xa
   \   000281   12....       LCALL   ?XSTACK_DISP0_8
   \   000284   E0           MOVX    A,@DPTR
   \   000285   6402         XRL     A,#0x2
   \   000287   702C         JNZ     ??AF_DataRequest_22
   \   000289                ; Setup parameters for call to function NLME_GetShortAddr
   \   000289   12....       LCALL   ??NLME_GetShortAddr?relay
   \   00028C   8A..         MOV     ?V0 + 2,R2
   \   00028E   8B..         MOV     ?V0 + 3,R3
   \   000290   A8..         MOV     R0,?V0 + 2
   \   000292   A9..         MOV     R1,?V0 + 3
   \   000294   7402         MOV     A,#0x2
   \   000296   12....       LCALL   ?XSTACK_DISP0_8
   \   000299   E0           MOVX    A,@DPTR
   \   00029A   68           XRL     A,R0
   \   00029B   7003         JNZ     ??AF_DataRequest_23
   \   00029D   A3           INC     DPTR
   \   00029E   E0           MOVX    A,@DPTR
   \   00029F   69           XRL     A,R1
   \                     ??AF_DataRequest_23:
   \   0002A0   7013         JNZ     ??AF_DataRequest_22
    669            {
    670              afDataConfirm( srcEP->endPoint, *transID, stat );
   \   0002A2                ; Setup parameters for call to function afDataConfirm
   \   0002A2   AB..         MOV     R3,?V0 + 0
   \   0002A4   85..82       MOV     DPL,?V0 + 6
   \   0002A7   85..83       MOV     DPH,?V0 + 7
   \   0002AA   E0           MOVX    A,@DPTR
   \   0002AB   FA           MOV     R2,A
   \   0002AC   8E82         MOV     DPL,R6
   \   0002AE   8F83         MOV     DPH,R7
   \   0002B0   E0           MOVX    A,@DPTR
   \   0002B1   F9           MOV     R1,A
   \   0002B2   12....       LCALL   ??afDataConfirm?relay
    671            }
    672          
    673            if ( stat == afStatus_SUCCESS )
   \                     ??AF_DataRequest_22:
   \   0002B5   E5..         MOV     A,?V0 + 0
   \   0002B7   7009         JNZ     ??AF_DataRequest_24
    674            {
    675              (*transID)++;
   \   0002B9   85..82       MOV     DPL,?V0 + 6
   \   0002BC   85..83       MOV     DPH,?V0 + 7
   \   0002BF   E0           MOVX    A,@DPTR
   \   0002C0   04           INC     A
   \   0002C1   F0           MOVX    @DPTR,A
    676            }
    677          
    678            return (afStatus_t)stat;
   \                     ??AF_DataRequest_24:
   \   0002C2   A9..         MOV     R1,?V0 + 0
   \                     ??AF_DataRequest_2:
   \   0002C4   741E         MOV     A,#0x1e
   \   0002C6   02....       LJMP    ?Subroutine3 & 0xFFFF
    679          }

   \                                 In  segment BANKED_CODE, align 1, keep-with-next
   \                     ?Subroutine17:
   \   000000   85..82       MOV     DPL,?V0 + 2
   \   000003   85..83       MOV     DPH,?V0 + 3
   \   000006                REQUIRE ??Subroutine39_0
   \   000006                ; // Fall through to label ??Subroutine39_0
    680          
    681          #if defined ( ZIGBEE_SOURCE_ROUTING )
    682          /*********************************************************************
    683           * @fn      AF_DataRequestSrcRtg
    684           *
    685           * @brief   Common functionality for invoking APSDE_DataReq() for both
    686           *          SendMulti and MSG-Send.
    687           *
    688           * input parameters
    689           *
    690           * @param  *dstAddr - Full ZB destination address: Nwk Addr + End Point.
    691           * @param  *srcEP - Origination (i.e. respond to or ack to) End Point Descr.
    692           * @param   cID - A valid cluster ID as specified by the Profile.
    693           * @param   len - Number of bytes of data pointed to by next param.
    694           * @param  *buf - A pointer to the data bytes to send.
    695           * @param  *transID - A pointer to a byte which can be modified and which will
    696           *                    be used as the transaction sequence number of the msg.
    697           * @param   options - Valid bit mask of Tx options.
    698           * @param   radius - Normally set to AF_DEFAULT_RADIUS.
    699           * @param   relayCnt - Number of devices in the relay list
    700           * @param   pRelayList - Pointer to the relay list
    701           *
    702           * output parameters
    703           *
    704           * @param  *transID - Incremented by one if the return value is success.
    705           *
    706           * @return  afStatus_t - See previous definition of afStatus_... types.
    707           */
    708          

   \                                 In  segment BANKED_CODE, align 1, keep-with-next
    709          afStatus_t AF_DataRequestSrcRtg( afAddrType_t *dstAddr, endPointDesc_t *srcEP,
   \                     AF_DataRequestSrcRtg:
    710                                     uint16 cID, uint16 len, uint8 *buf, uint8 *transID,
    711                                     uint8 options, uint8 radius, uint8 relayCnt, uint16* pRelayList )
    712          {
   \   000000   74EC         MOV     A,#-0x14
   \   000002   12....       LCALL   ?BANKED_ENTER_XDATA
   \   000005                ; Saved register size: 20
   \   000005                ; Auto size: 0
   \   000005   EA           MOV     A,R2
   \   000006   FE           MOV     R6,A
   \   000007   EB           MOV     A,R3
   \   000008   FF           MOV     R7,A
   \   000009   8C..         MOV     ?V0 + 0,R4
   \   00000B   8D..         MOV     ?V0 + 1,R5
   \   00000D   89..         MOV     ?V0 + 2,R1
   \   00000F   7414         MOV     A,#0x14
   \   000011   12....       LCALL   ?XSTACK_DISP0_8
   \   000014   E0           MOVX    A,@DPTR
   \   000015   F5..         MOV     ?V0 + 10,A
   \   000017   A3           INC     DPTR
   \   000018   E0           MOVX    A,@DPTR
   \   000019   F5..         MOV     ?V0 + 11,A
   \   00001B   7416         MOV     A,#0x16
   \   00001D   12....       LCALL   ?XSTACK_DISP0_8
   \   000020   E0           MOVX    A,@DPTR
   \   000021   F5..         MOV     ?V0 + 8,A
   \   000023   A3           INC     DPTR
   \   000024   E0           MOVX    A,@DPTR
   \   000025   F5..         MOV     ?V0 + 9,A
   \   000027   7418         MOV     A,#0x18
   \   000029   12....       LCALL   ?XSTACK_DISP0_8
   \   00002C   E0           MOVX    A,@DPTR
   \   00002D   F5..         MOV     ?V0 + 6,A
   \   00002F   A3           INC     DPTR
   \   000030   E0           MOVX    A,@DPTR
   \   000031   F5..         MOV     ?V0 + 7,A
   \   000033   741A         MOV     A,#0x1a
   \   000035   12....       LCALL   ?XSTACK_DISP0_8
   \   000038   E0           MOVX    A,@DPTR
   \   000039   F5..         MOV     ?V0 + 4,A
   \   00003B   A3           INC     DPTR
   \   00003C   E0           MOVX    A,@DPTR
   \   00003D   F5..         MOV     ?V0 + 5,A
   \   00003F   741C         MOV     A,#0x1c
   \   000041   12....       LCALL   ?XSTACK_DISP0_8
   \   000044   E0           MOVX    A,@DPTR
   \   000045   F5..         MOV     ?V0 + 3,A
   \   000047   741D         MOV     A,#0x1d
   \   000049   12....       LCALL   ?XSTACK_DISP0_8
   \   00004C   E0           MOVX    A,@DPTR
   \   00004D   F9           MOV     R1,A
   \   00004E   741E         MOV     A,#0x1e
   \   000050   12....       LCALL   ?XSTACK_DISP0_8
   \   000053   12....       LCALL   ?Subroutine18 & 0xFFFF
    713            uint8 status;
    714          
    715            /* Add the source route to the source routing table */
    716            status = RTG_AddSrcRtgEntry_Guaranteed( dstAddr->addr.shortAddr, relayCnt,
    717                                                   pRelayList );
   \                     ??CrossCallReturnLabel_27:
   \   000056                ; Setup parameters for call to function RTG_AddSrcRtgEntry_Guaranteed
   \   000056   8E82         MOV     DPL,R6
   \   000058   8F83         MOV     DPH,R7
   \   00005A   12....       LCALL   ??Subroutine39_0 & 0xFFFF
   \                     ??CrossCallReturnLabel_83:
   \   00005D   12....       LCALL   ??RTG_AddSrcRtgEntry_Guaranteed?relay
   \   000060   E9           MOV     A,R1
    718          
    719            if( status == RTG_SUCCESS)
   \   000061   702D         JNZ     ??AF_DataRequestSrcRtg_0
    720            {
    721              /* Call AF_DataRequest to send the data */
    722              status = AF_DataRequest( dstAddr, srcEP, cID, len, buf, transID, options, radius );
   \   000063                ; Setup parameters for call to function AF_DataRequest
   \   000063   78..         MOV     R0,#?V0 + 3
   \   000065   12....       LCALL   ?PUSH_XSTACK_I_ONE
   \   000068   78..         MOV     R0,#?V0 + 4
   \   00006A   12....       LCALL   ?PUSH_XSTACK_I_TWO
   \   00006D   78..         MOV     R0,#?V0 + 6
   \   00006F   12....       LCALL   ?PUSH_XSTACK_I_TWO
   \   000072   78..         MOV     R0,#?V0 + 8
   \   000074   12....       LCALL   ?PUSH_XSTACK_I_TWO
   \   000077   78..         MOV     R0,#?V0 + 10
   \   000079   12....       LCALL   ?PUSH_XSTACK_I_TWO
   \   00007C   A9..         MOV     R1,?V0 + 2
   \   00007E   AC..         MOV     R4,?V0 + 0
   \   000080   AD..         MOV     R5,?V0 + 1
   \   000082   EE           MOV     A,R6
   \   000083   FA           MOV     R2,A
   \   000084   EF           MOV     A,R7
   \   000085   FB           MOV     R3,A
   \   000086   12....       LCALL   ??AF_DataRequest?relay
   \   000089   7409         MOV     A,#0x9
   \   00008B   12....       LCALL   ?DEALLOC_XSTACK8
   \   00008E   800B         SJMP    ??AF_DataRequestSrcRtg_1
    723            }
    724            else if( status == RTG_INVALID_PATH )
   \                     ??AF_DataRequestSrcRtg_0:
   \   000090   7405         MOV     A,#0x5
   \   000092   69           XRL     A,R1
   \   000093   7004         JNZ     ??AF_DataRequestSrcRtg_2
    725            {
    726              /* The source route relay count is exceeding the network limit */
    727              status = afStatus_INVALID_PARAMETER;
   \   000095   7902         MOV     R1,#0x2
   \   000097   8002         SJMP    ??AF_DataRequestSrcRtg_1
    728            }
    729            else
    730            {
    731              /* The guaranteed adding entry fails due to memory failure */
    732              status = afStatus_MEM_FAIL;
   \                     ??AF_DataRequestSrcRtg_2:
   \   000099   7910         MOV     R1,#0x10
    733            }
    734            return status;
   \                     ??AF_DataRequestSrcRtg_1:
   \   00009B   7F0C         MOV     R7,#0xc
   \   00009D   02....       LJMP    ?BANKED_LEAVE_XDATA
    735          }
    736          
    737          #endif
    738          
    739          /*********************************************************************
    740           * @fn      afFindEndPointDescList
    741           *
    742           * @brief   Find the endpoint description entry from the endpoint
    743           *          number.
    744           *
    745           * @param   EndPoint - Application Endpoint to look for
    746           *
    747           * @return  the address to the endpoint/interface description entry
    748           */

   \                                 In  segment BANKED_CODE, align 1, keep-with-next
    749          static epList_t *afFindEndPointDescList( uint8 EndPoint )
   \                     afFindEndPointDescList:
    750          {
   \   000000   C082         PUSH    DPL
   \   000002   C083         PUSH    DPH
   \   000004                ; Saved register size: 2
   \   000004                ; Auto size: 0
    751            epList_t *epSearch;
    752          
    753            for (epSearch = epList; epSearch != NULL; epSearch = epSearch->nextDesc)
   \   000004   90....       MOV     DPTR,#epList
   \   000007   8004         SJMP    ??afFindEndPointDescList_0
   \                     ??afFindEndPointDescList_1:
   \   000009   8A82         MOV     DPL,R2
   \   00000B   8B83         MOV     DPH,R3
   \                     ??afFindEndPointDescList_0:
   \   00000D   12....       LCALL   ??Subroutine39_0 & 0xFFFF
   \                     ??CrossCallReturnLabel_84:
   \   000010   EA           MOV     A,R2
   \   000011   4B           ORL     A,R3
   \   000012   600A         JZ      ??afFindEndPointDescList_2
    754            {
    755              if (epSearch->epDesc->endPoint == EndPoint)
   \   000014   8A82         MOV     DPL,R2
   \   000016   8B83         MOV     DPH,R3
   \   000018   12....       LCALL   ?Subroutine19 & 0xFFFF
    756              {
    757                break;
    758              }
    759            }
   \                     ??CrossCallReturnLabel_29:
   \   00001B   69           XRL     A,R1
   \   00001C   70EB         JNZ     ??afFindEndPointDescList_1
    760          
    761            return epSearch;
   \                     ??afFindEndPointDescList_2:
   \   00001E                REQUIRE ?Subroutine4
   \   00001E                ; // Fall through to label ?Subroutine4
    762          }

   \                                 In  segment BANKED_CODE, align 1, keep-with-next
   \                     ?Subroutine4:
   \   000000   D083         POP     DPH
   \   000002   D082         POP     DPL
   \   000004   02....       LJMP    ?BRET

   \                                 In  segment BANKED_CODE, align 1, keep-with-next
   \                     ?Subroutine33:
   \   000000   A3           INC     DPTR
   \   000001                REQUIRE ??Subroutine40_0
   \   000001                ; // Fall through to label ??Subroutine40_0

   \                                 In  segment BANKED_CODE, align 1, keep-with-next
   \                     ?Subroutine19:
   \   000000   12....       LCALL   ?Subroutine33 & 0xFFFF
   \                     ??CrossCallReturnLabel_92:
   \   000003   E0           MOVX    A,@DPTR
   \   000004   22           RET
    763          
    764          /*********************************************************************
    765           * @fn      afFindEndPointDesc
    766           *
    767           * @brief   Find the endpoint description entry from the endpoint
    768           *          number.
    769           *
    770           * @param   EndPoint - Application Endpoint to look for
    771           *
    772           * @return  the address to the endpoint/interface description entry
    773           */

   \                                 In  segment BANKED_CODE, align 1, keep-with-next
    774          endPointDesc_t *afFindEndPointDesc( uint8 EndPoint )
   \                     afFindEndPointDesc:
    775          {
   \   000000   74F6         MOV     A,#-0xa
   \   000002   12....       LCALL   ?BANKED_ENTER_XDATA
   \   000005                ; Saved register size: 10
   \   000005                ; Auto size: 0
    776            epList_t *epSearch;
    777          
    778            // Look for the endpoint
    779            epSearch = afFindEndPointDescList( EndPoint );
   \   000005                ; Setup parameters for call to function afFindEndPointDescList
   \   000005   12....       LCALL   ?Subroutine30 & 0xFFFF
    780          
    781            if ( epSearch )
   \                     ??CrossCallReturnLabel_49:
   \   000008   6007         JZ      ??afFindEndPointDesc_0
    782              return ( epSearch->epDesc );
   \   00000A   A3           INC     DPTR
   \   00000B   A3           INC     DPTR
   \   00000C   12....       LCALL   ??Subroutine39_0 & 0xFFFF
   \                     ??CrossCallReturnLabel_85:
   \   00000F   8004         SJMP    ??afFindEndPointDesc_1
    783            else
    784              return ( (endPointDesc_t *)NULL );
   \                     ??afFindEndPointDesc_0:
   \   000011   7A00         MOV     R2,#0x0
   \   000013   7B00         MOV     R3,#0x0
   \                     ??afFindEndPointDesc_1:
   \   000015   02....       LJMP    ?Subroutine1 & 0xFFFF
    785          }

   \                                 In  segment BANKED_CODE, align 1, keep-with-next
   \                     ?Subroutine30:
   \   000000   12....       LCALL   ??afFindEndPointDescList?relay
   \   000003   8A82         MOV     DPL,R2
   \   000005   8B83         MOV     DPH,R3
   \   000007   E582         MOV     A,DPL
   \   000009   4583         ORL     A,DPH
   \   00000B   22           RET
    786          
    787          /*********************************************************************
    788           * @fn      afFindSimpleDesc
    789           *
    790           * @brief   Find the Simple Descriptor from the endpoint number.
    791           *
    792           * @param   EP - Application Endpoint to look for.
    793           *
    794           * @return  Non-zero to indicate that the descriptor memory must be freed.
    795           */

   \                                 In  segment BANKED_CODE, align 1, keep-with-next
    796          uint8 afFindSimpleDesc( SimpleDescriptionFormat_t **ppDesc, uint8 EP )
   \                     afFindSimpleDesc:
    797          {
   \   000000   74F4         MOV     A,#-0xc
   \   000002   12....       LCALL   ?BANKED_ENTER_XDATA
   \   000005                ; Saved register size: 12
   \   000005                ; Auto size: 0
   \   000005   EA           MOV     A,R2
   \   000006   FE           MOV     R6,A
   \   000007   EB           MOV     A,R3
   \   000008   FF           MOV     R7,A
   \   000009   89..         MOV     ?V0 + 0,R1
    798            epList_t *epItem = afFindEndPointDescList( EP );
   \   00000B                ; Setup parameters for call to function afFindEndPointDescList
   \   00000B   12....       LCALL   ??afFindEndPointDescList?relay
   \   00000E   8A..         MOV     ?V0 + 2,R2
   \   000010   8B..         MOV     ?V0 + 3,R3
   \   000012   AC..         MOV     R4,?V0 + 2
   \   000014   AD..         MOV     R5,?V0 + 3
    799            uint8 rtrn = FALSE;
   \   000016   7900         MOV     R1,#0x0
    800          
    801            if ( epItem )
   \   000018   EC           MOV     A,R4
   \   000019   4D           ORL     A,R5
   \   00001A   603B         JZ      ??afFindSimpleDesc_0
    802            {
    803              if ( epItem->pfnDescCB )
   \   00001C   8C82         MOV     DPL,R4
   \   00001E   8D83         MOV     DPH,R5
   \   000020   A3           INC     DPTR
   \   000021   A3           INC     DPTR
   \   000022   A3           INC     DPTR
   \   000023   A3           INC     DPTR
   \   000024   12....       LCALL   ?Subroutine16 & 0xFFFF
   \                     ??CrossCallReturnLabel_23:
   \   000027   E582         MOV     A,DPL
   \   000029   4583         ORL     A,DPH
   \   00002B   6013         JZ      ??afFindSimpleDesc_1
    804              {
    805                *ppDesc = epItem->pfnDescCB( AF_DESCRIPTOR_SIMPLE, EP );
   \   00002D                ; Setup parameters for indirect call
   \   00002D   AA..         MOV     R2,?V0 + 0
   \   00002F   09           INC     R1
   \   000030   12....       LCALL   ?CALL_IND
   \   000033   8E82         MOV     DPL,R6
   \   000035   8F83         MOV     DPH,R7
   \   000037   EA           MOV     A,R2
   \   000038   F0           MOVX    @DPTR,A
   \   000039   A3           INC     DPTR
   \   00003A   EB           MOV     A,R3
   \   00003B   F0           MOVX    @DPTR,A
    806                rtrn = TRUE;
   \   00003C   7901         MOV     R1,#0x1
   \   00003E   801F         SJMP    ??afFindSimpleDesc_2
    807              }
    808              else
    809              {
    810                *ppDesc = epItem->epDesc->simpleDesc;
   \                     ??afFindSimpleDesc_1:
   \   000040   8C82         MOV     DPL,R4
   \   000042   8D83         MOV     DPH,R5
   \   000044   12....       LCALL   ?Subroutine33 & 0xFFFF
    811              }
    812            }
   \                     ??CrossCallReturnLabel_91:
   \   000047   A3           INC     DPTR
   \   000048   A3           INC     DPTR
   \   000049   A3           INC     DPTR
   \   00004A   12....       LCALL   ??Subroutine39_0 & 0xFFFF
   \                     ??CrossCallReturnLabel_86:
   \   00004D   8E82         MOV     DPL,R6
   \   00004F   8F83         MOV     DPH,R7
   \   000051   EA           MOV     A,R2
   \   000052   F0           MOVX    @DPTR,A
   \   000053   A3           INC     DPTR
   \   000054   EB           MOV     A,R3
   \   000055   8007         SJMP    ??afFindSimpleDesc_3
    813            else
    814            {
    815              *ppDesc = NULL;
   \                     ??afFindSimpleDesc_0:
   \   000057   8E82         MOV     DPL,R6
   \   000059   8F83         MOV     DPH,R7
   \   00005B   E4           CLR     A
   \   00005C   F0           MOVX    @DPTR,A
   \   00005D   A3           INC     DPTR
   \                     ??afFindSimpleDesc_3:
   \   00005E   F0           MOVX    @DPTR,A
    816            }
    817          
    818            return rtrn;
   \                     ??afFindSimpleDesc_2:
   \   00005F   02....       LJMP    ?Subroutine0 & 0xFFFF
    819          }

   \                                 In  segment BANKED_CODE, align 1, keep-with-next
   \                     ?Subroutine16:
   \   000000   E0           MOVX    A,@DPTR
   \   000001   FA           MOV     R2,A
   \   000002   A3           INC     DPTR
   \   000003   E0           MOVX    A,@DPTR
   \   000004   FB           MOV     R3,A
   \   000005   8A82         MOV     DPL,R2
   \   000007   8B83         MOV     DPH,R3
   \   000009   22           RET
    820          
    821          /*********************************************************************
    822           * @fn      afGetDescCB
    823           *
    824           * @brief   Get the Descriptor callback function.
    825           *
    826           * @param   epDesc - pointer to the endpoint descriptor
    827           *
    828           * @return  function pointer or NULL
    829           */
    830          static pDescCB afGetDescCB( endPointDesc_t *epDesc )
    831          {
    832            epList_t *epSearch;
    833          
    834            // Start at the beginning
    835            epSearch = epList;
    836          
    837            // Look through the list until the end
    838            while ( epSearch )
    839            {
    840              // Is there a match?
    841              if ( epSearch->epDesc == epDesc )
    842              {
    843                return ( epSearch->pfnDescCB );
    844              }
    845              else
    846                epSearch = epSearch->nextDesc;  // Next entry
    847            }
    848          
    849            return ( (pDescCB)NULL );
    850          }
    851          
    852          /*********************************************************************
    853           * @fn      afDataReqMTU
    854           *
    855           * @brief   Get the Data Request MTU(Max Transport Unit).
    856           *
    857           * @param   fields - afDataReqMTU_t
    858           *
    859           * @return  uint8(MTU)
    860           */

   \                                 In  segment BANKED_CODE, align 1, keep-with-next
    861          uint8 afDataReqMTU( afDataReqMTU_t* fields )
   \                     afDataReqMTU:
    862          {
   \   000000   74F7         MOV     A,#-0x9
   \   000002   12....       LCALL   ?BANKED_ENTER_XDATA
   \   000005                ; Saved register size: 9
   \   000005                ; Auto size: 0
    863            uint8 len;
    864            uint8 hdr;
    865          
    866            if ( fields->kvp == TRUE )
   \   000005   8A82         MOV     DPL,R2
   \   000007   8B83         MOV     DPH,R3
   \   000009   E0           MOVX    A,@DPTR
   \   00000A   6401         XRL     A,#0x1
   \   00000C   7004         JNZ     ??afDataReqMTU_0
    867            {
    868              hdr = AF_HDR_KVP_MAX_LEN;
   \   00000E   7E08         MOV     R6,#0x8
   \   000010   8002         SJMP    ??afDataReqMTU_1
    869            }
    870            else
    871            {
    872              hdr = AF_HDR_V1_1_MAX_LEN;
   \                     ??afDataReqMTU_0:
   \   000012   7E00         MOV     R6,#0x0
    873            }
    874          
    875            len = (uint8)(APSDE_DataReqMTU(&fields->aps) - hdr);
    876          
    877            return len;
   \                     ??afDataReqMTU_1:
   \   000014                ; Setup parameters for call to function APSDE_DataReqMTU
   \   000014   A3           INC     DPTR
   \   000015   AA82         MOV     R2,DPL
   \   000017   AB83         MOV     R3,DPH
   \   000019   12....       LCALL   ??APSDE_DataReqMTU?relay
   \   00001C   E9           MOV     A,R1
   \   00001D   C3           CLR     C
   \   00001E   9E           SUBB    A,R6
   \   00001F   F9           MOV     R1,A
   \   000020   02....       LJMP    ?Subroutine2 & 0xFFFF
    878          }
    879          
    880          /*********************************************************************
    881           * @fn      afGetMatch
    882           *
    883           * @brief   Set the allow response flag.
    884           *
    885           * @param   ep - Application Endpoint to look for
    886           * @param   action - true - allow response, false - no response
    887           *
    888           * @return  TRUE allow responses, FALSE no response
    889           */

   \                                 In  segment BANKED_CODE, align 1, keep-with-next
    890          uint8 afGetMatch( uint8 ep )
   \                     afGetMatch:
    891          {
   \   000000   74F6         MOV     A,#-0xa
   \   000002   12....       LCALL   ?BANKED_ENTER_XDATA
   \   000005                ; Saved register size: 10
   \   000005                ; Auto size: 0
    892            epList_t *epSearch;
    893          
    894            // Look for the endpoint
    895            epSearch = afFindEndPointDescList( ep );
   \   000005                ; Setup parameters for call to function afFindEndPointDescList
   \   000005   12....       LCALL   ?Subroutine30 & 0xFFFF
    896          
    897            if ( epSearch )
   \                     ??CrossCallReturnLabel_50:
   \   000008   6011         JZ      ??afGetMatch_0
    898            {
    899              if ( epSearch->flags & eEP_AllowMatch )
   \   00000A   A3           INC     DPTR
   \   00000B   A3           INC     DPTR
   \   00000C   A3           INC     DPTR
   \   00000D   A3           INC     DPTR
   \   00000E   A3           INC     DPTR
   \   00000F   A3           INC     DPTR
   \   000010   A3           INC     DPTR
   \   000011   A3           INC     DPTR
   \   000012   E0           MOVX    A,@DPTR
   \   000013   A2E0         MOV     C,0xE0 /* A   */.0
   \   000015   5004         JNC     ??afGetMatch_0
    900                return ( TRUE );
   \   000017   7901         MOV     R1,#0x1
   \   000019   8002         SJMP    ??afGetMatch_1
    901              else
    902                return ( FALSE );
   \                     ??afGetMatch_0:
   \   00001B   7900         MOV     R1,#0x0
    903            }
   \                     ??afGetMatch_1:
   \   00001D                REQUIRE ?Subroutine1
   \   00001D                ; // Fall through to label ?Subroutine1
    904            else
    905              return ( FALSE );
    906          }
    907          
    908          /*********************************************************************
    909           * @fn      afSetMatch
    910           *
    911           * @brief   Set the allow response flag.
    912           *
    913           * @param   ep - Application Endpoint to look for
    914           * @param   action - true - allow response, false - no response
    915           *
    916           * @return  TRUE if success, FALSE if endpoint not found
    917           */

   \                                 In  segment BANKED_CODE, align 1, keep-with-next
    918          uint8 afSetMatch( uint8 ep, uint8 action )
   \                     afSetMatch:
    919          {
   \   000000   74F6         MOV     A,#-0xa
   \   000002   12....       LCALL   ?BANKED_ENTER_XDATA
   \   000005                ; Saved register size: 10
   \   000005                ; Auto size: 0
   \   000005   EA           MOV     A,R2
   \   000006   12....       LCALL   ?Subroutine28 & 0xFFFF
    920            epList_t *epSearch;
    921          
    922            // Look for the endpoint
    923            epSearch = afFindEndPointDescList( ep );
    924          
    925            if ( epSearch )
   \                     ??CrossCallReturnLabel_45:
   \   000009   6019         JZ      ??afSetMatch_0
    926            {
    927              if ( action )
   \   00000B   E8           MOV     A,R0
   \   00000C   2408         ADD     A,#0x8
   \   00000E   F582         MOV     DPL,A
   \   000010   E9           MOV     A,R1
   \   000011   12....       LCALL   ??Subroutine42_0 & 0xFFFF
   \                     ??CrossCallReturnLabel_95:
   \   000014   EF           MOV     A,R7
   \   000015   6005         JZ      ??afSetMatch_1
    928              {
    929                epSearch->flags |= eEP_AllowMatch;
   \   000017   E0           MOVX    A,@DPTR
   \   000018   D2E0         SETB    0xE0 /* A   */.0
   \   00001A   8003         SJMP    ??afSetMatch_2
    930              }
    931              else
    932              {
    933                epSearch->flags &= (eEP_AllowMatch ^ 0xFFFF);
   \                     ??afSetMatch_1:
   \   00001C   E0           MOVX    A,@DPTR
   \   00001D   C2E0         CLR     0xE0 /* A   */.0
   \                     ??afSetMatch_2:
   \   00001F   F0           MOVX    @DPTR,A
    934              }
    935              return ( TRUE );
   \   000020   7901         MOV     R1,#0x1
   \   000022   8002         SJMP    ??afSetMatch_3
    936            }
    937            else
    938              return ( FALSE );
   \                     ??afSetMatch_0:
   \   000024   7900         MOV     R1,#0x0
   \                     ??afSetMatch_3:
   \   000026   80..         SJMP    ?Subroutine1
    939          }

   \                                 In  segment BANKED_CODE, align 1, keep-with-next
   \                     ?Subroutine28:
   \   000000   FF           MOV     R7,A
   \   000001                ; Setup parameters for call to function afFindEndPointDescList
   \   000001                ; Setup parameters for call to function afFindEndPointDescList
   \   000001   12....       LCALL   ??afFindEndPointDescList?relay
   \   000004   8A..         MOV     ?V0 + 0,R2
   \   000006   8B..         MOV     ?V0 + 1,R3
   \   000008   A8..         MOV     R0,?V0 + 0
   \   00000A   A9..         MOV     R1,?V0 + 1
   \   00000C   E8           MOV     A,R0
   \   00000D   49           ORL     A,R1
   \   00000E   22           RET
    940          
    941          /*********************************************************************
    942           * @fn      afNumEndPoints
    943           *
    944           * @brief   Returns the number of endpoints defined (including 0)
    945           *
    946           * @param   none
    947           *
    948           * @return  number of endpoints
    949           */

   \                                 In  segment BANKED_CODE, align 1, keep-with-next
    950          uint8 afNumEndPoints( void )
   \                     afNumEndPoints:
    951          {
   \   000000   C082         PUSH    DPL
   \   000002   C083         PUSH    DPH
   \   000004                ; Saved register size: 2
   \   000004                ; Auto size: 0
    952            epList_t *epSearch;
    953            uint8 endpoints;
    954          
    955            // Start at the beginning
    956            epSearch = epList;
   \   000004   90....       MOV     DPTR,#epList
   \   000007   12....       LCALL   ??Subroutine37_0 & 0xFFFF
   \                     ??CrossCallReturnLabel_72:
   \   00000A   8882         MOV     DPL,R0
   \   00000C   8983         MOV     DPH,R1
    957            endpoints = 0;
   \   00000E   7900         MOV     R1,#0x0
   \   000010   8004         SJMP    ??CrossCallReturnLabel_24
    958          
    959            while ( epSearch )
    960            {
    961              endpoints++;
   \                     ??afNumEndPoints_0:
   \   000012   09           INC     R1
    962              epSearch = epSearch->nextDesc;
   \   000013   12....       LCALL   ?Subroutine16 & 0xFFFF
    963            }
   \                     ??CrossCallReturnLabel_24:
   \   000016   E582         MOV     A,DPL
   \   000018   4583         ORL     A,DPH
   \   00001A   70F6         JNZ     ??afNumEndPoints_0
    964          
    965            return ( endpoints );
   \   00001C   02....       LJMP    ?Subroutine4 & 0xFFFF
    966          }
    967          
    968          /*********************************************************************
    969           * @fn      afEndPoints
    970           *
    971           * @brief   Fills in the passed in buffer with the endpoint (numbers).
    972           *          Use afNumEndPoints to find out how big a buffer to supply.
    973           *
    974           * @param   epBuf - pointer to mem used
    975           *
    976           * @return  void
    977           */

   \                                 In  segment BANKED_CODE, align 1, keep-with-next
    978          void afEndPoints( uint8 *epBuf, uint8 skipZDO )
   \                     afEndPoints:
    979          {
   \   000000   C082         PUSH    DPL
   \   000002   C083         PUSH    DPH
   \   000004                ; Saved register size: 2
   \   000004                ; Auto size: 0
    980            epList_t *epSearch;
    981            uint8 endPoint;
    982          
    983            // Start at the beginning
    984            epSearch = epList;
   \   000004   90....       MOV     DPTR,#epList
   \   000007   801D         SJMP    ??afEndPoints_0
    985          
    986            while ( epSearch )
    987            {
    988              endPoint = epSearch->epDesc->endPoint;
   \                     ??afEndPoints_1:
   \   000009   8C82         MOV     DPL,R4
   \   00000B   8D83         MOV     DPH,R5
   \   00000D   12....       LCALL   ?Subroutine19 & 0xFFFF
   \                     ??CrossCallReturnLabel_30:
   \   000010   F8           MOV     R0,A
    989          
    990              if ( !skipZDO || endPoint != 0 )
   \   000011   E9           MOV     A,R1
   \   000012   6003         JZ      ??afEndPoints_2
   \   000014   E8           MOV     A,R0
   \   000015   600B         JZ      ??afEndPoints_3
    991                *epBuf++ = endPoint;
   \                     ??afEndPoints_2:
   \   000017   E8           MOV     A,R0
   \   000018   8A82         MOV     DPL,R2
   \   00001A   8B83         MOV     DPH,R3
   \   00001C   F0           MOVX    @DPTR,A
   \   00001D   A3           INC     DPTR
   \   00001E   AA82         MOV     R2,DPL
   \   000020   AB83         MOV     R3,DPH
    992          
    993              epSearch = epSearch->nextDesc;
   \                     ??afEndPoints_3:
   \   000022   8C82         MOV     DPL,R4
   \   000024   8D83         MOV     DPH,R5
    994            }
   \                     ??afEndPoints_0:
   \   000026   12....       LCALL   ?Subroutine18 & 0xFFFF
   \                     ??CrossCallReturnLabel_28:
   \   000029   EC           MOV     A,R4
   \   00002A   4D           ORL     A,R5
   \   00002B   70DC         JNZ     ??afEndPoints_1
    995          }
   \   00002D   02....       LJMP    ?Subroutine4 & 0xFFFF
    996          
    997          /*********************************************************************
    998           * @fn      afCopyAddress
    999           *
   1000           * @brief   Fills in the passed in afAddrType_t parameter with the corresponding information
   1001           *          from the zAddrType_t parameter.
   1002           *
   1003           * @param   epBuf - pointer to mem used
   1004           *
   1005           * @return  void
   1006           */

   \                                 In  segment BANKED_CODE, align 1, keep-with-next
   1007          void afCopyAddress( afAddrType_t *afAddr, zAddrType_t *zAddr )
   \                     afCopyAddress:
   1008          {
   \   000000   74F7         MOV     A,#-0x9
   \   000002   12....       LCALL   ?BANKED_ENTER_XDATA
   \   000005                ; Saved register size: 9
   \   000005                ; Auto size: 0
   \   000005   EA           MOV     A,R2
   \   000006   FE           MOV     R6,A
   \   000007   EB           MOV     A,R3
   \   000008   FF           MOV     R7,A
   1009            afAddr->addrMode = (afAddrMode_t)zAddr->addrMode;
   \   000009   EC           MOV     A,R4
   \   00000A   2408         ADD     A,#0x8
   \   00000C   F8           MOV     R0,A
   \   00000D   ED           MOV     A,R5
   \   00000E   3400         ADDC    A,#0x0
   \   000010   F9           MOV     R1,A
   \   000011   8882         MOV     DPL,R0
   \   000013   8983         MOV     DPH,R1
   \   000015   E0           MOVX    A,@DPTR
   \   000016   8E82         MOV     DPL,R6
   \   000018   8F83         MOV     DPH,R7
   \   00001A   A3           INC     DPTR
   \   00001B   A3           INC     DPTR
   \   00001C   A3           INC     DPTR
   \   00001D   A3           INC     DPTR
   \   00001E   A3           INC     DPTR
   \   00001F   A3           INC     DPTR
   \   000020   A3           INC     DPTR
   \   000021   A3           INC     DPTR
   \   000022   F0           MOVX    @DPTR,A
   1010            if ( zAddr->addrMode == Addr64Bit )
   \   000023   8882         MOV     DPL,R0
   \   000025   8983         MOV     DPH,R1
   \   000027   E0           MOVX    A,@DPTR
   \   000028   6403         XRL     A,#0x3
   \   00002A   7005         JNZ     ??afCopyAddress_0
   1011            {
   1012              (void)osal_cpyExtAddr( afAddr->addr.extAddr, zAddr->addr.extAddr );
   \   00002C                ; Setup parameters for call to function sAddrExtCpy
   \   00002C   12....       LCALL   ??sAddrExtCpy?relay
   \   00002F   800A         SJMP    ??CrossCallReturnLabel_64
   1013            }
   1014            else
   1015            {
   1016              afAddr->addr.shortAddr = zAddr->addr.shortAddr;
   \                     ??afCopyAddress_0:
   \   000031   8C82         MOV     DPL,R4
   \   000033   8D83         MOV     DPH,R5
   \   000035   12....       LCALL   ?Subroutine13 & 0xFFFF
   1017            }
   \                     ??CrossCallReturnLabel_20:
   \   000038   12....       LCALL   ??Subroutine36_0 & 0xFFFF
   1018          
   1019            // Since zAddrType_t has no INTER-PAN information, set the panId member to zero.
   1020            afAddr->panId = 0;
   \                     ??CrossCallReturnLabel_64:
   \   00003B   8E82         MOV     DPL,R6
   \   00003D   8F83         MOV     DPH,R7
   \   00003F   A3           INC     DPTR
   \   000040   A3           INC     DPTR
   \   000041   A3           INC     DPTR
   \   000042   A3           INC     DPTR
   \   000043   A3           INC     DPTR
   \   000044   A3           INC     DPTR
   \   000045   A3           INC     DPTR
   \   000046   A3           INC     DPTR
   \   000047   A3           INC     DPTR
   \   000048   A3           INC     DPTR
   \   000049   E4           CLR     A
   \   00004A   F0           MOVX    @DPTR,A
   \   00004B   A3           INC     DPTR
   \   00004C   F0           MOVX    @DPTR,A
   1021          }
   \   00004D   02....       LJMP    ?Subroutine2 & 0xFFFF
   1022          
   1023          /**************************************************************************************************
   1024           * @fn          afAPSF_ConfigGet
   1025           *
   1026           * @brief       This function ascertains the fragmentation configuration that corresponds to
   1027           *              the specified EndPoint.
   1028           *
   1029           * input parameters
   1030           *
   1031           * @param       endPoint - The source EP of a Tx or destination EP of a Rx fragmented message.
   1032           *
   1033           * output parameters
   1034           *
   1035           * @param       pCfg - A pointer to an APSF configuration structure to fill with values.
   1036           *
   1037           * @return      None.
   1038           */

   \                                 In  segment BANKED_CODE, align 1, keep-with-next
   1039          void afAPSF_ConfigGet(uint8 endPoint, afAPSF_Config_t *pCfg)
   \                     afAPSF_ConfigGet:
   1040          {
   \   000000   74F4         MOV     A,#-0xc
   \   000002   12....       LCALL   ?BANKED_ENTER_XDATA
   \   000005                ; Saved register size: 12
   \   000005                ; Auto size: 0
   \   000005   EA           MOV     A,R2
   \   000006   FE           MOV     R6,A
   \   000007   EB           MOV     A,R3
   \   000008   12....       LCALL   ?Subroutine28 & 0xFFFF
   1041            epList_t *pList = afFindEndPointDescList(endPoint);
   1042          
   1043            if (pList == NULL)
   \                     ??CrossCallReturnLabel_46:
   \   00000B   700D         JNZ     ??afAPSF_ConfigGet_0
   1044            {
   1045              pCfg->frameDelay = APSF_DEFAULT_INTERFRAME_DELAY;
   \   00000D   8E82         MOV     DPL,R6
   \   00000F   8F83         MOV     DPH,R7
   \   000011   7432         MOV     A,#0x32
   \   000013   F0           MOVX    @DPTR,A
   1046              pCfg->windowSize = APSF_DEFAULT_WINDOW_SIZE;
   \   000014   A3           INC     DPTR
   \   000015   7401         MOV     A,#0x1
   \   000017   F0           MOVX    @DPTR,A
   \   000018   8022         SJMP    ??afAPSF_ConfigGet_1
   1047            }
   1048            else
   1049            {
   1050              (void)osal_memcpy(pCfg, &pList->apsfCfg, sizeof(afAPSF_Config_t));
   \                     ??afAPSF_ConfigGet_0:
   \   00001A                ; Setup parameters for call to function osal_memcpy
   \   00001A   E8           MOV     A,R0
   \   00001B   2406         ADD     A,#0x6
   \   00001D   F5..         MOV     ?V0 + 0,A
   \   00001F   E9           MOV     A,R1
   \   000020   3400         ADDC    A,#0x0
   \   000022   F5..         MOV     ?V0 + 1,A
   \   000024   75..00       MOV     ?V0 + 2,#0x0
   \   000027   78..         MOV     R0,#?V0 + 0
   \   000029   12....       LCALL   ?PUSH_XSTACK_I_THREE
   \   00002C   7C02         MOV     R4,#0x2
   \   00002E   7D00         MOV     R5,#0x0
   \   000030   EE           MOV     A,R6
   \   000031   FA           MOV     R2,A
   \   000032   EF           MOV     A,R7
   \   000033   FB           MOV     R3,A
   \   000034   12....       LCALL   ??osal_memcpy?relay
   \   000037   7403         MOV     A,#0x3
   \   000039   12....       LCALL   ?DEALLOC_XSTACK8
   1051            }
   1052          }
   \                     ??afAPSF_ConfigGet_1:
   \   00003C                REQUIRE ?Subroutine0
   \   00003C                ; // Fall through to label ?Subroutine0
   1053          
   1054          /**************************************************************************************************
   1055           * @fn          afAPSF_ConfigSet
   1056           *
   1057           * @brief       This function attempts to set the fragmentation configuration that corresponds to
   1058           *              the specified EndPoint.
   1059           *
   1060           * input parameters
   1061           *
   1062           * @param       endPoint - The specific EndPoint for which to set the fragmentation configuration.
   1063           * @param       pCfg - A pointer to an APSF configuration structure to fill with values.
   1064           *
   1065           * output parameters
   1066           *
   1067           * None.
   1068           *
   1069           * @return      afStatus_SUCCESS for success.
   1070           *              afStatus_INVALID_PARAMETER if the specified EndPoint is not registered.
   1071           */

   \                                 In  segment BANKED_CODE, align 1, keep-with-next
   1072          afStatus_t afAPSF_ConfigSet(uint8 endPoint, afAPSF_Config_t *pCfg)
   \                     afAPSF_ConfigSet:
   1073          {
   \   000000   74F4         MOV     A,#-0xc
   \   000002   12....       LCALL   ?BANKED_ENTER_XDATA
   \   000005                ; Saved register size: 12
   \   000005                ; Auto size: 0
   \   000005   EA           MOV     A,R2
   \   000006   FE           MOV     R6,A
   \   000007   EB           MOV     A,R3
   \   000008   FF           MOV     R7,A
   1074            epList_t *pList = afFindEndPointDescList(endPoint);
   \   000009                ; Setup parameters for call to function afFindEndPointDescList
   \   000009   12....       LCALL   ??afFindEndPointDescList?relay
   1075          
   1076            if (pList == NULL)
   \   00000C   EA           MOV     A,R2
   \   00000D   4B           ORL     A,R3
   \   00000E   7004         JNZ     ??afAPSF_ConfigSet_0
   1077            {
   1078              return afStatus_INVALID_PARAMETER;
   \   000010   7902         MOV     R1,#0x2
   \   000012   8022         SJMP    ??afAPSF_ConfigSet_1
   1079            }
   1080          
   1081            (void)osal_memcpy(&pList->apsfCfg, pCfg, sizeof(afAPSF_Config_t));
   \                     ??afAPSF_ConfigSet_0:
   \   000014                ; Setup parameters for call to function osal_memcpy
   \   000014   8E..         MOV     ?V0 + 0,R6
   \   000016   8F..         MOV     ?V0 + 1,R7
   \   000018   75..00       MOV     ?V0 + 2,#0x0
   \   00001B   78..         MOV     R0,#?V0 + 0
   \   00001D   12....       LCALL   ?PUSH_XSTACK_I_THREE
   \   000020   7C02         MOV     R4,#0x2
   \   000022   7D00         MOV     R5,#0x0
   \   000024   EA           MOV     A,R2
   \   000025   2406         ADD     A,#0x6
   \   000027   FA           MOV     R2,A
   \   000028   EB           MOV     A,R3
   \   000029   3400         ADDC    A,#0x0
   \   00002B   FB           MOV     R3,A
   \   00002C   12....       LCALL   ??osal_memcpy?relay
   \   00002F   7403         MOV     A,#0x3
   \   000031   12....       LCALL   ?DEALLOC_XSTACK8
   1082            return afStatus_SUCCESS;
   \   000034   7900         MOV     R1,#0x0
   \                     ??afAPSF_ConfigSet_1:
   \   000036   80..         SJMP    ?Subroutine0
   1083          }

   \                                 In  segment XDATA_ID, align 1, keep-with-next
   \                     `?<Initializer for AF_DataRequestDiscoverRoute>`:
   \   000000   01           DB 1

   \                                 In  segment BANK_RELAYS, align 1
   \                     ??afRegisterExtended?relay:
   \   000000   12....       LCALL   ?BDISPATCH
   \   000003   ......       DC24    afRegisterExtended

   \                                 In  segment BANK_RELAYS, align 1
   \                     ??afRegister?relay:
   \   000000   12....       LCALL   ?BDISPATCH
   \   000003   ......       DC24    afRegister

   \                                 In  segment BANK_RELAYS, align 1
   \                     ??afDelete?relay:
   \   000000   12....       LCALL   ?BDISPATCH
   \   000003   ......       DC24    afDelete

   \                                 In  segment BANK_RELAYS, align 1
   \                     ??afDataConfirm?relay:
   \   000000   12....       LCALL   ?BDISPATCH
   \   000003   ......       DC24    afDataConfirm

   \                                 In  segment BANK_RELAYS, align 1
   \                     ??afIncomingData?relay:
   \   000000   12....       LCALL   ?BDISPATCH
   \   000003   ......       DC24    afIncomingData

   \                                 In  segment BANK_RELAYS, align 1
   \                     ??afBuildMSGIncoming?relay:
   \   000000   12....       LCALL   ?BDISPATCH
   \   000003   ......       DC24    afBuildMSGIncoming

   \                                 In  segment BANK_RELAYS, align 1
   \                     ??AF_DataRequest?relay:
   \   000000   12....       LCALL   ?BDISPATCH
   \   000003   ......       DC24    AF_DataRequest

   \                                 In  segment BANK_RELAYS, align 1
   \                     ??AF_DataRequestSrcRtg?relay:
   \   000000   12....       LCALL   ?BDISPATCH
   \   000003   ......       DC24    AF_DataRequestSrcRtg

   \                                 In  segment BANK_RELAYS, align 1
   \                     ??afFindEndPointDescList?relay:
   \   000000   12....       LCALL   ?BDISPATCH
   \   000003   ......       DC24    afFindEndPointDescList

   \                                 In  segment BANK_RELAYS, align 1
   \                     ??afFindEndPointDesc?relay:
   \   000000   12....       LCALL   ?BDISPATCH
   \   000003   ......       DC24    afFindEndPointDesc

   \                                 In  segment BANK_RELAYS, align 1
   \                     ??afFindSimpleDesc?relay:
   \   000000   12....       LCALL   ?BDISPATCH
   \   000003   ......       DC24    afFindSimpleDesc

   \                                 In  segment BANK_RELAYS, align 1
   \                     ??afDataReqMTU?relay:
   \   000000   12....       LCALL   ?BDISPATCH
   \   000003   ......       DC24    afDataReqMTU

   \                                 In  segment BANK_RELAYS, align 1
   \                     ??afGetMatch?relay:
   \   000000   12....       LCALL   ?BDISPATCH
   \   000003   ......       DC24    afGetMatch

   \                                 In  segment BANK_RELAYS, align 1
   \                     ??afSetMatch?relay:
   \   000000   12....       LCALL   ?BDISPATCH
   \   000003   ......       DC24    afSetMatch

   \                                 In  segment BANK_RELAYS, align 1
   \                     ??afNumEndPoints?relay:
   \   000000   12....       LCALL   ?BDISPATCH
   \   000003   ......       DC24    afNumEndPoints

   \                                 In  segment BANK_RELAYS, align 1
   \                     ??afEndPoints?relay:
   \   000000   12....       LCALL   ?BDISPATCH
   \   000003   ......       DC24    afEndPoints

   \                                 In  segment BANK_RELAYS, align 1
   \                     ??afCopyAddress?relay:
   \   000000   12....       LCALL   ?BDISPATCH
   \   000003   ......       DC24    afCopyAddress

   \                                 In  segment BANK_RELAYS, align 1
   \                     ??afAPSF_ConfigGet?relay:
   \   000000   12....       LCALL   ?BDISPATCH
   \   000003   ......       DC24    afAPSF_ConfigGet

   \                                 In  segment BANK_RELAYS, align 1
   \                     ??afAPSF_ConfigSet?relay:
   \   000000   12....       LCALL   ?BDISPATCH
   \   000003   ......       DC24    afAPSF_ConfigSet
   1084          
   1085          /**************************************************************************************************
   1086          */

   Maximum stack usage in bytes:

     Function                       ISTACK PSTACK XSTACK
     --------                       ------ ------ ------
     AF_DataRequest                     1      0     83
       -> NLME_GetShortAddr             0      0    108
       -> RTG_CheckRtStatus             0      0    108
       -> NLME_IsAddressBroadcast       0      0    108
       -> sAddrExtCpy                   0      0    108
       -> osal_mem_free                 0      0    108
       -> afDataReqMTU                  0      0    108
       -> APSDE_DataReq                 0      0    108
       -> NLME_GetShortAddr             0      0    108
       -> afDataConfirm                 0      0    108
     AF_DataRequestSrcRtg               0      0     41
       -> RTG_AddSrcRtgEntry_Guaranteed
                                        0      0     40
       -> AF_DataRequest                0      0     58
     afAPSF_ConfigGet                   0      0     15
       -> afFindEndPointDescList        0      0     24
       -> osal_memcpy                   0      0     30
     afAPSF_ConfigSet                   0      0     15
       -> afFindEndPointDescList        0      0     24
       -> osal_memcpy                   0      0     30
     afBuildMSGIncoming                 1      0     66
       -> osal_msg_allocate             0      0     50
       -> afCopyAddress                 0      0     50
       -> osal_memcpy                   0      0     56
       -> osal_msg_send                 0      0     50
     afCopyAddress                      1      0     34
       -> sAddrExtCpy                   0      0     18
     afDataConfirm                      1      0     68
       -> afFindEndPointDesc            0      0     28
       -> osal_msg_allocate             0      0     28
       -> osal_msg_send                 0      0     28
     afDataReqMTU                       0      0     63
       -> APSDE_DataReqMTU              0      0     18
     afDelete                           0      0      9
       -> osal_mem_free                 0      0     18
       -> osal_mem_free                 0      0     18
     afEndPoints                        3      0      0
     afFindEndPointDesc                 0      0     37
       -> afFindEndPointDescList        0      0     20
     afFindEndPointDescList             2      0     27
     afFindSimpleDesc                   0      0     12
       -> afFindEndPointDescList        0      0     24
     afGetMatch                         0      0     10
       -> afFindEndPointDescList        0      0     20
     afIncomingData                     1      0     47
       -> aps_FindGroupForEndpoint      0      0     54
       -> afFindEndPointDesc            0      0     54
       -> afFindEndPointDescList        0      0     54
       -> afFindEndPointDesc            0      0     54
       -> aps_FindGroupForEndpoint      0      0     54
       -> afFindEndPointDesc            0      0     54
       -> afFindEndPointDescList        0      0     54
       -> osal_mem_free                 0      0     54
       -> afBuildMSGIncoming            0      0     76
     afNumEndPoints                     2      0      0
     afRegister                         0      0     10
       -> afFindEndPointDescList        0      0     20
       -> afRegisterExtended            0      0     20
     afRegisterExtended                 0      0     22
       -> osal_mem_alloc                0      0     24
     afSetMatch                         0      0     10
       -> afFindEndPointDescList        0      0     20


   Segment part sizes:

     Function/Label                                 Bytes
     --------------                                 -----
     epList                                            2
     afRegisterExtended                               80
     ?Subroutine24                                     4
     ?Subroutine31                                    10
     ?Subroutine22                                     7
     ?Subroutine25                                     8
     ??Subroutine36_0                                  6
     ??Subroutine37_0                                  4
     ??Subroutine38_0                                  6
     ?Subroutine0                                      5
     afRegister                                       56
     ?Subroutine1                                      5
     afDelete                                         88
     ?Subroutine2                                      5
     ?Subroutine12                                    17
     ?Subroutine14                                     4
     ?Subroutine9                                      6
     ?Subroutine18                                     6
     ??Subroutine39_0                                  6
     afDataConfirm                                    71
     ?Subroutine7                                      9
     ??Subroutine40_0                                  4
     ??Subroutine41_0                                  6
     afIncomingData                                  413
     ?Subroutine3                                      8
     ?Subroutine29                                    14
     ?Subroutine15                                    14
     ?Subroutine5                                     20
     ?Subroutine6                                      8
     ?Subroutine20                                     9
     ?Subroutine10                                    11
     ?Subroutine35                                     3
     ?Subroutine8                                     12
     ?Subroutine13                                     4
     ?Subroutine34                                    10
     afBuildMSGIncoming                              454
     ?Subroutine11                                    10
     ?Subroutine26                                     5
     ?Subroutine32                                     9
     ?Subroutine23                                     8
     ?Subroutine21                                     7
     ?Subroutine27                                     3
     ??Subroutine42_0                                  5
     AF_DataRequestDiscoverRoute                       1
     AF_DataRequest                                  713
     ?Subroutine17                                     6
     AF_DataRequestSrcRtg                            160
     afFindEndPointDescList                           30
     ?Subroutine4                                      7
     ?Subroutine33                                     1
     ?Subroutine19                                     5
     afFindEndPointDesc                               24
     ?Subroutine30                                    12
     afFindSimpleDesc                                 98
     ?Subroutine16                                    10
     afDataReqMTU                                     35
     afGetMatch                                       29
     afSetMatch                                       40
     ?Subroutine28                                    15
     afNumEndPoints                                   31
     afEndPoints                                      48
     afCopyAddress                                    80
     afAPSF_ConfigGet                                 60
     afAPSF_ConfigSet                                 56
     ?<Initializer for AF_DataRequestDiscoverRoute>    1
     ??afRegisterExtended?relay                        6
     ??afRegister?relay                                6
     ??afDelete?relay                                  6
     ??afDataConfirm?relay                             6
     ??afIncomingData?relay                            6
     ??afBuildMSGIncoming?relay                        6
     ??AF_DataRequest?relay                            6
     ??AF_DataRequestSrcRtg?relay                      6
     ??afFindEndPointDescList?relay                    6
     ??afFindEndPointDesc?relay                        6
     ??afFindSimpleDesc?relay                          6
     ??afDataReqMTU?relay                              6
     ??afGetMatch?relay                                6
     ??afSetMatch?relay                                6
     ??afNumEndPoints?relay                            6
     ??afEndPoints?relay                               6
     ??afCopyAddress?relay                             6
     ??afAPSF_ConfigGet?relay                          6
     ??afAPSF_ConfigSet?relay                          6

 
 2 900 bytes in segment BANKED_CODE
   114 bytes in segment BANK_RELAYS
     1 byte  in segment XDATA_I
     1 byte  in segment XDATA_ID
     2 bytes in segment XDATA_Z
 
 3 015 bytes of CODE  memory
     3 bytes of XDATA memory

Errors: none
Warnings: none
