///////////////////////////////////////////////////////////////////////////////
//                                                                            /
// IAR C/C++ Compiler V8.10.1.10194/W32 for 8051        01/Jun/2015  00:49:40 /
// Copyright 2004-2011 IAR Systems AB.                                        /
//                                                                            /
//    Core               =  plain                                             /
//    Code model         =  banked                                            /
//    Data model         =  large                                             /
//    Calling convention =  xdata reentrant                                   /
//    Constant location  =  data_rom                                          /
//    Dptr setup         =  1,16                                              /
//    Source file        =  C:\Texas Instruments\ZStack-CC2530-2.5.1a\Compone /
//                          nts\stack\af\AF.c                                 /
//    Command line       =  -f "C:\Texas Instruments\ZStack-CC2530-2.5.1a\Pro /
//                          jects\zstack\Samples\WirelessMonitorSystem\CC2530 /
//                          DB\..\..\..\Tools\CC2530DB\f8wEndev.cfg"          /
//                          (-DCPU32MHZ -DROOT=__near_func                    /
//                          -DMAC_CFG_TX_DATA_MAX=3 -DMAC_CFG_TX_MAX=6        /
//                          -DMAC_CFG_RX_MAX=3) -f "C:\Texas                  /
//                          Instruments\ZStack-CC2530-2.5.1a\Projects\zstack\ /
//                          Samples\WirelessMonitorSystem\CC2530DB\..\..\..\T /
//                          ools\CC2530DB\f8wConfig.cfg" (-DZIGBEEPRO         /
//                          -DSECURE=0 -DZG_SECURE_DYNAMIC=0 -DREFLECTOR      /
//                          -DDEFAULT_CHANLIST=0x00000800                     /
//                          -DZDAPP_CONFIG_PAN_ID=0xFFFF                      /
//                          -DNWK_START_DELAY=100 -DEXTENDED_JOINING_RANDOM_M /
//                          ASK=0x007F -DBEACON_REQUEST_DELAY=100             /
//                          -DBEACON_REQ_DELAY_MASK=0x00FF                    /
//                          -DLINK_STATUS_JITTER_MASK=0x007F                  /
//                          -DROUTE_EXPIRY_TIME=30 -DAPSC_ACK_WAIT_DURATION_P /
//                          OLLED=3000 -DNWK_INDIRECT_MSG_TIMEOUT=7           /
//                          -DMAX_RREQ_ENTRIES=8 -DAPSC_MAX_FRAME_RETRIES=3   /
//                          -DNWK_MAX_DATA_RETRIES=2                          /
//                          -DMAX_POLL_FAILURE_RETRIES=2 -DMAX_BCAST=9        /
//                          -DAPS_MAX_GROUPS=16 -DMAX_RTG_ENTRIES=40          /
//                          -DNWK_MAX_BINDING_ENTRIES=4                       /
//                          -DMAX_BINDING_CLUSTER_IDS=4                       /
//                          "-DDEFAULT_KEY={0x01, 0x03, 0x05, 0x07, 0x09,     /
//                          0x0B, 0x0D, 0x0F, 0x00, 0x02, 0x04, 0x06, 0x08,   /
//                          0x0A, 0x0C, 0x0D}" -DMAC_MAX_FRAME_SIZE=116       /
//                          -DZDNWKMGR_MIN_TRANSMISSIONS=20 "-DCONST=const    /
//                          __code" -DGENERIC=__generic                       /
//                          -DRFD_RCVC_ALWAYS_ON=FALSE -DPOLL_RATE=500        /
//                          -DQUEUED_POLL_RATE=30 -DRESPONSE_POLL_RATE=100)   /
//                          -DREJOIN_POLL_RATE=440 "C:\Texas                  /
//                          Instruments\ZStack-CC2530-2.5.1a\Components\stack /
//                          \af\AF.c" -D HAL_UART -D xOCM_CLK_PORT=0 -D       /
//                          xOCM_CLK_PIN=7 -D xOCM_DATA_PORT=0 -D             /
//                          xOCM_DATA_PIN=6 -lC "C:\Texas                     /
//                          Instruments\ZStack-CC2530-2.5.1a\Projects\zstack\ /
//                          Samples\WirelessMonitorSystem\CC2530DB\Vibrate\Li /
//                          st\" -lA "C:\Texas Instruments\ZStack-CC2530-2.5. /
//                          1a\Projects\zstack\Samples\WirelessMonitorSystem\ /
//                          CC2530DB\Vibrate\List\" --diag_suppress           /
//                          Pe001,Pa010 -o "C:\Texas                          /
//                          Instruments\ZStack-CC2530-2.5.1a\Projects\zstack\ /
//                          Samples\WirelessMonitorSystem\CC2530DB\Vibrate\Ob /
//                          j\" -e --debug --core=plain --dptr=16,1           /
//                          --data_model=large --code_model=banked            /
//                          --calling_convention=xdata_reentrant              /
//                          --place_constants=data_rom --nr_virtual_regs 16   /
//                          -I "C:\Texas Instruments\ZStack-CC2530-2.5.1a\Pro /
//                          jects\zstack\Samples\WirelessMonitorSystem\CC2530 /
//                          DB\" -I "C:\Texas Instruments\ZStack-CC2530-2.5.1 /
//                          a\Projects\zstack\Samples\WirelessMonitorSystem\C /
//                          C2530DB\..\Source\" -I "C:\Texas                  /
//                          Instruments\ZStack-CC2530-2.5.1a\Projects\zstack\ /
//                          Samples\WirelessMonitorSystem\CC2530DB\..\..\..\Z /
//                          Main\TI2530DB\" -I "C:\Texas                      /
//                          Instruments\ZStack-CC2530-2.5.1a\Projects\zstack\ /
//                          Samples\WirelessMonitorSystem\CC2530DB\..\..\..\. /
//                          .\..\Components\hal\include\" -I "C:\Texas        /
//                          Instruments\ZStack-CC2530-2.5.1a\Projects\zstack\ /
//                          Samples\WirelessMonitorSystem\CC2530DB\..\..\..\. /
//                          .\..\Components\hal\target\CC2530EB\" -I          /
//                          "C:\Texas Instruments\ZStack-CC2530-2.5.1a\Projec /
//                          ts\zstack\Samples\WirelessMonitorSystem\CC2530DB\ /
//                          ..\..\..\..\..\Components\mac\include\" -I        /
//                          "C:\Texas Instruments\ZStack-CC2530-2.5.1a\Projec /
//                          ts\zstack\Samples\WirelessMonitorSystem\CC2530DB\ /
//                          ..\..\..\..\..\Components\mac\high_level\" -I     /
//                          "C:\Texas Instruments\ZStack-CC2530-2.5.1a\Projec /
//                          ts\zstack\Samples\WirelessMonitorSystem\CC2530DB\ /
//                          ..\..\..\..\..\Components\mac\low_level\srf04\"   /
//                          -I "C:\Texas Instruments\ZStack-CC2530-2.5.1a\Pro /
//                          jects\zstack\Samples\WirelessMonitorSystem\CC2530 /
//                          DB\..\..\..\..\..\Components\mac\low_level\srf04\ /
//                          single_chip\" -I "C:\Texas                        /
//                          Instruments\ZStack-CC2530-2.5.1a\Projects\zstack\ /
//                          Samples\WirelessMonitorSystem\CC2530DB\..\..\..\. /
//                          .\..\Components\mt\" -I "C:\Texas                 /
//                          Instruments\ZStack-CC2530-2.5.1a\Projects\zstack\ /
//                          Samples\WirelessMonitorSystem\CC2530DB\..\..\..\. /
//                          .\..\Components\osal\include\" -I "C:\Texas       /
//                          Instruments\ZStack-CC2530-2.5.1a\Projects\zstack\ /
//                          Samples\WirelessMonitorSystem\CC2530DB\..\..\..\. /
//                          .\..\Components\services\saddr\" -I "C:\Texas     /
//                          Instruments\ZStack-CC2530-2.5.1a\Projects\zstack\ /
//                          Samples\WirelessMonitorSystem\CC2530DB\..\..\..\. /
//                          .\..\Components\services\sdata\" -I "C:\Texas     /
//                          Instruments\ZStack-CC2530-2.5.1a\Projects\zstack\ /
//                          Samples\WirelessMonitorSystem\CC2530DB\..\..\..\. /
//                          .\..\Components\stack\af\" -I "C:\Texas           /
//                          Instruments\ZStack-CC2530-2.5.1a\Projects\zstack\ /
//                          Samples\WirelessMonitorSystem\CC2530DB\..\..\..\. /
//                          .\..\Components\stack\nwk\" -I "C:\Texas          /
//                          Instruments\ZStack-CC2530-2.5.1a\Projects\zstack\ /
//                          Samples\WirelessMonitorSystem\CC2530DB\..\..\..\. /
//                          .\..\Components\stack\sapi\" -I "C:\Texas         /
//                          Instruments\ZStack-CC2530-2.5.1a\Projects\zstack\ /
//                          Samples\WirelessMonitorSystem\CC2530DB\..\..\..\. /
//                          .\..\Components\stack\sec\" -I "C:\Texas          /
//                          Instruments\ZStack-CC2530-2.5.1a\Projects\zstack\ /
//                          Samples\WirelessMonitorSystem\CC2530DB\..\..\..\. /
//                          .\..\Components\stack\sys\" -I "C:\Texas          /
//                          Instruments\ZStack-CC2530-2.5.1a\Projects\zstack\ /
//                          Samples\WirelessMonitorSystem\CC2530DB\..\..\..\. /
//                          .\..\Components\stack\zdo\" -I "C:\Texas          /
//                          Instruments\ZStack-CC2530-2.5.1a\Projects\zstack\ /
//                          Samples\WirelessMonitorSystem\CC2530DB\..\..\..\. /
//                          .\..\Components\zmac\" -I "C:\Texas               /
//                          Instruments\ZStack-CC2530-2.5.1a\Projects\zstack\ /
//                          Samples\WirelessMonitorSystem\CC2530DB\..\..\..\. /
//                          .\..\Components\zmac\f8w\" -Ohz                   /
//                          --require_prototypes                              /
//    List file          =  C:\Texas Instruments\ZStack-CC2530-2.5.1a\Project /
//                          s\zstack\Samples\WirelessMonitorSystem\CC2530DB\V /
//                          ibrate\List\AF.s51                                /
//                                                                            /
//                                                                            /
///////////////////////////////////////////////////////////////////////////////

        NAME AF

        RTMODEL "__SystemLibrary", "CLib"
        RTMODEL "__calling_convention", "xdata_reentrant"
        RTMODEL "__code_model", "banked"
        RTMODEL "__core", "plain"
        RTMODEL "__data_model", "large"
        RTMODEL "__dptr_size", "16"
        RTMODEL "__extended_stack", "disabled"
        RTMODEL "__location_for_constants", "data"
        RTMODEL "__number_of_dptrs", "1"
        RTMODEL "__rt_version", "1"

        RSEG DOVERLAY:DATA:NOROOT(0)
        RSEG IOVERLAY:IDATA:NOROOT(0)
        RSEG ISTACK:IDATA:NOROOT(0)
        RSEG PSTACK:XDATA:NOROOT(0)
        RSEG XSTACK:XDATA:NOROOT(0)

        EXTERN ?ALLOC_XSTACK8
        EXTERN ?BANKED_ENTER_XDATA
        EXTERN ?BANKED_LEAVE_XDATA
        EXTERN ?BDISPATCH
        EXTERN ?BRET
        EXTERN ?CALL_IND
        EXTERN ?DEALLOC_XSTACK8
        EXTERN ?L_MOV_TO_X
        EXTERN ?L_MOV_X
        EXTERN ?PUSH_XSTACK8_X_TWO
        EXTERN ?PUSH_XSTACK_I_FOUR
        EXTERN ?PUSH_XSTACK_I_ONE
        EXTERN ?PUSH_XSTACK_I_THREE
        EXTERN ?PUSH_XSTACK_I_TWO
        EXTERN ?V0
        EXTERN ?XSP
        EXTERN ?XSTACK_DISP0_8
        EXTERN __INIT_XDATA_I
        EXTERN __INIT_XDATA_Z

        PUBLIC ??AF_DataRequest?relay
        FUNCTION ??AF_DataRequest?relay,0203H
        PUBLIC ??AF_DataRequestSrcRtg?relay
        FUNCTION ??AF_DataRequestSrcRtg?relay,0203H
        PUBLIC ??afAPSF_ConfigGet?relay
        FUNCTION ??afAPSF_ConfigGet?relay,0203H
        PUBLIC ??afAPSF_ConfigSet?relay
        FUNCTION ??afAPSF_ConfigSet?relay,0203H
        FUNCTION ??afBuildMSGIncoming?relay,0203H
        PUBLIC ??afCopyAddress?relay
        FUNCTION ??afCopyAddress?relay,0203H
        PUBLIC ??afDataConfirm?relay
        FUNCTION ??afDataConfirm?relay,0203H
        PUBLIC ??afDataReqMTU?relay
        FUNCTION ??afDataReqMTU?relay,0203H
        PUBLIC ??afDelete?relay
        FUNCTION ??afDelete?relay,0203H
        PUBLIC ??afEndPoints?relay
        FUNCTION ??afEndPoints?relay,0203H
        PUBLIC ??afFindEndPointDesc?relay
        FUNCTION ??afFindEndPointDesc?relay,0203H
        FUNCTION ??afFindEndPointDescList?relay,0203H
        PUBLIC ??afFindSimpleDesc?relay
        FUNCTION ??afFindSimpleDesc?relay,0203H
        PUBLIC ??afGetMatch?relay
        FUNCTION ??afGetMatch?relay,0203H
        PUBLIC ??afIncomingData?relay
        FUNCTION ??afIncomingData?relay,0203H
        PUBLIC ??afNumEndPoints?relay
        FUNCTION ??afNumEndPoints?relay,0203H
        PUBLIC ??afRegister?relay
        FUNCTION ??afRegister?relay,0203H
        PUBLIC ??afRegisterExtended?relay
        FUNCTION ??afRegisterExtended?relay,0203H
        PUBLIC ??afSetMatch?relay
        FUNCTION ??afSetMatch?relay,0203H
        PUBLIC AF_DataRequest
        FUNCTION AF_DataRequest,021203H
        ARGFRAME XSTACK, 29, STACK
        ARGFRAME IOVERLAY, 0, STATIC
        ARGFRAME DOVERLAY, 0, STATIC
        LOCFRAME ISTACK, 1, STACK
        LOCFRAME XSTACK, 54, STACK
        PUBLIC AF_DataRequestDiscoverRoute
        PUBLIC AF_DataRequestSrcRtg
        FUNCTION AF_DataRequestSrcRtg,021203H
        ARGFRAME XSTACK, 12, STACK
        LOCFRAME XSTACK, 29, STACK
        PUBLIC afAPSF_ConfigGet
        FUNCTION afAPSF_ConfigGet,021203H
        ARGFRAME XSTACK, 0, STACK
        LOCFRAME XSTACK, 15, STACK
        PUBLIC afAPSF_ConfigSet
        FUNCTION afAPSF_ConfigSet,021203H
        ARGFRAME XSTACK, 0, STACK
        LOCFRAME XSTACK, 15, STACK
        FUNCTION afBuildMSGIncoming,021203H
        ARGFRAME XSTACK, 38, STACK
        ARGFRAME IOVERLAY, 0, STATIC
        ARGFRAME DOVERLAY, 0, STATIC
        LOCFRAME ISTACK, 1, STACK
        LOCFRAME XSTACK, 28, STACK
        PUBLIC afCopyAddress
        FUNCTION afCopyAddress,021203H
        ARGFRAME XSTACK, 25, STACK
        ARGFRAME IOVERLAY, 0, STATIC
        ARGFRAME DOVERLAY, 0, STATIC
        LOCFRAME ISTACK, 1, STACK
        LOCFRAME XSTACK, 9, STACK
        PUBLIC afDataConfirm
        FUNCTION afDataConfirm,021203H
        ARGFRAME XSTACK, 54, STACK
        ARGFRAME IOVERLAY, 0, STATIC
        ARGFRAME DOVERLAY, 0, STATIC
        LOCFRAME ISTACK, 1, STACK
        LOCFRAME XSTACK, 14, STACK
        PUBLIC afDataReqMTU
        FUNCTION afDataReqMTU,021203H
        ARGFRAME XSTACK, 54, STACK
        ARGFRAME IOVERLAY, 0, STATIC
        ARGFRAME DOVERLAY, 0, STATIC
        LOCFRAME XSTACK, 9, STACK
        PUBLIC afDelete
        FUNCTION afDelete,021203H
        ARGFRAME XSTACK, 0, STACK
        LOCFRAME XSTACK, 9, STACK
        PUBLIC afEndPoints
        FUNCTION afEndPoints,0203H
        ARGFRAME XSTACK, 0, STACK
        LOCFRAME ISTACK, 3, STACK
        PUBLIC afFindEndPointDesc
        FUNCTION afFindEndPointDesc,021203H
        ARGFRAME XSTACK, 27, STACK
        ARGFRAME IOVERLAY, 0, STATIC
        ARGFRAME DOVERLAY, 0, STATIC
        LOCFRAME XSTACK, 10, STACK
        FUNCTION afFindEndPointDescList,0203H
        ARGFRAME XSTACK, 27, STACK
        ARGFRAME IOVERLAY, 0, STATIC
        ARGFRAME DOVERLAY, 0, STATIC
        LOCFRAME ISTACK, 2, STACK
        PUBLIC afFindSimpleDesc
        FUNCTION afFindSimpleDesc,021203H
        ARGFRAME XSTACK, 0, STACK
        LOCFRAME XSTACK, 12, STACK
        PUBLIC afGetMatch
        FUNCTION afGetMatch,021203H
        ARGFRAME XSTACK, 0, STACK
        LOCFRAME XSTACK, 10, STACK
        PUBLIC afIncomingData
        FUNCTION afIncomingData,021203H
        ARGFRAME XSTACK, 9, STACK
        LOCFRAME ISTACK, 1, STACK
        LOCFRAME XSTACK, 38, STACK
        PUBLIC afNumEndPoints
        FUNCTION afNumEndPoints,0203H
        ARGFRAME XSTACK, 0, STACK
        LOCFRAME ISTACK, 2, STACK
        PUBLIC afRegister
        FUNCTION afRegister,021203H
        ARGFRAME XSTACK, 0, STACK
        LOCFRAME XSTACK, 10, STACK
        PUBLIC afRegisterExtended
        FUNCTION afRegisterExtended,021203H
        ARGFRAME XSTACK, 10, STACK
        ARGFRAME IOVERLAY, 0, STATIC
        ARGFRAME DOVERLAY, 0, STATIC
        LOCFRAME XSTACK, 12, STACK
        PUBLIC afSetMatch
        FUNCTION afSetMatch,021203H
        ARGFRAME XSTACK, 0, STACK
        LOCFRAME XSTACK, 10, STACK
        PUBLIC epList
        
        CFI Names cfiNames0
        CFI StackFrame CFA_SP SP IDATA
        CFI StackFrame CFA_PSP16 PSP16 XDATA
        CFI StackFrame CFA_XSP16 XSP16 XDATA
        CFI StaticOverlayFrame CFA_IOVERLAY IOVERLAY
        CFI StaticOverlayFrame CFA_DOVERLAY DOVERLAY
        CFI Resource `PSW.CY`:1, `B.BR0`:1, `B.BR1`:1, `B.BR2`:1, `B.BR3`:1
        CFI Resource `B.BR4`:1, `B.BR5`:1, `B.BR6`:1, `B.BR7`:1, `VB.BR8`:1
        CFI Resource `VB.BR9`:1, `VB.BR10`:1, `VB.BR11`:1, `VB.BR12`:1
        CFI Resource `VB.BR13`:1, `VB.BR14`:1, `VB.BR15`:1, VB:8, B:8, A:8
        CFI Resource PSW:8, DPL0:8, DPH0:8, R0:8, R1:8, R2:8, R3:8, R4:8, R5:8
        CFI Resource R6:8, R7:8, V0:8, V1:8, V2:8, V3:8, V4:8, V5:8, V6:8, V7:8
        CFI Resource V8:8, V9:8, V10:8, V11:8, V12:8, V13:8, V14:8, V15:8, SP:8
        CFI Resource PSPH:8, PSPL:8, PSP16:16, XSPH:8, XSPL:8, XSP16:16
        CFI VirtualResource ?RET:24
        CFI Resource ?BRET_EXT:8
        CFI VirtualResource ?RET_HIGH:8, ?RET_LOW:8
        CFI ResourceParts PSP16 PSPH, PSPL
        CFI ResourceParts XSP16 XSPH, XSPL
        CFI ResourceParts ?RET ?BRET_EXT, ?RET_HIGH, ?RET_LOW
        CFI EndNames cfiNames0
        
        CFI Common cfiCommon0 Using cfiNames0
        CFI CodeAlign 1
        CFI DataAlign -1
        CFI ReturnAddress ?RET CODE
        CFI CFA_DOVERLAY Used
        CFI CFA_IOVERLAY Used
        CFI CFA_SP SP+-3
        CFI CFA_PSP16 PSP16+0
        CFI CFA_XSP16 XSP16+0
        CFI `PSW.CY` SameValue
        CFI `B.BR0` SameValue
        CFI `B.BR1` SameValue
        CFI `B.BR2` SameValue
        CFI `B.BR3` SameValue
        CFI `B.BR4` SameValue
        CFI `B.BR5` SameValue
        CFI `B.BR6` SameValue
        CFI `B.BR7` SameValue
        CFI `VB.BR8` SameValue
        CFI `VB.BR9` SameValue
        CFI `VB.BR10` SameValue
        CFI `VB.BR11` SameValue
        CFI `VB.BR12` SameValue
        CFI `VB.BR13` SameValue
        CFI `VB.BR14` SameValue
        CFI `VB.BR15` SameValue
        CFI VB SameValue
        CFI B Undefined
        CFI A Undefined
        CFI PSW SameValue
        CFI DPL0 SameValue
        CFI DPH0 SameValue
        CFI R0 Undefined
        CFI R1 Undefined
        CFI R2 Undefined
        CFI R3 Undefined
        CFI R4 Undefined
        CFI R5 Undefined
        CFI R6 SameValue
        CFI R7 SameValue
        CFI V0 SameValue
        CFI V1 SameValue
        CFI V2 SameValue
        CFI V3 SameValue
        CFI V4 SameValue
        CFI V5 SameValue
        CFI V6 SameValue
        CFI V7 SameValue
        CFI V8 SameValue
        CFI V9 SameValue
        CFI V10 SameValue
        CFI V11 SameValue
        CFI V12 SameValue
        CFI V13 SameValue
        CFI V14 SameValue
        CFI V15 SameValue
        CFI PSPH Undefined
        CFI PSPL Undefined
        CFI XSPH Undefined
        CFI XSPL Undefined
        CFI ?RET Concat
        CFI ?BRET_EXT Frame(CFA_SP, 3)
        CFI ?RET_HIGH Frame(CFA_SP, 2)
        CFI ?RET_LOW Frame(CFA_SP, 1)
        CFI EndCommon cfiCommon0
        
        
        CFI Common cfiCommon1 Using cfiNames0
        CFI CodeAlign 1
        CFI DataAlign -1
        CFI ReturnAddress ?RET CODE
        CFI CFA_DOVERLAY Used
        CFI CFA_IOVERLAY Used
        CFI CFA_SP SP+-2
        CFI CFA_PSP16 PSP16+0
        CFI CFA_XSP16 XSP16+0
        CFI `PSW.CY` SameValue
        CFI `B.BR0` SameValue
        CFI `B.BR1` SameValue
        CFI `B.BR2` SameValue
        CFI `B.BR3` SameValue
        CFI `B.BR4` SameValue
        CFI `B.BR5` SameValue
        CFI `B.BR6` SameValue
        CFI `B.BR7` SameValue
        CFI `VB.BR8` SameValue
        CFI `VB.BR9` SameValue
        CFI `VB.BR10` SameValue
        CFI `VB.BR11` SameValue
        CFI `VB.BR12` SameValue
        CFI `VB.BR13` SameValue
        CFI `VB.BR14` SameValue
        CFI `VB.BR15` SameValue
        CFI VB SameValue
        CFI B SameValue
        CFI A SameValue
        CFI PSW SameValue
        CFI DPL0 SameValue
        CFI DPH0 SameValue
        CFI R0 SameValue
        CFI R1 SameValue
        CFI R2 SameValue
        CFI R3 SameValue
        CFI R4 SameValue
        CFI R5 SameValue
        CFI R6 SameValue
        CFI R7 SameValue
        CFI V0 SameValue
        CFI V1 SameValue
        CFI V2 SameValue
        CFI V3 SameValue
        CFI V4 SameValue
        CFI V5 SameValue
        CFI V6 SameValue
        CFI V7 SameValue
        CFI V8 SameValue
        CFI V9 SameValue
        CFI V10 SameValue
        CFI V11 SameValue
        CFI V12 SameValue
        CFI V13 SameValue
        CFI V14 SameValue
        CFI V15 SameValue
        CFI PSPH Undefined
        CFI PSPL Undefined
        CFI XSPH Undefined
        CFI XSPL Undefined
        CFI ?RET Concat
        CFI ?BRET_EXT SameValue
        CFI ?RET_HIGH Frame(CFA_SP, 2)
        CFI ?RET_LOW Frame(CFA_SP, 1)
        CFI EndCommon cfiCommon1
        
osal_mem_alloc      SYMBOL "osal_mem_alloc"
osal_mem_free       SYMBOL "osal_mem_free"
osal_msg_allocate   SYMBOL "osal_msg_allocate"
osal_msg_send       SYMBOL "osal_msg_send"
aps_FindGroupForEndpoint SYMBOL "aps_FindGroupForEndpoint"
osal_memcpy         SYMBOL "osal_memcpy"
NLME_GetShortAddr   SYMBOL "NLME_GetShortAddr"
RTG_CheckRtStatus   SYMBOL "RTG_CheckRtStatus"
NLME_IsAddressBroadcast SYMBOL "NLME_IsAddressBroadcast"
sAddrExtCpy         SYMBOL "sAddrExtCpy"
APSDE_DataReq       SYMBOL "APSDE_DataReq"
RTG_AddSrcRtgEntry_Guaranteed SYMBOL "RTG_AddSrcRtgEntry_Guaranteed"
APSDE_DataReqMTU    SYMBOL "APSDE_DataReqMTU"
??APSDE_DataReq?relay SYMBOL "?relay", APSDE_DataReq
??APSDE_DataReqMTU?relay SYMBOL "?relay", APSDE_DataReqMTU
??NLME_GetShortAddr?relay SYMBOL "?relay", NLME_GetShortAddr
??NLME_IsAddressBroadcast?relay SYMBOL "?relay", NLME_IsAddressBroadcast
??RTG_AddSrcRtgEntry_Guaranteed?relay SYMBOL "?relay", RTG_AddSrcRtgEntry_Guaranteed
??RTG_CheckRtStatus?relay SYMBOL "?relay", RTG_CheckRtStatus
??aps_FindGroupForEndpoint?relay SYMBOL "?relay", aps_FindGroupForEndpoint
??osal_mem_alloc?relay SYMBOL "?relay", osal_mem_alloc
??osal_mem_free?relay SYMBOL "?relay", osal_mem_free
??osal_memcpy?relay SYMBOL "?relay", osal_memcpy
??osal_msg_allocate?relay SYMBOL "?relay", osal_msg_allocate
??osal_msg_send?relay SYMBOL "?relay", osal_msg_send
??sAddrExtCpy?relay SYMBOL "?relay", sAddrExtCpy
AF_DataRequest      SYMBOL "AF_DataRequest"
??AF_DataRequest?relay SYMBOL "?relay", AF_DataRequest
AF_DataRequestSrcRtg SYMBOL "AF_DataRequestSrcRtg"
??AF_DataRequestSrcRtg?relay SYMBOL "?relay", AF_DataRequestSrcRtg
afAPSF_ConfigGet    SYMBOL "afAPSF_ConfigGet"
??afAPSF_ConfigGet?relay SYMBOL "?relay", afAPSF_ConfigGet
afAPSF_ConfigSet    SYMBOL "afAPSF_ConfigSet"
??afAPSF_ConfigSet?relay SYMBOL "?relay", afAPSF_ConfigSet
afCopyAddress       SYMBOL "afCopyAddress"
??afCopyAddress?relay SYMBOL "?relay", afCopyAddress
afDataConfirm       SYMBOL "afDataConfirm"
??afDataConfirm?relay SYMBOL "?relay", afDataConfirm
afDataReqMTU        SYMBOL "afDataReqMTU"
??afDataReqMTU?relay SYMBOL "?relay", afDataReqMTU
afDelete            SYMBOL "afDelete"
??afDelete?relay    SYMBOL "?relay", afDelete
afEndPoints         SYMBOL "afEndPoints"
??afEndPoints?relay SYMBOL "?relay", afEndPoints
afFindEndPointDesc  SYMBOL "afFindEndPointDesc"
??afFindEndPointDesc?relay SYMBOL "?relay", afFindEndPointDesc
afFindSimpleDesc    SYMBOL "afFindSimpleDesc"
??afFindSimpleDesc?relay SYMBOL "?relay", afFindSimpleDesc
afGetMatch          SYMBOL "afGetMatch"
??afGetMatch?relay  SYMBOL "?relay", afGetMatch
afIncomingData      SYMBOL "afIncomingData"
??afIncomingData?relay SYMBOL "?relay", afIncomingData
afNumEndPoints      SYMBOL "afNumEndPoints"
??afNumEndPoints?relay SYMBOL "?relay", afNumEndPoints
afRegister          SYMBOL "afRegister"
??afRegister?relay  SYMBOL "?relay", afRegister
afRegisterExtended  SYMBOL "afRegisterExtended"
??afRegisterExtended?relay SYMBOL "?relay", afRegisterExtended
afSetMatch          SYMBOL "afSetMatch"
??afSetMatch?relay  SYMBOL "?relay", afSetMatch

        EXTERN osal_mem_alloc
        FUNCTION osal_mem_alloc,0202H
        ARGFRAME ISTACK, 0, STACK
        ARGFRAME PSTACK, 0, STACK
        ARGFRAME XSTACK, 12, STACK
        ARGFRAME IOVERLAY, 0, STATIC
        ARGFRAME DOVERLAY, 0, STATIC
        EXTERN osal_mem_free
        FUNCTION osal_mem_free,0202H
        ARGFRAME ISTACK, 0, STACK
        ARGFRAME PSTACK, 0, STACK
        ARGFRAME XSTACK, 54, STACK
        ARGFRAME IOVERLAY, 0, STATIC
        ARGFRAME DOVERLAY, 0, STATIC
        EXTERN osal_msg_allocate
        FUNCTION osal_msg_allocate,0202H
        ARGFRAME ISTACK, 0, STACK
        ARGFRAME PSTACK, 0, STACK
        ARGFRAME XSTACK, 25, STACK
        ARGFRAME IOVERLAY, 0, STATIC
        ARGFRAME DOVERLAY, 0, STATIC
        EXTERN osal_msg_send
        FUNCTION osal_msg_send,0202H
        ARGFRAME ISTACK, 0, STACK
        ARGFRAME PSTACK, 0, STACK
        ARGFRAME XSTACK, 25, STACK
        ARGFRAME IOVERLAY, 0, STATIC
        ARGFRAME DOVERLAY, 0, STATIC
        EXTERN aps_FindGroupForEndpoint
        FUNCTION aps_FindGroupForEndpoint,0202H
        ARGFRAME ISTACK, 0, STACK
        ARGFRAME PSTACK, 0, STACK
        ARGFRAME XSTACK, 27, STACK
        ARGFRAME IOVERLAY, 0, STATIC
        ARGFRAME DOVERLAY, 0, STATIC
        EXTERN osal_memcpy
        FUNCTION osal_memcpy,0202H
        ARGFRAME ISTACK, 0, STACK
        ARGFRAME PSTACK, 0, STACK
        ARGFRAME XSTACK, 28, STACK
        ARGFRAME IOVERLAY, 0, STATIC
        ARGFRAME DOVERLAY, 0, STATIC
        EXTERN NLME_GetShortAddr
        FUNCTION NLME_GetShortAddr,0202H
        ARGFRAME ISTACK, 0, STACK
        ARGFRAME PSTACK, 0, STACK
        ARGFRAME XSTACK, 54, STACK
        ARGFRAME IOVERLAY, 0, STATIC
        ARGFRAME DOVERLAY, 0, STATIC
        EXTERN RTG_CheckRtStatus
        FUNCTION RTG_CheckRtStatus,0202H
        ARGFRAME ISTACK, 0, STACK
        ARGFRAME PSTACK, 0, STACK
        ARGFRAME XSTACK, 54, STACK
        ARGFRAME IOVERLAY, 0, STATIC
        ARGFRAME DOVERLAY, 0, STATIC
        EXTERN NLME_IsAddressBroadcast
        FUNCTION NLME_IsAddressBroadcast,0202H
        ARGFRAME ISTACK, 0, STACK
        ARGFRAME PSTACK, 0, STACK
        ARGFRAME XSTACK, 54, STACK
        ARGFRAME IOVERLAY, 0, STATIC
        ARGFRAME DOVERLAY, 0, STATIC
        EXTERN sAddrExtCpy
        FUNCTION sAddrExtCpy,0202H
        ARGFRAME ISTACK, 0, STACK
        ARGFRAME PSTACK, 0, STACK
        ARGFRAME XSTACK, 54, STACK
        ARGFRAME IOVERLAY, 0, STATIC
        ARGFRAME DOVERLAY, 0, STATIC
        EXTERN APSDE_DataReq
        FUNCTION APSDE_DataReq,0202H
        ARGFRAME ISTACK, 0, STACK
        ARGFRAME PSTACK, 0, STACK
        ARGFRAME XSTACK, 54, STACK
        ARGFRAME IOVERLAY, 0, STATIC
        ARGFRAME DOVERLAY, 0, STATIC
        EXTERN RTG_AddSrcRtgEntry_Guaranteed
        FUNCTION RTG_AddSrcRtgEntry_Guaranteed,0202H
        ARGFRAME ISTACK, 0, STACK
        ARGFRAME PSTACK, 0, STACK
        ARGFRAME XSTACK, 20, STACK
        ARGFRAME IOVERLAY, 0, STATIC
        ARGFRAME DOVERLAY, 0, STATIC
        EXTERN APSDE_DataReqMTU
        FUNCTION APSDE_DataReqMTU,0202H
        ARGFRAME ISTACK, 0, STACK
        ARGFRAME PSTACK, 0, STACK
        ARGFRAME XSTACK, 9, STACK
        ARGFRAME IOVERLAY, 0, STATIC
        ARGFRAME DOVERLAY, 0, STATIC
        EXTERN ??APSDE_DataReq?relay
        FUNCTION ??APSDE_DataReq?relay,00H
        EXTERN ??APSDE_DataReqMTU?relay
        FUNCTION ??APSDE_DataReqMTU?relay,00H
        EXTERN ??NLME_GetShortAddr?relay
        FUNCTION ??NLME_GetShortAddr?relay,00H
        EXTERN ??NLME_IsAddressBroadcast?relay
        FUNCTION ??NLME_IsAddressBroadcast?relay,00H
        EXTERN ??RTG_AddSrcRtgEntry_Guaranteed?relay
        FUNCTION ??RTG_AddSrcRtgEntry_Guaranteed?relay,00H
        EXTERN ??RTG_CheckRtStatus?relay
        FUNCTION ??RTG_CheckRtStatus?relay,00H
        EXTERN ??aps_FindGroupForEndpoint?relay
        FUNCTION ??aps_FindGroupForEndpoint?relay,00H
        EXTERN ??osal_mem_alloc?relay
        FUNCTION ??osal_mem_alloc?relay,00H
        EXTERN ??osal_mem_free?relay
        FUNCTION ??osal_mem_free?relay,00H
        EXTERN ??osal_memcpy?relay
        FUNCTION ??osal_memcpy?relay,00H
        EXTERN ??osal_msg_allocate?relay
        FUNCTION ??osal_msg_allocate?relay,00H
        EXTERN ??osal_msg_send?relay
        FUNCTION ??osal_msg_send?relay,00H
        EXTERN ??sAddrExtCpy?relay
        FUNCTION ??sAddrExtCpy?relay,00H
        EXTERN apsfSendFragmented

// C:\Texas Instruments\ZStack-CC2530-2.5.1a\Components\stack\af\AF.c
//    1 /**************************************************************************************************
//    2   Filename:       AF.c
//    3   Revised:        $Date: 2011-11-18 16:03:29 -0800 (Fri, 18 Nov 2011) $
//    4   Revision:       $Revision: 28423 $
//    5 
//    6   Description:    Application Framework - Device Description helper functions
//    7 
//    8 
//    9   Copyright 2004-2011 Texas Instruments Incorporated. All rights reserved.
//   10 
//   11   IMPORTANT: Your use of this Software is limited to those specific rights
//   12   granted under the terms of a software license agreement between the user
//   13   who downloaded the software, his/her employer (which must be your employer)
//   14   and Texas Instruments Incorporated (the "License").  You may not use this
//   15   Software unless you agree to abide by the terms of the License. The License
//   16   limits your use, and you acknowledge, that the Software may not be modified,
//   17   copied or distributed unless embedded on a Texas Instruments microcontroller
//   18   or used solely and exclusively in conjunction with a Texas Instruments radio
//   19   frequency transceiver, which is integrated into your product.  Other than for
//   20   the foregoing purpose, you may not use, reproduce, copy, prepare derivative
//   21   works of, modify, distribute, perform, display or sell this Software and/or
//   22   its documentation for any purpose.
//   23 
//   24   YOU FURTHER ACKNOWLEDGE AND AGREE THAT THE SOFTWARE AND DOCUMENTATION ARE
//   25   PROVIDED “AS IS” WITHOUT WARRANTY OF ANY KIND, EITHER EXPRESS OR IMPLIED,
//   26   INCLUDING WITHOUT LIMITATION, ANY WARRANTY OF MERCHANTABILITY, TITLE,
//   27   NON-INFRINGEMENT AND FITNESS FOR A PARTICULAR PURPOSE. IN NO EVENT SHALL
//   28   TEXAS INSTRUMENTS OR ITS LICENSORS BE LIABLE OR OBLIGATED UNDER CONTRACT,
//   29   NEGLIGENCE, STRICT LIABILITY, CONTRIBUTION, BREACH OF WARRANTY, OR OTHER
//   30   LEGAL EQUITABLE THEORY ANY DIRECT OR INDIRECT DAMAGES OR EXPENSES
//   31   INCLUDING BUT NOT LIMITED TO ANY INCIDENTAL, SPECIAL, INDIRECT, PUNITIVE
//   32   OR CONSEQUENTIAL DAMAGES, LOST PROFITS OR LOST DATA, COST OF PROCUREMENT
//   33   OF SUBSTITUTE GOODS, TECHNOLOGY, SERVICES, OR ANY CLAIMS BY THIRD PARTIES
//   34   (INCLUDING BUT NOT LIMITED TO ANY DEFENSE THEREOF), OR OTHER SIMILAR COSTS.
//   35 
//   36   Should you have any questions regarding your right to use this Software,
//   37   contact Texas Instruments Incorporated at www.TI.com.
//   38 **************************************************************************************************/
//   39 
//   40 /*********************************************************************
//   41  * INCLUDES
//   42  */
//   43 
//   44 #include "OSAL.h"
//   45 #include "AF.h"
//   46 #include "nwk_globals.h"
//   47 #include "nwk_util.h"
//   48 #include "aps_groups.h"
//   49 #include "ZDProfile.h"
//   50 #include "aps_frag.h"
//   51 #include "rtg.h"
//   52 
//   53 #if defined ( MT_AF_CB_FUNC )
//   54   #include "MT_AF.h"
//   55 #endif
//   56 
//   57 #if defined ( INTER_PAN )
//   58   #include "stub_aps.h"
//   59 #endif
//   60 
//   61 /*********************************************************************
//   62  * MACROS
//   63  */
//   64 
//   65 /*********************************************************************
//   66  * @fn      afSend
//   67  *
//   68  * @brief   Helper macro for V1 API to invoke V2 API.
//   69  *
//   70  * input parameters
//   71  *
//   72  * @param  *dstAddr - Full ZB destination address: Nwk Addr + End Point.
//   73  * @param   srcEP - Origination (i.e. respond to or ack to) End Point.
//   74  * @param   cID - A valid cluster ID as specified by the Profile.
//   75  * @param   len - Number of bytes of data pointed to by next param.
//   76  * @param  *buf - A pointer to the data bytes to send.
//   77  * @param   options - Valid bit mask of AF Tx Options as defined in AF.h.
//   78  * @param  *transID - A pointer to a byte which can be modified and which will
//   79  *                    be used as the transaction sequence number of the msg.
//   80  *
//   81  * output parameters
//   82  *
//   83  * @param  *transID - Incremented by one if the return value is success.
//   84  *
//   85  * @return  afStatus_t - See previous definition of afStatus_... types.
//   86  */
//   87 #define afSend( dstAddr, srcEP, cID, len, buf, transID, options, radius ) \ 
//   88         AF_DataRequest( (dstAddr), afFindEndPointDesc( (srcEP) ), \ 
//   89                           (cID), (len), (buf), (transID), (options), (radius) )
//   90 
//   91 /*********************************************************************
//   92  * GLOBAL VARIABLES
//   93  */
//   94 

        RSEG XDATA_Z:XDATA:NOROOT(0)
        DATA16
//   95 epList_t *epList;
epList:
        DS 2
        REQUIRE __INIT_XDATA_Z
//   96 
//   97 /*********************************************************************
//   98  * LOCAL FUNCTIONS
//   99  */
//  100 
//  101 static void afBuildMSGIncoming( aps_FrameFormat_t *aff, endPointDesc_t *epDesc,
//  102                 zAddrType_t *SrcAddress, uint16 SrcPanId, NLDE_Signal_t *sig,
//  103                 uint8 nwkSeqNum, uint8 SecurityUse, uint32 timestamp );
//  104 
//  105 static epList_t *afFindEndPointDescList( uint8 EndPoint );
//  106 
//  107 static pDescCB afGetDescCB( endPointDesc_t *epDesc );
//  108 
//  109 /*********************************************************************
//  110  * PUBLIC FUNCTIONS
//  111  */
//  112 
//  113 /*********************************************************************
//  114  * @fn      afInit
//  115  *
//  116  * @brief   Initialization function for the AF.
//  117  *
//  118  * @param   none
//  119  *
//  120  * @return  none
//  121 void afInit( void )
//  122 {
//  123 }
//  124  */
//  125 
//  126 /*********************************************************************
//  127  * @fn      afRegisterExtended
//  128  *
//  129  * @brief   Register an Application's EndPoint description.
//  130  *
//  131  * @param   epDesc - pointer to the Application's endpoint descriptor.
//  132  * @param   descFn - pointer to descriptor callback function
//  133  *
//  134  * NOTE:  The memory that epDesc is pointing to must exist after this call.
//  135  *
//  136  * @return  Pointer to epList_t on success, NULL otherwise.
//  137  */

        RSEG BANKED_CODE:CODE:NOROOT(0)
//  138 epList_t *afRegisterExtended( endPointDesc_t *epDesc, pDescCB descFn )
afRegisterExtended:
        CFI Block cfiBlock0 Using cfiCommon0
        CFI Function afRegisterExtended
        CODE
//  139 {
        FUNCALL afRegisterExtended, osal_mem_alloc
        LOCFRAME ISTACK, 0, STACK
        LOCFRAME PSTACK, 0, STACK
        LOCFRAME XSTACK, 12, STACK
        LOCFRAME IOVERLAY, 0, STATIC
        LOCFRAME DOVERLAY, 0, STATIC
        ARGFRAME ISTACK, 0, STACK
        ARGFRAME PSTACK, 0, STACK
        ARGFRAME XSTACK, 12, STACK
        ARGFRAME IOVERLAY, 0, STATIC
        ARGFRAME DOVERLAY, 0, STATIC
        MOV     A,#-0xc
        LCALL   ?BANKED_ENTER_XDATA
        CFI DPH0 load(1, XDATA, add(CFA_XSP16, literal(-1)))
        CFI DPL0 load(1, XDATA, add(CFA_XSP16, literal(-2)))
        CFI ?BRET_EXT load(1, XDATA, add(CFA_XSP16, literal(-3)))
        CFI ?RET_HIGH load(1, XDATA, add(CFA_XSP16, literal(-4)))
        CFI ?RET_LOW load(1, XDATA, add(CFA_XSP16, literal(-5)))
        CFI R7 load(1, XDATA, add(CFA_XSP16, literal(-6)))
        CFI V3 load(1, XDATA, add(CFA_XSP16, literal(-7)))
        CFI V2 load(1, XDATA, add(CFA_XSP16, literal(-8)))
        CFI V1 load(1, XDATA, add(CFA_XSP16, literal(-9)))
        CFI V0 load(1, XDATA, add(CFA_XSP16, literal(-10)))
        CFI VB load(1, XDATA, add(CFA_XSP16, literal(-11)))
        CFI R6 load(1, XDATA, add(CFA_XSP16, literal(-12)))
        CFI CFA_SP SP+0
        CFI CFA_XSP16 add(XSP16, 12)
        ; Saved register size: 12
        ; Auto size: 0
        MOV     A,R2
        MOV     R6,A
        MOV     A,R3
        MOV     R7,A
        MOV     ?V0 + 0,R4
        MOV     ?V0 + 1,R5
//  140   epList_t *ep = osal_mem_alloc(sizeof(epList_t));
        ; Setup parameters for call to function osal_mem_alloc
        MOV     R2,#0x9
        MOV     R3,#0x0
        LCALL   ??osal_mem_alloc?relay
//  141 
//  142   if (ep != NULL)
        MOV     A,R2
        ORL     A,R3
        JZ      ??afRegisterExtended_0
//  143   {
//  144     ep->nextDesc = epList;
        MOV     DPTR,#epList
        LCALL   ??Subroutine37_0 & 0xFFFF
??CrossCallReturnLabel_67:
        MOV     DPL,R2
        MOV     DPH,R3
        LCALL   ??Subroutine36_0 & 0xFFFF
//  145     epList = ep;
??CrossCallReturnLabel_57:
        MOV     DPTR,#epList
        MOV     A,R2
        MOVX    @DPTR,A
        INC     DPTR
        MOV     A,R3
        LCALL   ?Subroutine25 & 0xFFFF
//  146     ep->epDesc = epDesc;
//  147     ep->pfnDescCB = descFn;
//  148     ep->apsfCfg.frameDelay = APSF_DEFAULT_INTERFRAME_DELAY;
//  149     ep->apsfCfg.windowSize = APSF_DEFAULT_WINDOW_SIZE;
//  150     ep->flags = eEP_AllowMatch;  // Default to allow Match Descriptor.
//  151   }
??CrossCallReturnLabel_40:
        MOV     A,R6
        MOVX    @DPTR,A
        INC     DPTR
        MOV     A,R7
        LCALL   ?Subroutine24 & 0xFFFF
??CrossCallReturnLabel_38:
        MOV     A,?V0 + 0
        MOVX    @DPTR,A
        INC     DPTR
        MOV     A,?V0 + 1
        LCALL   ?Subroutine24 & 0xFFFF
??CrossCallReturnLabel_39:
        INC     DPTR
        INC     DPTR
        MOV     A,#0x32
        LCALL   ?Subroutine22 & 0xFFFF
??CrossCallReturnLabel_33:
        MOV     A,#0x1
        LCALL   ?Subroutine22 & 0xFFFF
??CrossCallReturnLabel_34:
        INC     DPTR
        MOVX    @DPTR,A
//  152 
//  153   return ep;
??afRegisterExtended_0:
        LJMP    ?Subroutine0 & 0xFFFF
        CFI EndBlock cfiBlock0
//  154 }

        RSEG BANKED_CODE:CODE:NOROOT(0)
?Subroutine24:
        CFI Block cfiCond1 Using cfiCommon0
        CFI NoFunction
        CFI Conditional ??CrossCallReturnLabel_38
        CFI R6 load(1, XDATA, add(CFA_XSP16, literal(-12)))
        CFI VB load(1, XDATA, add(CFA_XSP16, literal(-11)))
        CFI V0 load(1, XDATA, add(CFA_XSP16, literal(-10)))
        CFI V1 load(1, XDATA, add(CFA_XSP16, literal(-9)))
        CFI V2 load(1, XDATA, add(CFA_XSP16, literal(-8)))
        CFI V3 load(1, XDATA, add(CFA_XSP16, literal(-7)))
        CFI R7 load(1, XDATA, add(CFA_XSP16, literal(-6)))
        CFI ?RET_LOW load(1, XDATA, add(CFA_XSP16, literal(-5)))
        CFI ?RET_HIGH load(1, XDATA, add(CFA_XSP16, literal(-4)))
        CFI ?BRET_EXT load(1, XDATA, add(CFA_XSP16, literal(-3)))
        CFI DPL0 load(1, XDATA, add(CFA_XSP16, literal(-2)))
        CFI DPH0 load(1, XDATA, add(CFA_XSP16, literal(-1)))
        CFI CFA_SP SP+0
        CFI CFA_XSP16 add(XSP16, 12)
        CFI Block cfiCond2 Using cfiCommon0
        CFI (cfiCond2) NoFunction
        CFI (cfiCond2) Conditional ??CrossCallReturnLabel_39
        CFI (cfiCond2) R6 load(1, XDATA, add(CFA_XSP16, literal(-12)))
        CFI (cfiCond2) VB load(1, XDATA, add(CFA_XSP16, literal(-11)))
        CFI (cfiCond2) V0 load(1, XDATA, add(CFA_XSP16, literal(-10)))
        CFI (cfiCond2) V1 load(1, XDATA, add(CFA_XSP16, literal(-9)))
        CFI (cfiCond2) V2 load(1, XDATA, add(CFA_XSP16, literal(-8)))
        CFI (cfiCond2) V3 load(1, XDATA, add(CFA_XSP16, literal(-7)))
        CFI (cfiCond2) R7 load(1, XDATA, add(CFA_XSP16, literal(-6)))
        CFI (cfiCond2) ?RET_LOW load(1, XDATA, add(CFA_XSP16, literal(-5)))
        CFI (cfiCond2) ?RET_HIGH load(1, XDATA, add(CFA_XSP16, literal(-4)))
        CFI (cfiCond2) ?BRET_EXT load(1, XDATA, add(CFA_XSP16, literal(-3)))
        CFI (cfiCond2) DPL0 load(1, XDATA, add(CFA_XSP16, literal(-2)))
        CFI (cfiCond2) DPH0 load(1, XDATA, add(CFA_XSP16, literal(-1)))
        CFI (cfiCond2) CFA_SP SP+0
        CFI (cfiCond2) CFA_XSP16 add(XSP16, 12)
        CFI Block cfiPicker3 Using cfiCommon1
        CFI (cfiPicker3) NoFunction
        CFI (cfiPicker3) Picker
        LCALL   ?Subroutine31 & 0xFFFF
??CrossCallReturnLabel_51:
        RET
        CFI EndBlock cfiCond1
        CFI EndBlock cfiCond2
        CFI EndBlock cfiPicker3

        RSEG BANKED_CODE:CODE:NOROOT(0)
?Subroutine31:
        CFI Block cfiCond4 Using cfiCommon0
        CFI NoFunction
        CFI Conditional ??CrossCallReturnLabel_51, ??CrossCallReturnLabel_38
        CFI R6 load(1, XDATA, add(CFA_XSP16, literal(-12)))
        CFI VB load(1, XDATA, add(CFA_XSP16, literal(-11)))
        CFI V0 load(1, XDATA, add(CFA_XSP16, literal(-10)))
        CFI V1 load(1, XDATA, add(CFA_XSP16, literal(-9)))
        CFI V2 load(1, XDATA, add(CFA_XSP16, literal(-8)))
        CFI V3 load(1, XDATA, add(CFA_XSP16, literal(-7)))
        CFI R7 load(1, XDATA, add(CFA_XSP16, literal(-6)))
        CFI ?RET_LOW load(1, XDATA, add(CFA_XSP16, literal(-5)))
        CFI ?RET_HIGH load(1, XDATA, add(CFA_XSP16, literal(-4)))
        CFI ?BRET_EXT load(1, XDATA, add(CFA_XSP16, literal(-3)))
        CFI DPL0 load(1, XDATA, add(CFA_XSP16, literal(-2)))
        CFI DPH0 load(1, XDATA, add(CFA_XSP16, literal(-1)))
        CFI CFA_SP SP+0
        CFI CFA_XSP16 add(XSP16, 12)
        CFI Block cfiCond5 Using cfiCommon0
        CFI (cfiCond5) NoFunction
        CFI (cfiCond5) Conditional ??CrossCallReturnLabel_51, ??CrossCallReturnLabel_39
        CFI (cfiCond5) R6 load(1, XDATA, add(CFA_XSP16, literal(-12)))
        CFI (cfiCond5) VB load(1, XDATA, add(CFA_XSP16, literal(-11)))
        CFI (cfiCond5) V0 load(1, XDATA, add(CFA_XSP16, literal(-10)))
        CFI (cfiCond5) V1 load(1, XDATA, add(CFA_XSP16, literal(-9)))
        CFI (cfiCond5) V2 load(1, XDATA, add(CFA_XSP16, literal(-8)))
        CFI (cfiCond5) V3 load(1, XDATA, add(CFA_XSP16, literal(-7)))
        CFI (cfiCond5) R7 load(1, XDATA, add(CFA_XSP16, literal(-6)))
        CFI (cfiCond5) ?RET_LOW load(1, XDATA, add(CFA_XSP16, literal(-5)))
        CFI (cfiCond5) ?RET_HIGH load(1, XDATA, add(CFA_XSP16, literal(-4)))
        CFI (cfiCond5) ?BRET_EXT load(1, XDATA, add(CFA_XSP16, literal(-3)))
        CFI (cfiCond5) DPL0 load(1, XDATA, add(CFA_XSP16, literal(-2)))
        CFI (cfiCond5) DPH0 load(1, XDATA, add(CFA_XSP16, literal(-1)))
        CFI (cfiCond5) CFA_SP SP+0
        CFI (cfiCond5) CFA_XSP16 add(XSP16, 12)
        CFI Block cfiCond6 Using cfiCommon0
        CFI (cfiCond6) NoFunction
        CFI (cfiCond6) Conditional ??CrossCallReturnLabel_52, ??CrossCallReturnLabel_33
        CFI (cfiCond6) R6 load(1, XDATA, add(CFA_XSP16, literal(-12)))
        CFI (cfiCond6) VB load(1, XDATA, add(CFA_XSP16, literal(-11)))
        CFI (cfiCond6) V0 load(1, XDATA, add(CFA_XSP16, literal(-10)))
        CFI (cfiCond6) V1 load(1, XDATA, add(CFA_XSP16, literal(-9)))
        CFI (cfiCond6) V2 load(1, XDATA, add(CFA_XSP16, literal(-8)))
        CFI (cfiCond6) V3 load(1, XDATA, add(CFA_XSP16, literal(-7)))
        CFI (cfiCond6) R7 load(1, XDATA, add(CFA_XSP16, literal(-6)))
        CFI (cfiCond6) ?RET_LOW load(1, XDATA, add(CFA_XSP16, literal(-5)))
        CFI (cfiCond6) ?RET_HIGH load(1, XDATA, add(CFA_XSP16, literal(-4)))
        CFI (cfiCond6) ?BRET_EXT load(1, XDATA, add(CFA_XSP16, literal(-3)))
        CFI (cfiCond6) DPL0 load(1, XDATA, add(CFA_XSP16, literal(-2)))
        CFI (cfiCond6) DPH0 load(1, XDATA, add(CFA_XSP16, literal(-1)))
        CFI (cfiCond6) CFA_SP SP+0
        CFI (cfiCond6) CFA_XSP16 add(XSP16, 12)
        CFI Block cfiCond7 Using cfiCommon0
        CFI (cfiCond7) NoFunction
        CFI (cfiCond7) Conditional ??CrossCallReturnLabel_52, ??CrossCallReturnLabel_34
        CFI (cfiCond7) R6 load(1, XDATA, add(CFA_XSP16, literal(-12)))
        CFI (cfiCond7) VB load(1, XDATA, add(CFA_XSP16, literal(-11)))
        CFI (cfiCond7) V0 load(1, XDATA, add(CFA_XSP16, literal(-10)))
        CFI (cfiCond7) V1 load(1, XDATA, add(CFA_XSP16, literal(-9)))
        CFI (cfiCond7) V2 load(1, XDATA, add(CFA_XSP16, literal(-8)))
        CFI (cfiCond7) V3 load(1, XDATA, add(CFA_XSP16, literal(-7)))
        CFI (cfiCond7) R7 load(1, XDATA, add(CFA_XSP16, literal(-6)))
        CFI (cfiCond7) ?RET_LOW load(1, XDATA, add(CFA_XSP16, literal(-5)))
        CFI (cfiCond7) ?RET_HIGH load(1, XDATA, add(CFA_XSP16, literal(-4)))
        CFI (cfiCond7) ?BRET_EXT load(1, XDATA, add(CFA_XSP16, literal(-3)))
        CFI (cfiCond7) DPL0 load(1, XDATA, add(CFA_XSP16, literal(-2)))
        CFI (cfiCond7) DPH0 load(1, XDATA, add(CFA_XSP16, literal(-1)))
        CFI (cfiCond7) CFA_SP SP+0
        CFI (cfiCond7) CFA_XSP16 add(XSP16, 12)
        CFI Block cfiPicker8 Using cfiCommon1
        CFI (cfiPicker8) NoFunction
        CFI (cfiPicker8) Picker
        MOVX    @DPTR,A
        MOV     DPL,R2
        MOV     DPH,R3
        INC     DPTR
        INC     DPTR
        INC     DPTR
        INC     DPTR
        RET
        CFI EndBlock cfiCond4
        CFI EndBlock cfiCond5
        CFI EndBlock cfiCond6
        CFI EndBlock cfiCond7
        CFI EndBlock cfiPicker8

        RSEG BANKED_CODE:CODE:NOROOT(0)
?Subroutine22:
        CFI Block cfiCond9 Using cfiCommon0
        CFI NoFunction
        CFI Conditional ??CrossCallReturnLabel_33
        CFI R6 load(1, XDATA, add(CFA_XSP16, literal(-12)))
        CFI VB load(1, XDATA, add(CFA_XSP16, literal(-11)))
        CFI V0 load(1, XDATA, add(CFA_XSP16, literal(-10)))
        CFI V1 load(1, XDATA, add(CFA_XSP16, literal(-9)))
        CFI V2 load(1, XDATA, add(CFA_XSP16, literal(-8)))
        CFI V3 load(1, XDATA, add(CFA_XSP16, literal(-7)))
        CFI R7 load(1, XDATA, add(CFA_XSP16, literal(-6)))
        CFI ?RET_LOW load(1, XDATA, add(CFA_XSP16, literal(-5)))
        CFI ?RET_HIGH load(1, XDATA, add(CFA_XSP16, literal(-4)))
        CFI ?BRET_EXT load(1, XDATA, add(CFA_XSP16, literal(-3)))
        CFI DPL0 load(1, XDATA, add(CFA_XSP16, literal(-2)))
        CFI DPH0 load(1, XDATA, add(CFA_XSP16, literal(-1)))
        CFI CFA_SP SP+0
        CFI CFA_XSP16 add(XSP16, 12)
        CFI Block cfiCond10 Using cfiCommon0
        CFI (cfiCond10) NoFunction
        CFI (cfiCond10) Conditional ??CrossCallReturnLabel_34
        CFI (cfiCond10) R6 load(1, XDATA, add(CFA_XSP16, literal(-12)))
        CFI (cfiCond10) VB load(1, XDATA, add(CFA_XSP16, literal(-11)))
        CFI (cfiCond10) V0 load(1, XDATA, add(CFA_XSP16, literal(-10)))
        CFI (cfiCond10) V1 load(1, XDATA, add(CFA_XSP16, literal(-9)))
        CFI (cfiCond10) V2 load(1, XDATA, add(CFA_XSP16, literal(-8)))
        CFI (cfiCond10) V3 load(1, XDATA, add(CFA_XSP16, literal(-7)))
        CFI (cfiCond10) R7 load(1, XDATA, add(CFA_XSP16, literal(-6)))
        CFI (cfiCond10) ?RET_LOW load(1, XDATA, add(CFA_XSP16, literal(-5)))
        CFI (cfiCond10) ?RET_HIGH load(1, XDATA, add(CFA_XSP16, literal(-4)))
        CFI (cfiCond10) ?BRET_EXT load(1, XDATA, add(CFA_XSP16, literal(-3)))
        CFI (cfiCond10) DPL0 load(1, XDATA, add(CFA_XSP16, literal(-2)))
        CFI (cfiCond10) DPH0 load(1, XDATA, add(CFA_XSP16, literal(-1)))
        CFI (cfiCond10) CFA_SP SP+0
        CFI (cfiCond10) CFA_XSP16 add(XSP16, 12)
        CFI Block cfiPicker11 Using cfiCommon1
        CFI (cfiPicker11) NoFunction
        CFI (cfiPicker11) Picker
        LCALL   ?Subroutine31 & 0xFFFF
??CrossCallReturnLabel_52:
        INC     DPTR
        INC     DPTR
        INC     DPTR
        RET
        CFI EndBlock cfiCond9
        CFI EndBlock cfiCond10
        CFI EndBlock cfiPicker11
//  155 
//  156 /*********************************************************************
//  157  * @fn      afRegister
//  158  *
//  159  * @brief   Register an Application's EndPoint description.
//  160  *
//  161  * @param   epDesc - pointer to the Application's endpoint descriptor.
//  162  *
//  163  * NOTE:  The memory that epDesc is pointing to must exist after this call.
//  164  *
//  165  * @return  afStatus_SUCCESS - Registered
//  166  *          afStatus_MEM_FAIL - not enough memory to add descriptor
//  167  *          afStatus_INVALID_PARAMETER - duplicate endpoint
//  168  */

        RSEG BANKED_CODE:CODE:NOROOT(0)
//  169 afStatus_t afRegister( endPointDesc_t *epDesc )
afRegister:
        CFI Block cfiBlock12 Using cfiCommon0
        CFI Function afRegister
        CODE
//  170 {
        FUNCALL afRegister, afFindEndPointDescList
        LOCFRAME ISTACK, 0, STACK
        LOCFRAME PSTACK, 0, STACK
        LOCFRAME XSTACK, 10, STACK
        LOCFRAME IOVERLAY, 0, STATIC
        LOCFRAME DOVERLAY, 0, STATIC
        ARGFRAME ISTACK, 0, STACK
        ARGFRAME PSTACK, 0, STACK
        ARGFRAME XSTACK, 10, STACK
        ARGFRAME IOVERLAY, 0, STATIC
        ARGFRAME DOVERLAY, 0, STATIC
        FUNCALL afRegister, afRegisterExtended
        LOCFRAME ISTACK, 0, STACK
        LOCFRAME PSTACK, 0, STACK
        LOCFRAME XSTACK, 10, STACK
        LOCFRAME IOVERLAY, 0, STATIC
        LOCFRAME DOVERLAY, 0, STATIC
        ARGFRAME ISTACK, 0, STACK
        ARGFRAME PSTACK, 0, STACK
        ARGFRAME XSTACK, 10, STACK
        ARGFRAME IOVERLAY, 0, STATIC
        ARGFRAME DOVERLAY, 0, STATIC
        MOV     A,#-0xa
        LCALL   ?BANKED_ENTER_XDATA
        CFI DPH0 load(1, XDATA, add(CFA_XSP16, literal(-1)))
        CFI DPL0 load(1, XDATA, add(CFA_XSP16, literal(-2)))
        CFI ?BRET_EXT load(1, XDATA, add(CFA_XSP16, literal(-3)))
        CFI ?RET_HIGH load(1, XDATA, add(CFA_XSP16, literal(-4)))
        CFI ?RET_LOW load(1, XDATA, add(CFA_XSP16, literal(-5)))
        CFI R7 load(1, XDATA, add(CFA_XSP16, literal(-6)))
        CFI V1 load(1, XDATA, add(CFA_XSP16, literal(-7)))
        CFI V0 load(1, XDATA, add(CFA_XSP16, literal(-8)))
        CFI VB load(1, XDATA, add(CFA_XSP16, literal(-9)))
        CFI R6 load(1, XDATA, add(CFA_XSP16, literal(-10)))
        CFI CFA_SP SP+0
        CFI CFA_XSP16 add(XSP16, 10)
        ; Saved register size: 10
        ; Auto size: 0
        MOV     A,R2
        MOV     R6,A
        MOV     A,R3
        MOV     R7,A
//  171   if (afFindEndPointDescList(epDesc->endPoint))  // Look for duplicate endpoint.
        ; Setup parameters for call to function afFindEndPointDescList
        MOV     DPL,R6
        MOV     DPH,R7
        MOVX    A,@DPTR
        MOV     R1,A
        LCALL   ??afFindEndPointDescList?relay
        MOV     ?V0 + 1,R3
        MOV     A,R2
        ORL     A,?V0 + 1
        JZ      ??afRegister_0
//  172   {
//  173     return afStatus_INVALID_PARAMETER;
        MOV     R1,#0x2
        SJMP    ??afRegister_1
//  174   }
//  175 
//  176   return ((NULL == afRegisterExtended(epDesc, NULL)) ? afStatus_MEM_FAIL : afStatus_SUCCESS);
??afRegister_0:
        ; Setup parameters for call to function afRegisterExtended
        MOV     R4,#0x0
        MOV     R5,#0x0
        MOV     A,R6
        MOV     R2,A
        MOV     A,R7
        MOV     R3,A
        LCALL   ??afRegisterExtended?relay
        MOV     ?V0 + 1,R3
        MOV     A,R2
        ORL     A,?V0 + 1
        JNZ     ??afRegister_2
        MOV     R1,#0x10
        SJMP    ??afRegister_1
??afRegister_2:
        MOV     R1,#0x0
??afRegister_1:
        LJMP    ?Subroutine1 & 0xFFFF
        CFI EndBlock cfiBlock12
//  177 }
//  178 
//  179 /*********************************************************************
//  180  * @fn      afDelete
//  181  *
//  182  * @brief   Delete an Application's EndPoint descriptor and frees the memory
//  183  *
//  184  * @param   EndPoint - Application Endpoint to delete
//  185  *
//  186  * @return  afStatus_SUCCESS - endpoint deleted
//  187  *          afStatus_INVALID_PARAMETER - endpoint not found
//  188  *          afStatus_FAILED - endpoint list empty
//  189  */

        RSEG BANKED_CODE:CODE:NOROOT(0)
//  190 afStatus_t afDelete( uint8 EndPoint )
afDelete:
        CFI Block cfiBlock13 Using cfiCommon0
        CFI Function afDelete
        CODE
//  191 {
        FUNCALL afDelete, osal_mem_free
        LOCFRAME ISTACK, 0, STACK
        LOCFRAME PSTACK, 0, STACK
        LOCFRAME XSTACK, 9, STACK
        LOCFRAME IOVERLAY, 0, STATIC
        LOCFRAME DOVERLAY, 0, STATIC
        ARGFRAME ISTACK, 0, STACK
        ARGFRAME PSTACK, 0, STACK
        ARGFRAME XSTACK, 9, STACK
        ARGFRAME IOVERLAY, 0, STATIC
        ARGFRAME DOVERLAY, 0, STATIC
        FUNCALL afDelete, osal_mem_free
        LOCFRAME ISTACK, 0, STACK
        LOCFRAME PSTACK, 0, STACK
        LOCFRAME XSTACK, 9, STACK
        LOCFRAME IOVERLAY, 0, STATIC
        LOCFRAME DOVERLAY, 0, STATIC
        ARGFRAME ISTACK, 0, STACK
        ARGFRAME PSTACK, 0, STACK
        ARGFRAME XSTACK, 9, STACK
        ARGFRAME IOVERLAY, 0, STATIC
        ARGFRAME DOVERLAY, 0, STATIC
        MOV     A,#-0x9
        LCALL   ?BANKED_ENTER_XDATA
        CFI DPH0 load(1, XDATA, add(CFA_XSP16, literal(-1)))
        CFI DPL0 load(1, XDATA, add(CFA_XSP16, literal(-2)))
        CFI ?BRET_EXT load(1, XDATA, add(CFA_XSP16, literal(-3)))
        CFI ?RET_HIGH load(1, XDATA, add(CFA_XSP16, literal(-4)))
        CFI ?RET_LOW load(1, XDATA, add(CFA_XSP16, literal(-5)))
        CFI R7 load(1, XDATA, add(CFA_XSP16, literal(-6)))
        CFI V0 load(1, XDATA, add(CFA_XSP16, literal(-7)))
        CFI VB load(1, XDATA, add(CFA_XSP16, literal(-8)))
        CFI R6 load(1, XDATA, add(CFA_XSP16, literal(-9)))
        CFI CFA_SP SP+0
        CFI CFA_XSP16 add(XSP16, 9)
        ; Saved register size: 9
        ; Auto size: 0
        MOV     A,R1
        MOV     R6,A
//  192   epList_t *epCurrent;
//  193   epList_t *epPrevious;
//  194 
//  195   if (epList != NULL)
        MOV     DPTR,#epList
        LCALL   ?Subroutine9 & 0xFFFF
??CrossCallReturnLabel_11:
        JZ      ??afDelete_0
//  196   {
//  197     epPrevious = epCurrent = epList;
        MOV     DPTR,#epList
        LCALL   ??Subroutine39_0 & 0xFFFF
??CrossCallReturnLabel_79:
        MOV     R1,A
//  198 
//  199     // first element of the list matches
//  200     if (epCurrent->epDesc->endPoint == EndPoint)
        LCALL   ?Subroutine12 & 0xFFFF
??CrossCallReturnLabel_17:
        JNZ     ??afDelete_1
//  201     {
//  202       epList = epCurrent->nextDesc;
        LCALL   ?Subroutine14 & 0xFFFF
??CrossCallReturnLabel_73:
        MOV     DPTR,#epList
        MOV     A,R0
        MOVX    @DPTR,A
        INC     DPTR
        MOV     A,R1
??afDelete_2:
        MOVX    @DPTR,A
//  203       osal_mem_free(epCurrent);
        ; Setup parameters for call to function osal_mem_free
        LCALL   ??osal_mem_free?relay
//  204 
//  205       return (afStatus_SUCCESS);
        MOV     R1,#0x0
        SJMP    ??afDelete_3
//  206     }
//  207     else
//  208     {
//  209       // search the list
//  210       for (epCurrent = epPrevious->nextDesc; epCurrent != NULL; epPrevious = epCurrent)
??afDelete_1:
        MOV     DPL,R0
        MOV     DPH,R1
        LCALL   ??Subroutine39_0 & 0xFFFF
??CrossCallReturnLabel_80:
        MOV     A,R2
        ORL     A,R3
        JNZ     ??afDelete_4
//  211       {
//  212         if (epCurrent->epDesc->endPoint == EndPoint)
//  213         {
//  214           epPrevious->nextDesc = epCurrent->nextDesc;
//  215           osal_mem_free(epCurrent);
//  216 
//  217           // delete the entry and free the memory
//  218           return (afStatus_SUCCESS);
//  219         }
//  220       }
//  221     }
//  222 
//  223     // no endpoint found
//  224     return (afStatus_INVALID_PARAMETER);
        MOV     R1,#0x2
        SJMP    ??afDelete_3
??afDelete_5:
        MOV     A,R2
        MOV     R0,A
        MOV     A,R3
        MOV     R1,A
??afDelete_4:
        LCALL   ?Subroutine12 & 0xFFFF
??CrossCallReturnLabel_18:
        JNZ     ??afDelete_5
        MOV     DPL,R2
        MOV     DPH,R3
        LCALL   ?Subroutine18 & 0xFFFF
//  225   }
??CrossCallReturnLabel_25:
        MOV     DPL,R0
        MOV     DPH,R1
        MOV     A,R4
        MOVX    @DPTR,A
        INC     DPTR
        MOV     A,R5
        SJMP    ??afDelete_2
//  226   else
//  227   {
//  228     // epList is empty
//  229     return (afStatus_FAILED);
??afDelete_0:
        MOV     R1,#0x1
        CFI EndBlock cfiBlock13
//  230   }
??afDelete_3:
        REQUIRE ?Subroutine2
        ; // Fall through to label ?Subroutine2
//  231 }

        RSEG BANKED_CODE:CODE:NOROOT(0)
?Subroutine2:
        CFI Block cfiBlock14 Using cfiCommon0
        CFI NoFunction
        CFI CFA_SP SP+0
        CFI CFA_XSP16 add(XSP16, 9)
        CFI VB load(1, XDATA, add(CFA_XSP16, literal(-8)))
        CFI DPL0 load(1, XDATA, add(CFA_XSP16, literal(-2)))
        CFI DPH0 load(1, XDATA, add(CFA_XSP16, literal(-1)))
        CFI R6 load(1, XDATA, add(CFA_XSP16, literal(-9)))
        CFI R7 load(1, XDATA, add(CFA_XSP16, literal(-6)))
        CFI V0 load(1, XDATA, add(CFA_XSP16, literal(-7)))
        CFI ?BRET_EXT load(1, XDATA, add(CFA_XSP16, literal(-3)))
        CFI ?RET_HIGH load(1, XDATA, add(CFA_XSP16, literal(-4)))
        CFI ?RET_LOW load(1, XDATA, add(CFA_XSP16, literal(-5)))
        MOV     R7,#0x1
        LJMP    ?BANKED_LEAVE_XDATA
        CFI EndBlock cfiBlock14

        RSEG BANKED_CODE:CODE:NOROOT(0)
?Subroutine12:
        CFI Block cfiCond15 Using cfiCommon0
        CFI NoFunction
        CFI Conditional ??CrossCallReturnLabel_17
        CFI R6 load(1, XDATA, add(CFA_XSP16, literal(-9)))
        CFI VB load(1, XDATA, add(CFA_XSP16, literal(-8)))
        CFI V0 load(1, XDATA, add(CFA_XSP16, literal(-7)))
        CFI R7 load(1, XDATA, add(CFA_XSP16, literal(-6)))
        CFI ?RET_LOW load(1, XDATA, add(CFA_XSP16, literal(-5)))
        CFI ?RET_HIGH load(1, XDATA, add(CFA_XSP16, literal(-4)))
        CFI ?BRET_EXT load(1, XDATA, add(CFA_XSP16, literal(-3)))
        CFI DPL0 load(1, XDATA, add(CFA_XSP16, literal(-2)))
        CFI DPH0 load(1, XDATA, add(CFA_XSP16, literal(-1)))
        CFI CFA_SP SP+0
        CFI CFA_XSP16 add(XSP16, 9)
        CFI Block cfiCond16 Using cfiCommon0
        CFI (cfiCond16) NoFunction
        CFI (cfiCond16) Conditional ??CrossCallReturnLabel_18
        CFI (cfiCond16) R6 load(1, XDATA, add(CFA_XSP16, literal(-9)))
        CFI (cfiCond16) VB load(1, XDATA, add(CFA_XSP16, literal(-8)))
        CFI (cfiCond16) V0 load(1, XDATA, add(CFA_XSP16, literal(-7)))
        CFI (cfiCond16) R7 load(1, XDATA, add(CFA_XSP16, literal(-6)))
        CFI (cfiCond16) ?RET_LOW load(1, XDATA, add(CFA_XSP16, literal(-5)))
        CFI (cfiCond16) ?RET_HIGH load(1, XDATA, add(CFA_XSP16, literal(-4)))
        CFI (cfiCond16) ?BRET_EXT load(1, XDATA, add(CFA_XSP16, literal(-3)))
        CFI (cfiCond16) DPL0 load(1, XDATA, add(CFA_XSP16, literal(-2)))
        CFI (cfiCond16) DPH0 load(1, XDATA, add(CFA_XSP16, literal(-1)))
        CFI (cfiCond16) CFA_SP SP+0
        CFI (cfiCond16) CFA_XSP16 add(XSP16, 9)
        CFI Block cfiPicker17 Using cfiCommon1
        CFI (cfiPicker17) NoFunction
        CFI (cfiPicker17) Picker
        MOV     DPL,R2
        MOV     DPH,R3
        INC     DPTR
        INC     DPTR
        MOVX    A,@DPTR
        MOV     R4,A
        INC     DPTR
        MOVX    A,@DPTR
        MOV     DPH,A
        MOV     DPL,R4
        MOVX    A,@DPTR
        XRL     A,R6
        RET
        CFI EndBlock cfiCond15
        CFI EndBlock cfiCond16
        CFI EndBlock cfiPicker17
//  232 
//  233 /*********************************************************************
//  234  * @fn          afDataConfirm
//  235  *
//  236  * @brief       This function will generate the Data Confirm back to
//  237  *              the application.
//  238  *
//  239  * @param       endPoint - confirm end point
//  240  * @param       transID - transaction ID from APSDE_DATA_REQUEST
//  241  * @param       status - status of APSDE_DATA_REQUEST
//  242  *
//  243  * @return      none
//  244  */

        RSEG BANKED_CODE:CODE:NOROOT(0)
//  245 void afDataConfirm( uint8 endPoint, uint8 transID, ZStatus_t status )
afDataConfirm:
        CFI Block cfiBlock18 Using cfiCommon0
        CFI Function afDataConfirm
        CODE
//  246 {
        FUNCALL afDataConfirm, afFindEndPointDesc
        LOCFRAME ISTACK, 0, STACK
        LOCFRAME PSTACK, 0, STACK
        LOCFRAME XSTACK, 14, STACK
        LOCFRAME IOVERLAY, 0, STATIC
        LOCFRAME DOVERLAY, 0, STATIC
        ARGFRAME ISTACK, 0, STACK
        ARGFRAME PSTACK, 0, STACK
        ARGFRAME XSTACK, 14, STACK
        ARGFRAME IOVERLAY, 0, STATIC
        ARGFRAME DOVERLAY, 0, STATIC
        FUNCALL afDataConfirm, osal_msg_allocate
        LOCFRAME ISTACK, 0, STACK
        LOCFRAME PSTACK, 0, STACK
        LOCFRAME XSTACK, 14, STACK
        LOCFRAME IOVERLAY, 0, STATIC
        LOCFRAME DOVERLAY, 0, STATIC
        ARGFRAME ISTACK, 0, STACK
        ARGFRAME PSTACK, 0, STACK
        ARGFRAME XSTACK, 14, STACK
        ARGFRAME IOVERLAY, 0, STATIC
        ARGFRAME DOVERLAY, 0, STATIC
        FUNCALL afDataConfirm, osal_msg_send
        LOCFRAME ISTACK, 0, STACK
        LOCFRAME PSTACK, 0, STACK
        LOCFRAME XSTACK, 14, STACK
        LOCFRAME IOVERLAY, 0, STATIC
        LOCFRAME DOVERLAY, 0, STATIC
        ARGFRAME ISTACK, 0, STACK
        ARGFRAME PSTACK, 0, STACK
        ARGFRAME XSTACK, 14, STACK
        ARGFRAME IOVERLAY, 0, STATIC
        ARGFRAME DOVERLAY, 0, STATIC
        MOV     A,#-0xe
        LCALL   ?BANKED_ENTER_XDATA
        CFI DPH0 load(1, XDATA, add(CFA_XSP16, literal(-1)))
        CFI DPL0 load(1, XDATA, add(CFA_XSP16, literal(-2)))
        CFI ?BRET_EXT load(1, XDATA, add(CFA_XSP16, literal(-3)))
        CFI ?RET_HIGH load(1, XDATA, add(CFA_XSP16, literal(-4)))
        CFI ?RET_LOW load(1, XDATA, add(CFA_XSP16, literal(-5)))
        CFI R7 load(1, XDATA, add(CFA_XSP16, literal(-6)))
        CFI V5 load(1, XDATA, add(CFA_XSP16, literal(-7)))
        CFI V4 load(1, XDATA, add(CFA_XSP16, literal(-8)))
        CFI V3 load(1, XDATA, add(CFA_XSP16, literal(-9)))
        CFI V2 load(1, XDATA, add(CFA_XSP16, literal(-10)))
        CFI V1 load(1, XDATA, add(CFA_XSP16, literal(-11)))
        CFI V0 load(1, XDATA, add(CFA_XSP16, literal(-12)))
        CFI VB load(1, XDATA, add(CFA_XSP16, literal(-13)))
        CFI R6 load(1, XDATA, add(CFA_XSP16, literal(-14)))
        CFI CFA_SP SP+0
        CFI CFA_XSP16 add(XSP16, 14)
        ; Saved register size: 14
        ; Auto size: 0
        MOV     ?V0 + 0,R1
        MOV     ?V0 + 1,R2
        MOV     ?V0 + 2,R3
//  247   endPointDesc_t *epDesc;
//  248   afDataConfirm_t *msgPtr;
//  249 
//  250   // Find the endpoint description
//  251   epDesc = afFindEndPointDesc( endPoint );
        ; Setup parameters for call to function afFindEndPointDesc
        LCALL   ??afFindEndPointDesc?relay
        MOV     ?V0 + 4,R2
        MOV     ?V0 + 5,R3
        MOV     R6,?V0 + 4
        MOV     R7,?V0 + 5
//  252   if ( epDesc == NULL )
        MOV     A,R6
        ORL     A,R7
        JZ      ??CrossCallReturnLabel_6
//  253     return;
//  254 
//  255   // Determine the incoming command type
//  256   msgPtr = (afDataConfirm_t *)osal_msg_allocate( sizeof(afDataConfirm_t) );
        ; Setup parameters for call to function osal_msg_allocate
        MOV     R2,#0x4
        MOV     R3,#0x0
        LCALL   ??osal_msg_allocate?relay
//  257   if ( msgPtr )
        MOV     A,R2
        ORL     A,R3
        JZ      ??CrossCallReturnLabel_6
//  258   {
//  259     // Build the Data Confirm message
//  260     msgPtr->hdr.event = AF_DATA_CONFIRM_CMD;
        MOV     DPL,R2
        MOV     DPH,R3
        MOV     A,#-0x3
        MOVX    @DPTR,A
//  261     msgPtr->hdr.status = status;
        INC     DPTR
        MOV     A,?V0 + 2
        LCALL   ?Subroutine25 & 0xFFFF
//  262     msgPtr->endpoint = endPoint;
??CrossCallReturnLabel_41:
        MOV     A,?V0 + 0
        LCALL   ?Subroutine25 & 0xFFFF
//  263     msgPtr->transID = transID;
??CrossCallReturnLabel_42:
        INC     DPTR
        MOV     A,?V0 + 1
        MOVX    @DPTR,A
//  264 
//  265 #if defined ( MT_AF_CB_FUNC )
//  266     /* If MT has subscribed for this callback, don't send as a message. */
//  267     if ( AFCB_CHECK(CB_ID_AF_DATA_CNF,*(epDesc->task_id)) )
//  268     {
//  269       /* Send callback if it's subscribed */
//  270       MT_AfDataConfirm ((void *)msgPtr);
//  271       /* Release the memory. */
//  272       osal_msg_deallocate( (void *)msgPtr );
//  273     }
//  274     else
//  275 #endif
//  276     {
//  277       /* send message through task message */
//  278       osal_msg_send( *(epDesc->task_id), (uint8 *)msgPtr );
        ; Setup parameters for call to function osal_msg_send
        MOV     DPL,R6
        MOV     DPH,R7
        LCALL   ?Subroutine7 & 0xFFFF
//  279     }
//  280   }
??CrossCallReturnLabel_6:
        MOV     R7,#0x6
        LJMP    ?BANKED_LEAVE_XDATA
        CFI EndBlock cfiBlock18
//  281 }

        RSEG BANKED_CODE:CODE:NOROOT(0)
?Subroutine25:
        CFI Block cfiCond19 Using cfiCommon0
        CFI NoFunction
        CFI Conditional ??CrossCallReturnLabel_40
        CFI R6 load(1, XDATA, add(CFA_XSP16, literal(-12)))
        CFI VB load(1, XDATA, add(CFA_XSP16, literal(-11)))
        CFI V0 load(1, XDATA, add(CFA_XSP16, literal(-10)))
        CFI V1 load(1, XDATA, add(CFA_XSP16, literal(-9)))
        CFI V2 load(1, XDATA, add(CFA_XSP16, literal(-8)))
        CFI V3 load(1, XDATA, add(CFA_XSP16, literal(-7)))
        CFI R7 load(1, XDATA, add(CFA_XSP16, literal(-6)))
        CFI ?RET_LOW load(1, XDATA, add(CFA_XSP16, literal(-5)))
        CFI ?RET_HIGH load(1, XDATA, add(CFA_XSP16, literal(-4)))
        CFI ?BRET_EXT load(1, XDATA, add(CFA_XSP16, literal(-3)))
        CFI DPL0 load(1, XDATA, add(CFA_XSP16, literal(-2)))
        CFI DPH0 load(1, XDATA, add(CFA_XSP16, literal(-1)))
        CFI CFA_SP SP+0
        CFI CFA_XSP16 add(XSP16, 12)
        CFI Block cfiCond20 Using cfiCommon0
        CFI (cfiCond20) NoFunction
        CFI (cfiCond20) Conditional ??CrossCallReturnLabel_41
        CFI (cfiCond20) R6 load(1, XDATA, add(CFA_XSP16, literal(-14)))
        CFI (cfiCond20) VB load(1, XDATA, add(CFA_XSP16, literal(-13)))
        CFI (cfiCond20) V0 load(1, XDATA, add(CFA_XSP16, literal(-12)))
        CFI (cfiCond20) V1 load(1, XDATA, add(CFA_XSP16, literal(-11)))
        CFI (cfiCond20) V2 load(1, XDATA, add(CFA_XSP16, literal(-10)))
        CFI (cfiCond20) V3 load(1, XDATA, add(CFA_XSP16, literal(-9)))
        CFI (cfiCond20) V4 load(1, XDATA, add(CFA_XSP16, literal(-8)))
        CFI (cfiCond20) V5 load(1, XDATA, add(CFA_XSP16, literal(-7)))
        CFI (cfiCond20) R7 load(1, XDATA, add(CFA_XSP16, literal(-6)))
        CFI (cfiCond20) ?RET_LOW load(1, XDATA, add(CFA_XSP16, literal(-5)))
        CFI (cfiCond20) ?RET_HIGH load(1, XDATA, add(CFA_XSP16, literal(-4)))
        CFI (cfiCond20) ?BRET_EXT load(1, XDATA, add(CFA_XSP16, literal(-3)))
        CFI (cfiCond20) DPL0 load(1, XDATA, add(CFA_XSP16, literal(-2)))
        CFI (cfiCond20) DPH0 load(1, XDATA, add(CFA_XSP16, literal(-1)))
        CFI (cfiCond20) CFA_SP SP+0
        CFI (cfiCond20) CFA_XSP16 add(XSP16, 14)
        CFI Block cfiCond21 Using cfiCommon0
        CFI (cfiCond21) NoFunction
        CFI (cfiCond21) Conditional ??CrossCallReturnLabel_42
        CFI (cfiCond21) R6 load(1, XDATA, add(CFA_XSP16, literal(-14)))
        CFI (cfiCond21) VB load(1, XDATA, add(CFA_XSP16, literal(-13)))
        CFI (cfiCond21) V0 load(1, XDATA, add(CFA_XSP16, literal(-12)))
        CFI (cfiCond21) V1 load(1, XDATA, add(CFA_XSP16, literal(-11)))
        CFI (cfiCond21) V2 load(1, XDATA, add(CFA_XSP16, literal(-10)))
        CFI (cfiCond21) V3 load(1, XDATA, add(CFA_XSP16, literal(-9)))
        CFI (cfiCond21) V4 load(1, XDATA, add(CFA_XSP16, literal(-8)))
        CFI (cfiCond21) V5 load(1, XDATA, add(CFA_XSP16, literal(-7)))
        CFI (cfiCond21) R7 load(1, XDATA, add(CFA_XSP16, literal(-6)))
        CFI (cfiCond21) ?RET_LOW load(1, XDATA, add(CFA_XSP16, literal(-5)))
        CFI (cfiCond21) ?RET_HIGH load(1, XDATA, add(CFA_XSP16, literal(-4)))
        CFI (cfiCond21) ?BRET_EXT load(1, XDATA, add(CFA_XSP16, literal(-3)))
        CFI (cfiCond21) DPL0 load(1, XDATA, add(CFA_XSP16, literal(-2)))
        CFI (cfiCond21) DPH0 load(1, XDATA, add(CFA_XSP16, literal(-1)))
        CFI (cfiCond21) CFA_SP SP+0
        CFI (cfiCond21) CFA_XSP16 add(XSP16, 14)
        CFI Block cfiPicker22 Using cfiCommon1
        CFI (cfiPicker22) NoFunction
        CFI (cfiPicker22) Picker
        MOVX    @DPTR,A
        MOV     DPL,R2
        MOV     DPH,R3
        INC     DPTR
        INC     DPTR
        RET
        CFI EndBlock cfiCond19
        CFI EndBlock cfiCond20
        CFI EndBlock cfiCond21
        CFI EndBlock cfiPicker22
//  282 
//  283 /*********************************************************************
//  284  * @fn          afIncomingData
//  285  *
//  286  * @brief       Transfer a data PDU (ASDU) from the APS sub-layer to the AF.
//  287  *
//  288  * @param       aff  - pointer to APS frame format
//  289  * @param       SrcAddress  - Source address
//  290  * @param       SrcPanId  - Source PAN ID
//  291  * @param       sig - incoming message's link quality
//  292  * @param       nwkSeqNum - incoming network sequence number (from nwk header frame)
//  293  * @param       SecurityUse - Security enable/disable
//  294  * @param       timestamp - the MAC Timer2 timestamp at Rx.
//  295  *
//  296  * @return      none
//  297  */

        RSEG BANKED_CODE:CODE:NOROOT(0)
//  298 void afIncomingData( aps_FrameFormat_t *aff, zAddrType_t *SrcAddress, uint16 SrcPanId,
afIncomingData:
        CFI Block cfiBlock23 Using cfiCommon0
        CFI Function afIncomingData
        CODE
//  299                      NLDE_Signal_t *sig, uint8 nwkSeqNum, uint8 SecurityUse, uint32 timestamp )
//  300 {
        FUNCALL afIncomingData, aps_FindGroupForEndpoint
        LOCFRAME ISTACK, 0, STACK
        LOCFRAME PSTACK, 0, STACK
        LOCFRAME XSTACK, 27, STACK
        LOCFRAME IOVERLAY, 0, STATIC
        LOCFRAME DOVERLAY, 0, STATIC
        ARGFRAME ISTACK, 0, STACK
        ARGFRAME PSTACK, 0, STACK
        ARGFRAME XSTACK, 27, STACK
        ARGFRAME IOVERLAY, 0, STATIC
        ARGFRAME DOVERLAY, 0, STATIC
        FUNCALL afIncomingData, afFindEndPointDesc
        LOCFRAME ISTACK, 0, STACK
        LOCFRAME PSTACK, 0, STACK
        LOCFRAME XSTACK, 27, STACK
        LOCFRAME IOVERLAY, 0, STATIC
        LOCFRAME DOVERLAY, 0, STATIC
        ARGFRAME ISTACK, 0, STACK
        ARGFRAME PSTACK, 0, STACK
        ARGFRAME XSTACK, 27, STACK
        ARGFRAME IOVERLAY, 0, STATIC
        ARGFRAME DOVERLAY, 0, STATIC
        FUNCALL afIncomingData, afFindEndPointDescList
        LOCFRAME ISTACK, 0, STACK
        LOCFRAME PSTACK, 0, STACK
        LOCFRAME XSTACK, 27, STACK
        LOCFRAME IOVERLAY, 0, STATIC
        LOCFRAME DOVERLAY, 0, STATIC
        ARGFRAME ISTACK, 0, STACK
        ARGFRAME PSTACK, 0, STACK
        ARGFRAME XSTACK, 27, STACK
        ARGFRAME IOVERLAY, 0, STATIC
        ARGFRAME DOVERLAY, 0, STATIC
        FUNCALL afIncomingData, afFindEndPointDesc
        LOCFRAME ISTACK, 0, STACK
        LOCFRAME PSTACK, 0, STACK
        LOCFRAME XSTACK, 27, STACK
        LOCFRAME IOVERLAY, 0, STATIC
        LOCFRAME DOVERLAY, 0, STATIC
        ARGFRAME ISTACK, 0, STACK
        ARGFRAME PSTACK, 0, STACK
        ARGFRAME XSTACK, 27, STACK
        ARGFRAME IOVERLAY, 0, STATIC
        ARGFRAME DOVERLAY, 0, STATIC
        FUNCALL afIncomingData, aps_FindGroupForEndpoint
        LOCFRAME ISTACK, 0, STACK
        LOCFRAME PSTACK, 0, STACK
        LOCFRAME XSTACK, 27, STACK
        LOCFRAME IOVERLAY, 0, STATIC
        LOCFRAME DOVERLAY, 0, STATIC
        ARGFRAME ISTACK, 0, STACK
        ARGFRAME PSTACK, 0, STACK
        ARGFRAME XSTACK, 27, STACK
        ARGFRAME IOVERLAY, 0, STATIC
        ARGFRAME DOVERLAY, 0, STATIC
        FUNCALL afIncomingData, afFindEndPointDesc
        LOCFRAME ISTACK, 0, STACK
        LOCFRAME PSTACK, 0, STACK
        LOCFRAME XSTACK, 27, STACK
        LOCFRAME IOVERLAY, 0, STATIC
        LOCFRAME DOVERLAY, 0, STATIC
        ARGFRAME ISTACK, 0, STACK
        ARGFRAME PSTACK, 0, STACK
        ARGFRAME XSTACK, 27, STACK
        ARGFRAME IOVERLAY, 0, STATIC
        ARGFRAME DOVERLAY, 0, STATIC
        FUNCALL afIncomingData, afFindEndPointDescList
        LOCFRAME ISTACK, 0, STACK
        LOCFRAME PSTACK, 0, STACK
        LOCFRAME XSTACK, 27, STACK
        LOCFRAME IOVERLAY, 0, STATIC
        LOCFRAME DOVERLAY, 0, STATIC
        ARGFRAME ISTACK, 0, STACK
        ARGFRAME PSTACK, 0, STACK
        ARGFRAME XSTACK, 27, STACK
        ARGFRAME IOVERLAY, 0, STATIC
        ARGFRAME DOVERLAY, 0, STATIC
        FUNCALL afIncomingData, osal_mem_free
        LOCFRAME ISTACK, 0, STACK
        LOCFRAME PSTACK, 0, STACK
        LOCFRAME XSTACK, 27, STACK
        LOCFRAME IOVERLAY, 0, STATIC
        LOCFRAME DOVERLAY, 0, STATIC
        ARGFRAME ISTACK, 0, STACK
        ARGFRAME PSTACK, 0, STACK
        ARGFRAME XSTACK, 27, STACK
        ARGFRAME IOVERLAY, 0, STATIC
        ARGFRAME DOVERLAY, 0, STATIC
        FUNCALL afIncomingData, afBuildMSGIncoming
        LOCFRAME ISTACK, 0, STACK
        LOCFRAME PSTACK, 0, STACK
        LOCFRAME XSTACK, 38, STACK
        LOCFRAME IOVERLAY, 0, STATIC
        LOCFRAME DOVERLAY, 0, STATIC
        ARGFRAME ISTACK, 0, STACK
        ARGFRAME PSTACK, 0, STACK
        ARGFRAME XSTACK, 38, STACK
        ARGFRAME IOVERLAY, 0, STATIC
        ARGFRAME DOVERLAY, 0, STATIC
        MOV     A,#-0x18
        LCALL   ?BANKED_ENTER_XDATA
        CFI DPH0 load(1, XDATA, add(CFA_XSP16, literal(-1)))
        CFI DPL0 load(1, XDATA, add(CFA_XSP16, literal(-2)))
        CFI ?BRET_EXT load(1, XDATA, add(CFA_XSP16, literal(-3)))
        CFI ?RET_HIGH load(1, XDATA, add(CFA_XSP16, literal(-4)))
        CFI ?RET_LOW load(1, XDATA, add(CFA_XSP16, literal(-5)))
        CFI R7 load(1, XDATA, add(CFA_XSP16, literal(-6)))
        CFI V15 load(1, XDATA, add(CFA_XSP16, literal(-7)))
        CFI V14 load(1, XDATA, add(CFA_XSP16, literal(-8)))
        CFI V13 load(1, XDATA, add(CFA_XSP16, literal(-9)))
        CFI V12 load(1, XDATA, add(CFA_XSP16, literal(-10)))
        CFI V11 load(1, XDATA, add(CFA_XSP16, literal(-11)))
        CFI V10 load(1, XDATA, add(CFA_XSP16, literal(-12)))
        CFI V9 load(1, XDATA, add(CFA_XSP16, literal(-13)))
        CFI V8 load(1, XDATA, add(CFA_XSP16, literal(-14)))
        CFI V7 load(1, XDATA, add(CFA_XSP16, literal(-15)))
        CFI V6 load(1, XDATA, add(CFA_XSP16, literal(-16)))
        CFI V5 load(1, XDATA, add(CFA_XSP16, literal(-17)))
        CFI V4 load(1, XDATA, add(CFA_XSP16, literal(-18)))
        CFI V3 load(1, XDATA, add(CFA_XSP16, literal(-19)))
        CFI V2 load(1, XDATA, add(CFA_XSP16, literal(-20)))
        CFI V1 load(1, XDATA, add(CFA_XSP16, literal(-21)))
        CFI V0 load(1, XDATA, add(CFA_XSP16, literal(-22)))
        CFI VB load(1, XDATA, add(CFA_XSP16, literal(-23)))
        CFI R6 load(1, XDATA, add(CFA_XSP16, literal(-24)))
        CFI CFA_SP SP+0
        CFI CFA_XSP16 add(XSP16, 24)
        ; Saved register size: 24
        ; Auto size: 3
        MOV     A,#-0x3
        LCALL   ?ALLOC_XSTACK8
        CFI CFA_XSP16 add(XSP16, 27)
        MOV     A,#0x1
        LCALL   ?XSTACK_DISP0_8
        MOV     A,R4
        MOVX    @DPTR,A
        INC     DPTR
        MOV     A,R5
        MOVX    @DPTR,A
        MOV     A,R1
        MOV     DPL,?XSP + 0
        MOV     DPH,?XSP + 1
        MOVX    @DPTR,A
        MOV     ?V0 + 8,R2
        MOV     ?V0 + 9,R3
        MOV     A,#0x1b
        LCALL   ?XSTACK_DISP0_8
        MOVX    A,@DPTR
        MOV     ?V0 + 10,A
        INC     DPTR
        MOVX    A,@DPTR
        MOV     ?V0 + 11,A
        MOV     A,#0x20
        LCALL   ?XSTACK_DISP0_8
        MOV     R0,#?V0 + 4
        LCALL   ?L_MOV_X
//  301   endPointDesc_t *epDesc = NULL;
//  302   epList_t *pList = epList;
        MOV     DPTR,#epList
        MOVX    A,@DPTR
        MOV     ?V0 + 0,A
        INC     DPTR
        MOVX    A,@DPTR
        MOV     ?V0 + 1,A
//  303 #if !defined ( APS_NO_GROUPS )
//  304   uint8 grpEp = APS_GROUPS_EP_NOT_FOUND;
        MOV     ?V0 + 2,#-0x2
        MOV     DPL,R2
        MOV     DPH,R3
        MOVX    A,@DPTR
        ANL     A,#0xc
        XRL     A,#0xc
        JNZ     ??afIncomingData_0
//  305 #endif
//  306 
//  307   if ( ((aff->FrmCtrl & APS_DELIVERYMODE_MASK) == APS_FC_DM_GROUP) )
//  308   {
//  309 #if !defined ( APS_NO_GROUPS )
//  310     // Find the first endpoint for this group
//  311     grpEp = aps_FindGroupForEndpoint( aff->GroupID, APS_GROUPS_FIND_FIRST );
        ; Setup parameters for call to function aps_FindGroupForEndpoint
        MOV     R1,#-0x2
        LCALL   ?Subroutine5 & 0xFFFF
//  312     if ( grpEp == APS_GROUPS_EP_NOT_FOUND )
??CrossCallReturnLabel_0:
        JNZ     $+5
        LJMP    ??afIncomingData_1 & 0xFFFF
//  313       return;   // No endpoint found
//  314 
//  315     epDesc = afFindEndPointDesc( grpEp );
        ; Setup parameters for call to function afFindEndPointDesc
        LCALL   ?Subroutine29 & 0xFFFF
//  316     if ( epDesc == NULL )
??CrossCallReturnLabel_47:
        JNZ     $+5
        LJMP    ??afIncomingData_1 & 0xFFFF
//  317       return;   // Endpoint descriptor not found
//  318 
//  319     pList = afFindEndPointDescList( epDesc->endPoint );
??afIncomingData_2:
        ; Setup parameters for call to function afFindEndPointDescList
        LCALL   ?Subroutine15 & 0xFFFF
//  320 #else
//  321     return; // Not supported
//  322 #endif
//  323   }
??CrossCallReturnLabel_21:
        SJMP    ??afIncomingData_3
//  324   else if ( aff->DstEndPoint == AF_BROADCAST_ENDPOINT )
??afIncomingData_0:
        INC     DPTR
        INC     DPTR
        MOVX    A,@DPTR
        MOV     R1,A
        MOV     A,#-0x1
        XRL     A,R1
        JNZ     ??afIncomingData_4
//  325   {
//  326     // Set the list
//  327     if ( pList != NULL )
        MOV     A,?V0 + 0
        ORL     A,?V0 + 1
        JNZ     $+5
        LJMP    ??afIncomingData_1 & 0xFFFF
//  328     {
//  329       epDesc = pList->epDesc;
        SJMP    ??afIncomingData_5
//  330     }
//  331   }
//  332   else if ( (epDesc = afFindEndPointDesc( aff->DstEndPoint )) )
??afIncomingData_4:
        ; Setup parameters for call to function afFindEndPointDesc
        LCALL   ??afFindEndPointDesc?relay
        MOV     ?V0 + 12,R2
        MOV     ?V0 + 13,R3
        MOV     R0,?V0 + 12
        MOV     R1,?V0 + 13
        MOV     A,R0
        MOV     R6,A
        MOV     A,R1
        MOV     R7,A
        MOV     A,R0
        ORL     A,R1
        JZ      ??afIncomingData_3
        SJMP    ??afIncomingData_2
//  333   {
//  334     pList = afFindEndPointDescList( epDesc->endPoint );
//  335   }
//  336 
//  337   while ( epDesc )
//  338   {
//  339     uint16 epProfileID = 0xFFFF;  // Invalid Profile ID
//  340 
//  341     if ( pList->pfnDescCB )
//  342     {
//  343       uint16 *pID = (uint16 *)(pList->pfnDescCB(
//  344                                  AF_DESCRIPTOR_PROFILE_ID, epDesc->endPoint ));
//  345       if ( pID )
//  346       {
//  347         epProfileID = *pID;
//  348         osal_mem_free( pID );
//  349       }
//  350     }
//  351     else if ( epDesc->simpleDesc )
//  352     {
//  353       epProfileID = epDesc->simpleDesc->AppProfId;
//  354     }
//  355 
//  356     if ( (aff->ProfileID == epProfileID) ||
//  357          ((epDesc->endPoint == ZDO_EP) && (aff->ProfileID == ZDO_PROFILE_ID)) )
//  358     {
//  359       {
//  360         // Save original endpoint
//  361         uint8 endpoint = aff->DstEndPoint;
//  362 
//  363         // overwrite with descriptor's endpoint
//  364         aff->DstEndPoint = epDesc->endPoint;
//  365 
//  366         afBuildMSGIncoming( aff, epDesc, SrcAddress, SrcPanId, sig,
//  367                            nwkSeqNum, SecurityUse, timestamp );
//  368 
//  369         // Restore with original endpoint
//  370         aff->DstEndPoint = endpoint;
//  371       }
//  372     }
//  373 
//  374     if ( ((aff->FrmCtrl & APS_DELIVERYMODE_MASK) == APS_FC_DM_GROUP) )
//  375     {
//  376 #if !defined ( APS_NO_GROUPS )
//  377       // Find the next endpoint for this group
//  378       grpEp = aps_FindGroupForEndpoint( aff->GroupID, grpEp );
//  379       if ( grpEp == APS_GROUPS_EP_NOT_FOUND )
//  380         return;   // No endpoint found
//  381 
//  382       epDesc = afFindEndPointDesc( grpEp );
//  383       if ( epDesc == NULL )
//  384         return;   // Endpoint descriptor not found
//  385 
//  386       pList = afFindEndPointDescList( epDesc->endPoint );
//  387 #else
//  388       return;
//  389 #endif
//  390     }
//  391     else if ( aff->DstEndPoint == AF_BROADCAST_ENDPOINT )
//  392     {
//  393       pList = pList->nextDesc;
//  394       if ( pList )
//  395         epDesc = pList->epDesc;
??afIncomingData_5:
        MOV     DPL,?V0 + 0
        MOV     DPH,?V0 + 1
        INC     DPTR
        INC     DPTR
        MOVX    A,@DPTR
        MOV     R6,A
        INC     DPTR
        MOVX    A,@DPTR
        MOV     R7,A
??afIncomingData_3:
        MOV     A,R6
        ORL     A,R7
        JNZ     $+5
        LJMP    ??afIncomingData_1 & 0xFFFF
        SJMP    ??CrossCallReturnLabel_22
??afIncomingData_6:
        ; Setup parameters for call to function aps_FindGroupForEndpoint
        MOV     R1,?V0 + 2
        LCALL   ?Subroutine5 & 0xFFFF
??CrossCallReturnLabel_1:
        JNZ     $+5
        LJMP    ??afIncomingData_1 & 0xFFFF
        ; Setup parameters for call to function afFindEndPointDesc
        LCALL   ?Subroutine29 & 0xFFFF
??CrossCallReturnLabel_48:
        JNZ     $+5
        LJMP    ??afIncomingData_1 & 0xFFFF
        ; Setup parameters for call to function afFindEndPointDescList
        LCALL   ?Subroutine15 & 0xFFFF
??CrossCallReturnLabel_22:
        MOV     ?V0 + 14,#-0x1
        MOV     ?V0 + 15,#-0x1
        MOV     DPL,?V0 + 0
        MOV     DPH,?V0 + 1
        LCALL   ?Subroutine10 & 0xFFFF
??CrossCallReturnLabel_14:
        MOV     DPL,R6
        MOV     DPH,R7
        JZ      ??afIncomingData_7
        ; Setup parameters for indirect call
        LCALL   ?Subroutine20 & 0xFFFF
??CrossCallReturnLabel_31:
        LCALL   ?CALL_IND
        MOV     A,R2
        ORL     A,R3
        JZ      ??CrossCallReturnLabel_3
        MOV     DPL,R2
        MOV     DPH,R3
        LCALL   ?Subroutine6 & 0xFFFF
??CrossCallReturnLabel_2:
        ; Setup parameters for call to function osal_mem_free
        LCALL   ??osal_mem_free?relay
        SJMP    ??CrossCallReturnLabel_3
??afIncomingData_7:
        LCALL   ?Subroutine8 & 0xFFFF
??CrossCallReturnLabel_8:
        JZ      ??CrossCallReturnLabel_3
        INC     DPTR
        LCALL   ?Subroutine6 & 0xFFFF
??CrossCallReturnLabel_3:
        MOV     DPL,?V0 + 8
        MOV     DPH,?V0 + 9
        INC     DPTR
        INC     DPTR
        INC     DPTR
        INC     DPTR
        INC     DPTR
        INC     DPTR
        INC     DPTR
        INC     DPTR
        LCALL   ?Subroutine13 & 0xFFFF
??CrossCallReturnLabel_19:
        MOVX    A,@DPTR
        MOV     R2,A
        MOV     A,?V0 + 14
        XRL     A,R0
        JNZ     ??afIncomingData_8
        MOV     A,?V0 + 15
        XRL     A,R1
??afIncomingData_8:
        JZ      ??afIncomingData_9
        MOV     A,R2
        JNZ     ??afIncomingData_10
        MOV     A,R0
        ORL     A,R1
        JNZ     ??afIncomingData_10
??afIncomingData_9:
        MOV     DPL,?V0 + 8
        MOV     DPH,?V0 + 9
        INC     DPTR
        INC     DPTR
        MOVX    A,@DPTR
        MOV     ?V0 + 3,A
        MOV     A,R2
        MOV     DPL,?V0 + 8
        MOV     DPH,?V0 + 9
        INC     DPTR
        INC     DPTR
        MOVX    @DPTR,A
        ; Setup parameters for call to function afBuildMSGIncoming
        MOV     R0,#?V0 + 4
        LCALL   ?PUSH_XSTACK_I_FOUR
        CFI CFA_XSP16 add(XSP16, 31)
        MOV     A,#0x23
        LCALL   ?XSTACK_DISP0_8
        MOVX    A,@DPTR
        MOV     ?V0 + 12,A
        MOV     R0,#?V0 + 12
        LCALL   ?PUSH_XSTACK_I_ONE
        CFI CFA_XSP16 add(XSP16, 32)
        MOV     A,#0x22
        LCALL   ?XSTACK_DISP0_8
        LCALL   ?PUSH_XSTACK8_X_TWO
        CFI CFA_XSP16 add(XSP16, 34)
        MOV     R0,#?V0 + 10
        LCALL   ?PUSH_XSTACK_I_TWO
        CFI CFA_XSP16 add(XSP16, 36)
        MOV     A,#0xa
        LCALL   ?XSTACK_DISP0_8
        LCALL   ?PUSH_XSTACK8_X_TWO
        CFI CFA_XSP16 add(XSP16, 38)
        MOV     A,#0xb
        LCALL   ?XSTACK_DISP0_8
        MOVX    A,@DPTR
        MOV     R1,A
        MOV     A,R6
        MOV     R4,A
        MOV     A,R7
        MOV     R5,A
        MOV     R2,?V0 + 8
        MOV     R3,?V0 + 9
        LCALL   ??afBuildMSGIncoming?relay
        MOV     A,#0xb
        LCALL   ?DEALLOC_XSTACK8
        CFI CFA_XSP16 add(XSP16, 27)
        MOV     DPL,?V0 + 8
        MOV     DPH,?V0 + 9
        INC     DPTR
        INC     DPTR
        MOV     A,?V0 + 3
        MOVX    @DPTR,A
??afIncomingData_10:
        MOV     DPL,?V0 + 8
        MOV     DPH,?V0 + 9
        MOVX    A,@DPTR
        ANL     A,#0xc
        XRL     A,#0xc
        JNZ     $+5
        LJMP    ??afIncomingData_6 & 0xFFFF
        INC     DPTR
        INC     DPTR
        MOVX    A,@DPTR
        CPL     A
        JNZ     ??afIncomingData_1
        MOV     DPL,?V0 + 0
        MOV     DPH,?V0 + 1
        MOVX    A,@DPTR
        MOV     ?V0 + 0,A
        INC     DPTR
        MOVX    A,@DPTR
        MOV     ?V0 + 1,A
        MOV     A,?V0 + 0
        ORL     A,?V0 + 1
        JZ      $+5
        LJMP    ??afIncomingData_5 & 0xFFFF
//  396       else
//  397         epDesc = NULL;
??afIncomingData_1:
        MOV     A,#0x3
        CFI EndBlock cfiBlock23
        REQUIRE ?Subroutine3
        ; // Fall through to label ?Subroutine3
//  398     }
//  399     else
//  400       epDesc = NULL;
//  401   }
//  402 }

        RSEG BANKED_CODE:CODE:NOROOT(0)
?Subroutine3:
        CFI Block cfiBlock24 Using cfiCommon0
        CFI NoFunction
        CFI CFA_SP SP+0
        CFI CFA_XSP16 add(XSP16, 27)
        CFI VB load(1, XDATA, add(CFA_XSP16, literal(-23)))
        CFI DPL0 load(1, XDATA, add(CFA_XSP16, literal(-2)))
        CFI DPH0 load(1, XDATA, add(CFA_XSP16, literal(-1)))
        CFI R6 load(1, XDATA, add(CFA_XSP16, literal(-24)))
        CFI R7 load(1, XDATA, add(CFA_XSP16, literal(-6)))
        CFI V0 load(1, XDATA, add(CFA_XSP16, literal(-22)))
        CFI V1 load(1, XDATA, add(CFA_XSP16, literal(-21)))
        CFI V2 load(1, XDATA, add(CFA_XSP16, literal(-20)))
        CFI V3 load(1, XDATA, add(CFA_XSP16, literal(-19)))
        CFI V4 load(1, XDATA, add(CFA_XSP16, literal(-18)))
        CFI V5 load(1, XDATA, add(CFA_XSP16, literal(-17)))
        CFI V6 load(1, XDATA, add(CFA_XSP16, literal(-16)))
        CFI V7 load(1, XDATA, add(CFA_XSP16, literal(-15)))
        CFI V8 load(1, XDATA, add(CFA_XSP16, literal(-14)))
        CFI V9 load(1, XDATA, add(CFA_XSP16, literal(-13)))
        CFI V10 load(1, XDATA, add(CFA_XSP16, literal(-12)))
        CFI V11 load(1, XDATA, add(CFA_XSP16, literal(-11)))
        CFI V12 load(1, XDATA, add(CFA_XSP16, literal(-10)))
        CFI V13 load(1, XDATA, add(CFA_XSP16, literal(-9)))
        CFI V14 load(1, XDATA, add(CFA_XSP16, literal(-8)))
        CFI V15 load(1, XDATA, add(CFA_XSP16, literal(-7)))
        CFI ?BRET_EXT load(1, XDATA, add(CFA_XSP16, literal(-3)))
        CFI ?RET_HIGH load(1, XDATA, add(CFA_XSP16, literal(-4)))
        CFI ?RET_LOW load(1, XDATA, add(CFA_XSP16, literal(-5)))
        CFI Invalid
        LCALL   ?DEALLOC_XSTACK8
        CFI CFA_XSP16 add(XSP16, 24)
        CFI Valid
        MOV     R7,#0x10
        LJMP    ?BANKED_LEAVE_XDATA
        CFI EndBlock cfiBlock24

        RSEG BANKED_CODE:CODE:NOROOT(0)
?Subroutine29:
        CFI Block cfiCond25 Using cfiCommon0
        CFI NoFunction
        CFI Conditional ??CrossCallReturnLabel_47
        CFI R6 load(1, XDATA, add(CFA_XSP16, literal(-24)))
        CFI VB load(1, XDATA, add(CFA_XSP16, literal(-23)))
        CFI V0 load(1, XDATA, add(CFA_XSP16, literal(-22)))
        CFI V1 load(1, XDATA, add(CFA_XSP16, literal(-21)))
        CFI V2 load(1, XDATA, add(CFA_XSP16, literal(-20)))
        CFI V3 load(1, XDATA, add(CFA_XSP16, literal(-19)))
        CFI V4 load(1, XDATA, add(CFA_XSP16, literal(-18)))
        CFI V5 load(1, XDATA, add(CFA_XSP16, literal(-17)))
        CFI V6 load(1, XDATA, add(CFA_XSP16, literal(-16)))
        CFI V7 load(1, XDATA, add(CFA_XSP16, literal(-15)))
        CFI V8 load(1, XDATA, add(CFA_XSP16, literal(-14)))
        CFI V9 load(1, XDATA, add(CFA_XSP16, literal(-13)))
        CFI V10 load(1, XDATA, add(CFA_XSP16, literal(-12)))
        CFI V11 load(1, XDATA, add(CFA_XSP16, literal(-11)))
        CFI V12 load(1, XDATA, add(CFA_XSP16, literal(-10)))
        CFI V13 load(1, XDATA, add(CFA_XSP16, literal(-9)))
        CFI V14 load(1, XDATA, add(CFA_XSP16, literal(-8)))
        CFI V15 load(1, XDATA, add(CFA_XSP16, literal(-7)))
        CFI R7 load(1, XDATA, add(CFA_XSP16, literal(-6)))
        CFI ?RET_LOW load(1, XDATA, add(CFA_XSP16, literal(-5)))
        CFI ?RET_HIGH load(1, XDATA, add(CFA_XSP16, literal(-4)))
        CFI ?BRET_EXT load(1, XDATA, add(CFA_XSP16, literal(-3)))
        CFI DPL0 load(1, XDATA, add(CFA_XSP16, literal(-2)))
        CFI DPH0 load(1, XDATA, add(CFA_XSP16, literal(-1)))
        CFI CFA_SP SP+0
        CFI CFA_XSP16 add(XSP16, 27)
        CFI Block cfiCond26 Using cfiCommon0
        CFI (cfiCond26) NoFunction
        CFI (cfiCond26) Conditional ??CrossCallReturnLabel_48
        CFI (cfiCond26) R6 load(1, XDATA, add(CFA_XSP16, literal(-24)))
        CFI (cfiCond26) VB load(1, XDATA, add(CFA_XSP16, literal(-23)))
        CFI (cfiCond26) V0 load(1, XDATA, add(CFA_XSP16, literal(-22)))
        CFI (cfiCond26) V1 load(1, XDATA, add(CFA_XSP16, literal(-21)))
        CFI (cfiCond26) V2 load(1, XDATA, add(CFA_XSP16, literal(-20)))
        CFI (cfiCond26) V3 load(1, XDATA, add(CFA_XSP16, literal(-19)))
        CFI (cfiCond26) V4 load(1, XDATA, add(CFA_XSP16, literal(-18)))
        CFI (cfiCond26) V5 load(1, XDATA, add(CFA_XSP16, literal(-17)))
        CFI (cfiCond26) V6 load(1, XDATA, add(CFA_XSP16, literal(-16)))
        CFI (cfiCond26) V7 load(1, XDATA, add(CFA_XSP16, literal(-15)))
        CFI (cfiCond26) V8 load(1, XDATA, add(CFA_XSP16, literal(-14)))
        CFI (cfiCond26) V9 load(1, XDATA, add(CFA_XSP16, literal(-13)))
        CFI (cfiCond26) V10 load(1, XDATA, add(CFA_XSP16, literal(-12)))
        CFI (cfiCond26) V11 load(1, XDATA, add(CFA_XSP16, literal(-11)))
        CFI (cfiCond26) V12 load(1, XDATA, add(CFA_XSP16, literal(-10)))
        CFI (cfiCond26) V13 load(1, XDATA, add(CFA_XSP16, literal(-9)))
        CFI (cfiCond26) V14 load(1, XDATA, add(CFA_XSP16, literal(-8)))
        CFI (cfiCond26) V15 load(1, XDATA, add(CFA_XSP16, literal(-7)))
        CFI (cfiCond26) R7 load(1, XDATA, add(CFA_XSP16, literal(-6)))
        CFI (cfiCond26) ?RET_LOW load(1, XDATA, add(CFA_XSP16, literal(-5)))
        CFI (cfiCond26) ?RET_HIGH load(1, XDATA, add(CFA_XSP16, literal(-4)))
        CFI (cfiCond26) ?BRET_EXT load(1, XDATA, add(CFA_XSP16, literal(-3)))
        CFI (cfiCond26) DPL0 load(1, XDATA, add(CFA_XSP16, literal(-2)))
        CFI (cfiCond26) DPH0 load(1, XDATA, add(CFA_XSP16, literal(-1)))
        CFI (cfiCond26) CFA_SP SP+0
        CFI (cfiCond26) CFA_XSP16 add(XSP16, 27)
        CFI Block cfiPicker27 Using cfiCommon1
        CFI (cfiPicker27) NoFunction
        CFI (cfiPicker27) Picker
        LCALL   ??afFindEndPointDesc?relay
        MOV     ?V0 + 0,R2
        MOV     ?V0 + 1,R3
        MOV     R6,?V0 + 0
        MOV     R7,?V0 + 1
        MOV     A,R6
        ORL     A,R7
        RET
        CFI EndBlock cfiCond25
        CFI EndBlock cfiCond26
        CFI EndBlock cfiPicker27

        RSEG BANKED_CODE:CODE:NOROOT(0)
?Subroutine15:
        CFI Block cfiCond28 Using cfiCommon0
        CFI NoFunction
        CFI Conditional ??CrossCallReturnLabel_21
        CFI R6 load(1, XDATA, add(CFA_XSP16, literal(-24)))
        CFI VB load(1, XDATA, add(CFA_XSP16, literal(-23)))
        CFI V0 load(1, XDATA, add(CFA_XSP16, literal(-22)))
        CFI V1 load(1, XDATA, add(CFA_XSP16, literal(-21)))
        CFI V2 load(1, XDATA, add(CFA_XSP16, literal(-20)))
        CFI V3 load(1, XDATA, add(CFA_XSP16, literal(-19)))
        CFI V4 load(1, XDATA, add(CFA_XSP16, literal(-18)))
        CFI V5 load(1, XDATA, add(CFA_XSP16, literal(-17)))
        CFI V6 load(1, XDATA, add(CFA_XSP16, literal(-16)))
        CFI V7 load(1, XDATA, add(CFA_XSP16, literal(-15)))
        CFI V8 load(1, XDATA, add(CFA_XSP16, literal(-14)))
        CFI V9 load(1, XDATA, add(CFA_XSP16, literal(-13)))
        CFI V10 load(1, XDATA, add(CFA_XSP16, literal(-12)))
        CFI V11 load(1, XDATA, add(CFA_XSP16, literal(-11)))
        CFI V12 load(1, XDATA, add(CFA_XSP16, literal(-10)))
        CFI V13 load(1, XDATA, add(CFA_XSP16, literal(-9)))
        CFI V14 load(1, XDATA, add(CFA_XSP16, literal(-8)))
        CFI V15 load(1, XDATA, add(CFA_XSP16, literal(-7)))
        CFI R7 load(1, XDATA, add(CFA_XSP16, literal(-6)))
        CFI ?RET_LOW load(1, XDATA, add(CFA_XSP16, literal(-5)))
        CFI ?RET_HIGH load(1, XDATA, add(CFA_XSP16, literal(-4)))
        CFI ?BRET_EXT load(1, XDATA, add(CFA_XSP16, literal(-3)))
        CFI DPL0 load(1, XDATA, add(CFA_XSP16, literal(-2)))
        CFI DPH0 load(1, XDATA, add(CFA_XSP16, literal(-1)))
        CFI CFA_SP SP+0
        CFI CFA_XSP16 add(XSP16, 27)
        CFI Block cfiCond29 Using cfiCommon0
        CFI (cfiCond29) NoFunction
        CFI (cfiCond29) Conditional ??CrossCallReturnLabel_22
        CFI (cfiCond29) R6 load(1, XDATA, add(CFA_XSP16, literal(-24)))
        CFI (cfiCond29) VB load(1, XDATA, add(CFA_XSP16, literal(-23)))
        CFI (cfiCond29) V0 load(1, XDATA, add(CFA_XSP16, literal(-22)))
        CFI (cfiCond29) V1 load(1, XDATA, add(CFA_XSP16, literal(-21)))
        CFI (cfiCond29) V2 load(1, XDATA, add(CFA_XSP16, literal(-20)))
        CFI (cfiCond29) V3 load(1, XDATA, add(CFA_XSP16, literal(-19)))
        CFI (cfiCond29) V4 load(1, XDATA, add(CFA_XSP16, literal(-18)))
        CFI (cfiCond29) V5 load(1, XDATA, add(CFA_XSP16, literal(-17)))
        CFI (cfiCond29) V6 load(1, XDATA, add(CFA_XSP16, literal(-16)))
        CFI (cfiCond29) V7 load(1, XDATA, add(CFA_XSP16, literal(-15)))
        CFI (cfiCond29) V8 load(1, XDATA, add(CFA_XSP16, literal(-14)))
        CFI (cfiCond29) V9 load(1, XDATA, add(CFA_XSP16, literal(-13)))
        CFI (cfiCond29) V10 load(1, XDATA, add(CFA_XSP16, literal(-12)))
        CFI (cfiCond29) V11 load(1, XDATA, add(CFA_XSP16, literal(-11)))
        CFI (cfiCond29) V12 load(1, XDATA, add(CFA_XSP16, literal(-10)))
        CFI (cfiCond29) V13 load(1, XDATA, add(CFA_XSP16, literal(-9)))
        CFI (cfiCond29) V14 load(1, XDATA, add(CFA_XSP16, literal(-8)))
        CFI (cfiCond29) V15 load(1, XDATA, add(CFA_XSP16, literal(-7)))
        CFI (cfiCond29) R7 load(1, XDATA, add(CFA_XSP16, literal(-6)))
        CFI (cfiCond29) ?RET_LOW load(1, XDATA, add(CFA_XSP16, literal(-5)))
        CFI (cfiCond29) ?RET_HIGH load(1, XDATA, add(CFA_XSP16, literal(-4)))
        CFI (cfiCond29) ?BRET_EXT load(1, XDATA, add(CFA_XSP16, literal(-3)))
        CFI (cfiCond29) DPL0 load(1, XDATA, add(CFA_XSP16, literal(-2)))
        CFI (cfiCond29) DPH0 load(1, XDATA, add(CFA_XSP16, literal(-1)))
        CFI (cfiCond29) CFA_SP SP+0
        CFI (cfiCond29) CFA_XSP16 add(XSP16, 27)
        CFI Block cfiPicker30 Using cfiCommon1
        CFI (cfiPicker30) NoFunction
        CFI (cfiPicker30) Picker
        MOV     DPL,R6
        MOV     DPH,R7
        MOVX    A,@DPTR
        MOV     R1,A
        LCALL   ??afFindEndPointDescList?relay
        MOV     ?V0 + 0,R2
        MOV     ?V0 + 1,R3
        RET
        CFI EndBlock cfiCond28
        CFI EndBlock cfiCond29
        CFI EndBlock cfiPicker30

        RSEG BANKED_CODE:CODE:NOROOT(0)
?Subroutine5:
        CFI Block cfiCond31 Using cfiCommon0
        CFI NoFunction
        CFI Conditional ??CrossCallReturnLabel_0
        CFI R6 load(1, XDATA, add(CFA_XSP16, literal(-24)))
        CFI VB load(1, XDATA, add(CFA_XSP16, literal(-23)))
        CFI V0 load(1, XDATA, add(CFA_XSP16, literal(-22)))
        CFI V1 load(1, XDATA, add(CFA_XSP16, literal(-21)))
        CFI V2 load(1, XDATA, add(CFA_XSP16, literal(-20)))
        CFI V3 load(1, XDATA, add(CFA_XSP16, literal(-19)))
        CFI V4 load(1, XDATA, add(CFA_XSP16, literal(-18)))
        CFI V5 load(1, XDATA, add(CFA_XSP16, literal(-17)))
        CFI V6 load(1, XDATA, add(CFA_XSP16, literal(-16)))
        CFI V7 load(1, XDATA, add(CFA_XSP16, literal(-15)))
        CFI V8 load(1, XDATA, add(CFA_XSP16, literal(-14)))
        CFI V9 load(1, XDATA, add(CFA_XSP16, literal(-13)))
        CFI V10 load(1, XDATA, add(CFA_XSP16, literal(-12)))
        CFI V11 load(1, XDATA, add(CFA_XSP16, literal(-11)))
        CFI V12 load(1, XDATA, add(CFA_XSP16, literal(-10)))
        CFI V13 load(1, XDATA, add(CFA_XSP16, literal(-9)))
        CFI V14 load(1, XDATA, add(CFA_XSP16, literal(-8)))
        CFI V15 load(1, XDATA, add(CFA_XSP16, literal(-7)))
        CFI R7 load(1, XDATA, add(CFA_XSP16, literal(-6)))
        CFI ?RET_LOW load(1, XDATA, add(CFA_XSP16, literal(-5)))
        CFI ?RET_HIGH load(1, XDATA, add(CFA_XSP16, literal(-4)))
        CFI ?BRET_EXT load(1, XDATA, add(CFA_XSP16, literal(-3)))
        CFI DPL0 load(1, XDATA, add(CFA_XSP16, literal(-2)))
        CFI DPH0 load(1, XDATA, add(CFA_XSP16, literal(-1)))
        CFI CFA_SP SP+0
        CFI CFA_XSP16 add(XSP16, 27)
        CFI Block cfiCond32 Using cfiCommon0
        CFI (cfiCond32) NoFunction
        CFI (cfiCond32) Conditional ??CrossCallReturnLabel_1
        CFI (cfiCond32) R6 load(1, XDATA, add(CFA_XSP16, literal(-24)))
        CFI (cfiCond32) VB load(1, XDATA, add(CFA_XSP16, literal(-23)))
        CFI (cfiCond32) V0 load(1, XDATA, add(CFA_XSP16, literal(-22)))
        CFI (cfiCond32) V1 load(1, XDATA, add(CFA_XSP16, literal(-21)))
        CFI (cfiCond32) V2 load(1, XDATA, add(CFA_XSP16, literal(-20)))
        CFI (cfiCond32) V3 load(1, XDATA, add(CFA_XSP16, literal(-19)))
        CFI (cfiCond32) V4 load(1, XDATA, add(CFA_XSP16, literal(-18)))
        CFI (cfiCond32) V5 load(1, XDATA, add(CFA_XSP16, literal(-17)))
        CFI (cfiCond32) V6 load(1, XDATA, add(CFA_XSP16, literal(-16)))
        CFI (cfiCond32) V7 load(1, XDATA, add(CFA_XSP16, literal(-15)))
        CFI (cfiCond32) V8 load(1, XDATA, add(CFA_XSP16, literal(-14)))
        CFI (cfiCond32) V9 load(1, XDATA, add(CFA_XSP16, literal(-13)))
        CFI (cfiCond32) V10 load(1, XDATA, add(CFA_XSP16, literal(-12)))
        CFI (cfiCond32) V11 load(1, XDATA, add(CFA_XSP16, literal(-11)))
        CFI (cfiCond32) V12 load(1, XDATA, add(CFA_XSP16, literal(-10)))
        CFI (cfiCond32) V13 load(1, XDATA, add(CFA_XSP16, literal(-9)))
        CFI (cfiCond32) V14 load(1, XDATA, add(CFA_XSP16, literal(-8)))
        CFI (cfiCond32) V15 load(1, XDATA, add(CFA_XSP16, literal(-7)))
        CFI (cfiCond32) R7 load(1, XDATA, add(CFA_XSP16, literal(-6)))
        CFI (cfiCond32) ?RET_LOW load(1, XDATA, add(CFA_XSP16, literal(-5)))
        CFI (cfiCond32) ?RET_HIGH load(1, XDATA, add(CFA_XSP16, literal(-4)))
        CFI (cfiCond32) ?BRET_EXT load(1, XDATA, add(CFA_XSP16, literal(-3)))
        CFI (cfiCond32) DPL0 load(1, XDATA, add(CFA_XSP16, literal(-2)))
        CFI (cfiCond32) DPH0 load(1, XDATA, add(CFA_XSP16, literal(-1)))
        CFI (cfiCond32) CFA_SP SP+0
        CFI (cfiCond32) CFA_XSP16 add(XSP16, 27)
        CFI Block cfiPicker33 Using cfiCommon1
        CFI (cfiPicker33) NoFunction
        CFI (cfiPicker33) Picker
        INC     DPTR
        INC     DPTR
        INC     DPTR
        INC     DPTR
        MOVX    A,@DPTR
        MOV     R2,A
        INC     DPTR
        MOVX    A,@DPTR
        MOV     R3,A
        LCALL   ??aps_FindGroupForEndpoint?relay
        MOV     A,R1
        MOV     ?V0 + 2,A
        MOV     A,#-0x2
        XRL     A,?V0 + 2
        RET
        CFI EndBlock cfiCond31
        CFI EndBlock cfiCond32
        CFI EndBlock cfiPicker33
//  403 
//  404 /*********************************************************************
//  405  * @fn          afBuildMSGIncoming
//  406  *
//  407  * @brief       Build the message for the app
//  408  *
//  409  * @param
//  410  *
//  411  * @return      pointer to next in data buffer
//  412  */

        RSEG BANKED_CODE:CODE:NOROOT(0)
//  413 static void afBuildMSGIncoming( aps_FrameFormat_t *aff, endPointDesc_t *epDesc,
afBuildMSGIncoming:
        CFI Block cfiBlock34 Using cfiCommon0
        CFI Function afBuildMSGIncoming
        CODE
//  414                  zAddrType_t *SrcAddress, uint16 SrcPanId, NLDE_Signal_t *sig,
//  415                  uint8 nwkSeqNum, uint8 SecurityUse, uint32 timestamp )
//  416 {
        FUNCALL afBuildMSGIncoming, osal_msg_allocate
        LOCFRAME ISTACK, 0, STACK
        LOCFRAME PSTACK, 0, STACK
        LOCFRAME XSTACK, 25, STACK
        LOCFRAME IOVERLAY, 0, STATIC
        LOCFRAME DOVERLAY, 0, STATIC
        ARGFRAME ISTACK, 0, STACK
        ARGFRAME PSTACK, 0, STACK
        ARGFRAME XSTACK, 25, STACK
        ARGFRAME IOVERLAY, 0, STATIC
        ARGFRAME DOVERLAY, 0, STATIC
        FUNCALL afBuildMSGIncoming, afCopyAddress
        LOCFRAME ISTACK, 0, STACK
        LOCFRAME PSTACK, 0, STACK
        LOCFRAME XSTACK, 25, STACK
        LOCFRAME IOVERLAY, 0, STATIC
        LOCFRAME DOVERLAY, 0, STATIC
        ARGFRAME ISTACK, 0, STACK
        ARGFRAME PSTACK, 0, STACK
        ARGFRAME XSTACK, 25, STACK
        ARGFRAME IOVERLAY, 0, STATIC
        ARGFRAME DOVERLAY, 0, STATIC
        FUNCALL afBuildMSGIncoming, osal_memcpy
        LOCFRAME ISTACK, 0, STACK
        LOCFRAME PSTACK, 0, STACK
        LOCFRAME XSTACK, 28, STACK
        LOCFRAME IOVERLAY, 0, STATIC
        LOCFRAME DOVERLAY, 0, STATIC
        ARGFRAME ISTACK, 0, STACK
        ARGFRAME PSTACK, 0, STACK
        ARGFRAME XSTACK, 28, STACK
        ARGFRAME IOVERLAY, 0, STATIC
        ARGFRAME DOVERLAY, 0, STATIC
        FUNCALL afBuildMSGIncoming, osal_msg_send
        LOCFRAME ISTACK, 0, STACK
        LOCFRAME PSTACK, 0, STACK
        LOCFRAME XSTACK, 25, STACK
        LOCFRAME IOVERLAY, 0, STATIC
        LOCFRAME DOVERLAY, 0, STATIC
        ARGFRAME ISTACK, 0, STACK
        ARGFRAME PSTACK, 0, STACK
        ARGFRAME XSTACK, 25, STACK
        ARGFRAME IOVERLAY, 0, STATIC
        ARGFRAME DOVERLAY, 0, STATIC
        MOV     A,#-0x18
        LCALL   ?BANKED_ENTER_XDATA
        CFI DPH0 load(1, XDATA, add(CFA_XSP16, literal(-1)))
        CFI DPL0 load(1, XDATA, add(CFA_XSP16, literal(-2)))
        CFI ?BRET_EXT load(1, XDATA, add(CFA_XSP16, literal(-3)))
        CFI ?RET_HIGH load(1, XDATA, add(CFA_XSP16, literal(-4)))
        CFI ?RET_LOW load(1, XDATA, add(CFA_XSP16, literal(-5)))
        CFI R7 load(1, XDATA, add(CFA_XSP16, literal(-6)))
        CFI V15 load(1, XDATA, add(CFA_XSP16, literal(-7)))
        CFI V14 load(1, XDATA, add(CFA_XSP16, literal(-8)))
        CFI V13 load(1, XDATA, add(CFA_XSP16, literal(-9)))
        CFI V12 load(1, XDATA, add(CFA_XSP16, literal(-10)))
        CFI V11 load(1, XDATA, add(CFA_XSP16, literal(-11)))
        CFI V10 load(1, XDATA, add(CFA_XSP16, literal(-12)))
        CFI V9 load(1, XDATA, add(CFA_XSP16, literal(-13)))
        CFI V8 load(1, XDATA, add(CFA_XSP16, literal(-14)))
        CFI V7 load(1, XDATA, add(CFA_XSP16, literal(-15)))
        CFI V6 load(1, XDATA, add(CFA_XSP16, literal(-16)))
        CFI V5 load(1, XDATA, add(CFA_XSP16, literal(-17)))
        CFI V4 load(1, XDATA, add(CFA_XSP16, literal(-18)))
        CFI V3 load(1, XDATA, add(CFA_XSP16, literal(-19)))
        CFI V2 load(1, XDATA, add(CFA_XSP16, literal(-20)))
        CFI V1 load(1, XDATA, add(CFA_XSP16, literal(-21)))
        CFI V0 load(1, XDATA, add(CFA_XSP16, literal(-22)))
        CFI VB load(1, XDATA, add(CFA_XSP16, literal(-23)))
        CFI R6 load(1, XDATA, add(CFA_XSP16, literal(-24)))
        CFI CFA_SP SP+0
        CFI CFA_XSP16 add(XSP16, 24)
        ; Saved register size: 24
        ; Auto size: 1
        MOV     A,#-0x1
        LCALL   ?ALLOC_XSTACK8
        CFI CFA_XSP16 add(XSP16, 25)
        MOV     A,R1
        MOV     DPL,?XSP + 0
        MOV     DPH,?XSP + 1
        MOVX    @DPTR,A
        MOV     ?V0 + 0,R2
        MOV     ?V0 + 1,R3
        MOV     ?V0 + 10,R4
        MOV     ?V0 + 11,R5
        MOV     A,#0x1d
        LCALL   ?XSTACK_DISP0_8
        MOVX    A,@DPTR
        MOV     ?V0 + 2,A
        INC     DPTR
        MOVX    A,@DPTR
        MOV     ?V0 + 3,A
        MOV     A,#0x20
        LCALL   ?XSTACK_DISP0_8
        MOV     R0,#?V0 + 4
        LCALL   ?L_MOV_X
//  417   afIncomingMSGPacket_t *MSGpkt;
//  418   const uint8 len = sizeof( afIncomingMSGPacket_t ) + aff->asduLength;
//  419   uint8 *asdu = aff->asdu;
        MOV     A,R2
        ADD     A,#0xe
        MOV     DPL,A
        MOV     A,R3
        LCALL   ??Subroutine42_0 & 0xFFFF
??CrossCallReturnLabel_93:
        LCALL   ?Subroutine6 & 0xFFFF
//  420   MSGpkt = (afIncomingMSGPacket_t *)osal_msg_allocate( len );
??CrossCallReturnLabel_4:
        MOV     A,R2
        ADD     A,#0x10
        MOV     ?V0 + 8,A
        MOV     A,R3
        ADDC    A,#0x0
        MOV     ?V0 + 9,A
        ; Setup parameters for call to function osal_msg_allocate
        MOV     DPL,?V0 + 8
        MOV     DPH,A
        MOVX    A,@DPTR
        ADD     A,#0x24
        MOV     R2,A
        MOV     R3,#0x0
        LCALL   ??osal_msg_allocate?relay
        MOV     ?V0 + 12,R2
        MOV     ?V0 + 13,R3
        MOV     R6,?V0 + 12
        MOV     R7,?V0 + 13
//  421 
//  422   if ( MSGpkt == NULL )
        MOV     A,R6
        ORL     A,R7
        JNZ     $+5
        LJMP    ??CrossCallReturnLabel_7 & 0xFFFF
//  423   {
//  424     return;
//  425   }
//  426 
//  427   MSGpkt->hdr.event = AF_INCOMING_MSG_CMD;
        MOV     DPL,R6
        MOV     DPH,R7
        MOV     A,#0x1a
        LCALL   ?Subroutine23 & 0xFFFF
//  428   MSGpkt->groupId = aff->GroupID;
??CrossCallReturnLabel_35:
        LCALL   ?Subroutine11 & 0xFFFF
??CrossCallReturnLabel_15:
        LCALL   ??Subroutine36_0 & 0xFFFF
//  429   MSGpkt->clusterId = aff->ClusterID;
??CrossCallReturnLabel_58:
        MOV     DPL,?V0 + 0
        MOV     DPH,?V0 + 1
        INC     DPTR
        INC     DPTR
        LCALL   ?Subroutine11 & 0xFFFF
??CrossCallReturnLabel_16:
        INC     DPTR
        INC     DPTR
        LCALL   ??Subroutine36_0 & 0xFFFF
//  430   afCopyAddress( &MSGpkt->srcAddr, SrcAddress );
??CrossCallReturnLabel_59:
        ; Setup parameters for call to function afCopyAddress
        MOV     A,#0x19
        LCALL   ?XSTACK_DISP0_8
        LCALL   ?Subroutine18 & 0xFFFF
??CrossCallReturnLabel_26:
        MOV     A,R6
        ADD     A,#0x6
        MOV     R2,A
        MOV     A,R7
        ADDC    A,#0x0
        MOV     R3,A
        LCALL   ??afCopyAddress?relay
//  431   MSGpkt->srcAddr.endPoint = aff->SrcEndPoint;
        MOV     DPL,?V0 + 0
        MOV     DPH,?V0 + 1
        INC     DPTR
        INC     DPTR
        INC     DPTR
        MOVX    A,@DPTR
        PUSH    A
        CFI CFA_SP SP+-1
        MOV     A,R6
        ADD     A,#0xf
        LCALL   ?Subroutine27 & 0xFFFF
??CrossCallReturnLabel_96:
        POP     A
        CFI CFA_SP SP+0
        MOVX    @DPTR,A
//  432   MSGpkt->endPoint = epDesc->endPoint;
        MOV     DPL,?V0 + 10
        MOV     DPH,?V0 + 11
        MOVX    A,@DPTR
        PUSH    A
        CFI CFA_SP SP+-1
        MOV     A,R6
        ADD     A,#0x14
        LCALL   ?Subroutine27 & 0xFFFF
??CrossCallReturnLabel_97:
        POP     A
        CFI CFA_SP SP+0
        MOVX    @DPTR,A
//  433   MSGpkt->wasBroadcast = aff->wasBroadcast;
        MOV     A,?V0 + 0
        ADD     A,#0xc
        MOV     DPL,A
        MOV     A,?V0 + 1
        LCALL   ??Subroutine42_0 & 0xFFFF
??CrossCallReturnLabel_94:
        MOVX    A,@DPTR
        PUSH    A
        CFI CFA_SP SP+-1
        MOV     A,R6
        ADD     A,#0x15
        LCALL   ?Subroutine27 & 0xFFFF
??CrossCallReturnLabel_98:
        POP     A
        CFI CFA_SP SP+0
        MOVX    @DPTR,A
//  434   MSGpkt->LinkQuality = sig->LinkQuality;
        MOV     DPL,?V0 + 2
        MOV     DPH,?V0 + 3
        MOVX    A,@DPTR
        PUSH    A
        CFI CFA_SP SP+-1
        MOV     A,R6
        ADD     A,#0x16
        LCALL   ?Subroutine27 & 0xFFFF
??CrossCallReturnLabel_99:
        POP     A
        CFI CFA_SP SP+0
        LCALL   ?Subroutine32 & 0xFFFF
//  435   MSGpkt->correlation = sig->correlation;
??CrossCallReturnLabel_53:
        MOVX    A,@DPTR
        PUSH    A
        CFI CFA_SP SP+-1
        MOV     A,R6
        ADD     A,#0x17
        LCALL   ?Subroutine27 & 0xFFFF
??CrossCallReturnLabel_100:
        POP     A
        CFI CFA_SP SP+0
        LCALL   ?Subroutine26 & 0xFFFF
//  436   MSGpkt->rssi = sig->rssi;
??CrossCallReturnLabel_43:
        MOVX    A,@DPTR
        PUSH    A
        CFI CFA_SP SP+-1
        MOV     A,R6
        ADD     A,#0x18
        LCALL   ?Subroutine27 & 0xFFFF
??CrossCallReturnLabel_101:
        POP     A
        CFI CFA_SP SP+0
        MOVX    @DPTR,A
//  437   MSGpkt->SecurityUse = SecurityUse;
        MOV     A,#0x1f
        LCALL   ?XSTACK_DISP0_8
        MOVX    A,@DPTR
        PUSH    A
        CFI CFA_SP SP+-1
        MOV     A,R6
        ADD     A,#0x19
        LCALL   ?Subroutine27 & 0xFFFF
??CrossCallReturnLabel_102:
        POP     A
        CFI CFA_SP SP+0
        MOVX    @DPTR,A
//  438   MSGpkt->timestamp = timestamp;
        MOV     A,R6
        ADD     A,#0x1a
        LCALL   ?Subroutine27 & 0xFFFF
??CrossCallReturnLabel_103:
        MOV     R0,#?V0 + 4
        LCALL   ?L_MOV_TO_X
//  439   MSGpkt->nwkSeqNum = nwkSeqNum;
        MOV     DPL,?XSP + 0
        MOV     DPH,?XSP + 1
        MOVX    A,@DPTR
        PUSH    A
        CFI CFA_SP SP+-1
        MOV     A,R6
        ADD     A,#0x1e
        LCALL   ?Subroutine27 & 0xFFFF
??CrossCallReturnLabel_104:
        POP     A
        CFI CFA_SP SP+0
        LCALL   ?Subroutine23 & 0xFFFF
//  440   MSGpkt->macDestAddr = aff->macDestAddr;
??CrossCallReturnLabel_36:
        INC     DPTR
        INC     DPTR
        INC     DPTR
        INC     DPTR
        INC     DPTR
        INC     DPTR
        INC     DPTR
        INC     DPTR
        INC     DPTR
        INC     DPTR
        LCALL   ??Subroutine37_0 & 0xFFFF
??CrossCallReturnLabel_68:
        MOV     A,R6
        ADD     A,#0x12
        LCALL   ?Subroutine21 & 0xFFFF
//  441   MSGpkt->srcAddr.panId = SrcPanId;
??CrossCallReturnLabel_65:
        MOV     A,#0x1b
        LCALL   ?XSTACK_DISP0_8
        LCALL   ??Subroutine37_0 & 0xFFFF
??CrossCallReturnLabel_69:
        MOV     A,R6
        ADD     A,#0x10
        LCALL   ?Subroutine21 & 0xFFFF
//  442   MSGpkt->cmd.TransSeqNumber = 0;
??CrossCallReturnLabel_66:
        MOV     A,R6
        ADD     A,#0x1f
        LCALL   ?Subroutine27 & 0xFFFF
??CrossCallReturnLabel_105:
        CLR     A
        MOVX    @DPTR,A
//  443   MSGpkt->cmd.DataLength = aff->asduLength;
        MOV     DPL,?V0 + 8
        MOV     DPH,?V0 + 9
        MOVX    A,@DPTR
        MOV     R4,A
        MOV     R5,#0x0
        MOV     A,R6
        ADD     A,#0x20
        LCALL   ?Subroutine27 & 0xFFFF
??CrossCallReturnLabel_106:
        MOV     A,R4
        MOVX    @DPTR,A
        INC     DPTR
        CLR     A
        MOVX    @DPTR,A
//  444 
//  445   if ( MSGpkt->cmd.DataLength )
        MOV     A,R6
        ADD     A,#0x22
        MOV     R0,A
        MOV     A,R7
        ADDC    A,#0x0
        MOV     R1,A
        MOV     A,R0
        MOV     R2,A
        MOV     A,R1
        MOV     R3,A
        MOV     A,R4
        JZ      ??afBuildMSGIncoming_0
//  446   {
//  447     MSGpkt->cmd.Data = (uint8 *)(MSGpkt + 1);
        MOV     A,R6
        ADD     A,#0x24
        INC     R0
        INC     R0
        MOV     A,R7
        ADDC    A,#0x0
        MOV     R1,A
        MOV     DPL,R2
        MOV     DPH,R3
        LCALL   ??Subroutine36_0 & 0xFFFF
//  448     osal_memcpy( MSGpkt->cmd.Data, asdu, MSGpkt->cmd.DataLength );
??CrossCallReturnLabel_60:
        ; Setup parameters for call to function osal_memcpy
        MOV     ?V0 + 0,?V0 + 14
        MOV     ?V0 + 1,?V0 + 15
        MOV     ?V0 + 2,R5
        MOV     R0,#?V0 + 0
        LCALL   ?PUSH_XSTACK_I_THREE
        CFI CFA_XSP16 add(XSP16, 28)
        MOV     DPL,R2
        MOV     DPH,R3
        LCALL   ??Subroutine39_0 & 0xFFFF
//  449   }
??CrossCallReturnLabel_81:
        LCALL   ??osal_memcpy?relay
        MOV     A,#0x3
        LCALL   ?DEALLOC_XSTACK8
        CFI CFA_XSP16 add(XSP16, 25)
        SJMP    ??afBuildMSGIncoming_1
//  450   else
//  451   {
//  452     MSGpkt->cmd.Data = NULL;
??afBuildMSGIncoming_0:
        MOV     DPL,R2
        MOV     DPH,R3
        CLR     A
        MOVX    @DPTR,A
        INC     DPTR
        MOVX    @DPTR,A
//  453   }
//  454 
//  455 #if defined ( MT_AF_CB_FUNC )
//  456   // If ZDO or SAPI have registered for this endpoint, dont intercept it here
//  457   if (AFCB_CHECK(CB_ID_AF_DATA_IND, *(epDesc->task_id)))
//  458   {
//  459     MT_AfIncomingMsg( (void *)MSGpkt );
//  460     // Release the memory.
//  461     osal_msg_deallocate( (void *)MSGpkt );
//  462   }
//  463   else
//  464 #endif
//  465   {
//  466     // Send message through task message.
//  467     osal_msg_send( *(epDesc->task_id), (uint8 *)MSGpkt );
??afBuildMSGIncoming_1:
        ; Setup parameters for call to function osal_msg_send
        MOV     A,R6
        MOV     R2,A
        MOV     A,R7
        MOV     R3,A
        MOV     DPL,?V0 + 10
        MOV     DPH,?V0 + 11
        LCALL   ?Subroutine7 & 0xFFFF
//  468   }
//  469 }
??CrossCallReturnLabel_7:
        MOV     A,#0x1
        LJMP    ?Subroutine3 & 0xFFFF
        CFI EndBlock cfiBlock34

        RSEG BANKED_CODE:CODE:NOROOT(0)
?Subroutine11:
        CFI Block cfiCond35 Using cfiCommon0
        CFI NoFunction
        CFI Conditional ??CrossCallReturnLabel_15
        CFI R6 load(1, XDATA, add(CFA_XSP16, literal(-24)))
        CFI VB load(1, XDATA, add(CFA_XSP16, literal(-23)))
        CFI V0 load(1, XDATA, add(CFA_XSP16, literal(-22)))
        CFI V1 load(1, XDATA, add(CFA_XSP16, literal(-21)))
        CFI V2 load(1, XDATA, add(CFA_XSP16, literal(-20)))
        CFI V3 load(1, XDATA, add(CFA_XSP16, literal(-19)))
        CFI V4 load(1, XDATA, add(CFA_XSP16, literal(-18)))
        CFI V5 load(1, XDATA, add(CFA_XSP16, literal(-17)))
        CFI V6 load(1, XDATA, add(CFA_XSP16, literal(-16)))
        CFI V7 load(1, XDATA, add(CFA_XSP16, literal(-15)))
        CFI V8 load(1, XDATA, add(CFA_XSP16, literal(-14)))
        CFI V9 load(1, XDATA, add(CFA_XSP16, literal(-13)))
        CFI V10 load(1, XDATA, add(CFA_XSP16, literal(-12)))
        CFI V11 load(1, XDATA, add(CFA_XSP16, literal(-11)))
        CFI V12 load(1, XDATA, add(CFA_XSP16, literal(-10)))
        CFI V13 load(1, XDATA, add(CFA_XSP16, literal(-9)))
        CFI V14 load(1, XDATA, add(CFA_XSP16, literal(-8)))
        CFI V15 load(1, XDATA, add(CFA_XSP16, literal(-7)))
        CFI R7 load(1, XDATA, add(CFA_XSP16, literal(-6)))
        CFI ?RET_LOW load(1, XDATA, add(CFA_XSP16, literal(-5)))
        CFI ?RET_HIGH load(1, XDATA, add(CFA_XSP16, literal(-4)))
        CFI ?BRET_EXT load(1, XDATA, add(CFA_XSP16, literal(-3)))
        CFI DPL0 load(1, XDATA, add(CFA_XSP16, literal(-2)))
        CFI DPH0 load(1, XDATA, add(CFA_XSP16, literal(-1)))
        CFI CFA_SP SP+0
        CFI CFA_XSP16 add(XSP16, 25)
        CFI Block cfiCond36 Using cfiCommon0
        CFI (cfiCond36) NoFunction
        CFI (cfiCond36) Conditional ??CrossCallReturnLabel_16
        CFI (cfiCond36) R6 load(1, XDATA, add(CFA_XSP16, literal(-24)))
        CFI (cfiCond36) VB load(1, XDATA, add(CFA_XSP16, literal(-23)))
        CFI (cfiCond36) V0 load(1, XDATA, add(CFA_XSP16, literal(-22)))
        CFI (cfiCond36) V1 load(1, XDATA, add(CFA_XSP16, literal(-21)))
        CFI (cfiCond36) V2 load(1, XDATA, add(CFA_XSP16, literal(-20)))
        CFI (cfiCond36) V3 load(1, XDATA, add(CFA_XSP16, literal(-19)))
        CFI (cfiCond36) V4 load(1, XDATA, add(CFA_XSP16, literal(-18)))
        CFI (cfiCond36) V5 load(1, XDATA, add(CFA_XSP16, literal(-17)))
        CFI (cfiCond36) V6 load(1, XDATA, add(CFA_XSP16, literal(-16)))
        CFI (cfiCond36) V7 load(1, XDATA, add(CFA_XSP16, literal(-15)))
        CFI (cfiCond36) V8 load(1, XDATA, add(CFA_XSP16, literal(-14)))
        CFI (cfiCond36) V9 load(1, XDATA, add(CFA_XSP16, literal(-13)))
        CFI (cfiCond36) V10 load(1, XDATA, add(CFA_XSP16, literal(-12)))
        CFI (cfiCond36) V11 load(1, XDATA, add(CFA_XSP16, literal(-11)))
        CFI (cfiCond36) V12 load(1, XDATA, add(CFA_XSP16, literal(-10)))
        CFI (cfiCond36) V13 load(1, XDATA, add(CFA_XSP16, literal(-9)))
        CFI (cfiCond36) V14 load(1, XDATA, add(CFA_XSP16, literal(-8)))
        CFI (cfiCond36) V15 load(1, XDATA, add(CFA_XSP16, literal(-7)))
        CFI (cfiCond36) R7 load(1, XDATA, add(CFA_XSP16, literal(-6)))
        CFI (cfiCond36) ?RET_LOW load(1, XDATA, add(CFA_XSP16, literal(-5)))
        CFI (cfiCond36) ?RET_HIGH load(1, XDATA, add(CFA_XSP16, literal(-4)))
        CFI (cfiCond36) ?BRET_EXT load(1, XDATA, add(CFA_XSP16, literal(-3)))
        CFI (cfiCond36) DPL0 load(1, XDATA, add(CFA_XSP16, literal(-2)))
        CFI (cfiCond36) DPH0 load(1, XDATA, add(CFA_XSP16, literal(-1)))
        CFI (cfiCond36) CFA_SP SP+0
        CFI (cfiCond36) CFA_XSP16 add(XSP16, 25)
        CFI Block cfiPicker37 Using cfiCommon1
        CFI (cfiPicker37) NoFunction
        CFI (cfiPicker37) Picker
        INC     DPTR
        INC     DPTR
        INC     DPTR
        INC     DPTR
        LCALL   ?Subroutine34 & 0xFFFF
??CrossCallReturnLabel_55:
        INC     DPTR
        INC     DPTR
        RET
        CFI EndBlock cfiCond35
        CFI EndBlock cfiCond36
        CFI EndBlock cfiPicker37

        RSEG BANKED_CODE:CODE:NOROOT(0)
?Subroutine7:
        CFI Block cfiCond38 Using cfiCommon0
        CFI NoFunction
        CFI Conditional ??CrossCallReturnLabel_6
        CFI R6 load(1, XDATA, add(CFA_XSP16, literal(-14)))
        CFI VB load(1, XDATA, add(CFA_XSP16, literal(-13)))
        CFI V0 load(1, XDATA, add(CFA_XSP16, literal(-12)))
        CFI V1 load(1, XDATA, add(CFA_XSP16, literal(-11)))
        CFI V2 load(1, XDATA, add(CFA_XSP16, literal(-10)))
        CFI V3 load(1, XDATA, add(CFA_XSP16, literal(-9)))
        CFI V4 load(1, XDATA, add(CFA_XSP16, literal(-8)))
        CFI V5 load(1, XDATA, add(CFA_XSP16, literal(-7)))
        CFI R7 load(1, XDATA, add(CFA_XSP16, literal(-6)))
        CFI ?RET_LOW load(1, XDATA, add(CFA_XSP16, literal(-5)))
        CFI ?RET_HIGH load(1, XDATA, add(CFA_XSP16, literal(-4)))
        CFI ?BRET_EXT load(1, XDATA, add(CFA_XSP16, literal(-3)))
        CFI DPL0 load(1, XDATA, add(CFA_XSP16, literal(-2)))
        CFI DPH0 load(1, XDATA, add(CFA_XSP16, literal(-1)))
        CFI CFA_SP SP+0
        CFI CFA_XSP16 add(XSP16, 14)
        CFI Block cfiCond39 Using cfiCommon0
        CFI (cfiCond39) NoFunction
        CFI (cfiCond39) Conditional ??CrossCallReturnLabel_7
        CFI (cfiCond39) R6 load(1, XDATA, add(CFA_XSP16, literal(-24)))
        CFI (cfiCond39) VB load(1, XDATA, add(CFA_XSP16, literal(-23)))
        CFI (cfiCond39) V0 load(1, XDATA, add(CFA_XSP16, literal(-22)))
        CFI (cfiCond39) V1 load(1, XDATA, add(CFA_XSP16, literal(-21)))
        CFI (cfiCond39) V2 load(1, XDATA, add(CFA_XSP16, literal(-20)))
        CFI (cfiCond39) V3 load(1, XDATA, add(CFA_XSP16, literal(-19)))
        CFI (cfiCond39) V4 load(1, XDATA, add(CFA_XSP16, literal(-18)))
        CFI (cfiCond39) V5 load(1, XDATA, add(CFA_XSP16, literal(-17)))
        CFI (cfiCond39) V6 load(1, XDATA, add(CFA_XSP16, literal(-16)))
        CFI (cfiCond39) V7 load(1, XDATA, add(CFA_XSP16, literal(-15)))
        CFI (cfiCond39) V8 load(1, XDATA, add(CFA_XSP16, literal(-14)))
        CFI (cfiCond39) V9 load(1, XDATA, add(CFA_XSP16, literal(-13)))
        CFI (cfiCond39) V10 load(1, XDATA, add(CFA_XSP16, literal(-12)))
        CFI (cfiCond39) V11 load(1, XDATA, add(CFA_XSP16, literal(-11)))
        CFI (cfiCond39) V12 load(1, XDATA, add(CFA_XSP16, literal(-10)))
        CFI (cfiCond39) V13 load(1, XDATA, add(CFA_XSP16, literal(-9)))
        CFI (cfiCond39) V14 load(1, XDATA, add(CFA_XSP16, literal(-8)))
        CFI (cfiCond39) V15 load(1, XDATA, add(CFA_XSP16, literal(-7)))
        CFI (cfiCond39) R7 load(1, XDATA, add(CFA_XSP16, literal(-6)))
        CFI (cfiCond39) ?RET_LOW load(1, XDATA, add(CFA_XSP16, literal(-5)))
        CFI (cfiCond39) ?RET_HIGH load(1, XDATA, add(CFA_XSP16, literal(-4)))
        CFI (cfiCond39) ?BRET_EXT load(1, XDATA, add(CFA_XSP16, literal(-3)))
        CFI (cfiCond39) DPL0 load(1, XDATA, add(CFA_XSP16, literal(-2)))
        CFI (cfiCond39) DPH0 load(1, XDATA, add(CFA_XSP16, literal(-1)))
        CFI (cfiCond39) CFA_SP SP+0
        CFI (cfiCond39) CFA_XSP16 add(XSP16, 25)
        CFI Block cfiPicker40 Using cfiCommon1
        CFI (cfiPicker40) NoFunction
        CFI (cfiPicker40) Picker
        LCALL   ??Subroutine40_0 & 0xFFFF
??CrossCallReturnLabel_90:
        MOVX    A,@DPTR
        MOV     R1,A
        LCALL   ??osal_msg_send?relay
        RET
        CFI EndBlock cfiCond38
        CFI EndBlock cfiCond39
        CFI EndBlock cfiPicker40

        RSEG BANKED_CODE:CODE:NOROOT(0)
?Subroutine6:
        CFI Block cfiCond41 Using cfiCommon0
        CFI NoFunction
        CFI Conditional ??CrossCallReturnLabel_2
        CFI R6 load(1, XDATA, add(CFA_XSP16, literal(-24)))
        CFI VB load(1, XDATA, add(CFA_XSP16, literal(-23)))
        CFI V0 load(1, XDATA, add(CFA_XSP16, literal(-22)))
        CFI V1 load(1, XDATA, add(CFA_XSP16, literal(-21)))
        CFI V2 load(1, XDATA, add(CFA_XSP16, literal(-20)))
        CFI V3 load(1, XDATA, add(CFA_XSP16, literal(-19)))
        CFI V4 load(1, XDATA, add(CFA_XSP16, literal(-18)))
        CFI V5 load(1, XDATA, add(CFA_XSP16, literal(-17)))
        CFI V6 load(1, XDATA, add(CFA_XSP16, literal(-16)))
        CFI V7 load(1, XDATA, add(CFA_XSP16, literal(-15)))
        CFI V8 load(1, XDATA, add(CFA_XSP16, literal(-14)))
        CFI V9 load(1, XDATA, add(CFA_XSP16, literal(-13)))
        CFI V10 load(1, XDATA, add(CFA_XSP16, literal(-12)))
        CFI V11 load(1, XDATA, add(CFA_XSP16, literal(-11)))
        CFI V12 load(1, XDATA, add(CFA_XSP16, literal(-10)))
        CFI V13 load(1, XDATA, add(CFA_XSP16, literal(-9)))
        CFI V14 load(1, XDATA, add(CFA_XSP16, literal(-8)))
        CFI V15 load(1, XDATA, add(CFA_XSP16, literal(-7)))
        CFI R7 load(1, XDATA, add(CFA_XSP16, literal(-6)))
        CFI ?RET_LOW load(1, XDATA, add(CFA_XSP16, literal(-5)))
        CFI ?RET_HIGH load(1, XDATA, add(CFA_XSP16, literal(-4)))
        CFI ?BRET_EXT load(1, XDATA, add(CFA_XSP16, literal(-3)))
        CFI DPL0 load(1, XDATA, add(CFA_XSP16, literal(-2)))
        CFI DPH0 load(1, XDATA, add(CFA_XSP16, literal(-1)))
        CFI CFA_SP SP+0
        CFI CFA_XSP16 add(XSP16, 27)
        CFI Block cfiCond42 Using cfiCommon0
        CFI (cfiCond42) NoFunction
        CFI (cfiCond42) Conditional ??CrossCallReturnLabel_3
        CFI (cfiCond42) R6 load(1, XDATA, add(CFA_XSP16, literal(-24)))
        CFI (cfiCond42) VB load(1, XDATA, add(CFA_XSP16, literal(-23)))
        CFI (cfiCond42) V0 load(1, XDATA, add(CFA_XSP16, literal(-22)))
        CFI (cfiCond42) V1 load(1, XDATA, add(CFA_XSP16, literal(-21)))
        CFI (cfiCond42) V2 load(1, XDATA, add(CFA_XSP16, literal(-20)))
        CFI (cfiCond42) V3 load(1, XDATA, add(CFA_XSP16, literal(-19)))
        CFI (cfiCond42) V4 load(1, XDATA, add(CFA_XSP16, literal(-18)))
        CFI (cfiCond42) V5 load(1, XDATA, add(CFA_XSP16, literal(-17)))
        CFI (cfiCond42) V6 load(1, XDATA, add(CFA_XSP16, literal(-16)))
        CFI (cfiCond42) V7 load(1, XDATA, add(CFA_XSP16, literal(-15)))
        CFI (cfiCond42) V8 load(1, XDATA, add(CFA_XSP16, literal(-14)))
        CFI (cfiCond42) V9 load(1, XDATA, add(CFA_XSP16, literal(-13)))
        CFI (cfiCond42) V10 load(1, XDATA, add(CFA_XSP16, literal(-12)))
        CFI (cfiCond42) V11 load(1, XDATA, add(CFA_XSP16, literal(-11)))
        CFI (cfiCond42) V12 load(1, XDATA, add(CFA_XSP16, literal(-10)))
        CFI (cfiCond42) V13 load(1, XDATA, add(CFA_XSP16, literal(-9)))
        CFI (cfiCond42) V14 load(1, XDATA, add(CFA_XSP16, literal(-8)))
        CFI (cfiCond42) V15 load(1, XDATA, add(CFA_XSP16, literal(-7)))
        CFI (cfiCond42) R7 load(1, XDATA, add(CFA_XSP16, literal(-6)))
        CFI (cfiCond42) ?RET_LOW load(1, XDATA, add(CFA_XSP16, literal(-5)))
        CFI (cfiCond42) ?RET_HIGH load(1, XDATA, add(CFA_XSP16, literal(-4)))
        CFI (cfiCond42) ?BRET_EXT load(1, XDATA, add(CFA_XSP16, literal(-3)))
        CFI (cfiCond42) DPL0 load(1, XDATA, add(CFA_XSP16, literal(-2)))
        CFI (cfiCond42) DPH0 load(1, XDATA, add(CFA_XSP16, literal(-1)))
        CFI (cfiCond42) CFA_SP SP+0
        CFI (cfiCond42) CFA_XSP16 add(XSP16, 27)
        CFI Block cfiCond43 Using cfiCommon0
        CFI (cfiCond43) NoFunction
        CFI (cfiCond43) Conditional ??CrossCallReturnLabel_4
        CFI (cfiCond43) R6 load(1, XDATA, add(CFA_XSP16, literal(-24)))
        CFI (cfiCond43) VB load(1, XDATA, add(CFA_XSP16, literal(-23)))
        CFI (cfiCond43) V0 load(1, XDATA, add(CFA_XSP16, literal(-22)))
        CFI (cfiCond43) V1 load(1, XDATA, add(CFA_XSP16, literal(-21)))
        CFI (cfiCond43) V2 load(1, XDATA, add(CFA_XSP16, literal(-20)))
        CFI (cfiCond43) V3 load(1, XDATA, add(CFA_XSP16, literal(-19)))
        CFI (cfiCond43) V4 load(1, XDATA, add(CFA_XSP16, literal(-18)))
        CFI (cfiCond43) V5 load(1, XDATA, add(CFA_XSP16, literal(-17)))
        CFI (cfiCond43) V6 load(1, XDATA, add(CFA_XSP16, literal(-16)))
        CFI (cfiCond43) V7 load(1, XDATA, add(CFA_XSP16, literal(-15)))
        CFI (cfiCond43) V8 load(1, XDATA, add(CFA_XSP16, literal(-14)))
        CFI (cfiCond43) V9 load(1, XDATA, add(CFA_XSP16, literal(-13)))
        CFI (cfiCond43) V10 load(1, XDATA, add(CFA_XSP16, literal(-12)))
        CFI (cfiCond43) V11 load(1, XDATA, add(CFA_XSP16, literal(-11)))
        CFI (cfiCond43) V12 load(1, XDATA, add(CFA_XSP16, literal(-10)))
        CFI (cfiCond43) V13 load(1, XDATA, add(CFA_XSP16, literal(-9)))
        CFI (cfiCond43) V14 load(1, XDATA, add(CFA_XSP16, literal(-8)))
        CFI (cfiCond43) V15 load(1, XDATA, add(CFA_XSP16, literal(-7)))
        CFI (cfiCond43) R7 load(1, XDATA, add(CFA_XSP16, literal(-6)))
        CFI (cfiCond43) ?RET_LOW load(1, XDATA, add(CFA_XSP16, literal(-5)))
        CFI (cfiCond43) ?RET_HIGH load(1, XDATA, add(CFA_XSP16, literal(-4)))
        CFI (cfiCond43) ?BRET_EXT load(1, XDATA, add(CFA_XSP16, literal(-3)))
        CFI (cfiCond43) DPL0 load(1, XDATA, add(CFA_XSP16, literal(-2)))
        CFI (cfiCond43) DPH0 load(1, XDATA, add(CFA_XSP16, literal(-1)))
        CFI (cfiCond43) CFA_SP SP+0
        CFI (cfiCond43) CFA_XSP16 add(XSP16, 25)
        CFI Block cfiCond44 Using cfiCommon0
        CFI (cfiCond44) NoFunction
        CFI (cfiCond44) Conditional ??CrossCallReturnLabel_5
        CFI (cfiCond44) R6 load(1, XDATA, add(CFA_XSP16, literal(-24)))
        CFI (cfiCond44) VB load(1, XDATA, add(CFA_XSP16, literal(-23)))
        CFI (cfiCond44) V0 load(1, XDATA, add(CFA_XSP16, literal(-22)))
        CFI (cfiCond44) V1 load(1, XDATA, add(CFA_XSP16, literal(-21)))
        CFI (cfiCond44) V2 load(1, XDATA, add(CFA_XSP16, literal(-20)))
        CFI (cfiCond44) V3 load(1, XDATA, add(CFA_XSP16, literal(-19)))
        CFI (cfiCond44) V4 load(1, XDATA, add(CFA_XSP16, literal(-18)))
        CFI (cfiCond44) V5 load(1, XDATA, add(CFA_XSP16, literal(-17)))
        CFI (cfiCond44) V6 load(1, XDATA, add(CFA_XSP16, literal(-16)))
        CFI (cfiCond44) V7 load(1, XDATA, add(CFA_XSP16, literal(-15)))
        CFI (cfiCond44) V8 load(1, XDATA, add(CFA_XSP16, literal(-14)))
        CFI (cfiCond44) V9 load(1, XDATA, add(CFA_XSP16, literal(-13)))
        CFI (cfiCond44) V10 load(1, XDATA, add(CFA_XSP16, literal(-12)))
        CFI (cfiCond44) V11 load(1, XDATA, add(CFA_XSP16, literal(-11)))
        CFI (cfiCond44) V12 load(1, XDATA, add(CFA_XSP16, literal(-10)))
        CFI (cfiCond44) V13 load(1, XDATA, add(CFA_XSP16, literal(-9)))
        CFI (cfiCond44) V14 load(1, XDATA, add(CFA_XSP16, literal(-8)))
        CFI (cfiCond44) V15 load(1, XDATA, add(CFA_XSP16, literal(-7)))
        CFI (cfiCond44) R7 load(1, XDATA, add(CFA_XSP16, literal(-6)))
        CFI (cfiCond44) ?RET_LOW load(1, XDATA, add(CFA_XSP16, literal(-5)))
        CFI (cfiCond44) ?RET_HIGH load(1, XDATA, add(CFA_XSP16, literal(-4)))
        CFI (cfiCond44) ?BRET_EXT load(1, XDATA, add(CFA_XSP16, literal(-3)))
        CFI (cfiCond44) DPL0 load(1, XDATA, add(CFA_XSP16, literal(-2)))
        CFI (cfiCond44) DPH0 load(1, XDATA, add(CFA_XSP16, literal(-1)))
        CFI (cfiCond44) CFA_SP SP+0
        CFI (cfiCond44) CFA_XSP16 add(XSP16, 54)
        CFI Block cfiPicker45 Using cfiCommon1
        CFI (cfiPicker45) NoFunction
        CFI (cfiPicker45) Picker
        MOVX    A,@DPTR
        MOV     ?V0 + 14,A
        INC     DPTR
        MOVX    A,@DPTR
        MOV     ?V0 + 15,A
        RET
        CFI EndBlock cfiCond41
        CFI EndBlock cfiCond42
        CFI EndBlock cfiCond43
        CFI EndBlock cfiCond44
        CFI EndBlock cfiPicker45
//  470 
//  471 /*********************************************************************
//  472  * @fn      AF_DataRequest
//  473  *
//  474  * @brief   Common functionality for invoking APSDE_DataReq() for both
//  475  *          SendMulti and MSG-Send.
//  476  *
//  477  * input parameters
//  478  *
//  479  * @param  *dstAddr - Full ZB destination address: Nwk Addr + End Point.
//  480  * @param  *srcEP - Origination (i.e. respond to or ack to) End Point Descr.
//  481  * @param   cID - A valid cluster ID as specified by the Profile.
//  482  * @param   len - Number of bytes of data pointed to by next param.
//  483  * @param  *buf - A pointer to the data bytes to send.
//  484  * @param  *transID - A pointer to a byte which can be modified and which will
//  485  *                    be used as the transaction sequence number of the msg.
//  486  * @param   options - Valid bit mask of Tx options.
//  487  * @param   radius - Normally set to AF_DEFAULT_RADIUS.
//  488  *
//  489  * output parameters
//  490  *
//  491  * @param  *transID - Incremented by one if the return value is success.
//  492  *
//  493  * @return  afStatus_t - See previous definition of afStatus_... types.
//  494  */

        RSEG XDATA_I:XDATA:NOROOT(0)
//  495 uint8 AF_DataRequestDiscoverRoute = TRUE;
AF_DataRequestDiscoverRoute:
        DATA8
        DS 1
        REQUIRE `?<Initializer for AF_DataRequestDiscoverRoute>`
        REQUIRE __INIT_XDATA_I

        RSEG BANKED_CODE:CODE:NOROOT(0)
//  496 afStatus_t AF_DataRequest( afAddrType_t *dstAddr, endPointDesc_t *srcEP,
AF_DataRequest:
        CFI Block cfiBlock46 Using cfiCommon0
        CFI Function AF_DataRequest
        CODE
//  497                            uint16 cID, uint16 len, uint8 *buf, uint8 *transID,
//  498                            uint8 options, uint8 radius )
//  499 {
        FUNCALL AF_DataRequest, NLME_GetShortAddr
        LOCFRAME ISTACK, 0, STACK
        LOCFRAME PSTACK, 0, STACK
        LOCFRAME XSTACK, 54, STACK
        LOCFRAME IOVERLAY, 0, STATIC
        LOCFRAME DOVERLAY, 0, STATIC
        ARGFRAME ISTACK, 0, STACK
        ARGFRAME PSTACK, 0, STACK
        ARGFRAME XSTACK, 54, STACK
        ARGFRAME IOVERLAY, 0, STATIC
        ARGFRAME DOVERLAY, 0, STATIC
        FUNCALL AF_DataRequest, RTG_CheckRtStatus
        LOCFRAME ISTACK, 0, STACK
        LOCFRAME PSTACK, 0, STACK
        LOCFRAME XSTACK, 54, STACK
        LOCFRAME IOVERLAY, 0, STATIC
        LOCFRAME DOVERLAY, 0, STATIC
        ARGFRAME ISTACK, 0, STACK
        ARGFRAME PSTACK, 0, STACK
        ARGFRAME XSTACK, 54, STACK
        ARGFRAME IOVERLAY, 0, STATIC
        ARGFRAME DOVERLAY, 0, STATIC
        FUNCALL AF_DataRequest, NLME_IsAddressBroadcast
        LOCFRAME ISTACK, 0, STACK
        LOCFRAME PSTACK, 0, STACK
        LOCFRAME XSTACK, 54, STACK
        LOCFRAME IOVERLAY, 0, STATIC
        LOCFRAME DOVERLAY, 0, STATIC
        ARGFRAME ISTACK, 0, STACK
        ARGFRAME PSTACK, 0, STACK
        ARGFRAME XSTACK, 54, STACK
        ARGFRAME IOVERLAY, 0, STATIC
        ARGFRAME DOVERLAY, 0, STATIC
        FUNCALL AF_DataRequest, sAddrExtCpy
        LOCFRAME ISTACK, 0, STACK
        LOCFRAME PSTACK, 0, STACK
        LOCFRAME XSTACK, 54, STACK
        LOCFRAME IOVERLAY, 0, STATIC
        LOCFRAME DOVERLAY, 0, STATIC
        ARGFRAME ISTACK, 0, STACK
        ARGFRAME PSTACK, 0, STACK
        ARGFRAME XSTACK, 54, STACK
        ARGFRAME IOVERLAY, 0, STATIC
        ARGFRAME DOVERLAY, 0, STATIC
        FUNCALL AF_DataRequest, osal_mem_free
        LOCFRAME ISTACK, 0, STACK
        LOCFRAME PSTACK, 0, STACK
        LOCFRAME XSTACK, 54, STACK
        LOCFRAME IOVERLAY, 0, STATIC
        LOCFRAME DOVERLAY, 0, STATIC
        ARGFRAME ISTACK, 0, STACK
        ARGFRAME PSTACK, 0, STACK
        ARGFRAME XSTACK, 54, STACK
        ARGFRAME IOVERLAY, 0, STATIC
        ARGFRAME DOVERLAY, 0, STATIC
        FUNCALL AF_DataRequest, afDataReqMTU
        LOCFRAME ISTACK, 0, STACK
        LOCFRAME PSTACK, 0, STACK
        LOCFRAME XSTACK, 54, STACK
        LOCFRAME IOVERLAY, 0, STATIC
        LOCFRAME DOVERLAY, 0, STATIC
        ARGFRAME ISTACK, 0, STACK
        ARGFRAME PSTACK, 0, STACK
        ARGFRAME XSTACK, 54, STACK
        ARGFRAME IOVERLAY, 0, STATIC
        ARGFRAME DOVERLAY, 0, STATIC
        FUNCALL AF_DataRequest, APSDE_DataReq
        LOCFRAME ISTACK, 0, STACK
        LOCFRAME PSTACK, 0, STACK
        LOCFRAME XSTACK, 54, STACK
        LOCFRAME IOVERLAY, 0, STATIC
        LOCFRAME DOVERLAY, 0, STATIC
        ARGFRAME ISTACK, 0, STACK
        ARGFRAME PSTACK, 0, STACK
        ARGFRAME XSTACK, 54, STACK
        ARGFRAME IOVERLAY, 0, STATIC
        ARGFRAME DOVERLAY, 0, STATIC
        FUNCALL AF_DataRequest, NLME_GetShortAddr
        LOCFRAME ISTACK, 0, STACK
        LOCFRAME PSTACK, 0, STACK
        LOCFRAME XSTACK, 54, STACK
        LOCFRAME IOVERLAY, 0, STATIC
        LOCFRAME DOVERLAY, 0, STATIC
        ARGFRAME ISTACK, 0, STACK
        ARGFRAME PSTACK, 0, STACK
        ARGFRAME XSTACK, 54, STACK
        ARGFRAME IOVERLAY, 0, STATIC
        ARGFRAME DOVERLAY, 0, STATIC
        FUNCALL AF_DataRequest, afDataConfirm
        LOCFRAME ISTACK, 0, STACK
        LOCFRAME PSTACK, 0, STACK
        LOCFRAME XSTACK, 54, STACK
        LOCFRAME IOVERLAY, 0, STATIC
        LOCFRAME DOVERLAY, 0, STATIC
        ARGFRAME ISTACK, 0, STACK
        ARGFRAME PSTACK, 0, STACK
        ARGFRAME XSTACK, 54, STACK
        ARGFRAME IOVERLAY, 0, STATIC
        ARGFRAME DOVERLAY, 0, STATIC
        MOV     A,#-0x18
        LCALL   ?BANKED_ENTER_XDATA
        CFI DPH0 load(1, XDATA, add(CFA_XSP16, literal(-1)))
        CFI DPL0 load(1, XDATA, add(CFA_XSP16, literal(-2)))
        CFI ?BRET_EXT load(1, XDATA, add(CFA_XSP16, literal(-3)))
        CFI ?RET_HIGH load(1, XDATA, add(CFA_XSP16, literal(-4)))
        CFI ?RET_LOW load(1, XDATA, add(CFA_XSP16, literal(-5)))
        CFI R7 load(1, XDATA, add(CFA_XSP16, literal(-6)))
        CFI V15 load(1, XDATA, add(CFA_XSP16, literal(-7)))
        CFI V14 load(1, XDATA, add(CFA_XSP16, literal(-8)))
        CFI V13 load(1, XDATA, add(CFA_XSP16, literal(-9)))
        CFI V12 load(1, XDATA, add(CFA_XSP16, literal(-10)))
        CFI V11 load(1, XDATA, add(CFA_XSP16, literal(-11)))
        CFI V10 load(1, XDATA, add(CFA_XSP16, literal(-12)))
        CFI V9 load(1, XDATA, add(CFA_XSP16, literal(-13)))
        CFI V8 load(1, XDATA, add(CFA_XSP16, literal(-14)))
        CFI V7 load(1, XDATA, add(CFA_XSP16, literal(-15)))
        CFI V6 load(1, XDATA, add(CFA_XSP16, literal(-16)))
        CFI V5 load(1, XDATA, add(CFA_XSP16, literal(-17)))
        CFI V4 load(1, XDATA, add(CFA_XSP16, literal(-18)))
        CFI V3 load(1, XDATA, add(CFA_XSP16, literal(-19)))
        CFI V2 load(1, XDATA, add(CFA_XSP16, literal(-20)))
        CFI V1 load(1, XDATA, add(CFA_XSP16, literal(-21)))
        CFI V0 load(1, XDATA, add(CFA_XSP16, literal(-22)))
        CFI VB load(1, XDATA, add(CFA_XSP16, literal(-23)))
        CFI R6 load(1, XDATA, add(CFA_XSP16, literal(-24)))
        CFI CFA_SP SP+0
        CFI CFA_XSP16 add(XSP16, 24)
        ; Saved register size: 24
        ; Auto size: 30
        MOV     A,#-0x1e
        LCALL   ?ALLOC_XSTACK8
        CFI CFA_XSP16 add(XSP16, 54)
        MOV     ?V0 + 2,R2
        MOV     ?V0 + 3,R3
        MOV     A,R4
        MOV     R6,A
        MOV     A,R5
        MOV     R7,A
        MOV     ?V0 + 4,R1
        MOV     A,#0x36
        LCALL   ?XSTACK_DISP0_8
        MOVX    A,@DPTR
        MOV     ?V0 + 12,A
        INC     DPTR
        MOVX    A,@DPTR
        MOV     ?V0 + 13,A
        MOV     A,#0x38
        LCALL   ?XSTACK_DISP0_8
        MOVX    A,@DPTR
        MOV     ?V0 + 8,A
        INC     DPTR
        MOVX    A,@DPTR
        MOV     ?V0 + 9,A
        MOV     A,#0x3a
        LCALL   ?XSTACK_DISP0_8
        LCALL   ?Subroutine6 & 0xFFFF
??CrossCallReturnLabel_5:
        MOV     A,#0x3c
        LCALL   ?XSTACK_DISP0_8
        MOVX    A,@DPTR
        MOV     ?V0 + 6,A
        INC     DPTR
        MOVX    A,@DPTR
        MOV     ?V0 + 7,A
        MOV     A,#0x3e
        LCALL   ?XSTACK_DISP0_8
        MOVX    A,@DPTR
        MOV     ?V0 + 5,A
//  500   pDescCB pfnDescCB;
//  501   ZStatus_t stat;
//  502   APSDE_DataReq_t req;
//  503   afDataReqMTU_t mtu;
//  504 
//  505   // Verify source end point
//  506   if ( srcEP == NULL )
        MOV     A,R6
        ORL     A,R7
        JNZ     ??AF_DataRequest_0
//  507   {
//  508     return afStatus_INVALID_PARAMETER;
??AF_DataRequest_1:
        MOV     R1,#0x2
        LJMP    ??AF_DataRequest_2 & 0xFFFF
//  509   }
//  510 
//  511 #if !defined( REFLECTOR )
//  512   if ( dstAddr->addrMode == afAddrNotPresent )
//  513   {
//  514     return afStatus_INVALID_PARAMETER;
//  515   }
//  516 #endif
//  517 
//  518   // Check if route is available before sending data
//  519   if ( options & AF_LIMIT_CONCENTRATOR  )
??AF_DataRequest_0:
        MOV     A,R2
        ADD     A,#0x8
        MOV     ?V0 + 0,A
        MOV     A,R3
        ADDC    A,#0x0
        MOV     ?V0 + 1,A
        MOV     A,R1
        MOV     C,0xE0 /* A   */.3
        JNC     ??AF_DataRequest_3
//  520   {
//  521     if ( dstAddr->addrMode != afAddr16Bit )
        MOV     DPL,?V0 + 0
        MOV     DPH,?V0 + 1
        MOVX    A,@DPTR
        XRL     A,#0x2
        JNZ     ??AF_DataRequest_1
//  522     {
//  523       return ( afStatus_INVALID_PARAMETER );
//  524     }
//  525 
//  526     // First, make sure the destination is not its self, then check for an existing route.
//  527     if ( (dstAddr->addr.shortAddr != NLME_GetShortAddr())
//  528         && (RTG_CheckRtStatus( dstAddr->addr.shortAddr, RT_ACTIVE, (MTO_ROUTE | NO_ROUTE_CACHE) ) != RTG_SUCCESS) )
        ; Setup parameters for call to function NLME_GetShortAddr
        LCALL   ??NLME_GetShortAddr?relay
        MOV     ?V0 + 10,R2
        MOV     ?V0 + 11,R3
        LCALL   ?Subroutine17 & 0xFFFF
??CrossCallReturnLabel_87:
        MOV     A,?V0 + 10
        XRL     A,R2
        JNZ     ??AF_DataRequest_4
        MOV     A,?V0 + 11
        XRL     A,R3
??AF_DataRequest_4:
        JZ      ??AF_DataRequest_3
        ; Setup parameters for call to function RTG_CheckRtStatus
        MOV     R4,#0x3
        MOV     R1,#0x1
        LCALL   ??RTG_CheckRtStatus?relay
        MOV     A,R1
        JZ      ??AF_DataRequest_3
//  529     {
//  530       // A valid route to a concentrator wasn't found
//  531       return ( afStatus_NO_ROUTE );
        MOV     R1,#-0x33
        LJMP    ??AF_DataRequest_2 & 0xFFFF
//  532     }
//  533   }
//  534 
//  535   // Validate broadcasting
//  536   if ( ( dstAddr->addrMode == afAddr16Bit     ) ||
//  537        ( dstAddr->addrMode == afAddrBroadcast )    )
??AF_DataRequest_3:
        MOV     DPL,?V0 + 0
        MOV     DPH,?V0 + 1
        MOVX    A,@DPTR
        MOV     R0,A
        MOV     A,#0x2
        XRL     A,R0
        JZ      ??AF_DataRequest_5
        MOV     A,#0xf
        XRL     A,R0
        JNZ     ??AF_DataRequest_6
//  538   {
//  539     // Check for valid broadcast values
//  540     if( ADDR_NOT_BCAST != NLME_IsAddressBroadcast( dstAddr->addr.shortAddr )  )
??AF_DataRequest_5:
        ; Setup parameters for call to function NLME_IsAddressBroadcast
        LCALL   ?Subroutine17 & 0xFFFF
??CrossCallReturnLabel_88:
        LCALL   ??NLME_IsAddressBroadcast?relay
        MOV     A,R1
        MOV     DPL,?V0 + 0
        MOV     DPH,?V0 + 1
        JZ      ??AF_DataRequest_7
//  541     {
//  542       // Force mode to broadcast
//  543       dstAddr->addrMode = afAddrBroadcast;
        MOV     A,#0xf
        MOVX    @DPTR,A
        SJMP    ??AF_DataRequest_8
//  544     }
//  545     else
//  546     {
//  547       // Address is not a valid broadcast type
//  548       if ( dstAddr->addrMode == afAddrBroadcast )
??AF_DataRequest_7:
        MOVX    A,@DPTR
        XRL     A,#0xf
        JNZ     ??AF_DataRequest_8
        SJMP    ??AF_DataRequest_1
//  549       {
//  550         return afStatus_INVALID_PARAMETER;
//  551       }
//  552     }
//  553   }
//  554   else if ( dstAddr->addrMode != afAddr64Bit &&
//  555             dstAddr->addrMode != afAddrGroup &&
//  556             dstAddr->addrMode != afAddrNotPresent )
??AF_DataRequest_6:
        MOV     A,#0x3
        XRL     A,R0
        JZ      ??AF_DataRequest_8
        MOV     A,#0x1
        XRL     A,R0
        JZ      ??AF_DataRequest_8
        MOV     A,R0
        JNZ     ??AF_DataRequest_1
//  557   {
//  558     return afStatus_INVALID_PARAMETER;
//  559   }
//  560 
//  561   // Set destination address
//  562   req.dstAddr.addrMode = dstAddr->addrMode;
??AF_DataRequest_8:
        MOVX    A,@DPTR
        PUSH    A
        CFI CFA_SP SP+-1
        MOV     A,#0xa
        LCALL   ?XSTACK_DISP0_8
        POP     A
        CFI CFA_SP SP+0
        LCALL   ?Subroutine23 & 0xFFFF
//  563   if ( dstAddr->addrMode == afAddr64Bit )
??CrossCallReturnLabel_37:
        MOVX    A,@DPTR
        XRL     A,#0x3
        JNZ     ??AF_DataRequest_9
//  564     osal_cpyExtAddr( req.dstAddr.addr.extAddr, dstAddr->addr.extAddr );
        ; Setup parameters for call to function sAddrExtCpy
        MOV     R4,?V0 + 2
        MOV     R5,?V0 + 3
        MOV     A,#0x2
        LCALL   ?XSTACK_DISP0_8
        MOV     R2,DPL
        MOV     R3,DPH
        LCALL   ??sAddrExtCpy?relay
        SJMP    ??CrossCallReturnLabel_61
//  565   else
//  566     req.dstAddr.addr.shortAddr = dstAddr->addr.shortAddr;
??AF_DataRequest_9:
        MOV     DPL,?V0 + 2
        MOV     DPH,?V0 + 3
        LCALL   ??Subroutine37_0 & 0xFFFF
??CrossCallReturnLabel_70:
        MOV     A,#0x2
        LCALL   ?XSTACK_DISP0_8
        LCALL   ??Subroutine36_0 & 0xFFFF
//  567 
//  568   req.profileID = ZDO_PROFILE_ID;
??CrossCallReturnLabel_61:
        MOV     A,#0x11
        LCALL   ?XSTACK_DISP0_8
        CLR     A
        MOVX    @DPTR,A
        INC     DPTR
        MOVX    @DPTR,A
//  569 
//  570   if ( (pfnDescCB = afGetDescCB( srcEP )) )
        MOV     DPTR,#epList
??AF_DataRequest_10:
        LCALL   ?Subroutine9 & 0xFFFF
??CrossCallReturnLabel_10:
        JZ      ??AF_DataRequest_11
        MOV     DPL,R0
        MOV     DPH,R1
        INC     DPTR
        INC     DPTR
        LCALL   ??Subroutine39_0 & 0xFFFF
??CrossCallReturnLabel_82:
        MOV     A,R6
        XRL     A,R2
        JNZ     ??AF_DataRequest_12
        MOV     A,R7
        XRL     A,R3
??AF_DataRequest_12:
        MOV     DPL,R0
        MOV     DPH,R1
        JNZ     ??AF_DataRequest_10
        LCALL   ?Subroutine10 & 0xFFFF
??CrossCallReturnLabel_13:
        JZ      ??AF_DataRequest_11
//  571   {
//  572     uint16 *pID = (uint16 *)(pfnDescCB(
//  573                                  AF_DESCRIPTOR_PROFILE_ID, srcEP->endPoint ));
        ; Setup parameters for indirect call
        MOV     DPL,R6
        MOV     DPH,R7
        LCALL   ?Subroutine20 & 0xFFFF
??CrossCallReturnLabel_32:
        LCALL   ?CALL_IND
//  574     if ( pID )
        MOV     A,R2
        ORL     A,R3
        JZ      ??CrossCallReturnLabel_63
//  575     {
//  576       req.profileID = *pID;
        LCALL   ?Subroutine14 & 0xFFFF
??CrossCallReturnLabel_74:
        MOV     A,#0x11
        LCALL   ?XSTACK_DISP0_8
        LCALL   ??Subroutine36_0 & 0xFFFF
//  577       osal_mem_free( pID );
??CrossCallReturnLabel_62:
        ; Setup parameters for call to function osal_mem_free
        LCALL   ??osal_mem_free?relay
        SJMP    ??CrossCallReturnLabel_63
//  578     }
//  579   }
//  580   else if ( srcEP->simpleDesc )
??AF_DataRequest_11:
        MOV     DPL,R6
        MOV     DPH,R7
        LCALL   ?Subroutine8 & 0xFFFF
??CrossCallReturnLabel_9:
        JZ      ??CrossCallReturnLabel_63
//  581   {
//  582     req.profileID = srcEP->simpleDesc->AppProfId;
        INC     DPTR
        LCALL   ??Subroutine37_0 & 0xFFFF
//  583   }
??CrossCallReturnLabel_71:
        MOV     A,#0x11
        LCALL   ?XSTACK_DISP0_8
        LCALL   ??Subroutine36_0 & 0xFFFF
//  584 
//  585   req.txOptions = 0;
??CrossCallReturnLabel_63:
        MOV     A,#0x17
        LCALL   ?XSTACK_DISP0_8
        CLR     A
        MOVX    @DPTR,A
        INC     DPTR
        MOVX    @DPTR,A
//  586 
//  587   if ( ( options & AF_ACK_REQUEST              ) &&
//  588        ( req.dstAddr.addrMode != AddrBroadcast ) &&
//  589        ( req.dstAddr.addrMode != AddrGroup     )    )
        MOV     A,?V0 + 4
        MOV     C,0xE0 /* A   */.4
        JNC     ??AF_DataRequest_13
        MOV     A,#0xa
        LCALL   ?XSTACK_DISP0_8
        MOVX    A,@DPTR
        MOV     R0,A
        MOV     A,#0xf
        XRL     A,R0
        JZ      ??AF_DataRequest_13
        MOV     A,#0x1
        XRL     A,R0
        JZ      ??AF_DataRequest_13
//  590   {
//  591     req.txOptions |=  APS_TX_OPTIONS_ACK;
        MOV     A,#0x17
        LCALL   ?XSTACK_DISP0_8
        MOV     A,#0x4
        MOVX    @DPTR,A
        INC     DPTR
        CLR     A
        MOVX    @DPTR,A
//  592   }
//  593 
//  594   if ( options & AF_SKIP_ROUTING )
??AF_DataRequest_13:
        MOV     A,?V0 + 4
        MOV     C,0xE0 /* A   */.7
        JNC     ??AF_DataRequest_14
//  595   {
//  596     req.txOptions |=  APS_TX_OPTIONS_SKIP_ROUTING;
        MOV     A,#0x17
        LCALL   ?XSTACK_DISP0_8
        MOVX    A,@DPTR
        ORL     A,#0x10
        MOVX    @DPTR,A
//  597   }
//  598 
//  599   if ( options & AF_EN_SECURITY )
??AF_DataRequest_14:
        MOV     A,?V0 + 4
        MOV     C,0xE0 /* A   */.6
        JNC     ??AF_DataRequest_15
//  600   {
//  601     req.txOptions |= APS_TX_OPTIONS_SECURITY_ENABLE;
        MOV     A,#0x17
        LCALL   ?XSTACK_DISP0_8
        MOVX    A,@DPTR
        ORL     A,#0x1
        MOVX    @DPTR,A
//  602     mtu.aps.secure = TRUE;
        MOV     A,#0x1
        LCALL   ?XSTACK_DISP0_8
        MOV     A,#0x1
        SJMP    ??AF_DataRequest_16
//  603   }
//  604   else
//  605   {
//  606     mtu.aps.secure = FALSE;
??AF_DataRequest_15:
        MOV     A,#0x1
        LCALL   ?XSTACK_DISP0_8
        CLR     A
??AF_DataRequest_16:
        MOVX    @DPTR,A
//  607   }
//  608 
//  609   if ( options & AF_PREPROCESS )
        MOV     A,?V0 + 4
        MOV     C,0xE0 /* A   */.2
        JNC     ??AF_DataRequest_17
//  610   {
//  611     req.txOptions |=  APS_TX_OPTIONS_PREPROCESS;
        MOV     A,#0x17
        LCALL   ?XSTACK_DISP0_8
        MOVX    A,@DPTR
        ORL     A,#0x40
        MOVX    @DPTR,A
//  612   }
//  613 
//  614   mtu.kvp = FALSE;
??AF_DataRequest_17:
        MOV     DPL,?XSP + 0
        MOV     DPH,?XSP + 1
        CLR     A
        MOVX    @DPTR,A
//  615 
//  616   req.transID       = *transID;
        MOV     DPL,?V0 + 6
        MOV     DPH,?V0 + 7
        MOVX    A,@DPTR
        PUSH    A
        CFI CFA_SP SP+-1
        MOV     A,#0x19
        LCALL   ?XSTACK_DISP0_8
        POP     A
        CFI CFA_SP SP+0
        MOVX    @DPTR,A
//  617   req.srcEP         = srcEP->endPoint;
        MOV     DPL,R6
        MOV     DPH,R7
        MOVX    A,@DPTR
        PUSH    A
        CFI CFA_SP SP+-1
        MOV     A,#0xb
        LCALL   ?XSTACK_DISP0_8
        POP     A
        CFI CFA_SP SP+0
        LCALL   ?Subroutine26 & 0xFFFF
//  618   req.dstEP         = dstAddr->endPoint;
??CrossCallReturnLabel_44:
        INC     DPTR
        INC     DPTR
        INC     DPTR
        INC     DPTR
        INC     DPTR
        INC     DPTR
        INC     DPTR
        MOVX    A,@DPTR
        PUSH    A
        CFI CFA_SP SP+-1
        MOV     A,#0xc
        LCALL   ?XSTACK_DISP0_8
        POP     A
        CFI CFA_SP SP+0
        MOVX    @DPTR,A
//  619   req.clusterID     = cID;
        MOV     A,#0xf
        LCALL   ?XSTACK_DISP0_8
        MOV     A,?V0 + 12
        MOVX    @DPTR,A
        INC     DPTR
        MOV     A,?V0 + 13
        MOVX    @DPTR,A
//  620   req.asduLen       = len;
        MOV     A,#0x13
        LCALL   ?XSTACK_DISP0_8
        MOV     A,?V0 + 8
        MOVX    @DPTR,A
        INC     DPTR
        MOV     A,?V0 + 9
        MOVX    @DPTR,A
//  621   req.asdu          = buf;
        MOV     A,#0x15
        LCALL   ?XSTACK_DISP0_8
        MOV     A,?V0 + 14
        MOVX    @DPTR,A
        INC     DPTR
        MOV     A,?V0 + 15
        MOVX    @DPTR,A
//  622   req.discoverRoute = AF_DataRequestDiscoverRoute;//(uint8)((options & AF_DISCV_ROUTE) ? 1 : 0);
        MOV     DPTR,#AF_DataRequestDiscoverRoute
        MOVX    A,@DPTR
        PUSH    A
        CFI CFA_SP SP+-1
        MOV     A,#0x1a
        LCALL   ?XSTACK_DISP0_8
        POP     A
        CFI CFA_SP SP+0
        MOVX    @DPTR,A
//  623   req.radiusCounter = radius;
        MOV     A,#0x1b
        LCALL   ?XSTACK_DISP0_8
        MOV     A,?V0 + 5
        MOVX    @DPTR,A
//  624 #if defined ( INTER_PAN )
//  625   req.dstPanId      = dstAddr->panId;
//  626 
//  627   if ( StubAPS_InterPan( dstAddr->panId, dstAddr->endPoint ) )
//  628   {
//  629     if ( len > INTERP_DataReqMTU() )
//  630     {
//  631       stat = afStatus_INVALID_PARAMETER;
//  632     }
//  633     else
//  634     {
//  635       stat = INTERP_DataReq( &req );
//  636     }
//  637   }
//  638   else
//  639 #endif // INTER_PAN
//  640   {
//  641     if (len > afDataReqMTU( &mtu ) )
        ; Setup parameters for call to function afDataReqMTU
        MOV     DPL,?XSP + 0
        MOV     DPH,?XSP + 1
        MOV     R2,DPL
        MOV     R3,DPH
        LCALL   ??afDataReqMTU?relay
        MOV     A,R1
        CLR     C
        SUBB    A,?V0 + 8
        CLR     A
        SUBB    A,?V0 + 9
        JNC     ??AF_DataRequest_18
//  642     {
//  643       if (apsfSendFragmented)
        MOV     DPTR,#apsfSendFragmented
        LCALL   ?Subroutine9 & 0xFFFF
??CrossCallReturnLabel_12:
        JZ      ??AF_DataRequest_19
//  644       {
//  645         stat = (*apsfSendFragmented)( &req );
        ; Setup parameters for indirect call
        MOV     A,#0x2
        LCALL   ?XSTACK_DISP0_8
        MOV     R2,DPL
        MOV     R3,DPH
        MOV     DPTR,#apsfSendFragmented + 1
        LCALL   ??Subroutine41_0 & 0xFFFF
//  646       }
??CrossCallReturnLabel_89:
        LCALL   ?CALL_IND
        SJMP    ??AF_DataRequest_20
//  647       else
//  648       {
//  649         stat = afStatus_INVALID_PARAMETER;
??AF_DataRequest_19:
        MOV     ?V0 + 0,#0x2
        SJMP    ??AF_DataRequest_21
//  650       }
//  651     }
//  652     else
//  653     {
//  654       stat = APSDE_DataReq( &req );
??AF_DataRequest_18:
        ; Setup parameters for call to function APSDE_DataReq
        MOV     A,#0x2
        LCALL   ?XSTACK_DISP0_8
        MOV     R2,DPL
        MOV     R3,DPH
        LCALL   ??APSDE_DataReq?relay
??AF_DataRequest_20:
        MOV     A,R1
        MOV     ?V0 + 0,A
//  655     }
//  656   }
//  657 
//  658   /*
//  659    * If this is an EndPoint-to-EndPoint message on the same device, it will not
//  660    * get added to the NWK databufs. So it will not go OTA and it will not get
//  661    * a MACCB_DATA_CONFIRM_CMD callback. Thus it is necessary to generate the
//  662    * AF_DATA_CONFIRM_CMD here. Note that APSDE_DataConfirm() only generates one
//  663    * message with the first in line TransSeqNumber, even on a multi message.
//  664    * Also note that a reflected msg will not have its confirmation generated
//  665    * here.
//  666    */
//  667   if ( (req.dstAddr.addrMode == Addr16Bit) &&
//  668        (req.dstAddr.addr.shortAddr == NLME_GetShortAddr()) )
??AF_DataRequest_21:
        MOV     A,#0xa
        LCALL   ?XSTACK_DISP0_8
        MOVX    A,@DPTR
        XRL     A,#0x2
        JNZ     ??AF_DataRequest_22
        ; Setup parameters for call to function NLME_GetShortAddr
        LCALL   ??NLME_GetShortAddr?relay
        MOV     ?V0 + 2,R2
        MOV     ?V0 + 3,R3
        MOV     R0,?V0 + 2
        MOV     R1,?V0 + 3
        MOV     A,#0x2
        LCALL   ?XSTACK_DISP0_8
        MOVX    A,@DPTR
        XRL     A,R0
        JNZ     ??AF_DataRequest_23
        INC     DPTR
        MOVX    A,@DPTR
        XRL     A,R1
??AF_DataRequest_23:
        JNZ     ??AF_DataRequest_22
//  669   {
//  670     afDataConfirm( srcEP->endPoint, *transID, stat );
        ; Setup parameters for call to function afDataConfirm
        MOV     R3,?V0 + 0
        MOV     DPL,?V0 + 6
        MOV     DPH,?V0 + 7
        MOVX    A,@DPTR
        MOV     R2,A
        MOV     DPL,R6
        MOV     DPH,R7
        MOVX    A,@DPTR
        MOV     R1,A
        LCALL   ??afDataConfirm?relay
//  671   }
//  672 
//  673   if ( stat == afStatus_SUCCESS )
??AF_DataRequest_22:
        MOV     A,?V0 + 0
        JNZ     ??AF_DataRequest_24
//  674   {
//  675     (*transID)++;
        MOV     DPL,?V0 + 6
        MOV     DPH,?V0 + 7
        MOVX    A,@DPTR
        INC     A
        MOVX    @DPTR,A
//  676   }
//  677 
//  678   return (afStatus_t)stat;
??AF_DataRequest_24:
        MOV     R1,?V0 + 0
??AF_DataRequest_2:
        MOV     A,#0x1e
        LJMP    ?Subroutine3 & 0xFFFF
        CFI EndBlock cfiBlock46
//  679 }

        RSEG BANKED_CODE:CODE:NOROOT(0)
?Subroutine26:
        CFI Block cfiCond47 Using cfiCommon0
        CFI NoFunction
        CFI Conditional ??CrossCallReturnLabel_43
        CFI R6 load(1, XDATA, add(CFA_XSP16, literal(-24)))
        CFI VB load(1, XDATA, add(CFA_XSP16, literal(-23)))
        CFI V0 load(1, XDATA, add(CFA_XSP16, literal(-22)))
        CFI V1 load(1, XDATA, add(CFA_XSP16, literal(-21)))
        CFI V2 load(1, XDATA, add(CFA_XSP16, literal(-20)))
        CFI V3 load(1, XDATA, add(CFA_XSP16, literal(-19)))
        CFI V4 load(1, XDATA, add(CFA_XSP16, literal(-18)))
        CFI V5 load(1, XDATA, add(CFA_XSP16, literal(-17)))
        CFI V6 load(1, XDATA, add(CFA_XSP16, literal(-16)))
        CFI V7 load(1, XDATA, add(CFA_XSP16, literal(-15)))
        CFI V8 load(1, XDATA, add(CFA_XSP16, literal(-14)))
        CFI V9 load(1, XDATA, add(CFA_XSP16, literal(-13)))
        CFI V10 load(1, XDATA, add(CFA_XSP16, literal(-12)))
        CFI V11 load(1, XDATA, add(CFA_XSP16, literal(-11)))
        CFI V12 load(1, XDATA, add(CFA_XSP16, literal(-10)))
        CFI V13 load(1, XDATA, add(CFA_XSP16, literal(-9)))
        CFI V14 load(1, XDATA, add(CFA_XSP16, literal(-8)))
        CFI V15 load(1, XDATA, add(CFA_XSP16, literal(-7)))
        CFI R7 load(1, XDATA, add(CFA_XSP16, literal(-6)))
        CFI ?RET_LOW load(1, XDATA, add(CFA_XSP16, literal(-5)))
        CFI ?RET_HIGH load(1, XDATA, add(CFA_XSP16, literal(-4)))
        CFI ?BRET_EXT load(1, XDATA, add(CFA_XSP16, literal(-3)))
        CFI DPL0 load(1, XDATA, add(CFA_XSP16, literal(-2)))
        CFI DPH0 load(1, XDATA, add(CFA_XSP16, literal(-1)))
        CFI CFA_SP SP+0
        CFI CFA_XSP16 add(XSP16, 25)
        CFI Block cfiCond48 Using cfiCommon0
        CFI (cfiCond48) NoFunction
        CFI (cfiCond48) Conditional ??CrossCallReturnLabel_44
        CFI (cfiCond48) R6 load(1, XDATA, add(CFA_XSP16, literal(-24)))
        CFI (cfiCond48) VB load(1, XDATA, add(CFA_XSP16, literal(-23)))
        CFI (cfiCond48) V0 load(1, XDATA, add(CFA_XSP16, literal(-22)))
        CFI (cfiCond48) V1 load(1, XDATA, add(CFA_XSP16, literal(-21)))
        CFI (cfiCond48) V2 load(1, XDATA, add(CFA_XSP16, literal(-20)))
        CFI (cfiCond48) V3 load(1, XDATA, add(CFA_XSP16, literal(-19)))
        CFI (cfiCond48) V4 load(1, XDATA, add(CFA_XSP16, literal(-18)))
        CFI (cfiCond48) V5 load(1, XDATA, add(CFA_XSP16, literal(-17)))
        CFI (cfiCond48) V6 load(1, XDATA, add(CFA_XSP16, literal(-16)))
        CFI (cfiCond48) V7 load(1, XDATA, add(CFA_XSP16, literal(-15)))
        CFI (cfiCond48) V8 load(1, XDATA, add(CFA_XSP16, literal(-14)))
        CFI (cfiCond48) V9 load(1, XDATA, add(CFA_XSP16, literal(-13)))
        CFI (cfiCond48) V10 load(1, XDATA, add(CFA_XSP16, literal(-12)))
        CFI (cfiCond48) V11 load(1, XDATA, add(CFA_XSP16, literal(-11)))
        CFI (cfiCond48) V12 load(1, XDATA, add(CFA_XSP16, literal(-10)))
        CFI (cfiCond48) V13 load(1, XDATA, add(CFA_XSP16, literal(-9)))
        CFI (cfiCond48) V14 load(1, XDATA, add(CFA_XSP16, literal(-8)))
        CFI (cfiCond48) V15 load(1, XDATA, add(CFA_XSP16, literal(-7)))
        CFI (cfiCond48) R7 load(1, XDATA, add(CFA_XSP16, literal(-6)))
        CFI (cfiCond48) ?RET_LOW load(1, XDATA, add(CFA_XSP16, literal(-5)))
        CFI (cfiCond48) ?RET_HIGH load(1, XDATA, add(CFA_XSP16, literal(-4)))
        CFI (cfiCond48) ?BRET_EXT load(1, XDATA, add(CFA_XSP16, literal(-3)))
        CFI (cfiCond48) DPL0 load(1, XDATA, add(CFA_XSP16, literal(-2)))
        CFI (cfiCond48) DPH0 load(1, XDATA, add(CFA_XSP16, literal(-1)))
        CFI (cfiCond48) CFA_SP SP+0
        CFI (cfiCond48) CFA_XSP16 add(XSP16, 54)
        CFI Block cfiPicker49 Using cfiCommon1
        CFI (cfiPicker49) NoFunction
        CFI (cfiPicker49) Picker
        LCALL   ?Subroutine32 & 0xFFFF
??CrossCallReturnLabel_54:
        INC     DPTR
        RET
        CFI EndBlock cfiCond47
        CFI EndBlock cfiCond48
        CFI EndBlock cfiPicker49

        RSEG BANKED_CODE:CODE:NOROOT(0)
?Subroutine32:
        CFI Block cfiCond50 Using cfiCommon0
        CFI NoFunction
        CFI Conditional ??CrossCallReturnLabel_53
        CFI R6 load(1, XDATA, add(CFA_XSP16, literal(-24)))
        CFI VB load(1, XDATA, add(CFA_XSP16, literal(-23)))
        CFI V0 load(1, XDATA, add(CFA_XSP16, literal(-22)))
        CFI V1 load(1, XDATA, add(CFA_XSP16, literal(-21)))
        CFI V2 load(1, XDATA, add(CFA_XSP16, literal(-20)))
        CFI V3 load(1, XDATA, add(CFA_XSP16, literal(-19)))
        CFI V4 load(1, XDATA, add(CFA_XSP16, literal(-18)))
        CFI V5 load(1, XDATA, add(CFA_XSP16, literal(-17)))
        CFI V6 load(1, XDATA, add(CFA_XSP16, literal(-16)))
        CFI V7 load(1, XDATA, add(CFA_XSP16, literal(-15)))
        CFI V8 load(1, XDATA, add(CFA_XSP16, literal(-14)))
        CFI V9 load(1, XDATA, add(CFA_XSP16, literal(-13)))
        CFI V10 load(1, XDATA, add(CFA_XSP16, literal(-12)))
        CFI V11 load(1, XDATA, add(CFA_XSP16, literal(-11)))
        CFI V12 load(1, XDATA, add(CFA_XSP16, literal(-10)))
        CFI V13 load(1, XDATA, add(CFA_XSP16, literal(-9)))
        CFI V14 load(1, XDATA, add(CFA_XSP16, literal(-8)))
        CFI V15 load(1, XDATA, add(CFA_XSP16, literal(-7)))
        CFI R7 load(1, XDATA, add(CFA_XSP16, literal(-6)))
        CFI ?RET_LOW load(1, XDATA, add(CFA_XSP16, literal(-5)))
        CFI ?RET_HIGH load(1, XDATA, add(CFA_XSP16, literal(-4)))
        CFI ?BRET_EXT load(1, XDATA, add(CFA_XSP16, literal(-3)))
        CFI DPL0 load(1, XDATA, add(CFA_XSP16, literal(-2)))
        CFI DPH0 load(1, XDATA, add(CFA_XSP16, literal(-1)))
        CFI CFA_SP SP+0
        CFI CFA_XSP16 add(XSP16, 25)
        CFI Block cfiCond51 Using cfiCommon0
        CFI (cfiCond51) NoFunction
        CFI (cfiCond51) Conditional ??CrossCallReturnLabel_54, ??CrossCallReturnLabel_43
        CFI (cfiCond51) R6 load(1, XDATA, add(CFA_XSP16, literal(-24)))
        CFI (cfiCond51) VB load(1, XDATA, add(CFA_XSP16, literal(-23)))
        CFI (cfiCond51) V0 load(1, XDATA, add(CFA_XSP16, literal(-22)))
        CFI (cfiCond51) V1 load(1, XDATA, add(CFA_XSP16, literal(-21)))
        CFI (cfiCond51) V2 load(1, XDATA, add(CFA_XSP16, literal(-20)))
        CFI (cfiCond51) V3 load(1, XDATA, add(CFA_XSP16, literal(-19)))
        CFI (cfiCond51) V4 load(1, XDATA, add(CFA_XSP16, literal(-18)))
        CFI (cfiCond51) V5 load(1, XDATA, add(CFA_XSP16, literal(-17)))
        CFI (cfiCond51) V6 load(1, XDATA, add(CFA_XSP16, literal(-16)))
        CFI (cfiCond51) V7 load(1, XDATA, add(CFA_XSP16, literal(-15)))
        CFI (cfiCond51) V8 load(1, XDATA, add(CFA_XSP16, literal(-14)))
        CFI (cfiCond51) V9 load(1, XDATA, add(CFA_XSP16, literal(-13)))
        CFI (cfiCond51) V10 load(1, XDATA, add(CFA_XSP16, literal(-12)))
        CFI (cfiCond51) V11 load(1, XDATA, add(CFA_XSP16, literal(-11)))
        CFI (cfiCond51) V12 load(1, XDATA, add(CFA_XSP16, literal(-10)))
        CFI (cfiCond51) V13 load(1, XDATA, add(CFA_XSP16, literal(-9)))
        CFI (cfiCond51) V14 load(1, XDATA, add(CFA_XSP16, literal(-8)))
        CFI (cfiCond51) V15 load(1, XDATA, add(CFA_XSP16, literal(-7)))
        CFI (cfiCond51) R7 load(1, XDATA, add(CFA_XSP16, literal(-6)))
        CFI (cfiCond51) ?RET_LOW load(1, XDATA, add(CFA_XSP16, literal(-5)))
        CFI (cfiCond51) ?RET_HIGH load(1, XDATA, add(CFA_XSP16, literal(-4)))
        CFI (cfiCond51) ?BRET_EXT load(1, XDATA, add(CFA_XSP16, literal(-3)))
        CFI (cfiCond51) DPL0 load(1, XDATA, add(CFA_XSP16, literal(-2)))
        CFI (cfiCond51) DPH0 load(1, XDATA, add(CFA_XSP16, literal(-1)))
        CFI (cfiCond51) CFA_SP SP+0
        CFI (cfiCond51) CFA_XSP16 add(XSP16, 25)
        CFI Block cfiCond52 Using cfiCommon0
        CFI (cfiCond52) NoFunction
        CFI (cfiCond52) Conditional ??CrossCallReturnLabel_54, ??CrossCallReturnLabel_44
        CFI (cfiCond52) R6 load(1, XDATA, add(CFA_XSP16, literal(-24)))
        CFI (cfiCond52) VB load(1, XDATA, add(CFA_XSP16, literal(-23)))
        CFI (cfiCond52) V0 load(1, XDATA, add(CFA_XSP16, literal(-22)))
        CFI (cfiCond52) V1 load(1, XDATA, add(CFA_XSP16, literal(-21)))
        CFI (cfiCond52) V2 load(1, XDATA, add(CFA_XSP16, literal(-20)))
        CFI (cfiCond52) V3 load(1, XDATA, add(CFA_XSP16, literal(-19)))
        CFI (cfiCond52) V4 load(1, XDATA, add(CFA_XSP16, literal(-18)))
        CFI (cfiCond52) V5 load(1, XDATA, add(CFA_XSP16, literal(-17)))
        CFI (cfiCond52) V6 load(1, XDATA, add(CFA_XSP16, literal(-16)))
        CFI (cfiCond52) V7 load(1, XDATA, add(CFA_XSP16, literal(-15)))
        CFI (cfiCond52) V8 load(1, XDATA, add(CFA_XSP16, literal(-14)))
        CFI (cfiCond52) V9 load(1, XDATA, add(CFA_XSP16, literal(-13)))
        CFI (cfiCond52) V10 load(1, XDATA, add(CFA_XSP16, literal(-12)))
        CFI (cfiCond52) V11 load(1, XDATA, add(CFA_XSP16, literal(-11)))
        CFI (cfiCond52) V12 load(1, XDATA, add(CFA_XSP16, literal(-10)))
        CFI (cfiCond52) V13 load(1, XDATA, add(CFA_XSP16, literal(-9)))
        CFI (cfiCond52) V14 load(1, XDATA, add(CFA_XSP16, literal(-8)))
        CFI (cfiCond52) V15 load(1, XDATA, add(CFA_XSP16, literal(-7)))
        CFI (cfiCond52) R7 load(1, XDATA, add(CFA_XSP16, literal(-6)))
        CFI (cfiCond52) ?RET_LOW load(1, XDATA, add(CFA_XSP16, literal(-5)))
        CFI (cfiCond52) ?RET_HIGH load(1, XDATA, add(CFA_XSP16, literal(-4)))
        CFI (cfiCond52) ?BRET_EXT load(1, XDATA, add(CFA_XSP16, literal(-3)))
        CFI (cfiCond52) DPL0 load(1, XDATA, add(CFA_XSP16, literal(-2)))
        CFI (cfiCond52) DPH0 load(1, XDATA, add(CFA_XSP16, literal(-1)))
        CFI (cfiCond52) CFA_SP SP+0
        CFI (cfiCond52) CFA_XSP16 add(XSP16, 54)
        CFI Block cfiPicker53 Using cfiCommon1
        CFI (cfiPicker53) NoFunction
        CFI (cfiPicker53) Picker
        MOVX    @DPTR,A
        MOV     DPL,?V0 + 2
        MOV     DPH,?V0 + 3
        INC     DPTR
        RET
        CFI EndBlock cfiCond50
        CFI EndBlock cfiCond51
        CFI EndBlock cfiCond52
        CFI EndBlock cfiPicker53

        RSEG BANKED_CODE:CODE:NOROOT(0)
?Subroutine23:
        CFI Block cfiCond54 Using cfiCommon0
        CFI NoFunction
        CFI Conditional ??CrossCallReturnLabel_35
        CFI R6 load(1, XDATA, add(CFA_XSP16, literal(-24)))
        CFI VB load(1, XDATA, add(CFA_XSP16, literal(-23)))
        CFI V0 load(1, XDATA, add(CFA_XSP16, literal(-22)))
        CFI V1 load(1, XDATA, add(CFA_XSP16, literal(-21)))
        CFI V2 load(1, XDATA, add(CFA_XSP16, literal(-20)))
        CFI V3 load(1, XDATA, add(CFA_XSP16, literal(-19)))
        CFI V4 load(1, XDATA, add(CFA_XSP16, literal(-18)))
        CFI V5 load(1, XDATA, add(CFA_XSP16, literal(-17)))
        CFI V6 load(1, XDATA, add(CFA_XSP16, literal(-16)))
        CFI V7 load(1, XDATA, add(CFA_XSP16, literal(-15)))
        CFI V8 load(1, XDATA, add(CFA_XSP16, literal(-14)))
        CFI V9 load(1, XDATA, add(CFA_XSP16, literal(-13)))
        CFI V10 load(1, XDATA, add(CFA_XSP16, literal(-12)))
        CFI V11 load(1, XDATA, add(CFA_XSP16, literal(-11)))
        CFI V12 load(1, XDATA, add(CFA_XSP16, literal(-10)))
        CFI V13 load(1, XDATA, add(CFA_XSP16, literal(-9)))
        CFI V14 load(1, XDATA, add(CFA_XSP16, literal(-8)))
        CFI V15 load(1, XDATA, add(CFA_XSP16, literal(-7)))
        CFI R7 load(1, XDATA, add(CFA_XSP16, literal(-6)))
        CFI ?RET_LOW load(1, XDATA, add(CFA_XSP16, literal(-5)))
        CFI ?RET_HIGH load(1, XDATA, add(CFA_XSP16, literal(-4)))
        CFI ?BRET_EXT load(1, XDATA, add(CFA_XSP16, literal(-3)))
        CFI DPL0 load(1, XDATA, add(CFA_XSP16, literal(-2)))
        CFI DPH0 load(1, XDATA, add(CFA_XSP16, literal(-1)))
        CFI CFA_SP SP+0
        CFI CFA_XSP16 add(XSP16, 25)
        CFI Block cfiCond55 Using cfiCommon0
        CFI (cfiCond55) NoFunction
        CFI (cfiCond55) Conditional ??CrossCallReturnLabel_36
        CFI (cfiCond55) R6 load(1, XDATA, add(CFA_XSP16, literal(-24)))
        CFI (cfiCond55) VB load(1, XDATA, add(CFA_XSP16, literal(-23)))
        CFI (cfiCond55) V0 load(1, XDATA, add(CFA_XSP16, literal(-22)))
        CFI (cfiCond55) V1 load(1, XDATA, add(CFA_XSP16, literal(-21)))
        CFI (cfiCond55) V2 load(1, XDATA, add(CFA_XSP16, literal(-20)))
        CFI (cfiCond55) V3 load(1, XDATA, add(CFA_XSP16, literal(-19)))
        CFI (cfiCond55) V4 load(1, XDATA, add(CFA_XSP16, literal(-18)))
        CFI (cfiCond55) V5 load(1, XDATA, add(CFA_XSP16, literal(-17)))
        CFI (cfiCond55) V6 load(1, XDATA, add(CFA_XSP16, literal(-16)))
        CFI (cfiCond55) V7 load(1, XDATA, add(CFA_XSP16, literal(-15)))
        CFI (cfiCond55) V8 load(1, XDATA, add(CFA_XSP16, literal(-14)))
        CFI (cfiCond55) V9 load(1, XDATA, add(CFA_XSP16, literal(-13)))
        CFI (cfiCond55) V10 load(1, XDATA, add(CFA_XSP16, literal(-12)))
        CFI (cfiCond55) V11 load(1, XDATA, add(CFA_XSP16, literal(-11)))
        CFI (cfiCond55) V12 load(1, XDATA, add(CFA_XSP16, literal(-10)))
        CFI (cfiCond55) V13 load(1, XDATA, add(CFA_XSP16, literal(-9)))
        CFI (cfiCond55) V14 load(1, XDATA, add(CFA_XSP16, literal(-8)))
        CFI (cfiCond55) V15 load(1, XDATA, add(CFA_XSP16, literal(-7)))
        CFI (cfiCond55) R7 load(1, XDATA, add(CFA_XSP16, literal(-6)))
        CFI (cfiCond55) ?RET_LOW load(1, XDATA, add(CFA_XSP16, literal(-5)))
        CFI (cfiCond55) ?RET_HIGH load(1, XDATA, add(CFA_XSP16, literal(-4)))
        CFI (cfiCond55) ?BRET_EXT load(1, XDATA, add(CFA_XSP16, literal(-3)))
        CFI (cfiCond55) DPL0 load(1, XDATA, add(CFA_XSP16, literal(-2)))
        CFI (cfiCond55) DPH0 load(1, XDATA, add(CFA_XSP16, literal(-1)))
        CFI (cfiCond55) CFA_SP SP+0
        CFI (cfiCond55) CFA_XSP16 add(XSP16, 25)
        CFI Block cfiCond56 Using cfiCommon0
        CFI (cfiCond56) NoFunction
        CFI (cfiCond56) Conditional ??CrossCallReturnLabel_37
        CFI (cfiCond56) R6 load(1, XDATA, add(CFA_XSP16, literal(-24)))
        CFI (cfiCond56) VB load(1, XDATA, add(CFA_XSP16, literal(-23)))
        CFI (cfiCond56) V0 load(1, XDATA, add(CFA_XSP16, literal(-22)))
        CFI (cfiCond56) V1 load(1, XDATA, add(CFA_XSP16, literal(-21)))
        CFI (cfiCond56) V2 load(1, XDATA, add(CFA_XSP16, literal(-20)))
        CFI (cfiCond56) V3 load(1, XDATA, add(CFA_XSP16, literal(-19)))
        CFI (cfiCond56) V4 load(1, XDATA, add(CFA_XSP16, literal(-18)))
        CFI (cfiCond56) V5 load(1, XDATA, add(CFA_XSP16, literal(-17)))
        CFI (cfiCond56) V6 load(1, XDATA, add(CFA_XSP16, literal(-16)))
        CFI (cfiCond56) V7 load(1, XDATA, add(CFA_XSP16, literal(-15)))
        CFI (cfiCond56) V8 load(1, XDATA, add(CFA_XSP16, literal(-14)))
        CFI (cfiCond56) V9 load(1, XDATA, add(CFA_XSP16, literal(-13)))
        CFI (cfiCond56) V10 load(1, XDATA, add(CFA_XSP16, literal(-12)))
        CFI (cfiCond56) V11 load(1, XDATA, add(CFA_XSP16, literal(-11)))
        CFI (cfiCond56) V12 load(1, XDATA, add(CFA_XSP16, literal(-10)))
        CFI (cfiCond56) V13 load(1, XDATA, add(CFA_XSP16, literal(-9)))
        CFI (cfiCond56) V14 load(1, XDATA, add(CFA_XSP16, literal(-8)))
        CFI (cfiCond56) V15 load(1, XDATA, add(CFA_XSP16, literal(-7)))
        CFI (cfiCond56) R7 load(1, XDATA, add(CFA_XSP16, literal(-6)))
        CFI (cfiCond56) ?RET_LOW load(1, XDATA, add(CFA_XSP16, literal(-5)))
        CFI (cfiCond56) ?RET_HIGH load(1, XDATA, add(CFA_XSP16, literal(-4)))
        CFI (cfiCond56) ?BRET_EXT load(1, XDATA, add(CFA_XSP16, literal(-3)))
        CFI (cfiCond56) DPL0 load(1, XDATA, add(CFA_XSP16, literal(-2)))
        CFI (cfiCond56) DPH0 load(1, XDATA, add(CFA_XSP16, literal(-1)))
        CFI (cfiCond56) CFA_SP SP+0
        CFI (cfiCond56) CFA_XSP16 add(XSP16, 54)
        CFI Block cfiPicker57 Using cfiCommon1
        CFI (cfiPicker57) NoFunction
        CFI (cfiPicker57) Picker
        MOVX    @DPTR,A
        MOV     DPL,?V0 + 0
        MOV     DPH,?V0 + 1
        RET
        CFI EndBlock cfiCond54
        CFI EndBlock cfiCond55
        CFI EndBlock cfiCond56
        CFI EndBlock cfiPicker57

        RSEG BANKED_CODE:CODE:NOROOT(0)
?Subroutine21:
        CFI Block cfiCond58 Using cfiCommon0
        CFI NoFunction
        CFI Conditional ??CrossCallReturnLabel_65
        CFI R6 load(1, XDATA, add(CFA_XSP16, literal(-24)))
        CFI VB load(1, XDATA, add(CFA_XSP16, literal(-23)))
        CFI V0 load(1, XDATA, add(CFA_XSP16, literal(-22)))
        CFI V1 load(1, XDATA, add(CFA_XSP16, literal(-21)))
        CFI V2 load(1, XDATA, add(CFA_XSP16, literal(-20)))
        CFI V3 load(1, XDATA, add(CFA_XSP16, literal(-19)))
        CFI V4 load(1, XDATA, add(CFA_XSP16, literal(-18)))
        CFI V5 load(1, XDATA, add(CFA_XSP16, literal(-17)))
        CFI V6 load(1, XDATA, add(CFA_XSP16, literal(-16)))
        CFI V7 load(1, XDATA, add(CFA_XSP16, literal(-15)))
        CFI V8 load(1, XDATA, add(CFA_XSP16, literal(-14)))
        CFI V9 load(1, XDATA, add(CFA_XSP16, literal(-13)))
        CFI V10 load(1, XDATA, add(CFA_XSP16, literal(-12)))
        CFI V11 load(1, XDATA, add(CFA_XSP16, literal(-11)))
        CFI V12 load(1, XDATA, add(CFA_XSP16, literal(-10)))
        CFI V13 load(1, XDATA, add(CFA_XSP16, literal(-9)))
        CFI V14 load(1, XDATA, add(CFA_XSP16, literal(-8)))
        CFI V15 load(1, XDATA, add(CFA_XSP16, literal(-7)))
        CFI R7 load(1, XDATA, add(CFA_XSP16, literal(-6)))
        CFI ?RET_LOW load(1, XDATA, add(CFA_XSP16, literal(-5)))
        CFI ?RET_HIGH load(1, XDATA, add(CFA_XSP16, literal(-4)))
        CFI ?BRET_EXT load(1, XDATA, add(CFA_XSP16, literal(-3)))
        CFI DPL0 load(1, XDATA, add(CFA_XSP16, literal(-2)))
        CFI DPH0 load(1, XDATA, add(CFA_XSP16, literal(-1)))
        CFI CFA_SP SP+0
        CFI CFA_XSP16 add(XSP16, 25)
        CFI Block cfiCond59 Using cfiCommon0
        CFI (cfiCond59) NoFunction
        CFI (cfiCond59) Conditional ??CrossCallReturnLabel_66
        CFI (cfiCond59) R6 load(1, XDATA, add(CFA_XSP16, literal(-24)))
        CFI (cfiCond59) VB load(1, XDATA, add(CFA_XSP16, literal(-23)))
        CFI (cfiCond59) V0 load(1, XDATA, add(CFA_XSP16, literal(-22)))
        CFI (cfiCond59) V1 load(1, XDATA, add(CFA_XSP16, literal(-21)))
        CFI (cfiCond59) V2 load(1, XDATA, add(CFA_XSP16, literal(-20)))
        CFI (cfiCond59) V3 load(1, XDATA, add(CFA_XSP16, literal(-19)))
        CFI (cfiCond59) V4 load(1, XDATA, add(CFA_XSP16, literal(-18)))
        CFI (cfiCond59) V5 load(1, XDATA, add(CFA_XSP16, literal(-17)))
        CFI (cfiCond59) V6 load(1, XDATA, add(CFA_XSP16, literal(-16)))
        CFI (cfiCond59) V7 load(1, XDATA, add(CFA_XSP16, literal(-15)))
        CFI (cfiCond59) V8 load(1, XDATA, add(CFA_XSP16, literal(-14)))
        CFI (cfiCond59) V9 load(1, XDATA, add(CFA_XSP16, literal(-13)))
        CFI (cfiCond59) V10 load(1, XDATA, add(CFA_XSP16, literal(-12)))
        CFI (cfiCond59) V11 load(1, XDATA, add(CFA_XSP16, literal(-11)))
        CFI (cfiCond59) V12 load(1, XDATA, add(CFA_XSP16, literal(-10)))
        CFI (cfiCond59) V13 load(1, XDATA, add(CFA_XSP16, literal(-9)))
        CFI (cfiCond59) V14 load(1, XDATA, add(CFA_XSP16, literal(-8)))
        CFI (cfiCond59) V15 load(1, XDATA, add(CFA_XSP16, literal(-7)))
        CFI (cfiCond59) R7 load(1, XDATA, add(CFA_XSP16, literal(-6)))
        CFI (cfiCond59) ?RET_LOW load(1, XDATA, add(CFA_XSP16, literal(-5)))
        CFI (cfiCond59) ?RET_HIGH load(1, XDATA, add(CFA_XSP16, literal(-4)))
        CFI (cfiCond59) ?BRET_EXT load(1, XDATA, add(CFA_XSP16, literal(-3)))
        CFI (cfiCond59) DPL0 load(1, XDATA, add(CFA_XSP16, literal(-2)))
        CFI (cfiCond59) DPH0 load(1, XDATA, add(CFA_XSP16, literal(-1)))
        CFI (cfiCond59) CFA_SP SP+0
        CFI (cfiCond59) CFA_XSP16 add(XSP16, 25)
        CFI Block cfiPicker60 Using cfiCommon1
        CFI (cfiPicker60) NoFunction
        CFI (cfiPicker60) Picker
        MOV     DPL,A
        MOV     A,R7
        ADDC    A,#0x0
        MOV     DPH,A
        CFI EndBlock cfiCond58
        CFI EndBlock cfiCond59
        CFI EndBlock cfiPicker60
        REQUIRE ??Subroutine36_0
        ; // Fall through to label ??Subroutine36_0

        RSEG BANKED_CODE:CODE:NOROOT(0)
??Subroutine36_0:
        CFI Block cfiCond61 Using cfiCommon0
        CFI NoFunction
        CFI Conditional ??CrossCallReturnLabel_57
        CFI R6 load(1, XDATA, add(CFA_XSP16, literal(-12)))
        CFI VB load(1, XDATA, add(CFA_XSP16, literal(-11)))
        CFI V0 load(1, XDATA, add(CFA_XSP16, literal(-10)))
        CFI V1 load(1, XDATA, add(CFA_XSP16, literal(-9)))
        CFI V2 load(1, XDATA, add(CFA_XSP16, literal(-8)))
        CFI V3 load(1, XDATA, add(CFA_XSP16, literal(-7)))
        CFI R7 load(1, XDATA, add(CFA_XSP16, literal(-6)))
        CFI ?RET_LOW load(1, XDATA, add(CFA_XSP16, literal(-5)))
        CFI ?RET_HIGH load(1, XDATA, add(CFA_XSP16, literal(-4)))
        CFI ?BRET_EXT load(1, XDATA, add(CFA_XSP16, literal(-3)))
        CFI DPL0 load(1, XDATA, add(CFA_XSP16, literal(-2)))
        CFI DPH0 load(1, XDATA, add(CFA_XSP16, literal(-1)))
        CFI CFA_SP SP+0
        CFI CFA_XSP16 add(XSP16, 12)
        CFI Block cfiCond62 Using cfiCommon0
        CFI (cfiCond62) NoFunction
        CFI (cfiCond62) Conditional ??CrossCallReturnLabel_58
        CFI (cfiCond62) R6 load(1, XDATA, add(CFA_XSP16, literal(-24)))
        CFI (cfiCond62) VB load(1, XDATA, add(CFA_XSP16, literal(-23)))
        CFI (cfiCond62) V0 load(1, XDATA, add(CFA_XSP16, literal(-22)))
        CFI (cfiCond62) V1 load(1, XDATA, add(CFA_XSP16, literal(-21)))
        CFI (cfiCond62) V2 load(1, XDATA, add(CFA_XSP16, literal(-20)))
        CFI (cfiCond62) V3 load(1, XDATA, add(CFA_XSP16, literal(-19)))
        CFI (cfiCond62) V4 load(1, XDATA, add(CFA_XSP16, literal(-18)))
        CFI (cfiCond62) V5 load(1, XDATA, add(CFA_XSP16, literal(-17)))
        CFI (cfiCond62) V6 load(1, XDATA, add(CFA_XSP16, literal(-16)))
        CFI (cfiCond62) V7 load(1, XDATA, add(CFA_XSP16, literal(-15)))
        CFI (cfiCond62) V8 load(1, XDATA, add(CFA_XSP16, literal(-14)))
        CFI (cfiCond62) V9 load(1, XDATA, add(CFA_XSP16, literal(-13)))
        CFI (cfiCond62) V10 load(1, XDATA, add(CFA_XSP16, literal(-12)))
        CFI (cfiCond62) V11 load(1, XDATA, add(CFA_XSP16, literal(-11)))
        CFI (cfiCond62) V12 load(1, XDATA, add(CFA_XSP16, literal(-10)))
        CFI (cfiCond62) V13 load(1, XDATA, add(CFA_XSP16, literal(-9)))
        CFI (cfiCond62) V14 load(1, XDATA, add(CFA_XSP16, literal(-8)))
        CFI (cfiCond62) V15 load(1, XDATA, add(CFA_XSP16, literal(-7)))
        CFI (cfiCond62) R7 load(1, XDATA, add(CFA_XSP16, literal(-6)))
        CFI (cfiCond62) ?RET_LOW load(1, XDATA, add(CFA_XSP16, literal(-5)))
        CFI (cfiCond62) ?RET_HIGH load(1, XDATA, add(CFA_XSP16, literal(-4)))
        CFI (cfiCond62) ?BRET_EXT load(1, XDATA, add(CFA_XSP16, literal(-3)))
        CFI (cfiCond62) DPL0 load(1, XDATA, add(CFA_XSP16, literal(-2)))
        CFI (cfiCond62) DPH0 load(1, XDATA, add(CFA_XSP16, literal(-1)))
        CFI (cfiCond62) CFA_SP SP+0
        CFI (cfiCond62) CFA_XSP16 add(XSP16, 25)
        CFI Block cfiCond63 Using cfiCommon0
        CFI (cfiCond63) NoFunction
        CFI (cfiCond63) Conditional ??CrossCallReturnLabel_59
        CFI (cfiCond63) R6 load(1, XDATA, add(CFA_XSP16, literal(-24)))
        CFI (cfiCond63) VB load(1, XDATA, add(CFA_XSP16, literal(-23)))
        CFI (cfiCond63) V0 load(1, XDATA, add(CFA_XSP16, literal(-22)))
        CFI (cfiCond63) V1 load(1, XDATA, add(CFA_XSP16, literal(-21)))
        CFI (cfiCond63) V2 load(1, XDATA, add(CFA_XSP16, literal(-20)))
        CFI (cfiCond63) V3 load(1, XDATA, add(CFA_XSP16, literal(-19)))
        CFI (cfiCond63) V4 load(1, XDATA, add(CFA_XSP16, literal(-18)))
        CFI (cfiCond63) V5 load(1, XDATA, add(CFA_XSP16, literal(-17)))
        CFI (cfiCond63) V6 load(1, XDATA, add(CFA_XSP16, literal(-16)))
        CFI (cfiCond63) V7 load(1, XDATA, add(CFA_XSP16, literal(-15)))
        CFI (cfiCond63) V8 load(1, XDATA, add(CFA_XSP16, literal(-14)))
        CFI (cfiCond63) V9 load(1, XDATA, add(CFA_XSP16, literal(-13)))
        CFI (cfiCond63) V10 load(1, XDATA, add(CFA_XSP16, literal(-12)))
        CFI (cfiCond63) V11 load(1, XDATA, add(CFA_XSP16, literal(-11)))
        CFI (cfiCond63) V12 load(1, XDATA, add(CFA_XSP16, literal(-10)))
        CFI (cfiCond63) V13 load(1, XDATA, add(CFA_XSP16, literal(-9)))
        CFI (cfiCond63) V14 load(1, XDATA, add(CFA_XSP16, literal(-8)))
        CFI (cfiCond63) V15 load(1, XDATA, add(CFA_XSP16, literal(-7)))
        CFI (cfiCond63) R7 load(1, XDATA, add(CFA_XSP16, literal(-6)))
        CFI (cfiCond63) ?RET_LOW load(1, XDATA, add(CFA_XSP16, literal(-5)))
        CFI (cfiCond63) ?RET_HIGH load(1, XDATA, add(CFA_XSP16, literal(-4)))
        CFI (cfiCond63) ?BRET_EXT load(1, XDATA, add(CFA_XSP16, literal(-3)))
        CFI (cfiCond63) DPL0 load(1, XDATA, add(CFA_XSP16, literal(-2)))
        CFI (cfiCond63) DPH0 load(1, XDATA, add(CFA_XSP16, literal(-1)))
        CFI (cfiCond63) CFA_SP SP+0
        CFI (cfiCond63) CFA_XSP16 add(XSP16, 25)
        CFI Block cfiCond64 Using cfiCommon0
        CFI (cfiCond64) NoFunction
        CFI (cfiCond64) Conditional ??CrossCallReturnLabel_60
        CFI (cfiCond64) R6 load(1, XDATA, add(CFA_XSP16, literal(-24)))
        CFI (cfiCond64) VB load(1, XDATA, add(CFA_XSP16, literal(-23)))
        CFI (cfiCond64) V0 load(1, XDATA, add(CFA_XSP16, literal(-22)))
        CFI (cfiCond64) V1 load(1, XDATA, add(CFA_XSP16, literal(-21)))
        CFI (cfiCond64) V2 load(1, XDATA, add(CFA_XSP16, literal(-20)))
        CFI (cfiCond64) V3 load(1, XDATA, add(CFA_XSP16, literal(-19)))
        CFI (cfiCond64) V4 load(1, XDATA, add(CFA_XSP16, literal(-18)))
        CFI (cfiCond64) V5 load(1, XDATA, add(CFA_XSP16, literal(-17)))
        CFI (cfiCond64) V6 load(1, XDATA, add(CFA_XSP16, literal(-16)))
        CFI (cfiCond64) V7 load(1, XDATA, add(CFA_XSP16, literal(-15)))
        CFI (cfiCond64) V8 load(1, XDATA, add(CFA_XSP16, literal(-14)))
        CFI (cfiCond64) V9 load(1, XDATA, add(CFA_XSP16, literal(-13)))
        CFI (cfiCond64) V10 load(1, XDATA, add(CFA_XSP16, literal(-12)))
        CFI (cfiCond64) V11 load(1, XDATA, add(CFA_XSP16, literal(-11)))
        CFI (cfiCond64) V12 load(1, XDATA, add(CFA_XSP16, literal(-10)))
        CFI (cfiCond64) V13 load(1, XDATA, add(CFA_XSP16, literal(-9)))
        CFI (cfiCond64) V14 load(1, XDATA, add(CFA_XSP16, literal(-8)))
        CFI (cfiCond64) V15 load(1, XDATA, add(CFA_XSP16, literal(-7)))
        CFI (cfiCond64) R7 load(1, XDATA, add(CFA_XSP16, literal(-6)))
        CFI (cfiCond64) ?RET_LOW load(1, XDATA, add(CFA_XSP16, literal(-5)))
        CFI (cfiCond64) ?RET_HIGH load(1, XDATA, add(CFA_XSP16, literal(-4)))
        CFI (cfiCond64) ?BRET_EXT load(1, XDATA, add(CFA_XSP16, literal(-3)))
        CFI (cfiCond64) DPL0 load(1, XDATA, add(CFA_XSP16, literal(-2)))
        CFI (cfiCond64) DPH0 load(1, XDATA, add(CFA_XSP16, literal(-1)))
        CFI (cfiCond64) CFA_SP SP+0
        CFI (cfiCond64) CFA_XSP16 add(XSP16, 25)
        CFI Block cfiCond65 Using cfiCommon0
        CFI (cfiCond65) NoFunction
        CFI (cfiCond65) Conditional ??CrossCallReturnLabel_61
        CFI (cfiCond65) R6 load(1, XDATA, add(CFA_XSP16, literal(-24)))
        CFI (cfiCond65) VB load(1, XDATA, add(CFA_XSP16, literal(-23)))
        CFI (cfiCond65) V0 load(1, XDATA, add(CFA_XSP16, literal(-22)))
        CFI (cfiCond65) V1 load(1, XDATA, add(CFA_XSP16, literal(-21)))
        CFI (cfiCond65) V2 load(1, XDATA, add(CFA_XSP16, literal(-20)))
        CFI (cfiCond65) V3 load(1, XDATA, add(CFA_XSP16, literal(-19)))
        CFI (cfiCond65) V4 load(1, XDATA, add(CFA_XSP16, literal(-18)))
        CFI (cfiCond65) V5 load(1, XDATA, add(CFA_XSP16, literal(-17)))
        CFI (cfiCond65) V6 load(1, XDATA, add(CFA_XSP16, literal(-16)))
        CFI (cfiCond65) V7 load(1, XDATA, add(CFA_XSP16, literal(-15)))
        CFI (cfiCond65) V8 load(1, XDATA, add(CFA_XSP16, literal(-14)))
        CFI (cfiCond65) V9 load(1, XDATA, add(CFA_XSP16, literal(-13)))
        CFI (cfiCond65) V10 load(1, XDATA, add(CFA_XSP16, literal(-12)))
        CFI (cfiCond65) V11 load(1, XDATA, add(CFA_XSP16, literal(-11)))
        CFI (cfiCond65) V12 load(1, XDATA, add(CFA_XSP16, literal(-10)))
        CFI (cfiCond65) V13 load(1, XDATA, add(CFA_XSP16, literal(-9)))
        CFI (cfiCond65) V14 load(1, XDATA, add(CFA_XSP16, literal(-8)))
        CFI (cfiCond65) V15 load(1, XDATA, add(CFA_XSP16, literal(-7)))
        CFI (cfiCond65) R7 load(1, XDATA, add(CFA_XSP16, literal(-6)))
        CFI (cfiCond65) ?RET_LOW load(1, XDATA, add(CFA_XSP16, literal(-5)))
        CFI (cfiCond65) ?RET_HIGH load(1, XDATA, add(CFA_XSP16, literal(-4)))
        CFI (cfiCond65) ?BRET_EXT load(1, XDATA, add(CFA_XSP16, literal(-3)))
        CFI (cfiCond65) DPL0 load(1, XDATA, add(CFA_XSP16, literal(-2)))
        CFI (cfiCond65) DPH0 load(1, XDATA, add(CFA_XSP16, literal(-1)))
        CFI (cfiCond65) CFA_SP SP+0
        CFI (cfiCond65) CFA_XSP16 add(XSP16, 54)
        CFI Block cfiCond66 Using cfiCommon0
        CFI (cfiCond66) NoFunction
        CFI (cfiCond66) Conditional ??CrossCallReturnLabel_62
        CFI (cfiCond66) R6 load(1, XDATA, add(CFA_XSP16, literal(-24)))
        CFI (cfiCond66) VB load(1, XDATA, add(CFA_XSP16, literal(-23)))
        CFI (cfiCond66) V0 load(1, XDATA, add(CFA_XSP16, literal(-22)))
        CFI (cfiCond66) V1 load(1, XDATA, add(CFA_XSP16, literal(-21)))
        CFI (cfiCond66) V2 load(1, XDATA, add(CFA_XSP16, literal(-20)))
        CFI (cfiCond66) V3 load(1, XDATA, add(CFA_XSP16, literal(-19)))
        CFI (cfiCond66) V4 load(1, XDATA, add(CFA_XSP16, literal(-18)))
        CFI (cfiCond66) V5 load(1, XDATA, add(CFA_XSP16, literal(-17)))
        CFI (cfiCond66) V6 load(1, XDATA, add(CFA_XSP16, literal(-16)))
        CFI (cfiCond66) V7 load(1, XDATA, add(CFA_XSP16, literal(-15)))
        CFI (cfiCond66) V8 load(1, XDATA, add(CFA_XSP16, literal(-14)))
        CFI (cfiCond66) V9 load(1, XDATA, add(CFA_XSP16, literal(-13)))
        CFI (cfiCond66) V10 load(1, XDATA, add(CFA_XSP16, literal(-12)))
        CFI (cfiCond66) V11 load(1, XDATA, add(CFA_XSP16, literal(-11)))
        CFI (cfiCond66) V12 load(1, XDATA, add(CFA_XSP16, literal(-10)))
        CFI (cfiCond66) V13 load(1, XDATA, add(CFA_XSP16, literal(-9)))
        CFI (cfiCond66) V14 load(1, XDATA, add(CFA_XSP16, literal(-8)))
        CFI (cfiCond66) V15 load(1, XDATA, add(CFA_XSP16, literal(-7)))
        CFI (cfiCond66) R7 load(1, XDATA, add(CFA_XSP16, literal(-6)))
        CFI (cfiCond66) ?RET_LOW load(1, XDATA, add(CFA_XSP16, literal(-5)))
        CFI (cfiCond66) ?RET_HIGH load(1, XDATA, add(CFA_XSP16, literal(-4)))
        CFI (cfiCond66) ?BRET_EXT load(1, XDATA, add(CFA_XSP16, literal(-3)))
        CFI (cfiCond66) DPL0 load(1, XDATA, add(CFA_XSP16, literal(-2)))
        CFI (cfiCond66) DPH0 load(1, XDATA, add(CFA_XSP16, literal(-1)))
        CFI (cfiCond66) CFA_SP SP+0
        CFI (cfiCond66) CFA_XSP16 add(XSP16, 54)
        CFI Block cfiCond67 Using cfiCommon0
        CFI (cfiCond67) NoFunction
        CFI (cfiCond67) Conditional ??CrossCallReturnLabel_63
        CFI (cfiCond67) R6 load(1, XDATA, add(CFA_XSP16, literal(-24)))
        CFI (cfiCond67) VB load(1, XDATA, add(CFA_XSP16, literal(-23)))
        CFI (cfiCond67) V0 load(1, XDATA, add(CFA_XSP16, literal(-22)))
        CFI (cfiCond67) V1 load(1, XDATA, add(CFA_XSP16, literal(-21)))
        CFI (cfiCond67) V2 load(1, XDATA, add(CFA_XSP16, literal(-20)))
        CFI (cfiCond67) V3 load(1, XDATA, add(CFA_XSP16, literal(-19)))
        CFI (cfiCond67) V4 load(1, XDATA, add(CFA_XSP16, literal(-18)))
        CFI (cfiCond67) V5 load(1, XDATA, add(CFA_XSP16, literal(-17)))
        CFI (cfiCond67) V6 load(1, XDATA, add(CFA_XSP16, literal(-16)))
        CFI (cfiCond67) V7 load(1, XDATA, add(CFA_XSP16, literal(-15)))
        CFI (cfiCond67) V8 load(1, XDATA, add(CFA_XSP16, literal(-14)))
        CFI (cfiCond67) V9 load(1, XDATA, add(CFA_XSP16, literal(-13)))
        CFI (cfiCond67) V10 load(1, XDATA, add(CFA_XSP16, literal(-12)))
        CFI (cfiCond67) V11 load(1, XDATA, add(CFA_XSP16, literal(-11)))
        CFI (cfiCond67) V12 load(1, XDATA, add(CFA_XSP16, literal(-10)))
        CFI (cfiCond67) V13 load(1, XDATA, add(CFA_XSP16, literal(-9)))
        CFI (cfiCond67) V14 load(1, XDATA, add(CFA_XSP16, literal(-8)))
        CFI (cfiCond67) V15 load(1, XDATA, add(CFA_XSP16, literal(-7)))
        CFI (cfiCond67) R7 load(1, XDATA, add(CFA_XSP16, literal(-6)))
        CFI (cfiCond67) ?RET_LOW load(1, XDATA, add(CFA_XSP16, literal(-5)))
        CFI (cfiCond67) ?RET_HIGH load(1, XDATA, add(CFA_XSP16, literal(-4)))
        CFI (cfiCond67) ?BRET_EXT load(1, XDATA, add(CFA_XSP16, literal(-3)))
        CFI (cfiCond67) DPL0 load(1, XDATA, add(CFA_XSP16, literal(-2)))
        CFI (cfiCond67) DPH0 load(1, XDATA, add(CFA_XSP16, literal(-1)))
        CFI (cfiCond67) CFA_SP SP+0
        CFI (cfiCond67) CFA_XSP16 add(XSP16, 54)
        CFI Block cfiCond68 Using cfiCommon0
        CFI (cfiCond68) NoFunction
        CFI (cfiCond68) Conditional ??CrossCallReturnLabel_64
        CFI (cfiCond68) R6 load(1, XDATA, add(CFA_XSP16, literal(-9)))
        CFI (cfiCond68) VB load(1, XDATA, add(CFA_XSP16, literal(-8)))
        CFI (cfiCond68) V0 load(1, XDATA, add(CFA_XSP16, literal(-7)))
        CFI (cfiCond68) R7 load(1, XDATA, add(CFA_XSP16, literal(-6)))
        CFI (cfiCond68) ?RET_LOW load(1, XDATA, add(CFA_XSP16, literal(-5)))
        CFI (cfiCond68) ?RET_HIGH load(1, XDATA, add(CFA_XSP16, literal(-4)))
        CFI (cfiCond68) ?BRET_EXT load(1, XDATA, add(CFA_XSP16, literal(-3)))
        CFI (cfiCond68) DPL0 load(1, XDATA, add(CFA_XSP16, literal(-2)))
        CFI (cfiCond68) DPH0 load(1, XDATA, add(CFA_XSP16, literal(-1)))
        CFI (cfiCond68) CFA_SP SP+0
        CFI (cfiCond68) CFA_XSP16 add(XSP16, 9)
        CFI Block cfiCond69 Using cfiCommon0
        CFI (cfiCond69) NoFunction
        CFI (cfiCond69) Conditional ??CrossCallReturnLabel_65
        CFI (cfiCond69) R6 load(1, XDATA, add(CFA_XSP16, literal(-24)))
        CFI (cfiCond69) VB load(1, XDATA, add(CFA_XSP16, literal(-23)))
        CFI (cfiCond69) V0 load(1, XDATA, add(CFA_XSP16, literal(-22)))
        CFI (cfiCond69) V1 load(1, XDATA, add(CFA_XSP16, literal(-21)))
        CFI (cfiCond69) V2 load(1, XDATA, add(CFA_XSP16, literal(-20)))
        CFI (cfiCond69) V3 load(1, XDATA, add(CFA_XSP16, literal(-19)))
        CFI (cfiCond69) V4 load(1, XDATA, add(CFA_XSP16, literal(-18)))
        CFI (cfiCond69) V5 load(1, XDATA, add(CFA_XSP16, literal(-17)))
        CFI (cfiCond69) V6 load(1, XDATA, add(CFA_XSP16, literal(-16)))
        CFI (cfiCond69) V7 load(1, XDATA, add(CFA_XSP16, literal(-15)))
        CFI (cfiCond69) V8 load(1, XDATA, add(CFA_XSP16, literal(-14)))
        CFI (cfiCond69) V9 load(1, XDATA, add(CFA_XSP16, literal(-13)))
        CFI (cfiCond69) V10 load(1, XDATA, add(CFA_XSP16, literal(-12)))
        CFI (cfiCond69) V11 load(1, XDATA, add(CFA_XSP16, literal(-11)))
        CFI (cfiCond69) V12 load(1, XDATA, add(CFA_XSP16, literal(-10)))
        CFI (cfiCond69) V13 load(1, XDATA, add(CFA_XSP16, literal(-9)))
        CFI (cfiCond69) V14 load(1, XDATA, add(CFA_XSP16, literal(-8)))
        CFI (cfiCond69) V15 load(1, XDATA, add(CFA_XSP16, literal(-7)))
        CFI (cfiCond69) R7 load(1, XDATA, add(CFA_XSP16, literal(-6)))
        CFI (cfiCond69) ?RET_LOW load(1, XDATA, add(CFA_XSP16, literal(-5)))
        CFI (cfiCond69) ?RET_HIGH load(1, XDATA, add(CFA_XSP16, literal(-4)))
        CFI (cfiCond69) ?BRET_EXT load(1, XDATA, add(CFA_XSP16, literal(-3)))
        CFI (cfiCond69) DPL0 load(1, XDATA, add(CFA_XSP16, literal(-2)))
        CFI (cfiCond69) DPH0 load(1, XDATA, add(CFA_XSP16, literal(-1)))
        CFI (cfiCond69) CFA_SP SP+0
        CFI (cfiCond69) CFA_XSP16 add(XSP16, 25)
        CFI Block cfiCond70 Using cfiCommon0
        CFI (cfiCond70) NoFunction
        CFI (cfiCond70) Conditional ??CrossCallReturnLabel_66
        CFI (cfiCond70) R6 load(1, XDATA, add(CFA_XSP16, literal(-24)))
        CFI (cfiCond70) VB load(1, XDATA, add(CFA_XSP16, literal(-23)))
        CFI (cfiCond70) V0 load(1, XDATA, add(CFA_XSP16, literal(-22)))
        CFI (cfiCond70) V1 load(1, XDATA, add(CFA_XSP16, literal(-21)))
        CFI (cfiCond70) V2 load(1, XDATA, add(CFA_XSP16, literal(-20)))
        CFI (cfiCond70) V3 load(1, XDATA, add(CFA_XSP16, literal(-19)))
        CFI (cfiCond70) V4 load(1, XDATA, add(CFA_XSP16, literal(-18)))
        CFI (cfiCond70) V5 load(1, XDATA, add(CFA_XSP16, literal(-17)))
        CFI (cfiCond70) V6 load(1, XDATA, add(CFA_XSP16, literal(-16)))
        CFI (cfiCond70) V7 load(1, XDATA, add(CFA_XSP16, literal(-15)))
        CFI (cfiCond70) V8 load(1, XDATA, add(CFA_XSP16, literal(-14)))
        CFI (cfiCond70) V9 load(1, XDATA, add(CFA_XSP16, literal(-13)))
        CFI (cfiCond70) V10 load(1, XDATA, add(CFA_XSP16, literal(-12)))
        CFI (cfiCond70) V11 load(1, XDATA, add(CFA_XSP16, literal(-11)))
        CFI (cfiCond70) V12 load(1, XDATA, add(CFA_XSP16, literal(-10)))
        CFI (cfiCond70) V13 load(1, XDATA, add(CFA_XSP16, literal(-9)))
        CFI (cfiCond70) V14 load(1, XDATA, add(CFA_XSP16, literal(-8)))
        CFI (cfiCond70) V15 load(1, XDATA, add(CFA_XSP16, literal(-7)))
        CFI (cfiCond70) R7 load(1, XDATA, add(CFA_XSP16, literal(-6)))
        CFI (cfiCond70) ?RET_LOW load(1, XDATA, add(CFA_XSP16, literal(-5)))
        CFI (cfiCond70) ?RET_HIGH load(1, XDATA, add(CFA_XSP16, literal(-4)))
        CFI (cfiCond70) ?BRET_EXT load(1, XDATA, add(CFA_XSP16, literal(-3)))
        CFI (cfiCond70) DPL0 load(1, XDATA, add(CFA_XSP16, literal(-2)))
        CFI (cfiCond70) DPH0 load(1, XDATA, add(CFA_XSP16, literal(-1)))
        CFI (cfiCond70) CFA_SP SP+0
        CFI (cfiCond70) CFA_XSP16 add(XSP16, 25)
        CFI Block cfiPicker71 Using cfiCommon1
        CFI (cfiPicker71) NoFunction
        CFI (cfiPicker71) Picker
        MOV     A,R0
        MOVX    @DPTR,A
        INC     DPTR
        MOV     A,R1
        MOVX    @DPTR,A
        RET
        CFI EndBlock cfiCond61
        CFI EndBlock cfiCond62
        CFI EndBlock cfiCond63
        CFI EndBlock cfiCond64
        CFI EndBlock cfiCond65
        CFI EndBlock cfiCond66
        CFI EndBlock cfiCond67
        CFI EndBlock cfiCond68
        CFI EndBlock cfiCond69
        CFI EndBlock cfiCond70
        CFI EndBlock cfiPicker71

        RSEG BANKED_CODE:CODE:NOROOT(0)
?Subroutine20:
        CFI Block cfiCond72 Using cfiCommon0
        CFI NoFunction
        CFI Conditional ??CrossCallReturnLabel_31
        CFI R6 load(1, XDATA, add(CFA_XSP16, literal(-24)))
        CFI VB load(1, XDATA, add(CFA_XSP16, literal(-23)))
        CFI V0 load(1, XDATA, add(CFA_XSP16, literal(-22)))
        CFI V1 load(1, XDATA, add(CFA_XSP16, literal(-21)))
        CFI V2 load(1, XDATA, add(CFA_XSP16, literal(-20)))
        CFI V3 load(1, XDATA, add(CFA_XSP16, literal(-19)))
        CFI V4 load(1, XDATA, add(CFA_XSP16, literal(-18)))
        CFI V5 load(1, XDATA, add(CFA_XSP16, literal(-17)))
        CFI V6 load(1, XDATA, add(CFA_XSP16, literal(-16)))
        CFI V7 load(1, XDATA, add(CFA_XSP16, literal(-15)))
        CFI V8 load(1, XDATA, add(CFA_XSP16, literal(-14)))
        CFI V9 load(1, XDATA, add(CFA_XSP16, literal(-13)))
        CFI V10 load(1, XDATA, add(CFA_XSP16, literal(-12)))
        CFI V11 load(1, XDATA, add(CFA_XSP16, literal(-11)))
        CFI V12 load(1, XDATA, add(CFA_XSP16, literal(-10)))
        CFI V13 load(1, XDATA, add(CFA_XSP16, literal(-9)))
        CFI V14 load(1, XDATA, add(CFA_XSP16, literal(-8)))
        CFI V15 load(1, XDATA, add(CFA_XSP16, literal(-7)))
        CFI R7 load(1, XDATA, add(CFA_XSP16, literal(-6)))
        CFI ?RET_LOW load(1, XDATA, add(CFA_XSP16, literal(-5)))
        CFI ?RET_HIGH load(1, XDATA, add(CFA_XSP16, literal(-4)))
        CFI ?BRET_EXT load(1, XDATA, add(CFA_XSP16, literal(-3)))
        CFI DPL0 load(1, XDATA, add(CFA_XSP16, literal(-2)))
        CFI DPH0 load(1, XDATA, add(CFA_XSP16, literal(-1)))
        CFI CFA_SP SP+0
        CFI CFA_XSP16 add(XSP16, 27)
        CFI Block cfiCond73 Using cfiCommon0
        CFI (cfiCond73) NoFunction
        CFI (cfiCond73) Conditional ??CrossCallReturnLabel_32
        CFI (cfiCond73) R6 load(1, XDATA, add(CFA_XSP16, literal(-24)))
        CFI (cfiCond73) VB load(1, XDATA, add(CFA_XSP16, literal(-23)))
        CFI (cfiCond73) V0 load(1, XDATA, add(CFA_XSP16, literal(-22)))
        CFI (cfiCond73) V1 load(1, XDATA, add(CFA_XSP16, literal(-21)))
        CFI (cfiCond73) V2 load(1, XDATA, add(CFA_XSP16, literal(-20)))
        CFI (cfiCond73) V3 load(1, XDATA, add(CFA_XSP16, literal(-19)))
        CFI (cfiCond73) V4 load(1, XDATA, add(CFA_XSP16, literal(-18)))
        CFI (cfiCond73) V5 load(1, XDATA, add(CFA_XSP16, literal(-17)))
        CFI (cfiCond73) V6 load(1, XDATA, add(CFA_XSP16, literal(-16)))
        CFI (cfiCond73) V7 load(1, XDATA, add(CFA_XSP16, literal(-15)))
        CFI (cfiCond73) V8 load(1, XDATA, add(CFA_XSP16, literal(-14)))
        CFI (cfiCond73) V9 load(1, XDATA, add(CFA_XSP16, literal(-13)))
        CFI (cfiCond73) V10 load(1, XDATA, add(CFA_XSP16, literal(-12)))
        CFI (cfiCond73) V11 load(1, XDATA, add(CFA_XSP16, literal(-11)))
        CFI (cfiCond73) V12 load(1, XDATA, add(CFA_XSP16, literal(-10)))
        CFI (cfiCond73) V13 load(1, XDATA, add(CFA_XSP16, literal(-9)))
        CFI (cfiCond73) V14 load(1, XDATA, add(CFA_XSP16, literal(-8)))
        CFI (cfiCond73) V15 load(1, XDATA, add(CFA_XSP16, literal(-7)))
        CFI (cfiCond73) R7 load(1, XDATA, add(CFA_XSP16, literal(-6)))
        CFI (cfiCond73) ?RET_LOW load(1, XDATA, add(CFA_XSP16, literal(-5)))
        CFI (cfiCond73) ?RET_HIGH load(1, XDATA, add(CFA_XSP16, literal(-4)))
        CFI (cfiCond73) ?BRET_EXT load(1, XDATA, add(CFA_XSP16, literal(-3)))
        CFI (cfiCond73) DPL0 load(1, XDATA, add(CFA_XSP16, literal(-2)))
        CFI (cfiCond73) DPH0 load(1, XDATA, add(CFA_XSP16, literal(-1)))
        CFI (cfiCond73) CFA_SP SP+0
        CFI (cfiCond73) CFA_XSP16 add(XSP16, 54)
        CFI Block cfiPicker74 Using cfiCommon1
        CFI (cfiPicker74) NoFunction
        CFI (cfiPicker74) Picker
        MOVX    A,@DPTR
        MOV     R2,A
        MOV     R1,#0x2
        MOV     DPL,R4
        MOV     DPH,R5
        RET
        CFI EndBlock cfiCond72
        CFI EndBlock cfiCond73
        CFI EndBlock cfiPicker74

        RSEG BANKED_CODE:CODE:NOROOT(0)
?Subroutine14:
        CFI Block cfiCond75 Using cfiCommon0
        CFI NoFunction
        CFI Conditional ??CrossCallReturnLabel_73
        CFI R6 load(1, XDATA, add(CFA_XSP16, literal(-9)))
        CFI VB load(1, XDATA, add(CFA_XSP16, literal(-8)))
        CFI V0 load(1, XDATA, add(CFA_XSP16, literal(-7)))
        CFI R7 load(1, XDATA, add(CFA_XSP16, literal(-6)))
        CFI ?RET_LOW load(1, XDATA, add(CFA_XSP16, literal(-5)))
        CFI ?RET_HIGH load(1, XDATA, add(CFA_XSP16, literal(-4)))
        CFI ?BRET_EXT load(1, XDATA, add(CFA_XSP16, literal(-3)))
        CFI DPL0 load(1, XDATA, add(CFA_XSP16, literal(-2)))
        CFI DPH0 load(1, XDATA, add(CFA_XSP16, literal(-1)))
        CFI CFA_SP SP+0
        CFI CFA_XSP16 add(XSP16, 9)
        CFI Block cfiCond76 Using cfiCommon0
        CFI (cfiCond76) NoFunction
        CFI (cfiCond76) Conditional ??CrossCallReturnLabel_74
        CFI (cfiCond76) R6 load(1, XDATA, add(CFA_XSP16, literal(-24)))
        CFI (cfiCond76) VB load(1, XDATA, add(CFA_XSP16, literal(-23)))
        CFI (cfiCond76) V0 load(1, XDATA, add(CFA_XSP16, literal(-22)))
        CFI (cfiCond76) V1 load(1, XDATA, add(CFA_XSP16, literal(-21)))
        CFI (cfiCond76) V2 load(1, XDATA, add(CFA_XSP16, literal(-20)))
        CFI (cfiCond76) V3 load(1, XDATA, add(CFA_XSP16, literal(-19)))
        CFI (cfiCond76) V4 load(1, XDATA, add(CFA_XSP16, literal(-18)))
        CFI (cfiCond76) V5 load(1, XDATA, add(CFA_XSP16, literal(-17)))
        CFI (cfiCond76) V6 load(1, XDATA, add(CFA_XSP16, literal(-16)))
        CFI (cfiCond76) V7 load(1, XDATA, add(CFA_XSP16, literal(-15)))
        CFI (cfiCond76) V8 load(1, XDATA, add(CFA_XSP16, literal(-14)))
        CFI (cfiCond76) V9 load(1, XDATA, add(CFA_XSP16, literal(-13)))
        CFI (cfiCond76) V10 load(1, XDATA, add(CFA_XSP16, literal(-12)))
        CFI (cfiCond76) V11 load(1, XDATA, add(CFA_XSP16, literal(-11)))
        CFI (cfiCond76) V12 load(1, XDATA, add(CFA_XSP16, literal(-10)))
        CFI (cfiCond76) V13 load(1, XDATA, add(CFA_XSP16, literal(-9)))
        CFI (cfiCond76) V14 load(1, XDATA, add(CFA_XSP16, literal(-8)))
        CFI (cfiCond76) V15 load(1, XDATA, add(CFA_XSP16, literal(-7)))
        CFI (cfiCond76) R7 load(1, XDATA, add(CFA_XSP16, literal(-6)))
        CFI (cfiCond76) ?RET_LOW load(1, XDATA, add(CFA_XSP16, literal(-5)))
        CFI (cfiCond76) ?RET_HIGH load(1, XDATA, add(CFA_XSP16, literal(-4)))
        CFI (cfiCond76) ?BRET_EXT load(1, XDATA, add(CFA_XSP16, literal(-3)))
        CFI (cfiCond76) DPL0 load(1, XDATA, add(CFA_XSP16, literal(-2)))
        CFI (cfiCond76) DPH0 load(1, XDATA, add(CFA_XSP16, literal(-1)))
        CFI (cfiCond76) CFA_SP SP+0
        CFI (cfiCond76) CFA_XSP16 add(XSP16, 54)
        CFI Block cfiPicker77 Using cfiCommon1
        CFI (cfiPicker77) NoFunction
        CFI (cfiPicker77) Picker
        MOV     DPL,R2
        MOV     DPH,R3
        CFI EndBlock cfiCond75
        CFI EndBlock cfiCond76
        CFI EndBlock cfiPicker77
        REQUIRE ??Subroutine37_0
        ; // Fall through to label ??Subroutine37_0

        RSEG BANKED_CODE:CODE:NOROOT(0)
??Subroutine37_0:
        CFI Block cfiCond78 Using cfiCommon0
        CFI NoFunction
        CFI Conditional ??CrossCallReturnLabel_67
        CFI R6 load(1, XDATA, add(CFA_XSP16, literal(-12)))
        CFI VB load(1, XDATA, add(CFA_XSP16, literal(-11)))
        CFI V0 load(1, XDATA, add(CFA_XSP16, literal(-10)))
        CFI V1 load(1, XDATA, add(CFA_XSP16, literal(-9)))
        CFI V2 load(1, XDATA, add(CFA_XSP16, literal(-8)))
        CFI V3 load(1, XDATA, add(CFA_XSP16, literal(-7)))
        CFI R7 load(1, XDATA, add(CFA_XSP16, literal(-6)))
        CFI ?RET_LOW load(1, XDATA, add(CFA_XSP16, literal(-5)))
        CFI ?RET_HIGH load(1, XDATA, add(CFA_XSP16, literal(-4)))
        CFI ?BRET_EXT load(1, XDATA, add(CFA_XSP16, literal(-3)))
        CFI DPL0 load(1, XDATA, add(CFA_XSP16, literal(-2)))
        CFI DPH0 load(1, XDATA, add(CFA_XSP16, literal(-1)))
        CFI CFA_SP SP+0
        CFI CFA_XSP16 add(XSP16, 12)
        CFI Block cfiCond79 Using cfiCommon0
        CFI (cfiCond79) NoFunction
        CFI (cfiCond79) Conditional ??CrossCallReturnLabel_68
        CFI (cfiCond79) R6 load(1, XDATA, add(CFA_XSP16, literal(-24)))
        CFI (cfiCond79) VB load(1, XDATA, add(CFA_XSP16, literal(-23)))
        CFI (cfiCond79) V0 load(1, XDATA, add(CFA_XSP16, literal(-22)))
        CFI (cfiCond79) V1 load(1, XDATA, add(CFA_XSP16, literal(-21)))
        CFI (cfiCond79) V2 load(1, XDATA, add(CFA_XSP16, literal(-20)))
        CFI (cfiCond79) V3 load(1, XDATA, add(CFA_XSP16, literal(-19)))
        CFI (cfiCond79) V4 load(1, XDATA, add(CFA_XSP16, literal(-18)))
        CFI (cfiCond79) V5 load(1, XDATA, add(CFA_XSP16, literal(-17)))
        CFI (cfiCond79) V6 load(1, XDATA, add(CFA_XSP16, literal(-16)))
        CFI (cfiCond79) V7 load(1, XDATA, add(CFA_XSP16, literal(-15)))
        CFI (cfiCond79) V8 load(1, XDATA, add(CFA_XSP16, literal(-14)))
        CFI (cfiCond79) V9 load(1, XDATA, add(CFA_XSP16, literal(-13)))
        CFI (cfiCond79) V10 load(1, XDATA, add(CFA_XSP16, literal(-12)))
        CFI (cfiCond79) V11 load(1, XDATA, add(CFA_XSP16, literal(-11)))
        CFI (cfiCond79) V12 load(1, XDATA, add(CFA_XSP16, literal(-10)))
        CFI (cfiCond79) V13 load(1, XDATA, add(CFA_XSP16, literal(-9)))
        CFI (cfiCond79) V14 load(1, XDATA, add(CFA_XSP16, literal(-8)))
        CFI (cfiCond79) V15 load(1, XDATA, add(CFA_XSP16, literal(-7)))
        CFI (cfiCond79) R7 load(1, XDATA, add(CFA_XSP16, literal(-6)))
        CFI (cfiCond79) ?RET_LOW load(1, XDATA, add(CFA_XSP16, literal(-5)))
        CFI (cfiCond79) ?RET_HIGH load(1, XDATA, add(CFA_XSP16, literal(-4)))
        CFI (cfiCond79) ?BRET_EXT load(1, XDATA, add(CFA_XSP16, literal(-3)))
        CFI (cfiCond79) DPL0 load(1, XDATA, add(CFA_XSP16, literal(-2)))
        CFI (cfiCond79) DPH0 load(1, XDATA, add(CFA_XSP16, literal(-1)))
        CFI (cfiCond79) CFA_SP SP+0
        CFI (cfiCond79) CFA_XSP16 add(XSP16, 25)
        CFI Block cfiCond80 Using cfiCommon0
        CFI (cfiCond80) NoFunction
        CFI (cfiCond80) Conditional ??CrossCallReturnLabel_69
        CFI (cfiCond80) R6 load(1, XDATA, add(CFA_XSP16, literal(-24)))
        CFI (cfiCond80) VB load(1, XDATA, add(CFA_XSP16, literal(-23)))
        CFI (cfiCond80) V0 load(1, XDATA, add(CFA_XSP16, literal(-22)))
        CFI (cfiCond80) V1 load(1, XDATA, add(CFA_XSP16, literal(-21)))
        CFI (cfiCond80) V2 load(1, XDATA, add(CFA_XSP16, literal(-20)))
        CFI (cfiCond80) V3 load(1, XDATA, add(CFA_XSP16, literal(-19)))
        CFI (cfiCond80) V4 load(1, XDATA, add(CFA_XSP16, literal(-18)))
        CFI (cfiCond80) V5 load(1, XDATA, add(CFA_XSP16, literal(-17)))
        CFI (cfiCond80) V6 load(1, XDATA, add(CFA_XSP16, literal(-16)))
        CFI (cfiCond80) V7 load(1, XDATA, add(CFA_XSP16, literal(-15)))
        CFI (cfiCond80) V8 load(1, XDATA, add(CFA_XSP16, literal(-14)))
        CFI (cfiCond80) V9 load(1, XDATA, add(CFA_XSP16, literal(-13)))
        CFI (cfiCond80) V10 load(1, XDATA, add(CFA_XSP16, literal(-12)))
        CFI (cfiCond80) V11 load(1, XDATA, add(CFA_XSP16, literal(-11)))
        CFI (cfiCond80) V12 load(1, XDATA, add(CFA_XSP16, literal(-10)))
        CFI (cfiCond80) V13 load(1, XDATA, add(CFA_XSP16, literal(-9)))
        CFI (cfiCond80) V14 load(1, XDATA, add(CFA_XSP16, literal(-8)))
        CFI (cfiCond80) V15 load(1, XDATA, add(CFA_XSP16, literal(-7)))
        CFI (cfiCond80) R7 load(1, XDATA, add(CFA_XSP16, literal(-6)))
        CFI (cfiCond80) ?RET_LOW load(1, XDATA, add(CFA_XSP16, literal(-5)))
        CFI (cfiCond80) ?RET_HIGH load(1, XDATA, add(CFA_XSP16, literal(-4)))
        CFI (cfiCond80) ?BRET_EXT load(1, XDATA, add(CFA_XSP16, literal(-3)))
        CFI (cfiCond80) DPL0 load(1, XDATA, add(CFA_XSP16, literal(-2)))
        CFI (cfiCond80) DPH0 load(1, XDATA, add(CFA_XSP16, literal(-1)))
        CFI (cfiCond80) CFA_SP SP+0
        CFI (cfiCond80) CFA_XSP16 add(XSP16, 25)
        CFI Block cfiCond81 Using cfiCommon0
        CFI (cfiCond81) NoFunction
        CFI (cfiCond81) Conditional ??CrossCallReturnLabel_70
        CFI (cfiCond81) R6 load(1, XDATA, add(CFA_XSP16, literal(-24)))
        CFI (cfiCond81) VB load(1, XDATA, add(CFA_XSP16, literal(-23)))
        CFI (cfiCond81) V0 load(1, XDATA, add(CFA_XSP16, literal(-22)))
        CFI (cfiCond81) V1 load(1, XDATA, add(CFA_XSP16, literal(-21)))
        CFI (cfiCond81) V2 load(1, XDATA, add(CFA_XSP16, literal(-20)))
        CFI (cfiCond81) V3 load(1, XDATA, add(CFA_XSP16, literal(-19)))
        CFI (cfiCond81) V4 load(1, XDATA, add(CFA_XSP16, literal(-18)))
        CFI (cfiCond81) V5 load(1, XDATA, add(CFA_XSP16, literal(-17)))
        CFI (cfiCond81) V6 load(1, XDATA, add(CFA_XSP16, literal(-16)))
        CFI (cfiCond81) V7 load(1, XDATA, add(CFA_XSP16, literal(-15)))
        CFI (cfiCond81) V8 load(1, XDATA, add(CFA_XSP16, literal(-14)))
        CFI (cfiCond81) V9 load(1, XDATA, add(CFA_XSP16, literal(-13)))
        CFI (cfiCond81) V10 load(1, XDATA, add(CFA_XSP16, literal(-12)))
        CFI (cfiCond81) V11 load(1, XDATA, add(CFA_XSP16, literal(-11)))
        CFI (cfiCond81) V12 load(1, XDATA, add(CFA_XSP16, literal(-10)))
        CFI (cfiCond81) V13 load(1, XDATA, add(CFA_XSP16, literal(-9)))
        CFI (cfiCond81) V14 load(1, XDATA, add(CFA_XSP16, literal(-8)))
        CFI (cfiCond81) V15 load(1, XDATA, add(CFA_XSP16, literal(-7)))
        CFI (cfiCond81) R7 load(1, XDATA, add(CFA_XSP16, literal(-6)))
        CFI (cfiCond81) ?RET_LOW load(1, XDATA, add(CFA_XSP16, literal(-5)))
        CFI (cfiCond81) ?RET_HIGH load(1, XDATA, add(CFA_XSP16, literal(-4)))
        CFI (cfiCond81) ?BRET_EXT load(1, XDATA, add(CFA_XSP16, literal(-3)))
        CFI (cfiCond81) DPL0 load(1, XDATA, add(CFA_XSP16, literal(-2)))
        CFI (cfiCond81) DPH0 load(1, XDATA, add(CFA_XSP16, literal(-1)))
        CFI (cfiCond81) CFA_SP SP+0
        CFI (cfiCond81) CFA_XSP16 add(XSP16, 54)
        CFI Block cfiCond82 Using cfiCommon0
        CFI (cfiCond82) NoFunction
        CFI (cfiCond82) Conditional ??CrossCallReturnLabel_71
        CFI (cfiCond82) R6 load(1, XDATA, add(CFA_XSP16, literal(-24)))
        CFI (cfiCond82) VB load(1, XDATA, add(CFA_XSP16, literal(-23)))
        CFI (cfiCond82) V0 load(1, XDATA, add(CFA_XSP16, literal(-22)))
        CFI (cfiCond82) V1 load(1, XDATA, add(CFA_XSP16, literal(-21)))
        CFI (cfiCond82) V2 load(1, XDATA, add(CFA_XSP16, literal(-20)))
        CFI (cfiCond82) V3 load(1, XDATA, add(CFA_XSP16, literal(-19)))
        CFI (cfiCond82) V4 load(1, XDATA, add(CFA_XSP16, literal(-18)))
        CFI (cfiCond82) V5 load(1, XDATA, add(CFA_XSP16, literal(-17)))
        CFI (cfiCond82) V6 load(1, XDATA, add(CFA_XSP16, literal(-16)))
        CFI (cfiCond82) V7 load(1, XDATA, add(CFA_XSP16, literal(-15)))
        CFI (cfiCond82) V8 load(1, XDATA, add(CFA_XSP16, literal(-14)))
        CFI (cfiCond82) V9 load(1, XDATA, add(CFA_XSP16, literal(-13)))
        CFI (cfiCond82) V10 load(1, XDATA, add(CFA_XSP16, literal(-12)))
        CFI (cfiCond82) V11 load(1, XDATA, add(CFA_XSP16, literal(-11)))
        CFI (cfiCond82) V12 load(1, XDATA, add(CFA_XSP16, literal(-10)))
        CFI (cfiCond82) V13 load(1, XDATA, add(CFA_XSP16, literal(-9)))
        CFI (cfiCond82) V14 load(1, XDATA, add(CFA_XSP16, literal(-8)))
        CFI (cfiCond82) V15 load(1, XDATA, add(CFA_XSP16, literal(-7)))
        CFI (cfiCond82) R7 load(1, XDATA, add(CFA_XSP16, literal(-6)))
        CFI (cfiCond82) ?RET_LOW load(1, XDATA, add(CFA_XSP16, literal(-5)))
        CFI (cfiCond82) ?RET_HIGH load(1, XDATA, add(CFA_XSP16, literal(-4)))
        CFI (cfiCond82) ?BRET_EXT load(1, XDATA, add(CFA_XSP16, literal(-3)))
        CFI (cfiCond82) DPL0 load(1, XDATA, add(CFA_XSP16, literal(-2)))
        CFI (cfiCond82) DPH0 load(1, XDATA, add(CFA_XSP16, literal(-1)))
        CFI (cfiCond82) CFA_SP SP+0
        CFI (cfiCond82) CFA_XSP16 add(XSP16, 54)
        CFI Block cfiCond83 Using cfiCommon0
        CFI (cfiCond83) NoFunction
        CFI (cfiCond83) Conditional ??CrossCallReturnLabel_72
        CFI (cfiCond83) DPL0 Frame(CFA_SP, 4)
        CFI (cfiCond83) DPH0 Frame(CFA_SP, 5)
        CFI (cfiCond83) CFA_SP SP+-5
        CFI Block cfiCond84 Using cfiCommon0
        CFI (cfiCond84) NoFunction
        CFI (cfiCond84) Conditional ??CrossCallReturnLabel_73
        CFI (cfiCond84) R6 load(1, XDATA, add(CFA_XSP16, literal(-9)))
        CFI (cfiCond84) VB load(1, XDATA, add(CFA_XSP16, literal(-8)))
        CFI (cfiCond84) V0 load(1, XDATA, add(CFA_XSP16, literal(-7)))
        CFI (cfiCond84) R7 load(1, XDATA, add(CFA_XSP16, literal(-6)))
        CFI (cfiCond84) ?RET_LOW load(1, XDATA, add(CFA_XSP16, literal(-5)))
        CFI (cfiCond84) ?RET_HIGH load(1, XDATA, add(CFA_XSP16, literal(-4)))
        CFI (cfiCond84) ?BRET_EXT load(1, XDATA, add(CFA_XSP16, literal(-3)))
        CFI (cfiCond84) DPL0 load(1, XDATA, add(CFA_XSP16, literal(-2)))
        CFI (cfiCond84) DPH0 load(1, XDATA, add(CFA_XSP16, literal(-1)))
        CFI (cfiCond84) CFA_SP SP+0
        CFI (cfiCond84) CFA_XSP16 add(XSP16, 9)
        CFI Block cfiCond85 Using cfiCommon0
        CFI (cfiCond85) NoFunction
        CFI (cfiCond85) Conditional ??CrossCallReturnLabel_74
        CFI (cfiCond85) R6 load(1, XDATA, add(CFA_XSP16, literal(-24)))
        CFI (cfiCond85) VB load(1, XDATA, add(CFA_XSP16, literal(-23)))
        CFI (cfiCond85) V0 load(1, XDATA, add(CFA_XSP16, literal(-22)))
        CFI (cfiCond85) V1 load(1, XDATA, add(CFA_XSP16, literal(-21)))
        CFI (cfiCond85) V2 load(1, XDATA, add(CFA_XSP16, literal(-20)))
        CFI (cfiCond85) V3 load(1, XDATA, add(CFA_XSP16, literal(-19)))
        CFI (cfiCond85) V4 load(1, XDATA, add(CFA_XSP16, literal(-18)))
        CFI (cfiCond85) V5 load(1, XDATA, add(CFA_XSP16, literal(-17)))
        CFI (cfiCond85) V6 load(1, XDATA, add(CFA_XSP16, literal(-16)))
        CFI (cfiCond85) V7 load(1, XDATA, add(CFA_XSP16, literal(-15)))
        CFI (cfiCond85) V8 load(1, XDATA, add(CFA_XSP16, literal(-14)))
        CFI (cfiCond85) V9 load(1, XDATA, add(CFA_XSP16, literal(-13)))
        CFI (cfiCond85) V10 load(1, XDATA, add(CFA_XSP16, literal(-12)))
        CFI (cfiCond85) V11 load(1, XDATA, add(CFA_XSP16, literal(-11)))
        CFI (cfiCond85) V12 load(1, XDATA, add(CFA_XSP16, literal(-10)))
        CFI (cfiCond85) V13 load(1, XDATA, add(CFA_XSP16, literal(-9)))
        CFI (cfiCond85) V14 load(1, XDATA, add(CFA_XSP16, literal(-8)))
        CFI (cfiCond85) V15 load(1, XDATA, add(CFA_XSP16, literal(-7)))
        CFI (cfiCond85) R7 load(1, XDATA, add(CFA_XSP16, literal(-6)))
        CFI (cfiCond85) ?RET_LOW load(1, XDATA, add(CFA_XSP16, literal(-5)))
        CFI (cfiCond85) ?RET_HIGH load(1, XDATA, add(CFA_XSP16, literal(-4)))
        CFI (cfiCond85) ?BRET_EXT load(1, XDATA, add(CFA_XSP16, literal(-3)))
        CFI (cfiCond85) DPL0 load(1, XDATA, add(CFA_XSP16, literal(-2)))
        CFI (cfiCond85) DPH0 load(1, XDATA, add(CFA_XSP16, literal(-1)))
        CFI (cfiCond85) CFA_SP SP+0
        CFI (cfiCond85) CFA_XSP16 add(XSP16, 54)
        CFI Block cfiPicker86 Using cfiCommon1
        CFI (cfiPicker86) NoFunction
        CFI (cfiPicker86) Picker
        LCALL   ??Subroutine38_0 & 0xFFFF
??CrossCallReturnLabel_78:
        RET
        CFI EndBlock cfiCond78
        CFI EndBlock cfiCond79
        CFI EndBlock cfiCond80
        CFI EndBlock cfiCond81
        CFI EndBlock cfiCond82
        CFI EndBlock cfiCond83
        CFI EndBlock cfiCond84
        CFI EndBlock cfiCond85
        CFI EndBlock cfiPicker86

        RSEG BANKED_CODE:CODE:NOROOT(0)
?Subroutine10:
        CFI Block cfiCond87 Using cfiCommon0
        CFI NoFunction
        CFI Conditional ??CrossCallReturnLabel_14
        CFI R6 load(1, XDATA, add(CFA_XSP16, literal(-24)))
        CFI VB load(1, XDATA, add(CFA_XSP16, literal(-23)))
        CFI V0 load(1, XDATA, add(CFA_XSP16, literal(-22)))
        CFI V1 load(1, XDATA, add(CFA_XSP16, literal(-21)))
        CFI V2 load(1, XDATA, add(CFA_XSP16, literal(-20)))
        CFI V3 load(1, XDATA, add(CFA_XSP16, literal(-19)))
        CFI V4 load(1, XDATA, add(CFA_XSP16, literal(-18)))
        CFI V5 load(1, XDATA, add(CFA_XSP16, literal(-17)))
        CFI V6 load(1, XDATA, add(CFA_XSP16, literal(-16)))
        CFI V7 load(1, XDATA, add(CFA_XSP16, literal(-15)))
        CFI V8 load(1, XDATA, add(CFA_XSP16, literal(-14)))
        CFI V9 load(1, XDATA, add(CFA_XSP16, literal(-13)))
        CFI V10 load(1, XDATA, add(CFA_XSP16, literal(-12)))
        CFI V11 load(1, XDATA, add(CFA_XSP16, literal(-11)))
        CFI V12 load(1, XDATA, add(CFA_XSP16, literal(-10)))
        CFI V13 load(1, XDATA, add(CFA_XSP16, literal(-9)))
        CFI V14 load(1, XDATA, add(CFA_XSP16, literal(-8)))
        CFI V15 load(1, XDATA, add(CFA_XSP16, literal(-7)))
        CFI R7 load(1, XDATA, add(CFA_XSP16, literal(-6)))
        CFI ?RET_LOW load(1, XDATA, add(CFA_XSP16, literal(-5)))
        CFI ?RET_HIGH load(1, XDATA, add(CFA_XSP16, literal(-4)))
        CFI ?BRET_EXT load(1, XDATA, add(CFA_XSP16, literal(-3)))
        CFI DPL0 load(1, XDATA, add(CFA_XSP16, literal(-2)))
        CFI DPH0 load(1, XDATA, add(CFA_XSP16, literal(-1)))
        CFI CFA_SP SP+0
        CFI CFA_XSP16 add(XSP16, 27)
        CFI Block cfiCond88 Using cfiCommon0
        CFI (cfiCond88) NoFunction
        CFI (cfiCond88) Conditional ??CrossCallReturnLabel_13
        CFI (cfiCond88) R6 load(1, XDATA, add(CFA_XSP16, literal(-24)))
        CFI (cfiCond88) VB load(1, XDATA, add(CFA_XSP16, literal(-23)))
        CFI (cfiCond88) V0 load(1, XDATA, add(CFA_XSP16, literal(-22)))
        CFI (cfiCond88) V1 load(1, XDATA, add(CFA_XSP16, literal(-21)))
        CFI (cfiCond88) V2 load(1, XDATA, add(CFA_XSP16, literal(-20)))
        CFI (cfiCond88) V3 load(1, XDATA, add(CFA_XSP16, literal(-19)))
        CFI (cfiCond88) V4 load(1, XDATA, add(CFA_XSP16, literal(-18)))
        CFI (cfiCond88) V5 load(1, XDATA, add(CFA_XSP16, literal(-17)))
        CFI (cfiCond88) V6 load(1, XDATA, add(CFA_XSP16, literal(-16)))
        CFI (cfiCond88) V7 load(1, XDATA, add(CFA_XSP16, literal(-15)))
        CFI (cfiCond88) V8 load(1, XDATA, add(CFA_XSP16, literal(-14)))
        CFI (cfiCond88) V9 load(1, XDATA, add(CFA_XSP16, literal(-13)))
        CFI (cfiCond88) V10 load(1, XDATA, add(CFA_XSP16, literal(-12)))
        CFI (cfiCond88) V11 load(1, XDATA, add(CFA_XSP16, literal(-11)))
        CFI (cfiCond88) V12 load(1, XDATA, add(CFA_XSP16, literal(-10)))
        CFI (cfiCond88) V13 load(1, XDATA, add(CFA_XSP16, literal(-9)))
        CFI (cfiCond88) V14 load(1, XDATA, add(CFA_XSP16, literal(-8)))
        CFI (cfiCond88) V15 load(1, XDATA, add(CFA_XSP16, literal(-7)))
        CFI (cfiCond88) R7 load(1, XDATA, add(CFA_XSP16, literal(-6)))
        CFI (cfiCond88) ?RET_LOW load(1, XDATA, add(CFA_XSP16, literal(-5)))
        CFI (cfiCond88) ?RET_HIGH load(1, XDATA, add(CFA_XSP16, literal(-4)))
        CFI (cfiCond88) ?BRET_EXT load(1, XDATA, add(CFA_XSP16, literal(-3)))
        CFI (cfiCond88) DPL0 load(1, XDATA, add(CFA_XSP16, literal(-2)))
        CFI (cfiCond88) DPH0 load(1, XDATA, add(CFA_XSP16, literal(-1)))
        CFI (cfiCond88) CFA_SP SP+0
        CFI (cfiCond88) CFA_XSP16 add(XSP16, 54)
        CFI Block cfiPicker89 Using cfiCommon1
        CFI (cfiPicker89) NoFunction
        CFI (cfiPicker89) Picker
        INC     DPTR
        LCALL   ?Subroutine35 & 0xFFFF
??CrossCallReturnLabel_77:
        MOV     A,R0
        MOV     R4,A
        MOV     A,R1
        MOV     R5,A
        MOV     A,R4
        ORL     A,R5
        RET
        CFI EndBlock cfiCond87
        CFI EndBlock cfiCond88
        CFI EndBlock cfiPicker89

        RSEG BANKED_CODE:CODE:NOROOT(0)
?Subroutine35:
        CFI Block cfiCond90 Using cfiCommon0
        CFI NoFunction
        CFI Conditional ??CrossCallReturnLabel_77, ??CrossCallReturnLabel_14
        CFI R6 load(1, XDATA, add(CFA_XSP16, literal(-24)))
        CFI VB load(1, XDATA, add(CFA_XSP16, literal(-23)))
        CFI V0 load(1, XDATA, add(CFA_XSP16, literal(-22)))
        CFI V1 load(1, XDATA, add(CFA_XSP16, literal(-21)))
        CFI V2 load(1, XDATA, add(CFA_XSP16, literal(-20)))
        CFI V3 load(1, XDATA, add(CFA_XSP16, literal(-19)))
        CFI V4 load(1, XDATA, add(CFA_XSP16, literal(-18)))
        CFI V5 load(1, XDATA, add(CFA_XSP16, literal(-17)))
        CFI V6 load(1, XDATA, add(CFA_XSP16, literal(-16)))
        CFI V7 load(1, XDATA, add(CFA_XSP16, literal(-15)))
        CFI V8 load(1, XDATA, add(CFA_XSP16, literal(-14)))
        CFI V9 load(1, XDATA, add(CFA_XSP16, literal(-13)))
        CFI V10 load(1, XDATA, add(CFA_XSP16, literal(-12)))
        CFI V11 load(1, XDATA, add(CFA_XSP16, literal(-11)))
        CFI V12 load(1, XDATA, add(CFA_XSP16, literal(-10)))
        CFI V13 load(1, XDATA, add(CFA_XSP16, literal(-9)))
        CFI V14 load(1, XDATA, add(CFA_XSP16, literal(-8)))
        CFI V15 load(1, XDATA, add(CFA_XSP16, literal(-7)))
        CFI R7 load(1, XDATA, add(CFA_XSP16, literal(-6)))
        CFI ?RET_LOW load(1, XDATA, add(CFA_XSP16, literal(-5)))
        CFI ?RET_HIGH load(1, XDATA, add(CFA_XSP16, literal(-4)))
        CFI ?BRET_EXT load(1, XDATA, add(CFA_XSP16, literal(-3)))
        CFI DPL0 load(1, XDATA, add(CFA_XSP16, literal(-2)))
        CFI DPH0 load(1, XDATA, add(CFA_XSP16, literal(-1)))
        CFI CFA_SP SP+0
        CFI CFA_XSP16 add(XSP16, 27)
        CFI Block cfiCond91 Using cfiCommon0
        CFI (cfiCond91) NoFunction
        CFI (cfiCond91) Conditional ??CrossCallReturnLabel_77, ??CrossCallReturnLabel_13
        CFI (cfiCond91) R6 load(1, XDATA, add(CFA_XSP16, literal(-24)))
        CFI (cfiCond91) VB load(1, XDATA, add(CFA_XSP16, literal(-23)))
        CFI (cfiCond91) V0 load(1, XDATA, add(CFA_XSP16, literal(-22)))
        CFI (cfiCond91) V1 load(1, XDATA, add(CFA_XSP16, literal(-21)))
        CFI (cfiCond91) V2 load(1, XDATA, add(CFA_XSP16, literal(-20)))
        CFI (cfiCond91) V3 load(1, XDATA, add(CFA_XSP16, literal(-19)))
        CFI (cfiCond91) V4 load(1, XDATA, add(CFA_XSP16, literal(-18)))
        CFI (cfiCond91) V5 load(1, XDATA, add(CFA_XSP16, literal(-17)))
        CFI (cfiCond91) V6 load(1, XDATA, add(CFA_XSP16, literal(-16)))
        CFI (cfiCond91) V7 load(1, XDATA, add(CFA_XSP16, literal(-15)))
        CFI (cfiCond91) V8 load(1, XDATA, add(CFA_XSP16, literal(-14)))
        CFI (cfiCond91) V9 load(1, XDATA, add(CFA_XSP16, literal(-13)))
        CFI (cfiCond91) V10 load(1, XDATA, add(CFA_XSP16, literal(-12)))
        CFI (cfiCond91) V11 load(1, XDATA, add(CFA_XSP16, literal(-11)))
        CFI (cfiCond91) V12 load(1, XDATA, add(CFA_XSP16, literal(-10)))
        CFI (cfiCond91) V13 load(1, XDATA, add(CFA_XSP16, literal(-9)))
        CFI (cfiCond91) V14 load(1, XDATA, add(CFA_XSP16, literal(-8)))
        CFI (cfiCond91) V15 load(1, XDATA, add(CFA_XSP16, literal(-7)))
        CFI (cfiCond91) R7 load(1, XDATA, add(CFA_XSP16, literal(-6)))
        CFI (cfiCond91) ?RET_LOW load(1, XDATA, add(CFA_XSP16, literal(-5)))
        CFI (cfiCond91) ?RET_HIGH load(1, XDATA, add(CFA_XSP16, literal(-4)))
        CFI (cfiCond91) ?BRET_EXT load(1, XDATA, add(CFA_XSP16, literal(-3)))
        CFI (cfiCond91) DPL0 load(1, XDATA, add(CFA_XSP16, literal(-2)))
        CFI (cfiCond91) DPH0 load(1, XDATA, add(CFA_XSP16, literal(-1)))
        CFI (cfiCond91) CFA_SP SP+0
        CFI (cfiCond91) CFA_XSP16 add(XSP16, 54)
        CFI Block cfiCond92 Using cfiCommon0
        CFI (cfiCond92) NoFunction
        CFI (cfiCond92) Conditional ??CrossCallReturnLabel_76, ??CrossCallReturnLabel_8
        CFI (cfiCond92) R6 load(1, XDATA, add(CFA_XSP16, literal(-24)))
        CFI (cfiCond92) VB load(1, XDATA, add(CFA_XSP16, literal(-23)))
        CFI (cfiCond92) V0 load(1, XDATA, add(CFA_XSP16, literal(-22)))
        CFI (cfiCond92) V1 load(1, XDATA, add(CFA_XSP16, literal(-21)))
        CFI (cfiCond92) V2 load(1, XDATA, add(CFA_XSP16, literal(-20)))
        CFI (cfiCond92) V3 load(1, XDATA, add(CFA_XSP16, literal(-19)))
        CFI (cfiCond92) V4 load(1, XDATA, add(CFA_XSP16, literal(-18)))
        CFI (cfiCond92) V5 load(1, XDATA, add(CFA_XSP16, literal(-17)))
        CFI (cfiCond92) V6 load(1, XDATA, add(CFA_XSP16, literal(-16)))
        CFI (cfiCond92) V7 load(1, XDATA, add(CFA_XSP16, literal(-15)))
        CFI (cfiCond92) V8 load(1, XDATA, add(CFA_XSP16, literal(-14)))
        CFI (cfiCond92) V9 load(1, XDATA, add(CFA_XSP16, literal(-13)))
        CFI (cfiCond92) V10 load(1, XDATA, add(CFA_XSP16, literal(-12)))
        CFI (cfiCond92) V11 load(1, XDATA, add(CFA_XSP16, literal(-11)))
        CFI (cfiCond92) V12 load(1, XDATA, add(CFA_XSP16, literal(-10)))
        CFI (cfiCond92) V13 load(1, XDATA, add(CFA_XSP16, literal(-9)))
        CFI (cfiCond92) V14 load(1, XDATA, add(CFA_XSP16, literal(-8)))
        CFI (cfiCond92) V15 load(1, XDATA, add(CFA_XSP16, literal(-7)))
        CFI (cfiCond92) R7 load(1, XDATA, add(CFA_XSP16, literal(-6)))
        CFI (cfiCond92) ?RET_LOW load(1, XDATA, add(CFA_XSP16, literal(-5)))
        CFI (cfiCond92) ?RET_HIGH load(1, XDATA, add(CFA_XSP16, literal(-4)))
        CFI (cfiCond92) ?BRET_EXT load(1, XDATA, add(CFA_XSP16, literal(-3)))
        CFI (cfiCond92) DPL0 load(1, XDATA, add(CFA_XSP16, literal(-2)))
        CFI (cfiCond92) DPH0 load(1, XDATA, add(CFA_XSP16, literal(-1)))
        CFI (cfiCond92) CFA_SP SP+0
        CFI (cfiCond92) CFA_XSP16 add(XSP16, 27)
        CFI Block cfiCond93 Using cfiCommon0
        CFI (cfiCond93) NoFunction
        CFI (cfiCond93) Conditional ??CrossCallReturnLabel_76, ??CrossCallReturnLabel_9
        CFI (cfiCond93) R6 load(1, XDATA, add(CFA_XSP16, literal(-24)))
        CFI (cfiCond93) VB load(1, XDATA, add(CFA_XSP16, literal(-23)))
        CFI (cfiCond93) V0 load(1, XDATA, add(CFA_XSP16, literal(-22)))
        CFI (cfiCond93) V1 load(1, XDATA, add(CFA_XSP16, literal(-21)))
        CFI (cfiCond93) V2 load(1, XDATA, add(CFA_XSP16, literal(-20)))
        CFI (cfiCond93) V3 load(1, XDATA, add(CFA_XSP16, literal(-19)))
        CFI (cfiCond93) V4 load(1, XDATA, add(CFA_XSP16, literal(-18)))
        CFI (cfiCond93) V5 load(1, XDATA, add(CFA_XSP16, literal(-17)))
        CFI (cfiCond93) V6 load(1, XDATA, add(CFA_XSP16, literal(-16)))
        CFI (cfiCond93) V7 load(1, XDATA, add(CFA_XSP16, literal(-15)))
        CFI (cfiCond93) V8 load(1, XDATA, add(CFA_XSP16, literal(-14)))
        CFI (cfiCond93) V9 load(1, XDATA, add(CFA_XSP16, literal(-13)))
        CFI (cfiCond93) V10 load(1, XDATA, add(CFA_XSP16, literal(-12)))
        CFI (cfiCond93) V11 load(1, XDATA, add(CFA_XSP16, literal(-11)))
        CFI (cfiCond93) V12 load(1, XDATA, add(CFA_XSP16, literal(-10)))
        CFI (cfiCond93) V13 load(1, XDATA, add(CFA_XSP16, literal(-9)))
        CFI (cfiCond93) V14 load(1, XDATA, add(CFA_XSP16, literal(-8)))
        CFI (cfiCond93) V15 load(1, XDATA, add(CFA_XSP16, literal(-7)))
        CFI (cfiCond93) R7 load(1, XDATA, add(CFA_XSP16, literal(-6)))
        CFI (cfiCond93) ?RET_LOW load(1, XDATA, add(CFA_XSP16, literal(-5)))
        CFI (cfiCond93) ?RET_HIGH load(1, XDATA, add(CFA_XSP16, literal(-4)))
        CFI (cfiCond93) ?BRET_EXT load(1, XDATA, add(CFA_XSP16, literal(-3)))
        CFI (cfiCond93) DPL0 load(1, XDATA, add(CFA_XSP16, literal(-2)))
        CFI (cfiCond93) DPH0 load(1, XDATA, add(CFA_XSP16, literal(-1)))
        CFI (cfiCond93) CFA_SP SP+0
        CFI (cfiCond93) CFA_XSP16 add(XSP16, 54)
        CFI Block cfiPicker94 Using cfiCommon1
        CFI (cfiPicker94) NoFunction
        CFI (cfiPicker94) Picker
        INC     DPTR
        INC     DPTR
        INC     DPTR
        CFI EndBlock cfiCond90
        CFI EndBlock cfiCond91
        CFI EndBlock cfiCond92
        CFI EndBlock cfiCond93
        CFI EndBlock cfiPicker94
        REQUIRE ??Subroutine38_0
        ; // Fall through to label ??Subroutine38_0

        RSEG BANKED_CODE:CODE:NOROOT(0)
??Subroutine38_0:
        CFI Block cfiCond95 Using cfiCommon0
        CFI NoFunction
        CFI Conditional ??CrossCallReturnLabel_78, ??CrossCallReturnLabel_73
        CFI R6 load(1, XDATA, add(CFA_XSP16, literal(-9)))
        CFI VB load(1, XDATA, add(CFA_XSP16, literal(-8)))
        CFI V0 load(1, XDATA, add(CFA_XSP16, literal(-7)))
        CFI R7 load(1, XDATA, add(CFA_XSP16, literal(-6)))
        CFI ?RET_LOW load(1, XDATA, add(CFA_XSP16, literal(-5)))
        CFI ?RET_HIGH load(1, XDATA, add(CFA_XSP16, literal(-4)))
        CFI ?BRET_EXT load(1, XDATA, add(CFA_XSP16, literal(-3)))
        CFI DPL0 load(1, XDATA, add(CFA_XSP16, literal(-2)))
        CFI DPH0 load(1, XDATA, add(CFA_XSP16, literal(-1)))
        CFI CFA_SP SP+0
        CFI CFA_XSP16 add(XSP16, 9)
        CFI Block cfiCond96 Using cfiCommon0
        CFI (cfiCond96) NoFunction
        CFI (cfiCond96) Conditional ??CrossCallReturnLabel_78, ??CrossCallReturnLabel_74
        CFI (cfiCond96) R6 load(1, XDATA, add(CFA_XSP16, literal(-24)))
        CFI (cfiCond96) VB load(1, XDATA, add(CFA_XSP16, literal(-23)))
        CFI (cfiCond96) V0 load(1, XDATA, add(CFA_XSP16, literal(-22)))
        CFI (cfiCond96) V1 load(1, XDATA, add(CFA_XSP16, literal(-21)))
        CFI (cfiCond96) V2 load(1, XDATA, add(CFA_XSP16, literal(-20)))
        CFI (cfiCond96) V3 load(1, XDATA, add(CFA_XSP16, literal(-19)))
        CFI (cfiCond96) V4 load(1, XDATA, add(CFA_XSP16, literal(-18)))
        CFI (cfiCond96) V5 load(1, XDATA, add(CFA_XSP16, literal(-17)))
        CFI (cfiCond96) V6 load(1, XDATA, add(CFA_XSP16, literal(-16)))
        CFI (cfiCond96) V7 load(1, XDATA, add(CFA_XSP16, literal(-15)))
        CFI (cfiCond96) V8 load(1, XDATA, add(CFA_XSP16, literal(-14)))
        CFI (cfiCond96) V9 load(1, XDATA, add(CFA_XSP16, literal(-13)))
        CFI (cfiCond96) V10 load(1, XDATA, add(CFA_XSP16, literal(-12)))
        CFI (cfiCond96) V11 load(1, XDATA, add(CFA_XSP16, literal(-11)))
        CFI (cfiCond96) V12 load(1, XDATA, add(CFA_XSP16, literal(-10)))
        CFI (cfiCond96) V13 load(1, XDATA, add(CFA_XSP16, literal(-9)))
        CFI (cfiCond96) V14 load(1, XDATA, add(CFA_XSP16, literal(-8)))
        CFI (cfiCond96) V15 load(1, XDATA, add(CFA_XSP16, literal(-7)))
        CFI (cfiCond96) R7 load(1, XDATA, add(CFA_XSP16, literal(-6)))
        CFI (cfiCond96) ?RET_LOW load(1, XDATA, add(CFA_XSP16, literal(-5)))
        CFI (cfiCond96) ?RET_HIGH load(1, XDATA, add(CFA_XSP16, literal(-4)))
        CFI (cfiCond96) ?BRET_EXT load(1, XDATA, add(CFA_XSP16, literal(-3)))
        CFI (cfiCond96) DPL0 load(1, XDATA, add(CFA_XSP16, literal(-2)))
        CFI (cfiCond96) DPH0 load(1, XDATA, add(CFA_XSP16, literal(-1)))
        CFI (cfiCond96) CFA_SP SP+0
        CFI (cfiCond96) CFA_XSP16 add(XSP16, 54)
        CFI Block cfiCond97 Using cfiCommon0
        CFI (cfiCond97) NoFunction
        CFI (cfiCond97) Conditional ??CrossCallReturnLabel_78, ??CrossCallReturnLabel_67
        CFI (cfiCond97) R6 load(1, XDATA, add(CFA_XSP16, literal(-12)))
        CFI (cfiCond97) VB load(1, XDATA, add(CFA_XSP16, literal(-11)))
        CFI (cfiCond97) V0 load(1, XDATA, add(CFA_XSP16, literal(-10)))
        CFI (cfiCond97) V1 load(1, XDATA, add(CFA_XSP16, literal(-9)))
        CFI (cfiCond97) V2 load(1, XDATA, add(CFA_XSP16, literal(-8)))
        CFI (cfiCond97) V3 load(1, XDATA, add(CFA_XSP16, literal(-7)))
        CFI (cfiCond97) R7 load(1, XDATA, add(CFA_XSP16, literal(-6)))
        CFI (cfiCond97) ?RET_LOW load(1, XDATA, add(CFA_XSP16, literal(-5)))
        CFI (cfiCond97) ?RET_HIGH load(1, XDATA, add(CFA_XSP16, literal(-4)))
        CFI (cfiCond97) ?BRET_EXT load(1, XDATA, add(CFA_XSP16, literal(-3)))
        CFI (cfiCond97) DPL0 load(1, XDATA, add(CFA_XSP16, literal(-2)))
        CFI (cfiCond97) DPH0 load(1, XDATA, add(CFA_XSP16, literal(-1)))
        CFI (cfiCond97) CFA_SP SP+0
        CFI (cfiCond97) CFA_XSP16 add(XSP16, 12)
        CFI Block cfiCond98 Using cfiCommon0
        CFI (cfiCond98) NoFunction
        CFI (cfiCond98) Conditional ??CrossCallReturnLabel_78, ??CrossCallReturnLabel_68
        CFI (cfiCond98) R6 load(1, XDATA, add(CFA_XSP16, literal(-24)))
        CFI (cfiCond98) VB load(1, XDATA, add(CFA_XSP16, literal(-23)))
        CFI (cfiCond98) V0 load(1, XDATA, add(CFA_XSP16, literal(-22)))
        CFI (cfiCond98) V1 load(1, XDATA, add(CFA_XSP16, literal(-21)))
        CFI (cfiCond98) V2 load(1, XDATA, add(CFA_XSP16, literal(-20)))
        CFI (cfiCond98) V3 load(1, XDATA, add(CFA_XSP16, literal(-19)))
        CFI (cfiCond98) V4 load(1, XDATA, add(CFA_XSP16, literal(-18)))
        CFI (cfiCond98) V5 load(1, XDATA, add(CFA_XSP16, literal(-17)))
        CFI (cfiCond98) V6 load(1, XDATA, add(CFA_XSP16, literal(-16)))
        CFI (cfiCond98) V7 load(1, XDATA, add(CFA_XSP16, literal(-15)))
        CFI (cfiCond98) V8 load(1, XDATA, add(CFA_XSP16, literal(-14)))
        CFI (cfiCond98) V9 load(1, XDATA, add(CFA_XSP16, literal(-13)))
        CFI (cfiCond98) V10 load(1, XDATA, add(CFA_XSP16, literal(-12)))
        CFI (cfiCond98) V11 load(1, XDATA, add(CFA_XSP16, literal(-11)))
        CFI (cfiCond98) V12 load(1, XDATA, add(CFA_XSP16, literal(-10)))
        CFI (cfiCond98) V13 load(1, XDATA, add(CFA_XSP16, literal(-9)))
        CFI (cfiCond98) V14 load(1, XDATA, add(CFA_XSP16, literal(-8)))
        CFI (cfiCond98) V15 load(1, XDATA, add(CFA_XSP16, literal(-7)))
        CFI (cfiCond98) R7 load(1, XDATA, add(CFA_XSP16, literal(-6)))
        CFI (cfiCond98) ?RET_LOW load(1, XDATA, add(CFA_XSP16, literal(-5)))
        CFI (cfiCond98) ?RET_HIGH load(1, XDATA, add(CFA_XSP16, literal(-4)))
        CFI (cfiCond98) ?BRET_EXT load(1, XDATA, add(CFA_XSP16, literal(-3)))
        CFI (cfiCond98) DPL0 load(1, XDATA, add(CFA_XSP16, literal(-2)))
        CFI (cfiCond98) DPH0 load(1, XDATA, add(CFA_XSP16, literal(-1)))
        CFI (cfiCond98) CFA_SP SP+0
        CFI (cfiCond98) CFA_XSP16 add(XSP16, 25)
        CFI Block cfiCond99 Using cfiCommon0
        CFI (cfiCond99) NoFunction
        CFI (cfiCond99) Conditional ??CrossCallReturnLabel_78, ??CrossCallReturnLabel_69
        CFI (cfiCond99) R6 load(1, XDATA, add(CFA_XSP16, literal(-24)))
        CFI (cfiCond99) VB load(1, XDATA, add(CFA_XSP16, literal(-23)))
        CFI (cfiCond99) V0 load(1, XDATA, add(CFA_XSP16, literal(-22)))
        CFI (cfiCond99) V1 load(1, XDATA, add(CFA_XSP16, literal(-21)))
        CFI (cfiCond99) V2 load(1, XDATA, add(CFA_XSP16, literal(-20)))
        CFI (cfiCond99) V3 load(1, XDATA, add(CFA_XSP16, literal(-19)))
        CFI (cfiCond99) V4 load(1, XDATA, add(CFA_XSP16, literal(-18)))
        CFI (cfiCond99) V5 load(1, XDATA, add(CFA_XSP16, literal(-17)))
        CFI (cfiCond99) V6 load(1, XDATA, add(CFA_XSP16, literal(-16)))
        CFI (cfiCond99) V7 load(1, XDATA, add(CFA_XSP16, literal(-15)))
        CFI (cfiCond99) V8 load(1, XDATA, add(CFA_XSP16, literal(-14)))
        CFI (cfiCond99) V9 load(1, XDATA, add(CFA_XSP16, literal(-13)))
        CFI (cfiCond99) V10 load(1, XDATA, add(CFA_XSP16, literal(-12)))
        CFI (cfiCond99) V11 load(1, XDATA, add(CFA_XSP16, literal(-11)))
        CFI (cfiCond99) V12 load(1, XDATA, add(CFA_XSP16, literal(-10)))
        CFI (cfiCond99) V13 load(1, XDATA, add(CFA_XSP16, literal(-9)))
        CFI (cfiCond99) V14 load(1, XDATA, add(CFA_XSP16, literal(-8)))
        CFI (cfiCond99) V15 load(1, XDATA, add(CFA_XSP16, literal(-7)))
        CFI (cfiCond99) R7 load(1, XDATA, add(CFA_XSP16, literal(-6)))
        CFI (cfiCond99) ?RET_LOW load(1, XDATA, add(CFA_XSP16, literal(-5)))
        CFI (cfiCond99) ?RET_HIGH load(1, XDATA, add(CFA_XSP16, literal(-4)))
        CFI (cfiCond99) ?BRET_EXT load(1, XDATA, add(CFA_XSP16, literal(-3)))
        CFI (cfiCond99) DPL0 load(1, XDATA, add(CFA_XSP16, literal(-2)))
        CFI (cfiCond99) DPH0 load(1, XDATA, add(CFA_XSP16, literal(-1)))
        CFI (cfiCond99) CFA_SP SP+0
        CFI (cfiCond99) CFA_XSP16 add(XSP16, 25)
        CFI Block cfiCond100 Using cfiCommon0
        CFI (cfiCond100) NoFunction
        CFI (cfiCond100) Conditional ??CrossCallReturnLabel_78, ??CrossCallReturnLabel_70
        CFI (cfiCond100) R6 load(1, XDATA, add(CFA_XSP16, literal(-24)))
        CFI (cfiCond100) VB load(1, XDATA, add(CFA_XSP16, literal(-23)))
        CFI (cfiCond100) V0 load(1, XDATA, add(CFA_XSP16, literal(-22)))
        CFI (cfiCond100) V1 load(1, XDATA, add(CFA_XSP16, literal(-21)))
        CFI (cfiCond100) V2 load(1, XDATA, add(CFA_XSP16, literal(-20)))
        CFI (cfiCond100) V3 load(1, XDATA, add(CFA_XSP16, literal(-19)))
        CFI (cfiCond100) V4 load(1, XDATA, add(CFA_XSP16, literal(-18)))
        CFI (cfiCond100) V5 load(1, XDATA, add(CFA_XSP16, literal(-17)))
        CFI (cfiCond100) V6 load(1, XDATA, add(CFA_XSP16, literal(-16)))
        CFI (cfiCond100) V7 load(1, XDATA, add(CFA_XSP16, literal(-15)))
        CFI (cfiCond100) V8 load(1, XDATA, add(CFA_XSP16, literal(-14)))
        CFI (cfiCond100) V9 load(1, XDATA, add(CFA_XSP16, literal(-13)))
        CFI (cfiCond100) V10 load(1, XDATA, add(CFA_XSP16, literal(-12)))
        CFI (cfiCond100) V11 load(1, XDATA, add(CFA_XSP16, literal(-11)))
        CFI (cfiCond100) V12 load(1, XDATA, add(CFA_XSP16, literal(-10)))
        CFI (cfiCond100) V13 load(1, XDATA, add(CFA_XSP16, literal(-9)))
        CFI (cfiCond100) V14 load(1, XDATA, add(CFA_XSP16, literal(-8)))
        CFI (cfiCond100) V15 load(1, XDATA, add(CFA_XSP16, literal(-7)))
        CFI (cfiCond100) R7 load(1, XDATA, add(CFA_XSP16, literal(-6)))
        CFI (cfiCond100) ?RET_LOW load(1, XDATA, add(CFA_XSP16, literal(-5)))
        CFI (cfiCond100) ?RET_HIGH load(1, XDATA, add(CFA_XSP16, literal(-4)))
        CFI (cfiCond100) ?BRET_EXT load(1, XDATA, add(CFA_XSP16, literal(-3)))
        CFI (cfiCond100) DPL0 load(1, XDATA, add(CFA_XSP16, literal(-2)))
        CFI (cfiCond100) DPH0 load(1, XDATA, add(CFA_XSP16, literal(-1)))
        CFI (cfiCond100) CFA_SP SP+0
        CFI (cfiCond100) CFA_XSP16 add(XSP16, 54)
        CFI Block cfiCond101 Using cfiCommon0
        CFI (cfiCond101) NoFunction
        CFI (cfiCond101) Conditional ??CrossCallReturnLabel_78, ??CrossCallReturnLabel_71
        CFI (cfiCond101) R6 load(1, XDATA, add(CFA_XSP16, literal(-24)))
        CFI (cfiCond101) VB load(1, XDATA, add(CFA_XSP16, literal(-23)))
        CFI (cfiCond101) V0 load(1, XDATA, add(CFA_XSP16, literal(-22)))
        CFI (cfiCond101) V1 load(1, XDATA, add(CFA_XSP16, literal(-21)))
        CFI (cfiCond101) V2 load(1, XDATA, add(CFA_XSP16, literal(-20)))
        CFI (cfiCond101) V3 load(1, XDATA, add(CFA_XSP16, literal(-19)))
        CFI (cfiCond101) V4 load(1, XDATA, add(CFA_XSP16, literal(-18)))
        CFI (cfiCond101) V5 load(1, XDATA, add(CFA_XSP16, literal(-17)))
        CFI (cfiCond101) V6 load(1, XDATA, add(CFA_XSP16, literal(-16)))
        CFI (cfiCond101) V7 load(1, XDATA, add(CFA_XSP16, literal(-15)))
        CFI (cfiCond101) V8 load(1, XDATA, add(CFA_XSP16, literal(-14)))
        CFI (cfiCond101) V9 load(1, XDATA, add(CFA_XSP16, literal(-13)))
        CFI (cfiCond101) V10 load(1, XDATA, add(CFA_XSP16, literal(-12)))
        CFI (cfiCond101) V11 load(1, XDATA, add(CFA_XSP16, literal(-11)))
        CFI (cfiCond101) V12 load(1, XDATA, add(CFA_XSP16, literal(-10)))
        CFI (cfiCond101) V13 load(1, XDATA, add(CFA_XSP16, literal(-9)))
        CFI (cfiCond101) V14 load(1, XDATA, add(CFA_XSP16, literal(-8)))
        CFI (cfiCond101) V15 load(1, XDATA, add(CFA_XSP16, literal(-7)))
        CFI (cfiCond101) R7 load(1, XDATA, add(CFA_XSP16, literal(-6)))
        CFI (cfiCond101) ?RET_LOW load(1, XDATA, add(CFA_XSP16, literal(-5)))
        CFI (cfiCond101) ?RET_HIGH load(1, XDATA, add(CFA_XSP16, literal(-4)))
        CFI (cfiCond101) ?BRET_EXT load(1, XDATA, add(CFA_XSP16, literal(-3)))
        CFI (cfiCond101) DPL0 load(1, XDATA, add(CFA_XSP16, literal(-2)))
        CFI (cfiCond101) DPH0 load(1, XDATA, add(CFA_XSP16, literal(-1)))
        CFI (cfiCond101) CFA_SP SP+0
        CFI (cfiCond101) CFA_XSP16 add(XSP16, 54)
        CFI Block cfiCond102 Using cfiCommon0
        CFI (cfiCond102) NoFunction
        CFI (cfiCond102) Conditional ??CrossCallReturnLabel_78, ??CrossCallReturnLabel_72
        CFI (cfiCond102) DPL0 Frame(CFA_SP, 4)
        CFI (cfiCond102) DPH0 Frame(CFA_SP, 5)
        CFI (cfiCond102) CFA_SP SP+-5
        CFI Block cfiCond103 Using cfiCommon0
        CFI (cfiCond103) NoFunction
        CFI (cfiCond103) Conditional ??CrossCallReturnLabel_75, ??CrossCallReturnLabel_11
        CFI (cfiCond103) R6 load(1, XDATA, add(CFA_XSP16, literal(-9)))
        CFI (cfiCond103) VB load(1, XDATA, add(CFA_XSP16, literal(-8)))
        CFI (cfiCond103) V0 load(1, XDATA, add(CFA_XSP16, literal(-7)))
        CFI (cfiCond103) R7 load(1, XDATA, add(CFA_XSP16, literal(-6)))
        CFI (cfiCond103) ?RET_LOW load(1, XDATA, add(CFA_XSP16, literal(-5)))
        CFI (cfiCond103) ?RET_HIGH load(1, XDATA, add(CFA_XSP16, literal(-4)))
        CFI (cfiCond103) ?BRET_EXT load(1, XDATA, add(CFA_XSP16, literal(-3)))
        CFI (cfiCond103) DPL0 load(1, XDATA, add(CFA_XSP16, literal(-2)))
        CFI (cfiCond103) DPH0 load(1, XDATA, add(CFA_XSP16, literal(-1)))
        CFI (cfiCond103) CFA_SP SP+0
        CFI (cfiCond103) CFA_XSP16 add(XSP16, 9)
        CFI Block cfiCond104 Using cfiCommon0
        CFI (cfiCond104) NoFunction
        CFI (cfiCond104) Conditional ??CrossCallReturnLabel_75, ??CrossCallReturnLabel_10
        CFI (cfiCond104) R6 load(1, XDATA, add(CFA_XSP16, literal(-24)))
        CFI (cfiCond104) VB load(1, XDATA, add(CFA_XSP16, literal(-23)))
        CFI (cfiCond104) V0 load(1, XDATA, add(CFA_XSP16, literal(-22)))
        CFI (cfiCond104) V1 load(1, XDATA, add(CFA_XSP16, literal(-21)))
        CFI (cfiCond104) V2 load(1, XDATA, add(CFA_XSP16, literal(-20)))
        CFI (cfiCond104) V3 load(1, XDATA, add(CFA_XSP16, literal(-19)))
        CFI (cfiCond104) V4 load(1, XDATA, add(CFA_XSP16, literal(-18)))
        CFI (cfiCond104) V5 load(1, XDATA, add(CFA_XSP16, literal(-17)))
        CFI (cfiCond104) V6 load(1, XDATA, add(CFA_XSP16, literal(-16)))
        CFI (cfiCond104) V7 load(1, XDATA, add(CFA_XSP16, literal(-15)))
        CFI (cfiCond104) V8 load(1, XDATA, add(CFA_XSP16, literal(-14)))
        CFI (cfiCond104) V9 load(1, XDATA, add(CFA_XSP16, literal(-13)))
        CFI (cfiCond104) V10 load(1, XDATA, add(CFA_XSP16, literal(-12)))
        CFI (cfiCond104) V11 load(1, XDATA, add(CFA_XSP16, literal(-11)))
        CFI (cfiCond104) V12 load(1, XDATA, add(CFA_XSP16, literal(-10)))
        CFI (cfiCond104) V13 load(1, XDATA, add(CFA_XSP16, literal(-9)))
        CFI (cfiCond104) V14 load(1, XDATA, add(CFA_XSP16, literal(-8)))
        CFI (cfiCond104) V15 load(1, XDATA, add(CFA_XSP16, literal(-7)))
        CFI (cfiCond104) R7 load(1, XDATA, add(CFA_XSP16, literal(-6)))
        CFI (cfiCond104) ?RET_LOW load(1, XDATA, add(CFA_XSP16, literal(-5)))
        CFI (cfiCond104) ?RET_HIGH load(1, XDATA, add(CFA_XSP16, literal(-4)))
        CFI (cfiCond104) ?BRET_EXT load(1, XDATA, add(CFA_XSP16, literal(-3)))
        CFI (cfiCond104) DPL0 load(1, XDATA, add(CFA_XSP16, literal(-2)))
        CFI (cfiCond104) DPH0 load(1, XDATA, add(CFA_XSP16, literal(-1)))
        CFI (cfiCond104) CFA_SP SP+0
        CFI (cfiCond104) CFA_XSP16 add(XSP16, 54)
        CFI Block cfiCond105 Using cfiCommon0
        CFI (cfiCond105) NoFunction
        CFI (cfiCond105) Conditional ??CrossCallReturnLabel_75, ??CrossCallReturnLabel_12
        CFI (cfiCond105) R6 load(1, XDATA, add(CFA_XSP16, literal(-24)))
        CFI (cfiCond105) VB load(1, XDATA, add(CFA_XSP16, literal(-23)))
        CFI (cfiCond105) V0 load(1, XDATA, add(CFA_XSP16, literal(-22)))
        CFI (cfiCond105) V1 load(1, XDATA, add(CFA_XSP16, literal(-21)))
        CFI (cfiCond105) V2 load(1, XDATA, add(CFA_XSP16, literal(-20)))
        CFI (cfiCond105) V3 load(1, XDATA, add(CFA_XSP16, literal(-19)))
        CFI (cfiCond105) V4 load(1, XDATA, add(CFA_XSP16, literal(-18)))
        CFI (cfiCond105) V5 load(1, XDATA, add(CFA_XSP16, literal(-17)))
        CFI (cfiCond105) V6 load(1, XDATA, add(CFA_XSP16, literal(-16)))
        CFI (cfiCond105) V7 load(1, XDATA, add(CFA_XSP16, literal(-15)))
        CFI (cfiCond105) V8 load(1, XDATA, add(CFA_XSP16, literal(-14)))
        CFI (cfiCond105) V9 load(1, XDATA, add(CFA_XSP16, literal(-13)))
        CFI (cfiCond105) V10 load(1, XDATA, add(CFA_XSP16, literal(-12)))
        CFI (cfiCond105) V11 load(1, XDATA, add(CFA_XSP16, literal(-11)))
        CFI (cfiCond105) V12 load(1, XDATA, add(CFA_XSP16, literal(-10)))
        CFI (cfiCond105) V13 load(1, XDATA, add(CFA_XSP16, literal(-9)))
        CFI (cfiCond105) V14 load(1, XDATA, add(CFA_XSP16, literal(-8)))
        CFI (cfiCond105) V15 load(1, XDATA, add(CFA_XSP16, literal(-7)))
        CFI (cfiCond105) R7 load(1, XDATA, add(CFA_XSP16, literal(-6)))
        CFI (cfiCond105) ?RET_LOW load(1, XDATA, add(CFA_XSP16, literal(-5)))
        CFI (cfiCond105) ?RET_HIGH load(1, XDATA, add(CFA_XSP16, literal(-4)))
        CFI (cfiCond105) ?BRET_EXT load(1, XDATA, add(CFA_XSP16, literal(-3)))
        CFI (cfiCond105) DPL0 load(1, XDATA, add(CFA_XSP16, literal(-2)))
        CFI (cfiCond105) DPH0 load(1, XDATA, add(CFA_XSP16, literal(-1)))
        CFI (cfiCond105) CFA_SP SP+0
        CFI (cfiCond105) CFA_XSP16 add(XSP16, 54)
        CFI Block cfiCond106 Using cfiCommon0
        CFI (cfiCond106) NoFunction
        CFI (cfiCond106) Conditional ??CrossCallReturnLabel_77, ??CrossCallReturnLabel_14
        CFI (cfiCond106) R6 load(1, XDATA, add(CFA_XSP16, literal(-24)))
        CFI (cfiCond106) VB load(1, XDATA, add(CFA_XSP16, literal(-23)))
        CFI (cfiCond106) V0 load(1, XDATA, add(CFA_XSP16, literal(-22)))
        CFI (cfiCond106) V1 load(1, XDATA, add(CFA_XSP16, literal(-21)))
        CFI (cfiCond106) V2 load(1, XDATA, add(CFA_XSP16, literal(-20)))
        CFI (cfiCond106) V3 load(1, XDATA, add(CFA_XSP16, literal(-19)))
        CFI (cfiCond106) V4 load(1, XDATA, add(CFA_XSP16, literal(-18)))
        CFI (cfiCond106) V5 load(1, XDATA, add(CFA_XSP16, literal(-17)))
        CFI (cfiCond106) V6 load(1, XDATA, add(CFA_XSP16, literal(-16)))
        CFI (cfiCond106) V7 load(1, XDATA, add(CFA_XSP16, literal(-15)))
        CFI (cfiCond106) V8 load(1, XDATA, add(CFA_XSP16, literal(-14)))
        CFI (cfiCond106) V9 load(1, XDATA, add(CFA_XSP16, literal(-13)))
        CFI (cfiCond106) V10 load(1, XDATA, add(CFA_XSP16, literal(-12)))
        CFI (cfiCond106) V11 load(1, XDATA, add(CFA_XSP16, literal(-11)))
        CFI (cfiCond106) V12 load(1, XDATA, add(CFA_XSP16, literal(-10)))
        CFI (cfiCond106) V13 load(1, XDATA, add(CFA_XSP16, literal(-9)))
        CFI (cfiCond106) V14 load(1, XDATA, add(CFA_XSP16, literal(-8)))
        CFI (cfiCond106) V15 load(1, XDATA, add(CFA_XSP16, literal(-7)))
        CFI (cfiCond106) R7 load(1, XDATA, add(CFA_XSP16, literal(-6)))
        CFI (cfiCond106) ?RET_LOW load(1, XDATA, add(CFA_XSP16, literal(-5)))
        CFI (cfiCond106) ?RET_HIGH load(1, XDATA, add(CFA_XSP16, literal(-4)))
        CFI (cfiCond106) ?BRET_EXT load(1, XDATA, add(CFA_XSP16, literal(-3)))
        CFI (cfiCond106) DPL0 load(1, XDATA, add(CFA_XSP16, literal(-2)))
        CFI (cfiCond106) DPH0 load(1, XDATA, add(CFA_XSP16, literal(-1)))
        CFI (cfiCond106) CFA_SP SP+0
        CFI (cfiCond106) CFA_XSP16 add(XSP16, 27)
        CFI Block cfiCond107 Using cfiCommon0
        CFI (cfiCond107) NoFunction
        CFI (cfiCond107) Conditional ??CrossCallReturnLabel_77, ??CrossCallReturnLabel_13
        CFI (cfiCond107) R6 load(1, XDATA, add(CFA_XSP16, literal(-24)))
        CFI (cfiCond107) VB load(1, XDATA, add(CFA_XSP16, literal(-23)))
        CFI (cfiCond107) V0 load(1, XDATA, add(CFA_XSP16, literal(-22)))
        CFI (cfiCond107) V1 load(1, XDATA, add(CFA_XSP16, literal(-21)))
        CFI (cfiCond107) V2 load(1, XDATA, add(CFA_XSP16, literal(-20)))
        CFI (cfiCond107) V3 load(1, XDATA, add(CFA_XSP16, literal(-19)))
        CFI (cfiCond107) V4 load(1, XDATA, add(CFA_XSP16, literal(-18)))
        CFI (cfiCond107) V5 load(1, XDATA, add(CFA_XSP16, literal(-17)))
        CFI (cfiCond107) V6 load(1, XDATA, add(CFA_XSP16, literal(-16)))
        CFI (cfiCond107) V7 load(1, XDATA, add(CFA_XSP16, literal(-15)))
        CFI (cfiCond107) V8 load(1, XDATA, add(CFA_XSP16, literal(-14)))
        CFI (cfiCond107) V9 load(1, XDATA, add(CFA_XSP16, literal(-13)))
        CFI (cfiCond107) V10 load(1, XDATA, add(CFA_XSP16, literal(-12)))
        CFI (cfiCond107) V11 load(1, XDATA, add(CFA_XSP16, literal(-11)))
        CFI (cfiCond107) V12 load(1, XDATA, add(CFA_XSP16, literal(-10)))
        CFI (cfiCond107) V13 load(1, XDATA, add(CFA_XSP16, literal(-9)))
        CFI (cfiCond107) V14 load(1, XDATA, add(CFA_XSP16, literal(-8)))
        CFI (cfiCond107) V15 load(1, XDATA, add(CFA_XSP16, literal(-7)))
        CFI (cfiCond107) R7 load(1, XDATA, add(CFA_XSP16, literal(-6)))
        CFI (cfiCond107) ?RET_LOW load(1, XDATA, add(CFA_XSP16, literal(-5)))
        CFI (cfiCond107) ?RET_HIGH load(1, XDATA, add(CFA_XSP16, literal(-4)))
        CFI (cfiCond107) ?BRET_EXT load(1, XDATA, add(CFA_XSP16, literal(-3)))
        CFI (cfiCond107) DPL0 load(1, XDATA, add(CFA_XSP16, literal(-2)))
        CFI (cfiCond107) DPH0 load(1, XDATA, add(CFA_XSP16, literal(-1)))
        CFI (cfiCond107) CFA_SP SP+0
        CFI (cfiCond107) CFA_XSP16 add(XSP16, 54)
        CFI Block cfiCond108 Using cfiCommon0
        CFI (cfiCond108) NoFunction
        CFI (cfiCond108) Conditional ??CrossCallReturnLabel_76, ??CrossCallReturnLabel_8
        CFI (cfiCond108) R6 load(1, XDATA, add(CFA_XSP16, literal(-24)))
        CFI (cfiCond108) VB load(1, XDATA, add(CFA_XSP16, literal(-23)))
        CFI (cfiCond108) V0 load(1, XDATA, add(CFA_XSP16, literal(-22)))
        CFI (cfiCond108) V1 load(1, XDATA, add(CFA_XSP16, literal(-21)))
        CFI (cfiCond108) V2 load(1, XDATA, add(CFA_XSP16, literal(-20)))
        CFI (cfiCond108) V3 load(1, XDATA, add(CFA_XSP16, literal(-19)))
        CFI (cfiCond108) V4 load(1, XDATA, add(CFA_XSP16, literal(-18)))
        CFI (cfiCond108) V5 load(1, XDATA, add(CFA_XSP16, literal(-17)))
        CFI (cfiCond108) V6 load(1, XDATA, add(CFA_XSP16, literal(-16)))
        CFI (cfiCond108) V7 load(1, XDATA, add(CFA_XSP16, literal(-15)))
        CFI (cfiCond108) V8 load(1, XDATA, add(CFA_XSP16, literal(-14)))
        CFI (cfiCond108) V9 load(1, XDATA, add(CFA_XSP16, literal(-13)))
        CFI (cfiCond108) V10 load(1, XDATA, add(CFA_XSP16, literal(-12)))
        CFI (cfiCond108) V11 load(1, XDATA, add(CFA_XSP16, literal(-11)))
        CFI (cfiCond108) V12 load(1, XDATA, add(CFA_XSP16, literal(-10)))
        CFI (cfiCond108) V13 load(1, XDATA, add(CFA_XSP16, literal(-9)))
        CFI (cfiCond108) V14 load(1, XDATA, add(CFA_XSP16, literal(-8)))
        CFI (cfiCond108) V15 load(1, XDATA, add(CFA_XSP16, literal(-7)))
        CFI (cfiCond108) R7 load(1, XDATA, add(CFA_XSP16, literal(-6)))
        CFI (cfiCond108) ?RET_LOW load(1, XDATA, add(CFA_XSP16, literal(-5)))
        CFI (cfiCond108) ?RET_HIGH load(1, XDATA, add(CFA_XSP16, literal(-4)))
        CFI (cfiCond108) ?BRET_EXT load(1, XDATA, add(CFA_XSP16, literal(-3)))
        CFI (cfiCond108) DPL0 load(1, XDATA, add(CFA_XSP16, literal(-2)))
        CFI (cfiCond108) DPH0 load(1, XDATA, add(CFA_XSP16, literal(-1)))
        CFI (cfiCond108) CFA_SP SP+0
        CFI (cfiCond108) CFA_XSP16 add(XSP16, 27)
        CFI Block cfiCond109 Using cfiCommon0
        CFI (cfiCond109) NoFunction
        CFI (cfiCond109) Conditional ??CrossCallReturnLabel_76, ??CrossCallReturnLabel_9
        CFI (cfiCond109) R6 load(1, XDATA, add(CFA_XSP16, literal(-24)))
        CFI (cfiCond109) VB load(1, XDATA, add(CFA_XSP16, literal(-23)))
        CFI (cfiCond109) V0 load(1, XDATA, add(CFA_XSP16, literal(-22)))
        CFI (cfiCond109) V1 load(1, XDATA, add(CFA_XSP16, literal(-21)))
        CFI (cfiCond109) V2 load(1, XDATA, add(CFA_XSP16, literal(-20)))
        CFI (cfiCond109) V3 load(1, XDATA, add(CFA_XSP16, literal(-19)))
        CFI (cfiCond109) V4 load(1, XDATA, add(CFA_XSP16, literal(-18)))
        CFI (cfiCond109) V5 load(1, XDATA, add(CFA_XSP16, literal(-17)))
        CFI (cfiCond109) V6 load(1, XDATA, add(CFA_XSP16, literal(-16)))
        CFI (cfiCond109) V7 load(1, XDATA, add(CFA_XSP16, literal(-15)))
        CFI (cfiCond109) V8 load(1, XDATA, add(CFA_XSP16, literal(-14)))
        CFI (cfiCond109) V9 load(1, XDATA, add(CFA_XSP16, literal(-13)))
        CFI (cfiCond109) V10 load(1, XDATA, add(CFA_XSP16, literal(-12)))
        CFI (cfiCond109) V11 load(1, XDATA, add(CFA_XSP16, literal(-11)))
        CFI (cfiCond109) V12 load(1, XDATA, add(CFA_XSP16, literal(-10)))
        CFI (cfiCond109) V13 load(1, XDATA, add(CFA_XSP16, literal(-9)))
        CFI (cfiCond109) V14 load(1, XDATA, add(CFA_XSP16, literal(-8)))
        CFI (cfiCond109) V15 load(1, XDATA, add(CFA_XSP16, literal(-7)))
        CFI (cfiCond109) R7 load(1, XDATA, add(CFA_XSP16, literal(-6)))
        CFI (cfiCond109) ?RET_LOW load(1, XDATA, add(CFA_XSP16, literal(-5)))
        CFI (cfiCond109) ?RET_HIGH load(1, XDATA, add(CFA_XSP16, literal(-4)))
        CFI (cfiCond109) ?BRET_EXT load(1, XDATA, add(CFA_XSP16, literal(-3)))
        CFI (cfiCond109) DPL0 load(1, XDATA, add(CFA_XSP16, literal(-2)))
        CFI (cfiCond109) DPH0 load(1, XDATA, add(CFA_XSP16, literal(-1)))
        CFI (cfiCond109) CFA_SP SP+0
        CFI (cfiCond109) CFA_XSP16 add(XSP16, 54)
        CFI Block cfiPicker110 Using cfiCommon1
        CFI (cfiPicker110) NoFunction
        CFI (cfiPicker110) Picker
        MOVX    A,@DPTR
        MOV     R0,A
        INC     DPTR
        MOVX    A,@DPTR
        MOV     R1,A
        RET
        CFI EndBlock cfiCond95
        CFI EndBlock cfiCond96
        CFI EndBlock cfiCond97
        CFI EndBlock cfiCond98
        CFI EndBlock cfiCond99
        CFI EndBlock cfiCond100
        CFI EndBlock cfiCond101
        CFI EndBlock cfiCond102
        CFI EndBlock cfiCond103
        CFI EndBlock cfiCond104
        CFI EndBlock cfiCond105
        CFI EndBlock cfiCond106
        CFI EndBlock cfiCond107
        CFI EndBlock cfiCond108
        CFI EndBlock cfiCond109
        CFI EndBlock cfiPicker110

        RSEG BANKED_CODE:CODE:NOROOT(0)
?Subroutine9:
        CFI Block cfiCond111 Using cfiCommon0
        CFI NoFunction
        CFI Conditional ??CrossCallReturnLabel_11
        CFI R6 load(1, XDATA, add(CFA_XSP16, literal(-9)))
        CFI VB load(1, XDATA, add(CFA_XSP16, literal(-8)))
        CFI V0 load(1, XDATA, add(CFA_XSP16, literal(-7)))
        CFI R7 load(1, XDATA, add(CFA_XSP16, literal(-6)))
        CFI ?RET_LOW load(1, XDATA, add(CFA_XSP16, literal(-5)))
        CFI ?RET_HIGH load(1, XDATA, add(CFA_XSP16, literal(-4)))
        CFI ?BRET_EXT load(1, XDATA, add(CFA_XSP16, literal(-3)))
        CFI DPL0 load(1, XDATA, add(CFA_XSP16, literal(-2)))
        CFI DPH0 load(1, XDATA, add(CFA_XSP16, literal(-1)))
        CFI CFA_SP SP+0
        CFI CFA_XSP16 add(XSP16, 9)
        CFI Block cfiCond112 Using cfiCommon0
        CFI (cfiCond112) NoFunction
        CFI (cfiCond112) Conditional ??CrossCallReturnLabel_10
        CFI (cfiCond112) R6 load(1, XDATA, add(CFA_XSP16, literal(-24)))
        CFI (cfiCond112) VB load(1, XDATA, add(CFA_XSP16, literal(-23)))
        CFI (cfiCond112) V0 load(1, XDATA, add(CFA_XSP16, literal(-22)))
        CFI (cfiCond112) V1 load(1, XDATA, add(CFA_XSP16, literal(-21)))
        CFI (cfiCond112) V2 load(1, XDATA, add(CFA_XSP16, literal(-20)))
        CFI (cfiCond112) V3 load(1, XDATA, add(CFA_XSP16, literal(-19)))
        CFI (cfiCond112) V4 load(1, XDATA, add(CFA_XSP16, literal(-18)))
        CFI (cfiCond112) V5 load(1, XDATA, add(CFA_XSP16, literal(-17)))
        CFI (cfiCond112) V6 load(1, XDATA, add(CFA_XSP16, literal(-16)))
        CFI (cfiCond112) V7 load(1, XDATA, add(CFA_XSP16, literal(-15)))
        CFI (cfiCond112) V8 load(1, XDATA, add(CFA_XSP16, literal(-14)))
        CFI (cfiCond112) V9 load(1, XDATA, add(CFA_XSP16, literal(-13)))
        CFI (cfiCond112) V10 load(1, XDATA, add(CFA_XSP16, literal(-12)))
        CFI (cfiCond112) V11 load(1, XDATA, add(CFA_XSP16, literal(-11)))
        CFI (cfiCond112) V12 load(1, XDATA, add(CFA_XSP16, literal(-10)))
        CFI (cfiCond112) V13 load(1, XDATA, add(CFA_XSP16, literal(-9)))
        CFI (cfiCond112) V14 load(1, XDATA, add(CFA_XSP16, literal(-8)))
        CFI (cfiCond112) V15 load(1, XDATA, add(CFA_XSP16, literal(-7)))
        CFI (cfiCond112) R7 load(1, XDATA, add(CFA_XSP16, literal(-6)))
        CFI (cfiCond112) ?RET_LOW load(1, XDATA, add(CFA_XSP16, literal(-5)))
        CFI (cfiCond112) ?RET_HIGH load(1, XDATA, add(CFA_XSP16, literal(-4)))
        CFI (cfiCond112) ?BRET_EXT load(1, XDATA, add(CFA_XSP16, literal(-3)))
        CFI (cfiCond112) DPL0 load(1, XDATA, add(CFA_XSP16, literal(-2)))
        CFI (cfiCond112) DPH0 load(1, XDATA, add(CFA_XSP16, literal(-1)))
        CFI (cfiCond112) CFA_SP SP+0
        CFI (cfiCond112) CFA_XSP16 add(XSP16, 54)
        CFI Block cfiCond113 Using cfiCommon0
        CFI (cfiCond113) NoFunction
        CFI (cfiCond113) Conditional ??CrossCallReturnLabel_12
        CFI (cfiCond113) R6 load(1, XDATA, add(CFA_XSP16, literal(-24)))
        CFI (cfiCond113) VB load(1, XDATA, add(CFA_XSP16, literal(-23)))
        CFI (cfiCond113) V0 load(1, XDATA, add(CFA_XSP16, literal(-22)))
        CFI (cfiCond113) V1 load(1, XDATA, add(CFA_XSP16, literal(-21)))
        CFI (cfiCond113) V2 load(1, XDATA, add(CFA_XSP16, literal(-20)))
        CFI (cfiCond113) V3 load(1, XDATA, add(CFA_XSP16, literal(-19)))
        CFI (cfiCond113) V4 load(1, XDATA, add(CFA_XSP16, literal(-18)))
        CFI (cfiCond113) V5 load(1, XDATA, add(CFA_XSP16, literal(-17)))
        CFI (cfiCond113) V6 load(1, XDATA, add(CFA_XSP16, literal(-16)))
        CFI (cfiCond113) V7 load(1, XDATA, add(CFA_XSP16, literal(-15)))
        CFI (cfiCond113) V8 load(1, XDATA, add(CFA_XSP16, literal(-14)))
        CFI (cfiCond113) V9 load(1, XDATA, add(CFA_XSP16, literal(-13)))
        CFI (cfiCond113) V10 load(1, XDATA, add(CFA_XSP16, literal(-12)))
        CFI (cfiCond113) V11 load(1, XDATA, add(CFA_XSP16, literal(-11)))
        CFI (cfiCond113) V12 load(1, XDATA, add(CFA_XSP16, literal(-10)))
        CFI (cfiCond113) V13 load(1, XDATA, add(CFA_XSP16, literal(-9)))
        CFI (cfiCond113) V14 load(1, XDATA, add(CFA_XSP16, literal(-8)))
        CFI (cfiCond113) V15 load(1, XDATA, add(CFA_XSP16, literal(-7)))
        CFI (cfiCond113) R7 load(1, XDATA, add(CFA_XSP16, literal(-6)))
        CFI (cfiCond113) ?RET_LOW load(1, XDATA, add(CFA_XSP16, literal(-5)))
        CFI (cfiCond113) ?RET_HIGH load(1, XDATA, add(CFA_XSP16, literal(-4)))
        CFI (cfiCond113) ?BRET_EXT load(1, XDATA, add(CFA_XSP16, literal(-3)))
        CFI (cfiCond113) DPL0 load(1, XDATA, add(CFA_XSP16, literal(-2)))
        CFI (cfiCond113) DPH0 load(1, XDATA, add(CFA_XSP16, literal(-1)))
        CFI (cfiCond113) CFA_SP SP+0
        CFI (cfiCond113) CFA_XSP16 add(XSP16, 54)
        CFI Block cfiPicker114 Using cfiCommon1
        CFI (cfiPicker114) NoFunction
        CFI (cfiPicker114) Picker
        LCALL   ??Subroutine38_0 & 0xFFFF
??CrossCallReturnLabel_75:
        MOV     A,R0
        ORL     A,R1
        RET
        CFI EndBlock cfiCond111
        CFI EndBlock cfiCond112
        CFI EndBlock cfiCond113
        CFI EndBlock cfiPicker114

        RSEG BANKED_CODE:CODE:NOROOT(0)
?Subroutine8:
        CFI Block cfiCond115 Using cfiCommon0
        CFI NoFunction
        CFI Conditional ??CrossCallReturnLabel_8
        CFI R6 load(1, XDATA, add(CFA_XSP16, literal(-24)))
        CFI VB load(1, XDATA, add(CFA_XSP16, literal(-23)))
        CFI V0 load(1, XDATA, add(CFA_XSP16, literal(-22)))
        CFI V1 load(1, XDATA, add(CFA_XSP16, literal(-21)))
        CFI V2 load(1, XDATA, add(CFA_XSP16, literal(-20)))
        CFI V3 load(1, XDATA, add(CFA_XSP16, literal(-19)))
        CFI V4 load(1, XDATA, add(CFA_XSP16, literal(-18)))
        CFI V5 load(1, XDATA, add(CFA_XSP16, literal(-17)))
        CFI V6 load(1, XDATA, add(CFA_XSP16, literal(-16)))
        CFI V7 load(1, XDATA, add(CFA_XSP16, literal(-15)))
        CFI V8 load(1, XDATA, add(CFA_XSP16, literal(-14)))
        CFI V9 load(1, XDATA, add(CFA_XSP16, literal(-13)))
        CFI V10 load(1, XDATA, add(CFA_XSP16, literal(-12)))
        CFI V11 load(1, XDATA, add(CFA_XSP16, literal(-11)))
        CFI V12 load(1, XDATA, add(CFA_XSP16, literal(-10)))
        CFI V13 load(1, XDATA, add(CFA_XSP16, literal(-9)))
        CFI V14 load(1, XDATA, add(CFA_XSP16, literal(-8)))
        CFI V15 load(1, XDATA, add(CFA_XSP16, literal(-7)))
        CFI R7 load(1, XDATA, add(CFA_XSP16, literal(-6)))
        CFI ?RET_LOW load(1, XDATA, add(CFA_XSP16, literal(-5)))
        CFI ?RET_HIGH load(1, XDATA, add(CFA_XSP16, literal(-4)))
        CFI ?BRET_EXT load(1, XDATA, add(CFA_XSP16, literal(-3)))
        CFI DPL0 load(1, XDATA, add(CFA_XSP16, literal(-2)))
        CFI DPH0 load(1, XDATA, add(CFA_XSP16, literal(-1)))
        CFI CFA_SP SP+0
        CFI CFA_XSP16 add(XSP16, 27)
        CFI Block cfiCond116 Using cfiCommon0
        CFI (cfiCond116) NoFunction
        CFI (cfiCond116) Conditional ??CrossCallReturnLabel_9
        CFI (cfiCond116) R6 load(1, XDATA, add(CFA_XSP16, literal(-24)))
        CFI (cfiCond116) VB load(1, XDATA, add(CFA_XSP16, literal(-23)))
        CFI (cfiCond116) V0 load(1, XDATA, add(CFA_XSP16, literal(-22)))
        CFI (cfiCond116) V1 load(1, XDATA, add(CFA_XSP16, literal(-21)))
        CFI (cfiCond116) V2 load(1, XDATA, add(CFA_XSP16, literal(-20)))
        CFI (cfiCond116) V3 load(1, XDATA, add(CFA_XSP16, literal(-19)))
        CFI (cfiCond116) V4 load(1, XDATA, add(CFA_XSP16, literal(-18)))
        CFI (cfiCond116) V5 load(1, XDATA, add(CFA_XSP16, literal(-17)))
        CFI (cfiCond116) V6 load(1, XDATA, add(CFA_XSP16, literal(-16)))
        CFI (cfiCond116) V7 load(1, XDATA, add(CFA_XSP16, literal(-15)))
        CFI (cfiCond116) V8 load(1, XDATA, add(CFA_XSP16, literal(-14)))
        CFI (cfiCond116) V9 load(1, XDATA, add(CFA_XSP16, literal(-13)))
        CFI (cfiCond116) V10 load(1, XDATA, add(CFA_XSP16, literal(-12)))
        CFI (cfiCond116) V11 load(1, XDATA, add(CFA_XSP16, literal(-11)))
        CFI (cfiCond116) V12 load(1, XDATA, add(CFA_XSP16, literal(-10)))
        CFI (cfiCond116) V13 load(1, XDATA, add(CFA_XSP16, literal(-9)))
        CFI (cfiCond116) V14 load(1, XDATA, add(CFA_XSP16, literal(-8)))
        CFI (cfiCond116) V15 load(1, XDATA, add(CFA_XSP16, literal(-7)))
        CFI (cfiCond116) R7 load(1, XDATA, add(CFA_XSP16, literal(-6)))
        CFI (cfiCond116) ?RET_LOW load(1, XDATA, add(CFA_XSP16, literal(-5)))
        CFI (cfiCond116) ?RET_HIGH load(1, XDATA, add(CFA_XSP16, literal(-4)))
        CFI (cfiCond116) ?BRET_EXT load(1, XDATA, add(CFA_XSP16, literal(-3)))
        CFI (cfiCond116) DPL0 load(1, XDATA, add(CFA_XSP16, literal(-2)))
        CFI (cfiCond116) DPH0 load(1, XDATA, add(CFA_XSP16, literal(-1)))
        CFI (cfiCond116) CFA_SP SP+0
        CFI (cfiCond116) CFA_XSP16 add(XSP16, 54)
        CFI Block cfiPicker117 Using cfiCommon1
        CFI (cfiPicker117) NoFunction
        CFI (cfiPicker117) Picker
        LCALL   ?Subroutine35 & 0xFFFF
??CrossCallReturnLabel_76:
        MOV     DPL,R0
        MOV     DPH,R1
        MOV     A,DPL
        ORL     A,DPH
        RET
        CFI EndBlock cfiCond115
        CFI EndBlock cfiCond116
        CFI EndBlock cfiPicker117
//  680 
//  681 #if defined ( ZIGBEE_SOURCE_ROUTING )
//  682 /*********************************************************************
//  683  * @fn      AF_DataRequestSrcRtg
//  684  *
//  685  * @brief   Common functionality for invoking APSDE_DataReq() for both
//  686  *          SendMulti and MSG-Send.
//  687  *
//  688  * input parameters
//  689  *
//  690  * @param  *dstAddr - Full ZB destination address: Nwk Addr + End Point.
//  691  * @param  *srcEP - Origination (i.e. respond to or ack to) End Point Descr.
//  692  * @param   cID - A valid cluster ID as specified by the Profile.
//  693  * @param   len - Number of bytes of data pointed to by next param.
//  694  * @param  *buf - A pointer to the data bytes to send.
//  695  * @param  *transID - A pointer to a byte which can be modified and which will
//  696  *                    be used as the transaction sequence number of the msg.
//  697  * @param   options - Valid bit mask of Tx options.
//  698  * @param   radius - Normally set to AF_DEFAULT_RADIUS.
//  699  * @param   relayCnt - Number of devices in the relay list
//  700  * @param   pRelayList - Pointer to the relay list
//  701  *
//  702  * output parameters
//  703  *
//  704  * @param  *transID - Incremented by one if the return value is success.
//  705  *
//  706  * @return  afStatus_t - See previous definition of afStatus_... types.
//  707  */
//  708 

        RSEG BANKED_CODE:CODE:NOROOT(0)
//  709 afStatus_t AF_DataRequestSrcRtg( afAddrType_t *dstAddr, endPointDesc_t *srcEP,
AF_DataRequestSrcRtg:
        CFI Block cfiBlock118 Using cfiCommon0
        CFI Function AF_DataRequestSrcRtg
        CODE
//  710                            uint16 cID, uint16 len, uint8 *buf, uint8 *transID,
//  711                            uint8 options, uint8 radius, uint8 relayCnt, uint16* pRelayList )
//  712 {
        FUNCALL AF_DataRequestSrcRtg, RTG_AddSrcRtgEntry_Guaranteed
        LOCFRAME ISTACK, 0, STACK
        LOCFRAME PSTACK, 0, STACK
        LOCFRAME XSTACK, 20, STACK
        LOCFRAME IOVERLAY, 0, STATIC
        LOCFRAME DOVERLAY, 0, STATIC
        ARGFRAME ISTACK, 0, STACK
        ARGFRAME PSTACK, 0, STACK
        ARGFRAME XSTACK, 20, STACK
        ARGFRAME IOVERLAY, 0, STATIC
        ARGFRAME DOVERLAY, 0, STATIC
        FUNCALL AF_DataRequestSrcRtg, AF_DataRequest
        LOCFRAME ISTACK, 0, STACK
        LOCFRAME PSTACK, 0, STACK
        LOCFRAME XSTACK, 29, STACK
        LOCFRAME IOVERLAY, 0, STATIC
        LOCFRAME DOVERLAY, 0, STATIC
        ARGFRAME ISTACK, 0, STACK
        ARGFRAME PSTACK, 0, STACK
        ARGFRAME XSTACK, 29, STACK
        ARGFRAME IOVERLAY, 0, STATIC
        ARGFRAME DOVERLAY, 0, STATIC
        MOV     A,#-0x14
        LCALL   ?BANKED_ENTER_XDATA
        CFI DPH0 load(1, XDATA, add(CFA_XSP16, literal(-1)))
        CFI DPL0 load(1, XDATA, add(CFA_XSP16, literal(-2)))
        CFI ?BRET_EXT load(1, XDATA, add(CFA_XSP16, literal(-3)))
        CFI ?RET_HIGH load(1, XDATA, add(CFA_XSP16, literal(-4)))
        CFI ?RET_LOW load(1, XDATA, add(CFA_XSP16, literal(-5)))
        CFI R7 load(1, XDATA, add(CFA_XSP16, literal(-6)))
        CFI V11 load(1, XDATA, add(CFA_XSP16, literal(-7)))
        CFI V10 load(1, XDATA, add(CFA_XSP16, literal(-8)))
        CFI V9 load(1, XDATA, add(CFA_XSP16, literal(-9)))
        CFI V8 load(1, XDATA, add(CFA_XSP16, literal(-10)))
        CFI V7 load(1, XDATA, add(CFA_XSP16, literal(-11)))
        CFI V6 load(1, XDATA, add(CFA_XSP16, literal(-12)))
        CFI V5 load(1, XDATA, add(CFA_XSP16, literal(-13)))
        CFI V4 load(1, XDATA, add(CFA_XSP16, literal(-14)))
        CFI V3 load(1, XDATA, add(CFA_XSP16, literal(-15)))
        CFI V2 load(1, XDATA, add(CFA_XSP16, literal(-16)))
        CFI V1 load(1, XDATA, add(CFA_XSP16, literal(-17)))
        CFI V0 load(1, XDATA, add(CFA_XSP16, literal(-18)))
        CFI VB load(1, XDATA, add(CFA_XSP16, literal(-19)))
        CFI R6 load(1, XDATA, add(CFA_XSP16, literal(-20)))
        CFI CFA_SP SP+0
        CFI CFA_XSP16 add(XSP16, 20)
        ; Saved register size: 20
        ; Auto size: 0
        MOV     A,R2
        MOV     R6,A
        MOV     A,R3
        MOV     R7,A
        MOV     ?V0 + 0,R4
        MOV     ?V0 + 1,R5
        MOV     ?V0 + 2,R1
        MOV     A,#0x14
        LCALL   ?XSTACK_DISP0_8
        MOVX    A,@DPTR
        MOV     ?V0 + 10,A
        INC     DPTR
        MOVX    A,@DPTR
        MOV     ?V0 + 11,A
        MOV     A,#0x16
        LCALL   ?XSTACK_DISP0_8
        MOVX    A,@DPTR
        MOV     ?V0 + 8,A
        INC     DPTR
        MOVX    A,@DPTR
        MOV     ?V0 + 9,A
        MOV     A,#0x18
        LCALL   ?XSTACK_DISP0_8
        MOVX    A,@DPTR
        MOV     ?V0 + 6,A
        INC     DPTR
        MOVX    A,@DPTR
        MOV     ?V0 + 7,A
        MOV     A,#0x1a
        LCALL   ?XSTACK_DISP0_8
        MOVX    A,@DPTR
        MOV     ?V0 + 4,A
        INC     DPTR
        MOVX    A,@DPTR
        MOV     ?V0 + 5,A
        MOV     A,#0x1c
        LCALL   ?XSTACK_DISP0_8
        MOVX    A,@DPTR
        MOV     ?V0 + 3,A
        MOV     A,#0x1d
        LCALL   ?XSTACK_DISP0_8
        MOVX    A,@DPTR
        MOV     R1,A
        MOV     A,#0x1e
        LCALL   ?XSTACK_DISP0_8
        LCALL   ?Subroutine18 & 0xFFFF
//  713   uint8 status;
//  714 
//  715   /* Add the source route to the source routing table */
//  716   status = RTG_AddSrcRtgEntry_Guaranteed( dstAddr->addr.shortAddr, relayCnt,
//  717                                          pRelayList );
??CrossCallReturnLabel_27:
        ; Setup parameters for call to function RTG_AddSrcRtgEntry_Guaranteed
        MOV     DPL,R6
        MOV     DPH,R7
        LCALL   ??Subroutine39_0 & 0xFFFF
??CrossCallReturnLabel_83:
        LCALL   ??RTG_AddSrcRtgEntry_Guaranteed?relay
        MOV     A,R1
//  718 
//  719   if( status == RTG_SUCCESS)
        JNZ     ??AF_DataRequestSrcRtg_0
//  720   {
//  721     /* Call AF_DataRequest to send the data */
//  722     status = AF_DataRequest( dstAddr, srcEP, cID, len, buf, transID, options, radius );
        ; Setup parameters for call to function AF_DataRequest
        MOV     R0,#?V0 + 3
        LCALL   ?PUSH_XSTACK_I_ONE
        CFI CFA_XSP16 add(XSP16, 21)
        MOV     R0,#?V0 + 4
        LCALL   ?PUSH_XSTACK_I_TWO
        CFI CFA_XSP16 add(XSP16, 23)
        MOV     R0,#?V0 + 6
        LCALL   ?PUSH_XSTACK_I_TWO
        CFI CFA_XSP16 add(XSP16, 25)
        MOV     R0,#?V0 + 8
        LCALL   ?PUSH_XSTACK_I_TWO
        CFI CFA_XSP16 add(XSP16, 27)
        MOV     R0,#?V0 + 10
        LCALL   ?PUSH_XSTACK_I_TWO
        CFI CFA_XSP16 add(XSP16, 29)
        MOV     R1,?V0 + 2
        MOV     R4,?V0 + 0
        MOV     R5,?V0 + 1
        MOV     A,R6
        MOV     R2,A
        MOV     A,R7
        MOV     R3,A
        LCALL   ??AF_DataRequest?relay
        MOV     A,#0x9
        LCALL   ?DEALLOC_XSTACK8
        CFI CFA_XSP16 add(XSP16, 20)
        SJMP    ??AF_DataRequestSrcRtg_1
//  723   }
//  724   else if( status == RTG_INVALID_PATH )
??AF_DataRequestSrcRtg_0:
        MOV     A,#0x5
        XRL     A,R1
        JNZ     ??AF_DataRequestSrcRtg_2
//  725   {
//  726     /* The source route relay count is exceeding the network limit */
//  727     status = afStatus_INVALID_PARAMETER;
        MOV     R1,#0x2
        SJMP    ??AF_DataRequestSrcRtg_1
//  728   }
//  729   else
//  730   {
//  731     /* The guaranteed adding entry fails due to memory failure */
//  732     status = afStatus_MEM_FAIL;
??AF_DataRequestSrcRtg_2:
        MOV     R1,#0x10
//  733   }
//  734   return status;
??AF_DataRequestSrcRtg_1:
        MOV     R7,#0xc
        LJMP    ?BANKED_LEAVE_XDATA
        CFI EndBlock cfiBlock118
//  735 }

        RSEG BANKED_CODE:CODE:NOROOT(0)
?Subroutine18:
        CFI Block cfiCond119 Using cfiCommon0
        CFI NoFunction
        CFI Conditional ??CrossCallReturnLabel_25
        CFI R6 load(1, XDATA, add(CFA_XSP16, literal(-9)))
        CFI VB load(1, XDATA, add(CFA_XSP16, literal(-8)))
        CFI V0 load(1, XDATA, add(CFA_XSP16, literal(-7)))
        CFI R7 load(1, XDATA, add(CFA_XSP16, literal(-6)))
        CFI ?RET_LOW load(1, XDATA, add(CFA_XSP16, literal(-5)))
        CFI ?RET_HIGH load(1, XDATA, add(CFA_XSP16, literal(-4)))
        CFI ?BRET_EXT load(1, XDATA, add(CFA_XSP16, literal(-3)))
        CFI DPL0 load(1, XDATA, add(CFA_XSP16, literal(-2)))
        CFI DPH0 load(1, XDATA, add(CFA_XSP16, literal(-1)))
        CFI CFA_SP SP+0
        CFI CFA_XSP16 add(XSP16, 9)
        CFI Block cfiCond120 Using cfiCommon0
        CFI (cfiCond120) NoFunction
        CFI (cfiCond120) Conditional ??CrossCallReturnLabel_26
        CFI (cfiCond120) R6 load(1, XDATA, add(CFA_XSP16, literal(-24)))
        CFI (cfiCond120) VB load(1, XDATA, add(CFA_XSP16, literal(-23)))
        CFI (cfiCond120) V0 load(1, XDATA, add(CFA_XSP16, literal(-22)))
        CFI (cfiCond120) V1 load(1, XDATA, add(CFA_XSP16, literal(-21)))
        CFI (cfiCond120) V2 load(1, XDATA, add(CFA_XSP16, literal(-20)))
        CFI (cfiCond120) V3 load(1, XDATA, add(CFA_XSP16, literal(-19)))
        CFI (cfiCond120) V4 load(1, XDATA, add(CFA_XSP16, literal(-18)))
        CFI (cfiCond120) V5 load(1, XDATA, add(CFA_XSP16, literal(-17)))
        CFI (cfiCond120) V6 load(1, XDATA, add(CFA_XSP16, literal(-16)))
        CFI (cfiCond120) V7 load(1, XDATA, add(CFA_XSP16, literal(-15)))
        CFI (cfiCond120) V8 load(1, XDATA, add(CFA_XSP16, literal(-14)))
        CFI (cfiCond120) V9 load(1, XDATA, add(CFA_XSP16, literal(-13)))
        CFI (cfiCond120) V10 load(1, XDATA, add(CFA_XSP16, literal(-12)))
        CFI (cfiCond120) V11 load(1, XDATA, add(CFA_XSP16, literal(-11)))
        CFI (cfiCond120) V12 load(1, XDATA, add(CFA_XSP16, literal(-10)))
        CFI (cfiCond120) V13 load(1, XDATA, add(CFA_XSP16, literal(-9)))
        CFI (cfiCond120) V14 load(1, XDATA, add(CFA_XSP16, literal(-8)))
        CFI (cfiCond120) V15 load(1, XDATA, add(CFA_XSP16, literal(-7)))
        CFI (cfiCond120) R7 load(1, XDATA, add(CFA_XSP16, literal(-6)))
        CFI (cfiCond120) ?RET_LOW load(1, XDATA, add(CFA_XSP16, literal(-5)))
        CFI (cfiCond120) ?RET_HIGH load(1, XDATA, add(CFA_XSP16, literal(-4)))
        CFI (cfiCond120) ?BRET_EXT load(1, XDATA, add(CFA_XSP16, literal(-3)))
        CFI (cfiCond120) DPL0 load(1, XDATA, add(CFA_XSP16, literal(-2)))
        CFI (cfiCond120) DPH0 load(1, XDATA, add(CFA_XSP16, literal(-1)))
        CFI (cfiCond120) CFA_SP SP+0
        CFI (cfiCond120) CFA_XSP16 add(XSP16, 25)
        CFI Block cfiCond121 Using cfiCommon0
        CFI (cfiCond121) NoFunction
        CFI (cfiCond121) Conditional ??CrossCallReturnLabel_27
        CFI (cfiCond121) R6 load(1, XDATA, add(CFA_XSP16, literal(-20)))
        CFI (cfiCond121) VB load(1, XDATA, add(CFA_XSP16, literal(-19)))
        CFI (cfiCond121) V0 load(1, XDATA, add(CFA_XSP16, literal(-18)))
        CFI (cfiCond121) V1 load(1, XDATA, add(CFA_XSP16, literal(-17)))
        CFI (cfiCond121) V2 load(1, XDATA, add(CFA_XSP16, literal(-16)))
        CFI (cfiCond121) V3 load(1, XDATA, add(CFA_XSP16, literal(-15)))
        CFI (cfiCond121) V4 load(1, XDATA, add(CFA_XSP16, literal(-14)))
        CFI (cfiCond121) V5 load(1, XDATA, add(CFA_XSP16, literal(-13)))
        CFI (cfiCond121) V6 load(1, XDATA, add(CFA_XSP16, literal(-12)))
        CFI (cfiCond121) V7 load(1, XDATA, add(CFA_XSP16, literal(-11)))
        CFI (cfiCond121) V8 load(1, XDATA, add(CFA_XSP16, literal(-10)))
        CFI (cfiCond121) V9 load(1, XDATA, add(CFA_XSP16, literal(-9)))
        CFI (cfiCond121) V10 load(1, XDATA, add(CFA_XSP16, literal(-8)))
        CFI (cfiCond121) V11 load(1, XDATA, add(CFA_XSP16, literal(-7)))
        CFI (cfiCond121) R7 load(1, XDATA, add(CFA_XSP16, literal(-6)))
        CFI (cfiCond121) ?RET_LOW load(1, XDATA, add(CFA_XSP16, literal(-5)))
        CFI (cfiCond121) ?RET_HIGH load(1, XDATA, add(CFA_XSP16, literal(-4)))
        CFI (cfiCond121) ?BRET_EXT load(1, XDATA, add(CFA_XSP16, literal(-3)))
        CFI (cfiCond121) DPL0 load(1, XDATA, add(CFA_XSP16, literal(-2)))
        CFI (cfiCond121) DPH0 load(1, XDATA, add(CFA_XSP16, literal(-1)))
        CFI (cfiCond121) CFA_SP SP+0
        CFI (cfiCond121) CFA_XSP16 add(XSP16, 20)
        CFI Block cfiCond122 Using cfiCommon0
        CFI (cfiCond122) NoFunction
        CFI (cfiCond122) Conditional ??CrossCallReturnLabel_28
        CFI (cfiCond122) DPL0 Frame(CFA_SP, 4)
        CFI (cfiCond122) DPH0 Frame(CFA_SP, 5)
        CFI (cfiCond122) CFA_SP SP+-5
        CFI Block cfiPicker123 Using cfiCommon1
        CFI (cfiPicker123) NoFunction
        CFI (cfiPicker123) Picker
        MOVX    A,@DPTR
        MOV     R4,A
        INC     DPTR
        MOVX    A,@DPTR
        MOV     R5,A
        RET
        CFI EndBlock cfiCond119
        CFI EndBlock cfiCond120
        CFI EndBlock cfiCond121
        CFI EndBlock cfiCond122
        CFI EndBlock cfiPicker123

        RSEG BANKED_CODE:CODE:NOROOT(0)
?Subroutine17:
        CFI Block cfiCond124 Using cfiCommon0
        CFI NoFunction
        CFI Conditional ??CrossCallReturnLabel_87
        CFI R6 load(1, XDATA, add(CFA_XSP16, literal(-24)))
        CFI VB load(1, XDATA, add(CFA_XSP16, literal(-23)))
        CFI V0 load(1, XDATA, add(CFA_XSP16, literal(-22)))
        CFI V1 load(1, XDATA, add(CFA_XSP16, literal(-21)))
        CFI V2 load(1, XDATA, add(CFA_XSP16, literal(-20)))
        CFI V3 load(1, XDATA, add(CFA_XSP16, literal(-19)))
        CFI V4 load(1, XDATA, add(CFA_XSP16, literal(-18)))
        CFI V5 load(1, XDATA, add(CFA_XSP16, literal(-17)))
        CFI V6 load(1, XDATA, add(CFA_XSP16, literal(-16)))
        CFI V7 load(1, XDATA, add(CFA_XSP16, literal(-15)))
        CFI V8 load(1, XDATA, add(CFA_XSP16, literal(-14)))
        CFI V9 load(1, XDATA, add(CFA_XSP16, literal(-13)))
        CFI V10 load(1, XDATA, add(CFA_XSP16, literal(-12)))
        CFI V11 load(1, XDATA, add(CFA_XSP16, literal(-11)))
        CFI V12 load(1, XDATA, add(CFA_XSP16, literal(-10)))
        CFI V13 load(1, XDATA, add(CFA_XSP16, literal(-9)))
        CFI V14 load(1, XDATA, add(CFA_XSP16, literal(-8)))
        CFI V15 load(1, XDATA, add(CFA_XSP16, literal(-7)))
        CFI R7 load(1, XDATA, add(CFA_XSP16, literal(-6)))
        CFI ?RET_LOW load(1, XDATA, add(CFA_XSP16, literal(-5)))
        CFI ?RET_HIGH load(1, XDATA, add(CFA_XSP16, literal(-4)))
        CFI ?BRET_EXT load(1, XDATA, add(CFA_XSP16, literal(-3)))
        CFI DPL0 load(1, XDATA, add(CFA_XSP16, literal(-2)))
        CFI DPH0 load(1, XDATA, add(CFA_XSP16, literal(-1)))
        CFI CFA_SP SP+0
        CFI CFA_XSP16 add(XSP16, 54)
        CFI Block cfiCond125 Using cfiCommon0
        CFI (cfiCond125) NoFunction
        CFI (cfiCond125) Conditional ??CrossCallReturnLabel_88
        CFI (cfiCond125) R6 load(1, XDATA, add(CFA_XSP16, literal(-24)))
        CFI (cfiCond125) VB load(1, XDATA, add(CFA_XSP16, literal(-23)))
        CFI (cfiCond125) V0 load(1, XDATA, add(CFA_XSP16, literal(-22)))
        CFI (cfiCond125) V1 load(1, XDATA, add(CFA_XSP16, literal(-21)))
        CFI (cfiCond125) V2 load(1, XDATA, add(CFA_XSP16, literal(-20)))
        CFI (cfiCond125) V3 load(1, XDATA, add(CFA_XSP16, literal(-19)))
        CFI (cfiCond125) V4 load(1, XDATA, add(CFA_XSP16, literal(-18)))
        CFI (cfiCond125) V5 load(1, XDATA, add(CFA_XSP16, literal(-17)))
        CFI (cfiCond125) V6 load(1, XDATA, add(CFA_XSP16, literal(-16)))
        CFI (cfiCond125) V7 load(1, XDATA, add(CFA_XSP16, literal(-15)))
        CFI (cfiCond125) V8 load(1, XDATA, add(CFA_XSP16, literal(-14)))
        CFI (cfiCond125) V9 load(1, XDATA, add(CFA_XSP16, literal(-13)))
        CFI (cfiCond125) V10 load(1, XDATA, add(CFA_XSP16, literal(-12)))
        CFI (cfiCond125) V11 load(1, XDATA, add(CFA_XSP16, literal(-11)))
        CFI (cfiCond125) V12 load(1, XDATA, add(CFA_XSP16, literal(-10)))
        CFI (cfiCond125) V13 load(1, XDATA, add(CFA_XSP16, literal(-9)))
        CFI (cfiCond125) V14 load(1, XDATA, add(CFA_XSP16, literal(-8)))
        CFI (cfiCond125) V15 load(1, XDATA, add(CFA_XSP16, literal(-7)))
        CFI (cfiCond125) R7 load(1, XDATA, add(CFA_XSP16, literal(-6)))
        CFI (cfiCond125) ?RET_LOW load(1, XDATA, add(CFA_XSP16, literal(-5)))
        CFI (cfiCond125) ?RET_HIGH load(1, XDATA, add(CFA_XSP16, literal(-4)))
        CFI (cfiCond125) ?BRET_EXT load(1, XDATA, add(CFA_XSP16, literal(-3)))
        CFI (cfiCond125) DPL0 load(1, XDATA, add(CFA_XSP16, literal(-2)))
        CFI (cfiCond125) DPH0 load(1, XDATA, add(CFA_XSP16, literal(-1)))
        CFI (cfiCond125) CFA_SP SP+0
        CFI (cfiCond125) CFA_XSP16 add(XSP16, 54)
        CFI Block cfiPicker126 Using cfiCommon1
        CFI (cfiPicker126) NoFunction
        CFI (cfiPicker126) Picker
        MOV     DPL,?V0 + 2
        MOV     DPH,?V0 + 3
        CFI EndBlock cfiCond124
        CFI EndBlock cfiCond125
        CFI EndBlock cfiPicker126
        REQUIRE ??Subroutine39_0
        ; // Fall through to label ??Subroutine39_0

        RSEG BANKED_CODE:CODE:NOROOT(0)
??Subroutine39_0:
        CFI Block cfiCond127 Using cfiCommon0
        CFI NoFunction
        CFI Conditional ??CrossCallReturnLabel_79
        CFI R6 load(1, XDATA, add(CFA_XSP16, literal(-9)))
        CFI VB load(1, XDATA, add(CFA_XSP16, literal(-8)))
        CFI V0 load(1, XDATA, add(CFA_XSP16, literal(-7)))
        CFI R7 load(1, XDATA, add(CFA_XSP16, literal(-6)))
        CFI ?RET_LOW load(1, XDATA, add(CFA_XSP16, literal(-5)))
        CFI ?RET_HIGH load(1, XDATA, add(CFA_XSP16, literal(-4)))
        CFI ?BRET_EXT load(1, XDATA, add(CFA_XSP16, literal(-3)))
        CFI DPL0 load(1, XDATA, add(CFA_XSP16, literal(-2)))
        CFI DPH0 load(1, XDATA, add(CFA_XSP16, literal(-1)))
        CFI CFA_SP SP+0
        CFI CFA_XSP16 add(XSP16, 9)
        CFI Block cfiCond128 Using cfiCommon0
        CFI (cfiCond128) NoFunction
        CFI (cfiCond128) Conditional ??CrossCallReturnLabel_80
        CFI (cfiCond128) R6 load(1, XDATA, add(CFA_XSP16, literal(-9)))
        CFI (cfiCond128) VB load(1, XDATA, add(CFA_XSP16, literal(-8)))
        CFI (cfiCond128) V0 load(1, XDATA, add(CFA_XSP16, literal(-7)))
        CFI (cfiCond128) R7 load(1, XDATA, add(CFA_XSP16, literal(-6)))
        CFI (cfiCond128) ?RET_LOW load(1, XDATA, add(CFA_XSP16, literal(-5)))
        CFI (cfiCond128) ?RET_HIGH load(1, XDATA, add(CFA_XSP16, literal(-4)))
        CFI (cfiCond128) ?BRET_EXT load(1, XDATA, add(CFA_XSP16, literal(-3)))
        CFI (cfiCond128) DPL0 load(1, XDATA, add(CFA_XSP16, literal(-2)))
        CFI (cfiCond128) DPH0 load(1, XDATA, add(CFA_XSP16, literal(-1)))
        CFI (cfiCond128) CFA_SP SP+0
        CFI (cfiCond128) CFA_XSP16 add(XSP16, 9)
        CFI Block cfiCond129 Using cfiCommon0
        CFI (cfiCond129) NoFunction
        CFI (cfiCond129) Conditional ??CrossCallReturnLabel_81
        CFI (cfiCond129) R6 load(1, XDATA, add(CFA_XSP16, literal(-24)))
        CFI (cfiCond129) VB load(1, XDATA, add(CFA_XSP16, literal(-23)))
        CFI (cfiCond129) V0 load(1, XDATA, add(CFA_XSP16, literal(-22)))
        CFI (cfiCond129) V1 load(1, XDATA, add(CFA_XSP16, literal(-21)))
        CFI (cfiCond129) V2 load(1, XDATA, add(CFA_XSP16, literal(-20)))
        CFI (cfiCond129) V3 load(1, XDATA, add(CFA_XSP16, literal(-19)))
        CFI (cfiCond129) V4 load(1, XDATA, add(CFA_XSP16, literal(-18)))
        CFI (cfiCond129) V5 load(1, XDATA, add(CFA_XSP16, literal(-17)))
        CFI (cfiCond129) V6 load(1, XDATA, add(CFA_XSP16, literal(-16)))
        CFI (cfiCond129) V7 load(1, XDATA, add(CFA_XSP16, literal(-15)))
        CFI (cfiCond129) V8 load(1, XDATA, add(CFA_XSP16, literal(-14)))
        CFI (cfiCond129) V9 load(1, XDATA, add(CFA_XSP16, literal(-13)))
        CFI (cfiCond129) V10 load(1, XDATA, add(CFA_XSP16, literal(-12)))
        CFI (cfiCond129) V11 load(1, XDATA, add(CFA_XSP16, literal(-11)))
        CFI (cfiCond129) V12 load(1, XDATA, add(CFA_XSP16, literal(-10)))
        CFI (cfiCond129) V13 load(1, XDATA, add(CFA_XSP16, literal(-9)))
        CFI (cfiCond129) V14 load(1, XDATA, add(CFA_XSP16, literal(-8)))
        CFI (cfiCond129) V15 load(1, XDATA, add(CFA_XSP16, literal(-7)))
        CFI (cfiCond129) R7 load(1, XDATA, add(CFA_XSP16, literal(-6)))
        CFI (cfiCond129) ?RET_LOW load(1, XDATA, add(CFA_XSP16, literal(-5)))
        CFI (cfiCond129) ?RET_HIGH load(1, XDATA, add(CFA_XSP16, literal(-4)))
        CFI (cfiCond129) ?BRET_EXT load(1, XDATA, add(CFA_XSP16, literal(-3)))
        CFI (cfiCond129) DPL0 load(1, XDATA, add(CFA_XSP16, literal(-2)))
        CFI (cfiCond129) DPH0 load(1, XDATA, add(CFA_XSP16, literal(-1)))
        CFI (cfiCond129) CFA_SP SP+0
        CFI (cfiCond129) CFA_XSP16 add(XSP16, 28)
        CFI Block cfiCond130 Using cfiCommon0
        CFI (cfiCond130) NoFunction
        CFI (cfiCond130) Conditional ??CrossCallReturnLabel_82
        CFI (cfiCond130) R6 load(1, XDATA, add(CFA_XSP16, literal(-24)))
        CFI (cfiCond130) VB load(1, XDATA, add(CFA_XSP16, literal(-23)))
        CFI (cfiCond130) V0 load(1, XDATA, add(CFA_XSP16, literal(-22)))
        CFI (cfiCond130) V1 load(1, XDATA, add(CFA_XSP16, literal(-21)))
        CFI (cfiCond130) V2 load(1, XDATA, add(CFA_XSP16, literal(-20)))
        CFI (cfiCond130) V3 load(1, XDATA, add(CFA_XSP16, literal(-19)))
        CFI (cfiCond130) V4 load(1, XDATA, add(CFA_XSP16, literal(-18)))
        CFI (cfiCond130) V5 load(1, XDATA, add(CFA_XSP16, literal(-17)))
        CFI (cfiCond130) V6 load(1, XDATA, add(CFA_XSP16, literal(-16)))
        CFI (cfiCond130) V7 load(1, XDATA, add(CFA_XSP16, literal(-15)))
        CFI (cfiCond130) V8 load(1, XDATA, add(CFA_XSP16, literal(-14)))
        CFI (cfiCond130) V9 load(1, XDATA, add(CFA_XSP16, literal(-13)))
        CFI (cfiCond130) V10 load(1, XDATA, add(CFA_XSP16, literal(-12)))
        CFI (cfiCond130) V11 load(1, XDATA, add(CFA_XSP16, literal(-11)))
        CFI (cfiCond130) V12 load(1, XDATA, add(CFA_XSP16, literal(-10)))
        CFI (cfiCond130) V13 load(1, XDATA, add(CFA_XSP16, literal(-9)))
        CFI (cfiCond130) V14 load(1, XDATA, add(CFA_XSP16, literal(-8)))
        CFI (cfiCond130) V15 load(1, XDATA, add(CFA_XSP16, literal(-7)))
        CFI (cfiCond130) R7 load(1, XDATA, add(CFA_XSP16, literal(-6)))
        CFI (cfiCond130) ?RET_LOW load(1, XDATA, add(CFA_XSP16, literal(-5)))
        CFI (cfiCond130) ?RET_HIGH load(1, XDATA, add(CFA_XSP16, literal(-4)))
        CFI (cfiCond130) ?BRET_EXT load(1, XDATA, add(CFA_XSP16, literal(-3)))
        CFI (cfiCond130) DPL0 load(1, XDATA, add(CFA_XSP16, literal(-2)))
        CFI (cfiCond130) DPH0 load(1, XDATA, add(CFA_XSP16, literal(-1)))
        CFI (cfiCond130) CFA_SP SP+0
        CFI (cfiCond130) CFA_XSP16 add(XSP16, 54)
        CFI Block cfiCond131 Using cfiCommon0
        CFI (cfiCond131) NoFunction
        CFI (cfiCond131) Conditional ??CrossCallReturnLabel_83
        CFI (cfiCond131) R6 load(1, XDATA, add(CFA_XSP16, literal(-20)))
        CFI (cfiCond131) VB load(1, XDATA, add(CFA_XSP16, literal(-19)))
        CFI (cfiCond131) V0 load(1, XDATA, add(CFA_XSP16, literal(-18)))
        CFI (cfiCond131) V1 load(1, XDATA, add(CFA_XSP16, literal(-17)))
        CFI (cfiCond131) V2 load(1, XDATA, add(CFA_XSP16, literal(-16)))
        CFI (cfiCond131) V3 load(1, XDATA, add(CFA_XSP16, literal(-15)))
        CFI (cfiCond131) V4 load(1, XDATA, add(CFA_XSP16, literal(-14)))
        CFI (cfiCond131) V5 load(1, XDATA, add(CFA_XSP16, literal(-13)))
        CFI (cfiCond131) V6 load(1, XDATA, add(CFA_XSP16, literal(-12)))
        CFI (cfiCond131) V7 load(1, XDATA, add(CFA_XSP16, literal(-11)))
        CFI (cfiCond131) V8 load(1, XDATA, add(CFA_XSP16, literal(-10)))
        CFI (cfiCond131) V9 load(1, XDATA, add(CFA_XSP16, literal(-9)))
        CFI (cfiCond131) V10 load(1, XDATA, add(CFA_XSP16, literal(-8)))
        CFI (cfiCond131) V11 load(1, XDATA, add(CFA_XSP16, literal(-7)))
        CFI (cfiCond131) R7 load(1, XDATA, add(CFA_XSP16, literal(-6)))
        CFI (cfiCond131) ?RET_LOW load(1, XDATA, add(CFA_XSP16, literal(-5)))
        CFI (cfiCond131) ?RET_HIGH load(1, XDATA, add(CFA_XSP16, literal(-4)))
        CFI (cfiCond131) ?BRET_EXT load(1, XDATA, add(CFA_XSP16, literal(-3)))
        CFI (cfiCond131) DPL0 load(1, XDATA, add(CFA_XSP16, literal(-2)))
        CFI (cfiCond131) DPH0 load(1, XDATA, add(CFA_XSP16, literal(-1)))
        CFI (cfiCond131) CFA_SP SP+0
        CFI (cfiCond131) CFA_XSP16 add(XSP16, 20)
        CFI Block cfiCond132 Using cfiCommon0
        CFI (cfiCond132) NoFunction
        CFI (cfiCond132) Conditional ??CrossCallReturnLabel_84
        CFI (cfiCond132) DPL0 Frame(CFA_SP, 4)
        CFI (cfiCond132) DPH0 Frame(CFA_SP, 5)
        CFI (cfiCond132) CFA_SP SP+-5
        CFI Block cfiCond133 Using cfiCommon0
        CFI (cfiCond133) NoFunction
        CFI (cfiCond133) Conditional ??CrossCallReturnLabel_85
        CFI (cfiCond133) R6 load(1, XDATA, add(CFA_XSP16, literal(-10)))
        CFI (cfiCond133) VB load(1, XDATA, add(CFA_XSP16, literal(-9)))
        CFI (cfiCond133) V0 load(1, XDATA, add(CFA_XSP16, literal(-8)))
        CFI (cfiCond133) V1 load(1, XDATA, add(CFA_XSP16, literal(-7)))
        CFI (cfiCond133) R7 load(1, XDATA, add(CFA_XSP16, literal(-6)))
        CFI (cfiCond133) ?RET_LOW load(1, XDATA, add(CFA_XSP16, literal(-5)))
        CFI (cfiCond133) ?RET_HIGH load(1, XDATA, add(CFA_XSP16, literal(-4)))
        CFI (cfiCond133) ?BRET_EXT load(1, XDATA, add(CFA_XSP16, literal(-3)))
        CFI (cfiCond133) DPL0 load(1, XDATA, add(CFA_XSP16, literal(-2)))
        CFI (cfiCond133) DPH0 load(1, XDATA, add(CFA_XSP16, literal(-1)))
        CFI (cfiCond133) CFA_SP SP+0
        CFI (cfiCond133) CFA_XSP16 add(XSP16, 10)
        CFI Block cfiCond134 Using cfiCommon0
        CFI (cfiCond134) NoFunction
        CFI (cfiCond134) Conditional ??CrossCallReturnLabel_86
        CFI (cfiCond134) R6 load(1, XDATA, add(CFA_XSP16, literal(-12)))
        CFI (cfiCond134) VB load(1, XDATA, add(CFA_XSP16, literal(-11)))
        CFI (cfiCond134) V0 load(1, XDATA, add(CFA_XSP16, literal(-10)))
        CFI (cfiCond134) V1 load(1, XDATA, add(CFA_XSP16, literal(-9)))
        CFI (cfiCond134) V2 load(1, XDATA, add(CFA_XSP16, literal(-8)))
        CFI (cfiCond134) V3 load(1, XDATA, add(CFA_XSP16, literal(-7)))
        CFI (cfiCond134) R7 load(1, XDATA, add(CFA_XSP16, literal(-6)))
        CFI (cfiCond134) ?RET_LOW load(1, XDATA, add(CFA_XSP16, literal(-5)))
        CFI (cfiCond134) ?RET_HIGH load(1, XDATA, add(CFA_XSP16, literal(-4)))
        CFI (cfiCond134) ?BRET_EXT load(1, XDATA, add(CFA_XSP16, literal(-3)))
        CFI (cfiCond134) DPL0 load(1, XDATA, add(CFA_XSP16, literal(-2)))
        CFI (cfiCond134) DPH0 load(1, XDATA, add(CFA_XSP16, literal(-1)))
        CFI (cfiCond134) CFA_SP SP+0
        CFI (cfiCond134) CFA_XSP16 add(XSP16, 12)
        CFI Block cfiCond135 Using cfiCommon0
        CFI (cfiCond135) NoFunction
        CFI (cfiCond135) Conditional ??CrossCallReturnLabel_87
        CFI (cfiCond135) R6 load(1, XDATA, add(CFA_XSP16, literal(-24)))
        CFI (cfiCond135) VB load(1, XDATA, add(CFA_XSP16, literal(-23)))
        CFI (cfiCond135) V0 load(1, XDATA, add(CFA_XSP16, literal(-22)))
        CFI (cfiCond135) V1 load(1, XDATA, add(CFA_XSP16, literal(-21)))
        CFI (cfiCond135) V2 load(1, XDATA, add(CFA_XSP16, literal(-20)))
        CFI (cfiCond135) V3 load(1, XDATA, add(CFA_XSP16, literal(-19)))
        CFI (cfiCond135) V4 load(1, XDATA, add(CFA_XSP16, literal(-18)))
        CFI (cfiCond135) V5 load(1, XDATA, add(CFA_XSP16, literal(-17)))
        CFI (cfiCond135) V6 load(1, XDATA, add(CFA_XSP16, literal(-16)))
        CFI (cfiCond135) V7 load(1, XDATA, add(CFA_XSP16, literal(-15)))
        CFI (cfiCond135) V8 load(1, XDATA, add(CFA_XSP16, literal(-14)))
        CFI (cfiCond135) V9 load(1, XDATA, add(CFA_XSP16, literal(-13)))
        CFI (cfiCond135) V10 load(1, XDATA, add(CFA_XSP16, literal(-12)))
        CFI (cfiCond135) V11 load(1, XDATA, add(CFA_XSP16, literal(-11)))
        CFI (cfiCond135) V12 load(1, XDATA, add(CFA_XSP16, literal(-10)))
        CFI (cfiCond135) V13 load(1, XDATA, add(CFA_XSP16, literal(-9)))
        CFI (cfiCond135) V14 load(1, XDATA, add(CFA_XSP16, literal(-8)))
        CFI (cfiCond135) V15 load(1, XDATA, add(CFA_XSP16, literal(-7)))
        CFI (cfiCond135) R7 load(1, XDATA, add(CFA_XSP16, literal(-6)))
        CFI (cfiCond135) ?RET_LOW load(1, XDATA, add(CFA_XSP16, literal(-5)))
        CFI (cfiCond135) ?RET_HIGH load(1, XDATA, add(CFA_XSP16, literal(-4)))
        CFI (cfiCond135) ?BRET_EXT load(1, XDATA, add(CFA_XSP16, literal(-3)))
        CFI (cfiCond135) DPL0 load(1, XDATA, add(CFA_XSP16, literal(-2)))
        CFI (cfiCond135) DPH0 load(1, XDATA, add(CFA_XSP16, literal(-1)))
        CFI (cfiCond135) CFA_SP SP+0
        CFI (cfiCond135) CFA_XSP16 add(XSP16, 54)
        CFI Block cfiCond136 Using cfiCommon0
        CFI (cfiCond136) NoFunction
        CFI (cfiCond136) Conditional ??CrossCallReturnLabel_88
        CFI (cfiCond136) R6 load(1, XDATA, add(CFA_XSP16, literal(-24)))
        CFI (cfiCond136) VB load(1, XDATA, add(CFA_XSP16, literal(-23)))
        CFI (cfiCond136) V0 load(1, XDATA, add(CFA_XSP16, literal(-22)))
        CFI (cfiCond136) V1 load(1, XDATA, add(CFA_XSP16, literal(-21)))
        CFI (cfiCond136) V2 load(1, XDATA, add(CFA_XSP16, literal(-20)))
        CFI (cfiCond136) V3 load(1, XDATA, add(CFA_XSP16, literal(-19)))
        CFI (cfiCond136) V4 load(1, XDATA, add(CFA_XSP16, literal(-18)))
        CFI (cfiCond136) V5 load(1, XDATA, add(CFA_XSP16, literal(-17)))
        CFI (cfiCond136) V6 load(1, XDATA, add(CFA_XSP16, literal(-16)))
        CFI (cfiCond136) V7 load(1, XDATA, add(CFA_XSP16, literal(-15)))
        CFI (cfiCond136) V8 load(1, XDATA, add(CFA_XSP16, literal(-14)))
        CFI (cfiCond136) V9 load(1, XDATA, add(CFA_XSP16, literal(-13)))
        CFI (cfiCond136) V10 load(1, XDATA, add(CFA_XSP16, literal(-12)))
        CFI (cfiCond136) V11 load(1, XDATA, add(CFA_XSP16, literal(-11)))
        CFI (cfiCond136) V12 load(1, XDATA, add(CFA_XSP16, literal(-10)))
        CFI (cfiCond136) V13 load(1, XDATA, add(CFA_XSP16, literal(-9)))
        CFI (cfiCond136) V14 load(1, XDATA, add(CFA_XSP16, literal(-8)))
        CFI (cfiCond136) V15 load(1, XDATA, add(CFA_XSP16, literal(-7)))
        CFI (cfiCond136) R7 load(1, XDATA, add(CFA_XSP16, literal(-6)))
        CFI (cfiCond136) ?RET_LOW load(1, XDATA, add(CFA_XSP16, literal(-5)))
        CFI (cfiCond136) ?RET_HIGH load(1, XDATA, add(CFA_XSP16, literal(-4)))
        CFI (cfiCond136) ?BRET_EXT load(1, XDATA, add(CFA_XSP16, literal(-3)))
        CFI (cfiCond136) DPL0 load(1, XDATA, add(CFA_XSP16, literal(-2)))
        CFI (cfiCond136) DPH0 load(1, XDATA, add(CFA_XSP16, literal(-1)))
        CFI (cfiCond136) CFA_SP SP+0
        CFI (cfiCond136) CFA_XSP16 add(XSP16, 54)
        CFI Block cfiPicker137 Using cfiCommon1
        CFI (cfiPicker137) NoFunction
        CFI (cfiPicker137) Picker
        MOVX    A,@DPTR
        MOV     R2,A
        INC     DPTR
        MOVX    A,@DPTR
        MOV     R3,A
        RET
        CFI EndBlock cfiCond127
        CFI EndBlock cfiCond128
        CFI EndBlock cfiCond129
        CFI EndBlock cfiCond130
        CFI EndBlock cfiCond131
        CFI EndBlock cfiCond132
        CFI EndBlock cfiCond133
        CFI EndBlock cfiCond134
        CFI EndBlock cfiCond135
        CFI EndBlock cfiCond136
        CFI EndBlock cfiPicker137
//  736 
//  737 #endif
//  738 
//  739 /*********************************************************************
//  740  * @fn      afFindEndPointDescList
//  741  *
//  742  * @brief   Find the endpoint description entry from the endpoint
//  743  *          number.
//  744  *
//  745  * @param   EndPoint - Application Endpoint to look for
//  746  *
//  747  * @return  the address to the endpoint/interface description entry
//  748  */

        RSEG BANKED_CODE:CODE:NOROOT(0)
//  749 static epList_t *afFindEndPointDescList( uint8 EndPoint )
afFindEndPointDescList:
        CFI Block cfiBlock138 Using cfiCommon0
        CFI Function afFindEndPointDescList
        CODE
//  750 {
        PUSH    DPL
        CFI DPL0 Frame(CFA_SP, 4)
        CFI CFA_SP SP+-4
        PUSH    DPH
        CFI DPH0 Frame(CFA_SP, 5)
        CFI CFA_SP SP+-5
        ; Saved register size: 2
        ; Auto size: 0
//  751   epList_t *epSearch;
//  752 
//  753   for (epSearch = epList; epSearch != NULL; epSearch = epSearch->nextDesc)
        MOV     DPTR,#epList
        SJMP    ??afFindEndPointDescList_0
??afFindEndPointDescList_1:
        MOV     DPL,R2
        MOV     DPH,R3
??afFindEndPointDescList_0:
        LCALL   ??Subroutine39_0 & 0xFFFF
??CrossCallReturnLabel_84:
        MOV     A,R2
        ORL     A,R3
        JZ      ??afFindEndPointDescList_2
//  754   {
//  755     if (epSearch->epDesc->endPoint == EndPoint)
        MOV     DPL,R2
        MOV     DPH,R3
        LCALL   ?Subroutine19 & 0xFFFF
//  756     {
//  757       break;
//  758     }
//  759   }
??CrossCallReturnLabel_29:
        XRL     A,R1
        JNZ     ??afFindEndPointDescList_1
        CFI EndBlock cfiBlock138
//  760 
//  761   return epSearch;
??afFindEndPointDescList_2:
        REQUIRE ?Subroutine4
        ; // Fall through to label ?Subroutine4
//  762 }

        RSEG BANKED_CODE:CODE:NOROOT(0)
?Subroutine4:
        CFI Block cfiBlock139 Using cfiCommon0
        CFI NoFunction
        CFI CFA_SP SP+-5
        CFI DPL0 Frame(CFA_SP, 4)
        CFI DPH0 Frame(CFA_SP, 5)
        POP     DPH
        CFI CFA_SP SP+-4
        CFI DPH0 SameValue
        POP     DPL
        CFI CFA_SP SP+-3
        CFI DPL0 SameValue
        LJMP    ?BRET
        CFI EndBlock cfiBlock139
//  763 
//  764 /*********************************************************************
//  765  * @fn      afFindEndPointDesc
//  766  *
//  767  * @brief   Find the endpoint description entry from the endpoint
//  768  *          number.
//  769  *
//  770  * @param   EndPoint - Application Endpoint to look for
//  771  *
//  772  * @return  the address to the endpoint/interface description entry
//  773  */

        RSEG BANKED_CODE:CODE:NOROOT(0)
//  774 endPointDesc_t *afFindEndPointDesc( uint8 EndPoint )
afFindEndPointDesc:
        CFI Block cfiBlock140 Using cfiCommon0
        CFI Function afFindEndPointDesc
        CODE
//  775 {
        FUNCALL afFindEndPointDesc, afFindEndPointDescList
        LOCFRAME ISTACK, 0, STACK
        LOCFRAME PSTACK, 0, STACK
        LOCFRAME XSTACK, 10, STACK
        LOCFRAME IOVERLAY, 0, STATIC
        LOCFRAME DOVERLAY, 0, STATIC
        ARGFRAME ISTACK, 0, STACK
        ARGFRAME PSTACK, 0, STACK
        ARGFRAME XSTACK, 10, STACK
        ARGFRAME IOVERLAY, 0, STATIC
        ARGFRAME DOVERLAY, 0, STATIC
        MOV     A,#-0xa
        LCALL   ?BANKED_ENTER_XDATA
        CFI DPH0 load(1, XDATA, add(CFA_XSP16, literal(-1)))
        CFI DPL0 load(1, XDATA, add(CFA_XSP16, literal(-2)))
        CFI ?BRET_EXT load(1, XDATA, add(CFA_XSP16, literal(-3)))
        CFI ?RET_HIGH load(1, XDATA, add(CFA_XSP16, literal(-4)))
        CFI ?RET_LOW load(1, XDATA, add(CFA_XSP16, literal(-5)))
        CFI R7 load(1, XDATA, add(CFA_XSP16, literal(-6)))
        CFI V1 load(1, XDATA, add(CFA_XSP16, literal(-7)))
        CFI V0 load(1, XDATA, add(CFA_XSP16, literal(-8)))
        CFI VB load(1, XDATA, add(CFA_XSP16, literal(-9)))
        CFI R6 load(1, XDATA, add(CFA_XSP16, literal(-10)))
        CFI CFA_SP SP+0
        CFI CFA_XSP16 add(XSP16, 10)
        ; Saved register size: 10
        ; Auto size: 0
//  776   epList_t *epSearch;
//  777 
//  778   // Look for the endpoint
//  779   epSearch = afFindEndPointDescList( EndPoint );
        ; Setup parameters for call to function afFindEndPointDescList
        LCALL   ?Subroutine30 & 0xFFFF
//  780 
//  781   if ( epSearch )
??CrossCallReturnLabel_49:
        JZ      ??afFindEndPointDesc_0
//  782     return ( epSearch->epDesc );
        INC     DPTR
        INC     DPTR
        LCALL   ??Subroutine39_0 & 0xFFFF
??CrossCallReturnLabel_85:
        SJMP    ??afFindEndPointDesc_1
//  783   else
//  784     return ( (endPointDesc_t *)NULL );
??afFindEndPointDesc_0:
        MOV     R2,#0x0
        MOV     R3,#0x0
??afFindEndPointDesc_1:
        LJMP    ?Subroutine1 & 0xFFFF
        CFI EndBlock cfiBlock140
//  785 }
//  786 
//  787 /*********************************************************************
//  788  * @fn      afFindSimpleDesc
//  789  *
//  790  * @brief   Find the Simple Descriptor from the endpoint number.
//  791  *
//  792  * @param   EP - Application Endpoint to look for.
//  793  *
//  794  * @return  Non-zero to indicate that the descriptor memory must be freed.
//  795  */

        RSEG BANKED_CODE:CODE:NOROOT(0)
//  796 uint8 afFindSimpleDesc( SimpleDescriptionFormat_t **ppDesc, uint8 EP )
afFindSimpleDesc:
        CFI Block cfiBlock141 Using cfiCommon0
        CFI Function afFindSimpleDesc
        CODE
//  797 {
        FUNCALL afFindSimpleDesc, afFindEndPointDescList
        LOCFRAME ISTACK, 0, STACK
        LOCFRAME PSTACK, 0, STACK
        LOCFRAME XSTACK, 12, STACK
        LOCFRAME IOVERLAY, 0, STATIC
        LOCFRAME DOVERLAY, 0, STATIC
        ARGFRAME ISTACK, 0, STACK
        ARGFRAME PSTACK, 0, STACK
        ARGFRAME XSTACK, 12, STACK
        ARGFRAME IOVERLAY, 0, STATIC
        ARGFRAME DOVERLAY, 0, STATIC
        MOV     A,#-0xc
        LCALL   ?BANKED_ENTER_XDATA
        CFI DPH0 load(1, XDATA, add(CFA_XSP16, literal(-1)))
        CFI DPL0 load(1, XDATA, add(CFA_XSP16, literal(-2)))
        CFI ?BRET_EXT load(1, XDATA, add(CFA_XSP16, literal(-3)))
        CFI ?RET_HIGH load(1, XDATA, add(CFA_XSP16, literal(-4)))
        CFI ?RET_LOW load(1, XDATA, add(CFA_XSP16, literal(-5)))
        CFI R7 load(1, XDATA, add(CFA_XSP16, literal(-6)))
        CFI V3 load(1, XDATA, add(CFA_XSP16, literal(-7)))
        CFI V2 load(1, XDATA, add(CFA_XSP16, literal(-8)))
        CFI V1 load(1, XDATA, add(CFA_XSP16, literal(-9)))
        CFI V0 load(1, XDATA, add(CFA_XSP16, literal(-10)))
        CFI VB load(1, XDATA, add(CFA_XSP16, literal(-11)))
        CFI R6 load(1, XDATA, add(CFA_XSP16, literal(-12)))
        CFI CFA_SP SP+0
        CFI CFA_XSP16 add(XSP16, 12)
        ; Saved register size: 12
        ; Auto size: 0
        MOV     A,R2
        MOV     R6,A
        MOV     A,R3
        MOV     R7,A
        MOV     ?V0 + 0,R1
//  798   epList_t *epItem = afFindEndPointDescList( EP );
        ; Setup parameters for call to function afFindEndPointDescList
        LCALL   ??afFindEndPointDescList?relay
        MOV     ?V0 + 2,R2
        MOV     ?V0 + 3,R3
        MOV     R4,?V0 + 2
        MOV     R5,?V0 + 3
//  799   uint8 rtrn = FALSE;
        MOV     R1,#0x0
//  800 
//  801   if ( epItem )
        MOV     A,R4
        ORL     A,R5
        JZ      ??afFindSimpleDesc_0
//  802   {
//  803     if ( epItem->pfnDescCB )
        MOV     DPL,R4
        MOV     DPH,R5
        INC     DPTR
        INC     DPTR
        INC     DPTR
        INC     DPTR
        LCALL   ?Subroutine16 & 0xFFFF
??CrossCallReturnLabel_23:
        MOV     A,DPL
        ORL     A,DPH
        JZ      ??afFindSimpleDesc_1
//  804     {
//  805       *ppDesc = epItem->pfnDescCB( AF_DESCRIPTOR_SIMPLE, EP );
        ; Setup parameters for indirect call
        MOV     R2,?V0 + 0
        INC     R1
        LCALL   ?CALL_IND
        MOV     DPL,R6
        MOV     DPH,R7
        MOV     A,R2
        MOVX    @DPTR,A
        INC     DPTR
        MOV     A,R3
        MOVX    @DPTR,A
//  806       rtrn = TRUE;
        MOV     R1,#0x1
        SJMP    ??afFindSimpleDesc_2
//  807     }
//  808     else
//  809     {
//  810       *ppDesc = epItem->epDesc->simpleDesc;
??afFindSimpleDesc_1:
        MOV     DPL,R4
        MOV     DPH,R5
        LCALL   ?Subroutine33 & 0xFFFF
//  811     }
//  812   }
??CrossCallReturnLabel_91:
        INC     DPTR
        INC     DPTR
        INC     DPTR
        LCALL   ??Subroutine39_0 & 0xFFFF
??CrossCallReturnLabel_86:
        MOV     DPL,R6
        MOV     DPH,R7
        MOV     A,R2
        MOVX    @DPTR,A
        INC     DPTR
        MOV     A,R3
        SJMP    ??afFindSimpleDesc_3
//  813   else
//  814   {
//  815     *ppDesc = NULL;
??afFindSimpleDesc_0:
        MOV     DPL,R6
        MOV     DPH,R7
        CLR     A
        MOVX    @DPTR,A
        INC     DPTR
??afFindSimpleDesc_3:
        MOVX    @DPTR,A
//  816   }
//  817 
//  818   return rtrn;
??afFindSimpleDesc_2:
        LJMP    ?Subroutine0 & 0xFFFF
        CFI EndBlock cfiBlock141
//  819 }

        RSEG BANKED_CODE:CODE:NOROOT(0)
?Subroutine33:
        CFI Block cfiCond142 Using cfiCommon0
        CFI NoFunction
        CFI Conditional ??CrossCallReturnLabel_91
        CFI R6 load(1, XDATA, add(CFA_XSP16, literal(-12)))
        CFI VB load(1, XDATA, add(CFA_XSP16, literal(-11)))
        CFI V0 load(1, XDATA, add(CFA_XSP16, literal(-10)))
        CFI V1 load(1, XDATA, add(CFA_XSP16, literal(-9)))
        CFI V2 load(1, XDATA, add(CFA_XSP16, literal(-8)))
        CFI V3 load(1, XDATA, add(CFA_XSP16, literal(-7)))
        CFI R7 load(1, XDATA, add(CFA_XSP16, literal(-6)))
        CFI ?RET_LOW load(1, XDATA, add(CFA_XSP16, literal(-5)))
        CFI ?RET_HIGH load(1, XDATA, add(CFA_XSP16, literal(-4)))
        CFI ?BRET_EXT load(1, XDATA, add(CFA_XSP16, literal(-3)))
        CFI DPL0 load(1, XDATA, add(CFA_XSP16, literal(-2)))
        CFI DPH0 load(1, XDATA, add(CFA_XSP16, literal(-1)))
        CFI CFA_SP SP+0
        CFI CFA_XSP16 add(XSP16, 12)
        CFI Block cfiCond143 Using cfiCommon0
        CFI (cfiCond143) NoFunction
        CFI (cfiCond143) Conditional ??CrossCallReturnLabel_92, ??CrossCallReturnLabel_29
        CFI (cfiCond143) DPL0 Frame(CFA_SP, 4)
        CFI (cfiCond143) DPH0 Frame(CFA_SP, 5)
        CFI (cfiCond143) CFA_SP SP+-5
        CFI Block cfiCond144 Using cfiCommon0
        CFI (cfiCond144) NoFunction
        CFI (cfiCond144) Conditional ??CrossCallReturnLabel_92, ??CrossCallReturnLabel_30
        CFI (cfiCond144) DPL0 Frame(CFA_SP, 4)
        CFI (cfiCond144) DPH0 Frame(CFA_SP, 5)
        CFI (cfiCond144) CFA_SP SP+-5
        CFI Block cfiPicker145 Using cfiCommon1
        CFI (cfiPicker145) NoFunction
        CFI (cfiPicker145) Picker
        INC     DPTR
        CFI EndBlock cfiCond142
        CFI EndBlock cfiCond143
        CFI EndBlock cfiCond144
        CFI EndBlock cfiPicker145
        REQUIRE ??Subroutine40_0
        ; // Fall through to label ??Subroutine40_0

        RSEG BANKED_CODE:CODE:NOROOT(0)
??Subroutine40_0:
        CFI Block cfiCond146 Using cfiCommon0
        CFI NoFunction
        CFI Conditional ??CrossCallReturnLabel_90, ??CrossCallReturnLabel_6
        CFI R6 load(1, XDATA, add(CFA_XSP16, literal(-14)))
        CFI VB load(1, XDATA, add(CFA_XSP16, literal(-13)))
        CFI V0 load(1, XDATA, add(CFA_XSP16, literal(-12)))
        CFI V1 load(1, XDATA, add(CFA_XSP16, literal(-11)))
        CFI V2 load(1, XDATA, add(CFA_XSP16, literal(-10)))
        CFI V3 load(1, XDATA, add(CFA_XSP16, literal(-9)))
        CFI V4 load(1, XDATA, add(CFA_XSP16, literal(-8)))
        CFI V5 load(1, XDATA, add(CFA_XSP16, literal(-7)))
        CFI R7 load(1, XDATA, add(CFA_XSP16, literal(-6)))
        CFI ?RET_LOW load(1, XDATA, add(CFA_XSP16, literal(-5)))
        CFI ?RET_HIGH load(1, XDATA, add(CFA_XSP16, literal(-4)))
        CFI ?BRET_EXT load(1, XDATA, add(CFA_XSP16, literal(-3)))
        CFI DPL0 load(1, XDATA, add(CFA_XSP16, literal(-2)))
        CFI DPH0 load(1, XDATA, add(CFA_XSP16, literal(-1)))
        CFI CFA_SP SP+0
        CFI CFA_XSP16 add(XSP16, 14)
        CFI Block cfiCond147 Using cfiCommon0
        CFI (cfiCond147) NoFunction
        CFI (cfiCond147) Conditional ??CrossCallReturnLabel_90, ??CrossCallReturnLabel_7
        CFI (cfiCond147) R6 load(1, XDATA, add(CFA_XSP16, literal(-24)))
        CFI (cfiCond147) VB load(1, XDATA, add(CFA_XSP16, literal(-23)))
        CFI (cfiCond147) V0 load(1, XDATA, add(CFA_XSP16, literal(-22)))
        CFI (cfiCond147) V1 load(1, XDATA, add(CFA_XSP16, literal(-21)))
        CFI (cfiCond147) V2 load(1, XDATA, add(CFA_XSP16, literal(-20)))
        CFI (cfiCond147) V3 load(1, XDATA, add(CFA_XSP16, literal(-19)))
        CFI (cfiCond147) V4 load(1, XDATA, add(CFA_XSP16, literal(-18)))
        CFI (cfiCond147) V5 load(1, XDATA, add(CFA_XSP16, literal(-17)))
        CFI (cfiCond147) V6 load(1, XDATA, add(CFA_XSP16, literal(-16)))
        CFI (cfiCond147) V7 load(1, XDATA, add(CFA_XSP16, literal(-15)))
        CFI (cfiCond147) V8 load(1, XDATA, add(CFA_XSP16, literal(-14)))
        CFI (cfiCond147) V9 load(1, XDATA, add(CFA_XSP16, literal(-13)))
        CFI (cfiCond147) V10 load(1, XDATA, add(CFA_XSP16, literal(-12)))
        CFI (cfiCond147) V11 load(1, XDATA, add(CFA_XSP16, literal(-11)))
        CFI (cfiCond147) V12 load(1, XDATA, add(CFA_XSP16, literal(-10)))
        CFI (cfiCond147) V13 load(1, XDATA, add(CFA_XSP16, literal(-9)))
        CFI (cfiCond147) V14 load(1, XDATA, add(CFA_XSP16, literal(-8)))
        CFI (cfiCond147) V15 load(1, XDATA, add(CFA_XSP16, literal(-7)))
        CFI (cfiCond147) R7 load(1, XDATA, add(CFA_XSP16, literal(-6)))
        CFI (cfiCond147) ?RET_LOW load(1, XDATA, add(CFA_XSP16, literal(-5)))
        CFI (cfiCond147) ?RET_HIGH load(1, XDATA, add(CFA_XSP16, literal(-4)))
        CFI (cfiCond147) ?BRET_EXT load(1, XDATA, add(CFA_XSP16, literal(-3)))
        CFI (cfiCond147) DPL0 load(1, XDATA, add(CFA_XSP16, literal(-2)))
        CFI (cfiCond147) DPH0 load(1, XDATA, add(CFA_XSP16, literal(-1)))
        CFI (cfiCond147) CFA_SP SP+0
        CFI (cfiCond147) CFA_XSP16 add(XSP16, 25)
        CFI Block cfiCond148 Using cfiCommon0
        CFI (cfiCond148) NoFunction
        CFI (cfiCond148) Conditional ??CrossCallReturnLabel_91
        CFI (cfiCond148) R6 load(1, XDATA, add(CFA_XSP16, literal(-12)))
        CFI (cfiCond148) VB load(1, XDATA, add(CFA_XSP16, literal(-11)))
        CFI (cfiCond148) V0 load(1, XDATA, add(CFA_XSP16, literal(-10)))
        CFI (cfiCond148) V1 load(1, XDATA, add(CFA_XSP16, literal(-9)))
        CFI (cfiCond148) V2 load(1, XDATA, add(CFA_XSP16, literal(-8)))
        CFI (cfiCond148) V3 load(1, XDATA, add(CFA_XSP16, literal(-7)))
        CFI (cfiCond148) R7 load(1, XDATA, add(CFA_XSP16, literal(-6)))
        CFI (cfiCond148) ?RET_LOW load(1, XDATA, add(CFA_XSP16, literal(-5)))
        CFI (cfiCond148) ?RET_HIGH load(1, XDATA, add(CFA_XSP16, literal(-4)))
        CFI (cfiCond148) ?BRET_EXT load(1, XDATA, add(CFA_XSP16, literal(-3)))
        CFI (cfiCond148) DPL0 load(1, XDATA, add(CFA_XSP16, literal(-2)))
        CFI (cfiCond148) DPH0 load(1, XDATA, add(CFA_XSP16, literal(-1)))
        CFI (cfiCond148) CFA_SP SP+0
        CFI (cfiCond148) CFA_XSP16 add(XSP16, 12)
        CFI Block cfiCond149 Using cfiCommon0
        CFI (cfiCond149) NoFunction
        CFI (cfiCond149) Conditional ??CrossCallReturnLabel_92, ??CrossCallReturnLabel_29
        CFI (cfiCond149) DPL0 Frame(CFA_SP, 4)
        CFI (cfiCond149) DPH0 Frame(CFA_SP, 5)
        CFI (cfiCond149) CFA_SP SP+-5
        CFI Block cfiCond150 Using cfiCommon0
        CFI (cfiCond150) NoFunction
        CFI (cfiCond150) Conditional ??CrossCallReturnLabel_92, ??CrossCallReturnLabel_30
        CFI (cfiCond150) DPL0 Frame(CFA_SP, 4)
        CFI (cfiCond150) DPH0 Frame(CFA_SP, 5)
        CFI (cfiCond150) CFA_SP SP+-5
        CFI Block cfiPicker151 Using cfiCommon1
        CFI (cfiPicker151) NoFunction
        CFI (cfiPicker151) Picker
        INC     DPTR
        MOVX    A,@DPTR
        MOV     R0,A
        INC     DPTR
        CFI EndBlock cfiCond146
        CFI EndBlock cfiCond147
        CFI EndBlock cfiCond148
        CFI EndBlock cfiCond149
        CFI EndBlock cfiCond150
        CFI EndBlock cfiPicker151
        REQUIRE ??Subroutine41_0
        ; // Fall through to label ??Subroutine41_0

        RSEG BANKED_CODE:CODE:NOROOT(0)
??Subroutine41_0:
        CFI Block cfiCond152 Using cfiCommon0
        CFI NoFunction
        CFI Conditional ??CrossCallReturnLabel_89
        CFI R6 load(1, XDATA, add(CFA_XSP16, literal(-24)))
        CFI VB load(1, XDATA, add(CFA_XSP16, literal(-23)))
        CFI V0 load(1, XDATA, add(CFA_XSP16, literal(-22)))
        CFI V1 load(1, XDATA, add(CFA_XSP16, literal(-21)))
        CFI V2 load(1, XDATA, add(CFA_XSP16, literal(-20)))
        CFI V3 load(1, XDATA, add(CFA_XSP16, literal(-19)))
        CFI V4 load(1, XDATA, add(CFA_XSP16, literal(-18)))
        CFI V5 load(1, XDATA, add(CFA_XSP16, literal(-17)))
        CFI V6 load(1, XDATA, add(CFA_XSP16, literal(-16)))
        CFI V7 load(1, XDATA, add(CFA_XSP16, literal(-15)))
        CFI V8 load(1, XDATA, add(CFA_XSP16, literal(-14)))
        CFI V9 load(1, XDATA, add(CFA_XSP16, literal(-13)))
        CFI V10 load(1, XDATA, add(CFA_XSP16, literal(-12)))
        CFI V11 load(1, XDATA, add(CFA_XSP16, literal(-11)))
        CFI V12 load(1, XDATA, add(CFA_XSP16, literal(-10)))
        CFI V13 load(1, XDATA, add(CFA_XSP16, literal(-9)))
        CFI V14 load(1, XDATA, add(CFA_XSP16, literal(-8)))
        CFI V15 load(1, XDATA, add(CFA_XSP16, literal(-7)))
        CFI R7 load(1, XDATA, add(CFA_XSP16, literal(-6)))
        CFI ?RET_LOW load(1, XDATA, add(CFA_XSP16, literal(-5)))
        CFI ?RET_HIGH load(1, XDATA, add(CFA_XSP16, literal(-4)))
        CFI ?BRET_EXT load(1, XDATA, add(CFA_XSP16, literal(-3)))
        CFI DPL0 load(1, XDATA, add(CFA_XSP16, literal(-2)))
        CFI DPH0 load(1, XDATA, add(CFA_XSP16, literal(-1)))
        CFI CFA_SP SP+0
        CFI CFA_XSP16 add(XSP16, 54)
        CFI Block cfiCond153 Using cfiCommon0
        CFI (cfiCond153) NoFunction
        CFI (cfiCond153) Conditional ??CrossCallReturnLabel_90, ??CrossCallReturnLabel_6
        CFI (cfiCond153) R6 load(1, XDATA, add(CFA_XSP16, literal(-14)))
        CFI (cfiCond153) VB load(1, XDATA, add(CFA_XSP16, literal(-13)))
        CFI (cfiCond153) V0 load(1, XDATA, add(CFA_XSP16, literal(-12)))
        CFI (cfiCond153) V1 load(1, XDATA, add(CFA_XSP16, literal(-11)))
        CFI (cfiCond153) V2 load(1, XDATA, add(CFA_XSP16, literal(-10)))
        CFI (cfiCond153) V3 load(1, XDATA, add(CFA_XSP16, literal(-9)))
        CFI (cfiCond153) V4 load(1, XDATA, add(CFA_XSP16, literal(-8)))
        CFI (cfiCond153) V5 load(1, XDATA, add(CFA_XSP16, literal(-7)))
        CFI (cfiCond153) R7 load(1, XDATA, add(CFA_XSP16, literal(-6)))
        CFI (cfiCond153) ?RET_LOW load(1, XDATA, add(CFA_XSP16, literal(-5)))
        CFI (cfiCond153) ?RET_HIGH load(1, XDATA, add(CFA_XSP16, literal(-4)))
        CFI (cfiCond153) ?BRET_EXT load(1, XDATA, add(CFA_XSP16, literal(-3)))
        CFI (cfiCond153) DPL0 load(1, XDATA, add(CFA_XSP16, literal(-2)))
        CFI (cfiCond153) DPH0 load(1, XDATA, add(CFA_XSP16, literal(-1)))
        CFI (cfiCond153) CFA_SP SP+0
        CFI (cfiCond153) CFA_XSP16 add(XSP16, 14)
        CFI Block cfiCond154 Using cfiCommon0
        CFI (cfiCond154) NoFunction
        CFI (cfiCond154) Conditional ??CrossCallReturnLabel_90, ??CrossCallReturnLabel_7
        CFI (cfiCond154) R6 load(1, XDATA, add(CFA_XSP16, literal(-24)))
        CFI (cfiCond154) VB load(1, XDATA, add(CFA_XSP16, literal(-23)))
        CFI (cfiCond154) V0 load(1, XDATA, add(CFA_XSP16, literal(-22)))
        CFI (cfiCond154) V1 load(1, XDATA, add(CFA_XSP16, literal(-21)))
        CFI (cfiCond154) V2 load(1, XDATA, add(CFA_XSP16, literal(-20)))
        CFI (cfiCond154) V3 load(1, XDATA, add(CFA_XSP16, literal(-19)))
        CFI (cfiCond154) V4 load(1, XDATA, add(CFA_XSP16, literal(-18)))
        CFI (cfiCond154) V5 load(1, XDATA, add(CFA_XSP16, literal(-17)))
        CFI (cfiCond154) V6 load(1, XDATA, add(CFA_XSP16, literal(-16)))
        CFI (cfiCond154) V7 load(1, XDATA, add(CFA_XSP16, literal(-15)))
        CFI (cfiCond154) V8 load(1, XDATA, add(CFA_XSP16, literal(-14)))
        CFI (cfiCond154) V9 load(1, XDATA, add(CFA_XSP16, literal(-13)))
        CFI (cfiCond154) V10 load(1, XDATA, add(CFA_XSP16, literal(-12)))
        CFI (cfiCond154) V11 load(1, XDATA, add(CFA_XSP16, literal(-11)))
        CFI (cfiCond154) V12 load(1, XDATA, add(CFA_XSP16, literal(-10)))
        CFI (cfiCond154) V13 load(1, XDATA, add(CFA_XSP16, literal(-9)))
        CFI (cfiCond154) V14 load(1, XDATA, add(CFA_XSP16, literal(-8)))
        CFI (cfiCond154) V15 load(1, XDATA, add(CFA_XSP16, literal(-7)))
        CFI (cfiCond154) R7 load(1, XDATA, add(CFA_XSP16, literal(-6)))
        CFI (cfiCond154) ?RET_LOW load(1, XDATA, add(CFA_XSP16, literal(-5)))
        CFI (cfiCond154) ?RET_HIGH load(1, XDATA, add(CFA_XSP16, literal(-4)))
        CFI (cfiCond154) ?BRET_EXT load(1, XDATA, add(CFA_XSP16, literal(-3)))
        CFI (cfiCond154) DPL0 load(1, XDATA, add(CFA_XSP16, literal(-2)))
        CFI (cfiCond154) DPH0 load(1, XDATA, add(CFA_XSP16, literal(-1)))
        CFI (cfiCond154) CFA_SP SP+0
        CFI (cfiCond154) CFA_XSP16 add(XSP16, 25)
        CFI Block cfiCond155 Using cfiCommon0
        CFI (cfiCond155) NoFunction
        CFI (cfiCond155) Conditional ??CrossCallReturnLabel_91
        CFI (cfiCond155) R6 load(1, XDATA, add(CFA_XSP16, literal(-12)))
        CFI (cfiCond155) VB load(1, XDATA, add(CFA_XSP16, literal(-11)))
        CFI (cfiCond155) V0 load(1, XDATA, add(CFA_XSP16, literal(-10)))
        CFI (cfiCond155) V1 load(1, XDATA, add(CFA_XSP16, literal(-9)))
        CFI (cfiCond155) V2 load(1, XDATA, add(CFA_XSP16, literal(-8)))
        CFI (cfiCond155) V3 load(1, XDATA, add(CFA_XSP16, literal(-7)))
        CFI (cfiCond155) R7 load(1, XDATA, add(CFA_XSP16, literal(-6)))
        CFI (cfiCond155) ?RET_LOW load(1, XDATA, add(CFA_XSP16, literal(-5)))
        CFI (cfiCond155) ?RET_HIGH load(1, XDATA, add(CFA_XSP16, literal(-4)))
        CFI (cfiCond155) ?BRET_EXT load(1, XDATA, add(CFA_XSP16, literal(-3)))
        CFI (cfiCond155) DPL0 load(1, XDATA, add(CFA_XSP16, literal(-2)))
        CFI (cfiCond155) DPH0 load(1, XDATA, add(CFA_XSP16, literal(-1)))
        CFI (cfiCond155) CFA_SP SP+0
        CFI (cfiCond155) CFA_XSP16 add(XSP16, 12)
        CFI Block cfiCond156 Using cfiCommon0
        CFI (cfiCond156) NoFunction
        CFI (cfiCond156) Conditional ??CrossCallReturnLabel_92, ??CrossCallReturnLabel_29
        CFI (cfiCond156) DPL0 Frame(CFA_SP, 4)
        CFI (cfiCond156) DPH0 Frame(CFA_SP, 5)
        CFI (cfiCond156) CFA_SP SP+-5
        CFI Block cfiCond157 Using cfiCommon0
        CFI (cfiCond157) NoFunction
        CFI (cfiCond157) Conditional ??CrossCallReturnLabel_92, ??CrossCallReturnLabel_30
        CFI (cfiCond157) DPL0 Frame(CFA_SP, 4)
        CFI (cfiCond157) DPH0 Frame(CFA_SP, 5)
        CFI (cfiCond157) CFA_SP SP+-5
        CFI Block cfiPicker158 Using cfiCommon1
        CFI (cfiPicker158) NoFunction
        CFI (cfiPicker158) Picker
        MOVX    A,@DPTR
        MOV     DPH,A
        MOV     DPL,R0
        RET
        CFI EndBlock cfiCond152
        CFI EndBlock cfiCond153
        CFI EndBlock cfiCond154
        CFI EndBlock cfiCond155
        CFI EndBlock cfiCond156
        CFI EndBlock cfiCond157
        CFI EndBlock cfiPicker158
//  820 
//  821 /*********************************************************************
//  822  * @fn      afGetDescCB
//  823  *
//  824  * @brief   Get the Descriptor callback function.
//  825  *
//  826  * @param   epDesc - pointer to the endpoint descriptor
//  827  *
//  828  * @return  function pointer or NULL
//  829  */
//  830 static pDescCB afGetDescCB( endPointDesc_t *epDesc )
//  831 {
//  832   epList_t *epSearch;
//  833 
//  834   // Start at the beginning
//  835   epSearch = epList;
//  836 
//  837   // Look through the list until the end
//  838   while ( epSearch )
//  839   {
//  840     // Is there a match?
//  841     if ( epSearch->epDesc == epDesc )
//  842     {
//  843       return ( epSearch->pfnDescCB );
//  844     }
//  845     else
//  846       epSearch = epSearch->nextDesc;  // Next entry
//  847   }
//  848 
//  849   return ( (pDescCB)NULL );
//  850 }
//  851 
//  852 /*********************************************************************
//  853  * @fn      afDataReqMTU
//  854  *
//  855  * @brief   Get the Data Request MTU(Max Transport Unit).
//  856  *
//  857  * @param   fields - afDataReqMTU_t
//  858  *
//  859  * @return  uint8(MTU)
//  860  */

        RSEG BANKED_CODE:CODE:NOROOT(0)
//  861 uint8 afDataReqMTU( afDataReqMTU_t* fields )
afDataReqMTU:
        CFI Block cfiBlock159 Using cfiCommon0
        CFI Function afDataReqMTU
        CODE
//  862 {
        FUNCALL afDataReqMTU, APSDE_DataReqMTU
        LOCFRAME ISTACK, 0, STACK
        LOCFRAME PSTACK, 0, STACK
        LOCFRAME XSTACK, 9, STACK
        LOCFRAME IOVERLAY, 0, STATIC
        LOCFRAME DOVERLAY, 0, STATIC
        ARGFRAME ISTACK, 0, STACK
        ARGFRAME PSTACK, 0, STACK
        ARGFRAME XSTACK, 9, STACK
        ARGFRAME IOVERLAY, 0, STATIC
        ARGFRAME DOVERLAY, 0, STATIC
        MOV     A,#-0x9
        LCALL   ?BANKED_ENTER_XDATA
        CFI DPH0 load(1, XDATA, add(CFA_XSP16, literal(-1)))
        CFI DPL0 load(1, XDATA, add(CFA_XSP16, literal(-2)))
        CFI ?BRET_EXT load(1, XDATA, add(CFA_XSP16, literal(-3)))
        CFI ?RET_HIGH load(1, XDATA, add(CFA_XSP16, literal(-4)))
        CFI ?RET_LOW load(1, XDATA, add(CFA_XSP16, literal(-5)))
        CFI R7 load(1, XDATA, add(CFA_XSP16, literal(-6)))
        CFI V0 load(1, XDATA, add(CFA_XSP16, literal(-7)))
        CFI VB load(1, XDATA, add(CFA_XSP16, literal(-8)))
        CFI R6 load(1, XDATA, add(CFA_XSP16, literal(-9)))
        CFI CFA_SP SP+0
        CFI CFA_XSP16 add(XSP16, 9)
        ; Saved register size: 9
        ; Auto size: 0
//  863   uint8 len;
//  864   uint8 hdr;
//  865 
//  866   if ( fields->kvp == TRUE )
        MOV     DPL,R2
        MOV     DPH,R3
        MOVX    A,@DPTR
        XRL     A,#0x1
        JNZ     ??afDataReqMTU_0
//  867   {
//  868     hdr = AF_HDR_KVP_MAX_LEN;
        MOV     R6,#0x8
        SJMP    ??afDataReqMTU_1
//  869   }
//  870   else
//  871   {
//  872     hdr = AF_HDR_V1_1_MAX_LEN;
??afDataReqMTU_0:
        MOV     R6,#0x0
//  873   }
//  874 
//  875   len = (uint8)(APSDE_DataReqMTU(&fields->aps) - hdr);
//  876 
//  877   return len;
??afDataReqMTU_1:
        ; Setup parameters for call to function APSDE_DataReqMTU
        INC     DPTR
        MOV     R2,DPL
        MOV     R3,DPH
        LCALL   ??APSDE_DataReqMTU?relay
        MOV     A,R1
        CLR     C
        SUBB    A,R6
        MOV     R1,A
        LJMP    ?Subroutine2 & 0xFFFF
        CFI EndBlock cfiBlock159
//  878 }
//  879 
//  880 /*********************************************************************
//  881  * @fn      afGetMatch
//  882  *
//  883  * @brief   Set the allow response flag.
//  884  *
//  885  * @param   ep - Application Endpoint to look for
//  886  * @param   action - true - allow response, false - no response
//  887  *
//  888  * @return  TRUE allow responses, FALSE no response
//  889  */

        RSEG BANKED_CODE:CODE:NOROOT(0)
//  890 uint8 afGetMatch( uint8 ep )
afGetMatch:
        CFI Block cfiBlock160 Using cfiCommon0
        CFI Function afGetMatch
        CODE
//  891 {
        FUNCALL afGetMatch, afFindEndPointDescList
        LOCFRAME ISTACK, 0, STACK
        LOCFRAME PSTACK, 0, STACK
        LOCFRAME XSTACK, 10, STACK
        LOCFRAME IOVERLAY, 0, STATIC
        LOCFRAME DOVERLAY, 0, STATIC
        ARGFRAME ISTACK, 0, STACK
        ARGFRAME PSTACK, 0, STACK
        ARGFRAME XSTACK, 10, STACK
        ARGFRAME IOVERLAY, 0, STATIC
        ARGFRAME DOVERLAY, 0, STATIC
        MOV     A,#-0xa
        LCALL   ?BANKED_ENTER_XDATA
        CFI DPH0 load(1, XDATA, add(CFA_XSP16, literal(-1)))
        CFI DPL0 load(1, XDATA, add(CFA_XSP16, literal(-2)))
        CFI ?BRET_EXT load(1, XDATA, add(CFA_XSP16, literal(-3)))
        CFI ?RET_HIGH load(1, XDATA, add(CFA_XSP16, literal(-4)))
        CFI ?RET_LOW load(1, XDATA, add(CFA_XSP16, literal(-5)))
        CFI R7 load(1, XDATA, add(CFA_XSP16, literal(-6)))
        CFI V1 load(1, XDATA, add(CFA_XSP16, literal(-7)))
        CFI V0 load(1, XDATA, add(CFA_XSP16, literal(-8)))
        CFI VB load(1, XDATA, add(CFA_XSP16, literal(-9)))
        CFI R6 load(1, XDATA, add(CFA_XSP16, literal(-10)))
        CFI CFA_SP SP+0
        CFI CFA_XSP16 add(XSP16, 10)
        ; Saved register size: 10
        ; Auto size: 0
//  892   epList_t *epSearch;
//  893 
//  894   // Look for the endpoint
//  895   epSearch = afFindEndPointDescList( ep );
        ; Setup parameters for call to function afFindEndPointDescList
        LCALL   ?Subroutine30 & 0xFFFF
//  896 
//  897   if ( epSearch )
??CrossCallReturnLabel_50:
        JZ      ??afGetMatch_0
//  898   {
//  899     if ( epSearch->flags & eEP_AllowMatch )
        INC     DPTR
        INC     DPTR
        INC     DPTR
        INC     DPTR
        INC     DPTR
        INC     DPTR
        INC     DPTR
        INC     DPTR
        MOVX    A,@DPTR
        MOV     C,0xE0 /* A   */.0
        JNC     ??afGetMatch_0
//  900       return ( TRUE );
        MOV     R1,#0x1
        SJMP    ??afGetMatch_1
//  901     else
//  902       return ( FALSE );
??afGetMatch_0:
        MOV     R1,#0x0
        CFI EndBlock cfiBlock160
//  903   }
??afGetMatch_1:
        REQUIRE ?Subroutine1
        ; // Fall through to label ?Subroutine1
//  904   else
//  905     return ( FALSE );
//  906 }

        RSEG BANKED_CODE:CODE:NOROOT(0)
?Subroutine1:
        CFI Block cfiBlock161 Using cfiCommon0
        CFI NoFunction
        CFI CFA_SP SP+0
        CFI CFA_XSP16 add(XSP16, 10)
        CFI VB load(1, XDATA, add(CFA_XSP16, literal(-9)))
        CFI DPL0 load(1, XDATA, add(CFA_XSP16, literal(-2)))
        CFI DPH0 load(1, XDATA, add(CFA_XSP16, literal(-1)))
        CFI R6 load(1, XDATA, add(CFA_XSP16, literal(-10)))
        CFI R7 load(1, XDATA, add(CFA_XSP16, literal(-6)))
        CFI V0 load(1, XDATA, add(CFA_XSP16, literal(-8)))
        CFI V1 load(1, XDATA, add(CFA_XSP16, literal(-7)))
        CFI ?BRET_EXT load(1, XDATA, add(CFA_XSP16, literal(-3)))
        CFI ?RET_HIGH load(1, XDATA, add(CFA_XSP16, literal(-4)))
        CFI ?RET_LOW load(1, XDATA, add(CFA_XSP16, literal(-5)))
        MOV     R7,#0x2
        LJMP    ?BANKED_LEAVE_XDATA
        CFI EndBlock cfiBlock161

        RSEG BANKED_CODE:CODE:NOROOT(0)
?Subroutine30:
        CFI Block cfiCond162 Using cfiCommon0
        CFI NoFunction
        CFI Conditional ??CrossCallReturnLabel_49
        CFI R6 load(1, XDATA, add(CFA_XSP16, literal(-10)))
        CFI VB load(1, XDATA, add(CFA_XSP16, literal(-9)))
        CFI V0 load(1, XDATA, add(CFA_XSP16, literal(-8)))
        CFI V1 load(1, XDATA, add(CFA_XSP16, literal(-7)))
        CFI R7 load(1, XDATA, add(CFA_XSP16, literal(-6)))
        CFI ?RET_LOW load(1, XDATA, add(CFA_XSP16, literal(-5)))
        CFI ?RET_HIGH load(1, XDATA, add(CFA_XSP16, literal(-4)))
        CFI ?BRET_EXT load(1, XDATA, add(CFA_XSP16, literal(-3)))
        CFI DPL0 load(1, XDATA, add(CFA_XSP16, literal(-2)))
        CFI DPH0 load(1, XDATA, add(CFA_XSP16, literal(-1)))
        CFI CFA_SP SP+0
        CFI CFA_XSP16 add(XSP16, 10)
        CFI Block cfiCond163 Using cfiCommon0
        CFI (cfiCond163) NoFunction
        CFI (cfiCond163) Conditional ??CrossCallReturnLabel_50
        CFI (cfiCond163) R6 load(1, XDATA, add(CFA_XSP16, literal(-10)))
        CFI (cfiCond163) VB load(1, XDATA, add(CFA_XSP16, literal(-9)))
        CFI (cfiCond163) V0 load(1, XDATA, add(CFA_XSP16, literal(-8)))
        CFI (cfiCond163) V1 load(1, XDATA, add(CFA_XSP16, literal(-7)))
        CFI (cfiCond163) R7 load(1, XDATA, add(CFA_XSP16, literal(-6)))
        CFI (cfiCond163) ?RET_LOW load(1, XDATA, add(CFA_XSP16, literal(-5)))
        CFI (cfiCond163) ?RET_HIGH load(1, XDATA, add(CFA_XSP16, literal(-4)))
        CFI (cfiCond163) ?BRET_EXT load(1, XDATA, add(CFA_XSP16, literal(-3)))
        CFI (cfiCond163) DPL0 load(1, XDATA, add(CFA_XSP16, literal(-2)))
        CFI (cfiCond163) DPH0 load(1, XDATA, add(CFA_XSP16, literal(-1)))
        CFI (cfiCond163) CFA_SP SP+0
        CFI (cfiCond163) CFA_XSP16 add(XSP16, 10)
        CFI Block cfiPicker164 Using cfiCommon1
        CFI (cfiPicker164) NoFunction
        CFI (cfiPicker164) Picker
        LCALL   ??afFindEndPointDescList?relay
        MOV     DPL,R2
        MOV     DPH,R3
        MOV     A,DPL
        ORL     A,DPH
        RET
        CFI EndBlock cfiCond162
        CFI EndBlock cfiCond163
        CFI EndBlock cfiPicker164
//  907 
//  908 /*********************************************************************
//  909  * @fn      afSetMatch
//  910  *
//  911  * @brief   Set the allow response flag.
//  912  *
//  913  * @param   ep - Application Endpoint to look for
//  914  * @param   action - true - allow response, false - no response
//  915  *
//  916  * @return  TRUE if success, FALSE if endpoint not found
//  917  */

        RSEG BANKED_CODE:CODE:NOROOT(0)
//  918 uint8 afSetMatch( uint8 ep, uint8 action )
afSetMatch:
        CFI Block cfiBlock165 Using cfiCommon0
        CFI Function afSetMatch
        CODE
//  919 {
        FUNCALL afSetMatch, afFindEndPointDescList
        LOCFRAME ISTACK, 0, STACK
        LOCFRAME PSTACK, 0, STACK
        LOCFRAME XSTACK, 10, STACK
        LOCFRAME IOVERLAY, 0, STATIC
        LOCFRAME DOVERLAY, 0, STATIC
        ARGFRAME ISTACK, 0, STACK
        ARGFRAME PSTACK, 0, STACK
        ARGFRAME XSTACK, 10, STACK
        ARGFRAME IOVERLAY, 0, STATIC
        ARGFRAME DOVERLAY, 0, STATIC
        MOV     A,#-0xa
        LCALL   ?BANKED_ENTER_XDATA
        CFI DPH0 load(1, XDATA, add(CFA_XSP16, literal(-1)))
        CFI DPL0 load(1, XDATA, add(CFA_XSP16, literal(-2)))
        CFI ?BRET_EXT load(1, XDATA, add(CFA_XSP16, literal(-3)))
        CFI ?RET_HIGH load(1, XDATA, add(CFA_XSP16, literal(-4)))
        CFI ?RET_LOW load(1, XDATA, add(CFA_XSP16, literal(-5)))
        CFI R7 load(1, XDATA, add(CFA_XSP16, literal(-6)))
        CFI V1 load(1, XDATA, add(CFA_XSP16, literal(-7)))
        CFI V0 load(1, XDATA, add(CFA_XSP16, literal(-8)))
        CFI VB load(1, XDATA, add(CFA_XSP16, literal(-9)))
        CFI R6 load(1, XDATA, add(CFA_XSP16, literal(-10)))
        CFI CFA_SP SP+0
        CFI CFA_XSP16 add(XSP16, 10)
        ; Saved register size: 10
        ; Auto size: 0
        MOV     A,R2
        LCALL   ?Subroutine28 & 0xFFFF
//  920   epList_t *epSearch;
//  921 
//  922   // Look for the endpoint
//  923   epSearch = afFindEndPointDescList( ep );
//  924 
//  925   if ( epSearch )
??CrossCallReturnLabel_45:
        JZ      ??afSetMatch_0
//  926   {
//  927     if ( action )
        MOV     A,R0
        ADD     A,#0x8
        MOV     DPL,A
        MOV     A,R1
        LCALL   ??Subroutine42_0 & 0xFFFF
??CrossCallReturnLabel_95:
        MOV     A,R7
        JZ      ??afSetMatch_1
//  928     {
//  929       epSearch->flags |= eEP_AllowMatch;
        MOVX    A,@DPTR
        SETB    0xE0 /* A   */.0
        SJMP    ??afSetMatch_2
//  930     }
//  931     else
//  932     {
//  933       epSearch->flags &= (eEP_AllowMatch ^ 0xFFFF);
??afSetMatch_1:
        MOVX    A,@DPTR
        CLR     0xE0 /* A   */.0
??afSetMatch_2:
        MOVX    @DPTR,A
//  934     }
//  935     return ( TRUE );
        MOV     R1,#0x1
        SJMP    ??afSetMatch_3
//  936   }
//  937   else
//  938     return ( FALSE );
??afSetMatch_0:
        MOV     R1,#0x0
??afSetMatch_3:
        SJMP    ?Subroutine1
        CFI EndBlock cfiBlock165
//  939 }

        RSEG BANKED_CODE:CODE:NOROOT(0)
?Subroutine27:
        CFI Block cfiCond166 Using cfiCommon0
        CFI NoFunction
        CFI Conditional ??CrossCallReturnLabel_96
        CFI R6 load(1, XDATA, add(CFA_XSP16, literal(-24)))
        CFI VB load(1, XDATA, add(CFA_XSP16, literal(-23)))
        CFI V0 load(1, XDATA, add(CFA_XSP16, literal(-22)))
        CFI V1 load(1, XDATA, add(CFA_XSP16, literal(-21)))
        CFI V2 load(1, XDATA, add(CFA_XSP16, literal(-20)))
        CFI V3 load(1, XDATA, add(CFA_XSP16, literal(-19)))
        CFI V4 load(1, XDATA, add(CFA_XSP16, literal(-18)))
        CFI V5 load(1, XDATA, add(CFA_XSP16, literal(-17)))
        CFI V6 load(1, XDATA, add(CFA_XSP16, literal(-16)))
        CFI V7 load(1, XDATA, add(CFA_XSP16, literal(-15)))
        CFI V8 load(1, XDATA, add(CFA_XSP16, literal(-14)))
        CFI V9 load(1, XDATA, add(CFA_XSP16, literal(-13)))
        CFI V10 load(1, XDATA, add(CFA_XSP16, literal(-12)))
        CFI V11 load(1, XDATA, add(CFA_XSP16, literal(-11)))
        CFI V12 load(1, XDATA, add(CFA_XSP16, literal(-10)))
        CFI V13 load(1, XDATA, add(CFA_XSP16, literal(-9)))
        CFI V14 load(1, XDATA, add(CFA_XSP16, literal(-8)))
        CFI V15 load(1, XDATA, add(CFA_XSP16, literal(-7)))
        CFI R7 load(1, XDATA, add(CFA_XSP16, literal(-6)))
        CFI ?RET_LOW load(1, XDATA, add(CFA_XSP16, literal(-5)))
        CFI ?RET_HIGH load(1, XDATA, add(CFA_XSP16, literal(-4)))
        CFI ?BRET_EXT load(1, XDATA, add(CFA_XSP16, literal(-3)))
        CFI DPL0 load(1, XDATA, add(CFA_XSP16, literal(-2)))
        CFI DPH0 load(1, XDATA, add(CFA_XSP16, literal(-1)))
        CFI CFA_SP SP+-1
        CFI CFA_XSP16 add(XSP16, 25)
        CFI Block cfiCond167 Using cfiCommon0
        CFI (cfiCond167) NoFunction
        CFI (cfiCond167) Conditional ??CrossCallReturnLabel_97
        CFI (cfiCond167) R6 load(1, XDATA, add(CFA_XSP16, literal(-24)))
        CFI (cfiCond167) VB load(1, XDATA, add(CFA_XSP16, literal(-23)))
        CFI (cfiCond167) V0 load(1, XDATA, add(CFA_XSP16, literal(-22)))
        CFI (cfiCond167) V1 load(1, XDATA, add(CFA_XSP16, literal(-21)))
        CFI (cfiCond167) V2 load(1, XDATA, add(CFA_XSP16, literal(-20)))
        CFI (cfiCond167) V3 load(1, XDATA, add(CFA_XSP16, literal(-19)))
        CFI (cfiCond167) V4 load(1, XDATA, add(CFA_XSP16, literal(-18)))
        CFI (cfiCond167) V5 load(1, XDATA, add(CFA_XSP16, literal(-17)))
        CFI (cfiCond167) V6 load(1, XDATA, add(CFA_XSP16, literal(-16)))
        CFI (cfiCond167) V7 load(1, XDATA, add(CFA_XSP16, literal(-15)))
        CFI (cfiCond167) V8 load(1, XDATA, add(CFA_XSP16, literal(-14)))
        CFI (cfiCond167) V9 load(1, XDATA, add(CFA_XSP16, literal(-13)))
        CFI (cfiCond167) V10 load(1, XDATA, add(CFA_XSP16, literal(-12)))
        CFI (cfiCond167) V11 load(1, XDATA, add(CFA_XSP16, literal(-11)))
        CFI (cfiCond167) V12 load(1, XDATA, add(CFA_XSP16, literal(-10)))
        CFI (cfiCond167) V13 load(1, XDATA, add(CFA_XSP16, literal(-9)))
        CFI (cfiCond167) V14 load(1, XDATA, add(CFA_XSP16, literal(-8)))
        CFI (cfiCond167) V15 load(1, XDATA, add(CFA_XSP16, literal(-7)))
        CFI (cfiCond167) R7 load(1, XDATA, add(CFA_XSP16, literal(-6)))
        CFI (cfiCond167) ?RET_LOW load(1, XDATA, add(CFA_XSP16, literal(-5)))
        CFI (cfiCond167) ?RET_HIGH load(1, XDATA, add(CFA_XSP16, literal(-4)))
        CFI (cfiCond167) ?BRET_EXT load(1, XDATA, add(CFA_XSP16, literal(-3)))
        CFI (cfiCond167) DPL0 load(1, XDATA, add(CFA_XSP16, literal(-2)))
        CFI (cfiCond167) DPH0 load(1, XDATA, add(CFA_XSP16, literal(-1)))
        CFI (cfiCond167) CFA_SP SP+-1
        CFI (cfiCond167) CFA_XSP16 add(XSP16, 25)
        CFI Block cfiCond168 Using cfiCommon0
        CFI (cfiCond168) NoFunction
        CFI (cfiCond168) Conditional ??CrossCallReturnLabel_98
        CFI (cfiCond168) R6 load(1, XDATA, add(CFA_XSP16, literal(-24)))
        CFI (cfiCond168) VB load(1, XDATA, add(CFA_XSP16, literal(-23)))
        CFI (cfiCond168) V0 load(1, XDATA, add(CFA_XSP16, literal(-22)))
        CFI (cfiCond168) V1 load(1, XDATA, add(CFA_XSP16, literal(-21)))
        CFI (cfiCond168) V2 load(1, XDATA, add(CFA_XSP16, literal(-20)))
        CFI (cfiCond168) V3 load(1, XDATA, add(CFA_XSP16, literal(-19)))
        CFI (cfiCond168) V4 load(1, XDATA, add(CFA_XSP16, literal(-18)))
        CFI (cfiCond168) V5 load(1, XDATA, add(CFA_XSP16, literal(-17)))
        CFI (cfiCond168) V6 load(1, XDATA, add(CFA_XSP16, literal(-16)))
        CFI (cfiCond168) V7 load(1, XDATA, add(CFA_XSP16, literal(-15)))
        CFI (cfiCond168) V8 load(1, XDATA, add(CFA_XSP16, literal(-14)))
        CFI (cfiCond168) V9 load(1, XDATA, add(CFA_XSP16, literal(-13)))
        CFI (cfiCond168) V10 load(1, XDATA, add(CFA_XSP16, literal(-12)))
        CFI (cfiCond168) V11 load(1, XDATA, add(CFA_XSP16, literal(-11)))
        CFI (cfiCond168) V12 load(1, XDATA, add(CFA_XSP16, literal(-10)))
        CFI (cfiCond168) V13 load(1, XDATA, add(CFA_XSP16, literal(-9)))
        CFI (cfiCond168) V14 load(1, XDATA, add(CFA_XSP16, literal(-8)))
        CFI (cfiCond168) V15 load(1, XDATA, add(CFA_XSP16, literal(-7)))
        CFI (cfiCond168) R7 load(1, XDATA, add(CFA_XSP16, literal(-6)))
        CFI (cfiCond168) ?RET_LOW load(1, XDATA, add(CFA_XSP16, literal(-5)))
        CFI (cfiCond168) ?RET_HIGH load(1, XDATA, add(CFA_XSP16, literal(-4)))
        CFI (cfiCond168) ?BRET_EXT load(1, XDATA, add(CFA_XSP16, literal(-3)))
        CFI (cfiCond168) DPL0 load(1, XDATA, add(CFA_XSP16, literal(-2)))
        CFI (cfiCond168) DPH0 load(1, XDATA, add(CFA_XSP16, literal(-1)))
        CFI (cfiCond168) CFA_SP SP+-1
        CFI (cfiCond168) CFA_XSP16 add(XSP16, 25)
        CFI Block cfiCond169 Using cfiCommon0
        CFI (cfiCond169) NoFunction
        CFI (cfiCond169) Conditional ??CrossCallReturnLabel_99
        CFI (cfiCond169) R6 load(1, XDATA, add(CFA_XSP16, literal(-24)))
        CFI (cfiCond169) VB load(1, XDATA, add(CFA_XSP16, literal(-23)))
        CFI (cfiCond169) V0 load(1, XDATA, add(CFA_XSP16, literal(-22)))
        CFI (cfiCond169) V1 load(1, XDATA, add(CFA_XSP16, literal(-21)))
        CFI (cfiCond169) V2 load(1, XDATA, add(CFA_XSP16, literal(-20)))
        CFI (cfiCond169) V3 load(1, XDATA, add(CFA_XSP16, literal(-19)))
        CFI (cfiCond169) V4 load(1, XDATA, add(CFA_XSP16, literal(-18)))
        CFI (cfiCond169) V5 load(1, XDATA, add(CFA_XSP16, literal(-17)))
        CFI (cfiCond169) V6 load(1, XDATA, add(CFA_XSP16, literal(-16)))
        CFI (cfiCond169) V7 load(1, XDATA, add(CFA_XSP16, literal(-15)))
        CFI (cfiCond169) V8 load(1, XDATA, add(CFA_XSP16, literal(-14)))
        CFI (cfiCond169) V9 load(1, XDATA, add(CFA_XSP16, literal(-13)))
        CFI (cfiCond169) V10 load(1, XDATA, add(CFA_XSP16, literal(-12)))
        CFI (cfiCond169) V11 load(1, XDATA, add(CFA_XSP16, literal(-11)))
        CFI (cfiCond169) V12 load(1, XDATA, add(CFA_XSP16, literal(-10)))
        CFI (cfiCond169) V13 load(1, XDATA, add(CFA_XSP16, literal(-9)))
        CFI (cfiCond169) V14 load(1, XDATA, add(CFA_XSP16, literal(-8)))
        CFI (cfiCond169) V15 load(1, XDATA, add(CFA_XSP16, literal(-7)))
        CFI (cfiCond169) R7 load(1, XDATA, add(CFA_XSP16, literal(-6)))
        CFI (cfiCond169) ?RET_LOW load(1, XDATA, add(CFA_XSP16, literal(-5)))
        CFI (cfiCond169) ?RET_HIGH load(1, XDATA, add(CFA_XSP16, literal(-4)))
        CFI (cfiCond169) ?BRET_EXT load(1, XDATA, add(CFA_XSP16, literal(-3)))
        CFI (cfiCond169) DPL0 load(1, XDATA, add(CFA_XSP16, literal(-2)))
        CFI (cfiCond169) DPH0 load(1, XDATA, add(CFA_XSP16, literal(-1)))
        CFI (cfiCond169) CFA_SP SP+-1
        CFI (cfiCond169) CFA_XSP16 add(XSP16, 25)
        CFI Block cfiCond170 Using cfiCommon0
        CFI (cfiCond170) NoFunction
        CFI (cfiCond170) Conditional ??CrossCallReturnLabel_100
        CFI (cfiCond170) R6 load(1, XDATA, add(CFA_XSP16, literal(-24)))
        CFI (cfiCond170) VB load(1, XDATA, add(CFA_XSP16, literal(-23)))
        CFI (cfiCond170) V0 load(1, XDATA, add(CFA_XSP16, literal(-22)))
        CFI (cfiCond170) V1 load(1, XDATA, add(CFA_XSP16, literal(-21)))
        CFI (cfiCond170) V2 load(1, XDATA, add(CFA_XSP16, literal(-20)))
        CFI (cfiCond170) V3 load(1, XDATA, add(CFA_XSP16, literal(-19)))
        CFI (cfiCond170) V4 load(1, XDATA, add(CFA_XSP16, literal(-18)))
        CFI (cfiCond170) V5 load(1, XDATA, add(CFA_XSP16, literal(-17)))
        CFI (cfiCond170) V6 load(1, XDATA, add(CFA_XSP16, literal(-16)))
        CFI (cfiCond170) V7 load(1, XDATA, add(CFA_XSP16, literal(-15)))
        CFI (cfiCond170) V8 load(1, XDATA, add(CFA_XSP16, literal(-14)))
        CFI (cfiCond170) V9 load(1, XDATA, add(CFA_XSP16, literal(-13)))
        CFI (cfiCond170) V10 load(1, XDATA, add(CFA_XSP16, literal(-12)))
        CFI (cfiCond170) V11 load(1, XDATA, add(CFA_XSP16, literal(-11)))
        CFI (cfiCond170) V12 load(1, XDATA, add(CFA_XSP16, literal(-10)))
        CFI (cfiCond170) V13 load(1, XDATA, add(CFA_XSP16, literal(-9)))
        CFI (cfiCond170) V14 load(1, XDATA, add(CFA_XSP16, literal(-8)))
        CFI (cfiCond170) V15 load(1, XDATA, add(CFA_XSP16, literal(-7)))
        CFI (cfiCond170) R7 load(1, XDATA, add(CFA_XSP16, literal(-6)))
        CFI (cfiCond170) ?RET_LOW load(1, XDATA, add(CFA_XSP16, literal(-5)))
        CFI (cfiCond170) ?RET_HIGH load(1, XDATA, add(CFA_XSP16, literal(-4)))
        CFI (cfiCond170) ?BRET_EXT load(1, XDATA, add(CFA_XSP16, literal(-3)))
        CFI (cfiCond170) DPL0 load(1, XDATA, add(CFA_XSP16, literal(-2)))
        CFI (cfiCond170) DPH0 load(1, XDATA, add(CFA_XSP16, literal(-1)))
        CFI (cfiCond170) CFA_SP SP+-1
        CFI (cfiCond170) CFA_XSP16 add(XSP16, 25)
        CFI Block cfiCond171 Using cfiCommon0
        CFI (cfiCond171) NoFunction
        CFI (cfiCond171) Conditional ??CrossCallReturnLabel_101
        CFI (cfiCond171) R6 load(1, XDATA, add(CFA_XSP16, literal(-24)))
        CFI (cfiCond171) VB load(1, XDATA, add(CFA_XSP16, literal(-23)))
        CFI (cfiCond171) V0 load(1, XDATA, add(CFA_XSP16, literal(-22)))
        CFI (cfiCond171) V1 load(1, XDATA, add(CFA_XSP16, literal(-21)))
        CFI (cfiCond171) V2 load(1, XDATA, add(CFA_XSP16, literal(-20)))
        CFI (cfiCond171) V3 load(1, XDATA, add(CFA_XSP16, literal(-19)))
        CFI (cfiCond171) V4 load(1, XDATA, add(CFA_XSP16, literal(-18)))
        CFI (cfiCond171) V5 load(1, XDATA, add(CFA_XSP16, literal(-17)))
        CFI (cfiCond171) V6 load(1, XDATA, add(CFA_XSP16, literal(-16)))
        CFI (cfiCond171) V7 load(1, XDATA, add(CFA_XSP16, literal(-15)))
        CFI (cfiCond171) V8 load(1, XDATA, add(CFA_XSP16, literal(-14)))
        CFI (cfiCond171) V9 load(1, XDATA, add(CFA_XSP16, literal(-13)))
        CFI (cfiCond171) V10 load(1, XDATA, add(CFA_XSP16, literal(-12)))
        CFI (cfiCond171) V11 load(1, XDATA, add(CFA_XSP16, literal(-11)))
        CFI (cfiCond171) V12 load(1, XDATA, add(CFA_XSP16, literal(-10)))
        CFI (cfiCond171) V13 load(1, XDATA, add(CFA_XSP16, literal(-9)))
        CFI (cfiCond171) V14 load(1, XDATA, add(CFA_XSP16, literal(-8)))
        CFI (cfiCond171) V15 load(1, XDATA, add(CFA_XSP16, literal(-7)))
        CFI (cfiCond171) R7 load(1, XDATA, add(CFA_XSP16, literal(-6)))
        CFI (cfiCond171) ?RET_LOW load(1, XDATA, add(CFA_XSP16, literal(-5)))
        CFI (cfiCond171) ?RET_HIGH load(1, XDATA, add(CFA_XSP16, literal(-4)))
        CFI (cfiCond171) ?BRET_EXT load(1, XDATA, add(CFA_XSP16, literal(-3)))
        CFI (cfiCond171) DPL0 load(1, XDATA, add(CFA_XSP16, literal(-2)))
        CFI (cfiCond171) DPH0 load(1, XDATA, add(CFA_XSP16, literal(-1)))
        CFI (cfiCond171) CFA_SP SP+-1
        CFI (cfiCond171) CFA_XSP16 add(XSP16, 25)
        CFI Block cfiCond172 Using cfiCommon0
        CFI (cfiCond172) NoFunction
        CFI (cfiCond172) Conditional ??CrossCallReturnLabel_102
        CFI (cfiCond172) R6 load(1, XDATA, add(CFA_XSP16, literal(-24)))
        CFI (cfiCond172) VB load(1, XDATA, add(CFA_XSP16, literal(-23)))
        CFI (cfiCond172) V0 load(1, XDATA, add(CFA_XSP16, literal(-22)))
        CFI (cfiCond172) V1 load(1, XDATA, add(CFA_XSP16, literal(-21)))
        CFI (cfiCond172) V2 load(1, XDATA, add(CFA_XSP16, literal(-20)))
        CFI (cfiCond172) V3 load(1, XDATA, add(CFA_XSP16, literal(-19)))
        CFI (cfiCond172) V4 load(1, XDATA, add(CFA_XSP16, literal(-18)))
        CFI (cfiCond172) V5 load(1, XDATA, add(CFA_XSP16, literal(-17)))
        CFI (cfiCond172) V6 load(1, XDATA, add(CFA_XSP16, literal(-16)))
        CFI (cfiCond172) V7 load(1, XDATA, add(CFA_XSP16, literal(-15)))
        CFI (cfiCond172) V8 load(1, XDATA, add(CFA_XSP16, literal(-14)))
        CFI (cfiCond172) V9 load(1, XDATA, add(CFA_XSP16, literal(-13)))
        CFI (cfiCond172) V10 load(1, XDATA, add(CFA_XSP16, literal(-12)))
        CFI (cfiCond172) V11 load(1, XDATA, add(CFA_XSP16, literal(-11)))
        CFI (cfiCond172) V12 load(1, XDATA, add(CFA_XSP16, literal(-10)))
        CFI (cfiCond172) V13 load(1, XDATA, add(CFA_XSP16, literal(-9)))
        CFI (cfiCond172) V14 load(1, XDATA, add(CFA_XSP16, literal(-8)))
        CFI (cfiCond172) V15 load(1, XDATA, add(CFA_XSP16, literal(-7)))
        CFI (cfiCond172) R7 load(1, XDATA, add(CFA_XSP16, literal(-6)))
        CFI (cfiCond172) ?RET_LOW load(1, XDATA, add(CFA_XSP16, literal(-5)))
        CFI (cfiCond172) ?RET_HIGH load(1, XDATA, add(CFA_XSP16, literal(-4)))
        CFI (cfiCond172) ?BRET_EXT load(1, XDATA, add(CFA_XSP16, literal(-3)))
        CFI (cfiCond172) DPL0 load(1, XDATA, add(CFA_XSP16, literal(-2)))
        CFI (cfiCond172) DPH0 load(1, XDATA, add(CFA_XSP16, literal(-1)))
        CFI (cfiCond172) CFA_SP SP+-1
        CFI (cfiCond172) CFA_XSP16 add(XSP16, 25)
        CFI Block cfiCond173 Using cfiCommon0
        CFI (cfiCond173) NoFunction
        CFI (cfiCond173) Conditional ??CrossCallReturnLabel_103
        CFI (cfiCond173) R6 load(1, XDATA, add(CFA_XSP16, literal(-24)))
        CFI (cfiCond173) VB load(1, XDATA, add(CFA_XSP16, literal(-23)))
        CFI (cfiCond173) V0 load(1, XDATA, add(CFA_XSP16, literal(-22)))
        CFI (cfiCond173) V1 load(1, XDATA, add(CFA_XSP16, literal(-21)))
        CFI (cfiCond173) V2 load(1, XDATA, add(CFA_XSP16, literal(-20)))
        CFI (cfiCond173) V3 load(1, XDATA, add(CFA_XSP16, literal(-19)))
        CFI (cfiCond173) V4 load(1, XDATA, add(CFA_XSP16, literal(-18)))
        CFI (cfiCond173) V5 load(1, XDATA, add(CFA_XSP16, literal(-17)))
        CFI (cfiCond173) V6 load(1, XDATA, add(CFA_XSP16, literal(-16)))
        CFI (cfiCond173) V7 load(1, XDATA, add(CFA_XSP16, literal(-15)))
        CFI (cfiCond173) V8 load(1, XDATA, add(CFA_XSP16, literal(-14)))
        CFI (cfiCond173) V9 load(1, XDATA, add(CFA_XSP16, literal(-13)))
        CFI (cfiCond173) V10 load(1, XDATA, add(CFA_XSP16, literal(-12)))
        CFI (cfiCond173) V11 load(1, XDATA, add(CFA_XSP16, literal(-11)))
        CFI (cfiCond173) V12 load(1, XDATA, add(CFA_XSP16, literal(-10)))
        CFI (cfiCond173) V13 load(1, XDATA, add(CFA_XSP16, literal(-9)))
        CFI (cfiCond173) V14 load(1, XDATA, add(CFA_XSP16, literal(-8)))
        CFI (cfiCond173) V15 load(1, XDATA, add(CFA_XSP16, literal(-7)))
        CFI (cfiCond173) R7 load(1, XDATA, add(CFA_XSP16, literal(-6)))
        CFI (cfiCond173) ?RET_LOW load(1, XDATA, add(CFA_XSP16, literal(-5)))
        CFI (cfiCond173) ?RET_HIGH load(1, XDATA, add(CFA_XSP16, literal(-4)))
        CFI (cfiCond173) ?BRET_EXT load(1, XDATA, add(CFA_XSP16, literal(-3)))
        CFI (cfiCond173) DPL0 load(1, XDATA, add(CFA_XSP16, literal(-2)))
        CFI (cfiCond173) DPH0 load(1, XDATA, add(CFA_XSP16, literal(-1)))
        CFI (cfiCond173) CFA_SP SP+0
        CFI (cfiCond173) CFA_XSP16 add(XSP16, 25)
        CFI Block cfiCond174 Using cfiCommon0
        CFI (cfiCond174) NoFunction
        CFI (cfiCond174) Conditional ??CrossCallReturnLabel_104
        CFI (cfiCond174) R6 load(1, XDATA, add(CFA_XSP16, literal(-24)))
        CFI (cfiCond174) VB load(1, XDATA, add(CFA_XSP16, literal(-23)))
        CFI (cfiCond174) V0 load(1, XDATA, add(CFA_XSP16, literal(-22)))
        CFI (cfiCond174) V1 load(1, XDATA, add(CFA_XSP16, literal(-21)))
        CFI (cfiCond174) V2 load(1, XDATA, add(CFA_XSP16, literal(-20)))
        CFI (cfiCond174) V3 load(1, XDATA, add(CFA_XSP16, literal(-19)))
        CFI (cfiCond174) V4 load(1, XDATA, add(CFA_XSP16, literal(-18)))
        CFI (cfiCond174) V5 load(1, XDATA, add(CFA_XSP16, literal(-17)))
        CFI (cfiCond174) V6 load(1, XDATA, add(CFA_XSP16, literal(-16)))
        CFI (cfiCond174) V7 load(1, XDATA, add(CFA_XSP16, literal(-15)))
        CFI (cfiCond174) V8 load(1, XDATA, add(CFA_XSP16, literal(-14)))
        CFI (cfiCond174) V9 load(1, XDATA, add(CFA_XSP16, literal(-13)))
        CFI (cfiCond174) V10 load(1, XDATA, add(CFA_XSP16, literal(-12)))
        CFI (cfiCond174) V11 load(1, XDATA, add(CFA_XSP16, literal(-11)))
        CFI (cfiCond174) V12 load(1, XDATA, add(CFA_XSP16, literal(-10)))
        CFI (cfiCond174) V13 load(1, XDATA, add(CFA_XSP16, literal(-9)))
        CFI (cfiCond174) V14 load(1, XDATA, add(CFA_XSP16, literal(-8)))
        CFI (cfiCond174) V15 load(1, XDATA, add(CFA_XSP16, literal(-7)))
        CFI (cfiCond174) R7 load(1, XDATA, add(CFA_XSP16, literal(-6)))
        CFI (cfiCond174) ?RET_LOW load(1, XDATA, add(CFA_XSP16, literal(-5)))
        CFI (cfiCond174) ?RET_HIGH load(1, XDATA, add(CFA_XSP16, literal(-4)))
        CFI (cfiCond174) ?BRET_EXT load(1, XDATA, add(CFA_XSP16, literal(-3)))
        CFI (cfiCond174) DPL0 load(1, XDATA, add(CFA_XSP16, literal(-2)))
        CFI (cfiCond174) DPH0 load(1, XDATA, add(CFA_XSP16, literal(-1)))
        CFI (cfiCond174) CFA_SP SP+-1
        CFI (cfiCond174) CFA_XSP16 add(XSP16, 25)
        CFI Block cfiCond175 Using cfiCommon0
        CFI (cfiCond175) NoFunction
        CFI (cfiCond175) Conditional ??CrossCallReturnLabel_105
        CFI (cfiCond175) R6 load(1, XDATA, add(CFA_XSP16, literal(-24)))
        CFI (cfiCond175) VB load(1, XDATA, add(CFA_XSP16, literal(-23)))
        CFI (cfiCond175) V0 load(1, XDATA, add(CFA_XSP16, literal(-22)))
        CFI (cfiCond175) V1 load(1, XDATA, add(CFA_XSP16, literal(-21)))
        CFI (cfiCond175) V2 load(1, XDATA, add(CFA_XSP16, literal(-20)))
        CFI (cfiCond175) V3 load(1, XDATA, add(CFA_XSP16, literal(-19)))
        CFI (cfiCond175) V4 load(1, XDATA, add(CFA_XSP16, literal(-18)))
        CFI (cfiCond175) V5 load(1, XDATA, add(CFA_XSP16, literal(-17)))
        CFI (cfiCond175) V6 load(1, XDATA, add(CFA_XSP16, literal(-16)))
        CFI (cfiCond175) V7 load(1, XDATA, add(CFA_XSP16, literal(-15)))
        CFI (cfiCond175) V8 load(1, XDATA, add(CFA_XSP16, literal(-14)))
        CFI (cfiCond175) V9 load(1, XDATA, add(CFA_XSP16, literal(-13)))
        CFI (cfiCond175) V10 load(1, XDATA, add(CFA_XSP16, literal(-12)))
        CFI (cfiCond175) V11 load(1, XDATA, add(CFA_XSP16, literal(-11)))
        CFI (cfiCond175) V12 load(1, XDATA, add(CFA_XSP16, literal(-10)))
        CFI (cfiCond175) V13 load(1, XDATA, add(CFA_XSP16, literal(-9)))
        CFI (cfiCond175) V14 load(1, XDATA, add(CFA_XSP16, literal(-8)))
        CFI (cfiCond175) V15 load(1, XDATA, add(CFA_XSP16, literal(-7)))
        CFI (cfiCond175) R7 load(1, XDATA, add(CFA_XSP16, literal(-6)))
        CFI (cfiCond175) ?RET_LOW load(1, XDATA, add(CFA_XSP16, literal(-5)))
        CFI (cfiCond175) ?RET_HIGH load(1, XDATA, add(CFA_XSP16, literal(-4)))
        CFI (cfiCond175) ?BRET_EXT load(1, XDATA, add(CFA_XSP16, literal(-3)))
        CFI (cfiCond175) DPL0 load(1, XDATA, add(CFA_XSP16, literal(-2)))
        CFI (cfiCond175) DPH0 load(1, XDATA, add(CFA_XSP16, literal(-1)))
        CFI (cfiCond175) CFA_SP SP+0
        CFI (cfiCond175) CFA_XSP16 add(XSP16, 25)
        CFI Block cfiCond176 Using cfiCommon0
        CFI (cfiCond176) NoFunction
        CFI (cfiCond176) Conditional ??CrossCallReturnLabel_106
        CFI (cfiCond176) R6 load(1, XDATA, add(CFA_XSP16, literal(-24)))
        CFI (cfiCond176) VB load(1, XDATA, add(CFA_XSP16, literal(-23)))
        CFI (cfiCond176) V0 load(1, XDATA, add(CFA_XSP16, literal(-22)))
        CFI (cfiCond176) V1 load(1, XDATA, add(CFA_XSP16, literal(-21)))
        CFI (cfiCond176) V2 load(1, XDATA, add(CFA_XSP16, literal(-20)))
        CFI (cfiCond176) V3 load(1, XDATA, add(CFA_XSP16, literal(-19)))
        CFI (cfiCond176) V4 load(1, XDATA, add(CFA_XSP16, literal(-18)))
        CFI (cfiCond176) V5 load(1, XDATA, add(CFA_XSP16, literal(-17)))
        CFI (cfiCond176) V6 load(1, XDATA, add(CFA_XSP16, literal(-16)))
        CFI (cfiCond176) V7 load(1, XDATA, add(CFA_XSP16, literal(-15)))
        CFI (cfiCond176) V8 load(1, XDATA, add(CFA_XSP16, literal(-14)))
        CFI (cfiCond176) V9 load(1, XDATA, add(CFA_XSP16, literal(-13)))
        CFI (cfiCond176) V10 load(1, XDATA, add(CFA_XSP16, literal(-12)))
        CFI (cfiCond176) V11 load(1, XDATA, add(CFA_XSP16, literal(-11)))
        CFI (cfiCond176) V12 load(1, XDATA, add(CFA_XSP16, literal(-10)))
        CFI (cfiCond176) V13 load(1, XDATA, add(CFA_XSP16, literal(-9)))
        CFI (cfiCond176) V14 load(1, XDATA, add(CFA_XSP16, literal(-8)))
        CFI (cfiCond176) V15 load(1, XDATA, add(CFA_XSP16, literal(-7)))
        CFI (cfiCond176) R7 load(1, XDATA, add(CFA_XSP16, literal(-6)))
        CFI (cfiCond176) ?RET_LOW load(1, XDATA, add(CFA_XSP16, literal(-5)))
        CFI (cfiCond176) ?RET_HIGH load(1, XDATA, add(CFA_XSP16, literal(-4)))
        CFI (cfiCond176) ?BRET_EXT load(1, XDATA, add(CFA_XSP16, literal(-3)))
        CFI (cfiCond176) DPL0 load(1, XDATA, add(CFA_XSP16, literal(-2)))
        CFI (cfiCond176) DPH0 load(1, XDATA, add(CFA_XSP16, literal(-1)))
        CFI (cfiCond176) CFA_SP SP+0
        CFI (cfiCond176) CFA_XSP16 add(XSP16, 25)
        CFI Block cfiPicker177 Using cfiCommon1
        CFI (cfiPicker177) NoFunction
        CFI (cfiPicker177) Picker
        MOV     DPL,A
        MOV     A,R7
        CFI EndBlock cfiCond166
        CFI EndBlock cfiCond167
        CFI EndBlock cfiCond168
        CFI EndBlock cfiCond169
        CFI EndBlock cfiCond170
        CFI EndBlock cfiCond171
        CFI EndBlock cfiCond172
        CFI EndBlock cfiCond173
        CFI EndBlock cfiCond174
        CFI EndBlock cfiCond175
        CFI EndBlock cfiCond176
        CFI EndBlock cfiPicker177
        REQUIRE ??Subroutine42_0
        ; // Fall through to label ??Subroutine42_0

        RSEG BANKED_CODE:CODE:NOROOT(0)
??Subroutine42_0:
        CFI Block cfiCond178 Using cfiCommon0
        CFI NoFunction
        CFI Conditional ??CrossCallReturnLabel_93
        CFI R6 load(1, XDATA, add(CFA_XSP16, literal(-24)))
        CFI VB load(1, XDATA, add(CFA_XSP16, literal(-23)))
        CFI V0 load(1, XDATA, add(CFA_XSP16, literal(-22)))
        CFI V1 load(1, XDATA, add(CFA_XSP16, literal(-21)))
        CFI V2 load(1, XDATA, add(CFA_XSP16, literal(-20)))
        CFI V3 load(1, XDATA, add(CFA_XSP16, literal(-19)))
        CFI V4 load(1, XDATA, add(CFA_XSP16, literal(-18)))
        CFI V5 load(1, XDATA, add(CFA_XSP16, literal(-17)))
        CFI V6 load(1, XDATA, add(CFA_XSP16, literal(-16)))
        CFI V7 load(1, XDATA, add(CFA_XSP16, literal(-15)))
        CFI V8 load(1, XDATA, add(CFA_XSP16, literal(-14)))
        CFI V9 load(1, XDATA, add(CFA_XSP16, literal(-13)))
        CFI V10 load(1, XDATA, add(CFA_XSP16, literal(-12)))
        CFI V11 load(1, XDATA, add(CFA_XSP16, literal(-11)))
        CFI V12 load(1, XDATA, add(CFA_XSP16, literal(-10)))
        CFI V13 load(1, XDATA, add(CFA_XSP16, literal(-9)))
        CFI V14 load(1, XDATA, add(CFA_XSP16, literal(-8)))
        CFI V15 load(1, XDATA, add(CFA_XSP16, literal(-7)))
        CFI R7 load(1, XDATA, add(CFA_XSP16, literal(-6)))
        CFI ?RET_LOW load(1, XDATA, add(CFA_XSP16, literal(-5)))
        CFI ?RET_HIGH load(1, XDATA, add(CFA_XSP16, literal(-4)))
        CFI ?BRET_EXT load(1, XDATA, add(CFA_XSP16, literal(-3)))
        CFI DPL0 load(1, XDATA, add(CFA_XSP16, literal(-2)))
        CFI DPH0 load(1, XDATA, add(CFA_XSP16, literal(-1)))
        CFI CFA_SP SP+0
        CFI CFA_XSP16 add(XSP16, 25)
        CFI Block cfiCond179 Using cfiCommon0
        CFI (cfiCond179) NoFunction
        CFI (cfiCond179) Conditional ??CrossCallReturnLabel_94
        CFI (cfiCond179) R6 load(1, XDATA, add(CFA_XSP16, literal(-24)))
        CFI (cfiCond179) VB load(1, XDATA, add(CFA_XSP16, literal(-23)))
        CFI (cfiCond179) V0 load(1, XDATA, add(CFA_XSP16, literal(-22)))
        CFI (cfiCond179) V1 load(1, XDATA, add(CFA_XSP16, literal(-21)))
        CFI (cfiCond179) V2 load(1, XDATA, add(CFA_XSP16, literal(-20)))
        CFI (cfiCond179) V3 load(1, XDATA, add(CFA_XSP16, literal(-19)))
        CFI (cfiCond179) V4 load(1, XDATA, add(CFA_XSP16, literal(-18)))
        CFI (cfiCond179) V5 load(1, XDATA, add(CFA_XSP16, literal(-17)))
        CFI (cfiCond179) V6 load(1, XDATA, add(CFA_XSP16, literal(-16)))
        CFI (cfiCond179) V7 load(1, XDATA, add(CFA_XSP16, literal(-15)))
        CFI (cfiCond179) V8 load(1, XDATA, add(CFA_XSP16, literal(-14)))
        CFI (cfiCond179) V9 load(1, XDATA, add(CFA_XSP16, literal(-13)))
        CFI (cfiCond179) V10 load(1, XDATA, add(CFA_XSP16, literal(-12)))
        CFI (cfiCond179) V11 load(1, XDATA, add(CFA_XSP16, literal(-11)))
        CFI (cfiCond179) V12 load(1, XDATA, add(CFA_XSP16, literal(-10)))
        CFI (cfiCond179) V13 load(1, XDATA, add(CFA_XSP16, literal(-9)))
        CFI (cfiCond179) V14 load(1, XDATA, add(CFA_XSP16, literal(-8)))
        CFI (cfiCond179) V15 load(1, XDATA, add(CFA_XSP16, literal(-7)))
        CFI (cfiCond179) R7 load(1, XDATA, add(CFA_XSP16, literal(-6)))
        CFI (cfiCond179) ?RET_LOW load(1, XDATA, add(CFA_XSP16, literal(-5)))
        CFI (cfiCond179) ?RET_HIGH load(1, XDATA, add(CFA_XSP16, literal(-4)))
        CFI (cfiCond179) ?BRET_EXT load(1, XDATA, add(CFA_XSP16, literal(-3)))
        CFI (cfiCond179) DPL0 load(1, XDATA, add(CFA_XSP16, literal(-2)))
        CFI (cfiCond179) DPH0 load(1, XDATA, add(CFA_XSP16, literal(-1)))
        CFI (cfiCond179) CFA_SP SP+0
        CFI (cfiCond179) CFA_XSP16 add(XSP16, 25)
        CFI Block cfiCond180 Using cfiCommon0
        CFI (cfiCond180) NoFunction
        CFI (cfiCond180) Conditional ??CrossCallReturnLabel_95
        CFI (cfiCond180) R6 load(1, XDATA, add(CFA_XSP16, literal(-10)))
        CFI (cfiCond180) VB load(1, XDATA, add(CFA_XSP16, literal(-9)))
        CFI (cfiCond180) V0 load(1, XDATA, add(CFA_XSP16, literal(-8)))
        CFI (cfiCond180) V1 load(1, XDATA, add(CFA_XSP16, literal(-7)))
        CFI (cfiCond180) R7 load(1, XDATA, add(CFA_XSP16, literal(-6)))
        CFI (cfiCond180) ?RET_LOW load(1, XDATA, add(CFA_XSP16, literal(-5)))
        CFI (cfiCond180) ?RET_HIGH load(1, XDATA, add(CFA_XSP16, literal(-4)))
        CFI (cfiCond180) ?BRET_EXT load(1, XDATA, add(CFA_XSP16, literal(-3)))
        CFI (cfiCond180) DPL0 load(1, XDATA, add(CFA_XSP16, literal(-2)))
        CFI (cfiCond180) DPH0 load(1, XDATA, add(CFA_XSP16, literal(-1)))
        CFI (cfiCond180) CFA_SP SP+0
        CFI (cfiCond180) CFA_XSP16 add(XSP16, 10)
        CFI Block cfiCond181 Using cfiCommon0
        CFI (cfiCond181) NoFunction
        CFI (cfiCond181) Conditional ??CrossCallReturnLabel_96
        CFI (cfiCond181) R6 load(1, XDATA, add(CFA_XSP16, literal(-24)))
        CFI (cfiCond181) VB load(1, XDATA, add(CFA_XSP16, literal(-23)))
        CFI (cfiCond181) V0 load(1, XDATA, add(CFA_XSP16, literal(-22)))
        CFI (cfiCond181) V1 load(1, XDATA, add(CFA_XSP16, literal(-21)))
        CFI (cfiCond181) V2 load(1, XDATA, add(CFA_XSP16, literal(-20)))
        CFI (cfiCond181) V3 load(1, XDATA, add(CFA_XSP16, literal(-19)))
        CFI (cfiCond181) V4 load(1, XDATA, add(CFA_XSP16, literal(-18)))
        CFI (cfiCond181) V5 load(1, XDATA, add(CFA_XSP16, literal(-17)))
        CFI (cfiCond181) V6 load(1, XDATA, add(CFA_XSP16, literal(-16)))
        CFI (cfiCond181) V7 load(1, XDATA, add(CFA_XSP16, literal(-15)))
        CFI (cfiCond181) V8 load(1, XDATA, add(CFA_XSP16, literal(-14)))
        CFI (cfiCond181) V9 load(1, XDATA, add(CFA_XSP16, literal(-13)))
        CFI (cfiCond181) V10 load(1, XDATA, add(CFA_XSP16, literal(-12)))
        CFI (cfiCond181) V11 load(1, XDATA, add(CFA_XSP16, literal(-11)))
        CFI (cfiCond181) V12 load(1, XDATA, add(CFA_XSP16, literal(-10)))
        CFI (cfiCond181) V13 load(1, XDATA, add(CFA_XSP16, literal(-9)))
        CFI (cfiCond181) V14 load(1, XDATA, add(CFA_XSP16, literal(-8)))
        CFI (cfiCond181) V15 load(1, XDATA, add(CFA_XSP16, literal(-7)))
        CFI (cfiCond181) R7 load(1, XDATA, add(CFA_XSP16, literal(-6)))
        CFI (cfiCond181) ?RET_LOW load(1, XDATA, add(CFA_XSP16, literal(-5)))
        CFI (cfiCond181) ?RET_HIGH load(1, XDATA, add(CFA_XSP16, literal(-4)))
        CFI (cfiCond181) ?BRET_EXT load(1, XDATA, add(CFA_XSP16, literal(-3)))
        CFI (cfiCond181) DPL0 load(1, XDATA, add(CFA_XSP16, literal(-2)))
        CFI (cfiCond181) DPH0 load(1, XDATA, add(CFA_XSP16, literal(-1)))
        CFI (cfiCond181) CFA_SP SP+-1
        CFI (cfiCond181) CFA_XSP16 add(XSP16, 25)
        CFI Block cfiCond182 Using cfiCommon0
        CFI (cfiCond182) NoFunction
        CFI (cfiCond182) Conditional ??CrossCallReturnLabel_97
        CFI (cfiCond182) R6 load(1, XDATA, add(CFA_XSP16, literal(-24)))
        CFI (cfiCond182) VB load(1, XDATA, add(CFA_XSP16, literal(-23)))
        CFI (cfiCond182) V0 load(1, XDATA, add(CFA_XSP16, literal(-22)))
        CFI (cfiCond182) V1 load(1, XDATA, add(CFA_XSP16, literal(-21)))
        CFI (cfiCond182) V2 load(1, XDATA, add(CFA_XSP16, literal(-20)))
        CFI (cfiCond182) V3 load(1, XDATA, add(CFA_XSP16, literal(-19)))
        CFI (cfiCond182) V4 load(1, XDATA, add(CFA_XSP16, literal(-18)))
        CFI (cfiCond182) V5 load(1, XDATA, add(CFA_XSP16, literal(-17)))
        CFI (cfiCond182) V6 load(1, XDATA, add(CFA_XSP16, literal(-16)))
        CFI (cfiCond182) V7 load(1, XDATA, add(CFA_XSP16, literal(-15)))
        CFI (cfiCond182) V8 load(1, XDATA, add(CFA_XSP16, literal(-14)))
        CFI (cfiCond182) V9 load(1, XDATA, add(CFA_XSP16, literal(-13)))
        CFI (cfiCond182) V10 load(1, XDATA, add(CFA_XSP16, literal(-12)))
        CFI (cfiCond182) V11 load(1, XDATA, add(CFA_XSP16, literal(-11)))
        CFI (cfiCond182) V12 load(1, XDATA, add(CFA_XSP16, literal(-10)))
        CFI (cfiCond182) V13 load(1, XDATA, add(CFA_XSP16, literal(-9)))
        CFI (cfiCond182) V14 load(1, XDATA, add(CFA_XSP16, literal(-8)))
        CFI (cfiCond182) V15 load(1, XDATA, add(CFA_XSP16, literal(-7)))
        CFI (cfiCond182) R7 load(1, XDATA, add(CFA_XSP16, literal(-6)))
        CFI (cfiCond182) ?RET_LOW load(1, XDATA, add(CFA_XSP16, literal(-5)))
        CFI (cfiCond182) ?RET_HIGH load(1, XDATA, add(CFA_XSP16, literal(-4)))
        CFI (cfiCond182) ?BRET_EXT load(1, XDATA, add(CFA_XSP16, literal(-3)))
        CFI (cfiCond182) DPL0 load(1, XDATA, add(CFA_XSP16, literal(-2)))
        CFI (cfiCond182) DPH0 load(1, XDATA, add(CFA_XSP16, literal(-1)))
        CFI (cfiCond182) CFA_SP SP+-1
        CFI (cfiCond182) CFA_XSP16 add(XSP16, 25)
        CFI Block cfiCond183 Using cfiCommon0
        CFI (cfiCond183) NoFunction
        CFI (cfiCond183) Conditional ??CrossCallReturnLabel_98
        CFI (cfiCond183) R6 load(1, XDATA, add(CFA_XSP16, literal(-24)))
        CFI (cfiCond183) VB load(1, XDATA, add(CFA_XSP16, literal(-23)))
        CFI (cfiCond183) V0 load(1, XDATA, add(CFA_XSP16, literal(-22)))
        CFI (cfiCond183) V1 load(1, XDATA, add(CFA_XSP16, literal(-21)))
        CFI (cfiCond183) V2 load(1, XDATA, add(CFA_XSP16, literal(-20)))
        CFI (cfiCond183) V3 load(1, XDATA, add(CFA_XSP16, literal(-19)))
        CFI (cfiCond183) V4 load(1, XDATA, add(CFA_XSP16, literal(-18)))
        CFI (cfiCond183) V5 load(1, XDATA, add(CFA_XSP16, literal(-17)))
        CFI (cfiCond183) V6 load(1, XDATA, add(CFA_XSP16, literal(-16)))
        CFI (cfiCond183) V7 load(1, XDATA, add(CFA_XSP16, literal(-15)))
        CFI (cfiCond183) V8 load(1, XDATA, add(CFA_XSP16, literal(-14)))
        CFI (cfiCond183) V9 load(1, XDATA, add(CFA_XSP16, literal(-13)))
        CFI (cfiCond183) V10 load(1, XDATA, add(CFA_XSP16, literal(-12)))
        CFI (cfiCond183) V11 load(1, XDATA, add(CFA_XSP16, literal(-11)))
        CFI (cfiCond183) V12 load(1, XDATA, add(CFA_XSP16, literal(-10)))
        CFI (cfiCond183) V13 load(1, XDATA, add(CFA_XSP16, literal(-9)))
        CFI (cfiCond183) V14 load(1, XDATA, add(CFA_XSP16, literal(-8)))
        CFI (cfiCond183) V15 load(1, XDATA, add(CFA_XSP16, literal(-7)))
        CFI (cfiCond183) R7 load(1, XDATA, add(CFA_XSP16, literal(-6)))
        CFI (cfiCond183) ?RET_LOW load(1, XDATA, add(CFA_XSP16, literal(-5)))
        CFI (cfiCond183) ?RET_HIGH load(1, XDATA, add(CFA_XSP16, literal(-4)))
        CFI (cfiCond183) ?BRET_EXT load(1, XDATA, add(CFA_XSP16, literal(-3)))
        CFI (cfiCond183) DPL0 load(1, XDATA, add(CFA_XSP16, literal(-2)))
        CFI (cfiCond183) DPH0 load(1, XDATA, add(CFA_XSP16, literal(-1)))
        CFI (cfiCond183) CFA_SP SP+-1
        CFI (cfiCond183) CFA_XSP16 add(XSP16, 25)
        CFI Block cfiCond184 Using cfiCommon0
        CFI (cfiCond184) NoFunction
        CFI (cfiCond184) Conditional ??CrossCallReturnLabel_99
        CFI (cfiCond184) R6 load(1, XDATA, add(CFA_XSP16, literal(-24)))
        CFI (cfiCond184) VB load(1, XDATA, add(CFA_XSP16, literal(-23)))
        CFI (cfiCond184) V0 load(1, XDATA, add(CFA_XSP16, literal(-22)))
        CFI (cfiCond184) V1 load(1, XDATA, add(CFA_XSP16, literal(-21)))
        CFI (cfiCond184) V2 load(1, XDATA, add(CFA_XSP16, literal(-20)))
        CFI (cfiCond184) V3 load(1, XDATA, add(CFA_XSP16, literal(-19)))
        CFI (cfiCond184) V4 load(1, XDATA, add(CFA_XSP16, literal(-18)))
        CFI (cfiCond184) V5 load(1, XDATA, add(CFA_XSP16, literal(-17)))
        CFI (cfiCond184) V6 load(1, XDATA, add(CFA_XSP16, literal(-16)))
        CFI (cfiCond184) V7 load(1, XDATA, add(CFA_XSP16, literal(-15)))
        CFI (cfiCond184) V8 load(1, XDATA, add(CFA_XSP16, literal(-14)))
        CFI (cfiCond184) V9 load(1, XDATA, add(CFA_XSP16, literal(-13)))
        CFI (cfiCond184) V10 load(1, XDATA, add(CFA_XSP16, literal(-12)))
        CFI (cfiCond184) V11 load(1, XDATA, add(CFA_XSP16, literal(-11)))
        CFI (cfiCond184) V12 load(1, XDATA, add(CFA_XSP16, literal(-10)))
        CFI (cfiCond184) V13 load(1, XDATA, add(CFA_XSP16, literal(-9)))
        CFI (cfiCond184) V14 load(1, XDATA, add(CFA_XSP16, literal(-8)))
        CFI (cfiCond184) V15 load(1, XDATA, add(CFA_XSP16, literal(-7)))
        CFI (cfiCond184) R7 load(1, XDATA, add(CFA_XSP16, literal(-6)))
        CFI (cfiCond184) ?RET_LOW load(1, XDATA, add(CFA_XSP16, literal(-5)))
        CFI (cfiCond184) ?RET_HIGH load(1, XDATA, add(CFA_XSP16, literal(-4)))
        CFI (cfiCond184) ?BRET_EXT load(1, XDATA, add(CFA_XSP16, literal(-3)))
        CFI (cfiCond184) DPL0 load(1, XDATA, add(CFA_XSP16, literal(-2)))
        CFI (cfiCond184) DPH0 load(1, XDATA, add(CFA_XSP16, literal(-1)))
        CFI (cfiCond184) CFA_SP SP+-1
        CFI (cfiCond184) CFA_XSP16 add(XSP16, 25)
        CFI Block cfiCond185 Using cfiCommon0
        CFI (cfiCond185) NoFunction
        CFI (cfiCond185) Conditional ??CrossCallReturnLabel_100
        CFI (cfiCond185) R6 load(1, XDATA, add(CFA_XSP16, literal(-24)))
        CFI (cfiCond185) VB load(1, XDATA, add(CFA_XSP16, literal(-23)))
        CFI (cfiCond185) V0 load(1, XDATA, add(CFA_XSP16, literal(-22)))
        CFI (cfiCond185) V1 load(1, XDATA, add(CFA_XSP16, literal(-21)))
        CFI (cfiCond185) V2 load(1, XDATA, add(CFA_XSP16, literal(-20)))
        CFI (cfiCond185) V3 load(1, XDATA, add(CFA_XSP16, literal(-19)))
        CFI (cfiCond185) V4 load(1, XDATA, add(CFA_XSP16, literal(-18)))
        CFI (cfiCond185) V5 load(1, XDATA, add(CFA_XSP16, literal(-17)))
        CFI (cfiCond185) V6 load(1, XDATA, add(CFA_XSP16, literal(-16)))
        CFI (cfiCond185) V7 load(1, XDATA, add(CFA_XSP16, literal(-15)))
        CFI (cfiCond185) V8 load(1, XDATA, add(CFA_XSP16, literal(-14)))
        CFI (cfiCond185) V9 load(1, XDATA, add(CFA_XSP16, literal(-13)))
        CFI (cfiCond185) V10 load(1, XDATA, add(CFA_XSP16, literal(-12)))
        CFI (cfiCond185) V11 load(1, XDATA, add(CFA_XSP16, literal(-11)))
        CFI (cfiCond185) V12 load(1, XDATA, add(CFA_XSP16, literal(-10)))
        CFI (cfiCond185) V13 load(1, XDATA, add(CFA_XSP16, literal(-9)))
        CFI (cfiCond185) V14 load(1, XDATA, add(CFA_XSP16, literal(-8)))
        CFI (cfiCond185) V15 load(1, XDATA, add(CFA_XSP16, literal(-7)))
        CFI (cfiCond185) R7 load(1, XDATA, add(CFA_XSP16, literal(-6)))
        CFI (cfiCond185) ?RET_LOW load(1, XDATA, add(CFA_XSP16, literal(-5)))
        CFI (cfiCond185) ?RET_HIGH load(1, XDATA, add(CFA_XSP16, literal(-4)))
        CFI (cfiCond185) ?BRET_EXT load(1, XDATA, add(CFA_XSP16, literal(-3)))
        CFI (cfiCond185) DPL0 load(1, XDATA, add(CFA_XSP16, literal(-2)))
        CFI (cfiCond185) DPH0 load(1, XDATA, add(CFA_XSP16, literal(-1)))
        CFI (cfiCond185) CFA_SP SP+-1
        CFI (cfiCond185) CFA_XSP16 add(XSP16, 25)
        CFI Block cfiCond186 Using cfiCommon0
        CFI (cfiCond186) NoFunction
        CFI (cfiCond186) Conditional ??CrossCallReturnLabel_101
        CFI (cfiCond186) R6 load(1, XDATA, add(CFA_XSP16, literal(-24)))
        CFI (cfiCond186) VB load(1, XDATA, add(CFA_XSP16, literal(-23)))
        CFI (cfiCond186) V0 load(1, XDATA, add(CFA_XSP16, literal(-22)))
        CFI (cfiCond186) V1 load(1, XDATA, add(CFA_XSP16, literal(-21)))
        CFI (cfiCond186) V2 load(1, XDATA, add(CFA_XSP16, literal(-20)))
        CFI (cfiCond186) V3 load(1, XDATA, add(CFA_XSP16, literal(-19)))
        CFI (cfiCond186) V4 load(1, XDATA, add(CFA_XSP16, literal(-18)))
        CFI (cfiCond186) V5 load(1, XDATA, add(CFA_XSP16, literal(-17)))
        CFI (cfiCond186) V6 load(1, XDATA, add(CFA_XSP16, literal(-16)))
        CFI (cfiCond186) V7 load(1, XDATA, add(CFA_XSP16, literal(-15)))
        CFI (cfiCond186) V8 load(1, XDATA, add(CFA_XSP16, literal(-14)))
        CFI (cfiCond186) V9 load(1, XDATA, add(CFA_XSP16, literal(-13)))
        CFI (cfiCond186) V10 load(1, XDATA, add(CFA_XSP16, literal(-12)))
        CFI (cfiCond186) V11 load(1, XDATA, add(CFA_XSP16, literal(-11)))
        CFI (cfiCond186) V12 load(1, XDATA, add(CFA_XSP16, literal(-10)))
        CFI (cfiCond186) V13 load(1, XDATA, add(CFA_XSP16, literal(-9)))
        CFI (cfiCond186) V14 load(1, XDATA, add(CFA_XSP16, literal(-8)))
        CFI (cfiCond186) V15 load(1, XDATA, add(CFA_XSP16, literal(-7)))
        CFI (cfiCond186) R7 load(1, XDATA, add(CFA_XSP16, literal(-6)))
        CFI (cfiCond186) ?RET_LOW load(1, XDATA, add(CFA_XSP16, literal(-5)))
        CFI (cfiCond186) ?RET_HIGH load(1, XDATA, add(CFA_XSP16, literal(-4)))
        CFI (cfiCond186) ?BRET_EXT load(1, XDATA, add(CFA_XSP16, literal(-3)))
        CFI (cfiCond186) DPL0 load(1, XDATA, add(CFA_XSP16, literal(-2)))
        CFI (cfiCond186) DPH0 load(1, XDATA, add(CFA_XSP16, literal(-1)))
        CFI (cfiCond186) CFA_SP SP+-1
        CFI (cfiCond186) CFA_XSP16 add(XSP16, 25)
        CFI Block cfiCond187 Using cfiCommon0
        CFI (cfiCond187) NoFunction
        CFI (cfiCond187) Conditional ??CrossCallReturnLabel_102
        CFI (cfiCond187) R6 load(1, XDATA, add(CFA_XSP16, literal(-24)))
        CFI (cfiCond187) VB load(1, XDATA, add(CFA_XSP16, literal(-23)))
        CFI (cfiCond187) V0 load(1, XDATA, add(CFA_XSP16, literal(-22)))
        CFI (cfiCond187) V1 load(1, XDATA, add(CFA_XSP16, literal(-21)))
        CFI (cfiCond187) V2 load(1, XDATA, add(CFA_XSP16, literal(-20)))
        CFI (cfiCond187) V3 load(1, XDATA, add(CFA_XSP16, literal(-19)))
        CFI (cfiCond187) V4 load(1, XDATA, add(CFA_XSP16, literal(-18)))
        CFI (cfiCond187) V5 load(1, XDATA, add(CFA_XSP16, literal(-17)))
        CFI (cfiCond187) V6 load(1, XDATA, add(CFA_XSP16, literal(-16)))
        CFI (cfiCond187) V7 load(1, XDATA, add(CFA_XSP16, literal(-15)))
        CFI (cfiCond187) V8 load(1, XDATA, add(CFA_XSP16, literal(-14)))
        CFI (cfiCond187) V9 load(1, XDATA, add(CFA_XSP16, literal(-13)))
        CFI (cfiCond187) V10 load(1, XDATA, add(CFA_XSP16, literal(-12)))
        CFI (cfiCond187) V11 load(1, XDATA, add(CFA_XSP16, literal(-11)))
        CFI (cfiCond187) V12 load(1, XDATA, add(CFA_XSP16, literal(-10)))
        CFI (cfiCond187) V13 load(1, XDATA, add(CFA_XSP16, literal(-9)))
        CFI (cfiCond187) V14 load(1, XDATA, add(CFA_XSP16, literal(-8)))
        CFI (cfiCond187) V15 load(1, XDATA, add(CFA_XSP16, literal(-7)))
        CFI (cfiCond187) R7 load(1, XDATA, add(CFA_XSP16, literal(-6)))
        CFI (cfiCond187) ?RET_LOW load(1, XDATA, add(CFA_XSP16, literal(-5)))
        CFI (cfiCond187) ?RET_HIGH load(1, XDATA, add(CFA_XSP16, literal(-4)))
        CFI (cfiCond187) ?BRET_EXT load(1, XDATA, add(CFA_XSP16, literal(-3)))
        CFI (cfiCond187) DPL0 load(1, XDATA, add(CFA_XSP16, literal(-2)))
        CFI (cfiCond187) DPH0 load(1, XDATA, add(CFA_XSP16, literal(-1)))
        CFI (cfiCond187) CFA_SP SP+-1
        CFI (cfiCond187) CFA_XSP16 add(XSP16, 25)
        CFI Block cfiCond188 Using cfiCommon0
        CFI (cfiCond188) NoFunction
        CFI (cfiCond188) Conditional ??CrossCallReturnLabel_103
        CFI (cfiCond188) R6 load(1, XDATA, add(CFA_XSP16, literal(-24)))
        CFI (cfiCond188) VB load(1, XDATA, add(CFA_XSP16, literal(-23)))
        CFI (cfiCond188) V0 load(1, XDATA, add(CFA_XSP16, literal(-22)))
        CFI (cfiCond188) V1 load(1, XDATA, add(CFA_XSP16, literal(-21)))
        CFI (cfiCond188) V2 load(1, XDATA, add(CFA_XSP16, literal(-20)))
        CFI (cfiCond188) V3 load(1, XDATA, add(CFA_XSP16, literal(-19)))
        CFI (cfiCond188) V4 load(1, XDATA, add(CFA_XSP16, literal(-18)))
        CFI (cfiCond188) V5 load(1, XDATA, add(CFA_XSP16, literal(-17)))
        CFI (cfiCond188) V6 load(1, XDATA, add(CFA_XSP16, literal(-16)))
        CFI (cfiCond188) V7 load(1, XDATA, add(CFA_XSP16, literal(-15)))
        CFI (cfiCond188) V8 load(1, XDATA, add(CFA_XSP16, literal(-14)))
        CFI (cfiCond188) V9 load(1, XDATA, add(CFA_XSP16, literal(-13)))
        CFI (cfiCond188) V10 load(1, XDATA, add(CFA_XSP16, literal(-12)))
        CFI (cfiCond188) V11 load(1, XDATA, add(CFA_XSP16, literal(-11)))
        CFI (cfiCond188) V12 load(1, XDATA, add(CFA_XSP16, literal(-10)))
        CFI (cfiCond188) V13 load(1, XDATA, add(CFA_XSP16, literal(-9)))
        CFI (cfiCond188) V14 load(1, XDATA, add(CFA_XSP16, literal(-8)))
        CFI (cfiCond188) V15 load(1, XDATA, add(CFA_XSP16, literal(-7)))
        CFI (cfiCond188) R7 load(1, XDATA, add(CFA_XSP16, literal(-6)))
        CFI (cfiCond188) ?RET_LOW load(1, XDATA, add(CFA_XSP16, literal(-5)))
        CFI (cfiCond188) ?RET_HIGH load(1, XDATA, add(CFA_XSP16, literal(-4)))
        CFI (cfiCond188) ?BRET_EXT load(1, XDATA, add(CFA_XSP16, literal(-3)))
        CFI (cfiCond188) DPL0 load(1, XDATA, add(CFA_XSP16, literal(-2)))
        CFI (cfiCond188) DPH0 load(1, XDATA, add(CFA_XSP16, literal(-1)))
        CFI (cfiCond188) CFA_SP SP+0
        CFI (cfiCond188) CFA_XSP16 add(XSP16, 25)
        CFI Block cfiCond189 Using cfiCommon0
        CFI (cfiCond189) NoFunction
        CFI (cfiCond189) Conditional ??CrossCallReturnLabel_104
        CFI (cfiCond189) R6 load(1, XDATA, add(CFA_XSP16, literal(-24)))
        CFI (cfiCond189) VB load(1, XDATA, add(CFA_XSP16, literal(-23)))
        CFI (cfiCond189) V0 load(1, XDATA, add(CFA_XSP16, literal(-22)))
        CFI (cfiCond189) V1 load(1, XDATA, add(CFA_XSP16, literal(-21)))
        CFI (cfiCond189) V2 load(1, XDATA, add(CFA_XSP16, literal(-20)))
        CFI (cfiCond189) V3 load(1, XDATA, add(CFA_XSP16, literal(-19)))
        CFI (cfiCond189) V4 load(1, XDATA, add(CFA_XSP16, literal(-18)))
        CFI (cfiCond189) V5 load(1, XDATA, add(CFA_XSP16, literal(-17)))
        CFI (cfiCond189) V6 load(1, XDATA, add(CFA_XSP16, literal(-16)))
        CFI (cfiCond189) V7 load(1, XDATA, add(CFA_XSP16, literal(-15)))
        CFI (cfiCond189) V8 load(1, XDATA, add(CFA_XSP16, literal(-14)))
        CFI (cfiCond189) V9 load(1, XDATA, add(CFA_XSP16, literal(-13)))
        CFI (cfiCond189) V10 load(1, XDATA, add(CFA_XSP16, literal(-12)))
        CFI (cfiCond189) V11 load(1, XDATA, add(CFA_XSP16, literal(-11)))
        CFI (cfiCond189) V12 load(1, XDATA, add(CFA_XSP16, literal(-10)))
        CFI (cfiCond189) V13 load(1, XDATA, add(CFA_XSP16, literal(-9)))
        CFI (cfiCond189) V14 load(1, XDATA, add(CFA_XSP16, literal(-8)))
        CFI (cfiCond189) V15 load(1, XDATA, add(CFA_XSP16, literal(-7)))
        CFI (cfiCond189) R7 load(1, XDATA, add(CFA_XSP16, literal(-6)))
        CFI (cfiCond189) ?RET_LOW load(1, XDATA, add(CFA_XSP16, literal(-5)))
        CFI (cfiCond189) ?RET_HIGH load(1, XDATA, add(CFA_XSP16, literal(-4)))
        CFI (cfiCond189) ?BRET_EXT load(1, XDATA, add(CFA_XSP16, literal(-3)))
        CFI (cfiCond189) DPL0 load(1, XDATA, add(CFA_XSP16, literal(-2)))
        CFI (cfiCond189) DPH0 load(1, XDATA, add(CFA_XSP16, literal(-1)))
        CFI (cfiCond189) CFA_SP SP+-1
        CFI (cfiCond189) CFA_XSP16 add(XSP16, 25)
        CFI Block cfiCond190 Using cfiCommon0
        CFI (cfiCond190) NoFunction
        CFI (cfiCond190) Conditional ??CrossCallReturnLabel_105
        CFI (cfiCond190) R6 load(1, XDATA, add(CFA_XSP16, literal(-24)))
        CFI (cfiCond190) VB load(1, XDATA, add(CFA_XSP16, literal(-23)))
        CFI (cfiCond190) V0 load(1, XDATA, add(CFA_XSP16, literal(-22)))
        CFI (cfiCond190) V1 load(1, XDATA, add(CFA_XSP16, literal(-21)))
        CFI (cfiCond190) V2 load(1, XDATA, add(CFA_XSP16, literal(-20)))
        CFI (cfiCond190) V3 load(1, XDATA, add(CFA_XSP16, literal(-19)))
        CFI (cfiCond190) V4 load(1, XDATA, add(CFA_XSP16, literal(-18)))
        CFI (cfiCond190) V5 load(1, XDATA, add(CFA_XSP16, literal(-17)))
        CFI (cfiCond190) V6 load(1, XDATA, add(CFA_XSP16, literal(-16)))
        CFI (cfiCond190) V7 load(1, XDATA, add(CFA_XSP16, literal(-15)))
        CFI (cfiCond190) V8 load(1, XDATA, add(CFA_XSP16, literal(-14)))
        CFI (cfiCond190) V9 load(1, XDATA, add(CFA_XSP16, literal(-13)))
        CFI (cfiCond190) V10 load(1, XDATA, add(CFA_XSP16, literal(-12)))
        CFI (cfiCond190) V11 load(1, XDATA, add(CFA_XSP16, literal(-11)))
        CFI (cfiCond190) V12 load(1, XDATA, add(CFA_XSP16, literal(-10)))
        CFI (cfiCond190) V13 load(1, XDATA, add(CFA_XSP16, literal(-9)))
        CFI (cfiCond190) V14 load(1, XDATA, add(CFA_XSP16, literal(-8)))
        CFI (cfiCond190) V15 load(1, XDATA, add(CFA_XSP16, literal(-7)))
        CFI (cfiCond190) R7 load(1, XDATA, add(CFA_XSP16, literal(-6)))
        CFI (cfiCond190) ?RET_LOW load(1, XDATA, add(CFA_XSP16, literal(-5)))
        CFI (cfiCond190) ?RET_HIGH load(1, XDATA, add(CFA_XSP16, literal(-4)))
        CFI (cfiCond190) ?BRET_EXT load(1, XDATA, add(CFA_XSP16, literal(-3)))
        CFI (cfiCond190) DPL0 load(1, XDATA, add(CFA_XSP16, literal(-2)))
        CFI (cfiCond190) DPH0 load(1, XDATA, add(CFA_XSP16, literal(-1)))
        CFI (cfiCond190) CFA_SP SP+0
        CFI (cfiCond190) CFA_XSP16 add(XSP16, 25)
        CFI Block cfiCond191 Using cfiCommon0
        CFI (cfiCond191) NoFunction
        CFI (cfiCond191) Conditional ??CrossCallReturnLabel_106
        CFI (cfiCond191) R6 load(1, XDATA, add(CFA_XSP16, literal(-24)))
        CFI (cfiCond191) VB load(1, XDATA, add(CFA_XSP16, literal(-23)))
        CFI (cfiCond191) V0 load(1, XDATA, add(CFA_XSP16, literal(-22)))
        CFI (cfiCond191) V1 load(1, XDATA, add(CFA_XSP16, literal(-21)))
        CFI (cfiCond191) V2 load(1, XDATA, add(CFA_XSP16, literal(-20)))
        CFI (cfiCond191) V3 load(1, XDATA, add(CFA_XSP16, literal(-19)))
        CFI (cfiCond191) V4 load(1, XDATA, add(CFA_XSP16, literal(-18)))
        CFI (cfiCond191) V5 load(1, XDATA, add(CFA_XSP16, literal(-17)))
        CFI (cfiCond191) V6 load(1, XDATA, add(CFA_XSP16, literal(-16)))
        CFI (cfiCond191) V7 load(1, XDATA, add(CFA_XSP16, literal(-15)))
        CFI (cfiCond191) V8 load(1, XDATA, add(CFA_XSP16, literal(-14)))
        CFI (cfiCond191) V9 load(1, XDATA, add(CFA_XSP16, literal(-13)))
        CFI (cfiCond191) V10 load(1, XDATA, add(CFA_XSP16, literal(-12)))
        CFI (cfiCond191) V11 load(1, XDATA, add(CFA_XSP16, literal(-11)))
        CFI (cfiCond191) V12 load(1, XDATA, add(CFA_XSP16, literal(-10)))
        CFI (cfiCond191) V13 load(1, XDATA, add(CFA_XSP16, literal(-9)))
        CFI (cfiCond191) V14 load(1, XDATA, add(CFA_XSP16, literal(-8)))
        CFI (cfiCond191) V15 load(1, XDATA, add(CFA_XSP16, literal(-7)))
        CFI (cfiCond191) R7 load(1, XDATA, add(CFA_XSP16, literal(-6)))
        CFI (cfiCond191) ?RET_LOW load(1, XDATA, add(CFA_XSP16, literal(-5)))
        CFI (cfiCond191) ?RET_HIGH load(1, XDATA, add(CFA_XSP16, literal(-4)))
        CFI (cfiCond191) ?BRET_EXT load(1, XDATA, add(CFA_XSP16, literal(-3)))
        CFI (cfiCond191) DPL0 load(1, XDATA, add(CFA_XSP16, literal(-2)))
        CFI (cfiCond191) DPH0 load(1, XDATA, add(CFA_XSP16, literal(-1)))
        CFI (cfiCond191) CFA_SP SP+0
        CFI (cfiCond191) CFA_XSP16 add(XSP16, 25)
        CFI Block cfiPicker192 Using cfiCommon1
        CFI (cfiPicker192) NoFunction
        CFI (cfiPicker192) Picker
        ADDC    A,#0x0
        MOV     DPH,A
        RET
        CFI EndBlock cfiCond178
        CFI EndBlock cfiCond179
        CFI EndBlock cfiCond180
        CFI EndBlock cfiCond181
        CFI EndBlock cfiCond182
        CFI EndBlock cfiCond183
        CFI EndBlock cfiCond184
        CFI EndBlock cfiCond185
        CFI EndBlock cfiCond186
        CFI EndBlock cfiCond187
        CFI EndBlock cfiCond188
        CFI EndBlock cfiCond189
        CFI EndBlock cfiCond190
        CFI EndBlock cfiCond191
        CFI EndBlock cfiPicker192
//  940 
//  941 /*********************************************************************
//  942  * @fn      afNumEndPoints
//  943  *
//  944  * @brief   Returns the number of endpoints defined (including 0)
//  945  *
//  946  * @param   none
//  947  *
//  948  * @return  number of endpoints
//  949  */

        RSEG BANKED_CODE:CODE:NOROOT(0)
//  950 uint8 afNumEndPoints( void )
afNumEndPoints:
        CFI Block cfiBlock193 Using cfiCommon0
        CFI Function afNumEndPoints
        CODE
//  951 {
        PUSH    DPL
        CFI DPL0 Frame(CFA_SP, 4)
        CFI CFA_SP SP+-4
        PUSH    DPH
        CFI DPH0 Frame(CFA_SP, 5)
        CFI CFA_SP SP+-5
        ; Saved register size: 2
        ; Auto size: 0
//  952   epList_t *epSearch;
//  953   uint8 endpoints;
//  954 
//  955   // Start at the beginning
//  956   epSearch = epList;
        MOV     DPTR,#epList
        LCALL   ??Subroutine37_0 & 0xFFFF
??CrossCallReturnLabel_72:
        MOV     DPL,R0
        MOV     DPH,R1
//  957   endpoints = 0;
        MOV     R1,#0x0
        SJMP    ??CrossCallReturnLabel_24
//  958 
//  959   while ( epSearch )
//  960   {
//  961     endpoints++;
??afNumEndPoints_0:
        INC     R1
//  962     epSearch = epSearch->nextDesc;
        LCALL   ?Subroutine16 & 0xFFFF
//  963   }
??CrossCallReturnLabel_24:
        MOV     A,DPL
        ORL     A,DPH
        JNZ     ??afNumEndPoints_0
//  964 
//  965   return ( endpoints );
        LJMP    ?Subroutine4 & 0xFFFF
        CFI EndBlock cfiBlock193
//  966 }

        RSEG BANKED_CODE:CODE:NOROOT(0)
?Subroutine16:
        CFI Block cfiCond194 Using cfiCommon0
        CFI NoFunction
        CFI Conditional ??CrossCallReturnLabel_23
        CFI R6 load(1, XDATA, add(CFA_XSP16, literal(-12)))
        CFI VB load(1, XDATA, add(CFA_XSP16, literal(-11)))
        CFI V0 load(1, XDATA, add(CFA_XSP16, literal(-10)))
        CFI V1 load(1, XDATA, add(CFA_XSP16, literal(-9)))
        CFI V2 load(1, XDATA, add(CFA_XSP16, literal(-8)))
        CFI V3 load(1, XDATA, add(CFA_XSP16, literal(-7)))
        CFI R7 load(1, XDATA, add(CFA_XSP16, literal(-6)))
        CFI ?RET_LOW load(1, XDATA, add(CFA_XSP16, literal(-5)))
        CFI ?RET_HIGH load(1, XDATA, add(CFA_XSP16, literal(-4)))
        CFI ?BRET_EXT load(1, XDATA, add(CFA_XSP16, literal(-3)))
        CFI DPL0 load(1, XDATA, add(CFA_XSP16, literal(-2)))
        CFI DPH0 load(1, XDATA, add(CFA_XSP16, literal(-1)))
        CFI CFA_SP SP+0
        CFI CFA_XSP16 add(XSP16, 12)
        CFI Block cfiCond195 Using cfiCommon0
        CFI (cfiCond195) NoFunction
        CFI (cfiCond195) Conditional ??CrossCallReturnLabel_24
        CFI (cfiCond195) DPL0 Frame(CFA_SP, 4)
        CFI (cfiCond195) DPH0 Frame(CFA_SP, 5)
        CFI (cfiCond195) CFA_SP SP+-5
        CFI Block cfiPicker196 Using cfiCommon1
        CFI (cfiPicker196) NoFunction
        CFI (cfiPicker196) Picker
        MOVX    A,@DPTR
        MOV     R2,A
        INC     DPTR
        MOVX    A,@DPTR
        MOV     R3,A
        MOV     DPL,R2
        MOV     DPH,R3
        RET
        CFI EndBlock cfiCond194
        CFI EndBlock cfiCond195
        CFI EndBlock cfiPicker196
//  967 
//  968 /*********************************************************************
//  969  * @fn      afEndPoints
//  970  *
//  971  * @brief   Fills in the passed in buffer with the endpoint (numbers).
//  972  *          Use afNumEndPoints to find out how big a buffer to supply.
//  973  *
//  974  * @param   epBuf - pointer to mem used
//  975  *
//  976  * @return  void
//  977  */

        RSEG BANKED_CODE:CODE:NOROOT(0)
//  978 void afEndPoints( uint8 *epBuf, uint8 skipZDO )
afEndPoints:
        CFI Block cfiBlock197 Using cfiCommon0
        CFI Function afEndPoints
        CODE
//  979 {
        PUSH    DPL
        CFI DPL0 Frame(CFA_SP, 4)
        CFI CFA_SP SP+-4
        PUSH    DPH
        CFI DPH0 Frame(CFA_SP, 5)
        CFI CFA_SP SP+-5
        ; Saved register size: 2
        ; Auto size: 0
//  980   epList_t *epSearch;
//  981   uint8 endPoint;
//  982 
//  983   // Start at the beginning
//  984   epSearch = epList;
        MOV     DPTR,#epList
        SJMP    ??afEndPoints_0
//  985 
//  986   while ( epSearch )
//  987   {
//  988     endPoint = epSearch->epDesc->endPoint;
??afEndPoints_1:
        MOV     DPL,R4
        MOV     DPH,R5
        LCALL   ?Subroutine19 & 0xFFFF
??CrossCallReturnLabel_30:
        MOV     R0,A
//  989 
//  990     if ( !skipZDO || endPoint != 0 )
        MOV     A,R1
        JZ      ??afEndPoints_2
        MOV     A,R0
        JZ      ??afEndPoints_3
//  991       *epBuf++ = endPoint;
??afEndPoints_2:
        MOV     A,R0
        MOV     DPL,R2
        MOV     DPH,R3
        MOVX    @DPTR,A
        INC     DPTR
        MOV     R2,DPL
        MOV     R3,DPH
//  992 
//  993     epSearch = epSearch->nextDesc;
??afEndPoints_3:
        MOV     DPL,R4
        MOV     DPH,R5
//  994   }
??afEndPoints_0:
        LCALL   ?Subroutine18 & 0xFFFF
??CrossCallReturnLabel_28:
        MOV     A,R4
        ORL     A,R5
        JNZ     ??afEndPoints_1
//  995 }
        LJMP    ?Subroutine4 & 0xFFFF
        CFI EndBlock cfiBlock197

        RSEG BANKED_CODE:CODE:NOROOT(0)
?Subroutine19:
        CFI Block cfiCond198 Using cfiCommon0
        CFI NoFunction
        CFI Conditional ??CrossCallReturnLabel_29
        CFI DPL0 Frame(CFA_SP, 4)
        CFI DPH0 Frame(CFA_SP, 5)
        CFI CFA_SP SP+-5
        CFI Block cfiCond199 Using cfiCommon0
        CFI (cfiCond199) NoFunction
        CFI (cfiCond199) Conditional ??CrossCallReturnLabel_30
        CFI (cfiCond199) DPL0 Frame(CFA_SP, 4)
        CFI (cfiCond199) DPH0 Frame(CFA_SP, 5)
        CFI (cfiCond199) CFA_SP SP+-5
        CFI Block cfiPicker200 Using cfiCommon1
        CFI (cfiPicker200) NoFunction
        CFI (cfiPicker200) Picker
        LCALL   ?Subroutine33 & 0xFFFF
??CrossCallReturnLabel_92:
        MOVX    A,@DPTR
        RET
        CFI EndBlock cfiCond198
        CFI EndBlock cfiCond199
        CFI EndBlock cfiPicker200
//  996 
//  997 /*********************************************************************
//  998  * @fn      afCopyAddress
//  999  *
// 1000  * @brief   Fills in the passed in afAddrType_t parameter with the corresponding information
// 1001  *          from the zAddrType_t parameter.
// 1002  *
// 1003  * @param   epBuf - pointer to mem used
// 1004  *
// 1005  * @return  void
// 1006  */

        RSEG BANKED_CODE:CODE:NOROOT(0)
// 1007 void afCopyAddress( afAddrType_t *afAddr, zAddrType_t *zAddr )
afCopyAddress:
        CFI Block cfiBlock201 Using cfiCommon0
        CFI Function afCopyAddress
        CODE
// 1008 {
        FUNCALL afCopyAddress, sAddrExtCpy
        LOCFRAME ISTACK, 0, STACK
        LOCFRAME PSTACK, 0, STACK
        LOCFRAME XSTACK, 9, STACK
        LOCFRAME IOVERLAY, 0, STATIC
        LOCFRAME DOVERLAY, 0, STATIC
        ARGFRAME ISTACK, 0, STACK
        ARGFRAME PSTACK, 0, STACK
        ARGFRAME XSTACK, 9, STACK
        ARGFRAME IOVERLAY, 0, STATIC
        ARGFRAME DOVERLAY, 0, STATIC
        MOV     A,#-0x9
        LCALL   ?BANKED_ENTER_XDATA
        CFI DPH0 load(1, XDATA, add(CFA_XSP16, literal(-1)))
        CFI DPL0 load(1, XDATA, add(CFA_XSP16, literal(-2)))
        CFI ?BRET_EXT load(1, XDATA, add(CFA_XSP16, literal(-3)))
        CFI ?RET_HIGH load(1, XDATA, add(CFA_XSP16, literal(-4)))
        CFI ?RET_LOW load(1, XDATA, add(CFA_XSP16, literal(-5)))
        CFI R7 load(1, XDATA, add(CFA_XSP16, literal(-6)))
        CFI V0 load(1, XDATA, add(CFA_XSP16, literal(-7)))
        CFI VB load(1, XDATA, add(CFA_XSP16, literal(-8)))
        CFI R6 load(1, XDATA, add(CFA_XSP16, literal(-9)))
        CFI CFA_SP SP+0
        CFI CFA_XSP16 add(XSP16, 9)
        ; Saved register size: 9
        ; Auto size: 0
        MOV     A,R2
        MOV     R6,A
        MOV     A,R3
        MOV     R7,A
// 1009   afAddr->addrMode = (afAddrMode_t)zAddr->addrMode;
        MOV     A,R4
        ADD     A,#0x8
        MOV     R0,A
        MOV     A,R5
        ADDC    A,#0x0
        MOV     R1,A
        MOV     DPL,R0
        MOV     DPH,R1
        MOVX    A,@DPTR
        MOV     DPL,R6
        MOV     DPH,R7
        INC     DPTR
        INC     DPTR
        INC     DPTR
        INC     DPTR
        INC     DPTR
        INC     DPTR
        INC     DPTR
        INC     DPTR
        MOVX    @DPTR,A
// 1010   if ( zAddr->addrMode == Addr64Bit )
        MOV     DPL,R0
        MOV     DPH,R1
        MOVX    A,@DPTR
        XRL     A,#0x3
        JNZ     ??afCopyAddress_0
// 1011   {
// 1012     (void)osal_cpyExtAddr( afAddr->addr.extAddr, zAddr->addr.extAddr );
        ; Setup parameters for call to function sAddrExtCpy
        LCALL   ??sAddrExtCpy?relay
        SJMP    ??CrossCallReturnLabel_64
// 1013   }
// 1014   else
// 1015   {
// 1016     afAddr->addr.shortAddr = zAddr->addr.shortAddr;
??afCopyAddress_0:
        MOV     DPL,R4
        MOV     DPH,R5
        LCALL   ?Subroutine13 & 0xFFFF
// 1017   }
??CrossCallReturnLabel_20:
        LCALL   ??Subroutine36_0 & 0xFFFF
// 1018 
// 1019   // Since zAddrType_t has no INTER-PAN information, set the panId member to zero.
// 1020   afAddr->panId = 0;
??CrossCallReturnLabel_64:
        MOV     DPL,R6
        MOV     DPH,R7
        INC     DPTR
        INC     DPTR
        INC     DPTR
        INC     DPTR
        INC     DPTR
        INC     DPTR
        INC     DPTR
        INC     DPTR
        INC     DPTR
        INC     DPTR
        CLR     A
        MOVX    @DPTR,A
        INC     DPTR
        MOVX    @DPTR,A
// 1021 }
        LJMP    ?Subroutine2 & 0xFFFF
        CFI EndBlock cfiBlock201

        RSEG BANKED_CODE:CODE:NOROOT(0)
?Subroutine13:
        CFI Block cfiCond202 Using cfiCommon0
        CFI NoFunction
        CFI Conditional ??CrossCallReturnLabel_19
        CFI R6 load(1, XDATA, add(CFA_XSP16, literal(-24)))
        CFI VB load(1, XDATA, add(CFA_XSP16, literal(-23)))
        CFI V0 load(1, XDATA, add(CFA_XSP16, literal(-22)))
        CFI V1 load(1, XDATA, add(CFA_XSP16, literal(-21)))
        CFI V2 load(1, XDATA, add(CFA_XSP16, literal(-20)))
        CFI V3 load(1, XDATA, add(CFA_XSP16, literal(-19)))
        CFI V4 load(1, XDATA, add(CFA_XSP16, literal(-18)))
        CFI V5 load(1, XDATA, add(CFA_XSP16, literal(-17)))
        CFI V6 load(1, XDATA, add(CFA_XSP16, literal(-16)))
        CFI V7 load(1, XDATA, add(CFA_XSP16, literal(-15)))
        CFI V8 load(1, XDATA, add(CFA_XSP16, literal(-14)))
        CFI V9 load(1, XDATA, add(CFA_XSP16, literal(-13)))
        CFI V10 load(1, XDATA, add(CFA_XSP16, literal(-12)))
        CFI V11 load(1, XDATA, add(CFA_XSP16, literal(-11)))
        CFI V12 load(1, XDATA, add(CFA_XSP16, literal(-10)))
        CFI V13 load(1, XDATA, add(CFA_XSP16, literal(-9)))
        CFI V14 load(1, XDATA, add(CFA_XSP16, literal(-8)))
        CFI V15 load(1, XDATA, add(CFA_XSP16, literal(-7)))
        CFI R7 load(1, XDATA, add(CFA_XSP16, literal(-6)))
        CFI ?RET_LOW load(1, XDATA, add(CFA_XSP16, literal(-5)))
        CFI ?RET_HIGH load(1, XDATA, add(CFA_XSP16, literal(-4)))
        CFI ?BRET_EXT load(1, XDATA, add(CFA_XSP16, literal(-3)))
        CFI DPL0 load(1, XDATA, add(CFA_XSP16, literal(-2)))
        CFI DPH0 load(1, XDATA, add(CFA_XSP16, literal(-1)))
        CFI CFA_SP SP+0
        CFI CFA_XSP16 add(XSP16, 27)
        CFI Block cfiCond203 Using cfiCommon0
        CFI (cfiCond203) NoFunction
        CFI (cfiCond203) Conditional ??CrossCallReturnLabel_20
        CFI (cfiCond203) R6 load(1, XDATA, add(CFA_XSP16, literal(-9)))
        CFI (cfiCond203) VB load(1, XDATA, add(CFA_XSP16, literal(-8)))
        CFI (cfiCond203) V0 load(1, XDATA, add(CFA_XSP16, literal(-7)))
        CFI (cfiCond203) R7 load(1, XDATA, add(CFA_XSP16, literal(-6)))
        CFI (cfiCond203) ?RET_LOW load(1, XDATA, add(CFA_XSP16, literal(-5)))
        CFI (cfiCond203) ?RET_HIGH load(1, XDATA, add(CFA_XSP16, literal(-4)))
        CFI (cfiCond203) ?BRET_EXT load(1, XDATA, add(CFA_XSP16, literal(-3)))
        CFI (cfiCond203) DPL0 load(1, XDATA, add(CFA_XSP16, literal(-2)))
        CFI (cfiCond203) DPH0 load(1, XDATA, add(CFA_XSP16, literal(-1)))
        CFI (cfiCond203) CFA_SP SP+0
        CFI (cfiCond203) CFA_XSP16 add(XSP16, 9)
        CFI Block cfiPicker204 Using cfiCommon1
        CFI (cfiPicker204) NoFunction
        CFI (cfiPicker204) Picker
        LCALL   ?Subroutine34 & 0xFFFF
??CrossCallReturnLabel_56:
        RET
        CFI EndBlock cfiCond202
        CFI EndBlock cfiCond203
        CFI EndBlock cfiPicker204

        RSEG BANKED_CODE:CODE:NOROOT(0)
?Subroutine34:
        CFI Block cfiCond205 Using cfiCommon0
        CFI NoFunction
        CFI Conditional ??CrossCallReturnLabel_55, ??CrossCallReturnLabel_15
        CFI R6 load(1, XDATA, add(CFA_XSP16, literal(-24)))
        CFI VB load(1, XDATA, add(CFA_XSP16, literal(-23)))
        CFI V0 load(1, XDATA, add(CFA_XSP16, literal(-22)))
        CFI V1 load(1, XDATA, add(CFA_XSP16, literal(-21)))
        CFI V2 load(1, XDATA, add(CFA_XSP16, literal(-20)))
        CFI V3 load(1, XDATA, add(CFA_XSP16, literal(-19)))
        CFI V4 load(1, XDATA, add(CFA_XSP16, literal(-18)))
        CFI V5 load(1, XDATA, add(CFA_XSP16, literal(-17)))
        CFI V6 load(1, XDATA, add(CFA_XSP16, literal(-16)))
        CFI V7 load(1, XDATA, add(CFA_XSP16, literal(-15)))
        CFI V8 load(1, XDATA, add(CFA_XSP16, literal(-14)))
        CFI V9 load(1, XDATA, add(CFA_XSP16, literal(-13)))
        CFI V10 load(1, XDATA, add(CFA_XSP16, literal(-12)))
        CFI V11 load(1, XDATA, add(CFA_XSP16, literal(-11)))
        CFI V12 load(1, XDATA, add(CFA_XSP16, literal(-10)))
        CFI V13 load(1, XDATA, add(CFA_XSP16, literal(-9)))
        CFI V14 load(1, XDATA, add(CFA_XSP16, literal(-8)))
        CFI V15 load(1, XDATA, add(CFA_XSP16, literal(-7)))
        CFI R7 load(1, XDATA, add(CFA_XSP16, literal(-6)))
        CFI ?RET_LOW load(1, XDATA, add(CFA_XSP16, literal(-5)))
        CFI ?RET_HIGH load(1, XDATA, add(CFA_XSP16, literal(-4)))
        CFI ?BRET_EXT load(1, XDATA, add(CFA_XSP16, literal(-3)))
        CFI DPL0 load(1, XDATA, add(CFA_XSP16, literal(-2)))
        CFI DPH0 load(1, XDATA, add(CFA_XSP16, literal(-1)))
        CFI CFA_SP SP+0
        CFI CFA_XSP16 add(XSP16, 25)
        CFI Block cfiCond206 Using cfiCommon0
        CFI (cfiCond206) NoFunction
        CFI (cfiCond206) Conditional ??CrossCallReturnLabel_55, ??CrossCallReturnLabel_16
        CFI (cfiCond206) R6 load(1, XDATA, add(CFA_XSP16, literal(-24)))
        CFI (cfiCond206) VB load(1, XDATA, add(CFA_XSP16, literal(-23)))
        CFI (cfiCond206) V0 load(1, XDATA, add(CFA_XSP16, literal(-22)))
        CFI (cfiCond206) V1 load(1, XDATA, add(CFA_XSP16, literal(-21)))
        CFI (cfiCond206) V2 load(1, XDATA, add(CFA_XSP16, literal(-20)))
        CFI (cfiCond206) V3 load(1, XDATA, add(CFA_XSP16, literal(-19)))
        CFI (cfiCond206) V4 load(1, XDATA, add(CFA_XSP16, literal(-18)))
        CFI (cfiCond206) V5 load(1, XDATA, add(CFA_XSP16, literal(-17)))
        CFI (cfiCond206) V6 load(1, XDATA, add(CFA_XSP16, literal(-16)))
        CFI (cfiCond206) V7 load(1, XDATA, add(CFA_XSP16, literal(-15)))
        CFI (cfiCond206) V8 load(1, XDATA, add(CFA_XSP16, literal(-14)))
        CFI (cfiCond206) V9 load(1, XDATA, add(CFA_XSP16, literal(-13)))
        CFI (cfiCond206) V10 load(1, XDATA, add(CFA_XSP16, literal(-12)))
        CFI (cfiCond206) V11 load(1, XDATA, add(CFA_XSP16, literal(-11)))
        CFI (cfiCond206) V12 load(1, XDATA, add(CFA_XSP16, literal(-10)))
        CFI (cfiCond206) V13 load(1, XDATA, add(CFA_XSP16, literal(-9)))
        CFI (cfiCond206) V14 load(1, XDATA, add(CFA_XSP16, literal(-8)))
        CFI (cfiCond206) V15 load(1, XDATA, add(CFA_XSP16, literal(-7)))
        CFI (cfiCond206) R7 load(1, XDATA, add(CFA_XSP16, literal(-6)))
        CFI (cfiCond206) ?RET_LOW load(1, XDATA, add(CFA_XSP16, literal(-5)))
        CFI (cfiCond206) ?RET_HIGH load(1, XDATA, add(CFA_XSP16, literal(-4)))
        CFI (cfiCond206) ?BRET_EXT load(1, XDATA, add(CFA_XSP16, literal(-3)))
        CFI (cfiCond206) DPL0 load(1, XDATA, add(CFA_XSP16, literal(-2)))
        CFI (cfiCond206) DPH0 load(1, XDATA, add(CFA_XSP16, literal(-1)))
        CFI (cfiCond206) CFA_SP SP+0
        CFI (cfiCond206) CFA_XSP16 add(XSP16, 25)
        CFI Block cfiCond207 Using cfiCommon0
        CFI (cfiCond207) NoFunction
        CFI (cfiCond207) Conditional ??CrossCallReturnLabel_56, ??CrossCallReturnLabel_19
        CFI (cfiCond207) R6 load(1, XDATA, add(CFA_XSP16, literal(-24)))
        CFI (cfiCond207) VB load(1, XDATA, add(CFA_XSP16, literal(-23)))
        CFI (cfiCond207) V0 load(1, XDATA, add(CFA_XSP16, literal(-22)))
        CFI (cfiCond207) V1 load(1, XDATA, add(CFA_XSP16, literal(-21)))
        CFI (cfiCond207) V2 load(1, XDATA, add(CFA_XSP16, literal(-20)))
        CFI (cfiCond207) V3 load(1, XDATA, add(CFA_XSP16, literal(-19)))
        CFI (cfiCond207) V4 load(1, XDATA, add(CFA_XSP16, literal(-18)))
        CFI (cfiCond207) V5 load(1, XDATA, add(CFA_XSP16, literal(-17)))
        CFI (cfiCond207) V6 load(1, XDATA, add(CFA_XSP16, literal(-16)))
        CFI (cfiCond207) V7 load(1, XDATA, add(CFA_XSP16, literal(-15)))
        CFI (cfiCond207) V8 load(1, XDATA, add(CFA_XSP16, literal(-14)))
        CFI (cfiCond207) V9 load(1, XDATA, add(CFA_XSP16, literal(-13)))
        CFI (cfiCond207) V10 load(1, XDATA, add(CFA_XSP16, literal(-12)))
        CFI (cfiCond207) V11 load(1, XDATA, add(CFA_XSP16, literal(-11)))
        CFI (cfiCond207) V12 load(1, XDATA, add(CFA_XSP16, literal(-10)))
        CFI (cfiCond207) V13 load(1, XDATA, add(CFA_XSP16, literal(-9)))
        CFI (cfiCond207) V14 load(1, XDATA, add(CFA_XSP16, literal(-8)))
        CFI (cfiCond207) V15 load(1, XDATA, add(CFA_XSP16, literal(-7)))
        CFI (cfiCond207) R7 load(1, XDATA, add(CFA_XSP16, literal(-6)))
        CFI (cfiCond207) ?RET_LOW load(1, XDATA, add(CFA_XSP16, literal(-5)))
        CFI (cfiCond207) ?RET_HIGH load(1, XDATA, add(CFA_XSP16, literal(-4)))
        CFI (cfiCond207) ?BRET_EXT load(1, XDATA, add(CFA_XSP16, literal(-3)))
        CFI (cfiCond207) DPL0 load(1, XDATA, add(CFA_XSP16, literal(-2)))
        CFI (cfiCond207) DPH0 load(1, XDATA, add(CFA_XSP16, literal(-1)))
        CFI (cfiCond207) CFA_SP SP+0
        CFI (cfiCond207) CFA_XSP16 add(XSP16, 27)
        CFI Block cfiCond208 Using cfiCommon0
        CFI (cfiCond208) NoFunction
        CFI (cfiCond208) Conditional ??CrossCallReturnLabel_56, ??CrossCallReturnLabel_20
        CFI (cfiCond208) R6 load(1, XDATA, add(CFA_XSP16, literal(-9)))
        CFI (cfiCond208) VB load(1, XDATA, add(CFA_XSP16, literal(-8)))
        CFI (cfiCond208) V0 load(1, XDATA, add(CFA_XSP16, literal(-7)))
        CFI (cfiCond208) R7 load(1, XDATA, add(CFA_XSP16, literal(-6)))
        CFI (cfiCond208) ?RET_LOW load(1, XDATA, add(CFA_XSP16, literal(-5)))
        CFI (cfiCond208) ?RET_HIGH load(1, XDATA, add(CFA_XSP16, literal(-4)))
        CFI (cfiCond208) ?BRET_EXT load(1, XDATA, add(CFA_XSP16, literal(-3)))
        CFI (cfiCond208) DPL0 load(1, XDATA, add(CFA_XSP16, literal(-2)))
        CFI (cfiCond208) DPH0 load(1, XDATA, add(CFA_XSP16, literal(-1)))
        CFI (cfiCond208) CFA_SP SP+0
        CFI (cfiCond208) CFA_XSP16 add(XSP16, 9)
        CFI Block cfiPicker209 Using cfiCommon1
        CFI (cfiPicker209) NoFunction
        CFI (cfiPicker209) Picker
        MOVX    A,@DPTR
        MOV     R0,A
        INC     DPTR
        MOVX    A,@DPTR
        MOV     R1,A
        MOV     DPL,R6
        MOV     DPH,R7
        RET
        CFI EndBlock cfiCond205
        CFI EndBlock cfiCond206
        CFI EndBlock cfiCond207
        CFI EndBlock cfiCond208
        CFI EndBlock cfiPicker209
// 1022 
// 1023 /**************************************************************************************************
// 1024  * @fn          afAPSF_ConfigGet
// 1025  *
// 1026  * @brief       This function ascertains the fragmentation configuration that corresponds to
// 1027  *              the specified EndPoint.
// 1028  *
// 1029  * input parameters
// 1030  *
// 1031  * @param       endPoint - The source EP of a Tx or destination EP of a Rx fragmented message.
// 1032  *
// 1033  * output parameters
// 1034  *
// 1035  * @param       pCfg - A pointer to an APSF configuration structure to fill with values.
// 1036  *
// 1037  * @return      None.
// 1038  */

        RSEG BANKED_CODE:CODE:NOROOT(0)
// 1039 void afAPSF_ConfigGet(uint8 endPoint, afAPSF_Config_t *pCfg)
afAPSF_ConfigGet:
        CFI Block cfiBlock210 Using cfiCommon0
        CFI Function afAPSF_ConfigGet
        CODE
// 1040 {
        FUNCALL afAPSF_ConfigGet, afFindEndPointDescList
        LOCFRAME ISTACK, 0, STACK
        LOCFRAME PSTACK, 0, STACK
        LOCFRAME XSTACK, 12, STACK
        LOCFRAME IOVERLAY, 0, STATIC
        LOCFRAME DOVERLAY, 0, STATIC
        ARGFRAME ISTACK, 0, STACK
        ARGFRAME PSTACK, 0, STACK
        ARGFRAME XSTACK, 12, STACK
        ARGFRAME IOVERLAY, 0, STATIC
        ARGFRAME DOVERLAY, 0, STATIC
        FUNCALL afAPSF_ConfigGet, osal_memcpy
        LOCFRAME ISTACK, 0, STACK
        LOCFRAME PSTACK, 0, STACK
        LOCFRAME XSTACK, 15, STACK
        LOCFRAME IOVERLAY, 0, STATIC
        LOCFRAME DOVERLAY, 0, STATIC
        ARGFRAME ISTACK, 0, STACK
        ARGFRAME PSTACK, 0, STACK
        ARGFRAME XSTACK, 15, STACK
        ARGFRAME IOVERLAY, 0, STATIC
        ARGFRAME DOVERLAY, 0, STATIC
        MOV     A,#-0xc
        LCALL   ?BANKED_ENTER_XDATA
        CFI DPH0 load(1, XDATA, add(CFA_XSP16, literal(-1)))
        CFI DPL0 load(1, XDATA, add(CFA_XSP16, literal(-2)))
        CFI ?BRET_EXT load(1, XDATA, add(CFA_XSP16, literal(-3)))
        CFI ?RET_HIGH load(1, XDATA, add(CFA_XSP16, literal(-4)))
        CFI ?RET_LOW load(1, XDATA, add(CFA_XSP16, literal(-5)))
        CFI R7 load(1, XDATA, add(CFA_XSP16, literal(-6)))
        CFI V3 load(1, XDATA, add(CFA_XSP16, literal(-7)))
        CFI V2 load(1, XDATA, add(CFA_XSP16, literal(-8)))
        CFI V1 load(1, XDATA, add(CFA_XSP16, literal(-9)))
        CFI V0 load(1, XDATA, add(CFA_XSP16, literal(-10)))
        CFI VB load(1, XDATA, add(CFA_XSP16, literal(-11)))
        CFI R6 load(1, XDATA, add(CFA_XSP16, literal(-12)))
        CFI CFA_SP SP+0
        CFI CFA_XSP16 add(XSP16, 12)
        ; Saved register size: 12
        ; Auto size: 0
        MOV     A,R2
        MOV     R6,A
        MOV     A,R3
        LCALL   ?Subroutine28 & 0xFFFF
// 1041   epList_t *pList = afFindEndPointDescList(endPoint);
// 1042 
// 1043   if (pList == NULL)
??CrossCallReturnLabel_46:
        JNZ     ??afAPSF_ConfigGet_0
// 1044   {
// 1045     pCfg->frameDelay = APSF_DEFAULT_INTERFRAME_DELAY;
        MOV     DPL,R6
        MOV     DPH,R7
        MOV     A,#0x32
        MOVX    @DPTR,A
// 1046     pCfg->windowSize = APSF_DEFAULT_WINDOW_SIZE;
        INC     DPTR
        MOV     A,#0x1
        MOVX    @DPTR,A
        SJMP    ??afAPSF_ConfigGet_1
// 1047   }
// 1048   else
// 1049   {
// 1050     (void)osal_memcpy(pCfg, &pList->apsfCfg, sizeof(afAPSF_Config_t));
??afAPSF_ConfigGet_0:
        ; Setup parameters for call to function osal_memcpy
        MOV     A,R0
        ADD     A,#0x6
        MOV     ?V0 + 0,A
        MOV     A,R1
        ADDC    A,#0x0
        MOV     ?V0 + 1,A
        MOV     ?V0 + 2,#0x0
        MOV     R0,#?V0 + 0
        LCALL   ?PUSH_XSTACK_I_THREE
        CFI CFA_XSP16 add(XSP16, 15)
        MOV     R4,#0x2
        MOV     R5,#0x0
        MOV     A,R6
        MOV     R2,A
        MOV     A,R7
        MOV     R3,A
        LCALL   ??osal_memcpy?relay
        MOV     A,#0x3
        LCALL   ?DEALLOC_XSTACK8
        CFI CFA_XSP16 add(XSP16, 12)
        CFI EndBlock cfiBlock210
// 1051   }
// 1052 }
??afAPSF_ConfigGet_1:
        REQUIRE ?Subroutine0
        ; // Fall through to label ?Subroutine0

        RSEG BANKED_CODE:CODE:NOROOT(0)
?Subroutine0:
        CFI Block cfiBlock211 Using cfiCommon0
        CFI NoFunction
        CFI CFA_SP SP+0
        CFI CFA_XSP16 add(XSP16, 12)
        CFI VB load(1, XDATA, add(CFA_XSP16, literal(-11)))
        CFI DPL0 load(1, XDATA, add(CFA_XSP16, literal(-2)))
        CFI DPH0 load(1, XDATA, add(CFA_XSP16, literal(-1)))
        CFI R6 load(1, XDATA, add(CFA_XSP16, literal(-12)))
        CFI R7 load(1, XDATA, add(CFA_XSP16, literal(-6)))
        CFI V0 load(1, XDATA, add(CFA_XSP16, literal(-10)))
        CFI V1 load(1, XDATA, add(CFA_XSP16, literal(-9)))
        CFI V2 load(1, XDATA, add(CFA_XSP16, literal(-8)))
        CFI V3 load(1, XDATA, add(CFA_XSP16, literal(-7)))
        CFI ?BRET_EXT load(1, XDATA, add(CFA_XSP16, literal(-3)))
        CFI ?RET_HIGH load(1, XDATA, add(CFA_XSP16, literal(-4)))
        CFI ?RET_LOW load(1, XDATA, add(CFA_XSP16, literal(-5)))
        MOV     R7,#0x4
        LJMP    ?BANKED_LEAVE_XDATA
        CFI EndBlock cfiBlock211

        RSEG BANKED_CODE:CODE:NOROOT(0)
?Subroutine28:
        CFI Block cfiCond212 Using cfiCommon0
        CFI NoFunction
        CFI Conditional ??CrossCallReturnLabel_45
        CFI R6 load(1, XDATA, add(CFA_XSP16, literal(-10)))
        CFI VB load(1, XDATA, add(CFA_XSP16, literal(-9)))
        CFI V0 load(1, XDATA, add(CFA_XSP16, literal(-8)))
        CFI V1 load(1, XDATA, add(CFA_XSP16, literal(-7)))
        CFI R7 load(1, XDATA, add(CFA_XSP16, literal(-6)))
        CFI ?RET_LOW load(1, XDATA, add(CFA_XSP16, literal(-5)))
        CFI ?RET_HIGH load(1, XDATA, add(CFA_XSP16, literal(-4)))
        CFI ?BRET_EXT load(1, XDATA, add(CFA_XSP16, literal(-3)))
        CFI DPL0 load(1, XDATA, add(CFA_XSP16, literal(-2)))
        CFI DPH0 load(1, XDATA, add(CFA_XSP16, literal(-1)))
        CFI CFA_SP SP+0
        CFI CFA_XSP16 add(XSP16, 10)
        CFI Block cfiCond213 Using cfiCommon0
        CFI (cfiCond213) NoFunction
        CFI (cfiCond213) Conditional ??CrossCallReturnLabel_46
        CFI (cfiCond213) R6 load(1, XDATA, add(CFA_XSP16, literal(-12)))
        CFI (cfiCond213) VB load(1, XDATA, add(CFA_XSP16, literal(-11)))
        CFI (cfiCond213) V0 load(1, XDATA, add(CFA_XSP16, literal(-10)))
        CFI (cfiCond213) V1 load(1, XDATA, add(CFA_XSP16, literal(-9)))
        CFI (cfiCond213) V2 load(1, XDATA, add(CFA_XSP16, literal(-8)))
        CFI (cfiCond213) V3 load(1, XDATA, add(CFA_XSP16, literal(-7)))
        CFI (cfiCond213) R7 load(1, XDATA, add(CFA_XSP16, literal(-6)))
        CFI (cfiCond213) ?RET_LOW load(1, XDATA, add(CFA_XSP16, literal(-5)))
        CFI (cfiCond213) ?RET_HIGH load(1, XDATA, add(CFA_XSP16, literal(-4)))
        CFI (cfiCond213) ?BRET_EXT load(1, XDATA, add(CFA_XSP16, literal(-3)))
        CFI (cfiCond213) DPL0 load(1, XDATA, add(CFA_XSP16, literal(-2)))
        CFI (cfiCond213) DPH0 load(1, XDATA, add(CFA_XSP16, literal(-1)))
        CFI (cfiCond213) CFA_SP SP+0
        CFI (cfiCond213) CFA_XSP16 add(XSP16, 12)
        CFI Block cfiPicker214 Using cfiCommon1
        CFI (cfiPicker214) NoFunction
        CFI (cfiPicker214) Picker
        MOV     R7,A
        ; Setup parameters for call to function afFindEndPointDescList
        ; Setup parameters for call to function afFindEndPointDescList
        LCALL   ??afFindEndPointDescList?relay
        MOV     ?V0 + 0,R2
        MOV     ?V0 + 1,R3
        MOV     R0,?V0 + 0
        MOV     R1,?V0 + 1
        MOV     A,R0
        ORL     A,R1
        RET
        CFI EndBlock cfiCond212
        CFI EndBlock cfiCond213
        CFI EndBlock cfiPicker214
// 1053 
// 1054 /**************************************************************************************************
// 1055  * @fn          afAPSF_ConfigSet
// 1056  *
// 1057  * @brief       This function attempts to set the fragmentation configuration that corresponds to
// 1058  *              the specified EndPoint.
// 1059  *
// 1060  * input parameters
// 1061  *
// 1062  * @param       endPoint - The specific EndPoint for which to set the fragmentation configuration.
// 1063  * @param       pCfg - A pointer to an APSF configuration structure to fill with values.
// 1064  *
// 1065  * output parameters
// 1066  *
// 1067  * None.
// 1068  *
// 1069  * @return      afStatus_SUCCESS for success.
// 1070  *              afStatus_INVALID_PARAMETER if the specified EndPoint is not registered.
// 1071  */

        RSEG BANKED_CODE:CODE:NOROOT(0)
// 1072 afStatus_t afAPSF_ConfigSet(uint8 endPoint, afAPSF_Config_t *pCfg)
afAPSF_ConfigSet:
        CFI Block cfiBlock215 Using cfiCommon0
        CFI Function afAPSF_ConfigSet
        CODE
// 1073 {
        FUNCALL afAPSF_ConfigSet, afFindEndPointDescList
        LOCFRAME ISTACK, 0, STACK
        LOCFRAME PSTACK, 0, STACK
        LOCFRAME XSTACK, 12, STACK
        LOCFRAME IOVERLAY, 0, STATIC
        LOCFRAME DOVERLAY, 0, STATIC
        ARGFRAME ISTACK, 0, STACK
        ARGFRAME PSTACK, 0, STACK
        ARGFRAME XSTACK, 12, STACK
        ARGFRAME IOVERLAY, 0, STATIC
        ARGFRAME DOVERLAY, 0, STATIC
        FUNCALL afAPSF_ConfigSet, osal_memcpy
        LOCFRAME ISTACK, 0, STACK
        LOCFRAME PSTACK, 0, STACK
        LOCFRAME XSTACK, 15, STACK
        LOCFRAME IOVERLAY, 0, STATIC
        LOCFRAME DOVERLAY, 0, STATIC
        ARGFRAME ISTACK, 0, STACK
        ARGFRAME PSTACK, 0, STACK
        ARGFRAME XSTACK, 15, STACK
        ARGFRAME IOVERLAY, 0, STATIC
        ARGFRAME DOVERLAY, 0, STATIC
        MOV     A,#-0xc
        LCALL   ?BANKED_ENTER_XDATA
        CFI DPH0 load(1, XDATA, add(CFA_XSP16, literal(-1)))
        CFI DPL0 load(1, XDATA, add(CFA_XSP16, literal(-2)))
        CFI ?BRET_EXT load(1, XDATA, add(CFA_XSP16, literal(-3)))
        CFI ?RET_HIGH load(1, XDATA, add(CFA_XSP16, literal(-4)))
        CFI ?RET_LOW load(1, XDATA, add(CFA_XSP16, literal(-5)))
        CFI R7 load(1, XDATA, add(CFA_XSP16, literal(-6)))
        CFI V3 load(1, XDATA, add(CFA_XSP16, literal(-7)))
        CFI V2 load(1, XDATA, add(CFA_XSP16, literal(-8)))
        CFI V1 load(1, XDATA, add(CFA_XSP16, literal(-9)))
        CFI V0 load(1, XDATA, add(CFA_XSP16, literal(-10)))
        CFI VB load(1, XDATA, add(CFA_XSP16, literal(-11)))
        CFI R6 load(1, XDATA, add(CFA_XSP16, literal(-12)))
        CFI CFA_SP SP+0
        CFI CFA_XSP16 add(XSP16, 12)
        ; Saved register size: 12
        ; Auto size: 0
        MOV     A,R2
        MOV     R6,A
        MOV     A,R3
        MOV     R7,A
// 1074   epList_t *pList = afFindEndPointDescList(endPoint);
        ; Setup parameters for call to function afFindEndPointDescList
        LCALL   ??afFindEndPointDescList?relay
// 1075 
// 1076   if (pList == NULL)
        MOV     A,R2
        ORL     A,R3
        JNZ     ??afAPSF_ConfigSet_0
// 1077   {
// 1078     return afStatus_INVALID_PARAMETER;
        MOV     R1,#0x2
        SJMP    ??afAPSF_ConfigSet_1
// 1079   }
// 1080 
// 1081   (void)osal_memcpy(&pList->apsfCfg, pCfg, sizeof(afAPSF_Config_t));
??afAPSF_ConfigSet_0:
        ; Setup parameters for call to function osal_memcpy
        MOV     ?V0 + 0,R6
        MOV     ?V0 + 1,R7
        MOV     ?V0 + 2,#0x0
        MOV     R0,#?V0 + 0
        LCALL   ?PUSH_XSTACK_I_THREE
        CFI CFA_XSP16 add(XSP16, 15)
        MOV     R4,#0x2
        MOV     R5,#0x0
        MOV     A,R2
        ADD     A,#0x6
        MOV     R2,A
        MOV     A,R3
        ADDC    A,#0x0
        MOV     R3,A
        LCALL   ??osal_memcpy?relay
        MOV     A,#0x3
        LCALL   ?DEALLOC_XSTACK8
        CFI CFA_XSP16 add(XSP16, 12)
// 1082   return afStatus_SUCCESS;
        MOV     R1,#0x0
??afAPSF_ConfigSet_1:
        SJMP    ?Subroutine0
        CFI EndBlock cfiBlock215
// 1083 }

        RSEG XDATA_ID:CODE:NOROOT(0)
`?<Initializer for AF_DataRequestDiscoverRoute>`:
        DATA8
        DB 1

        RSEG BANK_RELAYS:CODE:REORDER:NOROOT(0)
??afRegisterExtended?relay:
        LCALL   ?BDISPATCH
        DATA
        DC24    afRegisterExtended

        RSEG BANK_RELAYS:CODE:REORDER:NOROOT(0)
??afRegister?relay:
        LCALL   ?BDISPATCH
        DATA
        DC24    afRegister

        RSEG BANK_RELAYS:CODE:REORDER:NOROOT(0)
??afDelete?relay:
        LCALL   ?BDISPATCH
        DATA
        DC24    afDelete

        RSEG BANK_RELAYS:CODE:REORDER:NOROOT(0)
??afDataConfirm?relay:
        LCALL   ?BDISPATCH
        DATA
        DC24    afDataConfirm

        RSEG BANK_RELAYS:CODE:REORDER:NOROOT(0)
??afIncomingData?relay:
        LCALL   ?BDISPATCH
        DATA
        DC24    afIncomingData

        RSEG BANK_RELAYS:CODE:REORDER:NOROOT(0)
??afBuildMSGIncoming?relay:
        LCALL   ?BDISPATCH
        DATA
        DC24    afBuildMSGIncoming

        RSEG BANK_RELAYS:CODE:REORDER:NOROOT(0)
??AF_DataRequest?relay:
        LCALL   ?BDISPATCH
        DATA
        DC24    AF_DataRequest

        RSEG BANK_RELAYS:CODE:REORDER:NOROOT(0)
??AF_DataRequestSrcRtg?relay:
        LCALL   ?BDISPATCH
        DATA
        DC24    AF_DataRequestSrcRtg

        RSEG BANK_RELAYS:CODE:REORDER:NOROOT(0)
??afFindEndPointDescList?relay:
        LCALL   ?BDISPATCH
        DATA
        DC24    afFindEndPointDescList

        RSEG BANK_RELAYS:CODE:REORDER:NOROOT(0)
??afFindEndPointDesc?relay:
        LCALL   ?BDISPATCH
        DATA
        DC24    afFindEndPointDesc

        RSEG BANK_RELAYS:CODE:REORDER:NOROOT(0)
??afFindSimpleDesc?relay:
        LCALL   ?BDISPATCH
        DATA
        DC24    afFindSimpleDesc

        RSEG BANK_RELAYS:CODE:REORDER:NOROOT(0)
??afDataReqMTU?relay:
        LCALL   ?BDISPATCH
        DATA
        DC24    afDataReqMTU

        RSEG BANK_RELAYS:CODE:REORDER:NOROOT(0)
??afGetMatch?relay:
        LCALL   ?BDISPATCH
        DATA
        DC24    afGetMatch

        RSEG BANK_RELAYS:CODE:REORDER:NOROOT(0)
??afSetMatch?relay:
        LCALL   ?BDISPATCH
        DATA
        DC24    afSetMatch

        RSEG BANK_RELAYS:CODE:REORDER:NOROOT(0)
??afNumEndPoints?relay:
        LCALL   ?BDISPATCH
        DATA
        DC24    afNumEndPoints

        RSEG BANK_RELAYS:CODE:REORDER:NOROOT(0)
??afEndPoints?relay:
        LCALL   ?BDISPATCH
        DATA
        DC24    afEndPoints

        RSEG BANK_RELAYS:CODE:REORDER:NOROOT(0)
??afCopyAddress?relay:
        LCALL   ?BDISPATCH
        DATA
        DC24    afCopyAddress

        RSEG BANK_RELAYS:CODE:REORDER:NOROOT(0)
??afAPSF_ConfigGet?relay:
        LCALL   ?BDISPATCH
        DATA
        DC24    afAPSF_ConfigGet

        RSEG BANK_RELAYS:CODE:REORDER:NOROOT(0)
??afAPSF_ConfigSet?relay:
        LCALL   ?BDISPATCH
        DATA
        DC24    afAPSF_ConfigSet

        END
// 1084 
// 1085 /**************************************************************************************************
// 1086 */
// 
// 2 900 bytes in segment BANKED_CODE
//   114 bytes in segment BANK_RELAYS
//     1 byte  in segment XDATA_I
//     1 byte  in segment XDATA_ID
//     2 bytes in segment XDATA_Z
// 
// 3 015 bytes of CODE  memory
//     3 bytes of XDATA memory
//
//Errors: none
//Warnings: none
