###############################################################################
#                                                                             #
# IAR C/C++ Compiler V8.10.1.10194/W32 for 8051         01/Jun/2015  00:49:41 #
# Copyright 2004-2011 IAR Systems AB.                                         #
#                                                                             #
#    Core               =  plain                                              #
#    Code model         =  banked                                             #
#    Data model         =  large                                              #
#    Calling convention =  xdata reentrant                                    #
#    Constant location  =  data_rom                                           #
#    Dptr setup         =  1,16                                               #
#    Source file        =  C:\Texas Instruments\ZStack-CC2530-2.5.1a\Componen #
#                          ts\stack\nwk\BindingTable.c                        #
#    Command line       =  -f "C:\Texas Instruments\ZStack-CC2530-2.5.1a\Proj #
#                          ects\zstack\Samples\WirelessMonitorSystem\CC2530DB #
#                          \..\..\..\Tools\CC2530DB\f8wEndev.cfg"             #
#                          (-DCPU32MHZ -DROOT=__near_func                     #
#                          -DMAC_CFG_TX_DATA_MAX=3 -DMAC_CFG_TX_MAX=6         #
#                          -DMAC_CFG_RX_MAX=3) -f "C:\Texas                   #
#                          Instruments\ZStack-CC2530-2.5.1a\Projects\zstack\S #
#                          amples\WirelessMonitorSystem\CC2530DB\..\..\..\Too #
#                          ls\CC2530DB\f8wConfig.cfg" (-DZIGBEEPRO            #
#                          -DSECURE=0 -DZG_SECURE_DYNAMIC=0 -DREFLECTOR       #
#                          -DDEFAULT_CHANLIST=0x00000800                      #
#                          -DZDAPP_CONFIG_PAN_ID=0xFFFF                       #
#                          -DNWK_START_DELAY=100 -DEXTENDED_JOINING_RANDOM_MA #
#                          SK=0x007F -DBEACON_REQUEST_DELAY=100               #
#                          -DBEACON_REQ_DELAY_MASK=0x00FF                     #
#                          -DLINK_STATUS_JITTER_MASK=0x007F                   #
#                          -DROUTE_EXPIRY_TIME=30 -DAPSC_ACK_WAIT_DURATION_PO #
#                          LLED=3000 -DNWK_INDIRECT_MSG_TIMEOUT=7             #
#                          -DMAX_RREQ_ENTRIES=8 -DAPSC_MAX_FRAME_RETRIES=3    #
#                          -DNWK_MAX_DATA_RETRIES=2                           #
#                          -DMAX_POLL_FAILURE_RETRIES=2 -DMAX_BCAST=9         #
#                          -DAPS_MAX_GROUPS=16 -DMAX_RTG_ENTRIES=40           #
#                          -DNWK_MAX_BINDING_ENTRIES=4                        #
#                          -DMAX_BINDING_CLUSTER_IDS=4 "-DDEFAULT_KEY={0x01,  #
#                          0x03, 0x05, 0x07, 0x09, 0x0B, 0x0D, 0x0F, 0x00,    #
#                          0x02, 0x04, 0x06, 0x08, 0x0A, 0x0C, 0x0D}"         #
#                          -DMAC_MAX_FRAME_SIZE=116                           #
#                          -DZDNWKMGR_MIN_TRANSMISSIONS=20 "-DCONST=const     #
#                          __code" -DGENERIC=__generic                        #
#                          -DRFD_RCVC_ALWAYS_ON=FALSE -DPOLL_RATE=500         #
#                          -DQUEUED_POLL_RATE=30 -DRESPONSE_POLL_RATE=100)    #
#                          -DREJOIN_POLL_RATE=440 "C:\Texas                   #
#                          Instruments\ZStack-CC2530-2.5.1a\Components\stack\ #
#                          nwk\BindingTable.c" -D HAL_UART -D                 #
#                          xOCM_CLK_PORT=0 -D xOCM_CLK_PIN=7 -D               #
#                          xOCM_DATA_PORT=0 -D xOCM_DATA_PIN=6 -lC "C:\Texas  #
#                          Instruments\ZStack-CC2530-2.5.1a\Projects\zstack\S #
#                          amples\WirelessMonitorSystem\CC2530DB\Vibrate\List #
#                          \" -lA "C:\Texas Instruments\ZStack-CC2530-2.5.1a\ #
#                          Projects\zstack\Samples\WirelessMonitorSystem\CC25 #
#                          30DB\Vibrate\List\" --diag_suppress Pe001,Pa010    #
#                          -o "C:\Texas Instruments\ZStack-CC2530-2.5.1a\Proj #
#                          ects\zstack\Samples\WirelessMonitorSystem\CC2530DB #
#                          \Vibrate\Obj\" -e --debug --core=plain             #
#                          --dptr=16,1 --data_model=large                     #
#                          --code_model=banked --calling_convention=xdata_ree #
#                          ntrant --place_constants=data_rom                  #
#                          --nr_virtual_regs 16 -I "C:\Texas                  #
#                          Instruments\ZStack-CC2530-2.5.1a\Projects\zstack\S #
#                          amples\WirelessMonitorSystem\CC2530DB\" -I         #
#                          "C:\Texas Instruments\ZStack-CC2530-2.5.1a\Project #
#                          s\zstack\Samples\WirelessMonitorSystem\CC2530DB\.. #
#                          \Source\" -I "C:\Texas Instruments\ZStack-CC2530-2 #
#                          .5.1a\Projects\zstack\Samples\WirelessMonitorSyste #
#                          m\CC2530DB\..\..\..\ZMain\TI2530DB\" -I "C:\Texas  #
#                          Instruments\ZStack-CC2530-2.5.1a\Projects\zstack\S #
#                          amples\WirelessMonitorSystem\CC2530DB\..\..\..\..\ #
#                          ..\Components\hal\include\" -I "C:\Texas           #
#                          Instruments\ZStack-CC2530-2.5.1a\Projects\zstack\S #
#                          amples\WirelessMonitorSystem\CC2530DB\..\..\..\..\ #
#                          ..\Components\hal\target\CC2530EB\" -I "C:\Texas   #
#                          Instruments\ZStack-CC2530-2.5.1a\Projects\zstack\S #
#                          amples\WirelessMonitorSystem\CC2530DB\..\..\..\..\ #
#                          ..\Components\mac\include\" -I "C:\Texas           #
#                          Instruments\ZStack-CC2530-2.5.1a\Projects\zstack\S #
#                          amples\WirelessMonitorSystem\CC2530DB\..\..\..\..\ #
#                          ..\Components\mac\high_level\" -I "C:\Texas        #
#                          Instruments\ZStack-CC2530-2.5.1a\Projects\zstack\S #
#                          amples\WirelessMonitorSystem\CC2530DB\..\..\..\..\ #
#                          ..\Components\mac\low_level\srf04\" -I "C:\Texas   #
#                          Instruments\ZStack-CC2530-2.5.1a\Projects\zstack\S #
#                          amples\WirelessMonitorSystem\CC2530DB\..\..\..\..\ #
#                          ..\Components\mac\low_level\srf04\single_chip\"    #
#                          -I "C:\Texas Instruments\ZStack-CC2530-2.5.1a\Proj #
#                          ects\zstack\Samples\WirelessMonitorSystem\CC2530DB #
#                          \..\..\..\..\..\Components\mt\" -I "C:\Texas       #
#                          Instruments\ZStack-CC2530-2.5.1a\Projects\zstack\S #
#                          amples\WirelessMonitorSystem\CC2530DB\..\..\..\..\ #
#                          ..\Components\osal\include\" -I "C:\Texas          #
#                          Instruments\ZStack-CC2530-2.5.1a\Projects\zstack\S #
#                          amples\WirelessMonitorSystem\CC2530DB\..\..\..\..\ #
#                          ..\Components\services\saddr\" -I "C:\Texas        #
#                          Instruments\ZStack-CC2530-2.5.1a\Projects\zstack\S #
#                          amples\WirelessMonitorSystem\CC2530DB\..\..\..\..\ #
#                          ..\Components\services\sdata\" -I "C:\Texas        #
#                          Instruments\ZStack-CC2530-2.5.1a\Projects\zstack\S #
#                          amples\WirelessMonitorSystem\CC2530DB\..\..\..\..\ #
#                          ..\Components\stack\af\" -I "C:\Texas              #
#                          Instruments\ZStack-CC2530-2.5.1a\Projects\zstack\S #
#                          amples\WirelessMonitorSystem\CC2530DB\..\..\..\..\ #
#                          ..\Components\stack\nwk\" -I "C:\Texas             #
#                          Instruments\ZStack-CC2530-2.5.1a\Projects\zstack\S #
#                          amples\WirelessMonitorSystem\CC2530DB\..\..\..\..\ #
#                          ..\Components\stack\sapi\" -I "C:\Texas            #
#                          Instruments\ZStack-CC2530-2.5.1a\Projects\zstack\S #
#                          amples\WirelessMonitorSystem\CC2530DB\..\..\..\..\ #
#                          ..\Components\stack\sec\" -I "C:\Texas             #
#                          Instruments\ZStack-CC2530-2.5.1a\Projects\zstack\S #
#                          amples\WirelessMonitorSystem\CC2530DB\..\..\..\..\ #
#                          ..\Components\stack\sys\" -I "C:\Texas             #
#                          Instruments\ZStack-CC2530-2.5.1a\Projects\zstack\S #
#                          amples\WirelessMonitorSystem\CC2530DB\..\..\..\..\ #
#                          ..\Components\stack\zdo\" -I "C:\Texas             #
#                          Instruments\ZStack-CC2530-2.5.1a\Projects\zstack\S #
#                          amples\WirelessMonitorSystem\CC2530DB\..\..\..\..\ #
#                          ..\Components\zmac\" -I "C:\Texas                  #
#                          Instruments\ZStack-CC2530-2.5.1a\Projects\zstack\S #
#                          amples\WirelessMonitorSystem\CC2530DB\..\..\..\..\ #
#                          ..\Components\zmac\f8w\" -Ohz --require_prototypes #
#    List file          =  C:\Texas Instruments\ZStack-CC2530-2.5.1a\Projects #
#                          \zstack\Samples\WirelessMonitorSystem\CC2530DB\Vib #
#                          rate\List\BindingTable.lst                         #
#    Object file        =  C:\Texas Instruments\ZStack-CC2530-2.5.1a\Projects #
#                          \zstack\Samples\WirelessMonitorSystem\CC2530DB\Vib #
#                          rate\Obj\BindingTable.r51                          #
#                                                                             #
#                                                                             #
###############################################################################

C:\Texas Instruments\ZStack-CC2530-2.5.1a\Components\stack\nwk\BindingTable.c
      1          /**************************************************************************************************
      2            Filename:       BindingTable.c
      3            Revised:        $Date: 2012-03-28 15:40:50 -0700 (Wed, 28 Mar 2012) $
      4            Revision:       $Revision: 29930 $
      5          
      6            Description:    Device binding table functions.
      7          
      8          
      9            Copyright 2004-2012 Texas Instruments Incorporated. All rights reserved.
     10          
     11            IMPORTANT: Your use of this Software is limited to those specific rights
     12            granted under the terms of a software license agreement between the user
     13            who downloaded the software, his/her employer (which must be your employer)
     14            and Texas Instruments Incorporated (the "License"). You may not use this
     15            Software unless you agree to abide by the terms of the License. The License
     16            limits your use, and you acknowledge, that the Software may not be modified,
     17            copied or distributed unless embedded on a Texas Instruments microcontroller
     18            or used solely and exclusively in conjunction with a Texas Instruments radio
     19            frequency transceiver, which is integrated into your product. Other than for
     20            the foregoing purpose, you may not use, reproduce, copy, prepare derivative
     21            works of, modify, distribute, perform, display or sell this Software and/or
     22            its documentation for any purpose.
     23          
     24            YOU FURTHER ACKNOWLEDGE AND AGREE THAT THE SOFTWARE AND DOCUMENTATION ARE
     25            PROVIDED “AS IS” WITHOUT WARRANTY OF ANY KIND, EITHER EXPRESS OR IMPLIED,
     26            INCLUDING WITHOUT LIMITATION, ANY WARRANTY OF MERCHANTABILITY, TITLE,
     27            NON-INFRINGEMENT AND FITNESS FOR A PARTICULAR PURPOSE. IN NO EVENT SHALL
     28            TEXAS INSTRUMENTS OR ITS LICENSORS BE LIABLE OR OBLIGATED UNDER CONTRACT,
     29            NEGLIGENCE, STRICT LIABILITY, CONTRIBUTION, BREACH OF WARRANTY, OR OTHER
     30            LEGAL EQUITABLE THEORY ANY DIRECT OR INDIRECT DAMAGES OR EXPENSES
     31            INCLUDING BUT NOT LIMITED TO ANY INCIDENTAL, SPECIAL, INDIRECT, PUNITIVE
     32            OR CONSEQUENTIAL DAMAGES, LOST PROFITS OR LOST DATA, COST OF PROCUREMENT
     33            OF SUBSTITUTE GOODS, TECHNOLOGY, SERVICES, OR ANY CLAIMS BY THIRD PARTIES
     34            (INCLUDING BUT NOT LIMITED TO ANY DEFENSE THEREOF), OR OTHER SIMILAR COSTS.
     35          
     36            Should you have any questions regarding your right to use this Software,
     37            contact Texas Instruments Incorporated at www.TI.com.
     38          **************************************************************************************************/
     39          
     40          /*********************************************************************
     41           * INCLUDES
     42           */
     43          #include "ZComDef.h"
     44          #include "OSAL.h"
     45          #include "OSAL_Nv.h"
     46          #include "nwk_globals.h"
     47          #include "AddrMgr.h"
     48          #include "BindingTable.h"
     49          
     50          /*********************************************************************
     51           * MACROS
     52           */
     53          
     54          /*********************************************************************
     55           * CONSTANTS
     56           */
     57          #define NV_BIND_EMPTY   0xFF
     58          #define NV_BIND_REC_SIZE (gBIND_REC_SIZE)
     59          #define NV_BIND_ITEM_SIZE  (gBIND_REC_SIZE * gNWK_MAX_BINDING_ENTRIES)
     60          
     61          /*********************************************************************
     62           * TYPEDEFS
     63           */
     64          typedef struct
     65          {
     66            uint8        srcEP;
     67            uint16       srcIndex;
     68            uint16       dstIndex;
     69            uint8        dstEP;
     70            uint8        dstAddrMode;
     71            uint8        clusterIDs;
     72            uint16*      clusterIDList;
     73          } bindFields_t;
     74          
     75          /*********************************************************************
     76           * GLOBAL VARIABLES
     77           */
     78          
     79          /*********************************************************************
     80           * LOCAL FUNCTIONS
     81           */
     82          void BindAddrMgrCB( uint8 update, AddrMgrEntry_t *entryOld,
     83                              AddrMgrEntry_t *entryNew );
     84          BindingEntry_t *bindFindEmpty( void );
     85          uint16 bindingAddrMgsHelperFind( zAddrType_t *addr );
     86          uint8 bindingAddrMgsHelperConvert( uint16 idx, zAddrType_t *addr );
     87          void bindAddrMgrLocalLoad( void );
     88          uint16 bindAddrIndexGet( zAddrType_t* addr );
     89          
     90          /*********************************************************************
     91           * LOCAL VARIABLES
     92           */

   \                                 In  segment XDATA_Z, align 1, keep-with-next
     93          static uint8 bindAddrMgrLocalLoaded = FALSE;
   \                     bindAddrMgrLocalLoaded:
   \   000000                DS 1
   \   000001                REQUIRE __INIT_XDATA_Z
     94          
     95          /*********************************************************************
     96           * Function Pointers
     97           */
     98          

   \                                 In  segment XDATA_Z, align 1, keep-with-next
     99          BindingEntry_t *(*pbindAddEntry)( byte srcEpInt,
   \                     pbindAddEntry:
   \   000000                DS 2
   \   000002                REQUIRE __INIT_XDATA_Z
    100                                            zAddrType_t *dstAddr, byte dstEpInt,
    101                                            byte numClusterIds, uint16 *clusterIds ) = (void*)NULL;

   \                                 In  segment XDATA_Z, align 1, keep-with-next
    102          uint16 (*pbindNumOfEntries)( void ) = (void*)NULL;
   \                     pbindNumOfEntries:
   \   000000                DS 2
   \   000002                REQUIRE __INIT_XDATA_Z

   \                                 In  segment XDATA_Z, align 1, keep-with-next
    103          void (*pbindRemoveDev)( zAddrType_t *Addr ) = (void*)NULL;
   \                     pbindRemoveDev:
   \   000000                DS 2
   \   000002                REQUIRE __INIT_XDATA_Z

   \                                 In  segment XDATA_Z, align 1, keep-with-next
    104          byte (*pBindInitNV)( void ) = (void*)NULL;
   \                     pBindInitNV:
   \   000000                DS 2
   \   000002                REQUIRE __INIT_XDATA_Z

   \                                 In  segment XDATA_Z, align 1, keep-with-next
    105          void (*pBindSetDefaultNV)( void ) = (void*)NULL;
   \                     pBindSetDefaultNV:
   \   000000                DS 2
   \   000002                REQUIRE __INIT_XDATA_Z

   \                                 In  segment XDATA_Z, align 1, keep-with-next
    106          uint16 (*pBindRestoreFromNV)( void ) = (void*)NULL;
   \                     pBindRestoreFromNV:
   \   000000                DS 2
   \   000002                REQUIRE __INIT_XDATA_Z

   \                                 In  segment XDATA_Z, align 1, keep-with-next
    107          void (*pBindWriteNV)( void ) = (void*)NULL;
   \                     pBindWriteNV:
   \   000000                DS 2
   \   000002                REQUIRE __INIT_XDATA_Z
    108          
    109          #if ( ADDRMGR_CALLBACK_ENABLED == 1 )
    110          /*********************************************************************
    111           * @fn      BindAddrMgrCB()
    112           *
    113           * @brief   Address Manager Callback function
    114           *
    115           * @param   update -
    116           * @param   entry -
    117           *
    118           * @return  pointer to
    119           */
    120          void BindAddrMgrCB( uint8 update, AddrMgrEntry_t *entryNew,
    121                              AddrMgrEntry_t *entryOld )
    122          {
    123            // Check for either deleted items or changed Extended (Duplicate) addresses
    124          }
    125          #endif // ( ADDRMGR_CALLBACK_ENABLED == 1 )
    126          
    127          /*********************************************************************
    128           * @fn      InitBindingTable()
    129           *
    130           * @brief
    131           *
    132           *   This function is used to initialise the binding table
    133           *
    134           * @param   none
    135           *
    136           * @return  none
    137           */

   \                                 In  segment BANKED_CODE, align 1, keep-with-next
    138          void InitBindingTable( void )
   \                     InitBindingTable:
    139          {
   \   000000   74F6         MOV     A,#-0xa
   \   000002   12....       LCALL   ?BANKED_ENTER_XDATA
   \   000005                ; Saved register size: 10
   \   000005                ; Auto size: 0
    140            osal_memset( BindingTable, 0xFF, gBIND_REC_SIZE * gNWK_MAX_BINDING_ENTRIES );
   \   000005                ; Setup parameters for call to function osal_memset
   \   000005   12....       LCALL   ?Subroutine11 & 0xFFFF
   \                     ??CrossCallReturnLabel_62:
   \   000008   12....       LCALL   ?Subroutine10 & 0xFFFF
   \                     ??CrossCallReturnLabel_8:
   \   00000B   EC           MOV     A,R4
   \   00000C   85..F0       MOV     B,?V0 + 0
   \   00000F   A4           MUL     AB
   \   000010   CC           XCH     A,R4
   \   000011   A8F0         MOV     R0,B
   \   000013   85..F0       MOV     B,?V0 + 1
   \   000016   A4           MUL     AB
   \   000017   28           ADD     A,R0
   \   000018   F8           MOV     R0,A
   \   000019   85..F0       MOV     B,?V0 + 0
   \   00001C   ED           MOV     A,R5
   \   00001D   A4           MUL     AB
   \   00001E   28           ADD     A,R0
   \   00001F   FD           MOV     R5,A
   \   000020   79FF         MOV     R1,#-0x1
   \   000022   7A..         MOV     R2,#BindingTable & 0xff
   \   000024   7B..         MOV     R3,#(BindingTable >> 8) & 0xff
   \   000026   12....       LCALL   ??osal_memset?relay
    141          
    142            pbindAddEntry = bindAddEntry;
   \   000029   90....       MOV     DPTR,#pbindAddEntry
   \   00002C   74..         MOV     A,#??bindAddEntry?relay & 0xff
   \   00002E   F0           MOVX    @DPTR,A
   \   00002F   A3           INC     DPTR
   \   000030   74..         MOV     A,#(??bindAddEntry?relay >> 8) & 0xff
   \   000032   F0           MOVX    @DPTR,A
    143            pbindNumOfEntries = bindNumOfEntries;
   \   000033   90....       MOV     DPTR,#pbindNumOfEntries
   \   000036   74..         MOV     A,#??bindNumOfEntries?relay & 0xff
   \   000038   F0           MOVX    @DPTR,A
   \   000039   A3           INC     DPTR
   \   00003A   74..         MOV     A,#(??bindNumOfEntries?relay >> 8) & 0xff
   \   00003C   F0           MOVX    @DPTR,A
    144            pbindRemoveDev = bindRemoveDev;
   \   00003D   90....       MOV     DPTR,#pbindRemoveDev
   \   000040   74..         MOV     A,#??bindRemoveDev?relay & 0xff
   \   000042   F0           MOVX    @DPTR,A
   \   000043   A3           INC     DPTR
   \   000044   74..         MOV     A,#(??bindRemoveDev?relay >> 8) & 0xff
   \   000046   F0           MOVX    @DPTR,A
    145            pBindInitNV = BindInitNV;
   \   000047   90....       MOV     DPTR,#pBindInitNV
   \   00004A   74..         MOV     A,#??BindInitNV?relay & 0xff
   \   00004C   F0           MOVX    @DPTR,A
   \   00004D   A3           INC     DPTR
   \   00004E   74..         MOV     A,#(??BindInitNV?relay >> 8) & 0xff
   \   000050   F0           MOVX    @DPTR,A
    146            pBindSetDefaultNV = BindSetDefaultNV;
   \   000051   90....       MOV     DPTR,#pBindSetDefaultNV
   \   000054   74..         MOV     A,#??BindSetDefaultNV?relay & 0xff
   \   000056   F0           MOVX    @DPTR,A
   \   000057   A3           INC     DPTR
   \   000058   74..         MOV     A,#(??BindSetDefaultNV?relay >> 8) & 0xff
   \   00005A   F0           MOVX    @DPTR,A
    147            pBindRestoreFromNV = BindRestoreFromNV;
   \   00005B   90....       MOV     DPTR,#pBindRestoreFromNV
   \   00005E   74..         MOV     A,#??BindRestoreFromNV?relay & 0xff
   \   000060   F0           MOVX    @DPTR,A
   \   000061   A3           INC     DPTR
   \   000062   74..         MOV     A,#(??BindRestoreFromNV?relay >> 8) & 0xff
   \   000064   F0           MOVX    @DPTR,A
    148            pBindWriteNV = BindWriteNV;
   \   000065   90....       MOV     DPTR,#pBindWriteNV
   \   000068   74..         MOV     A,#??BindWriteNV?relay & 0xff
   \   00006A   F0           MOVX    @DPTR,A
   \   00006B   A3           INC     DPTR
   \   00006C   74..         MOV     A,#(??BindWriteNV?relay >> 8) & 0xff
   \   00006E   F0           MOVX    @DPTR,A
    149          
    150            bindAddrMgrLocalLoaded = FALSE;
   \   00006F   90....       MOV     DPTR,#bindAddrMgrLocalLoaded
   \   000072   E4           CLR     A
   \   000073   F0           MOVX    @DPTR,A
    151          
    152          #if ( ADDRMGR_CALLBACK_ENABLED == 1 )
    153            // Register with the address manager
    154            AddrMgrRegister( ADDRMGR_REG_BINDING, BindAddrMgrCB );
    155          #endif
    156          }
   \   000074   80..         SJMP    ??Subroutine33_0

   \                                 In  segment BANKED_CODE, align 1, keep-with-next
   \                     ??Subroutine33_0:
   \   000000   7F02         MOV     R7,#0x2
   \   000002   02....       LJMP    ?BANKED_LEAVE_XDATA

   \                                 In  segment BANKED_CODE, align 1, keep-with-next
   \                     ?Subroutine11:
   \   000000   90....       MOV     DPTR,#gBIND_REC_SIZE
   \   000003                REQUIRE ??Subroutine35_0
   \   000003                ; // Fall through to label ??Subroutine35_0

   \                                 In  segment BANKED_CODE, align 1, keep-with-next
   \                     ??Subroutine35_0:
   \   000000   E4           CLR     A
   \   000001   93           MOVC    A,@A+DPTR
   \   000002   FC           MOV     R4,A
   \   000003   7401         MOV     A,#0x1
   \   000005   93           MOVC    A,@A+DPTR
   \   000006   FD           MOV     R5,A
   \   000007   22           RET

   \                                 In  segment BANKED_CODE, align 1, keep-with-next
   \                     ?Subroutine10:
   \   000000   90....       MOV     DPTR,#gNWK_MAX_BINDING_ENTRIES
   \   000003   E4           CLR     A
   \   000004   93           MOVC    A,@A+DPTR
   \   000005   F5..         MOV     ?V0 + 0,A
   \   000007   7401         MOV     A,#0x1
   \   000009   93           MOVC    A,@A+DPTR
   \   00000A   F5..         MOV     ?V0 + 1,A
   \   00000C   22           RET
    157          
    158          /*********************************************************************
    159           * @fn      bindFindEmpty()
    160           *
    161           * @brief   This function returns a pointer to an empty binding slot
    162           *
    163           * @param   none
    164           *
    165           * @return  pointer to binding table entry, NULL if not added
    166           */

   \                                 In  segment BANKED_CODE, align 1, keep-with-next
    167          BindingEntry_t *bindFindEmpty( void )
   \                     bindFindEmpty:
    168          {
   \   000000   C082         PUSH    DPL
   \   000002   C083         PUSH    DPH
   \   000004                ; Saved register size: 2
   \   000004                ; Auto size: 0
    169            uint16 x;
    170          
    171            for ( x = 0; x < gNWK_MAX_BINDING_ENTRIES; x++ )
   \   000004   7800         MOV     R0,#0x0
   \   000006   7900         MOV     R1,#0x0
   \   000008   8003         SJMP    ??CrossCallReturnLabel_17
   \                     ??bindFindEmpty_0:
   \   00000A   12....       LCALL   ?Subroutine16 & 0xFFFF
   \                     ??CrossCallReturnLabel_17:
   \   00000D   12....       LCALL   ?Subroutine8 & 0xFFFF
   \                     ??CrossCallReturnLabel_0:
   \   000010   5027         JNC     ??bindFindEmpty_1
    172            {
    173              // It's empty if the index is "Not Found"
    174              if ( BindingTable[x].srcEP == NV_BIND_EMPTY )
   \   000012   E8           MOV     A,R0
   \   000013   FA           MOV     R2,A
   \   000014   E9           MOV     A,R1
   \   000015   FB           MOV     R3,A
   \   000016   EA           MOV     A,R2
   \   000017   75F00E       MOV     B,#0xe
   \   00001A   A4           MUL     AB
   \   00001B   FA           MOV     R2,A
   \   00001C   ACF0         MOV     R4,B
   \   00001E   75F00E       MOV     B,#0xe
   \   000021   EB           MOV     A,R3
   \   000022   A4           MUL     AB
   \   000023   2C           ADD     A,R4
   \   000024   FB           MOV     R3,A
   \   000025   74..         MOV     A,#BindingTable & 0xff
   \   000027   2A           ADD     A,R2
   \   000028   F582         MOV     DPL,A
   \   00002A   74..         MOV     A,#(BindingTable >> 8) & 0xff
   \   00002C   3B           ADDC    A,R3
   \   00002D   F583         MOV     DPH,A
   \   00002F   E0           MOVX    A,@DPTR
   \   000030   F4           CPL     A
   \   000031   70D7         JNZ     ??bindFindEmpty_0
    175              {
    176                return ( &BindingTable[x] );
   \   000033   AA82         MOV     R2,DPL
   \   000035   AB83         MOV     R3,DPH
   \   000037   8004         SJMP    ??bindFindEmpty_2
    177              }
    178            }
    179          
    180            return ( (BindingEntry_t *)NULL );
   \                     ??bindFindEmpty_1:
   \   000039   7A00         MOV     R2,#0x0
   \   00003B   7B00         MOV     R3,#0x0
   \                     ??bindFindEmpty_2:
   \   00003D   02....       LJMP    ??Subroutine38_0 & 0xFFFF
    181          }

   \                                 In  segment BANKED_CODE, align 1, keep-with-next
   \                     ?Subroutine16:
   \   000000   E8           MOV     A,R0
   \   000001   2401         ADD     A,#0x1
   \   000003   08           INC     R0
   \   000004   E9           MOV     A,R1
   \   000005   3400         ADDC    A,#0x0
   \   000007   F9           MOV     R1,A
   \   000008   22           RET

   \                                 In  segment BANKED_CODE, align 1, keep-with-next
   \                     ?Subroutine8:
   \   000000   90....       MOV     DPTR,#gNWK_MAX_BINDING_ENTRIES
   \   000003   E4           CLR     A
   \   000004   93           MOVC    A,@A+DPTR
   \   000005   FA           MOV     R2,A
   \   000006   7401         MOV     A,#0x1
   \   000008   93           MOVC    A,@A+DPTR
   \   000009   FB           MOV     R3,A
   \   00000A   C3           CLR     C
   \   00000B   E8           MOV     A,R0
   \   00000C   9A           SUBB    A,R2
   \   00000D   E9           MOV     A,R1
   \   00000E   9B           SUBB    A,R3
   \   00000F   22           RET

   \                                 In  segment BANKED_CODE, align 1, keep-with-next
   \                     ??Subroutine38_0:
   \   000000   D083         POP     DPH
   \   000002   D082         POP     DPL
   \   000004   02....       LJMP    ?BRET
    182          
    183          /*********************************************************************
    184           * @fn      bindNumOfEntries()
    185           *
    186           * @brief   This function returns the number of binding table entries.
    187           *          The return for this is the number of clusters in the
    188           *          table NOT the number of entries.
    189           *
    190           * @param   none
    191           *
    192           * @return  number of entries
    193           */

   \                                 In  segment BANKED_CODE, align 1, keep-with-next
    194          uint16 bindNumOfEntries( void )
   \                     bindNumOfEntries:
    195          {
   \   000000   74F7         MOV     A,#-0x9
   \   000002   12....       LCALL   ?BANKED_ENTER_XDATA
   \   000005                ; Saved register size: 9
   \   000005                ; Auto size: 0
    196            uint16 x;
    197            uint16 found;
    198          
    199            for ( found = 0, x = 0; x < gNWK_MAX_BINDING_ENTRIES; x++ )
   \   000005   7A00         MOV     R2,#0x0
   \   000007   7B00         MOV     R3,#0x0
   \   000009   7800         MOV     R0,#0x0
   \   00000B   7900         MOV     R1,#0x0
   \   00000D   8032         SJMP    ??CrossCallReturnLabel_18
    200            {
    201              // It's empty if the index is "Not Found"
    202              if ( BindingTable[x].srcEP != NV_BIND_EMPTY )
   \                     ??bindNumOfEntries_0:
   \   00000F   E8           MOV     A,R0
   \   000010   FC           MOV     R4,A
   \   000011   E9           MOV     A,R1
   \   000012   FD           MOV     R5,A
   \   000013   EC           MOV     A,R4
   \   000014   75F00E       MOV     B,#0xe
   \   000017   A4           MUL     AB
   \   000018   FC           MOV     R4,A
   \   000019   AEF0         MOV     R6,B
   \   00001B   75F00E       MOV     B,#0xe
   \   00001E   ED           MOV     A,R5
   \   00001F   A4           MUL     AB
   \   000020   2E           ADD     A,R6
   \   000021   FD           MOV     R5,A
   \   000022   74..         MOV     A,#BindingTable & 0xff
   \   000024   2C           ADD     A,R4
   \   000025   F582         MOV     DPL,A
   \   000027   74..         MOV     A,#(BindingTable >> 8) & 0xff
   \   000029   3D           ADDC    A,R5
   \   00002A   F583         MOV     DPH,A
   \   00002C   E0           MOVX    A,@DPTR
   \   00002D   F4           CPL     A
   \   00002E   600E         JZ      ??bindNumOfEntries_1
    203              {
    204                found += BindingTable[x].numClusterIds;
   \   000030   A3           INC     DPTR
   \   000031   A3           INC     DPTR
   \   000032   A3           INC     DPTR
   \   000033   A3           INC     DPTR
   \   000034   A3           INC     DPTR
   \   000035   E0           MOVX    A,@DPTR
   \   000036   FC           MOV     R4,A
   \   000037   EA           MOV     A,R2
   \   000038   2C           ADD     A,R4
   \   000039   FA           MOV     R2,A
   \   00003A   EB           MOV     A,R3
   \   00003B   3400         ADDC    A,#0x0
   \   00003D   FB           MOV     R3,A
    205              }
    206            }
   \                     ??bindNumOfEntries_1:
   \   00003E   12....       LCALL   ?Subroutine16 & 0xFFFF
   \                     ??CrossCallReturnLabel_18:
   \   000041   90....       MOV     DPTR,#gNWK_MAX_BINDING_ENTRIES
   \   000044   12....       LCALL   ??Subroutine35_0 & 0xFFFF
   \                     ??CrossCallReturnLabel_61:
   \   000047   C3           CLR     C
   \   000048   E8           MOV     A,R0
   \   000049   9C           SUBB    A,R4
   \   00004A   E9           MOV     A,R1
   \   00004B   9D           SUBB    A,R5
   \   00004C   40C1         JC      ??bindNumOfEntries_0
    207          
    208            return ( found );
   \   00004E   02....       LJMP    ?Subroutine2 & 0xFFFF
    209          }

   \                                 In  segment BANKED_CODE, align 1, keep-with-next
   \                     ?Subroutine2:
   \   000000   7F01         MOV     R7,#0x1
   \   000002   02....       LJMP    ?BANKED_LEAVE_XDATA
    210          
    211          /*********************************************************************
    212           * @fn      bindCapacity()
    213           *
    214           * @brief   This function returns the number of binding entries
    215           *          possible and used.
    216           *
    217           * @param   maxEntries - pointer to a place to put the max entries
    218           * @param   usedEntries - pointer to a place to put the number
    219           *               of used entries
    220           *
    221           * @return  none
    222           */

   \                                 In  segment BANKED_CODE, align 1, keep-with-next
    223          void bindCapacity( uint16 *maxEntries, uint16 *usedEntries  )
   \                     bindCapacity:
    224          {
   \   000000   74F5         MOV     A,#-0xb
   \   000002   12....       LCALL   ?BANKED_ENTER_XDATA
   \   000005                ; Saved register size: 11
   \   000005                ; Auto size: 0
    225            uint16 x;
    226            uint16 used;
    227          
    228            for ( used = 0, x = 0; x < gNWK_MAX_BINDING_ENTRIES; x++ )
   \   000005   75..00       MOV     ?V0 + 0,#0x0
   \   000008   75..00       MOV     ?V0 + 1,#0x0
   \   00000B   7800         MOV     R0,#0x0
   \   00000D   7900         MOV     R1,#0x0
   \   00000F   800E         SJMP    ??CrossCallReturnLabel_19
    229            {
    230              // It's empty if the index is "Not Found"
    231              if ( BindingTable[x].srcEP != NV_BIND_EMPTY )
   \                     ??bindCapacity_0:
   \   000011   E8           MOV     A,R0
   \   000012   FE           MOV     R6,A
   \   000013   E9           MOV     A,R1
   \   000014   12....       LCALL   ?Subroutine25 & 0xFFFF
   \                     ??CrossCallReturnLabel_41:
   \   000017   6003         JZ      ??CrossCallReturnLabel_27
    232              {
    233                used++;
   \   000019   12....       LCALL   ?Subroutine19 & 0xFFFF
    234              }
    235            }
   \                     ??CrossCallReturnLabel_27:
   \   00001C   12....       LCALL   ?Subroutine16 & 0xFFFF
   \                     ??CrossCallReturnLabel_19:
   \   00001F   90....       MOV     DPTR,#gNWK_MAX_BINDING_ENTRIES
   \   000022   E4           CLR     A
   \   000023   93           MOVC    A,@A+DPTR
   \   000024   FE           MOV     R6,A
   \   000025   7401         MOV     A,#0x1
   \   000027   93           MOVC    A,@A+DPTR
   \   000028   FF           MOV     R7,A
   \   000029   C3           CLR     C
   \   00002A   E8           MOV     A,R0
   \   00002B   9E           SUBB    A,R6
   \   00002C   E9           MOV     A,R1
   \   00002D   9F           SUBB    A,R7
   \   00002E   40E1         JC      ??bindCapacity_0
    236          
    237            *maxEntries = gNWK_MAX_BINDING_ENTRIES;
   \   000030   12....       LCALL   ??Subroutine34_0 & 0xFFFF
   \                     ??CrossCallReturnLabel_57:
   \   000033   8A82         MOV     DPL,R2
   \   000035   8B83         MOV     DPH,R3
   \   000037   E8           MOV     A,R0
   \   000038   F0           MOVX    @DPTR,A
   \   000039   A3           INC     DPTR
   \   00003A   E9           MOV     A,R1
   \   00003B   F0           MOVX    @DPTR,A
    238            *usedEntries = used;
   \   00003C   8C82         MOV     DPL,R4
   \   00003E   8D83         MOV     DPH,R5
   \   000040   E5..         MOV     A,?V0 + 0
   \   000042   F0           MOVX    @DPTR,A
   \   000043   A3           INC     DPTR
   \   000044   E5..         MOV     A,?V0 + 1
   \   000046   F0           MOVX    @DPTR,A
    239          }
   \   000047                REQUIRE ?Subroutine3
   \   000047                ; // Fall through to label ?Subroutine3

   \                                 In  segment BANKED_CODE, align 1, keep-with-next
   \                     ?Subroutine3:
   \   000000   7F03         MOV     R7,#0x3
   \   000002   02....       LJMP    ?BANKED_LEAVE_XDATA

   \                                 In  segment BANKED_CODE, align 1, keep-with-next
   \                     ??Subroutine34_0:
   \   000000   E4           CLR     A
   \   000001   93           MOVC    A,@A+DPTR
   \   000002   F8           MOV     R0,A
   \   000003   7401         MOV     A,#0x1
   \   000005   93           MOVC    A,@A+DPTR
   \   000006   F9           MOV     R1,A
   \   000007   22           RET

   \                                 In  segment BANKED_CODE, align 1, keep-with-next
   \                     ?Subroutine19:
   \   000000   E5..         MOV     A,?V0 + 0
   \   000002   2401         ADD     A,#0x1
   \   000004   F5..         MOV     ?V0 + 0,A
   \   000006   E5..         MOV     A,?V0 + 1
   \   000008   3400         ADDC    A,#0x0
   \   00000A   F5..         MOV     ?V0 + 1,A
   \   00000C   22           RET

   \                                 In  segment BANKED_CODE, align 1, keep-with-next
   \                     ?Subroutine25:
   \   000000   FF           MOV     R7,A
   \   000001   EE           MOV     A,R6
   \   000002   75F00E       MOV     B,#0xe
   \   000005   A4           MUL     AB
   \   000006   FE           MOV     R6,A
   \   000007   85F0..       MOV     ?V0 + 2,B
   \   00000A   75F00E       MOV     B,#0xe
   \   00000D   EF           MOV     A,R7
   \   00000E   A4           MUL     AB
   \   00000F   25..         ADD     A,?V0 + 2
   \   000011   FF           MOV     R7,A
   \   000012   74..         MOV     A,#BindingTable & 0xff
   \   000014   2E           ADD     A,R6
   \   000015   F582         MOV     DPL,A
   \   000017   74..         MOV     A,#(BindingTable >> 8) & 0xff
   \   000019   3F           ADDC    A,R7
   \   00001A   F583         MOV     DPH,A
   \   00001C   E0           MOVX    A,@DPTR
   \   00001D   F4           CPL     A
   \   00001E   22           RET
    240          
    241          /*********************************************************************
    242           * @fn      bindAddEntry()
    243           *
    244           * @brief   This function is used to Add an entry to the binding table
    245           *
    246           * @param       srcAddr - source Address
    247           * @param       srcEpInt - source endpoint
    248           * @param       dstAddr - destination Address
    249           * @param       dstEpInt - destination endpoint
    250           * @param       numClusterIds - number of cluster Ids in the list
    251           * @param       clusterIds - pointer to the Object ID list
    252           *
    253           * @return  pointer to binding table entry, NULL if not added
    254           */

   \                                 In  segment BANKED_CODE, align 1, keep-with-next
    255          BindingEntry_t *bindAddEntry( byte srcEpInt,
   \                     bindAddEntry:
    256                                        zAddrType_t *dstAddr, byte dstEpInt,
    257                                        byte numClusterIds, uint16 *clusterIds )
    258          {
   \   000000   74EC         MOV     A,#-0x14
   \   000002   12....       LCALL   ?BANKED_ENTER_XDATA
   \   000005                ; Saved register size: 20
   \   000005                ; Auto size: 0
   \   000005   89..         MOV     ?V0 + 3,R1
   \   000007   8A..         MOV     ?V0 + 0,R2
   \   000009   8B..         MOV     ?V0 + 1,R3
   \   00000B   8C..         MOV     ?V0 + 7,R4
   \   00000D   8D..         MOV     ?V0 + 2,R5
   \   00000F   7414         MOV     A,#0x14
   \   000011   12....       LCALL   ?XSTACK_DISP0_8
   \   000014   E0           MOVX    A,@DPTR
   \   000015   F5..         MOV     ?V0 + 10,A
   \   000017   A3           INC     DPTR
   \   000018   E0           MOVX    A,@DPTR
   \   000019   F5..         MOV     ?V0 + 11,A
    259            uint8           index;
    260            BindingEntry_t* entry;
    261            bindFields_t    fields;
    262          
    263            // initialize results
    264            entry = NULL;
   \   00001B   7E00         MOV     R6,#0x0
   \   00001D   7F00         MOV     R7,#0x0
    265          
    266            // make sure local addresses have been loaded
    267            bindAddrMgrLocalLoad();
   \   00001F                ; Setup parameters for call to function bindAddrMgrLocalLoad
   \   00001F   12....       LCALL   ??bindAddrMgrLocalLoad?relay
    268          
    269            // setup fields
    270            fields.dstIndex = bindAddrIndexGet( dstAddr );
   \   000022                ; Setup parameters for call to function bindAddrIndexGet
   \   000022   AA..         MOV     R2,?V0 + 0
   \   000024   AB..         MOV     R3,?V0 + 1
   \   000026   12....       LCALL   ??bindAddrIndexGet?relay
   \   000029   8A..         MOV     ?V0 + 4,R2
   \   00002B   8B..         MOV     ?V0 + 5,R3
    271            fields.srcEP    = srcEpInt;
    272          
    273            if ( dstAddr->addrMode == AddrGroup )
   \   00002D   85..82       MOV     DPL,?V0 + 0
   \   000030   85..83       MOV     DPH,?V0 + 1
   \   000033   A3           INC     DPTR
   \   000034   A3           INC     DPTR
   \   000035   A3           INC     DPTR
   \   000036   A3           INC     DPTR
   \   000037   A3           INC     DPTR
   \   000038   A3           INC     DPTR
   \   000039   A3           INC     DPTR
   \   00003A   A3           INC     DPTR
   \   00003B   E0           MOVX    A,@DPTR
   \   00003C   6401         XRL     A,#0x1
   \   00003E   7007         JNZ     ??bindAddEntry_0
    274            {
    275              fields.dstAddrMode = DSTGROUPMODE_GROUP;
   \   000040   75..01       MOV     ?V0 + 6,#0x1
    276              fields.dstEP       = 0;
   \   000043   8E..         MOV     ?V0 + 0,R6
   \   000045   8005         SJMP    ??bindAddEntry_1
    277            }
    278            else
    279            {
    280              fields.dstAddrMode = DSTGROUPMODE_ADDR;
   \                     ??bindAddEntry_0:
   \   000047   8E..         MOV     ?V0 + 6,R6
    281              fields.dstEP       = dstEpInt;
   \   000049   85....       MOV     ?V0 + 0,?V0 + 7
    282            }
    283          
    284            if ( fields.dstIndex != INVALID_NODE_ADDR  )
   \                     ??bindAddEntry_1:
   \   00004C   74FE         MOV     A,#-0x2
   \   00004E   65..         XRL     A,?V0 + 4
   \   000050   7004         JNZ     ??bindAddEntry_2
   \   000052   74FF         MOV     A,#-0x1
   \   000054   65..         XRL     A,?V0 + 5
   \                     ??bindAddEntry_2:
   \   000056   7003         JNZ     $+5
   \   000058   02....       LJMP    ??bindAddEntry_3 & 0xFFFF
    285            {
    286              for ( index = 0; index < gNWK_MAX_BINDING_ENTRIES; index++ )
   \   00005B   8E..         MOV     ?V0 + 1,R6
   \   00005D   8002         SJMP    ??bindAddEntry_4
   \                     ??bindAddEntry_5:
   \   00005F   05..         INC     ?V0 + 1
   \                     ??bindAddEntry_4:
   \   000061   85....       MOV     ?V0 + 8,?V0 + 1
   \   000064   12....       LCALL   ?Subroutine12 & 0xFFFF
   \                     ??CrossCallReturnLabel_59:
   \   000067   C3           CLR     C
   \   000068   E5..         MOV     A,?V0 + 8
   \   00006A   98           SUBB    A,R0
   \   00006B   E4           CLR     A
   \   00006C   99           SUBB    A,R1
   \   00006D   5078         JNC     ??bindAddEntry_6
    287              {
    288                if ( ( fields.srcEP       == BindingTable[index].srcEP        ) &&
    289                     ( fields.dstAddrMode == BindingTable[index].dstGroupMode ) &&
    290                     ( fields.dstIndex    == BindingTable[index].dstIdx       ) &&
    291                     ( fields.dstEP       == BindingTable[index].dstEP        )    )
   \   00006F   E5..         MOV     A,?V0 + 1
   \   000071   75F00E       MOV     B,#0xe
   \   000074   A4           MUL     AB
   \   000075   F8           MOV     R0,A
   \   000076   A9F0         MOV     R1,B
   \   000078   12....       LCALL   ?Subroutine13 & 0xFFFF
   \                     ??CrossCallReturnLabel_12:
   \   00007B   65..         XRL     A,?V0 + 3
   \   00007D   70E0         JNZ     ??bindAddEntry_5
   \   00007F   A3           INC     DPTR
   \   000080   E0           MOVX    A,@DPTR
   \   000081   65..         XRL     A,?V0 + 6
   \   000083   70DA         JNZ     ??bindAddEntry_5
   \   000085   8E82         MOV     DPL,R6
   \   000087   8F83         MOV     DPH,R7
   \   000089   A3           INC     DPTR
   \   00008A   A3           INC     DPTR
   \   00008B   E0           MOVX    A,@DPTR
   \   00008C   65..         XRL     A,?V0 + 4
   \   00008E   7004         JNZ     ??bindAddEntry_7
   \   000090   A3           INC     DPTR
   \   000091   E0           MOVX    A,@DPTR
   \   000092   65..         XRL     A,?V0 + 5
   \                     ??bindAddEntry_7:
   \   000094   70C9         JNZ     ??bindAddEntry_5
   \   000096   8E82         MOV     DPL,R6
   \   000098   8F83         MOV     DPH,R7
   \   00009A   A3           INC     DPTR
   \   00009B   A3           INC     DPTR
   \   00009C   A3           INC     DPTR
   \   00009D   A3           INC     DPTR
   \   00009E   E0           MOVX    A,@DPTR
   \   00009F   65..         XRL     A,?V0 + 0
   \   0000A1   70BC         JNZ     ??bindAddEntry_5
    292                {
    293                  entry = &BindingTable[index];
    294          
    295                  // break from loop
    296                  break;
    297                }
    298              }
    299          
    300              if ( entry != NULL )
    301              {
    302                // Loop through the cluster IDs
    303                for ( index = 0; index < numClusterIds; index++ )
   \   0000A3   75..00       MOV     ?V0 + 1,#0x0
   \                     ??bindAddEntry_8:
   \   0000A6   E5..         MOV     A,?V0 + 1
   \   0000A8   C3           CLR     C
   \   0000A9   95..         SUBB    A,?V0 + 2
   \   0000AB   4003         JC      $+5
   \   0000AD   02....       LJMP    ??bindAddEntry_3 & 0xFFFF
    304                {
    305                  // Found - is the cluster already defined?
    306                  if ( bindIsClusterIDinList( entry, clusterIds[index] ) == FALSE )
   \   0000B0   E5..         MOV     A,?V0 + 1
   \   0000B2   C3           CLR     C
   \   0000B3   33           RLC     A
   \   0000B4   F8           MOV     R0,A
   \   0000B5   E4           CLR     A
   \   0000B6   33           RLC     A
   \   0000B7   F9           MOV     R1,A
   \   0000B8   E5..         MOV     A,?V0 + 10
   \   0000BA   28           ADD     A,R0
   \   0000BB   F5..         MOV     ?V0 + 4,A
   \   0000BD   E5..         MOV     A,?V0 + 11
   \   0000BF   39           ADDC    A,R1
   \   0000C0   F5..         MOV     ?V0 + 5,A
   \   0000C2                ; Setup parameters for call to function bindIsClusterIDinList
   \   0000C2   85..82       MOV     DPL,?V0 + 4
   \   0000C5   F583         MOV     DPH,A
   \   0000C7   12....       LCALL   ?Subroutine27 & 0xFFFF
   \                     ??CrossCallReturnLabel_43:
   \   0000CA   12....       LCALL   ??bindIsClusterIDinList?relay
   \   0000CD   E9           MOV     A,R1
   \   0000CE   7013         JNZ     ??bindAddEntry_9
    307                  {
    308                    // Nope, add this cluster
    309                    if ( bindAddClusterIdToList( entry, clusterIds[index] ) == FALSE )
   \   0000D0                ; Setup parameters for call to function bindAddClusterIdToList
   \   0000D0   85..82       MOV     DPL,?V0 + 4
   \   0000D3   85..83       MOV     DPH,?V0 + 5
   \   0000D6   12....       LCALL   ?Subroutine27 & 0xFFFF
   \                     ??CrossCallReturnLabel_44:
   \   0000D9   12....       LCALL   ??bindAddClusterIdToList?relay
   \   0000DC   E9           MOV     A,R1
   \   0000DD   7004         JNZ     ??bindAddEntry_9
    310                    {
    311                      // Indicate error if cluster list was full
    312                      entry = NULL;
   \   0000DF   7E00         MOV     R6,#0x0
   \   0000E1   7F00         MOV     R7,#0x0
    313                    }
    314                  }
    315                }
   \                     ??bindAddEntry_9:
   \   0000E3   05..         INC     ?V0 + 1
   \   0000E5   80BF         SJMP    ??bindAddEntry_8
    316              }
    317              else
    318              {
    319                // Find an empty slot
    320                entry = bindFindEmpty();
   \                     ??bindAddEntry_6:
   \   0000E7                ; Setup parameters for call to function bindFindEmpty
   \   0000E7   12....       LCALL   ??bindFindEmpty?relay
   \   0000EA   8A..         MOV     ?V0 + 8,R2
   \   0000EC   8B..         MOV     ?V0 + 9,R3
   \   0000EE   AE..         MOV     R6,?V0 + 8
   \   0000F0   AF..         MOV     R7,?V0 + 9
    321          
    322                // Check against the maximum number allowed
    323                if ( entry != NULL )
   \   0000F2   EE           MOV     A,R6
   \   0000F3   4F           ORL     A,R7
   \   0000F4   6063         JZ      ??bindAddEntry_3
    324                {
    325                  // Add new entry
    326                  entry->srcEP         = fields.srcEP;
   \   0000F6   8E82         MOV     DPL,R6
   \   0000F8   8F83         MOV     DPH,R7
   \   0000FA   E5..         MOV     A,?V0 + 3
   \   0000FC   F0           MOVX    @DPTR,A
    327                  entry->dstGroupMode  = fields.dstAddrMode;
   \   0000FD   A3           INC     DPTR
   \   0000FE   E5..         MOV     A,?V0 + 6
   \   000100   F0           MOVX    @DPTR,A
    328                  entry->dstIdx        = fields.dstIndex;
   \   000101   8E82         MOV     DPL,R6
   \   000103   8F83         MOV     DPH,R7
   \   000105   A3           INC     DPTR
   \   000106   A3           INC     DPTR
   \   000107   E5..         MOV     A,?V0 + 4
   \   000109   F0           MOVX    @DPTR,A
   \   00010A   A3           INC     DPTR
   \   00010B   E5..         MOV     A,?V0 + 5
   \   00010D   F0           MOVX    @DPTR,A
    329                  entry->dstEP         = fields.dstEP;
   \   00010E   8E82         MOV     DPL,R6
   \   000110   8F83         MOV     DPH,R7
   \   000112   A3           INC     DPTR
   \   000113   A3           INC     DPTR
   \   000114   A3           INC     DPTR
   \   000115   A3           INC     DPTR
   \   000116   E5..         MOV     A,?V0 + 0
   \   000118   F0           MOVX    @DPTR,A
    330          
    331                  if ( numClusterIds > gMAX_BINDING_CLUSTER_IDS )
   \   000119   90....       MOV     DPTR,#gMAX_BINDING_CLUSTER_IDS
   \   00011C   E4           CLR     A
   \   00011D   93           MOVC    A,@A+DPTR
   \   00011E   C3           CLR     C
   \   00011F   95..         SUBB    A,?V0 + 2
   \   000121   5004         JNC     ??bindAddEntry_10
    332                  {
    333                    numClusterIds = gMAX_BINDING_CLUSTER_IDS;
   \   000123   E4           CLR     A
   \   000124   93           MOVC    A,@A+DPTR
   \   000125   F5..         MOV     ?V0 + 2,A
    334                  }
    335          
    336                  entry->numClusterIds = numClusterIds;
   \                     ??bindAddEntry_10:
   \   000127   8E82         MOV     DPL,R6
   \   000129   8F83         MOV     DPH,R7
   \   00012B   A3           INC     DPTR
   \   00012C   A3           INC     DPTR
   \   00012D   A3           INC     DPTR
   \   00012E   A3           INC     DPTR
   \   00012F   A3           INC     DPTR
   \   000130   E5..         MOV     A,?V0 + 2
   \   000132   F0           MOVX    @DPTR,A
    337          
    338                  osal_memcpy( entry->clusterIdList,
    339                               clusterIds,
    340                               numClusterIds * sizeof(uint16) );
   \   000133                ; Setup parameters for call to function osal_memcpy
   \   000133   85....       MOV     ?V0 + 4,?V0 + 10
   \   000136   85....       MOV     ?V0 + 5,?V0 + 11
   \   000139   75..00       MOV     ?V0 + 6,#0x0
   \   00013C   78..         MOV     R0,#?V0 + 4
   \   00013E   12....       LCALL   ?PUSH_XSTACK_I_THREE
   \   000141   E5..         MOV     A,?V0 + 2
   \   000143   C3           CLR     C
   \   000144   33           RLC     A
   \   000145   FC           MOV     R4,A
   \   000146   E4           CLR     A
   \   000147   33           RLC     A
   \   000148   FD           MOV     R5,A
   \   000149   EE           MOV     A,R6
   \   00014A   2406         ADD     A,#0x6
   \   00014C   FA           MOV     R2,A
   \   00014D   EF           MOV     A,R7
   \   00014E   3400         ADDC    A,#0x0
   \   000150   FB           MOV     R3,A
   \   000151   12....       LCALL   ??osal_memcpy?relay
   \   000154   7403         MOV     A,#0x3
   \   000156   12....       LCALL   ?DEALLOC_XSTACK8
    341                }
    342              }
    343            }
    344          
    345            return entry;
   \                     ??bindAddEntry_3:
   \   000159   EE           MOV     A,R6
   \   00015A   FA           MOV     R2,A
   \   00015B   EF           MOV     A,R7
   \   00015C   FB           MOV     R3,A
   \   00015D   7F0C         MOV     R7,#0xc
   \   00015F   02....       LJMP    ?BANKED_LEAVE_XDATA
    346          }

   \                                 In  segment BANKED_CODE, align 1, keep-with-next
   \                     ?Subroutine27:
   \   000000   E0           MOVX    A,@DPTR
   \   000001   FC           MOV     R4,A
   \   000002   A3           INC     DPTR
   \   000003   E0           MOVX    A,@DPTR
   \   000004   FD           MOV     R5,A
   \   000005   EE           MOV     A,R6
   \   000006   FA           MOV     R2,A
   \   000007   EF           MOV     A,R7
   \   000008   FB           MOV     R3,A
   \   000009   22           RET

   \                                 In  segment BANKED_CODE, align 1, keep-with-next
   \                     ?Subroutine12:
   \   000000   90....       MOV     DPTR,#gNWK_MAX_BINDING_ENTRIES
   \   000003                REQUIRE ??Subroutine34_0
   \   000003                ; // Fall through to label ??Subroutine34_0

   \                                 In  segment BANKED_CODE, align 1, keep-with-next
   \                     ?Subroutine13:
   \   000000   74..         MOV     A,#BindingTable & 0xff
   \   000002   28           ADD     A,R0
   \   000003   FE           MOV     R6,A
   \   000004   74..         MOV     A,#(BindingTable >> 8) & 0xff
   \   000006   39           ADDC    A,R1
   \   000007   FF           MOV     R7,A
   \   000008   8E82         MOV     DPL,R6
   \   00000A   8F83         MOV     DPH,R7
   \   00000C   E0           MOVX    A,@DPTR
   \   00000D   22           RET
    347          
    348          /*********************************************************************
    349           * @fn      bindRemoveEntry
    350           *
    351           * @brief   Removes a binding table entry.
    352           *
    353           * @param   pBind - pointer to binding table entry to delete
    354           *
    355           * @return  TRUE if Removed, FALSE if not
    356           */

   \                                 In  segment BANKED_CODE, align 1, keep-with-next
    357          byte bindRemoveEntry( BindingEntry_t *pBind )
   \                     bindRemoveEntry:
    358          {
   \   000000   C082         PUSH    DPL
   \   000002   C083         PUSH    DPH
   \   000004                ; Saved register size: 2
   \   000004                ; Auto size: 0
    359            osal_memset( pBind, 0xFF, gBIND_REC_SIZE );
   \   000004                ; Setup parameters for call to function osal_memset
   \   000004   12....       LCALL   ?Subroutine11 & 0xFFFF
   \                     ??CrossCallReturnLabel_63:
   \   000007   79FF         MOV     R1,#-0x1
   \   000009   12....       LCALL   ??osal_memset?relay
    360            return ( TRUE );
   \   00000C   7901         MOV     R1,#0x1
   \   00000E   02....       LJMP    ??Subroutine38_0 & 0xFFFF
    361          }
    362          
    363          /*********************************************************************
    364           * @fn      bindIsClusterIDinList()
    365           *
    366           * @brief   Is the clusterID in the clusterID list?
    367           *
    368           * @param   enter - binding table entry
    369           * @param   clusterId  - Cluster ID to look for
    370           *
    371           * @return  TRUE if found, FALSE if not found
    372           */

   \                                 In  segment BANKED_CODE, align 1, keep-with-next
    373          byte bindIsClusterIDinList( BindingEntry_t *entry, uint16 clusterId )
   \                     bindIsClusterIDinList:
    374          {
   \   000000   74F7         MOV     A,#-0x9
   \   000002   12....       LCALL   ?BANKED_ENTER_XDATA
   \   000005                ; Saved register size: 9
   \   000005                ; Auto size: 0
    375            uint8 x;
    376          
    377            if ( entry != NULL )
   \   000005   EA           MOV     A,R2
   \   000006   4B           ORL     A,R3
   \   000007   6037         JZ      ??bindIsClusterIDinList_0
    378            {
    379              for ( x = 0; x < entry->numClusterIds; x++ )
   \   000009   7E00         MOV     R6,#0x0
   \   00000B   8001         SJMP    ??bindIsClusterIDinList_1
   \                     ??bindIsClusterIDinList_2:
   \   00000D   0E           INC     R6
   \                     ??bindIsClusterIDinList_1:
   \   00000E   8A82         MOV     DPL,R2
   \   000010   8B83         MOV     DPH,R3
   \   000012   A3           INC     DPTR
   \   000013   A3           INC     DPTR
   \   000014   A3           INC     DPTR
   \   000015   A3           INC     DPTR
   \   000016   A3           INC     DPTR
   \   000017   E0           MOVX    A,@DPTR
   \   000018   F8           MOV     R0,A
   \   000019   EE           MOV     A,R6
   \   00001A   C3           CLR     C
   \   00001B   98           SUBB    A,R0
   \   00001C   5022         JNC     ??bindIsClusterIDinList_0
    380              {
    381                if ( entry->clusterIdList[x] == clusterId )
   \   00001E   EE           MOV     A,R6
   \   00001F   C3           CLR     C
   \   000020   33           RLC     A
   \   000021   F8           MOV     R0,A
   \   000022   E4           CLR     A
   \   000023   33           RLC     A
   \   000024   F9           MOV     R1,A
   \   000025   EA           MOV     A,R2
   \   000026   28           ADD     A,R0
   \   000027   F582         MOV     DPL,A
   \   000029   EB           MOV     A,R3
   \   00002A   39           ADDC    A,R1
   \   00002B   F583         MOV     DPH,A
   \   00002D   A3           INC     DPTR
   \   00002E   A3           INC     DPTR
   \   00002F   A3           INC     DPTR
   \   000030   A3           INC     DPTR
   \   000031   A3           INC     DPTR
   \   000032   A3           INC     DPTR
   \   000033   E0           MOVX    A,@DPTR
   \   000034   6C           XRL     A,R4
   \   000035   7003         JNZ     ??bindIsClusterIDinList_3
   \   000037   A3           INC     DPTR
   \   000038   E0           MOVX    A,@DPTR
   \   000039   6D           XRL     A,R5
   \                     ??bindIsClusterIDinList_3:
   \   00003A   70D1         JNZ     ??bindIsClusterIDinList_2
    382                {
    383                  return ( TRUE );
   \   00003C   7901         MOV     R1,#0x1
   \   00003E   8002         SJMP    ??bindIsClusterIDinList_4
    384                }
    385              }
    386            }
    387          
    388            return ( FALSE );
   \                     ??bindIsClusterIDinList_0:
   \   000040   7900         MOV     R1,#0x0
   \                     ??bindIsClusterIDinList_4:
   \   000042   02....       LJMP    ?Subroutine2 & 0xFFFF
    389          }
    390          
    391          /*********************************************************************
    392           * @fn      bindRemoveClusterIdFromList()
    393           *
    394           * @brief   Removes a ClusterID from a list of ClusterIDs.
    395           *
    396           * @param   enter - binding table entry
    397           * @param   clusterId  - Cluster ID to look for
    398           *
    399           * @return  TRUE if there are at least 1 clusterID left, FALSE if none
    400           */

   \                                 In  segment BANKED_CODE, align 1, keep-with-next
    401          byte bindRemoveClusterIdFromList( BindingEntry_t *entry, uint16 clusterId )
   \                     bindRemoveClusterIdFromList:
    402          {
   \   000000   74F3         MOV     A,#-0xd
   \   000002   12....       LCALL   ?BANKED_ENTER_XDATA
   \   000005                ; Saved register size: 13
   \   000005                ; Auto size: 0
    403            byte x;
    404            uint16 *listPtr;
    405            byte numIds;
    406          
    407            if ( entry )
   \   000005   EA           MOV     A,R2
   \   000006   4B           ORL     A,R3
   \   000007   7003         JNZ     $+5
   \   000009   02....       LJMP    ??bindRemoveClusterIdFromList_0 & 0xFFFF
    408            {
    409              if ( entry->numClusterIds > 0 )
   \   00000C   EA           MOV     A,R2
   \   00000D   2405         ADD     A,#0x5
   \   00000F   12....       LCALL   ?Subroutine30 & 0xFFFF
   \                     ??CrossCallReturnLabel_50:
   \   000012   607E         JZ      ??bindRemoveClusterIdFromList_0
    410              {
    411                listPtr = entry->clusterIdList;
   \   000014   EA           MOV     A,R2
   \   000015   2406         ADD     A,#0x6
   \   000017   08           INC     R0
   \   000018   EB           MOV     A,R3
   \   000019   3400         ADDC    A,#0x0
   \   00001B   F9           MOV     R1,A
    412                numIds = entry->numClusterIds;
   \   00001C   E0           MOVX    A,@DPTR
   \   00001D   F5..         MOV     ?V0 + 3,A
    413          
    414                // Copy the new list over
    415                for ( x = 0; x < numIds; x++ )
   \   00001F   75..00       MOV     ?V0 + 2,#0x0
   \   000022   800B         SJMP    ??bindRemoveClusterIdFromList_1
    416                {
    417                  if ( entry->clusterIdList[x] != clusterId )
    418                  {
    419                    *listPtr++ = entry->clusterIdList[x];
    420                  }
    421                  else
    422                  {
    423                    entry->numClusterIds--;
   \                     ??bindRemoveClusterIdFromList_2:
   \   000024   8E82         MOV     DPL,R6
   \   000026   8F83         MOV     DPH,R7
   \   000028   E0           MOVX    A,@DPTR
   \   000029   14           DEC     A
   \   00002A   F0           MOVX    @DPTR,A
    424                    if ( entry->numClusterIds == 0 )
   \   00002B   6065         JZ      ??bindRemoveClusterIdFromList_0
    425                    {
    426                      break;
    427                    }
    428                  }
   \                     ??bindRemoveClusterIdFromList_3:
   \   00002D   05..         INC     ?V0 + 2
   \                     ??bindRemoveClusterIdFromList_1:
   \   00002F   E5..         MOV     A,?V0 + 2
   \   000031   C3           CLR     C
   \   000032   95..         SUBB    A,?V0 + 3
   \   000034   5051         JNC     ??bindRemoveClusterIdFromList_4
   \   000036   E5..         MOV     A,?V0 + 2
   \   000038   C3           CLR     C
   \   000039   33           RLC     A
   \   00003A   F5..         MOV     ?V0 + 0,A
   \   00003C   E4           CLR     A
   \   00003D   33           RLC     A
   \   00003E   F5..         MOV     ?V0 + 1,A
   \   000040   EA           MOV     A,R2
   \   000041   25..         ADD     A,?V0 + 0
   \   000043   F5..         MOV     ?V0 + 0,A
   \   000045   EB           MOV     A,R3
   \   000046   35..         ADDC    A,?V0 + 1
   \   000048   F5..         MOV     ?V0 + 1,A
   \   00004A   E5..         MOV     A,?V0 + 0
   \   00004C   2406         ADD     A,#0x6
   \   00004E   F5..         MOV     ?V0 + 0,A
   \   000050   E5..         MOV     A,?V0 + 1
   \   000052   3400         ADDC    A,#0x0
   \   000054   F5..         MOV     ?V0 + 1,A
   \   000056   85..82       MOV     DPL,?V0 + 0
   \   000059   F583         MOV     DPH,A
   \   00005B   E0           MOVX    A,@DPTR
   \   00005C   6C           XRL     A,R4
   \   00005D   7003         JNZ     ??bindRemoveClusterIdFromList_5
   \   00005F   A3           INC     DPTR
   \   000060   E0           MOVX    A,@DPTR
   \   000061   6D           XRL     A,R5
   \                     ??bindRemoveClusterIdFromList_5:
   \   000062   60C0         JZ      ??bindRemoveClusterIdFromList_2
   \   000064   85..82       MOV     DPL,?V0 + 0
   \   000067   85..83       MOV     DPH,?V0 + 1
   \   00006A   E0           MOVX    A,@DPTR
   \   00006B   F5..         MOV     ?V0 + 0,A
   \   00006D   A3           INC     DPTR
   \   00006E   E0           MOVX    A,@DPTR
   \   00006F   F5..         MOV     ?V0 + 1,A
   \   000071   8882         MOV     DPL,R0
   \   000073   8983         MOV     DPH,R1
   \   000075   E5..         MOV     A,?V0 + 0
   \   000077   F0           MOVX    @DPTR,A
   \   000078   A3           INC     DPTR
   \   000079   E5..         MOV     A,?V0 + 1
   \   00007B   F0           MOVX    @DPTR,A
   \   00007C   E8           MOV     A,R0
   \   00007D   2402         ADD     A,#0x2
   \   00007F   08           INC     R0
   \   000080   08           INC     R0
   \   000081   E9           MOV     A,R1
   \   000082   3400         ADDC    A,#0x0
   \   000084   F9           MOV     R1,A
   \   000085   80A6         SJMP    ??bindRemoveClusterIdFromList_3
    429                }
    430              }
    431            }
   \                     ??bindRemoveClusterIdFromList_4:
   \   000087   8E82         MOV     DPL,R6
   \   000089   8F83         MOV     DPH,R7
   \   00008B   E0           MOVX    A,@DPTR
   \   00008C   6004         JZ      ??bindRemoveClusterIdFromList_0
    432          
    433            if ( entry && (entry->numClusterIds > 0) )
    434            {
    435              return ( TRUE );
   \   00008E   7901         MOV     R1,#0x1
   \   000090   8002         SJMP    ??bindRemoveClusterIdFromList_6
    436            }
    437            else
    438            {
    439              return ( FALSE );
   \                     ??bindRemoveClusterIdFromList_0:
   \   000092   7900         MOV     R1,#0x0
    440            }
   \                     ??bindRemoveClusterIdFromList_6:
   \   000094                REQUIRE ?Subroutine4
   \   000094                ; // Fall through to label ?Subroutine4
    441          }

   \                                 In  segment BANKED_CODE, align 1, keep-with-next
   \                     ?Subroutine4:
   \   000000   7F05         MOV     R7,#0x5
   \   000002   02....       LJMP    ?BANKED_LEAVE_XDATA

   \                                 In  segment BANKED_CODE, align 1, keep-with-next
   \                     ?Subroutine30:
   \   000000   F8           MOV     R0,A
   \   000001   EB           MOV     A,R3
   \   000002   3400         ADDC    A,#0x0
   \   000004   F9           MOV     R1,A
   \   000005   E8           MOV     A,R0
   \   000006   FE           MOV     R6,A
   \   000007   E9           MOV     A,R1
   \   000008   FF           MOV     R7,A
   \   000009   8E82         MOV     DPL,R6
   \   00000B   8F83         MOV     DPH,R7
   \   00000D   E0           MOVX    A,@DPTR
   \   00000E   22           RET
    442          
    443          /*********************************************************************
    444           * @fn      bindAddClusterIdToList()
    445           *
    446           * @brief   Adds a ClusterID to a list of ClusterIDs.
    447           *
    448           * @param   enter - binding table entry
    449           * @param   clusterId  - Cluster ID to Add
    450           *
    451           * @return  TRUE if Added, FALSE if not
    452           */

   \                                 In  segment BANKED_CODE, align 1, keep-with-next
    453          byte bindAddClusterIdToList( BindingEntry_t *entry, uint16 clusterId )
   \                     bindAddClusterIdToList:
    454          {
   \   000000   74F7         MOV     A,#-0x9
   \   000002   12....       LCALL   ?BANKED_ENTER_XDATA
   \   000005                ; Saved register size: 9
   \   000005                ; Auto size: 0
    455            if ( entry && entry->numClusterIds < gMAX_BINDING_CLUSTER_IDS )
   \   000005   EA           MOV     A,R2
   \   000006   4B           ORL     A,R3
   \   000007   603C         JZ      ??bindAddClusterIdToList_0
   \   000009   EA           MOV     A,R2
   \   00000A   2405         ADD     A,#0x5
   \   00000C   F8           MOV     R0,A
   \   00000D   EB           MOV     A,R3
   \   00000E   3400         ADDC    A,#0x0
   \   000010   F9           MOV     R1,A
   \   000011   90....       MOV     DPTR,#gMAX_BINDING_CLUSTER_IDS
   \   000014   E4           CLR     A
   \   000015   93           MOVC    A,@A+DPTR
   \   000016   FE           MOV     R6,A
   \   000017   8882         MOV     DPL,R0
   \   000019   8983         MOV     DPH,R1
   \   00001B   E0           MOVX    A,@DPTR
   \   00001C   C3           CLR     C
   \   00001D   9E           SUBB    A,R6
   \   00001E   5025         JNC     ??bindAddClusterIdToList_0
    456            {
    457              // Add the new one
    458              entry->clusterIdList[entry->numClusterIds] = clusterId;
   \   000020   E0           MOVX    A,@DPTR
   \   000021   C3           CLR     C
   \   000022   33           RLC     A
   \   000023   FE           MOV     R6,A
   \   000024   E4           CLR     A
   \   000025   33           RLC     A
   \   000026   FF           MOV     R7,A
   \   000027   EA           MOV     A,R2
   \   000028   2E           ADD     A,R6
   \   000029   F582         MOV     DPL,A
   \   00002B   EB           MOV     A,R3
   \   00002C   3F           ADDC    A,R7
   \   00002D   F583         MOV     DPH,A
   \   00002F   A3           INC     DPTR
   \   000030   A3           INC     DPTR
   \   000031   A3           INC     DPTR
   \   000032   A3           INC     DPTR
   \   000033   A3           INC     DPTR
   \   000034   A3           INC     DPTR
   \   000035   EC           MOV     A,R4
   \   000036   F0           MOVX    @DPTR,A
   \   000037   A3           INC     DPTR
   \   000038   ED           MOV     A,R5
   \   000039   F0           MOVX    @DPTR,A
    459              entry->numClusterIds++;
   \   00003A   8882         MOV     DPL,R0
   \   00003C   8983         MOV     DPH,R1
   \   00003E   E0           MOVX    A,@DPTR
   \   00003F   04           INC     A
   \   000040   F0           MOVX    @DPTR,A
    460              return ( TRUE );
   \   000041   7901         MOV     R1,#0x1
   \   000043   8002         SJMP    ??bindAddClusterIdToList_1
    461            }
    462            return ( FALSE );
   \                     ??bindAddClusterIdToList_0:
   \   000045   7900         MOV     R1,#0x0
   \                     ??bindAddClusterIdToList_1:
   \   000047                REQUIRE ?Subroutine2
   \   000047                ; // Fall through to label ?Subroutine2
    463          }
    464          
    465          /*********************************************************************
    466           * @fn      bindFindExisting
    467           *
    468           * @brief   Finds an existing src/epint to dst/epint bind record
    469           *
    470           * @param   srcAddr - Source address
    471           * @param   srcEpInt - Source Endpoint/Interface
    472           * @param   dstAddr - Destination address
    473           * @param   dstEpInt - Destination Endpoint/Interface
    474           *
    475           * @return  pointer to existing entry or NULL
    476           */

   \                                 In  segment BANKED_CODE, align 1, keep-with-next
    477          BindingEntry_t *bindFindExisting( byte srcEpInt,
   \                     bindFindExisting:
    478                                            zAddrType_t *dstAddr, byte dstEpInt )
    479          {
   \   000000   74F2         MOV     A,#-0xe
   \   000002   12....       LCALL   ?BANKED_ENTER_XDATA
   \   000005                ; Saved register size: 14
   \   000005                ; Auto size: 0
   \   000005   89..         MOV     ?V0 + 0,R1
   \   000007   8C..         MOV     ?V0 + 1,R4
    480            uint16 dstIdx;
    481            uint16 x;
    482          
    483            // Find the records in the assoc list
    484            if ( dstAddr->addrMode == AddrGroup )
   \   000009   12....       LCALL   ?Subroutine23 & 0xFFFF
   \                     ??CrossCallReturnLabel_37:
   \   00000C   700D         JNZ     ??bindFindExisting_0
    485            {
    486              dstIdx = dstAddr->addr.shortAddr;
   \   00000E   8A82         MOV     DPL,R2
   \   000010   8B83         MOV     DPH,R3
   \   000012   E0           MOVX    A,@DPTR
   \   000013   F5..         MOV     ?V0 + 2,A
   \   000015   A3           INC     DPTR
   \   000016   E0           MOVX    A,@DPTR
   \   000017   F5..         MOV     ?V0 + 3,A
   \   000019   8007         SJMP    ??bindFindExisting_1
    487            }
    488            else
    489            {
    490              dstIdx = bindingAddrMgsHelperFind( dstAddr );
   \                     ??bindFindExisting_0:
   \   00001B                ; Setup parameters for call to function bindingAddrMgsHelperFind
   \   00001B   12....       LCALL   ??bindingAddrMgsHelperFind?relay
   \   00001E   8A..         MOV     ?V0 + 2,R2
   \   000020   8B..         MOV     ?V0 + 3,R3
    491            }
    492          
    493            if ( dstIdx == INVALID_NODE_ADDR )
   \                     ??bindFindExisting_1:
   \   000022   74FE         MOV     A,#-0x2
   \   000024   65..         XRL     A,?V0 + 2
   \   000026   7004         JNZ     ??bindFindExisting_2
   \   000028   74FF         MOV     A,#-0x1
   \   00002A   65..         XRL     A,?V0 + 3
   \                     ??bindFindExisting_2:
   \   00002C   7006         JNZ     ??bindFindExisting_3
    494            {
    495              return ( (BindingEntry_t *)NULL );
   \                     ??bindFindExisting_4:
   \   00002E   7A00         MOV     R2,#0x0
   \   000030   7B00         MOV     R3,#0x0
   \   000032   8064         SJMP    ??bindFindExisting_5
    496            }
    497          
    498            // Start at the beginning
    499            for ( x = 0; x < gNWK_MAX_BINDING_ENTRIES; x++ )
   \                     ??bindFindExisting_3:
   \   000034   7800         MOV     R0,#0x0
   \   000036   7900         MOV     R1,#0x0
   \   000038   8018         SJMP    ??CrossCallReturnLabel_20
    500            {
    501              if ( (BindingTable[x].srcEP == srcEpInt) )
   \                     ??bindFindExisting_6:
   \   00003A   7401         MOV     A,#0x1
   \   00003C   65..         XRL     A,?V0 + 4
   \   00003E   700F         JNZ     ??bindFindExisting_7
   \   000040   8C82         MOV     DPL,R4
   \   000042   8D83         MOV     DPH,R5
   \   000044   E0           MOVX    A,@DPTR
   \   000045   65..         XRL     A,?V0 + 2
   \   000047   7004         JNZ     ??bindFindExisting_8
   \   000049   A3           INC     DPTR
   \   00004A   E0           MOVX    A,@DPTR
   \   00004B   65..         XRL     A,?V0 + 3
   \                     ??bindFindExisting_8:
   \   00004D   6049         JZ      ??bindFindExisting_5
   \                     ??bindFindExisting_7:
   \   00004F   12....       LCALL   ?Subroutine16 & 0xFFFF
   \                     ??CrossCallReturnLabel_20:
   \   000052   12....       LCALL   ?Subroutine8 & 0xFFFF
   \                     ??CrossCallReturnLabel_1:
   \   000055   50D7         JNC     ??bindFindExisting_4
   \   000057   12....       LCALL   ?Subroutine24 & 0xFFFF
   \                     ??CrossCallReturnLabel_39:
   \   00005A   8A82         MOV     DPL,R2
   \   00005C   8B83         MOV     DPH,R3
   \   00005E   E0           MOVX    A,@DPTR
   \   00005F   65..         XRL     A,?V0 + 0
   \   000061   70EC         JNZ     ??bindFindExisting_7
   \   000063   A3           INC     DPTR
   \   000064   E0           MOVX    A,@DPTR
   \   000065   F5..         MOV     ?V0 + 4,A
   \   000067   EA           MOV     A,R2
   \   000068   2402         ADD     A,#0x2
   \   00006A   FC           MOV     R4,A
   \   00006B   EB           MOV     A,R3
   \   00006C   3400         ADDC    A,#0x0
   \   00006E   FD           MOV     R5,A
   \   00006F   8E82         MOV     DPL,R6
   \   000071   8F83         MOV     DPH,R7
   \   000073   E0           MOVX    A,@DPTR
   \   000074   6401         XRL     A,#0x1
   \   000076   60C2         JZ      ??bindFindExisting_6
   \   000078   E5..         MOV     A,?V0 + 4
   \   00007A   70D3         JNZ     ??bindFindExisting_7
   \   00007C   8C82         MOV     DPL,R4
   \   00007E   8D83         MOV     DPH,R5
   \   000080   E0           MOVX    A,@DPTR
   \   000081   65..         XRL     A,?V0 + 2
   \   000083   7004         JNZ     ??bindFindExisting_9
   \   000085   A3           INC     DPTR
   \   000086   E0           MOVX    A,@DPTR
   \   000087   65..         XRL     A,?V0 + 3
   \                     ??bindFindExisting_9:
   \   000089   70C4         JNZ     ??bindFindExisting_7
   \   00008B   8A82         MOV     DPL,R2
   \   00008D   8B83         MOV     DPH,R3
   \   00008F   A3           INC     DPTR
   \   000090   A3           INC     DPTR
   \   000091   A3           INC     DPTR
   \   000092   A3           INC     DPTR
   \   000093   E0           MOVX    A,@DPTR
   \   000094   65..         XRL     A,?V0 + 1
   \   000096   70B7         JNZ     ??bindFindExisting_7
    502              {
    503                if ( ((dstAddr->addrMode == AddrGroup)
    504                        && (BindingTable[x].dstGroupMode == DSTGROUPMODE_GROUP)
    505                        && (dstIdx == BindingTable[x].dstIdx))
    506                   || ((dstAddr->addrMode != AddrGroup)
    507                       && (BindingTable[x].dstGroupMode == DSTGROUPMODE_ADDR)
    508                       && (dstIdx == BindingTable[x].dstIdx) && (BindingTable[x].dstEP == dstEpInt)) )
    509                {
    510                  return ( &BindingTable[x] );
   \                     ??bindFindExisting_5:
   \   000098                REQUIRE ?Subroutine5
   \   000098                ; // Fall through to label ?Subroutine5
    511                }
    512              }
    513            }
    514          
    515            return ( (BindingEntry_t *)NULL );
    516          }

   \                                 In  segment BANKED_CODE, align 1, keep-with-next
   \                     ?Subroutine5:
   \   000000   7F06         MOV     R7,#0x6
   \   000002   02....       LJMP    ?BANKED_LEAVE_XDATA

   \                                 In  segment BANKED_CODE, align 1, keep-with-next
   \                     ?Subroutine23:
   \   000000   EA           MOV     A,R2
   \   000001   2408         ADD     A,#0x8
   \   000003   12....       LCALL   ?Subroutine30 & 0xFFFF
   \                     ??CrossCallReturnLabel_51:
   \   000006   6401         XRL     A,#0x1
   \   000008   22           RET

   \                                 In  segment BANKED_CODE, align 1, keep-with-next
   \                     ?Subroutine24:
   \   000000   E8           MOV     A,R0
   \   000001   FA           MOV     R2,A
   \   000002   E9           MOV     A,R1
   \   000003   FB           MOV     R3,A
   \   000004   EA           MOV     A,R2
   \   000005   75F00E       MOV     B,#0xe
   \   000008   A4           MUL     AB
   \   000009   FA           MOV     R2,A
   \   00000A   ACF0         MOV     R4,B
   \   00000C   75F00E       MOV     B,#0xe
   \   00000F   EB           MOV     A,R3
   \   000010   A4           MUL     AB
   \   000011   2C           ADD     A,R4
   \   000012   FB           MOV     R3,A
   \   000013   74..         MOV     A,#BindingTable & 0xff
   \   000015   2A           ADD     A,R2
   \   000016   FA           MOV     R2,A
   \   000017   74..         MOV     A,#(BindingTable >> 8) & 0xff
   \   000019   3B           ADDC    A,R3
   \   00001A   FB           MOV     R3,A
   \   00001B   22           RET
    517          
    518          /*********************************************************************
    519           * @fn       bindRemoveDev()
    520           *
    521           * @brief
    522           *
    523           *   Remove all bind(s) entries associated to a device address (destination).
    524           *   Updates binding table.
    525           *
    526           * @param   Addr - address of device to be removed from Binding Table
    527           *
    528           * @return  none
    529           */

   \                                 In  segment BANKED_CODE, align 1, keep-with-next
    530          void bindRemoveDev( zAddrType_t *Addr )
   \                     bindRemoveDev:
    531          {
   \   000000   74F2         MOV     A,#-0xe
   \   000002   12....       LCALL   ?BANKED_ENTER_XDATA
   \   000005                ; Saved register size: 14
   \   000005                ; Auto size: 0
    532            uint16 idx;
    533            uint16 x;
    534          
    535            if ( Addr->addrMode == AddrGroup )
   \   000005   EA           MOV     A,R2
   \   000006   2408         ADD     A,#0x8
   \   000008   F8           MOV     R0,A
   \   000009   EB           MOV     A,R3
   \   00000A   3400         ADDC    A,#0x0
   \   00000C   F9           MOV     R1,A
   \   00000D   88..         MOV     ?V0 + 0,R0
   \   00000F   89..         MOV     ?V0 + 1,R1
   \   000011   8882         MOV     DPL,R0
   \   000013   F583         MOV     DPH,A
   \   000015   E0           MOVX    A,@DPTR
   \   000016   6401         XRL     A,#0x1
   \   000018   700D         JNZ     ??bindRemoveDev_0
    536            {
    537              idx = Addr->addr.shortAddr;
   \   00001A   8A82         MOV     DPL,R2
   \   00001C   8B83         MOV     DPH,R3
   \   00001E   E0           MOVX    A,@DPTR
   \   00001F   F5..         MOV     ?V0 + 2,A
   \   000021   A3           INC     DPTR
   \   000022   E0           MOVX    A,@DPTR
   \   000023   F5..         MOV     ?V0 + 3,A
   \   000025   8007         SJMP    ??bindRemoveDev_1
    538            }
    539            else
    540            {
    541              idx = bindingAddrMgsHelperFind( Addr );
   \                     ??bindRemoveDev_0:
   \   000027                ; Setup parameters for call to function bindingAddrMgsHelperFind
   \   000027   12....       LCALL   ??bindingAddrMgsHelperFind?relay
   \   00002A   8A..         MOV     ?V0 + 2,R2
   \   00002C   8B..         MOV     ?V0 + 3,R3
    542            }
    543          
    544            if ( idx == INVALID_NODE_ADDR )
   \                     ??bindRemoveDev_1:
   \   00002E   74FE         MOV     A,#-0x2
   \   000030   65..         XRL     A,?V0 + 2
   \   000032   7004         JNZ     ??bindRemoveDev_2
   \   000034   74FF         MOV     A,#-0x1
   \   000036   65..         XRL     A,?V0 + 3
   \                     ??bindRemoveDev_2:
   \   000038   606E         JZ      ??bindRemoveDev_3
    545            {
    546              return;
    547            }
    548          
    549            // Removes all the entries that match the destination Address/Index
    550            for ( x = 0; x < gNWK_MAX_BINDING_ENTRIES; x++ )
   \   00003A   7E00         MOV     R6,#0x0
   \   00003C   7F00         MOV     R7,#0x0
   \   00003E   8018         SJMP    ??CrossCallReturnLabel_34
    551            {
    552              if ( ( (Addr->addrMode == AddrGroup) && (BindingTable[x].dstGroupMode == DSTGROUPMODE_GROUP)
    553                                                   && (BindingTable[x].dstIdx == idx) ) ||
    554                   ( (Addr->addrMode != AddrGroup) && (BindingTable[x].dstGroupMode == DSTGROUPMODE_ADDR)
    555                                                   && (BindingTable[x].dstIdx == idx) ) )
   \                     ??bindRemoveDev_4:
   \   000040   EC           MOV     A,R4
   \   000041   7012         JNZ     ??bindRemoveDev_5
   \   000043   8882         MOV     DPL,R0
   \   000045   8983         MOV     DPH,R1
   \   000047   E0           MOVX    A,@DPTR
   \   000048   65..         XRL     A,?V0 + 2
   \   00004A   7004         JNZ     ??bindRemoveDev_6
   \   00004C   A3           INC     DPTR
   \   00004D   E0           MOVX    A,@DPTR
   \   00004E   65..         XRL     A,?V0 + 3
   \                     ??bindRemoveDev_6:
   \   000050   7003         JNZ     ??bindRemoveDev_5
    556              {
    557                bindRemoveEntry( &BindingTable[x] );
   \                     ??bindRemoveDev_7:
   \   000052                ; Setup parameters for call to function bindRemoveEntry
   \   000052   12....       LCALL   ??bindRemoveEntry?relay
    558              }
   \                     ??bindRemoveDev_5:
   \   000055   12....       LCALL   ?Subroutine22 & 0xFFFF
   \                     ??CrossCallReturnLabel_34:
   \   000058   12....       LCALL   ?Subroutine9 & 0xFFFF
   \                     ??CrossCallReturnLabel_4:
   \   00005B   504B         JNC     ??bindRemoveDev_3
   \   00005D   EE           MOV     A,R6
   \   00005E   F8           MOV     R0,A
   \   00005F   EF           MOV     A,R7
   \   000060   F9           MOV     R1,A
   \   000061   E8           MOV     A,R0
   \   000062   75F00E       MOV     B,#0xe
   \   000065   A4           MUL     AB
   \   000066   F8           MOV     R0,A
   \   000067   AAF0         MOV     R2,B
   \   000069   75F00E       MOV     B,#0xe
   \   00006C   E9           MOV     A,R1
   \   00006D   A4           MUL     AB
   \   00006E   2A           ADD     A,R2
   \   00006F   F9           MOV     R1,A
   \   000070   74..         MOV     A,#BindingTable & 0xff
   \   000072   28           ADD     A,R0
   \   000073   FA           MOV     R2,A
   \   000074   74..         MOV     A,#(BindingTable >> 8) & 0xff
   \   000076   39           ADDC    A,R1
   \   000077   FB           MOV     R3,A
   \   000078   8A82         MOV     DPL,R2
   \   00007A   8B83         MOV     DPH,R3
   \   00007C   A3           INC     DPTR
   \   00007D   E0           MOVX    A,@DPTR
   \   00007E   FC           MOV     R4,A
   \   00007F   EA           MOV     A,R2
   \   000080   2402         ADD     A,#0x2
   \   000082   F8           MOV     R0,A
   \   000083   EB           MOV     A,R3
   \   000084   3400         ADDC    A,#0x0
   \   000086   F9           MOV     R1,A
   \   000087   85..82       MOV     DPL,?V0 + 0
   \   00008A   85..83       MOV     DPH,?V0 + 1
   \   00008D   E0           MOVX    A,@DPTR
   \   00008E   6401         XRL     A,#0x1
   \   000090   70AE         JNZ     ??bindRemoveDev_4
   \   000092   7401         MOV     A,#0x1
   \   000094   6C           XRL     A,R4
   \   000095   70BE         JNZ     ??bindRemoveDev_5
   \   000097   8882         MOV     DPL,R0
   \   000099   8983         MOV     DPH,R1
   \   00009B   E0           MOVX    A,@DPTR
   \   00009C   65..         XRL     A,?V0 + 2
   \   00009E   7004         JNZ     ??bindRemoveDev_8
   \   0000A0   A3           INC     DPTR
   \   0000A1   E0           MOVX    A,@DPTR
   \   0000A2   65..         XRL     A,?V0 + 3
   \                     ??bindRemoveDev_8:
   \   0000A4   60AC         JZ      ??bindRemoveDev_7
   \   0000A6   80AD         SJMP    ??bindRemoveDev_5
    559            }
   \                     ??bindRemoveDev_3:
   \   0000A8   02....       LJMP    ?Subroutine5 & 0xFFFF
    560          }

   \                                 In  segment BANKED_CODE, align 1, keep-with-next
   \                     ?Subroutine22:
   \   000000   EE           MOV     A,R6
   \   000001   2401         ADD     A,#0x1
   \   000003   0E           INC     R6
   \   000004   EF           MOV     A,R7
   \   000005   3400         ADDC    A,#0x0
   \   000007   FF           MOV     R7,A
   \   000008   22           RET

   \                                 In  segment BANKED_CODE, align 1, keep-with-next
   \                     ?Subroutine9:
   \   000000   90....       MOV     DPTR,#gNWK_MAX_BINDING_ENTRIES
   \   000003   E4           CLR     A
   \   000004   93           MOVC    A,@A+DPTR
   \   000005   F8           MOV     R0,A
   \   000006   7401         MOV     A,#0x1
   \   000008   93           MOVC    A,@A+DPTR
   \   000009   F9           MOV     R1,A
   \   00000A   C3           CLR     C
   \   00000B   EE           MOV     A,R6
   \   00000C   98           SUBB    A,R0
   \   00000D   EF           MOV     A,R7
   \   00000E   99           SUBB    A,R1
   \   00000F   22           RET
    561          
    562          /*********************************************************************
    563           * @fn       bindRemoveSrcDev()
    564           *
    565           * @brief
    566           *
    567           *   Remove binds(s) associated to device address (source).
    568           *   Updates binding table.
    569           *
    570           * @param   srcAddr - address of device
    571           * @param   ep - endpoint to remove, 0xFF is all endpoints
    572           *
    573           * @return  none
    574           */

   \                                 In  segment BANKED_CODE, align 1, keep-with-next
    575          void bindRemoveSrcDev( uint8 ep )
   \                     bindRemoveSrcDev:
    576          {
   \   000000   74F7         MOV     A,#-0x9
   \   000002   12....       LCALL   ?BANKED_ENTER_XDATA
   \   000005                ; Saved register size: 9
   \   000005                ; Auto size: 0
   \   000005   89..         MOV     ?V0 + 0,R1
    577            uint16 x;
    578          
    579            for ( x = 0; x < gNWK_MAX_BINDING_ENTRIES; x++ )
   \   000007   7E00         MOV     R6,#0x0
   \   000009   7F00         MOV     R7,#0x0
   \   00000B   8018         SJMP    ??CrossCallReturnLabel_35
    580            {
    581              if ( (ep == 0xFF) || (ep == BindingTable[x].srcEP) )
   \                     ??bindRemoveSrcDev_0:
   \   00000D   12....       LCALL   ?Subroutine15 & 0xFFFF
   \                     ??CrossCallReturnLabel_15:
   \   000010   74FF         MOV     A,#-0x1
   \   000012   65..         XRL     A,?V0 + 0
   \   000014   6005         JZ      ??bindRemoveSrcDev_1
   \   000016   E0           MOVX    A,@DPTR
   \   000017   65..         XRL     A,?V0 + 0
   \   000019   7007         JNZ     ??bindRemoveSrcDev_2
    582              {
    583                bindRemoveEntry( &BindingTable[x] );
   \                     ??bindRemoveSrcDev_1:
   \   00001B                ; Setup parameters for call to function bindRemoveEntry
   \   00001B   AA82         MOV     R2,DPL
   \   00001D   AB83         MOV     R3,DPH
   \   00001F   12....       LCALL   ??bindRemoveEntry?relay
    584              }
    585            }
   \                     ??bindRemoveSrcDev_2:
   \   000022   12....       LCALL   ?Subroutine22 & 0xFFFF
   \                     ??CrossCallReturnLabel_35:
   \   000025   12....       LCALL   ?Subroutine9 & 0xFFFF
   \                     ??CrossCallReturnLabel_5:
   \   000028   40E3         JC      ??bindRemoveSrcDev_0
    586          }
   \   00002A   02....       LJMP    ?Subroutine2 & 0xFFFF

   \                                 In  segment BANKED_CODE, align 1, keep-with-next
   \                     ?Subroutine15:
   \   000000   EE           MOV     A,R6
   \   000001   F8           MOV     R0,A
   \   000002   EF           MOV     A,R7
   \   000003   F9           MOV     R1,A
   \   000004   E8           MOV     A,R0
   \   000005   75F00E       MOV     B,#0xe
   \   000008   A4           MUL     AB
   \   000009   F8           MOV     R0,A
   \   00000A   AAF0         MOV     R2,B
   \   00000C   75F00E       MOV     B,#0xe
   \   00000F   E9           MOV     A,R1
   \   000010   A4           MUL     AB
   \   000011   2A           ADD     A,R2
   \   000012   F9           MOV     R1,A
   \   000013   74..         MOV     A,#BindingTable & 0xff
   \   000015   28           ADD     A,R0
   \   000016   F582         MOV     DPL,A
   \   000018   74..         MOV     A,#(BindingTable >> 8) & 0xff
   \   00001A   39           ADDC    A,R1
   \   00001B   F583         MOV     DPH,A
   \   00001D   22           RET
    587          
    588          /*********************************************************************
    589           * @fn          bindNumBoundTo
    590           *
    591           * @brief       Calculate the number items this device is bound to.
    592           *              When srcMode is set to TRUE, discard what value devAddr
    593           *              has, it returns number count bound to the local dev.
    594           *
    595           * @param       devAddr - device Address
    596           * @param       devEP - endpoint
    597           * @param       srcMode - TRUE - assume devHandle is a source address
    598           *                        FALSE - destination address
    599           *
    600           * @return      status
    601           */

   \                                 In  segment BANKED_CODE, align 1, keep-with-next
    602          byte bindNumBoundTo( zAddrType_t *devAddr, byte devEpInt, byte srcMode )
   \                     bindNumBoundTo:
    603          {
   \   000000   74F2         MOV     A,#-0xe
   \   000002   12....       LCALL   ?BANKED_ENTER_XDATA
   \   000005                ; Saved register size: 14
   \   000005                ; Auto size: 0
   \   000005   89..         MOV     ?V0 + 1,R1
   \   000007   8C..         MOV     ?V0 + 2,R4
    604            BindingEntry_t *pBind;
    605            uint16 idx;
    606            byte   num;
    607            uint16 x;
    608          
    609            // Init
    610            num = 0;
   \   000009   75..00       MOV     ?V0 + 0,#0x0
    611          
    612            if ( devAddr->addrMode == AddrGroup )
   \   00000C   12....       LCALL   ?Subroutine23 & 0xFFFF
   \                     ??CrossCallReturnLabel_38:
   \   00000F   700B         JNZ     ??bindNumBoundTo_0
    613            {
    614              idx = devAddr->addr.shortAddr;
   \   000011   8A82         MOV     DPL,R2
   \   000013   8B83         MOV     DPH,R3
   \   000015   E0           MOVX    A,@DPTR
   \   000016   FC           MOV     R4,A
   \   000017   A3           INC     DPTR
   \   000018   E0           MOVX    A,@DPTR
   \   000019   FD           MOV     R5,A
   \   00001A   800B         SJMP    ??bindNumBoundTo_1
    615            }
    616            else
    617            {
    618              idx = bindingAddrMgsHelperFind( devAddr );
   \                     ??bindNumBoundTo_0:
   \   00001C                ; Setup parameters for call to function bindingAddrMgsHelperFind
   \   00001C   12....       LCALL   ??bindingAddrMgsHelperFind?relay
   \   00001F   8A..         MOV     ?V0 + 4,R2
   \   000021   8B..         MOV     ?V0 + 5,R3
   \   000023   AC..         MOV     R4,?V0 + 4
   \   000025   AD..         MOV     R5,?V0 + 5
    619            }
    620          
    621            for ( x = 0; x < gNWK_MAX_BINDING_ENTRIES; x++ )
   \                     ??bindNumBoundTo_1:
   \   000027   7800         MOV     R0,#0x0
   \   000029   7900         MOV     R1,#0x0
   \   00002B   8023         SJMP    ??CrossCallReturnLabel_21
    622            {
    623              pBind = &BindingTable[x];
    624              if ( srcMode )
    625              {
    626                if ( pBind->srcEP == devEpInt )
    627                {
    628                  num++;
    629                }
    630              }
    631              else
    632              {
    633                if ( ((devAddr->addrMode == AddrGroup)
    634                        && (pBind->dstGroupMode == DSTGROUPMODE_GROUP) && (pBind->dstIdx == idx))
    635                    || ((devAddr->addrMode != AddrGroup) && (pBind->dstGroupMode == DSTGROUPMODE_ADDR)
    636                                          && (pBind->dstIdx == idx) && (pBind->dstEP == devEpInt)) )
   \                     ??bindNumBoundTo_2:
   \   00002D   E5..         MOV     A,?V0 + 3
   \   00002F   701C         JNZ     ??bindNumBoundTo_3
   \   000031   8A82         MOV     DPL,R2
   \   000033   8B83         MOV     DPH,R3
   \   000035   A3           INC     DPTR
   \   000036   A3           INC     DPTR
   \   000037   E0           MOVX    A,@DPTR
   \   000038   6C           XRL     A,R4
   \   000039   7003         JNZ     ??bindNumBoundTo_4
   \   00003B   A3           INC     DPTR
   \   00003C   E0           MOVX    A,@DPTR
   \   00003D   6D           XRL     A,R5
   \                     ??bindNumBoundTo_4:
   \   00003E   700D         JNZ     ??bindNumBoundTo_3
   \   000040   8A82         MOV     DPL,R2
   \   000042   8B83         MOV     DPH,R3
   \   000044   A3           INC     DPTR
   \   000045   A3           INC     DPTR
   \   000046   A3           INC     DPTR
   \   000047   A3           INC     DPTR
   \   000048   E0           MOVX    A,@DPTR
   \   000049   65..         XRL     A,?V0 + 1
   \   00004B   6032         JZ      ??bindNumBoundTo_5
   \                     ??bindNumBoundTo_3:
   \   00004D   12....       LCALL   ?Subroutine16 & 0xFFFF
   \                     ??CrossCallReturnLabel_21:
   \   000050   12....       LCALL   ?Subroutine8 & 0xFFFF
   \                     ??CrossCallReturnLabel_2:
   \   000053   5052         JNC     ??bindNumBoundTo_6
   \   000055   E8           MOV     A,R0
   \   000056   FA           MOV     R2,A
   \   000057   E9           MOV     A,R1
   \   000058   FB           MOV     R3,A
   \   000059   EA           MOV     A,R2
   \   00005A   75F00E       MOV     B,#0xe
   \   00005D   A4           MUL     AB
   \   00005E   FA           MOV     R2,A
   \   00005F   85F0..       MOV     ?V0 + 3,B
   \   000062   75F00E       MOV     B,#0xe
   \   000065   EB           MOV     A,R3
   \   000066   A4           MUL     AB
   \   000067   25..         ADD     A,?V0 + 3
   \   000069   FB           MOV     R3,A
   \   00006A   74..         MOV     A,#BindingTable & 0xff
   \   00006C   2A           ADD     A,R2
   \   00006D   FA           MOV     R2,A
   \   00006E   74..         MOV     A,#(BindingTable >> 8) & 0xff
   \   000070   3B           ADDC    A,R3
   \   000071   FB           MOV     R3,A
   \   000072   E5..         MOV     A,?V0 + 2
   \   000074   8A82         MOV     DPL,R2
   \   000076   8B83         MOV     DPH,R3
   \   000078   6009         JZ      ??bindNumBoundTo_7
   \   00007A   E0           MOVX    A,@DPTR
   \   00007B   65..         XRL     A,?V0 + 1
   \   00007D   70CE         JNZ     ??bindNumBoundTo_3
   \                     ??bindNumBoundTo_5:
   \   00007F   05..         INC     ?V0 + 0
   \   000081   80CA         SJMP    ??bindNumBoundTo_3
   \                     ??bindNumBoundTo_7:
   \   000083   A3           INC     DPTR
   \   000084   E0           MOVX    A,@DPTR
   \   000085   F5..         MOV     ?V0 + 3,A
   \   000087   8E82         MOV     DPL,R6
   \   000089   8F83         MOV     DPH,R7
   \   00008B   E0           MOVX    A,@DPTR
   \   00008C   6401         XRL     A,#0x1
   \   00008E   709D         JNZ     ??bindNumBoundTo_2
   \   000090   7401         MOV     A,#0x1
   \   000092   65..         XRL     A,?V0 + 3
   \   000094   70B7         JNZ     ??bindNumBoundTo_3
   \   000096   8A82         MOV     DPL,R2
   \   000098   8B83         MOV     DPH,R3
   \   00009A   A3           INC     DPTR
   \   00009B   A3           INC     DPTR
   \   00009C   E0           MOVX    A,@DPTR
   \   00009D   6C           XRL     A,R4
   \   00009E   7003         JNZ     ??bindNumBoundTo_8
   \   0000A0   A3           INC     DPTR
   \   0000A1   E0           MOVX    A,@DPTR
   \   0000A2   6D           XRL     A,R5
   \                     ??bindNumBoundTo_8:
   \   0000A3   60DA         JZ      ??bindNumBoundTo_5
   \   0000A5   80A6         SJMP    ??bindNumBoundTo_3
    637                {
    638                  num++;
    639                }
    640              }
    641            }
    642          
    643            return num;
   \                     ??bindNumBoundTo_6:
   \   0000A7   A9..         MOV     R1,?V0 + 0
   \   0000A9   02....       LJMP    ?Subroutine5 & 0xFFFF
    644          }
    645          
    646          /*********************************************************************
    647           * @fn          bindNumReflections
    648           *
    649           * @brief       Counts the number of reflections needed for a
    650           *              endpoint and cluster ID combo.
    651           *
    652           * @param       ep - source endpoint
    653           * @param       clusterID - matching clusterID
    654           *
    655           * @return      number of reflections needed.
    656           */

   \                                 In  segment BANKED_CODE, align 1, keep-with-next
    657          uint16 bindNumReflections( uint8 ep, uint16 clusterID )
   \                     bindNumReflections:
    658          {
   \   000000   74F3         MOV     A,#-0xd
   \   000002   12....       LCALL   ?BANKED_ENTER_XDATA
   \   000005                ; Saved register size: 13
   \   000005                ; Auto size: 0
   \   000005   89..         MOV     ?V0 + 4,R1
   \   000007   8A..         MOV     ?V0 + 2,R2
   \   000009   8B..         MOV     ?V0 + 3,R3
    659            uint16 x;
    660            BindingEntry_t *pBind;
    661            uint16 cnt = 0;
   \   00000B   75..00       MOV     ?V0 + 0,#0x0
   \   00000E   75..00       MOV     ?V0 + 1,#0x0
    662            uint8 bindEP;
    663          
    664            for ( x = 0; x < gNWK_MAX_BINDING_ENTRIES; x++ )
   \   000011   7E00         MOV     R6,#0x0
   \   000013   7F00         MOV     R7,#0x0
   \   000015   801C         SJMP    ??CrossCallReturnLabel_36
    665            {
    666              pBind = &BindingTable[x];
   \                     ??bindNumReflections_0:
   \   000017   12....       LCALL   ?Subroutine15 & 0xFFFF
    667              bindEP = pBind->srcEP;
    668          
    669              if ( (bindEP == ep) && (bindIsClusterIDinList( pBind, clusterID )) )
   \                     ??CrossCallReturnLabel_16:
   \   00001A   E0           MOVX    A,@DPTR
   \   00001B   65..         XRL     A,?V0 + 4
   \   00001D   7011         JNZ     ??CrossCallReturnLabel_28
   \   00001F                ; Setup parameters for call to function bindIsClusterIDinList
   \   00001F   AC..         MOV     R4,?V0 + 2
   \   000021   AD..         MOV     R5,?V0 + 3
   \   000023   AA82         MOV     R2,DPL
   \   000025   AB83         MOV     R3,DPH
   \   000027   12....       LCALL   ??bindIsClusterIDinList?relay
   \   00002A   E9           MOV     A,R1
   \   00002B   6003         JZ      ??CrossCallReturnLabel_28
    670              {
    671                cnt++;
   \   00002D   12....       LCALL   ?Subroutine19 & 0xFFFF
    672              }
    673            }
   \                     ??CrossCallReturnLabel_28:
   \   000030   12....       LCALL   ?Subroutine22 & 0xFFFF
   \                     ??CrossCallReturnLabel_36:
   \   000033   12....       LCALL   ?Subroutine9 & 0xFFFF
   \                     ??CrossCallReturnLabel_6:
   \   000036   40DF         JC      ??bindNumReflections_0
    674          
    675            return ( cnt );
   \   000038   AA..         MOV     R2,?V0 + 0
   \   00003A   AB..         MOV     R3,?V0 + 1
   \   00003C   02....       LJMP    ?Subroutine4 & 0xFFFF
    676          }
    677          
    678          /*********************************************************************
    679           * @fn          bindFind
    680           *
    681           * @brief       Finds the binding entry for the source address, endpoint
    682           *              and cluster ID passed in as a parameter.
    683           *
    684           * @param       ep - source endpoint
    685           * @param       clusterID - matching clusterID
    686           * @param       skip - number of matches to skip before returning
    687           *
    688           * @return      pointer to the binding table entry, NULL if not found
    689           */

   \                                 In  segment BANKED_CODE, align 1, keep-with-next
    690          BindingEntry_t *bindFind( uint8 ep, uint16 clusterID, uint8 skipping )
   \                     bindFind:
    691          {
   \   000000   74F1         MOV     A,#-0xf
   \   000002   12....       LCALL   ?BANKED_ENTER_XDATA
   \   000005                ; Saved register size: 15
   \   000005                ; Auto size: 0
   \   000005   89..         MOV     ?V0 + 5,R1
   \   000007   8A..         MOV     ?V0 + 2,R2
   \   000009   8B..         MOV     ?V0 + 3,R3
   \   00000B   8C..         MOV     ?V0 + 6,R4
    692            BindingEntry_t *pBind;
    693            byte skipped = 0;
   \   00000D   75..00       MOV     ?V0 + 4,#0x0
    694            uint16 x;
    695          
    696            for ( x = 0; x < gNWK_MAX_BINDING_ENTRIES; x++ )
   \   000010   75..00       MOV     ?V0 + 0,#0x0
   \   000013   75..00       MOV     ?V0 + 1,#0x0
   \   000016   8005         SJMP    ??CrossCallReturnLabel_29
    697            {
    698              pBind = &BindingTable[x];
    699          
    700              if ( ( pBind->srcEP == ep) && bindIsClusterIDinList( pBind, clusterID ))
    701              {
    702                if ( skipped < skipping )
    703                {
    704                  skipped++;
   \                     ??bindFind_0:
   \   000018   05..         INC     ?V0 + 4
    705                }
   \                     ??bindFind_1:
   \   00001A   12....       LCALL   ?Subroutine19 & 0xFFFF
   \                     ??CrossCallReturnLabel_29:
   \   00001D   12....       LCALL   ?Subroutine12 & 0xFFFF
   \                     ??CrossCallReturnLabel_60:
   \   000020   C3           CLR     C
   \   000021   E5..         MOV     A,?V0 + 0
   \   000023   98           SUBB    A,R0
   \   000024   E5..         MOV     A,?V0 + 1
   \   000026   99           SUBB    A,R1
   \   000027   5033         JNC     ??bindFind_2
   \   000029   E5..         MOV     A,?V0 + 0
   \   00002B   75F00E       MOV     B,#0xe
   \   00002E   A4           MUL     AB
   \   00002F   F8           MOV     R0,A
   \   000030   AAF0         MOV     R2,B
   \   000032   75F00E       MOV     B,#0xe
   \   000035   E5..         MOV     A,?V0 + 1
   \   000037   A4           MUL     AB
   \   000038   2A           ADD     A,R2
   \   000039   F9           MOV     R1,A
   \   00003A   12....       LCALL   ?Subroutine13 & 0xFFFF
   \                     ??CrossCallReturnLabel_11:
   \   00003D   65..         XRL     A,?V0 + 5
   \   00003F   70D9         JNZ     ??bindFind_1
   \   000041                ; Setup parameters for call to function bindIsClusterIDinList
   \   000041   AC..         MOV     R4,?V0 + 2
   \   000043   AD..         MOV     R5,?V0 + 3
   \   000045   EE           MOV     A,R6
   \   000046   FA           MOV     R2,A
   \   000047   EF           MOV     A,R7
   \   000048   FB           MOV     R3,A
   \   000049   12....       LCALL   ??bindIsClusterIDinList?relay
   \   00004C   E9           MOV     A,R1
   \   00004D   60CB         JZ      ??bindFind_1
   \   00004F   E5..         MOV     A,?V0 + 4
   \   000051   C3           CLR     C
   \   000052   95..         SUBB    A,?V0 + 6
   \   000054   40C2         JC      ??bindFind_0
    706                else
    707                {
    708                  return ( pBind );
   \   000056   EE           MOV     A,R6
   \   000057   FA           MOV     R2,A
   \   000058   EF           MOV     A,R7
   \   000059   FB           MOV     R3,A
   \   00005A   8004         SJMP    ??bindFind_3
    709                }
    710              }
    711            }
    712          
    713            return ( (BindingEntry_t *)NULL );
   \                     ??bindFind_2:
   \   00005C   7A00         MOV     R2,#0x0
   \   00005E   7B00         MOV     R3,#0x0
   \                     ??bindFind_3:
   \   000060                REQUIRE ?Subroutine6
   \   000060                ; // Fall through to label ?Subroutine6
    714          }

   \                                 In  segment BANKED_CODE, align 1, keep-with-next
   \                     ?Subroutine6:
   \   000000   7F07         MOV     R7,#0x7
   \   000002   02....       LJMP    ?BANKED_LEAVE_XDATA
    715          
    716          /*********************************************************************
    717           * @fn          BindInitNV
    718           *
    719           * @brief       Initialize the Binding NV Item
    720           *
    721           * @param       none
    722           *
    723           * @return      ZSUCCESS if successful, NV_ITEM_UNINIT if item did not
    724           *              exist in NV, NV_OPER_FAILED if failure.
    725           */

   \                                 In  segment BANKED_CODE, align 1, keep-with-next
    726          byte BindInitNV( void )
   \                     BindInitNV:
    727          {
   \   000000   74F6         MOV     A,#-0xa
   \   000002   12....       LCALL   ?BANKED_ENTER_XDATA
   \   000005                ; Saved register size: 10
   \   000005                ; Auto size: 0
    728            byte ret;
    729          
    730            // Initialize the device list
    731            ret = osal_nv_item_init( ZCD_NV_BINDING_TABLE,
    732                            (uint16)(gBIND_REC_SIZE + NV_BIND_ITEM_SIZE), NULL );
   \   000005                ; Setup parameters for call to function osal_nv_item_init
   \   000005   E4           CLR     A
   \   000006   F5..         MOV     ?V0 + 0,A
   \   000008   F5..         MOV     ?V0 + 1,A
   \   00000A   78..         MOV     R0,#?V0 + 0
   \   00000C   12....       LCALL   ?PUSH_XSTACK_I_TWO
   \   00000F   90....       MOV     DPTR,#gBIND_REC_SIZE
   \   000012   12....       LCALL   ??Subroutine34_0 & 0xFFFF
   \                     ??CrossCallReturnLabel_58:
   \   000015   12....       LCALL   ?Subroutine10 & 0xFFFF
   \                     ??CrossCallReturnLabel_9:
   \   000018   E8           MOV     A,R0
   \   000019   85..F0       MOV     B,?V0 + 0
   \   00001C   A4           MUL     AB
   \   00001D   C8           XCH     A,R0
   \   00001E   AAF0         MOV     R2,B
   \   000020   85..F0       MOV     B,?V0 + 1
   \   000023   A4           MUL     AB
   \   000024   2A           ADD     A,R2
   \   000025   FA           MOV     R2,A
   \   000026   85..F0       MOV     B,?V0 + 0
   \   000029   E9           MOV     A,R1
   \   00002A   A4           MUL     AB
   \   00002B   2A           ADD     A,R2
   \   00002C   F9           MOV     R1,A
   \   00002D   7583..       MOV     DPH,#(gBIND_REC_SIZE >> 8) & 0xff
   \   000030   7582..       MOV     DPL,#gBIND_REC_SIZE & 0xff
   \   000033   E4           CLR     A
   \   000034   93           MOVC    A,@A+DPTR
   \   000035   28           ADD     A,R0
   \   000036   FC           MOV     R4,A
   \   000037   A3           INC     DPTR
   \   000038   E4           CLR     A
   \   000039   93           MOVC    A,@A+DPTR
   \   00003A   39           ADDC    A,R1
   \   00003B   FD           MOV     R5,A
   \   00003C   7A41         MOV     R2,#0x41
   \   00003E   7B00         MOV     R3,#0x0
   \   000040   12....       LCALL   ??osal_nv_item_init?relay
   \   000043   7402         MOV     A,#0x2
   \   000045   12....       LCALL   ?DEALLOC_XSTACK8
   \   000048   E9           MOV     A,R1
   \   000049   FE           MOV     R6,A
    733          
    734            if ( ret != ZSUCCESS )
   \   00004A   6003         JZ      ??BindInitNV_0
    735            {
    736              BindSetDefaultNV();
   \   00004C                ; Setup parameters for call to function BindSetDefaultNV
   \   00004C   12....       LCALL   ??BindSetDefaultNV?relay
    737            }
    738          
    739            return ( ret );
   \                     ??BindInitNV_0:
   \   00004F   EE           MOV     A,R6
   \   000050   F9           MOV     R1,A
   \   000051   02....       LJMP    ??Subroutine33_0 & 0xFFFF
    740          }
    741          
    742          /*********************************************************************
    743           * @fn          BindSetDefaultNV
    744           *
    745           * @brief       Write the defaults to NV
    746           *
    747           * @param       none
    748           *
    749           * @return      none
    750           */

   \                                 In  segment BANKED_CODE, align 1, keep-with-next
   \                     ?Subroutine0:
   \   000000   12....       LCALL   ?DEALLOC_XSTACK8
   \   000003                REQUIRE ??Subroutine33_0
   \   000003                ; // Fall through to label ??Subroutine33_0

   \                                 In  segment BANKED_CODE, align 1, keep-with-next
    751          void BindSetDefaultNV( void )
   \                     BindSetDefaultNV:
    752          {
   \   000000   74F6         MOV     A,#-0xa
   \   000002   12....       LCALL   ?BANKED_ENTER_XDATA
   \   000005                ; Saved register size: 10
   \   000005                ; Auto size: 2
   \   000005   74FE         MOV     A,#-0x2
   \   000007   12....       LCALL   ?ALLOC_XSTACK8
    753            nvBindingHdr_t hdr;
    754          
    755            // Initialize the header
    756            hdr.numRecs = 0;
   \   00000A   85..82       MOV     DPL,?XSP + 0
   \   00000D   85..83       MOV     DPH,?XSP + 1
   \   000010   E4           CLR     A
   \   000011   F0           MOVX    @DPTR,A
   \   000012   A3           INC     DPTR
   \   000013   12....       LCALL   ?Subroutine32 & 0xFFFF
    757          
    758            // Save off the header
    759            osal_nv_write( ZCD_NV_BINDING_TABLE, 0, sizeof( nvBindingHdr_t ), &hdr );
   \                     ??CrossCallReturnLabel_54:
   \   000016   8582..       MOV     ?V0 + 0,DPL
   \   000019   8583..       MOV     ?V0 + 1,DPH
   \   00001C   78..         MOV     R0,#?V0 + 0
   \   00001E   12....       LCALL   ?PUSH_XSTACK_I_TWO
   \   000021   75..02       MOV     ?V0 + 0,#0x2
   \   000024   75..00       MOV     ?V0 + 1,#0x0
   \   000027   78..         MOV     R0,#?V0 + 0
   \   000029   12....       LCALL   ?PUSH_XSTACK_I_TWO
   \   00002C   7C00         MOV     R4,#0x0
   \   00002E   7D00         MOV     R5,#0x0
   \   000030   7A41         MOV     R2,#0x41
   \   000032   7B00         MOV     R3,#0x0
   \   000034   12....       LCALL   ??osal_nv_write?relay
   \   000037   7404         MOV     A,#0x4
   \   000039   12....       LCALL   ?DEALLOC_XSTACK8
    760          }
   \   00003C   7402         MOV     A,#0x2
   \   00003E   02....       LJMP    ?Subroutine0 & 0xFFFF

   \                                 In  segment BANKED_CODE, align 1, keep-with-next
   \                     ?Subroutine32:
   \   000000   F0           MOVX    @DPTR,A
   \   000001                ; Setup parameters for call to function osal_nv_write
   \   000001                ; Setup parameters for call to function bindingAddrMgsHelperFind
   \   000001                ; Setup parameters for call to function bindingAddrMgsHelperFind
   \   000001                ; Setup parameters for call to function AddrMgrEntryGet
   \   000001                ; Setup parameters for call to function AddrMgrEntryGet
   \   000001                ; Setup parameters for call to function AddrMgrEntryLookupNwk
   \   000001                ; Setup parameters for call to function AddrMgrEntryLookupNwk
   \   000001   85..82       MOV     DPL,?XSP + 0
   \   000004   85..83       MOV     DPH,?XSP + 1
   \   000007   22           RET
    761          
    762          /*********************************************************************
    763           * @fn          BindRestoreFromNV
    764           *
    765           * @brief       Restore the binding table from NV
    766           *
    767           * @param       none
    768           *
    769           * @return      Number of entries restored
    770           */

   \                                 In  segment BANKED_CODE, align 1, keep-with-next
    771          uint16 BindRestoreFromNV( void )
   \                     BindRestoreFromNV:
    772          {
   \   000000   74F4         MOV     A,#-0xc
   \   000002   12....       LCALL   ?BANKED_ENTER_XDATA
   \   000005                ; Saved register size: 12
   \   000005                ; Auto size: 2
   \   000005   74FE         MOV     A,#-0x2
   \   000007   12....       LCALL   ?ALLOC_XSTACK8
    773            nvBindingHdr_t hdr;
    774            uint16 numAdded = 0;
   \   00000A   7E00         MOV     R6,#0x0
   \   00000C   7F00         MOV     R7,#0x0
    775          
    776            if ( osal_nv_read( ZCD_NV_BINDING_TABLE, 0, sizeof(nvBindingHdr_t), &hdr ) == ZSuccess )
   \   00000E                ; Setup parameters for call to function osal_nv_read
   \   00000E   85..82       MOV     DPL,?XSP + 0
   \   000011   85..83       MOV     DPH,?XSP + 1
   \   000014   8582..       MOV     ?V0 + 0,DPL
   \   000017   8583..       MOV     ?V0 + 1,DPH
   \   00001A   78..         MOV     R0,#?V0 + 0
   \   00001C   12....       LCALL   ?PUSH_XSTACK_I_TWO
   \   00001F   75..02       MOV     ?V0 + 0,#0x2
   \   000022   8E..         MOV     ?V0 + 1,R6
   \   000024   78..         MOV     R0,#?V0 + 0
   \   000026   12....       LCALL   ?PUSH_XSTACK_I_TWO
   \   000029   7C00         MOV     R4,#0x0
   \   00002B   7D00         MOV     R5,#0x0
   \   00002D   7A41         MOV     R2,#0x41
   \   00002F   7B00         MOV     R3,#0x0
   \   000031   12....       LCALL   ??osal_nv_read?relay
   \   000034   7404         MOV     A,#0x4
   \   000036   12....       LCALL   ?DEALLOC_XSTACK8
   \   000039   E9           MOV     A,R1
   \   00003A   7063         JNZ     ??BindRestoreFromNV_0
    777            {
    778              if (hdr.numRecs > 0)
   \   00003C   85..82       MOV     DPL,?XSP + 0
   \   00003F   85..83       MOV     DPH,?XSP + 1
   \   000042   E0           MOVX    A,@DPTR
   \   000043   F8           MOV     R0,A
   \   000044   A3           INC     DPTR
   \   000045   E0           MOVX    A,@DPTR
   \   000046   F9           MOV     R1,A
   \   000047   E8           MOV     A,R0
   \   000048   49           ORL     A,R1
   \   000049   6054         JZ      ??BindRestoreFromNV_0
    779              {
    780                // Read the whole table at once
    781                if ( osal_nv_read( ZCD_NV_BINDING_TABLE,
    782                                   (uint16)(sizeof(nvBindingHdr_t)),
    783                                   (NV_BIND_REC_SIZE * gNWK_MAX_BINDING_ENTRIES), BindingTable ) == ZSUCCESS )
   \   00004B                ; Setup parameters for call to function osal_nv_read
   \   00004B   75....       MOV     ?V0 + 0,#BindingTable & 0xff
   \   00004E   75....       MOV     ?V0 + 1,#(BindingTable >> 8) & 0xff
   \   000051   78..         MOV     R0,#?V0 + 0
   \   000053   12....       LCALL   ?PUSH_XSTACK_I_TWO
   \   000056   12....       LCALL   ?Subroutine14 & 0xFFFF
   \                     ??CrossCallReturnLabel_13:
   \   000059   12....       LCALL   ?Subroutine10 & 0xFFFF
   \                     ??CrossCallReturnLabel_10:
   \   00005C   E5..         MOV     A,?V0 + 2
   \   00005E   85..F0       MOV     B,?V0 + 0
   \   000061   A4           MUL     AB
   \   000062   C5..         XCH     A,?V0 + 2
   \   000064   A8F0         MOV     R0,B
   \   000066   85..F0       MOV     B,?V0 + 1
   \   000069   A4           MUL     AB
   \   00006A   28           ADD     A,R0
   \   00006B   F8           MOV     R0,A
   \   00006C   85..F0       MOV     B,?V0 + 0
   \   00006F   E5..         MOV     A,?V0 + 3
   \   000071   A4           MUL     AB
   \   000072   28           ADD     A,R0
   \   000073   F5..         MOV     ?V0 + 3,A
   \   000075   78..         MOV     R0,#?V0 + 2
   \   000077   12....       LCALL   ?PUSH_XSTACK_I_TWO
   \   00007A   7C02         MOV     R4,#0x2
   \   00007C   7D00         MOV     R5,#0x0
   \   00007E   7A41         MOV     R2,#0x41
   \   000080   7B00         MOV     R3,#0x0
   \   000082   12....       LCALL   ??osal_nv_read?relay
   \   000085   7404         MOV     A,#0x4
   \   000087   12....       LCALL   ?DEALLOC_XSTACK8
   \   00008A   E9           MOV     A,R1
   \   00008B   7012         JNZ     ??BindRestoreFromNV_0
    784                {
    785                  numAdded = gNWK_MAX_BINDING_ENTRIES;
   \   00008D   90....       MOV     DPTR,#gNWK_MAX_BINDING_ENTRIES
   \   000090   E4           CLR     A
   \   000091   93           MOVC    A,@A+DPTR
   \   000092   C0E0         PUSH    A
   \   000094   7401         MOV     A,#0x1
   \   000096   93           MOVC    A,@A+DPTR
   \   000097   F583         MOV     DPH,A
   \   000099   D082         POP     DPL
   \   00009B   AE82         MOV     R6,DPL
   \   00009D   AF83         MOV     R7,DPH
    786                }
    787              }
    788            }
    789            return ( numAdded );
   \                     ??BindRestoreFromNV_0:
   \   00009F   EE           MOV     A,R6
   \   0000A0   FA           MOV     R2,A
   \   0000A1   EF           MOV     A,R7
   \   0000A2   FB           MOV     R3,A
   \   0000A3   7402         MOV     A,#0x2
   \   0000A5                REQUIRE ?Subroutine7
   \   0000A5                ; // Fall through to label ?Subroutine7
    790          }

   \                                 In  segment BANKED_CODE, align 1, keep-with-next
   \                     ?Subroutine7:
   \   000000   12....       LCALL   ?DEALLOC_XSTACK8
   \   000003   7F04         MOV     R7,#0x4
   \   000005   02....       LJMP    ?BANKED_LEAVE_XDATA

   \                                 In  segment BANKED_CODE, align 1, keep-with-next
   \                     ?Subroutine14:
   \   000000   90....       MOV     DPTR,#gBIND_REC_SIZE
   \   000003   E4           CLR     A
   \   000004   93           MOVC    A,@A+DPTR
   \   000005   F5..         MOV     ?V0 + 2,A
   \   000007   7401         MOV     A,#0x1
   \   000009   93           MOVC    A,@A+DPTR
   \   00000A   F5..         MOV     ?V0 + 3,A
   \   00000C   22           RET
    791          
    792          /*********************************************************************
    793           * @fn          BindWriteNV
    794           *
    795           * @brief       Save the Binding Table in NV
    796           *
    797           * @param       none
    798           *
    799           * @return      none
    800           */

   \                                 In  segment BANKED_CODE, align 1, keep-with-next
    801          void BindWriteNV( void )
   \                     BindWriteNV:
    802          {
   \   000000   74F1         MOV     A,#-0xf
   \   000002   12....       LCALL   ?BANKED_ENTER_XDATA
   \   000005                ; Saved register size: 15
   \   000005                ; Auto size: 16
   \   000005   74F0         MOV     A,#-0x10
   \   000007   12....       LCALL   ?ALLOC_XSTACK8
    803            BindingEntry_t *pBind;
    804            BindingEntry_t bind;
    805            nvBindingHdr_t hdr;
    806            uint16 x;
    807          
    808            hdr.numRecs = 0;
   \   00000A   85..82       MOV     DPL,?XSP + 0
   \   00000D   85..83       MOV     DPH,?XSP + 1
   \   000010   E4           CLR     A
   \   000011   F0           MOVX    @DPTR,A
   \   000012   A3           INC     DPTR
   \   000013   F0           MOVX    @DPTR,A
    809          
    810            for ( x = 0; x < gNWK_MAX_BINDING_ENTRIES; x++ )
   \   000014   FE           MOV     R6,A
   \   000015   02....       LJMP    ??BindWriteNV_0 & 0xFFFF
    811            {
    812              pBind = &BindingTable[x];
   \                     ??BindWriteNV_1:
   \   000018   EE           MOV     A,R6
   \   000019   F8           MOV     R0,A
   \   00001A   EF           MOV     A,R7
   \   00001B   F9           MOV     R1,A
   \   00001C   E8           MOV     A,R0
   \   00001D   75F00E       MOV     B,#0xe
   \   000020   A4           MUL     AB
   \   000021   F8           MOV     R0,A
   \   000022   AAF0         MOV     R2,B
   \   000024   75F00E       MOV     B,#0xe
   \   000027   E9           MOV     A,R1
   \   000028   A4           MUL     AB
   \   000029   2A           ADD     A,R2
   \   00002A   F9           MOV     R1,A
   \   00002B   74..         MOV     A,#BindingTable & 0xff
   \   00002D   28           ADD     A,R0
   \   00002E   F5..         MOV     ?V0 + 0,A
   \   000030   74..         MOV     A,#(BindingTable >> 8) & 0xff
   \   000032   39           ADDC    A,R1
   \   000033   F5..         MOV     ?V0 + 1,A
    813          
    814              osal_memcpy( &bind, pBind, gBIND_REC_SIZE );
   \   000035                ; Setup parameters for call to function osal_memcpy
   \   000035   85....       MOV     ?V0 + 4,?V0 + 0
   \   000038   F5..         MOV     ?V0 + 5,A
   \   00003A   75..00       MOV     ?V0 + 6,#0x0
   \   00003D   78..         MOV     R0,#?V0 + 4
   \   00003F   12....       LCALL   ?PUSH_XSTACK_I_THREE
   \   000042   12....       LCALL   ?Subroutine11 & 0xFFFF
   \                     ??CrossCallReturnLabel_64:
   \   000045   7405         MOV     A,#0x5
   \   000047   12....       LCALL   ?XSTACK_DISP0_8
   \   00004A   AA82         MOV     R2,DPL
   \   00004C   AB83         MOV     R3,DPH
   \   00004E   12....       LCALL   ??osal_memcpy?relay
   \   000051   7403         MOV     A,#0x3
   \   000053   12....       LCALL   ?DEALLOC_XSTACK8
    815          
    816              // Save the record to NV
    817              osal_nv_write( ZCD_NV_BINDING_TABLE,
    818                             (uint16)((sizeof(nvBindingHdr_t)) + (x * NV_BIND_REC_SIZE)),
    819                             NV_BIND_REC_SIZE, &bind );
   \   000056                ; Setup parameters for call to function osal_nv_write
   \   000056   7402         MOV     A,#0x2
   \   000058   12....       LCALL   ?XSTACK_DISP0_8
   \   00005B   8582..       MOV     ?V0 + 2,DPL
   \   00005E   8583..       MOV     ?V0 + 3,DPH
   \   000061   78..         MOV     R0,#?V0 + 2
   \   000063   12....       LCALL   ?PUSH_XSTACK_I_TWO
   \   000066   90....       MOV     DPTR,#gBIND_REC_SIZE
   \   000069   12....       LCALL   ?PUSH_XSTACK8_C_TWO
   \   00006C   EE           MOV     A,R6
   \   00006D   F8           MOV     R0,A
   \   00006E   EF           MOV     A,R7
   \   00006F   F9           MOV     R1,A
   \   000070   12....       LCALL   ?Subroutine14 & 0xFFFF
   \                     ??CrossCallReturnLabel_14:
   \   000073   E8           MOV     A,R0
   \   000074   85..F0       MOV     B,?V0 + 2
   \   000077   A4           MUL     AB
   \   000078   C8           XCH     A,R0
   \   000079   AAF0         MOV     R2,B
   \   00007B   85..F0       MOV     B,?V0 + 3
   \   00007E   A4           MUL     AB
   \   00007F   2A           ADD     A,R2
   \   000080   FA           MOV     R2,A
   \   000081   85..F0       MOV     B,?V0 + 2
   \   000084   E9           MOV     A,R1
   \   000085   A4           MUL     AB
   \   000086   2A           ADD     A,R2
   \   000087   F9           MOV     R1,A
   \   000088   E8           MOV     A,R0
   \   000089   2402         ADD     A,#0x2
   \   00008B   FC           MOV     R4,A
   \   00008C   E9           MOV     A,R1
   \   00008D   3400         ADDC    A,#0x0
   \   00008F   FD           MOV     R5,A
   \   000090   7A41         MOV     R2,#0x41
   \   000092   7B00         MOV     R3,#0x0
   \   000094   12....       LCALL   ??osal_nv_write?relay
   \   000097   7404         MOV     A,#0x4
   \   000099   12....       LCALL   ?DEALLOC_XSTACK8
    820          
    821              if ( pBind->srcEP != NV_BIND_EMPTY )
   \   00009C   85..82       MOV     DPL,?V0 + 0
   \   00009F   85..83       MOV     DPH,?V0 + 1
   \   0000A2   E0           MOVX    A,@DPTR
   \   0000A3   F4           CPL     A
   \   0000A4   600F         JZ      ??BindWriteNV_2
    822              {
    823                hdr.numRecs++;
   \   0000A6   85..82       MOV     DPL,?XSP + 0
   \   0000A9   85..83       MOV     DPH,?XSP + 1
   \   0000AC   E0           MOVX    A,@DPTR
   \   0000AD   2401         ADD     A,#0x1
   \   0000AF   F0           MOVX    @DPTR,A
   \   0000B0   A3           INC     DPTR
   \   0000B1   E0           MOVX    A,@DPTR
   \   0000B2   3400         ADDC    A,#0x0
   \   0000B4   F0           MOVX    @DPTR,A
    824              }
    825            }
   \                     ??BindWriteNV_2:
   \   0000B5   EE           MOV     A,R6
   \   0000B6   2401         ADD     A,#0x1
   \   0000B8   0E           INC     R6
   \   0000B9   EF           MOV     A,R7
   \   0000BA   3400         ADDC    A,#0x0
   \                     ??BindWriteNV_0:
   \   0000BC   FF           MOV     R7,A
   \   0000BD   12....       LCALL   ?Subroutine9 & 0xFFFF
   \                     ??CrossCallReturnLabel_7:
   \   0000C0   5003         JNC     $+5
   \   0000C2   02....       LJMP    ??BindWriteNV_1 & 0xFFFF
    826          
    827            // Save off the header
    828            osal_nv_write( ZCD_NV_BINDING_TABLE, 0, sizeof(nvBindingHdr_t), &hdr );
   \   0000C5                ; Setup parameters for call to function osal_nv_write
   \   0000C5   85..82       MOV     DPL,?XSP + 0
   \   0000C8   85..83       MOV     DPH,?XSP + 1
   \   0000CB   8582..       MOV     ?V0 + 0,DPL
   \   0000CE   8583..       MOV     ?V0 + 1,DPH
   \   0000D1   78..         MOV     R0,#?V0 + 0
   \   0000D3   12....       LCALL   ?PUSH_XSTACK_I_TWO
   \   0000D6   75..02       MOV     ?V0 + 0,#0x2
   \   0000D9   75..00       MOV     ?V0 + 1,#0x0
   \   0000DC   78..         MOV     R0,#?V0 + 0
   \   0000DE   12....       LCALL   ?PUSH_XSTACK_I_TWO
   \   0000E1   7C00         MOV     R4,#0x0
   \   0000E3   7D00         MOV     R5,#0x0
   \   0000E5   7A41         MOV     R2,#0x41
   \   0000E7   7B00         MOV     R3,#0x0
   \   0000E9   12....       LCALL   ??osal_nv_write?relay
   \   0000EC   7404         MOV     A,#0x4
   \   0000EE   12....       LCALL   ?DEALLOC_XSTACK8
    829          }
   \   0000F1   7410         MOV     A,#0x10
   \   0000F3   12....       LCALL   ?DEALLOC_XSTACK8
   \   0000F6   02....       LJMP    ?Subroutine6 & 0xFFFF
    830          
    831          /*********************************************************************
    832           * @fn          bindUpdateAddr
    833           *
    834           * @brief       Update the network address in the binding table.
    835           *
    836           * @param       oldAddr - old network address
    837           * @param       newAddr - new network address
    838           *
    839           * @return      none
    840           */

   \                                 In  segment BANKED_CODE, align 1, keep-with-next
    841          void bindUpdateAddr( uint16 oldAddr, uint16 newAddr )
   \                     bindUpdateAddr:
    842          {
   \   000000   74F4         MOV     A,#-0xc
   \   000002   12....       LCALL   ?BANKED_ENTER_XDATA
   \   000005                ; Saved register size: 12
   \   000005                ; Auto size: 9
   \   000005   74F7         MOV     A,#-0x9
   \   000007   12....       LCALL   ?ALLOC_XSTACK8
   \   00000A   8C..         MOV     ?V0 + 0,R4
   \   00000C   8D..         MOV     ?V0 + 1,R5
    843            uint16 oldIdx;
    844            uint16 newIdx;
    845            zAddrType_t addr;
    846            uint16 x;
    847            BindingEntry_t *pBind;
    848          
    849            addr.addrMode = Addr16Bit;
   \   00000E   7408         MOV     A,#0x8
   \   000010   12....       LCALL   ?XSTACK_DISP0_8
   \   000013   7402         MOV     A,#0x2
   \   000015   12....       LCALL   ?Subroutine32 & 0xFFFF
    850            addr.addr.shortAddr = oldAddr;
   \                     ??CrossCallReturnLabel_55:
   \   000018   EA           MOV     A,R2
   \   000019   F0           MOVX    @DPTR,A
   \   00001A   A3           INC     DPTR
   \   00001B   EB           MOV     A,R3
   \   00001C   12....       LCALL   ?Subroutine20 & 0xFFFF
    851            oldIdx = bindingAddrMgsHelperFind( &addr );
   \                     ??CrossCallReturnLabel_30:
   \   00001F   8A..         MOV     ?V0 + 2,R2
   \   000021   8B..         MOV     ?V0 + 3,R3
   \   000023   AE..         MOV     R6,?V0 + 2
   \   000025   AF..         MOV     R7,?V0 + 3
    852            addr.addr.shortAddr = newAddr;
   \   000027   85..82       MOV     DPL,?XSP + 0
   \   00002A   85..83       MOV     DPH,?XSP + 1
   \   00002D   E5..         MOV     A,?V0 + 0
   \   00002F   F0           MOVX    @DPTR,A
   \   000030   A3           INC     DPTR
   \   000031   E5..         MOV     A,?V0 + 1
   \   000033   12....       LCALL   ?Subroutine20 & 0xFFFF
    853            newIdx = bindingAddrMgsHelperFind( &addr );
   \                     ??CrossCallReturnLabel_31:
   \   000036   8A..         MOV     ?V0 + 0,R2
   \   000038   8B..         MOV     ?V0 + 1,R3
    854          
    855            for ( x = 0; x < gNWK_MAX_BINDING_ENTRIES; x++ )
   \   00003A   7800         MOV     R0,#0x0
   \   00003C   7900         MOV     R1,#0x0
   \   00003E   8027         SJMP    ??CrossCallReturnLabel_22
    856            {
    857              pBind = &BindingTable[x];
   \                     ??bindUpdateAddr_0:
   \   000040   12....       LCALL   ?Subroutine24 & 0xFFFF
    858          
    859              if ( pBind->dstIdx == oldIdx )
   \                     ??CrossCallReturnLabel_40:
   \   000043   EA           MOV     A,R2
   \   000044   2402         ADD     A,#0x2
   \   000046   0A           INC     R2
   \   000047   0A           INC     R2
   \   000048   EB           MOV     A,R3
   \   000049   3400         ADDC    A,#0x0
   \   00004B   FB           MOV     R3,A
   \   00004C   8A82         MOV     DPL,R2
   \   00004E   8B83         MOV     DPH,R3
   \   000050   E0           MOVX    A,@DPTR
   \   000051   6E           XRL     A,R6
   \   000052   7003         JNZ     ??bindUpdateAddr_1
   \   000054   A3           INC     DPTR
   \   000055   E0           MOVX    A,@DPTR
   \   000056   6F           XRL     A,R7
   \                     ??bindUpdateAddr_1:
   \   000057   700B         JNZ     ??bindUpdateAddr_2
    860              {
    861                pBind->dstIdx = newIdx;
   \   000059   8A82         MOV     DPL,R2
   \   00005B   8B83         MOV     DPH,R3
   \   00005D   E5..         MOV     A,?V0 + 0
   \   00005F   F0           MOVX    @DPTR,A
   \   000060   A3           INC     DPTR
   \   000061   E5..         MOV     A,?V0 + 1
   \   000063   F0           MOVX    @DPTR,A
    862              }
    863            }
   \                     ??bindUpdateAddr_2:
   \   000064   12....       LCALL   ?Subroutine16 & 0xFFFF
   \                     ??CrossCallReturnLabel_22:
   \   000067   12....       LCALL   ?Subroutine8 & 0xFFFF
   \                     ??CrossCallReturnLabel_3:
   \   00006A   40D4         JC      ??bindUpdateAddr_0
    864          }
   \   00006C   7409         MOV     A,#0x9
   \   00006E   02....       LJMP    ?Subroutine7 & 0xFFFF

   \                                 In  segment BANKED_CODE, align 1, keep-with-next
   \                     ?Subroutine20:
   \   000000   12....       LCALL   ?Subroutine29 & 0xFFFF
   \                     ??CrossCallReturnLabel_47:
   \   000003   12....       LCALL   ??bindingAddrMgsHelperFind?relay
   \   000006   22           RET

   \                                 In  segment BANKED_CODE, align 1, keep-with-next
   \                     ?Subroutine29:
   \   000000   12....       LCALL   ?Subroutine32 & 0xFFFF
   \                     ??CrossCallReturnLabel_56:
   \   000003   AA82         MOV     R2,DPL
   \   000005   AB83         MOV     R3,DPH
   \   000007   22           RET
    865          
    866          /*********************************************************************
    867           * @fn      bindingAddrMgsHelperFind
    868           *
    869           * @brief   Turns an zAddrType_t to an Addr Manager index
    870           *
    871           * @param   addr - zAddrType_t
    872           *
    873           * @return  INVALID_NODE_ADDR if not found, otherwise an index
    874           */

   \                                 In  segment BANKED_CODE, align 1, keep-with-next
    875          uint16 bindingAddrMgsHelperFind( zAddrType_t *addr )
   \                     bindingAddrMgsHelperFind:
    876          {
   \   000000   C082         PUSH    DPL
   \   000002   C083         PUSH    DPH
   \   000004                ; Saved register size: 2
   \   000004                ; Auto size: 13
   \   000004   74F3         MOV     A,#-0xd
   \   000006   12....       LCALL   ?ALLOC_XSTACK8
    877            AddrMgrEntry_t entry;
    878          
    879            // Resolve addresses with the address manager
    880            entry.user = ADDRMGR_USER_BINDING;
   \   000009   12....       LCALL   ?Subroutine21 & 0xFFFF
    881            if ( addr->addrMode == Addr16Bit )
   \                     ??CrossCallReturnLabel_32:
   \   00000C   6402         XRL     A,#0x2
   \   00000E   700B         JNZ     ??bindingAddrMgsHelperFind_0
    882            {
    883              entry.nwkAddr = addr->addr.shortAddr;
   \   000010   12....       LCALL   ?Subroutine26 & 0xFFFF
    884              AddrMgrEntryLookupNwk( &entry );
    885            }
   \                     ??CrossCallReturnLabel_66:
   \   000013   12....       LCALL   ?XSTACK_DISP0_8
   \   000016   12....       LCALL   ?Subroutine17 & 0xFFFF
   \                     ??CrossCallReturnLabel_23:
   \   000019   800C         SJMP    ??CrossCallReturnLabel_45
    886            else
    887            {
    888              AddrMgrExtAddrSet( entry.extAddr, addr->addr.extAddr );
   \                     ??bindingAddrMgsHelperFind_0:
   \   00001B                ; Setup parameters for call to function AddrMgrExtAddrSet
   \   00001B   EA           MOV     A,R2
   \   00001C   FC           MOV     R4,A
   \   00001D   EB           MOV     A,R3
   \   00001E   FD           MOV     R5,A
   \   00001F   7403         MOV     A,#0x3
   \   000021   12....       LCALL   ?XSTACK_DISP0_8
   \   000024   12....       LCALL   ?Subroutine28 & 0xFFFF
    889              AddrMgrEntryLookupExt( &entry );
    890            }
    891          
    892            return ( entry.index );
   \                     ??CrossCallReturnLabel_45:
   \   000027   02....       LJMP    ?Subroutine1 & 0xFFFF
    893          }

   \                                 In  segment BANKED_CODE, align 1, keep-with-next
   \                     ?Subroutine26:
   \   000000   8A82         MOV     DPL,R2
   \   000002   8B83         MOV     DPH,R3
   \   000004                REQUIRE ??Subroutine36_0
   \   000004                ; // Fall through to label ??Subroutine36_0

   \                                 In  segment BANKED_CODE, align 1, keep-with-next
   \                     ??Subroutine36_0:
   \   000000   E0           MOVX    A,@DPTR
   \   000001   F8           MOV     R0,A
   \   000002   A3           INC     DPTR
   \   000003   E0           MOVX    A,@DPTR
   \   000004   F9           MOV     R1,A
   \   000005   7401         MOV     A,#0x1
   \   000007   22           RET

   \                                 In  segment BANKED_CODE, align 1, keep-with-next
   \                     ?Subroutine1:
   \   000000   740B         MOV     A,#0xb
   \   000002                REQUIRE ??Subroutine37_0
   \   000002                ; // Fall through to label ??Subroutine37_0

   \                                 In  segment BANKED_CODE, align 1, keep-with-next
   \                     ??Subroutine37_0:
   \   000000   12....       LCALL   ?XSTACK_DISP0_8
   \   000003   E0           MOVX    A,@DPTR
   \   000004   FA           MOV     R2,A
   \   000005   A3           INC     DPTR
   \   000006   E0           MOVX    A,@DPTR
   \   000007   FB           MOV     R3,A
   \   000008   740D         MOV     A,#0xd
   \   00000A   12....       LCALL   ?DEALLOC_XSTACK8
   \   00000D                REQUIRE ??Subroutine38_0
   \   00000D                ; // Fall through to label ??Subroutine38_0

   \                                 In  segment BANKED_CODE, align 1, keep-with-next
   \                     ?Subroutine28:
   \   000000   12....       LCALL   ?Subroutine31 & 0xFFFF
   \                     ??CrossCallReturnLabel_53:
   \   000003   12....       LCALL   ??AddrMgrEntryLookupExt?relay
   \   000006   22           RET

   \                                 In  segment BANKED_CODE, align 1, keep-with-next
   \                     ?Subroutine31:
   \   000000   AA82         MOV     R2,DPL
   \   000002   AB83         MOV     R3,DPH
   \   000004   12....       LCALL   ??AddrMgrExtAddrSet?relay
   \   000007                ; Setup parameters for call to function AddrMgrEntryUpdate
   \   000007                ; Setup parameters for call to function AddrMgrEntryLookupExt
   \   000007                ; Setup parameters for call to function AddrMgrEntryLookupExt
   \   000007   85..82       MOV     DPL,?XSP + 0
   \   00000A   85..83       MOV     DPH,?XSP + 1
   \   00000D   AA82         MOV     R2,DPL
   \   00000F   AB83         MOV     R3,DPH
   \   000011   22           RET

   \                                 In  segment BANKED_CODE, align 1, keep-with-next
   \                     ?Subroutine21:
   \   000000   85..82       MOV     DPL,?XSP + 0
   \   000003   85..83       MOV     DPH,?XSP + 1
   \   000006   7404         MOV     A,#0x4
   \   000008   F0           MOVX    @DPTR,A
   \   000009   8A82         MOV     DPL,R2
   \   00000B   8B83         MOV     DPH,R3
   \   00000D   A3           INC     DPTR
   \   00000E   A3           INC     DPTR
   \   00000F   A3           INC     DPTR
   \   000010   A3           INC     DPTR
   \   000011   A3           INC     DPTR
   \   000012   A3           INC     DPTR
   \   000013   A3           INC     DPTR
   \   000014   A3           INC     DPTR
   \   000015   E0           MOVX    A,@DPTR
   \   000016   22           RET

   \                                 In  segment BANKED_CODE, align 1, keep-with-next
   \                     ?Subroutine17:
   \   000000   E8           MOV     A,R0
   \   000001   F0           MOVX    @DPTR,A
   \   000002   A3           INC     DPTR
   \   000003   E9           MOV     A,R1
   \   000004   12....       LCALL   ?Subroutine29 & 0xFFFF
   \                     ??CrossCallReturnLabel_49:
   \   000007   12....       LCALL   ??AddrMgrEntryLookupNwk?relay
   \   00000A   22           RET
    894          
    895          /*********************************************************************
    896           * @fn      bindingAddrMgsHelperConvert
    897           *
    898           * @brief   Convert an index into an zAddrType_t
    899           *
    900           * @param   idx -
    901           * @param   addr - zAddrType_t
    902           *
    903           * @return  TRUE if found, FALSE if not
    904           */

   \                                 In  segment BANKED_CODE, align 1, keep-with-next
    905          uint8 bindingAddrMgsHelperConvert( uint16 idx, zAddrType_t *addr )
   \                     bindingAddrMgsHelperConvert:
    906          {
   \   000000   74F7         MOV     A,#-0x9
   \   000002   12....       LCALL   ?BANKED_ENTER_XDATA
   \   000005                ; Saved register size: 9
   \   000005                ; Auto size: 13
   \   000005   74F3         MOV     A,#-0xd
   \   000007   12....       LCALL   ?ALLOC_XSTACK8
   \   00000A   EC           MOV     A,R4
   \   00000B   FE           MOV     R6,A
   \   00000C   ED           MOV     A,R5
   \   00000D   FF           MOV     R7,A
    907            AddrMgrEntry_t entry;
    908            uint8 stat;
    909          
    910            // Resolve addresses with the address manager
    911            entry.user = ADDRMGR_USER_BINDING;
   \   00000E   85..82       MOV     DPL,?XSP + 0
   \   000011   85..83       MOV     DPH,?XSP + 1
   \   000014   7404         MOV     A,#0x4
   \   000016   F0           MOVX    @DPTR,A
    912            entry.index = idx;
   \   000017   740B         MOV     A,#0xb
   \   000019   12....       LCALL   ?XSTACK_DISP0_8
   \   00001C   12....       LCALL   ?Subroutine18 & 0xFFFF
    913            stat = AddrMgrEntryGet( &entry );
   \                     ??CrossCallReturnLabel_25:
   \   00001F   E9           MOV     A,R1
   \   000020   F5..         MOV     ?V0 + 0,A
    914            if ( stat )
   \   000022   601D         JZ      ??bindingAddrMgsHelperConvert_0
    915            {
    916              addr->addrMode = Addr64Bit;
   \   000024   8E82         MOV     DPL,R6
   \   000026   8F83         MOV     DPH,R7
   \   000028   A3           INC     DPTR
   \   000029   A3           INC     DPTR
   \   00002A   A3           INC     DPTR
   \   00002B   A3           INC     DPTR
   \   00002C   A3           INC     DPTR
   \   00002D   A3           INC     DPTR
   \   00002E   A3           INC     DPTR
   \   00002F   A3           INC     DPTR
   \   000030   7403         MOV     A,#0x3
   \   000032   F0           MOVX    @DPTR,A
    917              osal_cpyExtAddr( addr->addr.extAddr, entry.extAddr );
   \   000033                ; Setup parameters for call to function sAddrExtCpy
   \   000033   12....       LCALL   ?XSTACK_DISP0_8
   \   000036   AC82         MOV     R4,DPL
   \   000038   AD83         MOV     R5,DPH
   \   00003A   EE           MOV     A,R6
   \   00003B   FA           MOV     R2,A
   \   00003C   EF           MOV     A,R7
   \   00003D   FB           MOV     R3,A
   \   00003E   12....       LCALL   ??sAddrExtCpy?relay
    918            }
    919          
    920            return ( stat );
   \                     ??bindingAddrMgsHelperConvert_0:
   \   000041   A9..         MOV     R1,?V0 + 0
   \   000043   740D         MOV     A,#0xd
   \   000045   12....       LCALL   ?DEALLOC_XSTACK8
   \   000048   02....       LJMP    ?Subroutine2 & 0xFFFF
    921          }

   \                                 In  segment BANKED_CODE, align 1, keep-with-next
   \                     ?Subroutine18:
   \   000000   EA           MOV     A,R2
   \   000001   F0           MOVX    @DPTR,A
   \   000002   A3           INC     DPTR
   \   000003   EB           MOV     A,R3
   \   000004   12....       LCALL   ?Subroutine29 & 0xFFFF
   \                     ??CrossCallReturnLabel_48:
   \   000007   12....       LCALL   ??AddrMgrEntryGet?relay
   \   00000A   22           RET
    922          
    923          /*********************************************************************
    924           * @fn      bindingAddrMgsHelperConvertShort
    925           *
    926           * @brief   Convert an index into a short address
    927           *
    928           * @param   idx -
    929           *
    930           * @return  INVALID_NODE_ADDR if not available, otherwise the short address
    931           */

   \                                 In  segment BANKED_CODE, align 1, keep-with-next
    932          uint16 bindingAddrMgsHelperConvertShort( uint16 idx )
   \                     bindingAddrMgsHelperConvertShort:
    933          {
   \   000000   C082         PUSH    DPL
   \   000002   C083         PUSH    DPH
   \   000004                ; Saved register size: 2
   \   000004                ; Auto size: 13
   \   000004   74F3         MOV     A,#-0xd
   \   000006   12....       LCALL   ?ALLOC_XSTACK8
    934            AddrMgrEntry_t entry;
    935          
    936            // Resolve addresses with the address manager
    937            entry.user = ADDRMGR_USER_BINDING;
   \   000009   85..82       MOV     DPL,?XSP + 0
   \   00000C   85..83       MOV     DPH,?XSP + 1
   \   00000F   7404         MOV     A,#0x4
   \   000011   F0           MOVX    @DPTR,A
    938            entry.index = idx;
   \   000012   740B         MOV     A,#0xb
   \   000014   12....       LCALL   ?XSTACK_DISP0_8
   \   000017   12....       LCALL   ?Subroutine18 & 0xFFFF
    939            AddrMgrEntryGet( &entry );
    940          
    941            return ( entry.nwkAddr );
   \                     ??CrossCallReturnLabel_26:
   \   00001A   7401         MOV     A,#0x1
   \   00001C   80..         SJMP    ??Subroutine37_0
    942          }
    943          
    944          /*********************************************************************
    945           * @fn      bindAddrMgrLocalLoad
    946           *
    947           * @brief   Load local(self and parent) address information into
    948           *          Address Manager
    949           *
    950           * @param   none
    951           *
    952           * @return  none
    953           */

   \                                 In  segment BANKED_CODE, align 1, keep-with-next
    954          void bindAddrMgrLocalLoad( void )
   \                     bindAddrMgrLocalLoad:
    955          {
   \   000000   74F6         MOV     A,#-0xa
   \   000002   12....       LCALL   ?BANKED_ENTER_XDATA
   \   000005                ; Saved register size: 10
   \   000005                ; Auto size: 13
   \   000005   74F3         MOV     A,#-0xd
   \   000007   12....       LCALL   ?ALLOC_XSTACK8
    956            AddrMgrEntry_t entry;
    957            uint16         parent;
    958          
    959            // add "local"(self and parent) address informtion into the Address
    960            // Manager
    961            if ( bindAddrMgrLocalLoaded == FALSE )
   \   00000A   90....       MOV     DPTR,#bindAddrMgrLocalLoaded
   \   00000D   E0           MOVX    A,@DPTR
   \   00000E   7075         JNZ     ??bindAddrMgrLocalLoad_0
    962            {
    963              // add the device's address information
    964              entry.user    = ADDRMGR_USER_BINDING;
   \   000010   85..82       MOV     DPL,?XSP + 0
   \   000013   85..83       MOV     DPH,?XSP + 1
   \   000016   7404         MOV     A,#0x4
   \   000018   F0           MOVX    @DPTR,A
    965              entry.nwkAddr = _NIB.nwkDevAddress;
   \   000019   90....       MOV     DPTR,#_NIB + 20
   \   00001C   12....       LCALL   ??Subroutine36_0 & 0xFFFF
   \                     ??CrossCallReturnLabel_65:
   \   00001F   12....       LCALL   ?XSTACK_DISP0_8
   \   000022   E8           MOV     A,R0
   \   000023   F0           MOVX    @DPTR,A
   \   000024   A3           INC     DPTR
   \   000025   E9           MOV     A,R1
   \   000026   F0           MOVX    @DPTR,A
    966              AddrMgrExtAddrSet( entry.extAddr, NLME_GetExtAddr() );
   \   000027                ; Setup parameters for call to function AddrMgrExtAddrSet
   \   000027                ; Setup parameters for call to function NLME_GetExtAddr
   \   000027   12....       LCALL   ??NLME_GetExtAddr?relay
   \   00002A   EA           MOV     A,R2
   \   00002B   FC           MOV     R4,A
   \   00002C   EB           MOV     A,R3
   \   00002D   FD           MOV     R5,A
   \   00002E   7403         MOV     A,#0x3
   \   000030   12....       LCALL   ?XSTACK_DISP0_8
   \   000033   12....       LCALL   ?Subroutine31 & 0xFFFF
    967              AddrMgrEntryUpdate( &entry );
   \                     ??CrossCallReturnLabel_52:
   \   000036   12....       LCALL   ??AddrMgrEntryUpdate?relay
    968          
    969              // make sure parent address is valid
    970              parent = NLME_GetCoordShortAddr();
   \   000039                ; Setup parameters for call to function NLME_GetCoordShortAddr
   \   000039   12....       LCALL   ??NLME_GetCoordShortAddr?relay
   \   00003C   8A..         MOV     ?V0 + 0,R2
   \   00003E   8B..         MOV     ?V0 + 1,R3
   \   000040   A8..         MOV     R0,?V0 + 0
   \   000042   A9..         MOV     R1,?V0 + 1
    971              if ( ( parent != entry.nwkAddr     ) &&
    972                   ( parent != INVALID_NODE_ADDR )    )
   \   000044   7401         MOV     A,#0x1
   \   000046   12....       LCALL   ?XSTACK_DISP0_8
   \   000049   E0           MOVX    A,@DPTR
   \   00004A   68           XRL     A,R0
   \   00004B   7003         JNZ     ??bindAddrMgrLocalLoad_1
   \   00004D   A3           INC     DPTR
   \   00004E   E0           MOVX    A,@DPTR
   \   00004F   69           XRL     A,R1
   \                     ??bindAddrMgrLocalLoad_1:
   \   000050   602D         JZ      ??bindAddrMgrLocalLoad_2
   \   000052   74FE         MOV     A,#-0x2
   \   000054   68           XRL     A,R0
   \   000055   7003         JNZ     ??bindAddrMgrLocalLoad_3
   \   000057   74FF         MOV     A,#-0x1
   \   000059   69           XRL     A,R1
   \                     ??bindAddrMgrLocalLoad_3:
   \   00005A   6023         JZ      ??bindAddrMgrLocalLoad_2
    973              {
    974                // add the parent's address information
    975                entry.nwkAddr = parent;
   \   00005C   7401         MOV     A,#0x1
   \   00005E   12....       LCALL   ?XSTACK_DISP0_8
   \   000061   E8           MOV     A,R0
   \   000062   F0           MOVX    @DPTR,A
   \   000063   A3           INC     DPTR
   \   000064   E9           MOV     A,R1
   \   000065   F0           MOVX    @DPTR,A
    976                NLME_GetCoordExtAddr( entry.extAddr );
   \   000066                ; Setup parameters for call to function NLME_GetCoordExtAddr
   \   000066   7403         MOV     A,#0x3
   \   000068   12....       LCALL   ?XSTACK_DISP0_8
   \   00006B   AA82         MOV     R2,DPL
   \   00006D   AB83         MOV     R3,DPH
   \   00006F   12....       LCALL   ??NLME_GetCoordExtAddr?relay
    977                AddrMgrEntryUpdate( &entry );
   \   000072                ; Setup parameters for call to function AddrMgrEntryUpdate
   \   000072   85..82       MOV     DPL,?XSP + 0
   \   000075   85..83       MOV     DPH,?XSP + 1
   \   000078   AA82         MOV     R2,DPL
   \   00007A   AB83         MOV     R3,DPH
   \   00007C   12....       LCALL   ??AddrMgrEntryUpdate?relay
    978              }
    979          
    980              bindAddrMgrLocalLoaded = TRUE;
   \                     ??bindAddrMgrLocalLoad_2:
   \   00007F   90....       MOV     DPTR,#bindAddrMgrLocalLoaded
   \   000082   7401         MOV     A,#0x1
   \   000084   F0           MOVX    @DPTR,A
    981            }
    982          }
   \                     ??bindAddrMgrLocalLoad_0:
   \   000085   740D         MOV     A,#0xd
   \   000087   02....       LJMP    ?Subroutine0 & 0xFFFF
    983          
    984          /*********************************************************************
    985           * @fn      bindAddrIndexGet
    986           *
    987           * @brief   Get bind address index.
    988           *
    989           * @param   addr - <zAddrType_t>
    990           *
    991           * @return  (uint16) address index
    992           */

   \                                 In  segment BANKED_CODE, align 1, keep-with-next
    993          uint16 bindAddrIndexGet( zAddrType_t* addr )
   \                     bindAddrIndexGet:
    994          {
   \   000000   C082         PUSH    DPL
   \   000002   C083         PUSH    DPH
   \   000004                ; Saved register size: 2
   \   000004                ; Auto size: 13
   \   000004   74F3         MOV     A,#-0xd
   \   000006   12....       LCALL   ?ALLOC_XSTACK8
    995            AddrMgrEntry_t entry;
    996            uint8          update;
    997          
    998            update = FALSE;
    999          
   1000            // sync binding addresses with the address manager
   1001            entry.user = ADDRMGR_USER_BINDING;
   \   000009   12....       LCALL   ?Subroutine21 & 0xFFFF
   1002          
   1003            if ( addr->addrMode == Addr16Bit )
   \                     ??CrossCallReturnLabel_33:
   \   00000C   F8           MOV     R0,A
   \   00000D   7402         MOV     A,#0x2
   \   00000F   68           XRL     A,R0
   \   000010   701B         JNZ     ??bindAddrIndexGet_0
   1004            {
   1005              entry.nwkAddr = addr->addr.shortAddr;
   \   000012   12....       LCALL   ?Subroutine26 & 0xFFFF
   \                     ??CrossCallReturnLabel_67:
   \   000015   12....       LCALL   ?XSTACK_DISP0_8
   \   000018   12....       LCALL   ?Subroutine17 & 0xFFFF
   1006          
   1007              if ( AddrMgrEntryLookupNwk( &entry ) == FALSE )
   \                     ??CrossCallReturnLabel_24:
   \   00001B   E9           MOV     A,R1
   \   00001C   7049         JNZ     ??bindAddrIndexGet_1
   1008              {
   1009                update = TRUE;
   1010              }
   1011            }
   1012            else if ( addr->addrMode == Addr64Bit )
   1013            {
   1014              AddrMgrExtAddrSet( entry.extAddr, addr->addr.extAddr );
   1015          
   1016              if ( AddrMgrEntryLookupExt( &entry ) == FALSE )
   1017              {
   1018                update = TRUE;
   1019              }
   1020            }
   1021            else if ( addr->addrMode == AddrGroup )
   1022            {
   1023              entry.index = addr->addr.shortAddr;
   1024            }
   1025            else
   1026            {
   1027              entry.index = INVALID_NODE_ADDR;
   1028            }
   1029          
   1030            if ( update )
   1031            {
   1032              AddrMgrEntryUpdate( &entry );
   \                     ??bindAddrIndexGet_2:
   \   00001E                ; Setup parameters for call to function AddrMgrEntryUpdate
   \   00001E   85..82       MOV     DPL,?XSP + 0
   \   000021   85..83       MOV     DPH,?XSP + 1
   \   000024   AA82         MOV     R2,DPL
   \   000026   AB83         MOV     R3,DPH
   \   000028   12....       LCALL   ??AddrMgrEntryUpdate?relay
   \   00002B   803A         SJMP    ??bindAddrIndexGet_1
   1033            }
   \                     ??bindAddrIndexGet_0:
   \   00002D   7403         MOV     A,#0x3
   \   00002F   68           XRL     A,R0
   \   000030   7011         JNZ     ??bindAddrIndexGet_3
   \   000032                ; Setup parameters for call to function AddrMgrExtAddrSet
   \   000032   EA           MOV     A,R2
   \   000033   FC           MOV     R4,A
   \   000034   EB           MOV     A,R3
   \   000035   FD           MOV     R5,A
   \   000036   7403         MOV     A,#0x3
   \   000038   12....       LCALL   ?XSTACK_DISP0_8
   \   00003B   12....       LCALL   ?Subroutine28 & 0xFFFF
   \                     ??CrossCallReturnLabel_46:
   \   00003E   E9           MOV     A,R1
   \   00003F   7026         JNZ     ??bindAddrIndexGet_1
   \   000041   80DB         SJMP    ??bindAddrIndexGet_2
   \                     ??bindAddrIndexGet_3:
   \   000043   7401         MOV     A,#0x1
   \   000045   68           XRL     A,R0
   \   000046   7014         JNZ     ??bindAddrIndexGet_4
   \   000048   8A82         MOV     DPL,R2
   \   00004A   8B83         MOV     DPH,R3
   \   00004C   E0           MOVX    A,@DPTR
   \   00004D   F8           MOV     R0,A
   \   00004E   A3           INC     DPTR
   \   00004F   E0           MOVX    A,@DPTR
   \   000050   F9           MOV     R1,A
   \   000051   740B         MOV     A,#0xb
   \   000053   12....       LCALL   ?XSTACK_DISP0_8
   \   000056   E8           MOV     A,R0
   \   000057   F0           MOVX    @DPTR,A
   \   000058   A3           INC     DPTR
   \   000059   E9           MOV     A,R1
   \   00005A   800A         SJMP    ??bindAddrIndexGet_5
   \                     ??bindAddrIndexGet_4:
   \   00005C   740B         MOV     A,#0xb
   \   00005E   12....       LCALL   ?XSTACK_DISP0_8
   \   000061   74FE         MOV     A,#-0x2
   \   000063   F0           MOVX    @DPTR,A
   \   000064   A3           INC     DPTR
   \   000065   04           INC     A
   \                     ??bindAddrIndexGet_5:
   \   000066   F0           MOVX    @DPTR,A
   1034          
   1035            return entry.index;
   \                     ??bindAddrIndexGet_1:
   \   000067   02....       LJMP    ?Subroutine1 & 0xFFFF
   1036          }
   1037          
   1038          /*********************************************************************
   1039           * @fn      GetBindingTableEntry
   1040           *
   1041           * @brief   Get a pointer to the Nth valid binding table entry.
   1042           *
   1043           * @param   Nth valid entry being requested.
   1044           *
   1045           * @return  The Nth valid binding table entry.
   1046           */

   \                                 In  segment BANKED_CODE, align 1, keep-with-next
   1047          BindingEntry_t *GetBindingTableEntry( uint16 Nth )
   \                     GetBindingTableEntry:
   1048          {
   \   000000   74F5         MOV     A,#-0xb
   \   000002   12....       LCALL   ?BANKED_ENTER_XDATA
   \   000005                ; Saved register size: 11
   \   000005                ; Auto size: 0
   1049            BindingEntry_t *rtrn = NULL;
   \   000005   7800         MOV     R0,#0x0
   \   000007   7900         MOV     R1,#0x0
   1050          
   1051          #if defined ( REFLECTOR )
   1052            uint16 idx, cnt = 0;
   \   000009   88..         MOV     ?V0 + 0,R0
   \   00000B   88..         MOV     ?V0 + 1,R0
   1053          
   1054            for ( idx = 0; idx < gNWK_MAX_BINDING_ENTRIES; idx++ )
   \   00000D   7C00         MOV     R4,#0x0
   \   00000F   7D00         MOV     R5,#0x0
   \   000011   8008         SJMP    ??GetBindingTableEntry_0
   \                     ??GetBindingTableEntry_1:
   \   000013   EC           MOV     A,R4
   \   000014   2401         ADD     A,#0x1
   \   000016   0C           INC     R4
   \   000017   ED           MOV     A,R5
   \   000018   3400         ADDC    A,#0x0
   \   00001A   FD           MOV     R5,A
   \                     ??GetBindingTableEntry_0:
   \   00001B   90....       MOV     DPTR,#gNWK_MAX_BINDING_ENTRIES
   \   00001E   E4           CLR     A
   \   00001F   93           MOVC    A,@A+DPTR
   \   000020   FE           MOV     R6,A
   \   000021   7401         MOV     A,#0x1
   \   000023   93           MOVC    A,@A+DPTR
   \   000024   FF           MOV     R7,A
   \   000025   C3           CLR     C
   \   000026   EC           MOV     A,R4
   \   000027   9E           SUBB    A,R6
   \   000028   ED           MOV     A,R5
   \   000029   9F           SUBB    A,R7
   \   00002A   5022         JNC     ??GetBindingTableEntry_2
   1055            {
   1056              if ( BindingTable[idx].srcEP != NV_BIND_EMPTY )
   \   00002C   EC           MOV     A,R4
   \   00002D   FE           MOV     R6,A
   \   00002E   ED           MOV     A,R5
   \   00002F   12....       LCALL   ?Subroutine25 & 0xFFFF
   \                     ??CrossCallReturnLabel_42:
   \   000032   60DF         JZ      ??GetBindingTableEntry_1
   1057              {
   1058                if ( cnt++ == Nth )
   \   000034   AE..         MOV     R6,?V0 + 0
   \   000036   AF..         MOV     R7,?V0 + 1
   \   000038   EE           MOV     A,R6
   \   000039   2401         ADD     A,#0x1
   \   00003B   F5..         MOV     ?V0 + 0,A
   \   00003D   EF           MOV     A,R7
   \   00003E   3400         ADDC    A,#0x0
   \   000040   F5..         MOV     ?V0 + 1,A
   \   000042   EA           MOV     A,R2
   \   000043   6E           XRL     A,R6
   \   000044   7002         JNZ     ??GetBindingTableEntry_3
   \   000046   EB           MOV     A,R3
   \   000047   6F           XRL     A,R7
   \                     ??GetBindingTableEntry_3:
   \   000048   70C9         JNZ     ??GetBindingTableEntry_1
   1059                {
   1060                  rtrn = BindingTable+idx;
   \   00004A   A882         MOV     R0,DPL
   \   00004C   A983         MOV     R1,DPH
   1061                  break;
   1062                }
   1063              }
   1064            }
   1065          #else
   1066            (void)Nth;
   1067          #endif
   1068          
   1069            return rtrn;
   \                     ??GetBindingTableEntry_2:
   \   00004E   E8           MOV     A,R0
   \   00004F   FA           MOV     R2,A
   \   000050   E9           MOV     A,R1
   \   000051   FB           MOV     R3,A
   \   000052   02....       LJMP    ?Subroutine3 & 0xFFFF
   1070          }

   \                                 In  segment BANK_RELAYS, align 1
   \                     ??InitBindingTable?relay:
   \   000000   12....       LCALL   ?BDISPATCH
   \   000003   ......       DC24    InitBindingTable

   \                                 In  segment BANK_RELAYS, align 1
   \                     ??bindFindEmpty?relay:
   \   000000   12....       LCALL   ?BDISPATCH
   \   000003   ......       DC24    bindFindEmpty

   \                                 In  segment BANK_RELAYS, align 1
   \                     ??bindNumOfEntries?relay:
   \   000000   12....       LCALL   ?BDISPATCH
   \   000003   ......       DC24    bindNumOfEntries

   \                                 In  segment BANK_RELAYS, align 1
   \                     ??bindCapacity?relay:
   \   000000   12....       LCALL   ?BDISPATCH
   \   000003   ......       DC24    bindCapacity

   \                                 In  segment BANK_RELAYS, align 1
   \                     ??bindAddEntry?relay:
   \   000000   12....       LCALL   ?BDISPATCH
   \   000003   ......       DC24    bindAddEntry

   \                                 In  segment BANK_RELAYS, align 1
   \                     ??bindRemoveEntry?relay:
   \   000000   12....       LCALL   ?BDISPATCH
   \   000003   ......       DC24    bindRemoveEntry

   \                                 In  segment BANK_RELAYS, align 1
   \                     ??bindIsClusterIDinList?relay:
   \   000000   12....       LCALL   ?BDISPATCH
   \   000003   ......       DC24    bindIsClusterIDinList

   \                                 In  segment BANK_RELAYS, align 1
   \                     ??bindRemoveClusterIdFromList?relay:
   \   000000   12....       LCALL   ?BDISPATCH
   \   000003   ......       DC24    bindRemoveClusterIdFromList

   \                                 In  segment BANK_RELAYS, align 1
   \                     ??bindAddClusterIdToList?relay:
   \   000000   12....       LCALL   ?BDISPATCH
   \   000003   ......       DC24    bindAddClusterIdToList

   \                                 In  segment BANK_RELAYS, align 1
   \                     ??bindFindExisting?relay:
   \   000000   12....       LCALL   ?BDISPATCH
   \   000003   ......       DC24    bindFindExisting

   \                                 In  segment BANK_RELAYS, align 1
   \                     ??bindRemoveDev?relay:
   \   000000   12....       LCALL   ?BDISPATCH
   \   000003   ......       DC24    bindRemoveDev

   \                                 In  segment BANK_RELAYS, align 1
   \                     ??bindRemoveSrcDev?relay:
   \   000000   12....       LCALL   ?BDISPATCH
   \   000003   ......       DC24    bindRemoveSrcDev

   \                                 In  segment BANK_RELAYS, align 1
   \                     ??bindNumBoundTo?relay:
   \   000000   12....       LCALL   ?BDISPATCH
   \   000003   ......       DC24    bindNumBoundTo

   \                                 In  segment BANK_RELAYS, align 1
   \                     ??bindNumReflections?relay:
   \   000000   12....       LCALL   ?BDISPATCH
   \   000003   ......       DC24    bindNumReflections

   \                                 In  segment BANK_RELAYS, align 1
   \                     ??bindFind?relay:
   \   000000   12....       LCALL   ?BDISPATCH
   \   000003   ......       DC24    bindFind

   \                                 In  segment BANK_RELAYS, align 1
   \                     ??BindInitNV?relay:
   \   000000   12....       LCALL   ?BDISPATCH
   \   000003   ......       DC24    BindInitNV

   \                                 In  segment BANK_RELAYS, align 1
   \                     ??BindSetDefaultNV?relay:
   \   000000   12....       LCALL   ?BDISPATCH
   \   000003   ......       DC24    BindSetDefaultNV

   \                                 In  segment BANK_RELAYS, align 1
   \                     ??BindRestoreFromNV?relay:
   \   000000   12....       LCALL   ?BDISPATCH
   \   000003   ......       DC24    BindRestoreFromNV

   \                                 In  segment BANK_RELAYS, align 1
   \                     ??BindWriteNV?relay:
   \   000000   12....       LCALL   ?BDISPATCH
   \   000003   ......       DC24    BindWriteNV

   \                                 In  segment BANK_RELAYS, align 1
   \                     ??bindUpdateAddr?relay:
   \   000000   12....       LCALL   ?BDISPATCH
   \   000003   ......       DC24    bindUpdateAddr

   \                                 In  segment BANK_RELAYS, align 1
   \                     ??bindingAddrMgsHelperFind?relay:
   \   000000   12....       LCALL   ?BDISPATCH
   \   000003   ......       DC24    bindingAddrMgsHelperFind

   \                                 In  segment BANK_RELAYS, align 1
   \                     ??bindingAddrMgsHelperConvert?relay:
   \   000000   12....       LCALL   ?BDISPATCH
   \   000003   ......       DC24    bindingAddrMgsHelperConvert

   \                                 In  segment BANK_RELAYS, align 1
   \                     ??bindingAddrMgsHelperConvertShort?relay:
   \   000000   12....       LCALL   ?BDISPATCH
   \   000003   ......       DC24    bindingAddrMgsHelperConvertShort

   \                                 In  segment BANK_RELAYS, align 1
   \                     ??bindAddrMgrLocalLoad?relay:
   \   000000   12....       LCALL   ?BDISPATCH
   \   000003   ......       DC24    bindAddrMgrLocalLoad

   \                                 In  segment BANK_RELAYS, align 1
   \                     ??bindAddrIndexGet?relay:
   \   000000   12....       LCALL   ?BDISPATCH
   \   000003   ......       DC24    bindAddrIndexGet

   \                                 In  segment BANK_RELAYS, align 1
   \                     ??GetBindingTableEntry?relay:
   \   000000   12....       LCALL   ?BDISPATCH
   \   000003   ......       DC24    GetBindingTableEntry
   1071          
   1072          /*********************************************************************
   1073          *********************************************************************/

   Maximum stack usage in bytes:

     Function                       ISTACK PSTACK XSTACK
     --------                       ------ ------ ------
     BindInitNV                         2      0     12
       -> osal_nv_item_init             0      0     24
       -> BindSetDefaultNV              0      0     20
     BindRestoreFromNV                  0      0     18
       -> osal_nv_read                  0      0     36
       -> osal_nv_read                  0      0     36
     BindSetDefaultNV                   0      0     26
       -> osal_nv_write                 0      0     32
     BindWriteNV                        0      0     35
       -> osal_memcpy                   0      0     68
       -> osal_nv_write                 0      0     70
       -> osal_nv_write                 0      0     70
     GetBindingTableEntry               0      0     11
     InitBindingTable                   0      0     10
       -> osal_memset                   0      0     20
     bindAddClusterIdToList             0      0     29
     bindAddEntry                       1      0     25
       -> bindAddrMgrLocalLoad          0      0     40
       -> bindAddrIndexGet              0      0     40
       -> bindIsClusterIDinList         0      0     40
       -> bindAddClusterIdToList        0      0     40
       -> bindFindEmpty                 0      0     40
       -> osal_memcpy                   0      0     46
     bindAddrIndexGet                   2      0     33
       -> AddrMgrEntryLookupNwk         4      0     26
       -> AddrMgrEntryUpdate            4      0     26
       -> AddrMgrExtAddrSet             4      0     26
       -> AddrMgrEntryLookupExt         4      0     26
     bindAddrMgrLocalLoad               0      0     43
       -> NLME_GetExtAddr               0      0     46
       -> AddrMgrExtAddrSet             0      0     46
       -> AddrMgrEntryUpdate            0      0     46
       -> NLME_GetCoordShortAddr        0      0     46
       -> NLME_GetCoordExtAddr          0      0     46
       -> AddrMgrEntryUpdate            0      0     46
     bindCapacity                       0      0     11
     bindFind                           0      0     15
       -> bindIsClusterIDinList         0      0     30
     bindFindEmpty                      2      0     20
     bindFindExisting                   0      0     14
       -> bindingAddrMgsHelperFind      0      0     28
     bindIsClusterIDinList              0      0     29
     bindNumBoundTo                     0      0     14
       -> bindingAddrMgsHelperFind      0      0     28
     bindNumOfEntries                   0      0      9
     bindNumReflections                 0      0     13
       -> bindIsClusterIDinList         0      0     26
     bindRemoveClusterIdFromList        0      0     13
     bindRemoveDev                      0      0     14
       -> bindingAddrMgsHelperFind      0      0     28
       -> bindRemoveEntry               0      0     28
     bindRemoveEntry                    2      0     14
       -> osal_memset                   4      0      0
     bindRemoveSrcDev                   0      0      9
       -> bindRemoveEntry               0      0     18
     bindUpdateAddr                     0      0     21
       -> bindingAddrMgsHelperFind      0      0     42
       -> bindingAddrMgsHelperFind      0      0     42
     bindingAddrMgsHelperConvert        0      0     22
       -> AddrMgrEntryGet               0      0     44
       -> sAddrExtCpy                   0      0     44
     bindingAddrMgsHelperConvertShort
                                        2      0     13
       -> AddrMgrEntryGet               4      0     26
     bindingAddrMgsHelperFind           2      0     34
       -> AddrMgrEntryLookupNwk         4      0     26
       -> AddrMgrExtAddrSet             4      0     26
       -> AddrMgrEntryLookupExt         4      0     26


   Segment part sizes:

     Function/Label                           Bytes
     --------------                           -----
     bindAddrMgrLocalLoaded                      1
     pbindAddEntry                               2
     pbindNumOfEntries                           2
     pbindRemoveDev                              2
     pBindInitNV                                 2
     pBindSetDefaultNV                           2
     pBindRestoreFromNV                          2
     pBindWriteNV                                2
     InitBindingTable                          118
     ??Subroutine33_0                            5
     ?Subroutine11                               3
     ??Subroutine35_0                            8
     ?Subroutine10                              13
     bindFindEmpty                              64
     ?Subroutine16                               9
     ?Subroutine8                               16
     ??Subroutine38_0                            7
     bindNumOfEntries                           81
     ?Subroutine2                                5
     bindCapacity                               71
     ?Subroutine3                                5
     ??Subroutine34_0                            8
     ?Subroutine19                              13
     ?Subroutine25                              31
     bindAddEntry                              354
     ?Subroutine27                              10
     ?Subroutine12                               3
     ?Subroutine13                              14
     bindRemoveEntry                            17
     bindIsClusterIDinList                      69
     bindRemoveClusterIdFromList               148
     ?Subroutine4                                5
     ?Subroutine30                              15
     bindAddClusterIdToList                     71
     bindFindExisting                          152
     ?Subroutine5                                5
     ?Subroutine23                               9
     ?Subroutine24                              28
     bindRemoveDev                             171
     ?Subroutine22                               9
     ?Subroutine9                               16
     bindRemoveSrcDev                           45
     ?Subroutine15                              30
     bindNumBoundTo                            172
     bindNumReflections                         63
     bindFind                                   96
     ?Subroutine6                                5
     BindInitNV                                 84
     ?Subroutine0                                3
     BindSetDefaultNV                           65
     ?Subroutine32                               8
     BindRestoreFromNV                         165
     ?Subroutine7                                8
     ?Subroutine14                              13
     BindWriteNV                               249
     bindUpdateAddr                            113
     ?Subroutine20                               7
     ?Subroutine29                               8
     bindingAddrMgsHelperFind                   42
     ?Subroutine26                               4
     ??Subroutine36_0                            8
     ?Subroutine1                                2
     ??Subroutine37_0                           13
     ?Subroutine28                               7
     ?Subroutine31                              18
     ?Subroutine21                              23
     ?Subroutine17                              11
     bindingAddrMgsHelperConvert                75
     ?Subroutine18                              11
     bindingAddrMgsHelperConvertShort
                                                30
     bindAddrMgrLocalLoad                      138
     bindAddrIndexGet                          106
     GetBindingTableEntry                       85
     ??InitBindingTable?relay                    6
     ??bindFindEmpty?relay                       6
     ??bindNumOfEntries?relay                    6
     ??bindCapacity?relay                        6
     ??bindAddEntry?relay                        6
     ??bindRemoveEntry?relay                     6
     ??bindIsClusterIDinList?relay               6
     ??bindRemoveClusterIdFromList?relay         6
     ??bindAddClusterIdToList?relay              6
     ??bindFindExisting?relay                    6
     ??bindRemoveDev?relay                       6
     ??bindRemoveSrcDev?relay                    6
     ??bindNumBoundTo?relay                      6
     ??bindNumReflections?relay                  6
     ??bindFind?relay                            6
     ??BindInitNV?relay                          6
     ??BindSetDefaultNV?relay                    6
     ??BindRestoreFromNV?relay                   6
     ??BindWriteNV?relay                         6
     ??bindUpdateAddr?relay                      6
     ??bindingAddrMgsHelperFind?relay            6
     ??bindingAddrMgsHelperConvert?relay         6
     ??bindingAddrMgsHelperConvertShort?relay    6
     ??bindAddrMgrLocalLoad?relay                6
     ??bindAddrIndexGet?relay                    6
     ??GetBindingTableEntry?relay                6

 
 3 260 bytes in segment BANKED_CODE
   156 bytes in segment BANK_RELAYS
    15 bytes in segment XDATA_Z
 
 3 416 bytes of CODE  memory
    15 bytes of XDATA memory

Errors: none
Warnings: none
