###############################################################################
#                                                                             #
# IAR C/C++ Compiler V8.10.1.10194/W32 for 8051         01/Jun/2015  00:49:43 #
# Copyright 2004-2011 IAR Systems AB.                                         #
#                                                                             #
#    Core               =  plain                                              #
#    Code model         =  banked                                             #
#    Data model         =  large                                              #
#    Calling convention =  xdata reentrant                                    #
#    Constant location  =  data_rom                                           #
#    Dptr setup         =  1,16                                               #
#    Source file        =  C:\Texas Instruments\ZStack-CC2530-2.5.1a\Componen #
#                          ts\mt\MT_AF.c                                      #
#    Command line       =  -f "C:\Texas Instruments\ZStack-CC2530-2.5.1a\Proj #
#                          ects\zstack\Samples\WirelessMonitorSystem\CC2530DB #
#                          \..\..\..\Tools\CC2530DB\f8wEndev.cfg"             #
#                          (-DCPU32MHZ -DROOT=__near_func                     #
#                          -DMAC_CFG_TX_DATA_MAX=3 -DMAC_CFG_TX_MAX=6         #
#                          -DMAC_CFG_RX_MAX=3) -f "C:\Texas                   #
#                          Instruments\ZStack-CC2530-2.5.1a\Projects\zstack\S #
#                          amples\WirelessMonitorSystem\CC2530DB\..\..\..\Too #
#                          ls\CC2530DB\f8wConfig.cfg" (-DZIGBEEPRO            #
#                          -DSECURE=0 -DZG_SECURE_DYNAMIC=0 -DREFLECTOR       #
#                          -DDEFAULT_CHANLIST=0x00000800                      #
#                          -DZDAPP_CONFIG_PAN_ID=0xFFFF                       #
#                          -DNWK_START_DELAY=100 -DEXTENDED_JOINING_RANDOM_MA #
#                          SK=0x007F -DBEACON_REQUEST_DELAY=100               #
#                          -DBEACON_REQ_DELAY_MASK=0x00FF                     #
#                          -DLINK_STATUS_JITTER_MASK=0x007F                   #
#                          -DROUTE_EXPIRY_TIME=30 -DAPSC_ACK_WAIT_DURATION_PO #
#                          LLED=3000 -DNWK_INDIRECT_MSG_TIMEOUT=7             #
#                          -DMAX_RREQ_ENTRIES=8 -DAPSC_MAX_FRAME_RETRIES=3    #
#                          -DNWK_MAX_DATA_RETRIES=2                           #
#                          -DMAX_POLL_FAILURE_RETRIES=2 -DMAX_BCAST=9         #
#                          -DAPS_MAX_GROUPS=16 -DMAX_RTG_ENTRIES=40           #
#                          -DNWK_MAX_BINDING_ENTRIES=4                        #
#                          -DMAX_BINDING_CLUSTER_IDS=4 "-DDEFAULT_KEY={0x01,  #
#                          0x03, 0x05, 0x07, 0x09, 0x0B, 0x0D, 0x0F, 0x00,    #
#                          0x02, 0x04, 0x06, 0x08, 0x0A, 0x0C, 0x0D}"         #
#                          -DMAC_MAX_FRAME_SIZE=116                           #
#                          -DZDNWKMGR_MIN_TRANSMISSIONS=20 "-DCONST=const     #
#                          __code" -DGENERIC=__generic                        #
#                          -DRFD_RCVC_ALWAYS_ON=FALSE -DPOLL_RATE=500         #
#                          -DQUEUED_POLL_RATE=30 -DRESPONSE_POLL_RATE=100)    #
#                          -DREJOIN_POLL_RATE=440 "C:\Texas                   #
#                          Instruments\ZStack-CC2530-2.5.1a\Components\mt\MT_ #
#                          AF.c" -D HAL_UART -D xOCM_CLK_PORT=0 -D            #
#                          xOCM_CLK_PIN=7 -D xOCM_DATA_PORT=0 -D              #
#                          xOCM_DATA_PIN=6 -lC "C:\Texas                      #
#                          Instruments\ZStack-CC2530-2.5.1a\Projects\zstack\S #
#                          amples\WirelessMonitorSystem\CC2530DB\Vibrate\List #
#                          \" -lA "C:\Texas Instruments\ZStack-CC2530-2.5.1a\ #
#                          Projects\zstack\Samples\WirelessMonitorSystem\CC25 #
#                          30DB\Vibrate\List\" --diag_suppress Pe001,Pa010    #
#                          -o "C:\Texas Instruments\ZStack-CC2530-2.5.1a\Proj #
#                          ects\zstack\Samples\WirelessMonitorSystem\CC2530DB #
#                          \Vibrate\Obj\" -e --debug --core=plain             #
#                          --dptr=16,1 --data_model=large                     #
#                          --code_model=banked --calling_convention=xdata_ree #
#                          ntrant --place_constants=data_rom                  #
#                          --nr_virtual_regs 16 -I "C:\Texas                  #
#                          Instruments\ZStack-CC2530-2.5.1a\Projects\zstack\S #
#                          amples\WirelessMonitorSystem\CC2530DB\" -I         #
#                          "C:\Texas Instruments\ZStack-CC2530-2.5.1a\Project #
#                          s\zstack\Samples\WirelessMonitorSystem\CC2530DB\.. #
#                          \Source\" -I "C:\Texas Instruments\ZStack-CC2530-2 #
#                          .5.1a\Projects\zstack\Samples\WirelessMonitorSyste #
#                          m\CC2530DB\..\..\..\ZMain\TI2530DB\" -I "C:\Texas  #
#                          Instruments\ZStack-CC2530-2.5.1a\Projects\zstack\S #
#                          amples\WirelessMonitorSystem\CC2530DB\..\..\..\..\ #
#                          ..\Components\hal\include\" -I "C:\Texas           #
#                          Instruments\ZStack-CC2530-2.5.1a\Projects\zstack\S #
#                          amples\WirelessMonitorSystem\CC2530DB\..\..\..\..\ #
#                          ..\Components\hal\target\CC2530EB\" -I "C:\Texas   #
#                          Instruments\ZStack-CC2530-2.5.1a\Projects\zstack\S #
#                          amples\WirelessMonitorSystem\CC2530DB\..\..\..\..\ #
#                          ..\Components\mac\include\" -I "C:\Texas           #
#                          Instruments\ZStack-CC2530-2.5.1a\Projects\zstack\S #
#                          amples\WirelessMonitorSystem\CC2530DB\..\..\..\..\ #
#                          ..\Components\mac\high_level\" -I "C:\Texas        #
#                          Instruments\ZStack-CC2530-2.5.1a\Projects\zstack\S #
#                          amples\WirelessMonitorSystem\CC2530DB\..\..\..\..\ #
#                          ..\Components\mac\low_level\srf04\" -I "C:\Texas   #
#                          Instruments\ZStack-CC2530-2.5.1a\Projects\zstack\S #
#                          amples\WirelessMonitorSystem\CC2530DB\..\..\..\..\ #
#                          ..\Components\mac\low_level\srf04\single_chip\"    #
#                          -I "C:\Texas Instruments\ZStack-CC2530-2.5.1a\Proj #
#                          ects\zstack\Samples\WirelessMonitorSystem\CC2530DB #
#                          \..\..\..\..\..\Components\mt\" -I "C:\Texas       #
#                          Instruments\ZStack-CC2530-2.5.1a\Projects\zstack\S #
#                          amples\WirelessMonitorSystem\CC2530DB\..\..\..\..\ #
#                          ..\Components\osal\include\" -I "C:\Texas          #
#                          Instruments\ZStack-CC2530-2.5.1a\Projects\zstack\S #
#                          amples\WirelessMonitorSystem\CC2530DB\..\..\..\..\ #
#                          ..\Components\services\saddr\" -I "C:\Texas        #
#                          Instruments\ZStack-CC2530-2.5.1a\Projects\zstack\S #
#                          amples\WirelessMonitorSystem\CC2530DB\..\..\..\..\ #
#                          ..\Components\services\sdata\" -I "C:\Texas        #
#                          Instruments\ZStack-CC2530-2.5.1a\Projects\zstack\S #
#                          amples\WirelessMonitorSystem\CC2530DB\..\..\..\..\ #
#                          ..\Components\stack\af\" -I "C:\Texas              #
#                          Instruments\ZStack-CC2530-2.5.1a\Projects\zstack\S #
#                          amples\WirelessMonitorSystem\CC2530DB\..\..\..\..\ #
#                          ..\Components\stack\nwk\" -I "C:\Texas             #
#                          Instruments\ZStack-CC2530-2.5.1a\Projects\zstack\S #
#                          amples\WirelessMonitorSystem\CC2530DB\..\..\..\..\ #
#                          ..\Components\stack\sapi\" -I "C:\Texas            #
#                          Instruments\ZStack-CC2530-2.5.1a\Projects\zstack\S #
#                          amples\WirelessMonitorSystem\CC2530DB\..\..\..\..\ #
#                          ..\Components\stack\sec\" -I "C:\Texas             #
#                          Instruments\ZStack-CC2530-2.5.1a\Projects\zstack\S #
#                          amples\WirelessMonitorSystem\CC2530DB\..\..\..\..\ #
#                          ..\Components\stack\sys\" -I "C:\Texas             #
#                          Instruments\ZStack-CC2530-2.5.1a\Projects\zstack\S #
#                          amples\WirelessMonitorSystem\CC2530DB\..\..\..\..\ #
#                          ..\Components\stack\zdo\" -I "C:\Texas             #
#                          Instruments\ZStack-CC2530-2.5.1a\Projects\zstack\S #
#                          amples\WirelessMonitorSystem\CC2530DB\..\..\..\..\ #
#                          ..\Components\zmac\" -I "C:\Texas                  #
#                          Instruments\ZStack-CC2530-2.5.1a\Projects\zstack\S #
#                          amples\WirelessMonitorSystem\CC2530DB\..\..\..\..\ #
#                          ..\Components\zmac\f8w\" -Ohz --require_prototypes #
#    List file          =  C:\Texas Instruments\ZStack-CC2530-2.5.1a\Projects #
#                          \zstack\Samples\WirelessMonitorSystem\CC2530DB\Vib #
#                          rate\List\MT_AF.lst                                #
#    Object file        =  C:\Texas Instruments\ZStack-CC2530-2.5.1a\Projects #
#                          \zstack\Samples\WirelessMonitorSystem\CC2530DB\Vib #
#                          rate\Obj\MT_AF.r51                                 #
#                                                                             #
#                                                                             #
###############################################################################

C:\Texas Instruments\ZStack-CC2530-2.5.1a\Components\mt\MT_AF.c
      1          /**************************************************************************************************
      2            Filename:       MT_AF.c
      3            Revised:        $Date: 2011-05-27 16:00:27 -0700 (Fri, 27 May 2011) $
      4            Revision:       $Revision: 26145 $
      5          
      6          
      7            Description:    MonitorTest functions for the AF layer.
      8          
      9          
     10            Copyright 2007-2011 Texas Instruments Incorporated. All rights reserved.
     11          
     12            IMPORTANT: Your use of this Software is limited to those specific rights
     13            granted under the terms of a software license agreement between the user
     14            who downloaded the software, his/her employer (which must be your employer)
     15            and Texas Instruments Incorporated (the "License").  You may not use this
     16            Software unless you agree to abide by the terms of the License. The License
     17            limits your use, and you acknowledge, that the Software may not be modified,
     18            copied or distributed unless embedded on a Texas Instruments microcontroller
     19            or used solely and exclusively in conjunction with a Texas Instruments radio
     20            frequency transceiver, which is integrated into your product.  Other than for
     21            the foregoing purpose, you may not use, reproduce, copy, prepare derivative
     22            works of, modify, distribute, perform, display or sell this Software and/or
     23            its documentation for any purpose.
     24          
     25            YOU FURTHER ACKNOWLEDGE AND AGREE THAT THE SOFTWARE AND DOCUMENTATION ARE
     26            PROVIDED “AS IS” WITHOUT WARRANTY OF ANY KIND, EITHER EXPRESS OR IMPLIED,
     27            INCLUDING WITHOUT LIMITATION, ANY WARRANTY OF MERCHANTABILITY, TITLE,
     28            NON-INFRINGEMENT AND FITNESS FOR A PARTICULAR PURPOSE. IN NO EVENT SHALL
     29            TEXAS INSTRUMENTS OR ITS LICENSORS BE LIABLE OR OBLIGATED UNDER CONTRACT,
     30            NEGLIGENCE, STRICT LIABILITY, CONTRIBUTION, BREACH OF WARRANTY, OR OTHER
     31            LEGAL EQUITABLE THEORY ANY DIRECT OR INDIRECT DAMAGES OR EXPENSES
     32            INCLUDING BUT NOT LIMITED TO ANY INCIDENTAL, SPECIAL, INDIRECT, PUNITIVE
     33            OR CONSEQUENTIAL DAMAGES, LOST PROFITS OR LOST DATA, COST OF PROCUREMENT
     34            OF SUBSTITUTE GOODS, TECHNOLOGY, SERVICES, OR ANY CLAIMS BY THIRD PARTIES
     35            (INCLUDING BUT NOT LIMITED TO ANY DEFENSE THEREOF), OR OTHER SIMILAR COSTS.
     36          
     37            Should you have any questions regarding your right to use this Software,
     38            contact Texas Instruments Incorporated at www.TI.com.
     39          
     40          **************************************************************************************************/
     41          
     42          /* ------------------------------------------------------------------------------------------------
     43           *                                          Includes
     44           * ------------------------------------------------------------------------------------------------
     45           */
     46          #include "ZComDef.h"
     47          #include "OSAL.h"
     48          #include "MT.h"
     49          #include "MT_AF.h"
     50          #include "MT_ZDO.h"
     51          #include "nwk.h"
     52          #include "OnBoard.h"
     53          #include "MT_UART.h"
     54          
     55          #if defined INTER_PAN
     56          #include "stub_aps.h"
     57          #endif
     58          
     59          /* ------------------------------------------------------------------------------------------------
     60           *                                          Constants
     61           * ------------------------------------------------------------------------------------------------
     62           */
     63          
     64          #if !defined MT_AF_EXEC_CNT
     65          #define MT_AF_EXEC_CNT  15
     66          #endif
     67          
     68          #if !defined MT_AF_EXEC_DLY
     69          #define MT_AF_EXEC_DLY  1000
     70          #endif
     71          
     72          /* ------------------------------------------------------------------------------------------------
     73           *                                           Typedefs
     74           * ------------------------------------------------------------------------------------------------
     75           */
     76          
     77          typedef struct
     78          {
     79            uint8 *data;
     80            afAddrType_t dstAddr;
     81            endPointDesc_t *epDesc;
     82            uint16 cId;
     83            uint16 dataLen;
     84            uint8 transId;
     85            uint8 txOpts;
     86            uint8 radius;
     87            uint8 tick;
     88          } mtAfDataReq_t;
     89          
     90          typedef struct _mtAfInMsgList_t
     91          {
     92            struct _mtAfInMsgList_t *next;
     93            uint8 *data;
     94            uint32 timestamp;         // Receipt timestamp from MAC.
     95            uint8 tick;
     96          } mtAfInMsgList_t;
     97          
     98          /* ------------------------------------------------------------------------------------------------
     99           *                                        Local Variables
    100           * ------------------------------------------------------------------------------------------------
    101           */
    102          

   \                                 In  segment XDATA_Z, align 1, keep-with-next
    103          mtAfInMsgList_t *pMtAfInMsgList = NULL;
   \                     pMtAfInMsgList:
   \   000000                DS 2
   \   000002                REQUIRE __INIT_XDATA_Z

   \                                 In  segment XDATA_Z, align 1, keep-with-next
    104          mtAfDataReq_t *pMtAfDataReq = NULL;
   \                     pMtAfDataReq:
   \   000000                DS 2
   \   000002                REQUIRE __INIT_XDATA_Z
    105          
    106          /* ------------------------------------------------------------------------------------------------
    107           *                                        Global Variables
    108           * ------------------------------------------------------------------------------------------------
    109           */
    110          
    111          #if defined ( MT_AF_CB_FUNC )
    112          uint16 _afCallbackSub;
    113          #endif
    114          
    115          /* ------------------------------------------------------------------------------------------------
    116           *                                        Local Functions
    117           * ------------------------------------------------------------------------------------------------
    118           */
    119          
    120          void MT_AfRegister(uint8 *pBuf);
    121          void MT_AfDataRequest(uint8 *pBuf);
    122          
    123          #if defined ( ZIGBEE_SOURCE_ROUTING )
    124          void MT_AfDataRequestSrcRtg(uint8 *pBuf);
    125          #endif
    126          
    127          #if defined INTER_PAN
    128          static void MT_AfInterPanCtl(uint8 *pBuf);
    129          #endif
    130          
    131          static void MT_AfDataRetrieve(uint8 *pBuf);
    132          static void MT_AfDataStore(uint8 *pBuf);
    133          static void MT_AfAPSF_ConfigSet(uint8 *pBuf);
    134          
    135          /**************************************************************************************************
    136           * @fn          MT_AfExec
    137           *
    138           * @brief       This function is invoked by an MT timer event.
    139           *
    140           * input parameters
    141           *
    142           * None.
    143           *
    144           * output parameters
    145           *
    146           * None.
    147           *
    148           * @return      None.
    149           **************************************************************************************************
    150           */

   \                                 In  segment BANKED_CODE, align 1, keep-with-next
    151          void MT_AfExec(void)
   \                     MT_AfExec:
    152          {
   \   000000   74F7         MOV     A,#-0x9
   \   000002   12....       LCALL   ?BANKED_ENTER_XDATA
   \   000005                ; Saved register size: 9
   \   000005                ; Auto size: 0
    153            mtAfInMsgList_t *pPrev, *pItem = pMtAfInMsgList;
   \                     ??MT_AfExec_0:
   \   000005   12....       LCALL   ?Subroutine42 & 0xFFFF
   \                     ??CrossCallReturnLabel_96:
   \   000008   8007         SJMP    ??MT_AfExec_1
    154          
    155            while (pItem != NULL)
    156            {
    157              if (--(pItem->tick) == 0)
    158              {
    159                if (pMtAfInMsgList == pItem)
    160                {
    161                  pMtAfInMsgList = pItem->next;
    162                  (void)osal_mem_free(pItem);
    163                  pItem = pMtAfInMsgList;
    164                }
    165                else
    166                {
    167                  pPrev->next = pItem->next;
    168                  (void)osal_mem_free(pItem);
    169                  pItem = pPrev->next;
    170                }
    171              }
    172              else
    173              {
    174                pPrev = pItem;
   \                     ??MT_AfExec_2:
   \   00000A   EA           MOV     A,R2
   \   00000B   FE           MOV     R6,A
   \   00000C   EB           MOV     A,R3
   \   00000D   FF           MOV     R7,A
    175                pItem = pItem->next;
   \   00000E   E8           MOV     A,R0
   \   00000F   FA           MOV     R2,A
   \   000010   E9           MOV     A,R1
   \                     ??MT_AfExec_1:
   \   000011   FB           MOV     R3,A
    176              }
   \   000012   EA           MOV     A,R2
   \   000013   4B           ORL     A,R3
   \   000014   6049         JZ      ??MT_AfExec_3
   \   000016   EA           MOV     A,R2
   \   000017   2408         ADD     A,#0x8
   \   000019   F8           MOV     R0,A
   \   00001A   EB           MOV     A,R3
   \   00001B   3400         ADDC    A,#0x0
   \   00001D   F9           MOV     R1,A
   \   00001E   E8           MOV     A,R0
   \   00001F   FC           MOV     R4,A
   \   000020   E9           MOV     A,R1
   \   000021   FD           MOV     R5,A
   \   000022   8C82         MOV     DPL,R4
   \   000024   8D83         MOV     DPH,R5
   \   000026   E0           MOVX    A,@DPTR
   \   000027   14           DEC     A
   \   000028   F0           MOVX    @DPTR,A
   \   000029   8A82         MOV     DPL,R2
   \   00002B   8B83         MOV     DPH,R3
   \   00002D   12....       LCALL   ?Subroutine37 & 0xFFFF
   \                     ??CrossCallReturnLabel_80:
   \   000030   8C82         MOV     DPL,R4
   \   000032   8D83         MOV     DPH,R5
   \   000034   E0           MOVX    A,@DPTR
   \   000035   70D3         JNZ     ??MT_AfExec_2
   \   000037   90....       MOV     DPTR,#pMtAfInMsgList
   \   00003A   E0           MOVX    A,@DPTR
   \   00003B   FC           MOV     R4,A
   \   00003C   A3           INC     DPTR
   \   00003D   E0           MOVX    A,@DPTR
   \   00003E   FD           MOV     R5,A
   \   00003F   EA           MOV     A,R2
   \   000040   6C           XRL     A,R4
   \   000041   7002         JNZ     ??MT_AfExec_4
   \   000043   EB           MOV     A,R3
   \   000044   6D           XRL     A,R5
   \                     ??MT_AfExec_4:
   \   000045   7008         JNZ     ??MT_AfExec_5
   \   000047   90....       MOV     DPTR,#pMtAfInMsgList
   \   00004A   12....       LCALL   ?Subroutine30 & 0xFFFF
   \                     ??CrossCallReturnLabel_43:
   \   00004D   80B6         SJMP    ??MT_AfExec_0
   \                     ??MT_AfExec_5:
   \   00004F   8E82         MOV     DPL,R6
   \   000051   8F83         MOV     DPH,R7
   \   000053   12....       LCALL   ?Subroutine30 & 0xFFFF
   \                     ??CrossCallReturnLabel_44:
   \   000056   8E82         MOV     DPL,R6
   \   000058   8F83         MOV     DPH,R7
   \   00005A   12....       LCALL   ??Subroutine53_0 & 0xFFFF
    177            }
   \                     ??CrossCallReturnLabel_93:
   \   00005D   80B2         SJMP    ??MT_AfExec_1
    178          
    179            if (pMtAfDataReq != NULL)
   \                     ??MT_AfExec_3:
   \   00005F   12....       LCALL   ?Subroutine4 & 0xFFFF
   \                     ??CrossCallReturnLabel_75:
   \   000062   600E         JZ      ??MT_AfExec_6
    180            {
    181              if (--(pMtAfDataReq->tick) == 0)
   \   000064   12....       LCALL   ?Subroutine5 & 0xFFFF
   \                     ??CrossCallReturnLabel_61:
   \   000067   14           DEC     A
   \   000068   F0           MOVX    @DPTR,A
   \   000069   12....       LCALL   ?Subroutine5 & 0xFFFF
   \                     ??CrossCallReturnLabel_62:
   \   00006C   7004         JNZ     ??MT_AfExec_6
    182              {
    183                (void)osal_mem_free(pMtAfDataReq);
   \   00006E                ; Setup parameters for call to function osal_mem_free
   \   00006E   12....       LCALL   ?Subroutine9 & 0xFFFF
    184                pMtAfDataReq = NULL;
    185              }
    186            }
   \                     ??CrossCallReturnLabel_6:
   \   000071   F0           MOVX    @DPTR,A
    187          
    188            if ((pMtAfInMsgList != NULL) || (pMtAfDataReq != NULL))
   \                     ??MT_AfExec_6:
   \   000072   90....       MOV     DPTR,#pMtAfInMsgList
   \   000075   12....       LCALL   ??Subroutine49_0 & 0xFFFF
   \                     ??CrossCallReturnLabel_74:
   \   000078   7005         JNZ     ??MT_AfExec_7
   \   00007A   12....       LCALL   ?Subroutine4 & 0xFFFF
   \                     ??CrossCallReturnLabel_76:
   \   00007D   6008         JZ      ??CrossCallReturnLabel_16
    189            {
    190              if (ZSuccess != osal_start_timerEx(MT_TaskID, MT_AF_EXEC_EVT, MT_AF_EXEC_DLY))
   \                     ??MT_AfExec_7:
   \   00007F                ; Setup parameters for call to function osal_start_timerEx
   \   00007F   12....       LCALL   ??Subroutine48_0 & 0xFFFF
   \                     ??CrossCallReturnLabel_73:
   \   000082   6003         JZ      ??CrossCallReturnLabel_16
    191              {
    192                osal_set_event(MT_TaskID, MT_AF_EXEC_EVT);
   \   000084                ; Setup parameters for call to function osal_set_event
   \   000084   12....       LCALL   ?Subroutine16 & 0xFFFF
    193              }
    194            }
    195          }
   \                     ??CrossCallReturnLabel_16:
   \   000087                REQUIRE ?Subroutine0
   \   000087                ; // Fall through to label ?Subroutine0

   \                                 In  segment BANKED_CODE, align 1, keep-with-next
   \                     ?Subroutine0:
   \   000000   7F01         MOV     R7,#0x1
   \   000002   02....       LJMP    ?BANKED_LEAVE_XDATA

   \                                 In  segment BANKED_CODE, align 1, keep-with-next
   \                     ?Subroutine30:
   \   000000   E8           MOV     A,R0
   \   000001   F0           MOVX    @DPTR,A
   \   000002   A3           INC     DPTR
   \   000003   E9           MOV     A,R1
   \   000004   F0           MOVX    @DPTR,A
   \   000005                ; Setup parameters for call to function osal_mem_free
   \   000005                ; Setup parameters for call to function osal_mem_free
   \   000005   12....       LCALL   ??osal_mem_free?relay
   \   000008   22           RET

   \                                 In  segment BANKED_CODE, align 1, keep-with-next
   \                     ?Subroutine5:
   \   000000   90....       MOV     DPTR,#pMtAfDataReq
   \   000003   E0           MOVX    A,@DPTR
   \   000004   2417         ADD     A,#0x17
   \   000006                REQUIRE ??Subroutine45_0
   \   000006                ; // Fall through to label ??Subroutine45_0

   \                                 In  segment BANKED_CODE, align 1, keep-with-next
   \                     ??Subroutine45_0:
   \   000000   12....       LCALL   ?Subroutine38 & 0xFFFF
   \                     ??CrossCallReturnLabel_129:
   \   000003   E0           MOVX    A,@DPTR
   \   000004   22           RET

   \                                 In  segment BANKED_CODE, align 1, keep-with-next
   \                     ?Subroutine16:
   \   000000   7A08         MOV     R2,#0x8
   \   000002   7B00         MOV     R3,#0x0
   \   000004   90....       MOV     DPTR,#MT_TaskID
   \   000007   E0           MOVX    A,@DPTR
   \   000008   F9           MOV     R1,A
   \   000009   12....       LCALL   ??osal_set_event?relay
   \   00000C   22           RET

   \                                 In  segment BANKED_CODE, align 1, keep-with-next
   \                     ??Subroutine48_0:
   \   000000   7CE8         MOV     R4,#-0x18
   \   000002   7D03         MOV     R5,#0x3
   \   000004   7A08         MOV     R2,#0x8
   \   000006   7B00         MOV     R3,#0x0
   \   000008   90....       MOV     DPTR,#MT_TaskID
   \   00000B   E0           MOVX    A,@DPTR
   \   00000C   F9           MOV     R1,A
   \   00000D   12....       LCALL   ??osal_start_timerEx?relay
   \   000010   E9           MOV     A,R1
   \   000011   22           RET

   \                                 In  segment BANKED_CODE, align 1, keep-with-next
   \                     ?Subroutine4:
   \   000000   90....       MOV     DPTR,#pMtAfDataReq
   \   000003                REQUIRE ??Subroutine49_0
   \   000003                ; // Fall through to label ??Subroutine49_0

   \                                 In  segment BANKED_CODE, align 1, keep-with-next
   \                     ??Subroutine49_0:
   \   000000   12....       LCALL   ?Subroutine37 & 0xFFFF
   \                     ??CrossCallReturnLabel_83:
   \   000003   E8           MOV     A,R0
   \   000004   49           ORL     A,R1
   \   000005   22           RET

   \                                 In  segment BANKED_CODE, align 1, keep-with-next
   \                     ??Subroutine52_0:
   \   000000   3400         ADDC    A,#0x0
   \   000002   F9           MOV     R1,A
   \   000003   8882         MOV     DPL,R0
   \   000005   8983         MOV     DPH,R1
   \   000007   22           RET

   \                                 In  segment BANKED_CODE, align 1, keep-with-next
   \                     ?Subroutine42:
   \   000000   90....       MOV     DPTR,#pMtAfInMsgList
   \   000003                REQUIRE ??Subroutine53_0
   \   000003                ; // Fall through to label ??Subroutine53_0

   \                                 In  segment BANKED_CODE, align 1, keep-with-next
   \                     ??Subroutine53_0:
   \   000000   E0           MOVX    A,@DPTR
   \   000001   FA           MOV     R2,A
   \   000002   A3           INC     DPTR
   \   000003   E0           MOVX    A,@DPTR
   \   000004   22           RET

   \                                 In  segment BANKED_CODE, align 1, keep-with-next
   \                     ?Subroutine37:
   \   000000   E0           MOVX    A,@DPTR
   \   000001   F8           MOV     R0,A
   \   000002   A3           INC     DPTR
   \   000003   E0           MOVX    A,@DPTR
   \   000004   F9           MOV     R1,A
   \   000005   22           RET

   \                                 In  segment BANKED_CODE, align 1, keep-with-next
   \                     ?Subroutine9:
   \   000000   90....       MOV     DPTR,#pMtAfDataReq
   \   000003   12....       LCALL   ??Subroutine53_0 & 0xFFFF
   \                     ??CrossCallReturnLabel_95:
   \   000006   FB           MOV     R3,A
   \   000007   12....       LCALL   ??osal_mem_free?relay
   \   00000A   90....       MOV     DPTR,#pMtAfDataReq
   \   00000D   E4           CLR     A
   \   00000E   F0           MOVX    @DPTR,A
   \   00000F   A3           INC     DPTR
   \   000010   22           RET

   \                                 In  segment BANKED_CODE, align 1, keep-with-next
   \                     ?Subroutine38:
   \   000000   F8           MOV     R0,A
   \   000001   A3           INC     DPTR
   \   000002   E0           MOVX    A,@DPTR
   \   000003   12....       LCALL   ??Subroutine52_0 & 0xFFFF
   \                     ??CrossCallReturnLabel_133:
   \   000006   22           RET
    196          
    197          /***************************************************************************************************
    198           * @fn      MT_AfCommandProcessing
    199           *
    200           * @brief   Process all the AF commands that are issued by test tool
    201           *
    202           * @param   pBuf - pointer to the received buffer
    203           *
    204           * @return  status
    205           ***************************************************************************************************/

   \                                 In  segment BANKED_CODE, align 1, keep-with-next
    206          uint8 MT_AfCommandProcessing(uint8 *pBuf)
   \                     MT_AfCommandProcessing:
    207          {
   \   000000   74F7         MOV     A,#-0x9
   \   000002   12....       LCALL   ?BANKED_ENTER_XDATA
   \   000005                ; Saved register size: 9
   \   000005                ; Auto size: 3
   \   000005   74FD         MOV     A,#-0x3
   \   000007   12....       LCALL   ?ALLOC_XSTACK8
   \   00000A   EA           MOV     A,R2
   \   00000B   F8           MOV     R0,A
   \   00000C   EB           MOV     A,R3
   \   00000D   F9           MOV     R1,A
    208            uint8 status = MT_RPC_SUCCESS;
   \   00000E   7E00         MOV     R6,#0x0
    209          
    210            switch (pBuf[MT_RPC_POS_CMD1])
   \   000010   8882         MOV     DPL,R0
   \   000012   8983         MOV     DPH,R1
   \   000014   A3           INC     DPTR
   \   000015   A3           INC     DPTR
   \   000016   E0           MOVX    A,@DPTR
   \   000017   6015         JZ      ??MT_AfCommandProcessing_0
   \   000019   14           DEC     A
   \   00001A   6017         JZ      ??MT_AfCommandProcessing_1
   \   00001C   14           DEC     A
   \   00001D   6014         JZ      ??MT_AfCommandProcessing_1
   \   00001F   14           DEC     A
   \   000020   6016         JZ      ??MT_AfCommandProcessing_2
   \   000022   24F2         ADD     A,#-0xe
   \   000024   601C         JZ      ??MT_AfCommandProcessing_3
   \   000026   14           DEC     A
   \   000027   6014         JZ      ??MT_AfCommandProcessing_4
   \   000029   14           DEC     A
   \   00002A   601B         JZ      ??MT_AfCommandProcessing_5
   \   00002C   806C         SJMP    ??MT_AfCommandProcessing_6
    211            {
    212              case MT_AF_REGISTER:
    213                MT_AfRegister(pBuf);
   \                     ??MT_AfCommandProcessing_0:
   \   00002E                ; Setup parameters for call to function MT_AfRegister
   \   00002E   12....       LCALL   ??MT_AfRegister?relay
    214                break;
   \   000031   8069         SJMP    ??MT_AfCommandProcessing_7
    215          
    216              case MT_AF_DATA_REQUEST:
    217              case MT_AF_DATA_REQUEST_EXT:
    218                MT_AfDataRequest(pBuf);
   \                     ??MT_AfCommandProcessing_1:
   \   000033                ; Setup parameters for call to function MT_AfDataRequest
   \   000033   12....       LCALL   ??MT_AfDataRequest?relay
    219                break;
   \   000036   8064         SJMP    ??MT_AfCommandProcessing_7
    220          
    221          #if defined ( ZIGBEE_SOURCE_ROUTING )
    222              case MT_AF_DATA_REQUEST_SRCRTG:
    223                MT_AfDataRequestSrcRtg(pBuf);
   \                     ??MT_AfCommandProcessing_2:
   \   000038                ; Setup parameters for call to function MT_AfDataRequestSrcRtg
   \   000038   12....       LCALL   ??MT_AfDataRequestSrcRtg?relay
    224                break;
   \   00003B   805F         SJMP    ??MT_AfCommandProcessing_7
    225          #endif
    226          
    227          #if defined INTER_PAN
    228              case MT_AF_INTER_PAN_CTL:
    229                MT_AfInterPanCtl(pBuf);
    230                break;
    231          #endif
    232          
    233              case MT_AF_DATA_RETRIEVE:
    234                MT_AfDataRetrieve(pBuf);
   \                     ??MT_AfCommandProcessing_4:
   \   00003D                ; Setup parameters for call to function MT_AfDataRetrieve
   \   00003D   12....       LCALL   ??MT_AfDataRetrieve?relay
    235                break;
   \   000040   805A         SJMP    ??MT_AfCommandProcessing_7
    236          
    237              case MT_AF_DATA_STORE:
    238                MT_AfDataStore(pBuf);
   \                     ??MT_AfCommandProcessing_3:
   \   000042                ; Setup parameters for call to function MT_AfDataStore
   \   000042   12....       LCALL   ??MT_AfDataStore?relay
    239                break;
   \   000045   8055         SJMP    ??MT_AfCommandProcessing_7
    240          
    241              case MT_AF_APSF_CONFIG_SET:
    242                MT_AfAPSF_ConfigSet(pBuf);
   \                     ??MT_AfCommandProcessing_5:
   \   000047   8882         MOV     DPL,R0
   \   000049   8983         MOV     DPH,R1
   \   00004B   A3           INC     DPTR
   \   00004C   A3           INC     DPTR
   \   00004D   A3           INC     DPTR
   \   00004E   A3           INC     DPTR
   \   00004F   E0           MOVX    A,@DPTR
   \   000050   C0E0         PUSH    A
   \   000052   7401         MOV     A,#0x1
   \   000054   12....       LCALL   ?XSTACK_DISP0_8
   \   000057   D0E0         POP     A
   \   000059   F0           MOVX    @DPTR,A
   \   00005A   8882         MOV     DPL,R0
   \   00005C   8983         MOV     DPH,R1
   \   00005E   A3           INC     DPTR
   \   00005F   A3           INC     DPTR
   \   000060   A3           INC     DPTR
   \   000061   A3           INC     DPTR
   \   000062   A3           INC     DPTR
   \   000063   E0           MOVX    A,@DPTR
   \   000064   C0E0         PUSH    A
   \   000066   7402         MOV     A,#0x2
   \   000068   12....       LCALL   ?XSTACK_DISP0_8
   \   00006B   D0E0         POP     A
   \   00006D   F0           MOVX    @DPTR,A
   \   00006E                ; Setup parameters for call to function afAPSF_ConfigSet
   \   00006E   7401         MOV     A,#0x1
   \   000070   12....       LCALL   ?XSTACK_DISP0_8
   \   000073   AA82         MOV     R2,DPL
   \   000075   AB83         MOV     R3,DPH
   \   000077   8882         MOV     DPL,R0
   \   000079   8983         MOV     DPH,R1
   \   00007B   A3           INC     DPTR
   \   00007C   A3           INC     DPTR
   \   00007D   A3           INC     DPTR
   \   00007E   E0           MOVX    A,@DPTR
   \   00007F   F9           MOV     R1,A
   \   000080   12....       LCALL   ??afAPSF_ConfigSet?relay
   \   000083   E9           MOV     A,R1
   \   000084   85..82       MOV     DPL,?XSP + 0
   \   000087   85..83       MOV     DPH,?XSP + 1
   \   00008A   F0           MOVX    @DPTR,A
   \   00008B                ; Setup parameters for call to function MT_BuildAndSendZToolResponse
   \   00008B   AC82         MOV     R4,DPL
   \   00008D   AD83         MOV     R5,DPH
   \   00008F   7B01         MOV     R3,#0x1
   \   000091   7A13         MOV     R2,#0x13
   \   000093   7964         MOV     R1,#0x64
   \   000095   12....       LCALL   ??MT_BuildAndSendZToolResponse?relay
    243                break;
   \   000098   8002         SJMP    ??MT_AfCommandProcessing_7
    244          
    245              default:
    246                status = MT_RPC_ERR_COMMAND_ID;
   \                     ??MT_AfCommandProcessing_6:
   \   00009A   0E           INC     R6
   \   00009B   0E           INC     R6
    247                break;
    248            }
    249          
    250            return status;
   \                     ??MT_AfCommandProcessing_7:
   \   00009C   EE           MOV     A,R6
   \   00009D   F9           MOV     R1,A
   \   00009E   7403         MOV     A,#0x3
   \   0000A0   12....       LCALL   ?DEALLOC_XSTACK8
   \   0000A3   02....       LJMP    ?Subroutine0 & 0xFFFF
    251          }
    252          
    253          /***************************************************************************************************
    254           * @fn      MT_AfRegister
    255           *
    256           * @brief   Process AF Register command
    257           *
    258           * @param   pBuf - pointer to the received buffer
    259           *
    260           * @return  none
    261           ***************************************************************************************************/

   \                                 In  segment BANKED_CODE, align 1, keep-with-next
    262          void MT_AfRegister(uint8 *pBuf)
   \                     MT_AfRegister:
    263          {
   \   000000   74F2         MOV     A,#-0xe
   \   000002   12....       LCALL   ?BANKED_ENTER_XDATA
   \   000005                ; Saved register size: 14
   \   000005                ; Auto size: 1
   \   000005   74FF         MOV     A,#-0x1
   \   000007   12....       LCALL   ?ALLOC_XSTACK8
   \   00000A   8A..         MOV     ?V0 + 0,R2
   \   00000C   8B..         MOV     ?V0 + 1,R3
    264            uint8 cmdId;
    265            uint8 retValue = ZMemError;
   \   00000E   85..82       MOV     DPL,?XSP + 0
   \   000011   85..83       MOV     DPH,?XSP + 1
   \   000014   7410         MOV     A,#0x10
   \   000016   12....       LCALL   ?Subroutine28 & 0xFFFF
    266            endPointDesc_t *epDesc;
    267          
    268            /* parse header */
    269            cmdId = pBuf[MT_RPC_POS_CMD1];
   \                     ??CrossCallReturnLabel_38:
   \   000019   F5..         MOV     ?V0 + 2,A
    270            pBuf += MT_RPC_FRAME_HDR_SZ;
    271          
    272            epDesc = (endPointDesc_t *)osal_mem_alloc(sizeof(endPointDesc_t));
   \   00001B                ; Setup parameters for call to function osal_mem_alloc
   \   00001B   7A06         MOV     R2,#0x6
   \   00001D   7B00         MOV     R3,#0x0
   \   00001F   12....       LCALL   ??osal_mem_alloc?relay
   \   000022   8A..         MOV     ?V0 + 4,R2
   \   000024   8B..         MOV     ?V0 + 5,R3
   \   000026   AE..         MOV     R6,?V0 + 4
   \   000028   AF..         MOV     R7,?V0 + 5
    273            if ( epDesc )
   \   00002A   EE           MOV     A,R6
   \   00002B   4F           ORL     A,R7
   \   00002C   6040         JZ      ??MT_AfRegister_0
    274            {
    275              epDesc->task_id = &MT_TaskID;
   \   00002E   8E82         MOV     DPL,R6
   \   000030   8F83         MOV     DPH,R7
   \   000032   A3           INC     DPTR
   \   000033   74..         MOV     A,#MT_TaskID & 0xff
   \   000035   F0           MOVX    @DPTR,A
   \   000036   A3           INC     DPTR
   \   000037   74..         MOV     A,#(MT_TaskID >> 8) & 0xff
   \   000039   F0           MOVX    @DPTR,A
    276              retValue = MT_BuildEndpointDesc( pBuf, epDesc );
   \   00003A                ; Setup parameters for call to function MT_BuildEndpointDesc
   \   00003A   EE           MOV     A,R6
   \   00003B   FC           MOV     R4,A
   \   00003C   EF           MOV     A,R7
   \   00003D   FD           MOV     R5,A
   \   00003E   E5..         MOV     A,?V0 + 0
   \   000040   2403         ADD     A,#0x3
   \   000042   FA           MOV     R2,A
   \   000043   E5..         MOV     A,?V0 + 1
   \   000045   3400         ADDC    A,#0x0
   \   000047   FB           MOV     R3,A
   \   000048   12....       LCALL   ??MT_BuildEndpointDesc?relay
   \   00004B   E9           MOV     A,R1
   \   00004C   85..82       MOV     DPL,?XSP + 0
   \   00004F   85..83       MOV     DPH,?XSP + 1
   \   000052   F0           MOVX    @DPTR,A
    277              if ( retValue == ZSuccess )
   \   000053   700F         JNZ     ??MT_AfRegister_1
    278              {
    279                retValue = afRegister( epDesc );
   \   000055                ; Setup parameters for call to function afRegister
   \   000055   EE           MOV     A,R6
   \   000056   FA           MOV     R2,A
   \   000057   EF           MOV     A,R7
   \   000058   FB           MOV     R3,A
   \   000059   12....       LCALL   ??afRegister?relay
   \   00005C   E9           MOV     A,R1
   \   00005D   85..82       MOV     DPL,?XSP + 0
   \   000060   85..83       MOV     DPH,?XSP + 1
   \   000063   F0           MOVX    @DPTR,A
    280              }
    281          
    282              if ( retValue != ZSuccess )
   \                     ??MT_AfRegister_1:
   \   000064   E0           MOVX    A,@DPTR
   \   000065   6007         JZ      ??MT_AfRegister_0
    283              {
    284                osal_mem_free( epDesc );
   \   000067                ; Setup parameters for call to function osal_mem_free
   \   000067   EE           MOV     A,R6
   \   000068   FA           MOV     R2,A
   \   000069   EF           MOV     A,R7
   \   00006A   FB           MOV     R3,A
   \   00006B   12....       LCALL   ??osal_mem_free?relay
    285              }
    286            }
    287          
    288            /* Build and send back the response */
    289            MT_BuildAndSendZToolResponse(((uint8)MT_RPC_CMD_SRSP | (uint8)MT_RPC_SYS_AF), cmdId, 1, &retValue);
   \                     ??MT_AfRegister_0:
   \   00006E                ; Setup parameters for call to function MT_BuildAndSendZToolResponse
   \   00006E   85..82       MOV     DPL,?XSP + 0
   \   000071   85..83       MOV     DPH,?XSP + 1
   \   000074   AC82         MOV     R4,DPL
   \   000076   AD83         MOV     R5,DPH
   \   000078   7B01         MOV     R3,#0x1
   \   00007A   AA..         MOV     R2,?V0 + 2
   \   00007C                REQUIRE ?Subroutine1
   \   00007C                ; // Fall through to label ?Subroutine1
    290          }

   \                                 In  segment BANKED_CODE, align 1, keep-with-next
   \                     ?Subroutine1:
   \   000000   7964         MOV     R1,#0x64
   \   000002   12....       LCALL   ??MT_BuildAndSendZToolResponse?relay
   \   000005   7401         MOV     A,#0x1
   \   000007   12....       LCALL   ?DEALLOC_XSTACK8
   \   00000A   7F06         MOV     R7,#0x6
   \   00000C   02....       LJMP    ?BANKED_LEAVE_XDATA

   \                                 In  segment BANKED_CODE, align 1, keep-with-next
   \                     ?Subroutine28:
   \   000000   F0           MOVX    @DPTR,A
   \   000001   8A82         MOV     DPL,R2
   \   000003   8B83         MOV     DPH,R3
   \   000005   A3           INC     DPTR
   \   000006   A3           INC     DPTR
   \   000007   E0           MOVX    A,@DPTR
   \   000008   22           RET
    291          
    292          /***************************************************************************************************
    293           * @fn      MT_AfDataRequest
    294           *
    295           * @brief   Process AF Register command
    296           *
    297           * @param   pBuf - pointer to the received buffer
    298           *
    299           * @return  none
    300           ***************************************************************************************************/

   \                                 In  segment BANKED_CODE, align 1, keep-with-next
    301          void MT_AfDataRequest(uint8 *pBuf)
   \                     MT_AfDataRequest:
    302          {
   \   000000   74EA         MOV     A,#-0x16
   \   000002   12....       LCALL   ?BANKED_ENTER_XDATA
   \   000005                ; Saved register size: 22
   \   000005                ; Auto size: 14
   \   000005   74F2         MOV     A,#-0xe
   \   000007   12....       LCALL   ?ALLOC_XSTACK8
    303            #define MT_AF_REQ_MSG_LEN  10
    304            #define MT_AF_REQ_MSG_EXT  10
    305          
    306            endPointDesc_t *epDesc;
    307            afAddrType_t dstAddr;
    308            cId_t cId;
    309            uint8 transId, txOpts, radius;
    310            uint8 cmd0, cmd1;
    311            uint8 retValue = ZFailure;
   \   00000A   85..82       MOV     DPL,?XSP + 0
   \   00000D   85..83       MOV     DPH,?XSP + 1
   \   000010   7401         MOV     A,#0x1
   \   000012   12....       LCALL   ?Subroutine29 & 0xFFFF
    312            uint16 dataLen, tempLen;
    313          
    314            /* Parse header */
    315            cmd0 = pBuf[MT_RPC_POS_CMD0];
   \                     ??CrossCallReturnLabel_40:
   \   000015   E0           MOVX    A,@DPTR
   \   000016   F5..         MOV     ?V0 + 7,A
    316            cmd1 = pBuf[MT_RPC_POS_CMD1];
   \   000018   8A82         MOV     DPL,R2
   \   00001A   8B83         MOV     DPH,R3
   \   00001C   A3           INC     DPTR
   \   00001D   A3           INC     DPTR
   \   00001E   E0           MOVX    A,@DPTR
   \   00001F   F5..         MOV     ?V0 + 6,A
    317            pBuf += MT_RPC_FRAME_HDR_SZ;
   \   000021   EA           MOV     A,R2
   \   000022   2403         ADD     A,#0x3
   \   000024   F5..         MOV     ?V0 + 2,A
   \   000026   EB           MOV     A,R3
   \   000027   12....       LCALL   ?Subroutine40 & 0xFFFF
    318          
    319            if (cmd1 == MT_AF_DATA_REQUEST_EXT)
   \                     ??CrossCallReturnLabel_69:
   \   00002A   A3           INC     DPTR
   \   00002B   A882         MOV     R0,DPL
   \   00002D   A983         MOV     R1,DPH
   \   00002F   7402         MOV     A,#0x2
   \   000031   65..         XRL     A,?V0 + 6
   \   000033   706A         JNZ     ??MT_AfDataRequest_0
    320            {
    321              dstAddr.addrMode = (afAddrMode_t)*pBuf++;
   \   000035   85..82       MOV     DPL,?V0 + 2
   \   000038   85..83       MOV     DPH,?V0 + 3
   \   00003B   E0           MOVX    A,@DPTR
   \   00003C   FA           MOV     R2,A
   \   00003D   740A         MOV     A,#0xa
   \   00003F   12....       LCALL   ?XSTACK_DISP0_8
   \   000042   EA           MOV     A,R2
   \   000043   F0           MOVX    @DPTR,A
   \   000044   88..         MOV     ?V0 + 2,R0
   \   000046   89..         MOV     ?V0 + 3,R1
    322          
    323              if (dstAddr.addrMode == afAddr64Bit)
   \   000048   7403         MOV     A,#0x3
   \   00004A   6A           XRL     A,R2
   \   00004B   7021         JNZ     ??MT_AfDataRequest_1
    324              {
    325                (void)osal_memcpy(dstAddr.addr.extAddr, pBuf, Z_EXTADDR_LEN);
   \   00004D                ; Setup parameters for call to function osal_memcpy
   \   00004D   88..         MOV     ?V0 + 8,R0
   \   00004F   89..         MOV     ?V0 + 9,R1
   \   000051   75..00       MOV     ?V0 + 10,#0x0
   \   000054   78..         MOV     R0,#?V0 + 8
   \   000056   12....       LCALL   ?PUSH_XSTACK_I_THREE
   \   000059   7C08         MOV     R4,#0x8
   \   00005B   7D00         MOV     R5,#0x0
   \   00005D   7405         MOV     A,#0x5
   \   00005F   12....       LCALL   ?XSTACK_DISP0_8
   \   000062   AA82         MOV     R2,DPL
   \   000064   AB83         MOV     R3,DPH
   \   000066   12....       LCALL   ??Subroutine56_0 & 0xFFFF
    326              }
   \                     ??CrossCallReturnLabel_116:
   \   000069   12....       LCALL   ?DEALLOC_XSTACK8
   \   00006C   800D         SJMP    ??CrossCallReturnLabel_45
    327              else
    328              {
    329                dstAddr.addr.shortAddr = BUILD_UINT16(pBuf[0], pBuf[1]);
   \                     ??MT_AfDataRequest_1:
   \   00006E   8882         MOV     DPL,R0
   \   000070   8983         MOV     DPH,R1
   \   000072   12....       LCALL   ?Subroutine11 & 0xFFFF
    330              }
   \                     ??CrossCallReturnLabel_8:
   \   000075   12....       LCALL   ?XSTACK_DISP0_8
   \   000078   12....       LCALL   ?Subroutine31 & 0xFFFF
    331              pBuf += Z_EXTADDR_LEN;
   \                     ??CrossCallReturnLabel_45:
   \   00007B   E5..         MOV     A,?V0 + 2
   \   00007D   2408         ADD     A,#0x8
   \   00007F   12....       LCALL   ??Subroutine47_0 & 0xFFFF
    332          
    333              dstAddr.endPoint = *pBuf++;
   \                     ??CrossCallReturnLabel_68:
   \   000082   C0E0         PUSH    A
   \   000084   740B         MOV     A,#0xb
   \   000086   12....       LCALL   ?XSTACK_DISP0_8
   \   000089   D0E0         POP     A
   \   00008B   12....       LCALL   ?Subroutine22 & 0xFFFF
    334              dstAddr.panId = BUILD_UINT16(pBuf[0], pBuf[1]);
   \                     ??CrossCallReturnLabel_21:
   \   00008E   12....       LCALL   ?Subroutine36 & 0xFFFF
   \                     ??CrossCallReturnLabel_90:
   \   000091   F8           MOV     R0,A
   \   000092   740C         MOV     A,#0xc
   \   000094   12....       LCALL   ?XSTACK_DISP0_8
   \   000097   12....       LCALL   ?Subroutine31 & 0xFFFF
    335              pBuf += 2;
   \                     ??CrossCallReturnLabel_46:
   \   00009A   12....       LCALL   ?Subroutine33 & 0xFFFF
    336            }
   \                     ??CrossCallReturnLabel_52:
   \   00009D   8038         SJMP    ??MT_AfDataRequest_2
    337            else
    338            {
    339              /* Destination address */
    340              dstAddr.addrMode = afAddr16Bit;
   \                     ??MT_AfDataRequest_0:
   \   00009F   740A         MOV     A,#0xa
   \   0000A1   12....       LCALL   ?XSTACK_DISP0_8
   \   0000A4   7402         MOV     A,#0x2
   \   0000A6   F0           MOVX    @DPTR,A
    341              dstAddr.addr.shortAddr = BUILD_UINT16(pBuf[0], pBuf[1]);
   \   0000A7   85..82       MOV     DPL,?V0 + 2
   \   0000AA   85..83       MOV     DPH,?V0 + 3
   \   0000AD   E0           MOVX    A,@DPTR
   \   0000AE   FA           MOV     R2,A
   \   0000AF   8882         MOV     DPL,R0
   \   0000B1   8983         MOV     DPH,R1
   \   0000B3   E0           MOVX    A,@DPTR
   \   0000B4   F9           MOV     R1,A
   \   0000B5   EA           MOV     A,R2
   \   0000B6   F8           MOV     R0,A
   \   0000B7   7402         MOV     A,#0x2
   \   0000B9   12....       LCALL   ?XSTACK_DISP0_8
   \   0000BC   12....       LCALL   ?Subroutine31 & 0xFFFF
    342              pBuf += 2;
   \                     ??CrossCallReturnLabel_47:
   \   0000BF   12....       LCALL   ?Subroutine17 & 0xFFFF
    343          
    344              /* Destination endpoint */
    345              dstAddr.endPoint = *pBuf++;
   \                     ??CrossCallReturnLabel_66:
   \   0000C2   C0E0         PUSH    A
   \   0000C4   740B         MOV     A,#0xb
   \   0000C6   12....       LCALL   ?XSTACK_DISP0_8
   \   0000C9   D0E0         POP     A
   \   0000CB   12....       LCALL   ?Subroutine22 & 0xFFFF
    346              dstAddr.panId = 0;
   \                     ??CrossCallReturnLabel_22:
   \   0000CE   740C         MOV     A,#0xc
   \   0000D0   12....       LCALL   ?XSTACK_DISP0_8
   \   0000D3   E4           CLR     A
   \   0000D4   F0           MOVX    @DPTR,A
   \   0000D5   A3           INC     DPTR
   \   0000D6   F0           MOVX    @DPTR,A
    347            }
    348          
    349            /* Source endpoint */
    350            epDesc = afFindEndPointDesc(*pBuf++);
   \                     ??MT_AfDataRequest_2:
   \   0000D7                ; Setup parameters for call to function afFindEndPointDesc
   \   0000D7   85..82       MOV     DPL,?V0 + 2
   \   0000DA   85..83       MOV     DPH,?V0 + 3
   \   0000DD   E0           MOVX    A,@DPTR
   \   0000DE   F9           MOV     R1,A
   \   0000DF   12....       LCALL   ??afFindEndPointDesc?relay
   \   0000E2   8A..         MOV     ?V0 + 12,R2
   \   0000E4   8B..         MOV     ?V0 + 13,R3
   \   0000E6   85..82       MOV     DPL,?V0 + 2
   \   0000E9   85..83       MOV     DPH,?V0 + 3
   \   0000EC   A3           INC     DPTR
   \   0000ED   8582..       MOV     ?V0 + 2,DPL
   \   0000F0   8583..       MOV     ?V0 + 3,DPH
    351          
    352            /* ClusterId */
    353            cId = BUILD_UINT16(pBuf[0], pBuf[1]);
   \   0000F3   12....       LCALL   ??Subroutine51_0 & 0xFFFF
   \                     ??CrossCallReturnLabel_87:
   \   0000F6   F5..         MOV     ?V0 + 0,A
   \   0000F8   E4           CLR     A
   \   0000F9   39           ADDC    A,R1
   \   0000FA   F5..         MOV     ?V0 + 1,A
    354            pBuf +=2;
   \   0000FC   12....       LCALL   ?Subroutine17 & 0xFFFF
    355          
    356            /* TransId */
    357            transId = *pBuf++;
   \                     ??CrossCallReturnLabel_67:
   \   0000FF   C0E0         PUSH    A
   \   000101   7401         MOV     A,#0x1
   \   000103   12....       LCALL   ?XSTACK_DISP0_8
   \   000106   D0E0         POP     A
   \   000108   12....       LCALL   ?Subroutine41 & 0xFFFF
    358          
    359            /* TxOption */
    360            txOpts = *pBuf++;
   \                     ??CrossCallReturnLabel_57:
   \   00010B   12....       LCALL   ?Subroutine35 & 0xFFFF
    361          
    362            /* Radius */
    363            radius = *pBuf++;
   \                     ??CrossCallReturnLabel_54:
   \   00010E   A3           INC     DPTR
   \   00010F   8582..       MOV     ?V0 + 2,DPL
   \   000112   8583..       MOV     ?V0 + 3,DPH
    364          
    365            /* Length */
    366            if (cmd1 == MT_AF_DATA_REQUEST_EXT)
   \   000115   A3           INC     DPTR
   \   000116   A882         MOV     R0,DPL
   \   000118   A983         MOV     R1,DPH
   \   00011A   85..82       MOV     DPL,?V0 + 2
   \   00011D   85..83       MOV     DPH,?V0 + 3
   \   000120   E0           MOVX    A,@DPTR
   \   000121   F5..         MOV     ?V0 + 8,A
   \   000123   7402         MOV     A,#0x2
   \   000125   65..         XRL     A,?V0 + 6
   \   000127   701B         JNZ     ??MT_AfDataRequest_3
    367            {
    368              dataLen = BUILD_UINT16(pBuf[0], pBuf[1]);
   \   000129   8882         MOV     DPL,R0
   \   00012B   8983         MOV     DPH,R1
   \   00012D   E0           MOVX    A,@DPTR
   \   00012E   F9           MOV     R1,A
   \   00012F   E5..         MOV     A,?V0 + 8
   \   000131   2400         ADD     A,#0x0
   \   000133   FE           MOV     R6,A
   \   000134   E4           CLR     A
   \   000135   39           ADDC    A,R1
   \   000136   FF           MOV     R7,A
    369              tempLen = dataLen + MT_AF_REQ_MSG_LEN + MT_AF_REQ_MSG_EXT;
   \   000137   EE           MOV     A,R6
   \   000138   2414         ADD     A,#0x14
   \   00013A   F8           MOV     R0,A
   \   00013B   EF           MOV     A,R7
   \   00013C   3400         ADDC    A,#0x0
   \   00013E   F9           MOV     R1,A
    370              pBuf += 2;
   \   00013F   12....       LCALL   ?Subroutine33 & 0xFFFF
    371            }
   \                     ??CrossCallReturnLabel_53:
   \   000142   8013         SJMP    ??MT_AfDataRequest_4
    372            else
    373            {
    374              dataLen = *pBuf++;
   \                     ??MT_AfDataRequest_3:
   \   000144   85..82       MOV     DPL,?V0 + 8
   \   000147   AE82         MOV     R6,DPL
   \   000149   7F00         MOV     R7,#0x0
   \   00014B   88..         MOV     ?V0 + 2,R0
   \   00014D   89..         MOV     ?V0 + 3,R1
    375              tempLen = dataLen + MT_AF_REQ_MSG_LEN;
   \   00014F   EE           MOV     A,R6
   \   000150   240A         ADD     A,#0xa
   \   000152   F8           MOV     R0,A
   \   000153   E4           CLR     A
   \   000154   3400         ADDC    A,#0x0
   \   000156   F9           MOV     R1,A
    376            }
    377          
    378            if ( epDesc == NULL )
   \                     ??MT_AfDataRequest_4:
   \   000157   E5..         MOV     A,?V0 + 12
   \   000159   45..         ORL     A,?V0 + 13
   \   00015B   700B         JNZ     ??MT_AfDataRequest_5
    379            {
    380              retValue = afStatus_INVALID_PARAMETER;
   \                     ??MT_AfDataRequest_6:
   \   00015D   85..82       MOV     DPL,?XSP + 0
   \   000160   85..83       MOV     DPH,?XSP + 1
   \   000163   7402         MOV     A,#0x2
   \   000165   02....       LJMP    ??MT_AfDataRequest_7 & 0xFFFF
    381            }
    382            else if (tempLen > (uint16)MT_RPC_DATA_MAX)
   \                     ??MT_AfDataRequest_5:
   \   000168   C3           CLR     C
   \   000169   E8           MOV     A,R0
   \   00016A   94FB         SUBB    A,#-0x5
   \   00016C   E9           MOV     A,R1
   \   00016D   9400         SUBB    A,#0x0
   \   00016F   5003         JNC     $+5
   \   000171   02....       LJMP    ??MT_AfDataRequest_8 & 0xFFFF
    383            {
    384              if (pMtAfDataReq != NULL)
   \   000174   12....       LCALL   ?Subroutine4 & 0xFFFF
   \                     ??CrossCallReturnLabel_77:
   \   000177   70E4         JNZ     ??MT_AfDataRequest_6
    385              {
    386                retValue = afStatus_INVALID_PARAMETER;
    387              }
    388              else if ((pMtAfDataReq = osal_mem_alloc(sizeof(mtAfDataReq_t) + dataLen)) == NULL)
   \   000179                ; Setup parameters for call to function osal_mem_alloc
   \   000179   EE           MOV     A,R6
   \   00017A   2418         ADD     A,#0x18
   \   00017C   12....       LCALL   ?Subroutine20 & 0xFFFF
   \                     ??CrossCallReturnLabel_63:
   \   00017F   90....       MOV     DPTR,#pMtAfDataReq
   \   000182   EA           MOV     A,R2
   \   000183   F0           MOVX    @DPTR,A
   \   000184   A3           INC     DPTR
   \   000185   EB           MOV     A,R3
   \   000186   F0           MOVX    @DPTR,A
   \   000187   12....       LCALL   ?Subroutine4 & 0xFFFF
   \                     ??CrossCallReturnLabel_78:
   \   00018A   85..82       MOV     DPL,?XSP + 0
   \   00018D   85..83       MOV     DPH,?XSP + 1
   \   000190   7005         JNZ     ??MT_AfDataRequest_9
    389              {
    390                retValue = afStatus_MEM_FAIL;
   \   000192   7410         MOV     A,#0x10
   \   000194   02....       LJMP    ??MT_AfDataRequest_7 & 0xFFFF
    391              }
    392              else
    393              {
    394                retValue = afStatus_SUCCESS;
   \                     ??MT_AfDataRequest_9:
   \   000197   E4           CLR     A
   \   000198   12....       LCALL   ?Subroutine23 & 0xFFFF
    395          
    396                pMtAfDataReq->data = (uint8 *)(pMtAfDataReq+1);
   \                     ??CrossCallReturnLabel_23:
   \   00019B   2418         ADD     A,#0x18
   \   00019D   FA           MOV     R2,A
   \   00019E   A3           INC     DPTR
   \   00019F   E0           MOVX    A,@DPTR
   \   0001A0   3400         ADDC    A,#0x0
   \   0001A2   FB           MOV     R3,A
   \   0001A3   12....       LCALL   ?Subroutine15 & 0xFFFF
   \                     ??CrossCallReturnLabel_14:
   \   0001A6   EA           MOV     A,R2
   \   0001A7   F0           MOVX    @DPTR,A
   \   0001A8   A3           INC     DPTR
   \   0001A9   EB           MOV     A,R3
   \   0001AA   F0           MOVX    @DPTR,A
    397                (void)osal_memcpy(&(pMtAfDataReq->dstAddr), &dstAddr, sizeof(afAddrType_t));
   \   0001AB                ; Setup parameters for call to function osal_memcpy
   \   0001AB   7402         MOV     A,#0x2
   \   0001AD   12....       LCALL   ?XSTACK_DISP0_8
   \   0001B0   A982         MOV     R1,DPL
   \   0001B2   AA83         MOV     R2,DPH
   \   0001B4   89..         MOV     ?V0 + 8,R1
   \   0001B6   8A..         MOV     ?V0 + 9,R2
   \   0001B8   75..00       MOV     ?V0 + 10,#0x0
   \   0001BB   78..         MOV     R0,#?V0 + 8
   \   0001BD   12....       LCALL   ?PUSH_XSTACK_I_THREE
   \   0001C0   7C0C         MOV     R4,#0xc
   \   0001C2   7D00         MOV     R5,#0x0
   \   0001C4   12....       LCALL   ?Subroutine14 & 0xFFFF
   \                     ??CrossCallReturnLabel_12:
   \   0001C7   12....       LCALL   ??Subroutine56_0 & 0xFFFF
   \                     ??CrossCallReturnLabel_117:
   \   0001CA   12....       LCALL   ?DEALLOC_XSTACK8
    398                pMtAfDataReq->epDesc = epDesc;
   \   0001CD   90....       MOV     DPTR,#pMtAfDataReq
   \   0001D0   E0           MOVX    A,@DPTR
   \   0001D1   240E         ADD     A,#0xe
   \   0001D3   12....       LCALL   ??Subroutine57_0 & 0xFFFF
   \                     ??CrossCallReturnLabel_120:
   \   0001D6   E5..         MOV     A,?V0 + 12
   \   0001D8   F0           MOVX    @DPTR,A
   \   0001D9   A3           INC     DPTR
   \   0001DA   E5..         MOV     A,?V0 + 13
   \   0001DC   F0           MOVX    @DPTR,A
    399                pMtAfDataReq->cId = cId;
   \   0001DD   12....       LCALL   ?Subroutine6 & 0xFFFF
   \                     ??CrossCallReturnLabel_127:
   \   0001E0   E5..         MOV     A,?V0 + 0
   \   0001E2   F0           MOVX    @DPTR,A
   \   0001E3   A3           INC     DPTR
   \   0001E4   E5..         MOV     A,?V0 + 1
   \   0001E6   12....       LCALL   ?Subroutine23 & 0xFFFF
    400                pMtAfDataReq->dataLen = dataLen;
   \                     ??CrossCallReturnLabel_24:
   \   0001E9   2412         ADD     A,#0x12
   \   0001EB   12....       LCALL   ??Subroutine57_0 & 0xFFFF
   \                     ??CrossCallReturnLabel_121:
   \   0001EE   EE           MOV     A,R6
   \   0001EF   F0           MOVX    @DPTR,A
   \   0001F0   A3           INC     DPTR
   \   0001F1   EF           MOV     A,R7
   \   0001F2   F0           MOVX    @DPTR,A
    401                pMtAfDataReq->transId = transId;
   \   0001F3   7401         MOV     A,#0x1
   \   0001F5   12....       LCALL   ?XSTACK_DISP0_8
   \   0001F8   E0           MOVX    A,@DPTR
   \   0001F9   C0E0         PUSH    A
   \   0001FB   90....       MOV     DPTR,#pMtAfDataReq
   \   0001FE   E0           MOVX    A,@DPTR
   \   0001FF   2414         ADD     A,#0x14
   \   000201   12....       LCALL   ??Subroutine57_0 & 0xFFFF
   \                     ??CrossCallReturnLabel_122:
   \   000204   D0E0         POP     A
   \   000206   12....       LCALL   ?Subroutine23 & 0xFFFF
    402                pMtAfDataReq->txOpts = txOpts;
   \                     ??CrossCallReturnLabel_25:
   \   000209   2415         ADD     A,#0x15
   \   00020B   12....       LCALL   ??Subroutine57_0 & 0xFFFF
   \                     ??CrossCallReturnLabel_123:
   \   00020E   E5..         MOV     A,?V0 + 4
   \   000210   12....       LCALL   ?Subroutine23 & 0xFFFF
    403                pMtAfDataReq->radius = radius;
   \                     ??CrossCallReturnLabel_26:
   \   000213   2416         ADD     A,#0x16
   \   000215   12....       LCALL   ??Subroutine57_0 & 0xFFFF
   \                     ??CrossCallReturnLabel_124:
   \   000218   E5..         MOV     A,?V0 + 5
   \   00021A   12....       LCALL   ?Subroutine23 & 0xFFFF
    404          
    405                // Setup to time-out the huge outgoing item if host does not MT_AF_DATA_STORE it.
    406                pMtAfDataReq->tick = MT_AF_EXEC_CNT;
   \                     ??CrossCallReturnLabel_27:
   \   00021D   2417         ADD     A,#0x17
   \   00021F   12....       LCALL   ??Subroutine57_0 & 0xFFFF
   \                     ??CrossCallReturnLabel_125:
   \   000222   12....       LCALL   ?Subroutine12 & 0xFFFF
    407                if (ZSuccess != osal_start_timerEx(MT_TaskID, MT_AF_EXEC_EVT, MT_AF_EXEC_DLY))
   \                     ??CrossCallReturnLabel_71:
   \   000225   604C         JZ      ??MT_AfDataRequest_10
    408                {
    409                  (void)osal_set_event(MT_TaskID, MT_AF_EXEC_EVT);
   \   000227                ; Setup parameters for call to function osal_set_event
   \   000227   12....       LCALL   ?Subroutine16 & 0xFFFF
    410                }
    411              }
    412            }
   \                     ??CrossCallReturnLabel_17:
   \   00022A   8047         SJMP    ??MT_AfDataRequest_10
    413            else
    414            {
    415              retValue = AF_DataRequest(&dstAddr, epDesc, cId, dataLen, pBuf, &transId, txOpts, radius);
   \                     ??MT_AfDataRequest_8:
   \   00022C                ; Setup parameters for call to function AF_DataRequest
   \   00022C   78..         MOV     R0,#?V0 + 5
   \   00022E   12....       LCALL   ?PUSH_XSTACK_I_ONE
   \   000231   7402         MOV     A,#0x2
   \   000233   12....       LCALL   ?XSTACK_DISP0_8
   \   000236   8582..       MOV     ?V0 + 8,DPL
   \   000239   8583..       MOV     ?V0 + 9,DPH
   \   00023C   78..         MOV     R0,#?V0 + 8
   \   00023E   12....       LCALL   ?PUSH_XSTACK_I_TWO
   \   000241   78..         MOV     R0,#?V0 + 2
   \   000243   12....       LCALL   ?PUSH_XSTACK_I_TWO
   \   000246   8E..         MOV     ?V0 + 2,R6
   \   000248   8F..         MOV     ?V0 + 3,R7
   \   00024A   78..         MOV     R0,#?V0 + 2
   \   00024C   12....       LCALL   ?PUSH_XSTACK_I_TWO
   \   00024F   78..         MOV     R0,#?V0 + 0
   \   000251   12....       LCALL   ?PUSH_XSTACK_I_TWO
   \   000254   A9..         MOV     R1,?V0 + 4
   \   000256   AC..         MOV     R4,?V0 + 12
   \   000258   AD..         MOV     R5,?V0 + 13
   \   00025A   740B         MOV     A,#0xb
   \   00025C   12....       LCALL   ?XSTACK_DISP0_8
   \   00025F   AA82         MOV     R2,DPL
   \   000261   AB83         MOV     R3,DPH
   \   000263   12....       LCALL   ??AF_DataRequest?relay
   \   000266   7409         MOV     A,#0x9
   \   000268   12....       LCALL   ?DEALLOC_XSTACK8
   \   00026B   E9           MOV     A,R1
   \   00026C   85..82       MOV     DPL,?XSP + 0
   \   00026F   85..83       MOV     DPH,?XSP + 1
   \                     ??MT_AfDataRequest_7:
   \   000272   F0           MOVX    @DPTR,A
    416            }
    417          
    418            if (MT_RPC_CMD_SREQ == (cmd0 & MT_RPC_CMD_TYPE_MASK))
   \                     ??MT_AfDataRequest_10:
   \   000273   74E0         MOV     A,#-0x20
   \   000275   55..         ANL     A,?V0 + 7
   \   000277   6420         XRL     A,#0x20
   \   000279   7013         JNZ     ??MT_AfDataRequest_11
    419            {
    420              MT_BuildAndSendZToolResponse(((uint8)MT_RPC_CMD_SRSP|(uint8)MT_RPC_SYS_AF), cmd1, 1, &retValue);
   \   00027B                ; Setup parameters for call to function MT_BuildAndSendZToolResponse
   \   00027B   85..82       MOV     DPL,?XSP + 0
   \   00027E   85..83       MOV     DPH,?XSP + 1
   \   000281   AC82         MOV     R4,DPL
   \   000283   AD83         MOV     R5,DPH
   \   000285   7B01         MOV     R3,#0x1
   \   000287   AA..         MOV     R2,?V0 + 6
   \   000289   7964         MOV     R1,#0x64
   \   00028B   12....       LCALL   ??MT_BuildAndSendZToolResponse?relay
    421            }
    422          }
   \                     ??MT_AfDataRequest_11:
   \   00028E                REQUIRE ?Subroutine2
   \   00028E                ; // Fall through to label ?Subroutine2

   \                                 In  segment BANKED_CODE, align 1, keep-with-next
   \                     ?Subroutine2:
   \   000000   740E         MOV     A,#0xe
   \   000002   12....       LCALL   ?DEALLOC_XSTACK8
   \   000005   7F0E         MOV     R7,#0xe
   \   000007   02....       LJMP    ?BANKED_LEAVE_XDATA

   \                                 In  segment BANKED_CODE, align 1, keep-with-next
   \                     ?Subroutine33:
   \   000000   E5..         MOV     A,?V0 + 2
   \   000002   2402         ADD     A,#0x2
   \   000004   F5..         MOV     ?V0 + 2,A
   \   000006   E5..         MOV     A,?V0 + 3
   \   000008   3400         ADDC    A,#0x0
   \   00000A   F5..         MOV     ?V0 + 3,A
   \   00000C   22           RET

   \                                 In  segment BANKED_CODE, align 1, keep-with-next
   \                     ?Subroutine23:
   \   000000   F0           MOVX    @DPTR,A
   \   000001   90....       MOV     DPTR,#pMtAfDataReq
   \   000004   E0           MOVX    A,@DPTR
   \   000005   22           RET

   \                                 In  segment BANKED_CODE, align 1, keep-with-next
   \                     ?Subroutine22:
   \   000000   12....       LCALL   ?Subroutine41 & 0xFFFF
   \                     ??CrossCallReturnLabel_58:
   \   000003   8582..       MOV     ?V0 + 2,DPL
   \   000006   8583..       MOV     ?V0 + 3,DPH
   \   000009   22           RET

   \                                 In  segment BANKED_CODE, align 1, keep-with-next
   \                     ?Subroutine41:
   \   000000   F0           MOVX    @DPTR,A
   \   000001   85..82       MOV     DPL,?V0 + 2
   \   000004   85..83       MOV     DPH,?V0 + 3
   \   000007   A3           INC     DPTR
   \   000008   22           RET

   \                                 In  segment BANKED_CODE, align 1, keep-with-next
   \                     ?Subroutine20:
   \   000000   FA           MOV     R2,A
   \   000001   EF           MOV     A,R7
   \   000002                REQUIRE ??Subroutine46_0
   \   000002                ; // Fall through to label ??Subroutine46_0

   \                                 In  segment BANKED_CODE, align 1, keep-with-next
   \                     ??Subroutine46_0:
   \   000000   3400         ADDC    A,#0x0
   \   000002   FB           MOV     R3,A
   \   000003   12....       LCALL   ??osal_mem_alloc?relay
   \   000006   22           RET

   \                                 In  segment BANKED_CODE, align 1, keep-with-next
   \                     ?Subroutine17:
   \   000000   E5..         MOV     A,?V0 + 2
   \   000002   2402         ADD     A,#0x2
   \   000004                REQUIRE ??Subroutine47_0
   \   000004                ; // Fall through to label ??Subroutine47_0

   \                                 In  segment BANKED_CODE, align 1, keep-with-next
   \                     ??Subroutine47_0:
   \   000000   F5..         MOV     ?V0 + 2,A
   \   000002   E5..         MOV     A,?V0 + 3
   \   000004   12....       LCALL   ?Subroutine40 & 0xFFFF
   \                     ??CrossCallReturnLabel_70:
   \   000007   E0           MOVX    A,@DPTR
   \   000008   22           RET

   \                                 In  segment BANKED_CODE, align 1, keep-with-next
   \                     ?Subroutine40:
   \   000000   3400         ADDC    A,#0x0
   \   000002   F5..         MOV     ?V0 + 3,A
   \   000004   85..82       MOV     DPL,?V0 + 2
   \   000007   F583         MOV     DPH,A
   \   000009   22           RET

   \                                 In  segment BANKED_CODE, align 1, keep-with-next
   \                     ?Subroutine12:
   \   000000   740F         MOV     A,#0xf
   \   000002   F0           MOVX    @DPTR,A
   \   000003                ; Setup parameters for call to function osal_start_timerEx
   \   000003                ; Setup parameters for call to function osal_start_timerEx
   \   000003                REQUIRE ??Subroutine48_0
   \   000003                ; // Fall through to label ??Subroutine48_0

   \                                 In  segment BANKED_CODE, align 1, keep-with-next
   \                     ?Subroutine11:
   \   000000   12....       LCALL   ?Subroutine36 & 0xFFFF
   \                     ??CrossCallReturnLabel_91:
   \   000003   F8           MOV     R0,A
   \   000004   7402         MOV     A,#0x2
   \   000006   22           RET

   \                                 In  segment BANKED_CODE, align 1, keep-with-next
   \                     ?Subroutine36:
   \   000000   12....       LCALL   ??Subroutine53_0 & 0xFFFF
   \                     ??CrossCallReturnLabel_98:
   \   000003   F9           MOV     R1,A
   \   000004   EA           MOV     A,R2
   \   000005   22           RET

   \                                 In  segment BANKED_CODE, align 1, keep-with-next
   \                     ??Subroutine51_0:
   \   000000   12....       LCALL   ?Subroutine36 & 0xFFFF
   \                     ??CrossCallReturnLabel_92:
   \   000003   2400         ADD     A,#0x0
   \   000005   22           RET

   \                                 In  segment BANKED_CODE, align 1, keep-with-next
   \                     ?Subroutine29:
   \   000000   F0           MOVX    @DPTR,A
   \   000001   8A82         MOV     DPL,R2
   \   000003   8B83         MOV     DPH,R3
   \   000005   A3           INC     DPTR
   \   000006   22           RET

   \                                 In  segment BANKED_CODE, align 1, keep-with-next
   \                     ?Subroutine31:
   \   000000   E8           MOV     A,R0
   \   000001   F0           MOVX    @DPTR,A
   \   000002   A3           INC     DPTR
   \   000003   E9           MOV     A,R1
   \   000004   F0           MOVX    @DPTR,A
   \   000005   22           RET

   \                                 In  segment BANKED_CODE, align 1, keep-with-next
   \                     ?Subroutine35:
   \   000000   E0           MOVX    A,@DPTR
   \   000001   F5..         MOV     ?V0 + 4,A
   \   000003   A3           INC     DPTR
   \   000004   E0           MOVX    A,@DPTR
   \   000005   F5..         MOV     ?V0 + 5,A
   \   000007   22           RET

   \                                 In  segment BANKED_CODE, align 1, keep-with-next
   \                     ??Subroutine56_0:
   \   000000   12....       LCALL   ??osal_memcpy?relay
   \   000003   7403         MOV     A,#0x3
   \   000005   22           RET

   \                                 In  segment BANKED_CODE, align 1, keep-with-next
   \                     ?Subroutine15:
   \   000000   90....       MOV     DPTR,#pMtAfDataReq
   \   000003   E0           MOVX    A,@DPTR
   \   000004   F8           MOV     R0,A
   \   000005   A3           INC     DPTR
   \   000006   E0           MOVX    A,@DPTR
   \   000007   F583         MOV     DPH,A
   \   000009   8882         MOV     DPL,R0
   \   00000B   22           RET

   \                                 In  segment BANKED_CODE, align 1, keep-with-next
   \                     ?Subroutine14:
   \   000000   90....       MOV     DPTR,#pMtAfDataReq
   \   000003   E0           MOVX    A,@DPTR
   \   000004   2402         ADD     A,#0x2
   \   000006   FA           MOV     R2,A
   \   000007   A3           INC     DPTR
   \   000008   E0           MOVX    A,@DPTR
   \   000009   3400         ADDC    A,#0x0
   \   00000B   FB           MOV     R3,A
   \   00000C   22           RET

   \                                 In  segment BANKED_CODE, align 1, keep-with-next
   \                     ?Subroutine6:
   \   000000   90....       MOV     DPTR,#pMtAfDataReq
   \   000003   E0           MOVX    A,@DPTR
   \   000004   2410         ADD     A,#0x10
   \   000006                REQUIRE ??Subroutine57_0
   \   000006                ; // Fall through to label ??Subroutine57_0

   \                                 In  segment BANKED_CODE, align 1, keep-with-next
   \                     ??Subroutine57_0:
   \   000000   12....       LCALL   ?Subroutine38 & 0xFFFF
   \                     ??CrossCallReturnLabel_130:
   \   000003   22           RET
    423          
    424          #if defined ( ZIGBEE_SOURCE_ROUTING )
    425          
    426          /***************************************************************************************************
    427           * @fn      MT_AfDataRequestSrcRtg
    428           *
    429           * @brief   Process AF Register command
    430           *
    431           * @param   pBuf - pointer to the received buffer
    432           *
    433           * @return  none
    434           ***************************************************************************************************/

   \                                 In  segment BANKED_CODE, align 1, keep-with-next
    435          void MT_AfDataRequestSrcRtg(uint8 *pBuf)
   \                     MT_AfDataRequestSrcRtg:
    436          {
   \   000000   74EA         MOV     A,#-0x16
   \   000002   12....       LCALL   ?BANKED_ENTER_XDATA
   \   000005                ; Saved register size: 22
   \   000005                ; Auto size: 14
   \   000005   74F2         MOV     A,#-0xe
   \   000007   12....       LCALL   ?ALLOC_XSTACK8
   \   00000A   EA           MOV     A,R2
   \   00000B   FE           MOV     R6,A
   \   00000C   EB           MOV     A,R3
   \   00000D   FF           MOV     R7,A
    437            uint8 cmdId, dataLen = 0;
    438            uint8 retValue = ZFailure;
   \   00000E   85..82       MOV     DPL,?XSP + 0
   \   000011   85..83       MOV     DPH,?XSP + 1
   \   000014   7401         MOV     A,#0x1
   \   000016   12....       LCALL   ?Subroutine27 & 0xFFFF
    439            endPointDesc_t *epDesc;
    440            byte transId;
    441            afAddrType_t dstAddr;
    442            cId_t cId;
    443            byte txOpts, radius, srcEP, relayCnt;
    444            uint16 *pRelayList;
    445            uint8 i;
    446          
    447            /* parse header */
    448            cmdId = pBuf[MT_RPC_POS_CMD1];
   \                     ??CrossCallReturnLabel_35:
   \   000019   A3           INC     DPTR
   \   00001A   E0           MOVX    A,@DPTR
   \   00001B   F5..         MOV     ?V0 + 4,A
    449            pBuf += MT_RPC_FRAME_HDR_SZ;
   \   00001D   EE           MOV     A,R6
   \   00001E   2403         ADD     A,#0x3
   \   000020   0E           INC     R6
   \   000021   0E           INC     R6
   \   000022   0E           INC     R6
   \   000023   EF           MOV     A,R7
   \   000024   3400         ADDC    A,#0x0
   \   000026   FF           MOV     R7,A
    450          
    451            /* Destination address */
    452            /* Initialize the panID field to zero to avoid inter-pan */
    453            osal_memset( &dstAddr, 0, sizeof(afAddrType_t) );
   \   000027                ; Setup parameters for call to function osal_memset
   \   000027   7C0C         MOV     R4,#0xc
   \   000029   7D00         MOV     R5,#0x0
   \   00002B   7900         MOV     R1,#0x0
   \   00002D   7402         MOV     A,#0x2
   \   00002F   12....       LCALL   ?XSTACK_DISP0_8
   \   000032   AA82         MOV     R2,DPL
   \   000034   AB83         MOV     R3,DPH
   \   000036   12....       LCALL   ??osal_memset?relay
    454            dstAddr.addrMode = afAddr16Bit;
   \   000039   740A         MOV     A,#0xa
   \   00003B   12....       LCALL   ?XSTACK_DISP0_8
   \   00003E   7402         MOV     A,#0x2
   \   000040   F0           MOVX    @DPTR,A
    455            dstAddr.addr.shortAddr = BUILD_UINT16(pBuf[0], pBuf[1]);
   \   000041   8E82         MOV     DPL,R6
   \   000043   8F83         MOV     DPH,R7
   \   000045   12....       LCALL   ?Subroutine11 & 0xFFFF
   \                     ??CrossCallReturnLabel_9:
   \   000048   12....       LCALL   ?XSTACK_DISP0_8
   \   00004B   12....       LCALL   ?Subroutine31 & 0xFFFF
    456            pBuf += 2;
   \                     ??CrossCallReturnLabel_48:
   \   00004E   12....       LCALL   ?Subroutine18 & 0xFFFF
    457          
    458            /* Destination endpoint */
    459            dstAddr.endPoint = *pBuf++;
   \                     ??CrossCallReturnLabel_84:
   \   000051   C0E0         PUSH    A
   \   000053   740B         MOV     A,#0xb
   \   000055   12....       LCALL   ?XSTACK_DISP0_8
   \   000058   D0E0         POP     A
   \   00005A   12....       LCALL   ?Subroutine27 & 0xFFFF
    460          
    461            /* Source endpoint */
    462            srcEP = *pBuf++;
   \                     ??CrossCallReturnLabel_36:
   \   00005D   E0           MOVX    A,@DPTR
   \   00005E   F9           MOV     R1,A
   \   00005F   A3           INC     DPTR
   \   000060   AE82         MOV     R6,DPL
   \   000062   AF83         MOV     R7,DPH
    463            epDesc = afFindEndPointDesc( srcEP );
   \   000064                ; Setup parameters for call to function afFindEndPointDesc
   \   000064   12....       LCALL   ??afFindEndPointDesc?relay
   \   000067   8A..         MOV     ?V0 + 2,R2
   \   000069   8B..         MOV     ?V0 + 3,R3
    464          
    465            /* ClusterId */
    466            cId = BUILD_UINT16(pBuf[0], pBuf[1]);
   \   00006B   12....       LCALL   ?Subroutine10 & 0xFFFF
   \                     ??CrossCallReturnLabel_88:
   \   00006E   F5..         MOV     ?V0 + 6,A
   \   000070   E4           CLR     A
   \   000071   39           ADDC    A,R1
   \   000072   F5..         MOV     ?V0 + 7,A
    467            pBuf +=2;
   \   000074   12....       LCALL   ?Subroutine18 & 0xFFFF
    468          
    469            /* TransId */
    470            transId = *pBuf++;
   \                     ??CrossCallReturnLabel_85:
   \   000077   C0E0         PUSH    A
   \   000079   7401         MOV     A,#0x1
   \   00007B   12....       LCALL   ?XSTACK_DISP0_8
   \   00007E   D0E0         POP     A
   \   000080   12....       LCALL   ?Subroutine27 & 0xFFFF
    471          
    472            /* TxOption */
    473            txOpts = *pBuf++;
   \                     ??CrossCallReturnLabel_37:
   \   000083   E0           MOVX    A,@DPTR
   \   000084   F5..         MOV     ?V0 + 5,A
   \   000086   A3           INC     DPTR
    474          
    475            /* Radius */
    476            radius = *pBuf++;
   \   000087   E0           MOVX    A,@DPTR
   \   000088   F5..         MOV     ?V0 + 10,A
   \   00008A   A3           INC     DPTR
    477          
    478            /* Source route relay count */
    479            relayCnt = *pBuf++;
   \   00008B   E0           MOVX    A,@DPTR
   \   00008C   F5..         MOV     ?V0 + 11,A
   \   00008E   A3           INC     DPTR
   \   00008F   AE82         MOV     R6,DPL
   \   000091   AF83         MOV     R7,DPH
    480          
    481            /* Convert the source route relay list */
    482            if( (pRelayList = osal_mem_alloc( relayCnt * sizeof( uint16 ))) != NULL )
   \   000093                ; Setup parameters for call to function osal_mem_alloc
   \   000093   C3           CLR     C
   \   000094   33           RLC     A
   \   000095   FA           MOV     R2,A
   \   000096   E4           CLR     A
   \   000097   33           RLC     A
   \   000098   FB           MOV     R3,A
   \   000099   12....       LCALL   ??osal_mem_alloc?relay
   \   00009C   8A..         MOV     ?V0 + 0,R2
   \   00009E   8B..         MOV     ?V0 + 1,R3
   \   0000A0   EA           MOV     A,R2
   \   0000A1   45..         ORL     A,?V0 + 1
   \   0000A3   7003         JNZ     $+5
   \   0000A5   02....       LJMP    ??MT_AfDataRequestSrcRtg_0 & 0xFFFF
    483            {
    484              for( i = 0; i < relayCnt; i++ )
   \   0000A8   7C00         MOV     R4,#0x0
   \   0000AA   802C         SJMP    ??MT_AfDataRequestSrcRtg_1
    485              {
    486                pRelayList[i]  = BUILD_UINT16( pBuf[0], pBuf[1] );
   \                     ??MT_AfDataRequestSrcRtg_2:
   \   0000AC   FA           MOV     R2,A
   \   0000AD   8882         MOV     DPL,R0
   \   0000AF   8983         MOV     DPH,R1
   \   0000B1   E0           MOVX    A,@DPTR
   \   0000B2   F9           MOV     R1,A
   \   0000B3   EA           MOV     A,R2
   \   0000B4   2400         ADD     A,#0x0
   \   0000B6   E4           CLR     A
   \   0000B7   39           ADDC    A,R1
   \   0000B8   FB           MOV     R3,A
   \   0000B9   EC           MOV     A,R4
   \   0000BA   33           RLC     A
   \   0000BB   F8           MOV     R0,A
   \   0000BC   E4           CLR     A
   \   0000BD   33           RLC     A
   \   0000BE   F9           MOV     R1,A
   \   0000BF   E5..         MOV     A,?V0 + 0
   \   0000C1   28           ADD     A,R0
   \   0000C2   F582         MOV     DPL,A
   \   0000C4   E5..         MOV     A,?V0 + 1
   \   0000C6   39           ADDC    A,R1
   \   0000C7   F583         MOV     DPH,A
   \   0000C9   EA           MOV     A,R2
   \   0000CA   F0           MOVX    @DPTR,A
   \   0000CB   A3           INC     DPTR
   \   0000CC   EB           MOV     A,R3
   \   0000CD   F0           MOVX    @DPTR,A
    487                pBuf += 2;
   \   0000CE   EE           MOV     A,R6
   \   0000CF   2402         ADD     A,#0x2
   \   0000D1   0E           INC     R6
   \   0000D2   0E           INC     R6
   \   0000D3   EF           MOV     A,R7
   \   0000D4   3400         ADDC    A,#0x0
   \   0000D6   FF           MOV     R7,A
    488              }
   \   0000D7   0C           INC     R4
   \                     ??MT_AfDataRequestSrcRtg_1:
   \   0000D8   8E82         MOV     DPL,R6
   \   0000DA   8F83         MOV     DPH,R7
   \   0000DC   A3           INC     DPTR
   \   0000DD   A882         MOV     R0,DPL
   \   0000DF   A983         MOV     R1,DPH
   \   0000E1   EC           MOV     A,R4
   \   0000E2   C3           CLR     C
   \   0000E3   95..         SUBB    A,?V0 + 11
   \   0000E5   8E82         MOV     DPL,R6
   \   0000E7   8F83         MOV     DPH,R7
   \   0000E9   E0           MOVX    A,@DPTR
   \   0000EA   40C0         JC      ??MT_AfDataRequestSrcRtg_2
    489          
    490              /* Data payload Length */
    491              dataLen = *pBuf++;
   \   0000EC   F5..         MOV     ?V0 + 12,A
   \   0000EE   E8           MOV     A,R0
   \   0000EF   FE           MOV     R6,A
   \   0000F0   E9           MOV     A,R1
   \   0000F1   FF           MOV     R7,A
    492          
    493              if ( epDesc == NULL )
   \   0000F2   E5..         MOV     A,?V0 + 2
   \   0000F4   45..         ORL     A,?V0 + 3
   \   0000F6   700A         JNZ     ??MT_AfDataRequestSrcRtg_3
    494              {
    495                retValue = afStatus_INVALID_PARAMETER;
   \   0000F8   85..82       MOV     DPL,?XSP + 0
   \   0000FB   85..83       MOV     DPH,?XSP + 1
   \   0000FE   7402         MOV     A,#0x2
   \   000100   805B         SJMP    ??MT_AfDataRequestSrcRtg_4
    496              }
    497              else
    498              {
    499                retValue = AF_DataRequestSrcRtg( &dstAddr, epDesc, cId, dataLen, pBuf,
    500                                               &transId, txOpts, radius, relayCnt, pRelayList );
   \                     ??MT_AfDataRequestSrcRtg_3:
   \   000102                ; Setup parameters for call to function AF_DataRequestSrcRtg
   \   000102   78..         MOV     R0,#?V0 + 0
   \   000104   12....       LCALL   ?PUSH_XSTACK_I_TWO
   \   000107   E5..         MOV     A,?V0 + 11
   \   000109   F5..         MOV     ?V0 + 8,A
   \   00010B   78..         MOV     R0,#?V0 + 8
   \   00010D   12....       LCALL   ?PUSH_XSTACK_I_ONE
   \   000110   E5..         MOV     A,?V0 + 10
   \   000112   F5..         MOV     ?V0 + 8,A
   \   000114   78..         MOV     R0,#?V0 + 8
   \   000116   12....       LCALL   ?PUSH_XSTACK_I_ONE
   \   000119   7405         MOV     A,#0x5
   \   00011B   12....       LCALL   ?XSTACK_DISP0_8
   \   00011E   8582..       MOV     ?V0 + 8,DPL
   \   000121   8583..       MOV     ?V0 + 9,DPH
   \   000124   78..         MOV     R0,#?V0 + 8
   \   000126   12....       LCALL   ?PUSH_XSTACK_I_TWO
   \   000129   8E..         MOV     ?V0 + 8,R6
   \   00012B   8F..         MOV     ?V0 + 9,R7
   \   00012D   78..         MOV     R0,#?V0 + 8
   \   00012F   12....       LCALL   ?PUSH_XSTACK_I_TWO
   \   000132   75..00       MOV     ?V0 + 13,#0x0
   \   000135   78..         MOV     R0,#?V0 + 12
   \   000137   12....       LCALL   ?PUSH_XSTACK_I_TWO
   \   00013A   78..         MOV     R0,#?V0 + 6
   \   00013C   12....       LCALL   ?PUSH_XSTACK_I_TWO
   \   00013F   A9..         MOV     R1,?V0 + 5
   \   000141   AC..         MOV     R4,?V0 + 2
   \   000143   AD..         MOV     R5,?V0 + 3
   \   000145   740E         MOV     A,#0xe
   \   000147   12....       LCALL   ?XSTACK_DISP0_8
   \   00014A   AA82         MOV     R2,DPL
   \   00014C   AB83         MOV     R3,DPH
   \   00014E   12....       LCALL   ??AF_DataRequestSrcRtg?relay
   \   000151   740C         MOV     A,#0xc
   \   000153   12....       LCALL   ?DEALLOC_XSTACK8
   \   000156   E9           MOV     A,R1
   \   000157   85..82       MOV     DPL,?XSP + 0
   \   00015A   85..83       MOV     DPH,?XSP + 1
   \                     ??MT_AfDataRequestSrcRtg_4:
   \   00015D   F0           MOVX    @DPTR,A
    501              }
    502          
    503              /* Free the memory allocated */
    504              osal_mem_free( pRelayList );
   \   00015E                ; Setup parameters for call to function osal_mem_free
   \   00015E   AA..         MOV     R2,?V0 + 0
   \   000160   AB..         MOV     R3,?V0 + 1
   \   000162   12....       LCALL   ??osal_mem_free?relay
   \   000165   8009         SJMP    ??MT_AfDataRequestSrcRtg_5
    505            }
    506            else
    507            {
    508              retValue = afStatus_MEM_FAIL;
   \                     ??MT_AfDataRequestSrcRtg_0:
   \   000167   85..82       MOV     DPL,?XSP + 0
   \   00016A   85..83       MOV     DPH,?XSP + 1
   \   00016D   7410         MOV     A,#0x10
   \   00016F   F0           MOVX    @DPTR,A
    509            }
    510          
    511          
    512            /* Build and send back the response */
    513            MT_BuildAndSendZToolResponse(((uint8)MT_RPC_CMD_SRSP | (uint8)MT_RPC_SYS_AF), cmdId, 1, &retValue);
   \                     ??MT_AfDataRequestSrcRtg_5:
   \   000170                ; Setup parameters for call to function MT_BuildAndSendZToolResponse
   \   000170   85..82       MOV     DPL,?XSP + 0
   \   000173   85..83       MOV     DPH,?XSP + 1
   \   000176   AC82         MOV     R4,DPL
   \   000178   AD83         MOV     R5,DPH
   \   00017A   7B01         MOV     R3,#0x1
   \   00017C   AA..         MOV     R2,?V0 + 4
   \   00017E   7964         MOV     R1,#0x64
   \   000180   12....       LCALL   ??MT_BuildAndSendZToolResponse?relay
    514          }
   \   000183   02....       LJMP    ?Subroutine2 & 0xFFFF

   \                                 In  segment BANKED_CODE, align 1, keep-with-next
   \                     ?Subroutine27:
   \   000000   F0           MOVX    @DPTR,A
   \   000001   8E82         MOV     DPL,R6
   \   000003   8F83         MOV     DPH,R7
   \   000005   A3           INC     DPTR
   \   000006   22           RET

   \                                 In  segment BANKED_CODE, align 1, keep-with-next
   \                     ?Subroutine18:
   \   000000   EE           MOV     A,R6
   \   000001   2402         ADD     A,#0x2
   \   000003                REQUIRE ??Subroutine50_0
   \   000003                ; // Fall through to label ??Subroutine50_0

   \                                 In  segment BANKED_CODE, align 1, keep-with-next
   \                     ??Subroutine50_0:
   \   000000   0E           INC     R6
   \   000001   0E           INC     R6
   \   000002   EF           MOV     A,R7
   \   000003   3400         ADDC    A,#0x0
   \   000005   FF           MOV     R7,A
   \   000006   8E82         MOV     DPL,R6
   \   000008   8F83         MOV     DPH,R7
   \   00000A   E0           MOVX    A,@DPTR
   \   00000B   22           RET

   \                                 In  segment BANKED_CODE, align 1, keep-with-next
   \                     ?Subroutine10:
   \   000000   8E82         MOV     DPL,R6
   \   000002   8F83         MOV     DPH,R7
   \   000004                REQUIRE ??Subroutine51_0
   \   000004                ; // Fall through to label ??Subroutine51_0
    515          #endif
    516          
    517          #if defined INTER_PAN
    518          /***************************************************************************************************
    519           * @fn      MT_AfInterPanCtl
    520           *
    521           * @brief   Process the AF Inter Pan control command.
    522           *
    523           * @param   pBuf - pointer to the received buffer
    524           *
    525           * @return  none
    526           ***************************************************************************************************/
    527          static void MT_AfInterPanCtl(uint8 *pBuf)
    528          {
    529            uint8 cmd, rtrn;
    530            uint16 panId;
    531            endPointDesc_t *pEP;
    532          
    533            cmd = pBuf[MT_RPC_POS_CMD1];
    534            pBuf += MT_RPC_FRAME_HDR_SZ;
    535          
    536            switch (*pBuf++)  // Inter-pan request parameter.
    537            {
    538            case InterPanClr:
    539              rtrn = StubAPS_SetIntraPanChannel();           // Switch channel back to the NIB channel.
    540              break;
    541          
    542            case InterPanSet:
    543              rtrn = StubAPS_SetInterPanChannel(*pBuf);      // Set channel for inter-pan communication.
    544              break;
    545          
    546            case InterPanReg:
    547              if ((pEP = afFindEndPointDesc(*pBuf)))
    548              {
    549                StubAPS_RegisterApp(pEP);
    550                rtrn = SUCCESS;
    551              }
    552              else
    553              {
    554                rtrn = FAILURE;
    555              }
    556              break;
    557          
    558            case InterPanChk:
    559              panId = BUILD_UINT16(pBuf[0], pBuf[1]);
    560              rtrn = (StubAPS_InterPan(panId, pBuf[2])) ? ZSuccess : ZFailure;
    561              break;
    562          
    563            default:
    564              rtrn = afStatus_INVALID_PARAMETER;
    565              break;
    566            }
    567          
    568            MT_BuildAndSendZToolResponse(((uint8)MT_RPC_CMD_SRSP | (uint8)MT_RPC_SYS_AF), cmd, 1, &rtrn);
    569          }
    570          #endif
    571          
    572          /***************************************************************************************************
    573           * @fn      MT_AfDataConfirm
    574           *
    575           * @brief   Process
    576           *
    577           * @param   pBuf - pointer to the received buffer
    578           *
    579           * @return  none
    580           ***************************************************************************************************/

   \                                 In  segment BANKED_CODE, align 1, keep-with-next
    581          void MT_AfDataConfirm(afDataConfirm_t *pMsg)
   \                     MT_AfDataConfirm:
    582          {
   \   000000   C082         PUSH    DPL
   \   000002   C083         PUSH    DPH
   \   000004                ; Saved register size: 2
   \   000004                ; Auto size: 3
   \   000004   74FD         MOV     A,#-0x3
   \   000006   12....       LCALL   ?ALLOC_XSTACK8
    583            uint8 retArray[3];
    584          
    585            retArray[0] = pMsg->hdr.status;
   \   000009   8A82         MOV     DPL,R2
   \   00000B   8B83         MOV     DPH,R3
   \   00000D   A3           INC     DPTR
   \   00000E   E0           MOVX    A,@DPTR
   \   00000F   85..82       MOV     DPL,?XSP + 0
   \   000012   85..83       MOV     DPH,?XSP + 1
   \   000015   12....       LCALL   ?Subroutine28 & 0xFFFF
    586            retArray[1] = pMsg->endpoint;
   \                     ??CrossCallReturnLabel_39:
   \   000018   C0E0         PUSH    A
   \   00001A   7401         MOV     A,#0x1
   \   00001C   12....       LCALL   ?XSTACK_DISP0_8
   \   00001F   D0E0         POP     A
   \   000021   12....       LCALL   ?Subroutine29 & 0xFFFF
    587            retArray[2] = pMsg->transID;
   \                     ??CrossCallReturnLabel_41:
   \   000024   A3           INC     DPTR
   \   000025   A3           INC     DPTR
   \   000026   E0           MOVX    A,@DPTR
   \   000027   C0E0         PUSH    A
   \   000029   7402         MOV     A,#0x2
   \   00002B   12....       LCALL   ?XSTACK_DISP0_8
   \   00002E   D0E0         POP     A
   \   000030   12....       LCALL   ?Subroutine24 & 0xFFFF
    588          
    589            /* Build and send back the response */
    590            MT_BuildAndSendZToolResponse(((uint8)MT_RPC_CMD_AREQ | (uint8)MT_RPC_SYS_AF), MT_AF_DATA_CONFIRM, 3, retArray);
   \                     ??CrossCallReturnLabel_28:
   \   000033   7B03         MOV     R3,#0x3
   \   000035   7A80         MOV     R2,#-0x80
   \   000037   7944         MOV     R1,#0x44
   \   000039   12....       LCALL   ??MT_BuildAndSendZToolResponse?relay
    591          }
   \   00003C   7403         MOV     A,#0x3
   \   00003E   12....       LCALL   ?DEALLOC_XSTACK8
   \   000041   D083         POP     DPH
   \   000043   D082         POP     DPL
   \   000045   02....       LJMP    ?BRET

   \                                 In  segment BANKED_CODE, align 1, keep-with-next
   \                     ?Subroutine24:
   \   000000   F0           MOVX    @DPTR,A
   \   000001                ; Setup parameters for call to function MT_BuildAndSendZToolResponse
   \   000001                ; Setup parameters for call to function MT_BuildAndSendZToolResponse
   \   000001   85..82       MOV     DPL,?XSP + 0
   \   000004   85..83       MOV     DPH,?XSP + 1
   \   000007   AC82         MOV     R4,DPL
   \   000009   AD83         MOV     R5,DPH
   \   00000B   22           RET
    592          
    593          /***************************************************************************************************
    594           * @fn          MT_AfIncomingMsg
    595           *
    596           * @brief       Process the callback subscription for AF Incoming data.
    597           *
    598           * @param       pkt - Incoming AF data.
    599           *
    600           * @return      none
    601           ***************************************************************************************************/

   \                                 In  segment BANKED_CODE, align 1, keep-with-next
    602          void MT_AfIncomingMsg(afIncomingMSGPacket_t *pMsg)
   \                     MT_AfIncomingMsg:
    603          {
   \   000000   74E8         MOV     A,#-0x18
   \   000002   12....       LCALL   ?BANKED_ENTER_XDATA
   \   000005                ; Saved register size: 24
   \   000005                ; Auto size: 1
   \   000005   74FF         MOV     A,#-0x1
   \   000007   12....       LCALL   ?ALLOC_XSTACK8
   \   00000A   8A..         MOV     ?V0 + 8,R2
   \   00000C   8B..         MOV     ?V0 + 9,R3
    604            #define MT_AF_INC_MSG_LEN  17
    605            #define MT_AF_INC_MSG_EXT  10
    606          
    607            uint16 dataLen = pMsg->cmd.DataLength;  // Length of the data section in the response packet.
   \   00000E   EA           MOV     A,R2
   \   00000F   2420         ADD     A,#0x20
   \   000011   F582         MOV     DPL,A
   \   000013   EB           MOV     A,R3
   \   000014   3400         ADDC    A,#0x0
   \   000016   F583         MOV     DPH,A
   \   000018   E0           MOVX    A,@DPTR
   \   000019   FE           MOV     R6,A
   \   00001A   A3           INC     DPTR
   \   00001B   E0           MOVX    A,@DPTR
   \   00001C   FF           MOV     R7,A
    608            uint16 respLen = MT_AF_INC_MSG_LEN + dataLen;
   \   00001D   EE           MOV     A,R6
   \   00001E   2411         ADD     A,#0x11
   \   000020   F5..         MOV     ?V0 + 0,A
   \   000022   EF           MOV     A,R7
   \   000023   3400         ADDC    A,#0x0
   \   000025   F5..         MOV     ?V0 + 1,A
    609            uint8 cmd = MT_AF_INCOMING_MSG;
   \   000027   85..82       MOV     DPL,?XSP + 0
   \   00002A   85..83       MOV     DPH,?XSP + 1
   \   00002D   7481         MOV     A,#-0x7f
   \   00002F   F0           MOVX    @DPTR,A
    610            uint8 *pRsp, *pTmp;
    611            mtAfInMsgList_t *pItem = NULL;
   \   000030   75..00       MOV     ?V0 + 10,#0x0
   \   000033   75..00       MOV     ?V0 + 11,#0x0
    612          
    613          #if defined INTER_PAN
    614            if (StubAPS_InterPan(pMsg->srcAddr.panId, pMsg->srcAddr.endPoint))
    615            {
    616              cmd = MT_AF_INCOMING_MSG_EXT;
    617            }
    618            else
    619          #endif
    620            if ((pMsg->srcAddr.addrMode == afAddr64Bit) ||
    621                (respLen > (uint16)(MT_RPC_DATA_MAX - MT_AF_INC_MSG_EXT)))
   \   000036   EA           MOV     A,R2
   \   000037   240E         ADD     A,#0xe
   \   000039   F5..         MOV     ?V0 + 4,A
   \   00003B   EB           MOV     A,R3
   \   00003C   3400         ADDC    A,#0x0
   \   00003E   F5..         MOV     ?V0 + 5,A
   \   000040   85..82       MOV     DPL,?V0 + 4
   \   000043   F583         MOV     DPH,A
   \   000045   E0           MOVX    A,@DPTR
   \   000046   6403         XRL     A,#0x3
   \   000048   600B         JZ      ??MT_AfIncomingMsg_0
   \   00004A   C3           CLR     C
   \   00004B   E5..         MOV     A,?V0 + 0
   \   00004D   94F1         SUBB    A,#-0xf
   \   00004F   E5..         MOV     A,?V0 + 1
   \   000051   9400         SUBB    A,#0x0
   \   000053   4015         JC      ??MT_AfIncomingMsg_1
    622            {
    623              cmd = MT_AF_INCOMING_MSG_EXT;
   \                     ??MT_AfIncomingMsg_0:
   \   000055   85..82       MOV     DPL,?XSP + 0
   \   000058   85..83       MOV     DPH,?XSP + 1
   \   00005B   7482         MOV     A,#-0x7e
   \   00005D   F0           MOVX    @DPTR,A
    624            }
    625          
    626            if (cmd == MT_AF_INCOMING_MSG_EXT)
    627            {
    628              respLen += MT_AF_INC_MSG_EXT;
   \   00005E   E5..         MOV     A,?V0 + 0
   \   000060   240A         ADD     A,#0xa
   \   000062   F5..         MOV     ?V0 + 0,A
   \   000064   E5..         MOV     A,?V0 + 1
   \   000066   3400         ADDC    A,#0x0
   \   000068   F5..         MOV     ?V0 + 1,A
    629            }
    630          
    631            if (respLen > (uint16)MT_RPC_DATA_MAX)
   \                     ??MT_AfIncomingMsg_1:
   \   00006A   C3           CLR     C
   \   00006B   E5..         MOV     A,?V0 + 0
   \   00006D   94FB         SUBB    A,#-0x5
   \   00006F   E5..         MOV     A,?V0 + 1
   \   000071   9400         SUBB    A,#0x0
   \   000073   402E         JC      ??MT_AfIncomingMsg_2
    632            {
    633              if ((pItem = (mtAfInMsgList_t *)osal_mem_alloc(sizeof(mtAfInMsgList_t) + dataLen)) == NULL)
   \   000075                ; Setup parameters for call to function osal_mem_alloc
   \   000075   EE           MOV     A,R6
   \   000076   2409         ADD     A,#0x9
   \   000078   12....       LCALL   ?Subroutine20 & 0xFFFF
   \                     ??CrossCallReturnLabel_64:
   \   00007B   8A..         MOV     ?V0 + 10,R2
   \   00007D   8B..         MOV     ?V0 + 11,R3
   \   00007F   EA           MOV     A,R2
   \   000080   45..         ORL     A,?V0 + 11
   \   000082   7003         JNZ     $+5
   \   000084   02....       LJMP    ??MT_AfIncomingMsg_3 & 0xFFFF
    634              {
    635                return;  // If cannot hold a huge message, cannot give indication at all.
    636              }
    637          
    638              pItem->data = (uint8 *)(pItem+1);
   \   000087   EA           MOV     A,R2
   \   000088   2409         ADD     A,#0x9
   \   00008A   F8           MOV     R0,A
   \   00008B   EB           MOV     A,R3
   \   00008C   3400         ADDC    A,#0x0
   \   00008E   F9           MOV     R1,A
   \   00008F   8A82         MOV     DPL,R2
   \   000091   8B83         MOV     DPH,R3
   \   000093   A3           INC     DPTR
   \   000094   A3           INC     DPTR
   \   000095   12....       LCALL   ?Subroutine31 & 0xFFFF
    639              respLen -= dataLen;  // Zero data bytes are sent with an over-sized incoming indication.
   \                     ??CrossCallReturnLabel_49:
   \   000098   C3           CLR     C
   \   000099   E5..         MOV     A,?V0 + 0
   \   00009B   9E           SUBB    A,R6
   \   00009C   F5..         MOV     ?V0 + 0,A
   \   00009E   E5..         MOV     A,?V0 + 1
   \   0000A0   9F           SUBB    A,R7
   \   0000A1   F5..         MOV     ?V0 + 1,A
    640            }
    641          
    642            // Attempt to allocate memory for the response packet.
    643            if ((pRsp = osal_mem_alloc(respLen)) == NULL)
   \                     ??MT_AfIncomingMsg_2:
   \   0000A3                ; Setup parameters for call to function osal_mem_alloc
   \   0000A3   AA..         MOV     R2,?V0 + 0
   \   0000A5   AB..         MOV     R3,?V0 + 1
   \   0000A7   12....       LCALL   ??osal_mem_alloc?relay
   \   0000AA   8A..         MOV     ?V0 + 14,R2
   \   0000AC   8B..         MOV     ?V0 + 15,R3
   \   0000AE   EA           MOV     A,R2
   \   0000AF   45..         ORL     A,?V0 + 15
   \   0000B1   7010         JNZ     ??MT_AfIncomingMsg_4
    644            {
    645              if (pItem != NULL)
   \   0000B3   E5..         MOV     A,?V0 + 10
   \   0000B5   45..         ORL     A,?V0 + 11
   \   0000B7   7003         JNZ     $+5
   \   0000B9   02....       LJMP    ??MT_AfIncomingMsg_3 & 0xFFFF
    646              {
    647                (void)osal_mem_free(pItem);
   \   0000BC                ; Setup parameters for call to function osal_mem_free
   \   0000BC   AA..         MOV     R2,?V0 + 10
   \   0000BE   AB..         MOV     R3,?V0 + 11
   \   0000C0   02....       LJMP    ??MT_AfIncomingMsg_5 & 0xFFFF
    648              }
    649              return;
    650            }
    651            pTmp = pRsp;
    652          
    653            /* Group ID */
    654            *pTmp++ = LO_UINT16(pMsg->groupId);
   \                     ??MT_AfIncomingMsg_4:
   \   0000C3   E5..         MOV     A,?V0 + 8
   \   0000C5   2402         ADD     A,#0x2
   \   0000C7   F8           MOV     R0,A
   \   0000C8   12....       LCALL   ?Subroutine44 & 0xFFFF
   \                     ??CrossCallReturnLabel_131:
   \   0000CB   E0           MOVX    A,@DPTR
   \   0000CC   8A82         MOV     DPL,R2
   \   0000CE   8B83         MOV     DPH,R3
   \   0000D0   12....       LCALL   ?Subroutine26 & 0xFFFF
    655            *pTmp++ = HI_UINT16(pMsg->groupId);
   \                     ??CrossCallReturnLabel_32:
   \   0000D3   8882         MOV     DPL,R0
   \   0000D5   8983         MOV     DPH,R1
   \   0000D7   A3           INC     DPTR
   \   0000D8   12....       LCALL   ??Subroutine55_0 & 0xFFFF
    656          
    657            /* Cluster ID */
    658            *pTmp++ = LO_UINT16(pMsg->clusterId);
   \                     ??CrossCallReturnLabel_109:
   \   0000DB   2404         ADD     A,#0x4
   \   0000DD   08           INC     R0
   \   0000DE   08           INC     R0
   \   0000DF   12....       LCALL   ?Subroutine44 & 0xFFFF
   \                     ??CrossCallReturnLabel_132:
   \   0000E2   12....       LCALL   ?Subroutine7 & 0xFFFF
    659            *pTmp++ = HI_UINT16(pMsg->clusterId);
   \                     ??CrossCallReturnLabel_0:
   \   0000E5   8882         MOV     DPL,R0
   \   0000E7   8983         MOV     DPH,R1
   \   0000E9   A3           INC     DPTR
   \   0000EA   12....       LCALL   ?Subroutine7 & 0xFFFF
    660          
    661            if (cmd == MT_AF_INCOMING_MSG_EXT)
   \                     ??CrossCallReturnLabel_1:
   \   0000ED   A3           INC     DPTR
   \   0000EE   A882         MOV     R0,DPL
   \   0000F0   A983         MOV     R1,DPH
   \   0000F2   E5..         MOV     A,?V0 + 8
   \   0000F4   240F         ADD     A,#0xf
   \   0000F6   F5..         MOV     ?V0 + 12,A
   \   0000F8   E5..         MOV     A,?V0 + 9
   \   0000FA   3400         ADDC    A,#0x0
   \   0000FC   F5..         MOV     ?V0 + 13,A
   \   0000FE   E5..         MOV     A,?V0 + 8
   \   000100   2406         ADD     A,#0x6
   \   000102   FA           MOV     R2,A
   \   000103   E5..         MOV     A,?V0 + 9
   \   000105   3400         ADDC    A,#0x0
   \   000107   FB           MOV     R3,A
   \   000108   85..82       MOV     DPL,?XSP + 0
   \   00010B   85..83       MOV     DPH,?XSP + 1
   \   00010E   E0           MOVX    A,@DPTR
   \   00010F   6482         XRL     A,#0x82
   \   000111   7062         JNZ     ??MT_AfIncomingMsg_6
    662            {
    663              *pTmp++ = pMsg->srcAddr.addrMode;
   \   000113   85..82       MOV     DPL,?V0 + 4
   \   000116   85..83       MOV     DPH,?V0 + 5
   \   000119   12....       LCALL   ?Subroutine8 & 0xFFFF
   \                     ??CrossCallReturnLabel_2:
   \   00011C   88..         MOV     ?V0 + 2,R0
   \   00011E   89..         MOV     ?V0 + 3,R1
    664          
    665              if (pMsg->srcAddr.addrMode == afAddr64Bit)
   \   000120   85..82       MOV     DPL,?V0 + 4
   \   000123   85..83       MOV     DPH,?V0 + 5
   \   000126   E0           MOVX    A,@DPTR
   \   000127   6403         XRL     A,#0x3
   \   000129   701C         JNZ     ??MT_AfIncomingMsg_7
    666              {
    667                (void)osal_memcpy(pTmp, pMsg->srcAddr.addr.extAddr, Z_EXTADDR_LEN);
   \   00012B                ; Setup parameters for call to function osal_memcpy
   \   00012B   8A..         MOV     ?V0 + 4,R2
   \   00012D   8B..         MOV     ?V0 + 5,R3
   \   00012F   75..00       MOV     ?V0 + 6,#0x0
   \   000132   78..         MOV     R0,#?V0 + 4
   \   000134   12....       LCALL   ?PUSH_XSTACK_I_THREE
   \   000137   7C08         MOV     R4,#0x8
   \   000139   7D00         MOV     R5,#0x0
   \   00013B   AA..         MOV     R2,?V0 + 2
   \   00013D   AB..         MOV     R3,?V0 + 3
   \   00013F   12....       LCALL   ??Subroutine56_0 & 0xFFFF
    668              }
   \                     ??CrossCallReturnLabel_118:
   \   000142   12....       LCALL   ?DEALLOC_XSTACK8
   \   000145   8013         SJMP    ??MT_AfIncomingMsg_8
    669              else
    670              {
    671                pTmp[0] = LO_UINT16(pMsg->srcAddr.addr.shortAddr);
   \                     ??MT_AfIncomingMsg_7:
   \   000147   8A82         MOV     DPL,R2
   \   000149   8B83         MOV     DPH,R3
   \   00014B   E0           MOVX    A,@DPTR
   \   00014C   8882         MOV     DPL,R0
   \   00014E   8983         MOV     DPH,R1
   \   000150   12....       LCALL   ?Subroutine29 & 0xFFFF
    672                pTmp[1] = HI_UINT16(pMsg->srcAddr.addr.shortAddr);
    673              }
   \                     ??CrossCallReturnLabel_42:
   \   000153   E0           MOVX    A,@DPTR
   \   000154   8882         MOV     DPL,R0
   \   000156   8983         MOV     DPH,R1
   \   000158   A3           INC     DPTR
   \   000159   F0           MOVX    @DPTR,A
    674              pTmp += Z_EXTADDR_LEN;
   \                     ??MT_AfIncomingMsg_8:
   \   00015A   E5..         MOV     A,?V0 + 2
   \   00015C   2408         ADD     A,#0x8
   \   00015E   F5..         MOV     ?V0 + 2,A
   \   000160   E5..         MOV     A,?V0 + 3
   \   000162   3400         ADDC    A,#0x0
   \   000164   F5..         MOV     ?V0 + 3,A
    675          
    676              *pTmp++ = pMsg->srcAddr.endPoint;
   \   000166   85..82       MOV     DPL,?V0 + 12
   \   000169   85..83       MOV     DPH,?V0 + 13
   \   00016C   12....       LCALL   ?Subroutine8 & 0xFFFF
   \                     ??CrossCallReturnLabel_3:
   \   00016F   A3           INC     DPTR
    677          #if defined INTER_PAN
    678              *pTmp++ = LO_UINT16(pMsg->srcAddr.panId);
    679              *pTmp++ = HI_UINT16(pMsg->srcAddr.panId);
    680          #else
    681              *pTmp++ = 0;
   \   000170   E4           CLR     A
   \   000171   F0           MOVX    @DPTR,A
   \   000172   A3           INC     DPTR
    682              *pTmp++ = 0;
   \   000173   8021         SJMP    ??MT_AfIncomingMsg_9
    683          #endif
    684            }
    685            else
    686            {
    687              /* Source Address */
    688              *pTmp++ = LO_UINT16(pMsg->srcAddr.addr.shortAddr);
   \                     ??MT_AfIncomingMsg_6:
   \   000175   8A82         MOV     DPL,R2
   \   000177   8B83         MOV     DPH,R3
   \   000179   12....       LCALL   ?Subroutine8 & 0xFFFF
    689              *pTmp++ = HI_UINT16(pMsg->srcAddr.addr.shortAddr);
   \                     ??CrossCallReturnLabel_4:
   \   00017C   8A82         MOV     DPL,R2
   \   00017E   8B83         MOV     DPH,R3
   \   000180   A3           INC     DPTR
   \   000181   E0           MOVX    A,@DPTR
   \   000182   8882         MOV     DPL,R0
   \   000184   8983         MOV     DPH,R1
   \   000186   12....       LCALL   ?Subroutine26 & 0xFFFF
    690          
    691              /* Source EP */
    692              *pTmp++ = pMsg->srcAddr.endPoint;
   \                     ??CrossCallReturnLabel_33:
   \   000189   85..82       MOV     DPL,?V0 + 12
   \   00018C   85..83       MOV     DPH,?V0 + 13
   \   00018F   E0           MOVX    A,@DPTR
   \   000190   85..82       MOV     DPL,?V0 + 2
   \   000193   85..83       MOV     DPH,?V0 + 3
    693            }
   \                     ??MT_AfIncomingMsg_9:
   \   000196   12....       LCALL   ?Subroutine25 & 0xFFFF
    694          
    695            /* Destination EP */
    696            *pTmp++ = pMsg->endPoint;
   \                     ??CrossCallReturnLabel_30:
   \   000199   2414         ADD     A,#0x14
   \   00019B   12....       LCALL   ?Subroutine3 & 0xFFFF
    697          
    698            /* WasBroadCast */
    699            *pTmp++ = pMsg->wasBroadcast;
   \                     ??CrossCallReturnLabel_105:
   \   00019E   2415         ADD     A,#0x15
   \   0001A0   12....       LCALL   ?Subroutine3 & 0xFFFF
    700          
    701            /* LinkQuality */
    702            *pTmp++ = pMsg->LinkQuality;
   \                     ??CrossCallReturnLabel_106:
   \   0001A3   2416         ADD     A,#0x16
   \   0001A5   12....       LCALL   ?Subroutine3 & 0xFFFF
    703          
    704            /* SecurityUse */
    705            *pTmp++ = pMsg->SecurityUse;
   \                     ??CrossCallReturnLabel_107:
   \   0001A8   2419         ADD     A,#0x19
   \   0001AA   12....       LCALL   ?Subroutine3 & 0xFFFF
    706          
    707            /* Timestamp */
    708            *pTmp++ = BREAK_UINT32(pMsg->timestamp, 0);
   \                     ??CrossCallReturnLabel_108:
   \   0001AD   241A         ADD     A,#0x1a
   \   0001AF   F5..         MOV     ?V0 + 12,A
   \   0001B1   E5..         MOV     A,?V0 + 9
   \   0001B3   3400         ADDC    A,#0x0
   \   0001B5   F5..         MOV     ?V0 + 13,A
   \   0001B7   85..82       MOV     DPL,?V0 + 12
   \   0001BA   F583         MOV     DPH,A
   \   0001BC   78..         MOV     R0,#?V0 + 4
   \   0001BE   12....       LCALL   ?L_MOV_X
   \   0001C1   12....       LCALL   ?Subroutine21 & 0xFFFF
    709            *pTmp++ = BREAK_UINT32(pMsg->timestamp, 1);
   \                     ??CrossCallReturnLabel_99:
   \   0001C4   12....       LCALL   ?L_MOV_X
   \   0001C7   E5..         MOV     A,?V0 + 5
   \   0001C9   85..82       MOV     DPL,?V0 + 2
   \   0001CC   85..83       MOV     DPH,?V0 + 3
   \   0001CF   12....       LCALL   ??Subroutine54_0 & 0xFFFF
    710            *pTmp++ = BREAK_UINT32(pMsg->timestamp, 2);
   \                     ??CrossCallReturnLabel_101:
   \   0001D2   12....       LCALL   ?L_MOV_X
   \   0001D5   7410         MOV     A,#0x10
   \   0001D7   78..         MOV     R0,#?V0 + 4
   \   0001D9   12....       LCALL   ?UL_SHR
   \   0001DC   12....       LCALL   ?Subroutine21 & 0xFFFF
    711            *pTmp++ = BREAK_UINT32(pMsg->timestamp, 3);
   \                     ??CrossCallReturnLabel_100:
   \   0001DF   12....       LCALL   ?L_MOV_X
   \   0001E2   7418         MOV     A,#0x18
   \   0001E4   78..         MOV     R0,#?V0 + 4
   \   0001E6   12....       LCALL   ?UL_SHR
   \   0001E9   85..82       MOV     DPL,?V0 + 2
   \   0001EC   85..83       MOV     DPH,?V0 + 3
   \   0001EF   E5..         MOV     A,?V0 + 4
   \   0001F1   12....       LCALL   ?Subroutine26 & 0xFFFF
    712          
    713          
    714            /* Data Length */
    715            if (cmd == MT_AF_INCOMING_MSG_EXT)
   \                     ??CrossCallReturnLabel_34:
   \   0001F4   A3           INC     DPTR
   \   0001F5   A882         MOV     R0,DPL
   \   0001F7   A983         MOV     R1,DPH
   \   0001F9   85..82       MOV     DPL,?XSP + 0
   \   0001FC   85..83       MOV     DPH,?XSP + 1
   \   0001FF   E0           MOVX    A,@DPTR
   \   000200   6482         XRL     A,#0x82
   \   000202   7012         JNZ     ??MT_AfIncomingMsg_10
    716            {
    717              /* Z-Tool apparently takes the last Byte before the data buffer as the dynamic length and
    718               * ignores the bigger UInt16 length of an EXT incoming message. But no data bytes will be sent
    719               * with a huge message, so it's necessary to work-around and fake-out Z-Tool with a zero here.
    720               */
    721              *pTmp++ = 0;  // TODO - workaround Z-Tool shortcoming; should be: = pMsg->cmd.TransSeqNumber;
   \   000204   85..82       MOV     DPL,?V0 + 2
   \   000207   85..83       MOV     DPH,?V0 + 3
   \   00020A   E4           CLR     A
   \   00020B   F0           MOVX    @DPTR,A
    722              *pTmp++ = LO_UINT16(dataLen);
   \   00020C   EE           MOV     A,R6
   \   00020D   8882         MOV     DPL,R0
   \   00020F   8983         MOV     DPH,R1
   \   000211   F0           MOVX    @DPTR,A
   \   000212   A3           INC     DPTR
    723              *pTmp++ = HI_UINT16(dataLen);
   \   000213   EF           MOV     A,R7
   \   000214   8014         SJMP    ??MT_AfIncomingMsg_11
    724            }
    725            else
    726            {
    727              *pTmp++ = pMsg->cmd.TransSeqNumber;
   \                     ??MT_AfIncomingMsg_10:
   \   000216   E5..         MOV     A,?V0 + 8
   \   000218   241F         ADD     A,#0x1f
   \   00021A   F582         MOV     DPL,A
   \   00021C   E5..         MOV     A,?V0 + 9
   \   00021E   3400         ADDC    A,#0x0
   \   000220   F583         MOV     DPH,A
   \   000222   12....       LCALL   ?Subroutine8 & 0xFFFF
    728              *pTmp++ = dataLen;
   \                     ??CrossCallReturnLabel_5:
   \   000225   EE           MOV     A,R6
   \   000226   8882         MOV     DPL,R0
   \   000228   8983         MOV     DPH,R1
    729            }
   \                     ??MT_AfIncomingMsg_11:
   \   00022A   12....       LCALL   ?Subroutine25 & 0xFFFF
    730          
    731            /* Data */
    732            if (pItem != NULL)
   \                     ??CrossCallReturnLabel_31:
   \   00022D   2422         ADD     A,#0x22
   \   00022F   F5..         MOV     ?V0 + 4,A
   \   000231   E5..         MOV     A,?V0 + 9
   \   000233   3400         ADDC    A,#0x0
   \   000235   F5..         MOV     ?V0 + 5,A
   \   000237   E5..         MOV     A,?V0 + 10
   \   000239   45..         ORL     A,?V0 + 11
   \   00023B   605C         JZ      ??MT_AfIncomingMsg_12
    733            {
    734              // Enqueue the new huge incoming item.
    735              pItem->next = pMtAfInMsgList;
   \   00023D   90....       MOV     DPTR,#pMtAfInMsgList
   \   000240   12....       LCALL   ?Subroutine37 & 0xFFFF
   \                     ??CrossCallReturnLabel_81:
   \   000243   85..82       MOV     DPL,?V0 + 10
   \   000246   85..83       MOV     DPH,?V0 + 11
   \   000249   12....       LCALL   ?Subroutine31 & 0xFFFF
    736              pMtAfInMsgList = pItem;
   \                     ??CrossCallReturnLabel_50:
   \   00024C   90....       MOV     DPTR,#pMtAfInMsgList
   \   00024F   E5..         MOV     A,?V0 + 10
   \   000251   F0           MOVX    @DPTR,A
   \   000252   A3           INC     DPTR
   \   000253   E5..         MOV     A,?V0 + 11
   \   000255   F0           MOVX    @DPTR,A
    737          
    738              // Setup to time-out the huge incoming item if host does not MT_AF_DATA_RETRIEVE it.
    739              pItem->tick = MT_AF_EXEC_CNT;
   \   000256   85..82       MOV     DPL,?V0 + 10
   \   000259   F583         MOV     DPH,A
   \   00025B   A3           INC     DPTR
   \   00025C   A3           INC     DPTR
   \   00025D   A3           INC     DPTR
   \   00025E   A3           INC     DPTR
   \   00025F   A3           INC     DPTR
   \   000260   A3           INC     DPTR
   \   000261   A3           INC     DPTR
   \   000262   A3           INC     DPTR
   \   000263   12....       LCALL   ?Subroutine12 & 0xFFFF
    740              if (ZSuccess != osal_start_timerEx(MT_TaskID, MT_AF_EXEC_EVT, MT_AF_EXEC_DLY))
   \                     ??CrossCallReturnLabel_72:
   \   000266   6003         JZ      ??CrossCallReturnLabel_18
    741              {
    742                (void)osal_set_event(MT_TaskID, MT_AF_EXEC_EVT);
   \   000268                ; Setup parameters for call to function osal_set_event
   \   000268   12....       LCALL   ?Subroutine16 & 0xFFFF
    743              }
    744          
    745              pItem->timestamp = pMsg->timestamp;
   \                     ??CrossCallReturnLabel_18:
   \   00026B   85..82       MOV     DPL,?V0 + 12
   \   00026E   85..83       MOV     DPH,?V0 + 13
   \   000271   12....       LCALL   ?XLOAD_R2345
   \   000274   85..82       MOV     DPL,?V0 + 10
   \   000277   85..83       MOV     DPH,?V0 + 11
   \   00027A   A3           INC     DPTR
   \   00027B   A3           INC     DPTR
   \   00027C   A3           INC     DPTR
   \   00027D   A3           INC     DPTR
   \   00027E   12....       LCALL   ?XSTORE_R2345
    746              (void)osal_memcpy(pItem->data, pMsg->cmd.Data, dataLen);
   \   000281                ; Setup parameters for call to function osal_memcpy
   \   000281   12....       LCALL   ?Subroutine13 & 0xFFFF
    747            }
   \                     ??CrossCallReturnLabel_10:
   \   000284   12....       LCALL   ?PUSH_XSTACK_I_THREE
   \   000287   EE           MOV     A,R6
   \   000288   FC           MOV     R4,A
   \   000289   EF           MOV     A,R7
   \   00028A   FD           MOV     R5,A
   \   00028B   85..82       MOV     DPL,?V0 + 10
   \   00028E   85..83       MOV     DPH,?V0 + 11
   \   000291   A3           INC     DPTR
   \   000292   A3           INC     DPTR
   \   000293   12....       LCALL   ??Subroutine53_0 & 0xFFFF
   \                     ??CrossCallReturnLabel_94:
   \   000296   FB           MOV     R3,A
   \   000297   800E         SJMP    ??MT_AfIncomingMsg_13
    748            else
    749            {
    750              (void)osal_memcpy(pTmp, pMsg->cmd.Data, dataLen);
   \                     ??MT_AfIncomingMsg_12:
   \   000299                ; Setup parameters for call to function osal_memcpy
   \   000299   12....       LCALL   ?Subroutine13 & 0xFFFF
    751            }
   \                     ??CrossCallReturnLabel_11:
   \   00029C   12....       LCALL   ?PUSH_XSTACK_I_THREE
   \   00029F   EE           MOV     A,R6
   \   0002A0   FC           MOV     R4,A
   \   0002A1   EF           MOV     A,R7
   \   0002A2   FD           MOV     R5,A
   \   0002A3   AA..         MOV     R2,?V0 + 2
   \   0002A5   AB..         MOV     R3,?V0 + 3
   \                     ??MT_AfIncomingMsg_13:
   \   0002A7   12....       LCALL   ??Subroutine56_0 & 0xFFFF
   \                     ??CrossCallReturnLabel_119:
   \   0002AA   12....       LCALL   ?DEALLOC_XSTACK8
    752          
    753            /* Build and send back the response */
    754            MT_BuildAndSendZToolResponse(((uint8)MT_RPC_CMD_AREQ|(uint8)MT_RPC_SYS_AF), cmd, respLen, pRsp);
   \   0002AD                ; Setup parameters for call to function MT_BuildAndSendZToolResponse
   \   0002AD   AC..         MOV     R4,?V0 + 14
   \   0002AF   AD..         MOV     R5,?V0 + 15
   \   0002B1   AB..         MOV     R3,?V0 + 0
   \   0002B3   85..82       MOV     DPL,?XSP + 0
   \   0002B6   85..83       MOV     DPH,?XSP + 1
   \   0002B9   E0           MOVX    A,@DPTR
   \   0002BA   FA           MOV     R2,A
   \   0002BB   7944         MOV     R1,#0x44
   \   0002BD   12....       LCALL   ??MT_BuildAndSendZToolResponse?relay
    755          
    756            (void)osal_mem_free(pRsp);
   \   0002C0                ; Setup parameters for call to function osal_mem_free
   \   0002C0   AA..         MOV     R2,?V0 + 14
   \   0002C2   AB..         MOV     R3,?V0 + 15
   \                     ??MT_AfIncomingMsg_5:
   \   0002C4   12....       LCALL   ??osal_mem_free?relay
    757          }
   \                     ??MT_AfIncomingMsg_3:
   \   0002C7   7401         MOV     A,#0x1
   \   0002C9   12....       LCALL   ?DEALLOC_XSTACK8
   \   0002CC   7F10         MOV     R7,#0x10
   \   0002CE   02....       LJMP    ?BANKED_LEAVE_XDATA

   \                                 In  segment BANKED_CODE, align 1, keep-with-next
   \                     ?Subroutine44:
   \   000000   E5..         MOV     A,?V0 + 9
   \   000002                REQUIRE ??Subroutine52_0
   \   000002                ; // Fall through to label ??Subroutine52_0

   \                                 In  segment BANKED_CODE, align 1, keep-with-next
   \                     ?Subroutine26:
   \   000000   12....       LCALL   ?Subroutine39 & 0xFFFF
   \                     ??CrossCallReturnLabel_103:
   \   000003   22           RET

   \                                 In  segment BANKED_CODE, align 1, keep-with-next
   \                     ?Subroutine39:
   \   000000   F0           MOVX    @DPTR,A
   \   000001   A3           INC     DPTR
   \   000002   8582..       MOV     ?V0 + 2,DPL
   \   000005   8583..       MOV     ?V0 + 3,DPH
   \   000008   22           RET

   \                                 In  segment BANKED_CODE, align 1, keep-with-next
   \                     ?Subroutine25:
   \   000000   12....       LCALL   ?Subroutine39 & 0xFFFF
   \                     ??CrossCallReturnLabel_102:
   \   000003   E5..         MOV     A,?V0 + 8
   \   000005   22           RET

   \                                 In  segment BANKED_CODE, align 1, keep-with-next
   \                     ?Subroutine21:
   \   000000   85..82       MOV     DPL,?V0 + 2
   \   000003   85..83       MOV     DPH,?V0 + 3
   \   000006   E5..         MOV     A,?V0 + 4
   \   000008                REQUIRE ??Subroutine54_0
   \   000008                ; // Fall through to label ??Subroutine54_0

   \                                 In  segment BANKED_CODE, align 1, keep-with-next
   \                     ??Subroutine54_0:
   \   000000   12....       LCALL   ?Subroutine39 & 0xFFFF
   \                     ??CrossCallReturnLabel_104:
   \   000003   85..82       MOV     DPL,?V0 + 12
   \   000006   85..83       MOV     DPH,?V0 + 13
   \   000009   78..         MOV     R0,#?V0 + 4
   \   00000B   22           RET

   \                                 In  segment BANKED_CODE, align 1, keep-with-next
   \                     ?Subroutine13:
   \   000000   85..82       MOV     DPL,?V0 + 4
   \   000003   85..83       MOV     DPH,?V0 + 5
   \   000006   12....       LCALL   ?Subroutine35 & 0xFFFF
   \                     ??CrossCallReturnLabel_56:
   \   000009   78..         MOV     R0,#?V0 + 4
   \   00000B   22           RET

   \                                 In  segment BANKED_CODE, align 1, keep-with-next
   \                     ?Subroutine8:
   \   000000   12....       LCALL   ?Subroutine43 & 0xFFFF
   \                     ??CrossCallReturnLabel_112:
   \   000003   22           RET

   \                                 In  segment BANKED_CODE, align 1, keep-with-next
   \                     ?Subroutine43:
   \   000000   E0           MOVX    A,@DPTR
   \   000001   85..82       MOV     DPL,?V0 + 2
   \   000004   85..83       MOV     DPH,?V0 + 3
   \   000007   F0           MOVX    @DPTR,A
   \   000008   22           RET

   \                                 In  segment BANKED_CODE, align 1, keep-with-next
   \                     ?Subroutine7:
   \   000000   12....       LCALL   ?Subroutine34 & 0xFFFF
   \                     ??CrossCallReturnLabel_110:
   \   000003   22           RET

   \                                 In  segment BANKED_CODE, align 1, keep-with-next
   \                     ?Subroutine34:
   \   000000   12....       LCALL   ?Subroutine43 & 0xFFFF
   \                     ??CrossCallReturnLabel_113:
   \   000003   A3           INC     DPTR
   \   000004   8582..       MOV     ?V0 + 2,DPL
   \   000007   8583..       MOV     ?V0 + 3,DPH
   \   00000A   22           RET

   \                                 In  segment BANKED_CODE, align 1, keep-with-next
   \                     ?Subroutine3:
   \   000000   F582         MOV     DPL,A
   \   000002   E5..         MOV     A,?V0 + 9
   \   000004   3400         ADDC    A,#0x0
   \   000006   F583         MOV     DPH,A
   \   000008                REQUIRE ??Subroutine55_0
   \   000008                ; // Fall through to label ??Subroutine55_0

   \                                 In  segment BANKED_CODE, align 1, keep-with-next
   \                     ??Subroutine55_0:
   \   000000   12....       LCALL   ?Subroutine34 & 0xFFFF
   \                     ??CrossCallReturnLabel_111:
   \   000003   E5..         MOV     A,?V0 + 8
   \   000005   22           RET
    758          
    759          /**************************************************************************************************
    760           * @fn          MT_AfDataRetrieve
    761           *
    762           * @brief   Process AF Data Retrieve command to incrementally read out a very large
    763           *          incoming AF message.
    764           *
    765           * input parameters
    766           *
    767           * @param pBuf - pointer to the received buffer
    768           *
    769           * output parameters
    770           *
    771           * @param rtrn - AF-Status of the operation.
    772           *
    773           * @return      None.
    774           **************************************************************************************************
    775           */

   \                                 In  segment BANKED_CODE, align 1, keep-with-next
    776          void MT_AfDataRetrieve(uint8 *pBuf)
   \                     MT_AfDataRetrieve:
    777          {
   \   000000   74EC         MOV     A,#-0x14
   \   000002   12....       LCALL   ?BANKED_ENTER_XDATA
   \   000005                ; Saved register size: 20
   \   000005                ; Auto size: 0
   \   000005   EA           MOV     A,R2
   \   000006   FE           MOV     R6,A
   \   000007   EB           MOV     A,R3
   \   000008   FF           MOV     R7,A
    778            #define MT_AF_RTV_HDR_SZ  2
    779          
    780            uint32 timestamp;
    781            mtAfInMsgList_t *pPrev, *pItem = pMtAfInMsgList;
   \   000009   90....       MOV     DPTR,#pMtAfInMsgList
   \   00000C   E0           MOVX    A,@DPTR
   \   00000D   F5..         MOV     ?V0 + 6,A
   \   00000F   A3           INC     DPTR
   \   000010   E0           MOVX    A,@DPTR
   \   000011   F5..         MOV     ?V0 + 7,A
    782            uint8 rtrn = afStatus_FAILED;
   \   000013   7A01         MOV     R2,#0x1
    783            uint8 len = 0;
   \   000015   75..00       MOV     ?V0 + 4,#0x0
    784          
    785            pBuf += MT_RPC_FRAME_HDR_SZ;
   \   000018   EE           MOV     A,R6
   \   000019   2403         ADD     A,#0x3
   \   00001B   0E           INC     R6
   \   00001C   12....       LCALL   ??Subroutine50_0 & 0xFFFF
    786            timestamp = BUILD_UINT32(pBuf[0], pBuf[1], pBuf[2], pBuf[3]);
   \                     ??CrossCallReturnLabel_86:
   \   00001F   F5..         MOV     ?V0 + 0,A
   \   000021   E4           CLR     A
   \   000022   F5..         MOV     ?V0 + 1,A
   \   000024   F5..         MOV     ?V0 + 2,A
   \   000026   F5..         MOV     ?V0 + 3,A
   \   000028   A3           INC     DPTR
   \   000029   E0           MOVX    A,@DPTR
   \   00002A   F5..         MOV     ?V0 + 8,A
   \   00002C   E4           CLR     A
   \   00002D   F5..         MOV     ?V0 + 9,A
   \   00002F   F5..         MOV     ?V0 + 10,A
   \   000031   F5..         MOV     ?V0 + 11,A
   \   000033   7408         MOV     A,#0x8
   \   000035   78..         MOV     R0,#?V0 + 8
   \   000037   12....       LCALL   ?L_SHL
   \   00003A   78..         MOV     R0,#?V0 + 0
   \   00003C   79..         MOV     R1,#?V0 + 8
   \   00003E   12....       LCALL   ?L_ADD
   \   000041   8E82         MOV     DPL,R6
   \   000043   8F83         MOV     DPH,R7
   \   000045   A3           INC     DPTR
   \   000046   A3           INC     DPTR
   \   000047   E0           MOVX    A,@DPTR
   \   000048   F5..         MOV     ?V0 + 8,A
   \   00004A   E4           CLR     A
   \   00004B   F5..         MOV     ?V0 + 9,A
   \   00004D   7410         MOV     A,#0x10
   \   00004F   78..         MOV     R0,#?V0 + 8
   \   000051   12....       LCALL   ?L_SHL
   \   000054   78..         MOV     R0,#?V0 + 0
   \   000056   79..         MOV     R1,#?V0 + 8
   \   000058   12....       LCALL   ?L_ADD
   \   00005B   8E82         MOV     DPL,R6
   \   00005D   8F83         MOV     DPH,R7
   \   00005F   A3           INC     DPTR
   \   000060   A3           INC     DPTR
   \   000061   A3           INC     DPTR
   \   000062   E0           MOVX    A,@DPTR
   \   000063   F5..         MOV     ?V0 + 8,A
   \   000065   E4           CLR     A
   \   000066   F5..         MOV     ?V0 + 10,A
   \   000068   7418         MOV     A,#0x18
   \   00006A   78..         MOV     R0,#?V0 + 8
   \   00006C   12....       LCALL   ?L_SHL
   \   00006F   78..         MOV     R0,#?V0 + 0
   \   000071   79..         MOV     R1,#?V0 + 8
   \   000073   12....       LCALL   ?L_ADD
   \   000076   800B         SJMP    ??MT_AfDataRetrieve_0
    787          
    788            while (pItem != NULL)
    789            {
    790              pPrev = pItem;
    791              if (pItem->timestamp == timestamp)
    792              {
    793                break;
    794              }
    795              pItem = pItem->next;
   \                     ??MT_AfDataRetrieve_1:
   \   000078   8C82         MOV     DPL,R4
   \   00007A   8D83         MOV     DPH,R5
   \   00007C   E0           MOVX    A,@DPTR
   \   00007D   F5..         MOV     ?V0 + 6,A
   \   00007F   A3           INC     DPTR
   \   000080   E0           MOVX    A,@DPTR
   \   000081   F5..         MOV     ?V0 + 7,A
   \                     ??MT_AfDataRetrieve_0:
   \   000083   E5..         MOV     A,?V0 + 6
   \   000085   45..         ORL     A,?V0 + 7
   \   000087   6057         JZ      ??MT_AfDataRetrieve_2
   \   000089   AC..         MOV     R4,?V0 + 6
   \   00008B   AD..         MOV     R5,?V0 + 7
   \   00008D   8C82         MOV     DPL,R4
   \   00008F   8D83         MOV     DPH,R5
   \   000091   A3           INC     DPTR
   \   000092   A3           INC     DPTR
   \   000093   A3           INC     DPTR
   \   000094   A3           INC     DPTR
   \   000095   78..         MOV     R0,#?V0 + 0
   \   000097   12....       LCALL   ?L_EQ_X
   \   00009A   70DC         JNZ     ??MT_AfDataRetrieve_1
    796            }
    797          
    798            if (pItem != NULL)
    799            {
    800              uint16 idx;
    801              uint8 *pRsp;
    802          
    803              pBuf += 4;
   \   00009C   EE           MOV     A,R6
   \   00009D   2404         ADD     A,#0x4
   \   00009F   FE           MOV     R6,A
   \   0000A0   EF           MOV     A,R7
   \   0000A1   3400         ADDC    A,#0x0
   \   0000A3   FF           MOV     R7,A
    804              idx = BUILD_UINT16(pBuf[0], pBuf[1]);
   \   0000A4   12....       LCALL   ?Subroutine10 & 0xFFFF
   \                     ??CrossCallReturnLabel_89:
   \   0000A7   F5..         MOV     ?V0 + 2,A
   \   0000A9   E4           CLR     A
   \   0000AA   39           ADDC    A,R1
   \   0000AB   F5..         MOV     ?V0 + 3,A
    805              len = pBuf[2];
   \   0000AD   8E82         MOV     DPL,R6
   \   0000AF   8F83         MOV     DPH,R7
   \   0000B1   A3           INC     DPTR
   \   0000B2   A3           INC     DPTR
   \   0000B3   E0           MOVX    A,@DPTR
   \   0000B4   F5..         MOV     ?V0 + 4,A
    806          
    807              if (len == 0)  // Indication to delete the afIncomingMSGPacket.
   \   0000B6   7044         JNZ     ??MT_AfDataRetrieve_3
    808              {
    809                if (pMtAfInMsgList == pItem)
   \   0000B8   8C82         MOV     DPL,R4
   \   0000BA   8D83         MOV     DPH,R5
   \   0000BC   12....       LCALL   ?Subroutine37 & 0xFFFF
   \                     ??CrossCallReturnLabel_82:
   \   0000BF   12....       LCALL   ?Subroutine42 & 0xFFFF
   \                     ??CrossCallReturnLabel_97:
   \   0000C2   FB           MOV     R3,A
   \   0000C3   EC           MOV     A,R4
   \   0000C4   6A           XRL     A,R2
   \   0000C5   7002         JNZ     ??MT_AfDataRetrieve_4
   \   0000C7   ED           MOV     A,R5
   \   0000C8   6B           XRL     A,R3
   \                     ??MT_AfDataRetrieve_4:
   \   0000C9   7005         JNZ     ??MT_AfDataRetrieve_5
    810                {
    811                  pMtAfInMsgList = pItem->next;
   \   0000CB   90....       MOV     DPTR,#pMtAfInMsgList
   \   0000CE   8004         SJMP    ??MT_AfDataRetrieve_6
    812                }
    813                else
    814                {
    815                  pPrev->next = pItem->next;
   \                     ??MT_AfDataRetrieve_5:
   \   0000D0   8C82         MOV     DPL,R4
   \   0000D2   8D83         MOV     DPH,R5
    816                }
   \                     ??MT_AfDataRetrieve_6:
   \   0000D4   12....       LCALL   ?Subroutine31 & 0xFFFF
    817                (void)osal_mem_free(pItem);
   \                     ??CrossCallReturnLabel_51:
   \   0000D7                ; Setup parameters for call to function osal_mem_free
   \   0000D7   AA..         MOV     R2,?V0 + 6
   \   0000D9   AB..         MOV     R3,?V0 + 7
   \   0000DB   12....       LCALL   ??osal_mem_free?relay
    818                rtrn = afStatus_SUCCESS;
   \   0000DE   7A00         MOV     R2,#0x0
    819              }
    820              else if ((pRsp = osal_mem_alloc(len + MT_AF_RTV_HDR_SZ)) == NULL)
    821              {
    822                rtrn = afStatus_MEM_FAIL;
    823                len = 0;
    824              }
    825              else
    826              {
    827                pRsp[0] = ZSuccess;
    828                pRsp[1] = len;
    829                (void)osal_memcpy(pRsp + MT_AF_RTV_HDR_SZ, pItem->data+idx, len);
    830                MT_BuildAndSendZToolResponse(((uint8)MT_RPC_CMD_SRSP | (uint8)MT_RPC_SYS_AF),
    831                                                     MT_AF_DATA_RETRIEVE, len + MT_AF_RTV_HDR_SZ, pRsp);
    832                (void)osal_mem_free(pRsp);
    833                return;
    834              }
    835            }
    836          
    837            pBuf[0] = rtrn;
   \                     ??MT_AfDataRetrieve_2:
   \   0000E0   EA           MOV     A,R2
   \   0000E1   8E82         MOV     DPL,R6
   \   0000E3   8F83         MOV     DPH,R7
   \   0000E5   F0           MOVX    @DPTR,A
    838            pBuf[1] = len;
   \   0000E6   A3           INC     DPTR
   \   0000E7   E5..         MOV     A,?V0 + 4
   \   0000E9   F0           MOVX    @DPTR,A
    839            MT_BuildAndSendZToolResponse(((uint8)MT_RPC_CMD_SRSP | (uint8)MT_RPC_SYS_AF),
    840                                                 MT_AF_DATA_RETRIEVE, MT_AF_RTV_HDR_SZ, pBuf);
   \   0000EA                ; Setup parameters for call to function MT_BuildAndSendZToolResponse
   \   0000EA   EE           MOV     A,R6
   \   0000EB   FC           MOV     R4,A
   \   0000EC   EF           MOV     A,R7
   \   0000ED   FD           MOV     R5,A
   \   0000EE   7B02         MOV     R3,#0x2
   \   0000F0   7A12         MOV     R2,#0x12
   \   0000F2   7964         MOV     R1,#0x64
   \   0000F4   12....       LCALL   ??MT_BuildAndSendZToolResponse?relay
    841          }
   \                     ??MT_AfDataRetrieve_7:
   \   0000F7   7F0C         MOV     R7,#0xc
   \   0000F9   02....       LJMP    ?BANKED_LEAVE_XDATA
   \                     ??MT_AfDataRetrieve_3:
   \   0000FC                ; Setup parameters for call to function osal_mem_alloc
   \   0000FC   2402         ADD     A,#0x2
   \   0000FE   FA           MOV     R2,A
   \   0000FF   E4           CLR     A
   \   000100   12....       LCALL   ??Subroutine46_0 & 0xFFFF
   \                     ??CrossCallReturnLabel_65:
   \   000103   8A..         MOV     ?V0 + 0,R2
   \   000105   8B..         MOV     ?V0 + 1,R3
   \   000107   EA           MOV     A,R2
   \   000108   45..         ORL     A,?V0 + 1
   \   00010A   7007         JNZ     ??MT_AfDataRetrieve_8
   \   00010C   7A10         MOV     R2,#0x10
   \   00010E   75..00       MOV     ?V0 + 4,#0x0
   \   000111   80CD         SJMP    ??MT_AfDataRetrieve_2
   \                     ??MT_AfDataRetrieve_8:
   \   000113   8A82         MOV     DPL,R2
   \   000115   8B83         MOV     DPH,R3
   \   000117   E4           CLR     A
   \   000118   F0           MOVX    @DPTR,A
   \   000119   A3           INC     DPTR
   \   00011A   E5..         MOV     A,?V0 + 4
   \   00011C   F0           MOVX    @DPTR,A
   \   00011D                ; Setup parameters for call to function osal_memcpy
   \   00011D   85..82       MOV     DPL,?V0 + 6
   \   000120   85..83       MOV     DPH,?V0 + 7
   \   000123   A3           INC     DPTR
   \   000124   A3           INC     DPTR
   \   000125   E0           MOVX    A,@DPTR
   \   000126   25..         ADD     A,?V0 + 2
   \   000128   F5..         MOV     ?V0 + 8,A
   \   00012A   A3           INC     DPTR
   \   00012B   E0           MOVX    A,@DPTR
   \   00012C   35..         ADDC    A,?V0 + 3
   \   00012E   F5..         MOV     ?V0 + 9,A
   \   000130   78..         MOV     R0,#?V0 + 8
   \   000132   12....       LCALL   ?PUSH_XSTACK_I_THREE
   \   000135   85....       MOV     ?V0 + 2,?V0 + 4
   \   000138   AC..         MOV     R4,?V0 + 2
   \   00013A   7D00         MOV     R5,#0x0
   \   00013C   EA           MOV     A,R2
   \   00013D   2402         ADD     A,#0x2
   \   00013F   0A           INC     R2
   \   000140   0A           INC     R2
   \   000141   EB           MOV     A,R3
   \   000142   3400         ADDC    A,#0x0
   \   000144   12....       LCALL   ?Subroutine32 & 0xFFFF
   \                     ??CrossCallReturnLabel_114:
   \   000147   12....       LCALL   ?DEALLOC_XSTACK8
   \   00014A                ; Setup parameters for call to function MT_BuildAndSendZToolResponse
   \   00014A   AC..         MOV     R4,?V0 + 0
   \   00014C   AD..         MOV     R5,?V0 + 1
   \   00014E   7402         MOV     A,#0x2
   \   000150   25..         ADD     A,?V0 + 4
   \   000152   FB           MOV     R3,A
   \   000153   7A12         MOV     R2,#0x12
   \   000155   7964         MOV     R1,#0x64
   \   000157   12....       LCALL   ??MT_BuildAndSendZToolResponse?relay
   \   00015A                ; Setup parameters for call to function osal_mem_free
   \   00015A   AA..         MOV     R2,?V0 + 0
   \   00015C   AB..         MOV     R3,?V0 + 1
   \   00015E   12....       LCALL   ??osal_mem_free?relay
   \   000161   8094         SJMP    ??MT_AfDataRetrieve_7

   \                                 In  segment BANKED_CODE, align 1, keep-with-next
   \                     ?Subroutine32:
   \   000000   FB           MOV     R3,A
   \   000001                REQUIRE ??Subroutine56_0
   \   000001                ; // Fall through to label ??Subroutine56_0
    842          
    843          /**************************************************************************************************
    844           * @fn          MT_AfDataStore
    845           *
    846           * @brief   Process AF Data Store command to incrementally store the data buffer for very large
    847           *          outgoing AF message.
    848           *
    849           * input parameters
    850           *
    851           * @param pBuf - pointer to the received buffer
    852           *
    853           * output parameters
    854           *
    855           * @param rtrn - AF-Status of the operation.
    856           *
    857           * @return      None.
    858           **************************************************************************************************
    859           */

   \                                 In  segment BANKED_CODE, align 1, keep-with-next
    860          void MT_AfDataStore(uint8 *pBuf)
   \                     MT_AfDataStore:
    861          {
   \   000000   74F2         MOV     A,#-0xe
   \   000002   12....       LCALL   ?BANKED_ENTER_XDATA
   \   000005                ; Saved register size: 14
   \   000005                ; Auto size: 1
   \   000005   74FF         MOV     A,#-0x1
   \   000007   12....       LCALL   ?ALLOC_XSTACK8
    862            uint16 idx;
    863            uint8 len, rtrn = afStatus_FAILED;
   \   00000A   85..82       MOV     DPL,?XSP + 0
   \   00000D   85..83       MOV     DPH,?XSP + 1
   \   000010   7401         MOV     A,#0x1
   \   000012   F0           MOVX    @DPTR,A
    864          
    865            pBuf += MT_RPC_FRAME_HDR_SZ;
   \   000013   EA           MOV     A,R2
   \   000014   2403         ADD     A,#0x3
   \   000016   0A           INC     R2
   \   000017   0A           INC     R2
   \   000018   0A           INC     R2
   \   000019   EB           MOV     A,R3
   \   00001A   12....       LCALL   ?Subroutine19 & 0xFFFF
    866            idx = BUILD_UINT16(pBuf[0], pBuf[1]);
   \                     ??CrossCallReturnLabel_19:
   \   00001D   F9           MOV     R1,A
   \   00001E   EC           MOV     A,R4
   \   00001F   2400         ADD     A,#0x0
   \   000021   FE           MOV     R6,A
   \   000022   E4           CLR     A
   \   000023   39           ADDC    A,R1
   \   000024   FF           MOV     R7,A
    867            len = pBuf[2];
   \   000025   8A82         MOV     DPL,R2
   \   000027   8B83         MOV     DPH,R3
   \   000029   A3           INC     DPTR
   \   00002A   A3           INC     DPTR
   \   00002B   E0           MOVX    A,@DPTR
   \   00002C   FC           MOV     R4,A
    868            pBuf += 3;
   \   00002D   EA           MOV     A,R2
   \   00002E   2403         ADD     A,#0x3
   \   000030   0A           INC     R2
   \   000031   0A           INC     R2
   \   000032   0A           INC     R2
   \   000033   EB           MOV     A,R3
   \   000034   3400         ADDC    A,#0x0
   \   000036   FB           MOV     R3,A
    869          
    870            if (pMtAfDataReq == NULL)
   \   000037   12....       LCALL   ?Subroutine4 & 0xFFFF
   \                     ??CrossCallReturnLabel_79:
   \   00003A   700B         JNZ     ??MT_AfDataStore_0
    871            {
    872              rtrn = afStatus_MEM_FAIL;
   \   00003C   85..82       MOV     DPL,?XSP + 0
   \   00003F   85..83       MOV     DPH,?XSP + 1
   \   000042   7410         MOV     A,#0x10
   \   000044   02....       LJMP    ??MT_AfDataStore_1 & 0xFFFF
    873            }
    874            else if (len == 0)  // Indication to send the message.
   \                     ??MT_AfDataStore_0:
   \   000047   12....       LCALL   ?Subroutine15 & 0xFFFF
   \                     ??CrossCallReturnLabel_15:
   \   00004A   12....       LCALL   ?Subroutine35 & 0xFFFF
   \                     ??CrossCallReturnLabel_55:
   \   00004D   EC           MOV     A,R4
   \   00004E   7069         JNZ     ??MT_AfDataStore_2
    875            {
    876              rtrn = AF_DataRequest(&(pMtAfDataReq->dstAddr), pMtAfDataReq->epDesc, pMtAfDataReq->cId,
    877                                      pMtAfDataReq->dataLen,  pMtAfDataReq->data,
    878                                    &(pMtAfDataReq->transId), pMtAfDataReq->txOpts, pMtAfDataReq->radius);
   \   000050                ; Setup parameters for call to function AF_DataRequest
   \   000050   90....       MOV     DPTR,#pMtAfDataReq
   \   000053   E0           MOVX    A,@DPTR
   \   000054   2416         ADD     A,#0x16
   \   000056   12....       LCALL   ??Subroutine45_0 & 0xFFFF
   \                     ??CrossCallReturnLabel_59:
   \   000059   F5..         MOV     ?V0 + 0,A
   \   00005B   78..         MOV     R0,#?V0 + 0
   \   00005D   12....       LCALL   ?PUSH_XSTACK_I_ONE
   \   000060   90....       MOV     DPTR,#pMtAfDataReq
   \   000063   E0           MOVX    A,@DPTR
   \   000064   2414         ADD     A,#0x14
   \   000066   F5..         MOV     ?V0 + 0,A
   \   000068   A3           INC     DPTR
   \   000069   E0           MOVX    A,@DPTR
   \   00006A   3400         ADDC    A,#0x0
   \   00006C   F5..         MOV     ?V0 + 1,A
   \   00006E   78..         MOV     R0,#?V0 + 0
   \   000070   12....       LCALL   ?PUSH_XSTACK_I_TWO
   \   000073   78..         MOV     R0,#?V0 + 4
   \   000075   12....       LCALL   ?PUSH_XSTACK_I_TWO
   \   000078   90....       MOV     DPTR,#pMtAfDataReq
   \   00007B   E0           MOVX    A,@DPTR
   \   00007C   2412         ADD     A,#0x12
   \   00007E   12....       LCALL   ??Subroutine57_0 & 0xFFFF
   \                     ??CrossCallReturnLabel_126:
   \   000081   12....       LCALL   ?PUSH_XSTACK8_X_TWO
   \   000084   12....       LCALL   ?Subroutine6 & 0xFFFF
   \                     ??CrossCallReturnLabel_128:
   \   000087   12....       LCALL   ?PUSH_XSTACK8_X_TWO
   \   00008A   90....       MOV     DPTR,#pMtAfDataReq
   \   00008D   E0           MOVX    A,@DPTR
   \   00008E   2415         ADD     A,#0x15
   \   000090   12....       LCALL   ??Subroutine45_0 & 0xFFFF
   \                     ??CrossCallReturnLabel_60:
   \   000093   F9           MOV     R1,A
   \   000094   90....       MOV     DPTR,#pMtAfDataReq
   \   000097   E0           MOVX    A,@DPTR
   \   000098   240E         ADD     A,#0xe
   \   00009A   FA           MOV     R2,A
   \   00009B   A3           INC     DPTR
   \   00009C   E0           MOVX    A,@DPTR
   \   00009D   12....       LCALL   ?Subroutine19 & 0xFFFF
   \                     ??CrossCallReturnLabel_20:
   \   0000A0   FD           MOV     R5,A
   \   0000A1   12....       LCALL   ?Subroutine14 & 0xFFFF
   \                     ??CrossCallReturnLabel_13:
   \   0000A4   12....       LCALL   ??AF_DataRequest?relay
   \   0000A7   7409         MOV     A,#0x9
   \   0000A9   12....       LCALL   ?DEALLOC_XSTACK8
   \   0000AC   E9           MOV     A,R1
   \   0000AD   85..82       MOV     DPL,?XSP + 0
   \   0000B0   85..83       MOV     DPH,?XSP + 1
   \   0000B3   F0           MOVX    @DPTR,A
    879              (void)osal_mem_free(pMtAfDataReq);
   \   0000B4                ; Setup parameters for call to function osal_mem_free
   \   0000B4   12....       LCALL   ?Subroutine9 & 0xFFFF
    880              pMtAfDataReq = NULL;
    881            }
   \                     ??CrossCallReturnLabel_7:
   \   0000B7   8022         SJMP    ??MT_AfDataStore_1
    882            else
    883            {
    884              (void)osal_memcpy(pMtAfDataReq->data+idx, pBuf, len);
   \                     ??MT_AfDataStore_2:
   \   0000B9                ; Setup parameters for call to function osal_memcpy
   \   0000B9   8A..         MOV     ?V0 + 0,R2
   \   0000BB   8B..         MOV     ?V0 + 1,R3
   \   0000BD   75..00       MOV     ?V0 + 2,#0x0
   \   0000C0   78..         MOV     R0,#?V0 + 0
   \   0000C2   12....       LCALL   ?PUSH_XSTACK_I_THREE
   \   0000C5   7D00         MOV     R5,#0x0
   \   0000C7   E5..         MOV     A,?V0 + 4
   \   0000C9   2E           ADD     A,R6
   \   0000CA   FA           MOV     R2,A
   \   0000CB   E5..         MOV     A,?V0 + 5
   \   0000CD   3F           ADDC    A,R7
   \   0000CE   12....       LCALL   ?Subroutine32 & 0xFFFF
   \                     ??CrossCallReturnLabel_115:
   \   0000D1   12....       LCALL   ?DEALLOC_XSTACK8
    885              rtrn = afStatus_SUCCESS;
   \   0000D4   85..82       MOV     DPL,?XSP + 0
   \   0000D7   85..83       MOV     DPH,?XSP + 1
   \   0000DA   E4           CLR     A
    886            }
   \                     ??MT_AfDataStore_1:
   \   0000DB   12....       LCALL   ?Subroutine24 & 0xFFFF
    887          
    888            MT_BuildAndSendZToolResponse(((uint8)MT_RPC_CMD_SRSP | (uint8)MT_RPC_SYS_AF),
    889                                                                          MT_AF_DATA_STORE, 1, &rtrn);
   \                     ??CrossCallReturnLabel_29:
   \   0000DE   7B01         MOV     R3,#0x1
   \   0000E0   7A11         MOV     R2,#0x11
   \   0000E2   02....       LJMP    ?Subroutine1 & 0xFFFF
    890          }

   \                                 In  segment BANKED_CODE, align 1, keep-with-next
   \                     ?Subroutine19:
   \   000000   3400         ADDC    A,#0x0
   \   000002   FB           MOV     R3,A
   \   000003   8A82         MOV     DPL,R2
   \   000005   8B83         MOV     DPH,R3
   \   000007   E0           MOVX    A,@DPTR
   \   000008   FC           MOV     R4,A
   \   000009   A3           INC     DPTR
   \   00000A   E0           MOVX    A,@DPTR
   \   00000B   22           RET

   \                                 In  segment BANK_RELAYS, align 1
   \                     ??MT_AfExec?relay:
   \   000000   12....       LCALL   ?BDISPATCH
   \   000003   ......       DC24    MT_AfExec

   \                                 In  segment BANK_RELAYS, align 1
   \                     ??MT_AfCommandProcessing?relay:
   \   000000   12....       LCALL   ?BDISPATCH
   \   000003   ......       DC24    MT_AfCommandProcessing

   \                                 In  segment BANK_RELAYS, align 1
   \                     ??MT_AfRegister?relay:
   \   000000   12....       LCALL   ?BDISPATCH
   \   000003   ......       DC24    MT_AfRegister

   \                                 In  segment BANK_RELAYS, align 1
   \                     ??MT_AfDataRequest?relay:
   \   000000   12....       LCALL   ?BDISPATCH
   \   000003   ......       DC24    MT_AfDataRequest

   \                                 In  segment BANK_RELAYS, align 1
   \                     ??MT_AfDataRequestSrcRtg?relay:
   \   000000   12....       LCALL   ?BDISPATCH
   \   000003   ......       DC24    MT_AfDataRequestSrcRtg

   \                                 In  segment BANK_RELAYS, align 1
   \                     ??MT_AfDataConfirm?relay:
   \   000000   12....       LCALL   ?BDISPATCH
   \   000003   ......       DC24    MT_AfDataConfirm

   \                                 In  segment BANK_RELAYS, align 1
   \                     ??MT_AfIncomingMsg?relay:
   \   000000   12....       LCALL   ?BDISPATCH
   \   000003   ......       DC24    MT_AfIncomingMsg

   \                                 In  segment BANK_RELAYS, align 1
   \                     ??MT_AfDataRetrieve?relay:
   \   000000   12....       LCALL   ?BDISPATCH
   \   000003   ......       DC24    MT_AfDataRetrieve

   \                                 In  segment BANK_RELAYS, align 1
   \                     ??MT_AfDataStore?relay:
   \   000000   12....       LCALL   ?BDISPATCH
   \   000003   ......       DC24    MT_AfDataStore
    891          
    892          /**************************************************************************************************
    893           * @fn          MT_AfAPSF_ConfigSet
    894           *
    895           * @brief       This function is the MT proxy for afAPSF_ConfigSet().
    896           *
    897           * input parameters
    898           *
    899           * @param       pBuf - Pointer to the received buffer.
    900           *
    901           * output parameters
    902           *
    903           * None.
    904           *
    905           * @return      None.
    906           */
    907          static void MT_AfAPSF_ConfigSet(uint8 *pBuf)
    908          {
    909            afAPSF_Config_t cfg = { pBuf[MT_RPC_POS_DAT0+1], pBuf[MT_RPC_POS_DAT0+2] };
    910            afStatus_t rtrn = afAPSF_ConfigSet(pBuf[MT_RPC_POS_DAT0], &cfg);
    911          
    912            MT_BuildAndSendZToolResponse(((uint8)MT_RPC_CMD_SRSP | (uint8)MT_RPC_SYS_AF),
    913                                                 MT_AF_APSF_CONFIG_SET, 1, (uint8 *)&rtrn);
    914          }
    915          
    916          /***************************************************************************************************
    917          ***************************************************************************************************/

   Maximum stack usage in bytes:

     Function                       ISTACK PSTACK XSTACK
     --------                       ------ ------ ------
     MT_AfCommandProcessing             1      0     12
       -> MT_AfRegister                 0      0     24
       -> MT_AfDataRequest              0      0     24
       -> MT_AfDataRequestSrcRtg        0      0     24
       -> MT_AfDataRetrieve             0      0     24
       -> MT_AfDataStore                0      0     24
       -> afAPSF_ConfigSet              0      0     24
       -> MT_BuildAndSendZToolResponse
                                        0      0     24
     MT_AfDataConfirm                   3      0      3
       -> MT_BuildAndSendZToolResponse
                                        4      0      6
     MT_AfDataRequest                   1      0     57
       -> osal_memcpy                   0      0     78
       -> afFindEndPointDesc            0      0     72
       -> osal_mem_alloc                0      0     72
       -> osal_memcpy                   0      0     78
       -> osal_start_timerEx            0      0     72
       -> osal_set_event                0      0     72
       -> AF_DataRequest                0      0     90
       -> MT_BuildAndSendZToolResponse
                                        0      0     72
     MT_AfDataRequestSrcRtg             1      0     60
       -> osal_memset                   0      0     72
       -> afFindEndPointDesc            0      0     72
       -> osal_mem_alloc                0      0     72
       -> AF_DataRequestSrcRtg          0      0     96
       -> osal_mem_free                 0      0     72
       -> MT_BuildAndSendZToolResponse
                                        0      0     72
     MT_AfDataRetrieve                  1      0     35
       -> osal_mem_free                 0      0     40
       -> MT_BuildAndSendZToolResponse
                                        0      0     40
       -> osal_mem_alloc                0      0     40
       -> osal_memcpy                   0      0     46
       -> MT_BuildAndSendZToolResponse
                                        0      0     40
       -> osal_mem_free                 0      0     40
     MT_AfDataStore                     1      0     36
       -> AF_DataRequest                0      0     48
       -> osal_mem_free                 0      0     30
       -> osal_memcpy                   0      0     36
       -> MT_BuildAndSendZToolResponse
                                        0      0     30
     MT_AfExec                          0      0      9
       -> osal_mem_free                 0      0     18
       -> osal_mem_free                 0      0     18
       -> osal_mem_free                 0      0     18
       -> osal_start_timerEx            0      0     18
       -> osal_set_event                0      0     18
     MT_AfIncomingMsg                   1      0     28
       -> osal_mem_alloc                0      0     50
       -> osal_mem_alloc                0      0     50
       -> osal_mem_free                 0      0     50
       -> osal_memcpy                   0      0     56
       -> osal_start_timerEx            0      0     50
       -> osal_set_event                0      0     50
       -> osal_memcpy                   0      0     56
       -> osal_memcpy                   0      0     56
       -> MT_BuildAndSendZToolResponse
                                        0      0     50
       -> osal_mem_free                 0      0     50
     MT_AfRegister                      1      0     27
       -> osal_mem_alloc                0      0     30
       -> MT_BuildEndpointDesc          0      0     30
       -> afRegister                    0      0     30
       -> osal_mem_free                 0      0     30
       -> MT_BuildAndSendZToolResponse
                                        0      0     30


   Segment part sizes:

     Function/Label                 Bytes
     --------------                 -----
     pMtAfInMsgList                    2
     pMtAfDataReq                      2
     MT_AfExec                       135
     ?Subroutine0                      5
     ?Subroutine30                     9
     ?Subroutine5                      6
     ??Subroutine45_0                  5
     ?Subroutine16                    13
     ??Subroutine48_0                 18
     ?Subroutine4                      3
     ??Subroutine49_0                  6
     ??Subroutine52_0                  8
     ?Subroutine42                     3
     ??Subroutine53_0                  5
     ?Subroutine37                     6
     ?Subroutine9                     17
     ?Subroutine38                     7
     MT_AfCommandProcessing          166
     MT_AfRegister                   124
     ?Subroutine1                     15
     ?Subroutine28                     9
     MT_AfDataRequest                654
     ?Subroutine2                     10
     ?Subroutine33                    13
     ?Subroutine23                     6
     ?Subroutine22                    10
     ?Subroutine41                     9
     ?Subroutine20                     2
     ??Subroutine46_0                  7
     ?Subroutine17                     4
     ??Subroutine47_0                  9
     ?Subroutine40                    10
     ?Subroutine12                     3
     ?Subroutine11                     7
     ?Subroutine36                     6
     ??Subroutine51_0                  6
     ?Subroutine29                     7
     ?Subroutine31                     6
     ?Subroutine35                     8
     ??Subroutine56_0                  6
     ?Subroutine15                    12
     ?Subroutine14                    13
     ?Subroutine6                      6
     ??Subroutine57_0                  4
     MT_AfDataRequestSrcRtg          390
     ?Subroutine27                     7
     ?Subroutine18                     3
     ??Subroutine50_0                 12
     ?Subroutine10                     4
     MT_AfDataConfirm                 72
     ?Subroutine24                    12
     MT_AfIncomingMsg                721
     ?Subroutine44                     2
     ?Subroutine26                     4
     ?Subroutine39                     9
     ?Subroutine25                     6
     ?Subroutine21                     8
     ??Subroutine54_0                 12
     ?Subroutine13                    12
     ?Subroutine8                      4
     ?Subroutine43                     9
     ?Subroutine7                      4
     ?Subroutine34                    11
     ?Subroutine3                      8
     ??Subroutine55_0                  6
     MT_AfDataRetrieve               355
     ?Subroutine32                     1
     MT_AfDataStore                  229
     ?Subroutine19                    12
     ??MT_AfExec?relay                 6
     ??MT_AfCommandProcessing?relay    6
     ??MT_AfRegister?relay             6
     ??MT_AfDataRequest?relay          6
     ??MT_AfDataRequestSrcRtg?relay    6
     ??MT_AfDataConfirm?relay          6
     ??MT_AfIncomingMsg?relay          6
     ??MT_AfDataRetrieve?relay         6
     ??MT_AfDataStore?relay            6

 
 3 291 bytes in segment BANKED_CODE
    54 bytes in segment BANK_RELAYS
     4 bytes in segment XDATA_Z
 
 3 345 bytes of CODE  memory
     4 bytes of XDATA memory

Errors: none
Warnings: none
