///////////////////////////////////////////////////////////////////////////////
//                                                                            /
// IAR C/C++ Compiler V8.10.1.10194/W32 for 8051        01/Jun/2015  00:49:43 /
// Copyright 2004-2011 IAR Systems AB.                                        /
//                                                                            /
//    Core               =  plain                                             /
//    Code model         =  banked                                            /
//    Data model         =  large                                             /
//    Calling convention =  xdata reentrant                                   /
//    Constant location  =  data_rom                                          /
//    Dptr setup         =  1,16                                              /
//    Source file        =  C:\Texas Instruments\ZStack-CC2530-2.5.1a\Compone /
//                          nts\mt\MT_AF.c                                    /
//    Command line       =  -f "C:\Texas Instruments\ZStack-CC2530-2.5.1a\Pro /
//                          jects\zstack\Samples\WirelessMonitorSystem\CC2530 /
//                          DB\..\..\..\Tools\CC2530DB\f8wEndev.cfg"          /
//                          (-DCPU32MHZ -DROOT=__near_func                    /
//                          -DMAC_CFG_TX_DATA_MAX=3 -DMAC_CFG_TX_MAX=6        /
//                          -DMAC_CFG_RX_MAX=3) -f "C:\Texas                  /
//                          Instruments\ZStack-CC2530-2.5.1a\Projects\zstack\ /
//                          Samples\WirelessMonitorSystem\CC2530DB\..\..\..\T /
//                          ools\CC2530DB\f8wConfig.cfg" (-DZIGBEEPRO         /
//                          -DSECURE=0 -DZG_SECURE_DYNAMIC=0 -DREFLECTOR      /
//                          -DDEFAULT_CHANLIST=0x00000800                     /
//                          -DZDAPP_CONFIG_PAN_ID=0xFFFF                      /
//                          -DNWK_START_DELAY=100 -DEXTENDED_JOINING_RANDOM_M /
//                          ASK=0x007F -DBEACON_REQUEST_DELAY=100             /
//                          -DBEACON_REQ_DELAY_MASK=0x00FF                    /
//                          -DLINK_STATUS_JITTER_MASK=0x007F                  /
//                          -DROUTE_EXPIRY_TIME=30 -DAPSC_ACK_WAIT_DURATION_P /
//                          OLLED=3000 -DNWK_INDIRECT_MSG_TIMEOUT=7           /
//                          -DMAX_RREQ_ENTRIES=8 -DAPSC_MAX_FRAME_RETRIES=3   /
//                          -DNWK_MAX_DATA_RETRIES=2                          /
//                          -DMAX_POLL_FAILURE_RETRIES=2 -DMAX_BCAST=9        /
//                          -DAPS_MAX_GROUPS=16 -DMAX_RTG_ENTRIES=40          /
//                          -DNWK_MAX_BINDING_ENTRIES=4                       /
//                          -DMAX_BINDING_CLUSTER_IDS=4                       /
//                          "-DDEFAULT_KEY={0x01, 0x03, 0x05, 0x07, 0x09,     /
//                          0x0B, 0x0D, 0x0F, 0x00, 0x02, 0x04, 0x06, 0x08,   /
//                          0x0A, 0x0C, 0x0D}" -DMAC_MAX_FRAME_SIZE=116       /
//                          -DZDNWKMGR_MIN_TRANSMISSIONS=20 "-DCONST=const    /
//                          __code" -DGENERIC=__generic                       /
//                          -DRFD_RCVC_ALWAYS_ON=FALSE -DPOLL_RATE=500        /
//                          -DQUEUED_POLL_RATE=30 -DRESPONSE_POLL_RATE=100)   /
//                          -DREJOIN_POLL_RATE=440 "C:\Texas                  /
//                          Instruments\ZStack-CC2530-2.5.1a\Components\mt\MT /
//                          _AF.c" -D HAL_UART -D xOCM_CLK_PORT=0 -D          /
//                          xOCM_CLK_PIN=7 -D xOCM_DATA_PORT=0 -D             /
//                          xOCM_DATA_PIN=6 -lC "C:\Texas                     /
//                          Instruments\ZStack-CC2530-2.5.1a\Projects\zstack\ /
//                          Samples\WirelessMonitorSystem\CC2530DB\Vibrate\Li /
//                          st\" -lA "C:\Texas Instruments\ZStack-CC2530-2.5. /
//                          1a\Projects\zstack\Samples\WirelessMonitorSystem\ /
//                          CC2530DB\Vibrate\List\" --diag_suppress           /
//                          Pe001,Pa010 -o "C:\Texas                          /
//                          Instruments\ZStack-CC2530-2.5.1a\Projects\zstack\ /
//                          Samples\WirelessMonitorSystem\CC2530DB\Vibrate\Ob /
//                          j\" -e --debug --core=plain --dptr=16,1           /
//                          --data_model=large --code_model=banked            /
//                          --calling_convention=xdata_reentrant              /
//                          --place_constants=data_rom --nr_virtual_regs 16   /
//                          -I "C:\Texas Instruments\ZStack-CC2530-2.5.1a\Pro /
//                          jects\zstack\Samples\WirelessMonitorSystem\CC2530 /
//                          DB\" -I "C:\Texas Instruments\ZStack-CC2530-2.5.1 /
//                          a\Projects\zstack\Samples\WirelessMonitorSystem\C /
//                          C2530DB\..\Source\" -I "C:\Texas                  /
//                          Instruments\ZStack-CC2530-2.5.1a\Projects\zstack\ /
//                          Samples\WirelessMonitorSystem\CC2530DB\..\..\..\Z /
//                          Main\TI2530DB\" -I "C:\Texas                      /
//                          Instruments\ZStack-CC2530-2.5.1a\Projects\zstack\ /
//                          Samples\WirelessMonitorSystem\CC2530DB\..\..\..\. /
//                          .\..\Components\hal\include\" -I "C:\Texas        /
//                          Instruments\ZStack-CC2530-2.5.1a\Projects\zstack\ /
//                          Samples\WirelessMonitorSystem\CC2530DB\..\..\..\. /
//                          .\..\Components\hal\target\CC2530EB\" -I          /
//                          "C:\Texas Instruments\ZStack-CC2530-2.5.1a\Projec /
//                          ts\zstack\Samples\WirelessMonitorSystem\CC2530DB\ /
//                          ..\..\..\..\..\Components\mac\include\" -I        /
//                          "C:\Texas Instruments\ZStack-CC2530-2.5.1a\Projec /
//                          ts\zstack\Samples\WirelessMonitorSystem\CC2530DB\ /
//                          ..\..\..\..\..\Components\mac\high_level\" -I     /
//                          "C:\Texas Instruments\ZStack-CC2530-2.5.1a\Projec /
//                          ts\zstack\Samples\WirelessMonitorSystem\CC2530DB\ /
//                          ..\..\..\..\..\Components\mac\low_level\srf04\"   /
//                          -I "C:\Texas Instruments\ZStack-CC2530-2.5.1a\Pro /
//                          jects\zstack\Samples\WirelessMonitorSystem\CC2530 /
//                          DB\..\..\..\..\..\Components\mac\low_level\srf04\ /
//                          single_chip\" -I "C:\Texas                        /
//                          Instruments\ZStack-CC2530-2.5.1a\Projects\zstack\ /
//                          Samples\WirelessMonitorSystem\CC2530DB\..\..\..\. /
//                          .\..\Components\mt\" -I "C:\Texas                 /
//                          Instruments\ZStack-CC2530-2.5.1a\Projects\zstack\ /
//                          Samples\WirelessMonitorSystem\CC2530DB\..\..\..\. /
//                          .\..\Components\osal\include\" -I "C:\Texas       /
//                          Instruments\ZStack-CC2530-2.5.1a\Projects\zstack\ /
//                          Samples\WirelessMonitorSystem\CC2530DB\..\..\..\. /
//                          .\..\Components\services\saddr\" -I "C:\Texas     /
//                          Instruments\ZStack-CC2530-2.5.1a\Projects\zstack\ /
//                          Samples\WirelessMonitorSystem\CC2530DB\..\..\..\. /
//                          .\..\Components\services\sdata\" -I "C:\Texas     /
//                          Instruments\ZStack-CC2530-2.5.1a\Projects\zstack\ /
//                          Samples\WirelessMonitorSystem\CC2530DB\..\..\..\. /
//                          .\..\Components\stack\af\" -I "C:\Texas           /
//                          Instruments\ZStack-CC2530-2.5.1a\Projects\zstack\ /
//                          Samples\WirelessMonitorSystem\CC2530DB\..\..\..\. /
//                          .\..\Components\stack\nwk\" -I "C:\Texas          /
//                          Instruments\ZStack-CC2530-2.5.1a\Projects\zstack\ /
//                          Samples\WirelessMonitorSystem\CC2530DB\..\..\..\. /
//                          .\..\Components\stack\sapi\" -I "C:\Texas         /
//                          Instruments\ZStack-CC2530-2.5.1a\Projects\zstack\ /
//                          Samples\WirelessMonitorSystem\CC2530DB\..\..\..\. /
//                          .\..\Components\stack\sec\" -I "C:\Texas          /
//                          Instruments\ZStack-CC2530-2.5.1a\Projects\zstack\ /
//                          Samples\WirelessMonitorSystem\CC2530DB\..\..\..\. /
//                          .\..\Components\stack\sys\" -I "C:\Texas          /
//                          Instruments\ZStack-CC2530-2.5.1a\Projects\zstack\ /
//                          Samples\WirelessMonitorSystem\CC2530DB\..\..\..\. /
//                          .\..\Components\stack\zdo\" -I "C:\Texas          /
//                          Instruments\ZStack-CC2530-2.5.1a\Projects\zstack\ /
//                          Samples\WirelessMonitorSystem\CC2530DB\..\..\..\. /
//                          .\..\Components\zmac\" -I "C:\Texas               /
//                          Instruments\ZStack-CC2530-2.5.1a\Projects\zstack\ /
//                          Samples\WirelessMonitorSystem\CC2530DB\..\..\..\. /
//                          .\..\Components\zmac\f8w\" -Ohz                   /
//                          --require_prototypes                              /
//    List file          =  C:\Texas Instruments\ZStack-CC2530-2.5.1a\Project /
//                          s\zstack\Samples\WirelessMonitorSystem\CC2530DB\V /
//                          ibrate\List\MT_AF.s51                             /
//                                                                            /
//                                                                            /
///////////////////////////////////////////////////////////////////////////////

        NAME MT_AF

        RTMODEL "__SystemLibrary", "CLib"
        RTMODEL "__calling_convention", "xdata_reentrant"
        RTMODEL "__code_model", "banked"
        RTMODEL "__core", "plain"
        RTMODEL "__data_model", "large"
        RTMODEL "__dptr_size", "16"
        RTMODEL "__extended_stack", "disabled"
        RTMODEL "__location_for_constants", "data"
        RTMODEL "__number_of_dptrs", "1"
        RTMODEL "__rt_version", "1"

        RSEG DOVERLAY:DATA:NOROOT(0)
        RSEG IOVERLAY:IDATA:NOROOT(0)
        RSEG ISTACK:IDATA:NOROOT(0)
        RSEG PSTACK:XDATA:NOROOT(0)
        RSEG XSTACK:XDATA:NOROOT(0)

        EXTERN ?ALLOC_XSTACK8
        EXTERN ?BANKED_ENTER_XDATA
        EXTERN ?BANKED_LEAVE_XDATA
        EXTERN ?BDISPATCH
        EXTERN ?BRET
        EXTERN ?DEALLOC_XSTACK8
        EXTERN ?L_ADD
        EXTERN ?L_EQ_X
        EXTERN ?L_MOV_X
        EXTERN ?L_SHL
        EXTERN ?PUSH_XSTACK8_X_TWO
        EXTERN ?PUSH_XSTACK_I_ONE
        EXTERN ?PUSH_XSTACK_I_THREE
        EXTERN ?PUSH_XSTACK_I_TWO
        EXTERN ?UL_SHR
        EXTERN ?V0
        EXTERN ?XLOAD_R2345
        EXTERN ?XSP
        EXTERN ?XSTACK_DISP0_8
        EXTERN ?XSTORE_R2345
        EXTERN __INIT_XDATA_Z

        PUBLIC ??MT_AfCommandProcessing?relay
        FUNCTION ??MT_AfCommandProcessing?relay,0203H
        PUBLIC ??MT_AfDataConfirm?relay
        FUNCTION ??MT_AfDataConfirm?relay,0203H
        PUBLIC ??MT_AfDataRequest?relay
        FUNCTION ??MT_AfDataRequest?relay,0203H
        PUBLIC ??MT_AfDataRequestSrcRtg?relay
        FUNCTION ??MT_AfDataRequestSrcRtg?relay,0203H
        FUNCTION ??MT_AfDataRetrieve?relay,0203H
        FUNCTION ??MT_AfDataStore?relay,0203H
        PUBLIC ??MT_AfExec?relay
        FUNCTION ??MT_AfExec?relay,0203H
        PUBLIC ??MT_AfIncomingMsg?relay
        FUNCTION ??MT_AfIncomingMsg?relay,0203H
        PUBLIC ??MT_AfRegister?relay
        FUNCTION ??MT_AfRegister?relay,0203H
        PUBLIC MT_AfCommandProcessing
        FUNCTION MT_AfCommandProcessing,021203H
        ARGFRAME XSTACK, 0, STACK
        LOCFRAME ISTACK, 1, STACK
        LOCFRAME XSTACK, 12, STACK
        PUBLIC MT_AfDataConfirm
        FUNCTION MT_AfDataConfirm,021203H
        ARGFRAME XSTACK, 0, STACK
        LOCFRAME ISTACK, 3, STACK
        LOCFRAME XSTACK, 3, STACK
        PUBLIC MT_AfDataRequest
        FUNCTION MT_AfDataRequest,021203H
        ARGFRAME XSTACK, 12, STACK
        ARGFRAME IOVERLAY, 0, STATIC
        ARGFRAME DOVERLAY, 0, STATIC
        LOCFRAME ISTACK, 1, STACK
        LOCFRAME XSTACK, 45, STACK
        PUBLIC MT_AfDataRequestSrcRtg
        FUNCTION MT_AfDataRequestSrcRtg,021203H
        ARGFRAME XSTACK, 12, STACK
        ARGFRAME IOVERLAY, 0, STATIC
        ARGFRAME DOVERLAY, 0, STATIC
        LOCFRAME ISTACK, 1, STACK
        LOCFRAME XSTACK, 48, STACK
        FUNCTION MT_AfDataRetrieve,021203H
        ARGFRAME XSTACK, 12, STACK
        ARGFRAME IOVERLAY, 0, STATIC
        ARGFRAME DOVERLAY, 0, STATIC
        LOCFRAME ISTACK, 1, STACK
        LOCFRAME XSTACK, 23, STACK
        FUNCTION MT_AfDataStore,021203H
        ARGFRAME XSTACK, 12, STACK
        ARGFRAME IOVERLAY, 0, STATIC
        ARGFRAME DOVERLAY, 0, STATIC
        LOCFRAME ISTACK, 1, STACK
        LOCFRAME XSTACK, 24, STACK
        PUBLIC MT_AfExec
        FUNCTION MT_AfExec,021203H
        ARGFRAME XSTACK, 0, STACK
        LOCFRAME XSTACK, 9, STACK
        PUBLIC MT_AfIncomingMsg
        FUNCTION MT_AfIncomingMsg,021203H
        ARGFRAME XSTACK, 0, STACK
        LOCFRAME ISTACK, 1, STACK
        LOCFRAME XSTACK, 28, STACK
        PUBLIC MT_AfRegister
        FUNCTION MT_AfRegister,021203H
        ARGFRAME XSTACK, 12, STACK
        ARGFRAME IOVERLAY, 0, STATIC
        ARGFRAME DOVERLAY, 0, STATIC
        LOCFRAME ISTACK, 1, STACK
        LOCFRAME XSTACK, 15, STACK
        PUBLIC pMtAfDataReq
        PUBLIC pMtAfInMsgList
        
        CFI Names cfiNames0
        CFI StackFrame CFA_SP SP IDATA
        CFI StackFrame CFA_PSP16 PSP16 XDATA
        CFI StackFrame CFA_XSP16 XSP16 XDATA
        CFI StaticOverlayFrame CFA_IOVERLAY IOVERLAY
        CFI StaticOverlayFrame CFA_DOVERLAY DOVERLAY
        CFI Resource `PSW.CY`:1, `B.BR0`:1, `B.BR1`:1, `B.BR2`:1, `B.BR3`:1
        CFI Resource `B.BR4`:1, `B.BR5`:1, `B.BR6`:1, `B.BR7`:1, `VB.BR8`:1
        CFI Resource `VB.BR9`:1, `VB.BR10`:1, `VB.BR11`:1, `VB.BR12`:1
        CFI Resource `VB.BR13`:1, `VB.BR14`:1, `VB.BR15`:1, VB:8, B:8, A:8
        CFI Resource PSW:8, DPL0:8, DPH0:8, R0:8, R1:8, R2:8, R3:8, R4:8, R5:8
        CFI Resource R6:8, R7:8, V0:8, V1:8, V2:8, V3:8, V4:8, V5:8, V6:8, V7:8
        CFI Resource V8:8, V9:8, V10:8, V11:8, V12:8, V13:8, V14:8, V15:8, SP:8
        CFI Resource PSPH:8, PSPL:8, PSP16:16, XSPH:8, XSPL:8, XSP16:16
        CFI VirtualResource ?RET:24
        CFI Resource ?BRET_EXT:8
        CFI VirtualResource ?RET_HIGH:8, ?RET_LOW:8
        CFI ResourceParts PSP16 PSPH, PSPL
        CFI ResourceParts XSP16 XSPH, XSPL
        CFI ResourceParts ?RET ?BRET_EXT, ?RET_HIGH, ?RET_LOW
        CFI EndNames cfiNames0
        
        CFI Common cfiCommon0 Using cfiNames0
        CFI CodeAlign 1
        CFI DataAlign -1
        CFI ReturnAddress ?RET CODE
        CFI CFA_DOVERLAY Used
        CFI CFA_IOVERLAY Used
        CFI CFA_SP SP+-3
        CFI CFA_PSP16 PSP16+0
        CFI CFA_XSP16 XSP16+0
        CFI `PSW.CY` SameValue
        CFI `B.BR0` SameValue
        CFI `B.BR1` SameValue
        CFI `B.BR2` SameValue
        CFI `B.BR3` SameValue
        CFI `B.BR4` SameValue
        CFI `B.BR5` SameValue
        CFI `B.BR6` SameValue
        CFI `B.BR7` SameValue
        CFI `VB.BR8` SameValue
        CFI `VB.BR9` SameValue
        CFI `VB.BR10` SameValue
        CFI `VB.BR11` SameValue
        CFI `VB.BR12` SameValue
        CFI `VB.BR13` SameValue
        CFI `VB.BR14` SameValue
        CFI `VB.BR15` SameValue
        CFI VB SameValue
        CFI B Undefined
        CFI A Undefined
        CFI PSW SameValue
        CFI DPL0 SameValue
        CFI DPH0 SameValue
        CFI R0 Undefined
        CFI R1 Undefined
        CFI R2 Undefined
        CFI R3 Undefined
        CFI R4 Undefined
        CFI R5 Undefined
        CFI R6 SameValue
        CFI R7 SameValue
        CFI V0 SameValue
        CFI V1 SameValue
        CFI V2 SameValue
        CFI V3 SameValue
        CFI V4 SameValue
        CFI V5 SameValue
        CFI V6 SameValue
        CFI V7 SameValue
        CFI V8 SameValue
        CFI V9 SameValue
        CFI V10 SameValue
        CFI V11 SameValue
        CFI V12 SameValue
        CFI V13 SameValue
        CFI V14 SameValue
        CFI V15 SameValue
        CFI PSPH Undefined
        CFI PSPL Undefined
        CFI XSPH Undefined
        CFI XSPL Undefined
        CFI ?RET Concat
        CFI ?BRET_EXT Frame(CFA_SP, 3)
        CFI ?RET_HIGH Frame(CFA_SP, 2)
        CFI ?RET_LOW Frame(CFA_SP, 1)
        CFI EndCommon cfiCommon0
        
        
        CFI Common cfiCommon1 Using cfiNames0
        CFI CodeAlign 1
        CFI DataAlign -1
        CFI ReturnAddress ?RET CODE
        CFI CFA_DOVERLAY Used
        CFI CFA_IOVERLAY Used
        CFI CFA_SP SP+-2
        CFI CFA_PSP16 PSP16+0
        CFI CFA_XSP16 XSP16+0
        CFI `PSW.CY` SameValue
        CFI `B.BR0` SameValue
        CFI `B.BR1` SameValue
        CFI `B.BR2` SameValue
        CFI `B.BR3` SameValue
        CFI `B.BR4` SameValue
        CFI `B.BR5` SameValue
        CFI `B.BR6` SameValue
        CFI `B.BR7` SameValue
        CFI `VB.BR8` SameValue
        CFI `VB.BR9` SameValue
        CFI `VB.BR10` SameValue
        CFI `VB.BR11` SameValue
        CFI `VB.BR12` SameValue
        CFI `VB.BR13` SameValue
        CFI `VB.BR14` SameValue
        CFI `VB.BR15` SameValue
        CFI VB SameValue
        CFI B SameValue
        CFI A SameValue
        CFI PSW SameValue
        CFI DPL0 SameValue
        CFI DPH0 SameValue
        CFI R0 SameValue
        CFI R1 SameValue
        CFI R2 SameValue
        CFI R3 SameValue
        CFI R4 SameValue
        CFI R5 SameValue
        CFI R6 SameValue
        CFI R7 SameValue
        CFI V0 SameValue
        CFI V1 SameValue
        CFI V2 SameValue
        CFI V3 SameValue
        CFI V4 SameValue
        CFI V5 SameValue
        CFI V6 SameValue
        CFI V7 SameValue
        CFI V8 SameValue
        CFI V9 SameValue
        CFI V10 SameValue
        CFI V11 SameValue
        CFI V12 SameValue
        CFI V13 SameValue
        CFI V14 SameValue
        CFI V15 SameValue
        CFI PSPH Undefined
        CFI PSPL Undefined
        CFI XSPH Undefined
        CFI XSPL Undefined
        CFI ?RET Concat
        CFI ?BRET_EXT SameValue
        CFI ?RET_HIGH Frame(CFA_SP, 2)
        CFI ?RET_LOW Frame(CFA_SP, 1)
        CFI EndCommon cfiCommon1
        
osal_mem_free       SYMBOL "osal_mem_free"
osal_start_timerEx  SYMBOL "osal_start_timerEx"
osal_set_event      SYMBOL "osal_set_event"
afAPSF_ConfigSet    SYMBOL "afAPSF_ConfigSet"
MT_BuildAndSendZToolResponse SYMBOL "MT_BuildAndSendZToolResponse"
osal_mem_alloc      SYMBOL "osal_mem_alloc"
MT_BuildEndpointDesc SYMBOL "MT_BuildEndpointDesc"
afRegister          SYMBOL "afRegister"
osal_memcpy         SYMBOL "osal_memcpy"
afFindEndPointDesc  SYMBOL "afFindEndPointDesc"
AF_DataRequest      SYMBOL "AF_DataRequest"
osal_memset         SYMBOL "osal_memset"
AF_DataRequestSrcRtg SYMBOL "AF_DataRequestSrcRtg"
??AF_DataRequest?relay SYMBOL "?relay", AF_DataRequest
??AF_DataRequestSrcRtg?relay SYMBOL "?relay", AF_DataRequestSrcRtg
??MT_BuildAndSendZToolResponse?relay SYMBOL "?relay", MT_BuildAndSendZToolResponse
??MT_BuildEndpointDesc?relay SYMBOL "?relay", MT_BuildEndpointDesc
??afAPSF_ConfigSet?relay SYMBOL "?relay", afAPSF_ConfigSet
??afFindEndPointDesc?relay SYMBOL "?relay", afFindEndPointDesc
??afRegister?relay  SYMBOL "?relay", afRegister
??osal_mem_alloc?relay SYMBOL "?relay", osal_mem_alloc
??osal_mem_free?relay SYMBOL "?relay", osal_mem_free
??osal_memcpy?relay SYMBOL "?relay", osal_memcpy
??osal_memset?relay SYMBOL "?relay", osal_memset
??osal_set_event?relay SYMBOL "?relay", osal_set_event
??osal_start_timerEx?relay SYMBOL "?relay", osal_start_timerEx
MT_AfCommandProcessing SYMBOL "MT_AfCommandProcessing"
??MT_AfCommandProcessing?relay SYMBOL "?relay", MT_AfCommandProcessing
MT_AfDataConfirm    SYMBOL "MT_AfDataConfirm"
??MT_AfDataConfirm?relay SYMBOL "?relay", MT_AfDataConfirm
MT_AfDataRequest    SYMBOL "MT_AfDataRequest"
??MT_AfDataRequest?relay SYMBOL "?relay", MT_AfDataRequest
MT_AfDataRequestSrcRtg SYMBOL "MT_AfDataRequestSrcRtg"
??MT_AfDataRequestSrcRtg?relay SYMBOL "?relay", MT_AfDataRequestSrcRtg
MT_AfExec           SYMBOL "MT_AfExec"
??MT_AfExec?relay   SYMBOL "?relay", MT_AfExec
MT_AfIncomingMsg    SYMBOL "MT_AfIncomingMsg"
??MT_AfIncomingMsg?relay SYMBOL "?relay", MT_AfIncomingMsg
MT_AfRegister       SYMBOL "MT_AfRegister"
??MT_AfRegister?relay SYMBOL "?relay", MT_AfRegister

        EXTERN osal_mem_free
        FUNCTION osal_mem_free,0202H
        ARGFRAME ISTACK, 0, STACK
        ARGFRAME PSTACK, 0, STACK
        ARGFRAME XSTACK, 36, STACK
        ARGFRAME IOVERLAY, 0, STATIC
        ARGFRAME DOVERLAY, 0, STATIC
        EXTERN osal_start_timerEx
        FUNCTION osal_start_timerEx,0202H
        ARGFRAME ISTACK, 0, STACK
        ARGFRAME PSTACK, 0, STACK
        ARGFRAME XSTACK, 36, STACK
        ARGFRAME IOVERLAY, 0, STATIC
        ARGFRAME DOVERLAY, 0, STATIC
        EXTERN osal_set_event
        FUNCTION osal_set_event,0202H
        ARGFRAME ISTACK, 0, STACK
        ARGFRAME PSTACK, 0, STACK
        ARGFRAME XSTACK, 36, STACK
        ARGFRAME IOVERLAY, 0, STATIC
        ARGFRAME DOVERLAY, 0, STATIC
        EXTERN afAPSF_ConfigSet
        FUNCTION afAPSF_ConfigSet,0202H
        ARGFRAME ISTACK, 0, STACK
        ARGFRAME PSTACK, 0, STACK
        ARGFRAME XSTACK, 12, STACK
        ARGFRAME IOVERLAY, 0, STATIC
        ARGFRAME DOVERLAY, 0, STATIC
        EXTERN MT_BuildAndSendZToolResponse
        FUNCTION MT_BuildAndSendZToolResponse,0202H
        ARGFRAME ISTACK, 2, STACK
        ARGFRAME PSTACK, 0, STACK
        ARGFRAME XSTACK, 36, STACK
        ARGFRAME IOVERLAY, 0, STATIC
        ARGFRAME DOVERLAY, 0, STATIC
        EXTERN osal_mem_alloc
        FUNCTION osal_mem_alloc,0202H
        ARGFRAME ISTACK, 0, STACK
        ARGFRAME PSTACK, 0, STACK
        ARGFRAME XSTACK, 36, STACK
        ARGFRAME IOVERLAY, 0, STATIC
        ARGFRAME DOVERLAY, 0, STATIC
        EXTERN MT_BuildEndpointDesc
        FUNCTION MT_BuildEndpointDesc,0202H
        ARGFRAME ISTACK, 0, STACK
        ARGFRAME PSTACK, 0, STACK
        ARGFRAME XSTACK, 15, STACK
        ARGFRAME IOVERLAY, 0, STATIC
        ARGFRAME DOVERLAY, 0, STATIC
        EXTERN afRegister
        FUNCTION afRegister,0202H
        ARGFRAME ISTACK, 0, STACK
        ARGFRAME PSTACK, 0, STACK
        ARGFRAME XSTACK, 15, STACK
        ARGFRAME IOVERLAY, 0, STATIC
        ARGFRAME DOVERLAY, 0, STATIC
        EXTERN osal_memcpy
        FUNCTION osal_memcpy,0202H
        ARGFRAME ISTACK, 0, STACK
        ARGFRAME PSTACK, 0, STACK
        ARGFRAME XSTACK, 39, STACK
        ARGFRAME IOVERLAY, 0, STATIC
        ARGFRAME DOVERLAY, 0, STATIC
        EXTERN afFindEndPointDesc
        FUNCTION afFindEndPointDesc,0202H
        ARGFRAME ISTACK, 0, STACK
        ARGFRAME PSTACK, 0, STACK
        ARGFRAME XSTACK, 36, STACK
        ARGFRAME IOVERLAY, 0, STATIC
        ARGFRAME DOVERLAY, 0, STATIC
        EXTERN AF_DataRequest
        FUNCTION AF_DataRequest,0202H
        ARGFRAME ISTACK, 0, STACK
        ARGFRAME PSTACK, 0, STACK
        ARGFRAME XSTACK, 45, STACK
        ARGFRAME IOVERLAY, 0, STATIC
        ARGFRAME DOVERLAY, 0, STATIC
        EXTERN osal_memset
        FUNCTION osal_memset,0202H
        ARGFRAME ISTACK, 0, STACK
        ARGFRAME PSTACK, 0, STACK
        ARGFRAME XSTACK, 36, STACK
        ARGFRAME IOVERLAY, 0, STATIC
        ARGFRAME DOVERLAY, 0, STATIC
        EXTERN AF_DataRequestSrcRtg
        FUNCTION AF_DataRequestSrcRtg,0202H
        ARGFRAME ISTACK, 0, STACK
        ARGFRAME PSTACK, 0, STACK
        ARGFRAME XSTACK, 48, STACK
        ARGFRAME IOVERLAY, 0, STATIC
        ARGFRAME DOVERLAY, 0, STATIC
        EXTERN ??AF_DataRequest?relay
        FUNCTION ??AF_DataRequest?relay,00H
        EXTERN ??AF_DataRequestSrcRtg?relay
        FUNCTION ??AF_DataRequestSrcRtg?relay,00H
        EXTERN ??MT_BuildAndSendZToolResponse?relay
        FUNCTION ??MT_BuildAndSendZToolResponse?relay,00H
        EXTERN ??MT_BuildEndpointDesc?relay
        FUNCTION ??MT_BuildEndpointDesc?relay,00H
        EXTERN ??afAPSF_ConfigSet?relay
        FUNCTION ??afAPSF_ConfigSet?relay,00H
        EXTERN ??afFindEndPointDesc?relay
        FUNCTION ??afFindEndPointDesc?relay,00H
        EXTERN ??afRegister?relay
        FUNCTION ??afRegister?relay,00H
        EXTERN ??osal_mem_alloc?relay
        FUNCTION ??osal_mem_alloc?relay,00H
        EXTERN ??osal_mem_free?relay
        FUNCTION ??osal_mem_free?relay,00H
        EXTERN ??osal_memcpy?relay
        FUNCTION ??osal_memcpy?relay,00H
        EXTERN ??osal_memset?relay
        FUNCTION ??osal_memset?relay,00H
        EXTERN ??osal_set_event?relay
        FUNCTION ??osal_set_event?relay,00H
        EXTERN ??osal_start_timerEx?relay
        FUNCTION ??osal_start_timerEx?relay,00H
        EXTERN MT_TaskID

// C:\Texas Instruments\ZStack-CC2530-2.5.1a\Components\mt\MT_AF.c
//    1 /**************************************************************************************************
//    2   Filename:       MT_AF.c
//    3   Revised:        $Date: 2011-05-27 16:00:27 -0700 (Fri, 27 May 2011) $
//    4   Revision:       $Revision: 26145 $
//    5 
//    6 
//    7   Description:    MonitorTest functions for the AF layer.
//    8 
//    9 
//   10   Copyright 2007-2011 Texas Instruments Incorporated. All rights reserved.
//   11 
//   12   IMPORTANT: Your use of this Software is limited to those specific rights
//   13   granted under the terms of a software license agreement between the user
//   14   who downloaded the software, his/her employer (which must be your employer)
//   15   and Texas Instruments Incorporated (the "License").  You may not use this
//   16   Software unless you agree to abide by the terms of the License. The License
//   17   limits your use, and you acknowledge, that the Software may not be modified,
//   18   copied or distributed unless embedded on a Texas Instruments microcontroller
//   19   or used solely and exclusively in conjunction with a Texas Instruments radio
//   20   frequency transceiver, which is integrated into your product.  Other than for
//   21   the foregoing purpose, you may not use, reproduce, copy, prepare derivative
//   22   works of, modify, distribute, perform, display or sell this Software and/or
//   23   its documentation for any purpose.
//   24 
//   25   YOU FURTHER ACKNOWLEDGE AND AGREE THAT THE SOFTWARE AND DOCUMENTATION ARE
//   26   PROVIDED “AS IS” WITHOUT WARRANTY OF ANY KIND, EITHER EXPRESS OR IMPLIED,
//   27   INCLUDING WITHOUT LIMITATION, ANY WARRANTY OF MERCHANTABILITY, TITLE,
//   28   NON-INFRINGEMENT AND FITNESS FOR A PARTICULAR PURPOSE. IN NO EVENT SHALL
//   29   TEXAS INSTRUMENTS OR ITS LICENSORS BE LIABLE OR OBLIGATED UNDER CONTRACT,
//   30   NEGLIGENCE, STRICT LIABILITY, CONTRIBUTION, BREACH OF WARRANTY, OR OTHER
//   31   LEGAL EQUITABLE THEORY ANY DIRECT OR INDIRECT DAMAGES OR EXPENSES
//   32   INCLUDING BUT NOT LIMITED TO ANY INCIDENTAL, SPECIAL, INDIRECT, PUNITIVE
//   33   OR CONSEQUENTIAL DAMAGES, LOST PROFITS OR LOST DATA, COST OF PROCUREMENT
//   34   OF SUBSTITUTE GOODS, TECHNOLOGY, SERVICES, OR ANY CLAIMS BY THIRD PARTIES
//   35   (INCLUDING BUT NOT LIMITED TO ANY DEFENSE THEREOF), OR OTHER SIMILAR COSTS.
//   36 
//   37   Should you have any questions regarding your right to use this Software,
//   38   contact Texas Instruments Incorporated at www.TI.com.
//   39 
//   40 **************************************************************************************************/
//   41 
//   42 /* ------------------------------------------------------------------------------------------------
//   43  *                                          Includes
//   44  * ------------------------------------------------------------------------------------------------
//   45  */
//   46 #include "ZComDef.h"
//   47 #include "OSAL.h"
//   48 #include "MT.h"
//   49 #include "MT_AF.h"
//   50 #include "MT_ZDO.h"
//   51 #include "nwk.h"
//   52 #include "OnBoard.h"
//   53 #include "MT_UART.h"
//   54 
//   55 #if defined INTER_PAN
//   56 #include "stub_aps.h"
//   57 #endif
//   58 
//   59 /* ------------------------------------------------------------------------------------------------
//   60  *                                          Constants
//   61  * ------------------------------------------------------------------------------------------------
//   62  */
//   63 
//   64 #if !defined MT_AF_EXEC_CNT
//   65 #define MT_AF_EXEC_CNT  15
//   66 #endif
//   67 
//   68 #if !defined MT_AF_EXEC_DLY
//   69 #define MT_AF_EXEC_DLY  1000
//   70 #endif
//   71 
//   72 /* ------------------------------------------------------------------------------------------------
//   73  *                                           Typedefs
//   74  * ------------------------------------------------------------------------------------------------
//   75  */
//   76 
//   77 typedef struct
//   78 {
//   79   uint8 *data;
//   80   afAddrType_t dstAddr;
//   81   endPointDesc_t *epDesc;
//   82   uint16 cId;
//   83   uint16 dataLen;
//   84   uint8 transId;
//   85   uint8 txOpts;
//   86   uint8 radius;
//   87   uint8 tick;
//   88 } mtAfDataReq_t;
//   89 
//   90 typedef struct _mtAfInMsgList_t
//   91 {
//   92   struct _mtAfInMsgList_t *next;
//   93   uint8 *data;
//   94   uint32 timestamp;         // Receipt timestamp from MAC.
//   95   uint8 tick;
//   96 } mtAfInMsgList_t;
//   97 
//   98 /* ------------------------------------------------------------------------------------------------
//   99  *                                        Local Variables
//  100  * ------------------------------------------------------------------------------------------------
//  101  */
//  102 

        RSEG XDATA_Z:XDATA:NOROOT(0)
        DATA16
//  103 mtAfInMsgList_t *pMtAfInMsgList = NULL;
pMtAfInMsgList:
        DS 2
        REQUIRE __INIT_XDATA_Z

        RSEG XDATA_Z:XDATA:NOROOT(0)
        DATA16
//  104 mtAfDataReq_t *pMtAfDataReq = NULL;
pMtAfDataReq:
        DS 2
        REQUIRE __INIT_XDATA_Z
//  105 
//  106 /* ------------------------------------------------------------------------------------------------
//  107  *                                        Global Variables
//  108  * ------------------------------------------------------------------------------------------------
//  109  */
//  110 
//  111 #if defined ( MT_AF_CB_FUNC )
//  112 uint16 _afCallbackSub;
//  113 #endif
//  114 
//  115 /* ------------------------------------------------------------------------------------------------
//  116  *                                        Local Functions
//  117  * ------------------------------------------------------------------------------------------------
//  118  */
//  119 
//  120 void MT_AfRegister(uint8 *pBuf);
//  121 void MT_AfDataRequest(uint8 *pBuf);
//  122 
//  123 #if defined ( ZIGBEE_SOURCE_ROUTING )
//  124 void MT_AfDataRequestSrcRtg(uint8 *pBuf);
//  125 #endif
//  126 
//  127 #if defined INTER_PAN
//  128 static void MT_AfInterPanCtl(uint8 *pBuf);
//  129 #endif
//  130 
//  131 static void MT_AfDataRetrieve(uint8 *pBuf);
//  132 static void MT_AfDataStore(uint8 *pBuf);
//  133 static void MT_AfAPSF_ConfigSet(uint8 *pBuf);
//  134 
//  135 /**************************************************************************************************
//  136  * @fn          MT_AfExec
//  137  *
//  138  * @brief       This function is invoked by an MT timer event.
//  139  *
//  140  * input parameters
//  141  *
//  142  * None.
//  143  *
//  144  * output parameters
//  145  *
//  146  * None.
//  147  *
//  148  * @return      None.
//  149  **************************************************************************************************
//  150  */

        RSEG BANKED_CODE:CODE:NOROOT(0)
//  151 void MT_AfExec(void)
MT_AfExec:
        CFI Block cfiBlock0 Using cfiCommon0
        CFI Function MT_AfExec
        CODE
//  152 {
        FUNCALL MT_AfExec, osal_mem_free
        LOCFRAME ISTACK, 0, STACK
        LOCFRAME PSTACK, 0, STACK
        LOCFRAME XSTACK, 9, STACK
        LOCFRAME IOVERLAY, 0, STATIC
        LOCFRAME DOVERLAY, 0, STATIC
        ARGFRAME ISTACK, 0, STACK
        ARGFRAME PSTACK, 0, STACK
        ARGFRAME XSTACK, 9, STACK
        ARGFRAME IOVERLAY, 0, STATIC
        ARGFRAME DOVERLAY, 0, STATIC
        FUNCALL MT_AfExec, osal_mem_free
        LOCFRAME ISTACK, 0, STACK
        LOCFRAME PSTACK, 0, STACK
        LOCFRAME XSTACK, 9, STACK
        LOCFRAME IOVERLAY, 0, STATIC
        LOCFRAME DOVERLAY, 0, STATIC
        ARGFRAME ISTACK, 0, STACK
        ARGFRAME PSTACK, 0, STACK
        ARGFRAME XSTACK, 9, STACK
        ARGFRAME IOVERLAY, 0, STATIC
        ARGFRAME DOVERLAY, 0, STATIC
        FUNCALL MT_AfExec, osal_mem_free
        LOCFRAME ISTACK, 0, STACK
        LOCFRAME PSTACK, 0, STACK
        LOCFRAME XSTACK, 9, STACK
        LOCFRAME IOVERLAY, 0, STATIC
        LOCFRAME DOVERLAY, 0, STATIC
        ARGFRAME ISTACK, 0, STACK
        ARGFRAME PSTACK, 0, STACK
        ARGFRAME XSTACK, 9, STACK
        ARGFRAME IOVERLAY, 0, STATIC
        ARGFRAME DOVERLAY, 0, STATIC
        FUNCALL MT_AfExec, osal_start_timerEx
        LOCFRAME ISTACK, 0, STACK
        LOCFRAME PSTACK, 0, STACK
        LOCFRAME XSTACK, 9, STACK
        LOCFRAME IOVERLAY, 0, STATIC
        LOCFRAME DOVERLAY, 0, STATIC
        ARGFRAME ISTACK, 0, STACK
        ARGFRAME PSTACK, 0, STACK
        ARGFRAME XSTACK, 9, STACK
        ARGFRAME IOVERLAY, 0, STATIC
        ARGFRAME DOVERLAY, 0, STATIC
        FUNCALL MT_AfExec, osal_set_event
        LOCFRAME ISTACK, 0, STACK
        LOCFRAME PSTACK, 0, STACK
        LOCFRAME XSTACK, 9, STACK
        LOCFRAME IOVERLAY, 0, STATIC
        LOCFRAME DOVERLAY, 0, STATIC
        ARGFRAME ISTACK, 0, STACK
        ARGFRAME PSTACK, 0, STACK
        ARGFRAME XSTACK, 9, STACK
        ARGFRAME IOVERLAY, 0, STATIC
        ARGFRAME DOVERLAY, 0, STATIC
        MOV     A,#-0x9
        LCALL   ?BANKED_ENTER_XDATA
        CFI R6 load(1, XDATA, add(CFA_XSP16, literal(-9)))
        CFI VB load(1, XDATA, add(CFA_XSP16, literal(-8)))
        CFI V0 load(1, XDATA, add(CFA_XSP16, literal(-7)))
        CFI R7 load(1, XDATA, add(CFA_XSP16, literal(-6)))
        CFI ?RET_LOW load(1, XDATA, add(CFA_XSP16, literal(-5)))
        CFI ?RET_HIGH load(1, XDATA, add(CFA_XSP16, literal(-4)))
        CFI ?BRET_EXT load(1, XDATA, add(CFA_XSP16, literal(-3)))
        CFI DPL0 load(1, XDATA, add(CFA_XSP16, literal(-2)))
        CFI DPH0 load(1, XDATA, add(CFA_XSP16, literal(-1)))
        CFI CFA_SP SP+0
        CFI CFA_XSP16 add(XSP16, 9)
        ; Saved register size: 9
        ; Auto size: 0
//  153   mtAfInMsgList_t *pPrev, *pItem = pMtAfInMsgList;
??MT_AfExec_0:
        LCALL   ?Subroutine42 & 0xFFFF
??CrossCallReturnLabel_96:
        SJMP    ??MT_AfExec_1
//  154 
//  155   while (pItem != NULL)
//  156   {
//  157     if (--(pItem->tick) == 0)
//  158     {
//  159       if (pMtAfInMsgList == pItem)
//  160       {
//  161         pMtAfInMsgList = pItem->next;
//  162         (void)osal_mem_free(pItem);
//  163         pItem = pMtAfInMsgList;
//  164       }
//  165       else
//  166       {
//  167         pPrev->next = pItem->next;
//  168         (void)osal_mem_free(pItem);
//  169         pItem = pPrev->next;
//  170       }
//  171     }
//  172     else
//  173     {
//  174       pPrev = pItem;
??MT_AfExec_2:
        MOV     A,R2
        MOV     R6,A
        MOV     A,R3
        MOV     R7,A
//  175       pItem = pItem->next;
        MOV     A,R0
        MOV     R2,A
        MOV     A,R1
??MT_AfExec_1:
        MOV     R3,A
//  176     }
        MOV     A,R2
        ORL     A,R3
        JZ      ??MT_AfExec_3
        MOV     A,R2
        ADD     A,#0x8
        MOV     R0,A
        MOV     A,R3
        ADDC    A,#0x0
        MOV     R1,A
        MOV     A,R0
        MOV     R4,A
        MOV     A,R1
        MOV     R5,A
        MOV     DPL,R4
        MOV     DPH,R5
        MOVX    A,@DPTR
        DEC     A
        MOVX    @DPTR,A
        MOV     DPL,R2
        MOV     DPH,R3
        LCALL   ?Subroutine37 & 0xFFFF
??CrossCallReturnLabel_80:
        MOV     DPL,R4
        MOV     DPH,R5
        MOVX    A,@DPTR
        JNZ     ??MT_AfExec_2
        MOV     DPTR,#pMtAfInMsgList
        MOVX    A,@DPTR
        MOV     R4,A
        INC     DPTR
        MOVX    A,@DPTR
        MOV     R5,A
        MOV     A,R2
        XRL     A,R4
        JNZ     ??MT_AfExec_4
        MOV     A,R3
        XRL     A,R5
??MT_AfExec_4:
        JNZ     ??MT_AfExec_5
        MOV     DPTR,#pMtAfInMsgList
        LCALL   ?Subroutine30 & 0xFFFF
??CrossCallReturnLabel_43:
        SJMP    ??MT_AfExec_0
??MT_AfExec_5:
        MOV     DPL,R6
        MOV     DPH,R7
        LCALL   ?Subroutine30 & 0xFFFF
??CrossCallReturnLabel_44:
        MOV     DPL,R6
        MOV     DPH,R7
        LCALL   ??Subroutine53_0 & 0xFFFF
//  177   }
??CrossCallReturnLabel_93:
        SJMP    ??MT_AfExec_1
//  178 
//  179   if (pMtAfDataReq != NULL)
??MT_AfExec_3:
        LCALL   ?Subroutine4 & 0xFFFF
??CrossCallReturnLabel_75:
        JZ      ??MT_AfExec_6
//  180   {
//  181     if (--(pMtAfDataReq->tick) == 0)
        LCALL   ?Subroutine5 & 0xFFFF
??CrossCallReturnLabel_61:
        DEC     A
        MOVX    @DPTR,A
        LCALL   ?Subroutine5 & 0xFFFF
??CrossCallReturnLabel_62:
        JNZ     ??MT_AfExec_6
//  182     {
//  183       (void)osal_mem_free(pMtAfDataReq);
        ; Setup parameters for call to function osal_mem_free
        LCALL   ?Subroutine9 & 0xFFFF
//  184       pMtAfDataReq = NULL;
//  185     }
//  186   }
??CrossCallReturnLabel_6:
        MOVX    @DPTR,A
//  187 
//  188   if ((pMtAfInMsgList != NULL) || (pMtAfDataReq != NULL))
??MT_AfExec_6:
        MOV     DPTR,#pMtAfInMsgList
        LCALL   ??Subroutine49_0 & 0xFFFF
??CrossCallReturnLabel_74:
        JNZ     ??MT_AfExec_7
        LCALL   ?Subroutine4 & 0xFFFF
??CrossCallReturnLabel_76:
        JZ      ??CrossCallReturnLabel_16
//  189   {
//  190     if (ZSuccess != osal_start_timerEx(MT_TaskID, MT_AF_EXEC_EVT, MT_AF_EXEC_DLY))
??MT_AfExec_7:
        ; Setup parameters for call to function osal_start_timerEx
        LCALL   ??Subroutine48_0 & 0xFFFF
??CrossCallReturnLabel_73:
        JZ      ??CrossCallReturnLabel_16
//  191     {
//  192       osal_set_event(MT_TaskID, MT_AF_EXEC_EVT);
        ; Setup parameters for call to function osal_set_event
        LCALL   ?Subroutine16 & 0xFFFF
        CFI EndBlock cfiBlock0
//  193     }
//  194   }
//  195 }
??CrossCallReturnLabel_16:
        REQUIRE ?Subroutine0
        ; // Fall through to label ?Subroutine0

        RSEG BANKED_CODE:CODE:NOROOT(0)
?Subroutine0:
        CFI Block cfiBlock1 Using cfiCommon0
        CFI NoFunction
        CFI CFA_SP SP+0
        CFI CFA_XSP16 add(XSP16, 9)
        CFI VB load(1, XDATA, add(CFA_XSP16, literal(-8)))
        CFI DPL0 load(1, XDATA, add(CFA_XSP16, literal(-2)))
        CFI DPH0 load(1, XDATA, add(CFA_XSP16, literal(-1)))
        CFI R6 load(1, XDATA, add(CFA_XSP16, literal(-9)))
        CFI R7 load(1, XDATA, add(CFA_XSP16, literal(-6)))
        CFI V0 load(1, XDATA, add(CFA_XSP16, literal(-7)))
        CFI ?BRET_EXT load(1, XDATA, add(CFA_XSP16, literal(-3)))
        CFI ?RET_HIGH load(1, XDATA, add(CFA_XSP16, literal(-4)))
        CFI ?RET_LOW load(1, XDATA, add(CFA_XSP16, literal(-5)))
        MOV     R7,#0x1
        LJMP    ?BANKED_LEAVE_XDATA
        CFI EndBlock cfiBlock1

        RSEG BANKED_CODE:CODE:NOROOT(0)
?Subroutine30:
        CFI Block cfiCond2 Using cfiCommon0
        CFI NoFunction
        CFI Conditional ??CrossCallReturnLabel_43
        CFI R6 load(1, XDATA, add(CFA_XSP16, literal(-9)))
        CFI VB load(1, XDATA, add(CFA_XSP16, literal(-8)))
        CFI V0 load(1, XDATA, add(CFA_XSP16, literal(-7)))
        CFI R7 load(1, XDATA, add(CFA_XSP16, literal(-6)))
        CFI ?RET_LOW load(1, XDATA, add(CFA_XSP16, literal(-5)))
        CFI ?RET_HIGH load(1, XDATA, add(CFA_XSP16, literal(-4)))
        CFI ?BRET_EXT load(1, XDATA, add(CFA_XSP16, literal(-3)))
        CFI DPL0 load(1, XDATA, add(CFA_XSP16, literal(-2)))
        CFI DPH0 load(1, XDATA, add(CFA_XSP16, literal(-1)))
        CFI CFA_SP SP+0
        CFI CFA_XSP16 add(XSP16, 9)
        CFI Block cfiCond3 Using cfiCommon0
        CFI (cfiCond3) NoFunction
        CFI (cfiCond3) Conditional ??CrossCallReturnLabel_44
        CFI (cfiCond3) R6 load(1, XDATA, add(CFA_XSP16, literal(-9)))
        CFI (cfiCond3) VB load(1, XDATA, add(CFA_XSP16, literal(-8)))
        CFI (cfiCond3) V0 load(1, XDATA, add(CFA_XSP16, literal(-7)))
        CFI (cfiCond3) R7 load(1, XDATA, add(CFA_XSP16, literal(-6)))
        CFI (cfiCond3) ?RET_LOW load(1, XDATA, add(CFA_XSP16, literal(-5)))
        CFI (cfiCond3) ?RET_HIGH load(1, XDATA, add(CFA_XSP16, literal(-4)))
        CFI (cfiCond3) ?BRET_EXT load(1, XDATA, add(CFA_XSP16, literal(-3)))
        CFI (cfiCond3) DPL0 load(1, XDATA, add(CFA_XSP16, literal(-2)))
        CFI (cfiCond3) DPH0 load(1, XDATA, add(CFA_XSP16, literal(-1)))
        CFI (cfiCond3) CFA_SP SP+0
        CFI (cfiCond3) CFA_XSP16 add(XSP16, 9)
        CFI Block cfiPicker4 Using cfiCommon1
        CFI (cfiPicker4) NoFunction
        CFI (cfiPicker4) Picker
        MOV     A,R0
        MOVX    @DPTR,A
        INC     DPTR
        MOV     A,R1
        MOVX    @DPTR,A
        ; Setup parameters for call to function osal_mem_free
        ; Setup parameters for call to function osal_mem_free
        LCALL   ??osal_mem_free?relay
        RET
        CFI EndBlock cfiCond2
        CFI EndBlock cfiCond3
        CFI EndBlock cfiPicker4

        RSEG BANKED_CODE:CODE:NOROOT(0)
?Subroutine5:
        CFI Block cfiCond5 Using cfiCommon0
        CFI NoFunction
        CFI Conditional ??CrossCallReturnLabel_61
        CFI R6 load(1, XDATA, add(CFA_XSP16, literal(-9)))
        CFI VB load(1, XDATA, add(CFA_XSP16, literal(-8)))
        CFI V0 load(1, XDATA, add(CFA_XSP16, literal(-7)))
        CFI R7 load(1, XDATA, add(CFA_XSP16, literal(-6)))
        CFI ?RET_LOW load(1, XDATA, add(CFA_XSP16, literal(-5)))
        CFI ?RET_HIGH load(1, XDATA, add(CFA_XSP16, literal(-4)))
        CFI ?BRET_EXT load(1, XDATA, add(CFA_XSP16, literal(-3)))
        CFI DPL0 load(1, XDATA, add(CFA_XSP16, literal(-2)))
        CFI DPH0 load(1, XDATA, add(CFA_XSP16, literal(-1)))
        CFI CFA_SP SP+0
        CFI CFA_XSP16 add(XSP16, 9)
        CFI Block cfiCond6 Using cfiCommon0
        CFI (cfiCond6) NoFunction
        CFI (cfiCond6) Conditional ??CrossCallReturnLabel_62
        CFI (cfiCond6) R6 load(1, XDATA, add(CFA_XSP16, literal(-9)))
        CFI (cfiCond6) VB load(1, XDATA, add(CFA_XSP16, literal(-8)))
        CFI (cfiCond6) V0 load(1, XDATA, add(CFA_XSP16, literal(-7)))
        CFI (cfiCond6) R7 load(1, XDATA, add(CFA_XSP16, literal(-6)))
        CFI (cfiCond6) ?RET_LOW load(1, XDATA, add(CFA_XSP16, literal(-5)))
        CFI (cfiCond6) ?RET_HIGH load(1, XDATA, add(CFA_XSP16, literal(-4)))
        CFI (cfiCond6) ?BRET_EXT load(1, XDATA, add(CFA_XSP16, literal(-3)))
        CFI (cfiCond6) DPL0 load(1, XDATA, add(CFA_XSP16, literal(-2)))
        CFI (cfiCond6) DPH0 load(1, XDATA, add(CFA_XSP16, literal(-1)))
        CFI (cfiCond6) CFA_SP SP+0
        CFI (cfiCond6) CFA_XSP16 add(XSP16, 9)
        CFI Block cfiPicker7 Using cfiCommon1
        CFI (cfiPicker7) NoFunction
        CFI (cfiPicker7) Picker
        MOV     DPTR,#pMtAfDataReq
        MOVX    A,@DPTR
        ADD     A,#0x17
        CFI EndBlock cfiCond5
        CFI EndBlock cfiCond6
        CFI EndBlock cfiPicker7
        REQUIRE ??Subroutine45_0
        ; // Fall through to label ??Subroutine45_0

        RSEG BANKED_CODE:CODE:NOROOT(0)
??Subroutine45_0:
        CFI Block cfiCond8 Using cfiCommon0
        CFI NoFunction
        CFI Conditional ??CrossCallReturnLabel_59
        CFI R6 load(1, XDATA, add(CFA_XSP16, literal(-14)))
        CFI VB load(1, XDATA, add(CFA_XSP16, literal(-13)))
        CFI V0 load(1, XDATA, add(CFA_XSP16, literal(-12)))
        CFI V1 load(1, XDATA, add(CFA_XSP16, literal(-11)))
        CFI V2 load(1, XDATA, add(CFA_XSP16, literal(-10)))
        CFI V3 load(1, XDATA, add(CFA_XSP16, literal(-9)))
        CFI V4 load(1, XDATA, add(CFA_XSP16, literal(-8)))
        CFI V5 load(1, XDATA, add(CFA_XSP16, literal(-7)))
        CFI R7 load(1, XDATA, add(CFA_XSP16, literal(-6)))
        CFI ?RET_LOW load(1, XDATA, add(CFA_XSP16, literal(-5)))
        CFI ?RET_HIGH load(1, XDATA, add(CFA_XSP16, literal(-4)))
        CFI ?BRET_EXT load(1, XDATA, add(CFA_XSP16, literal(-3)))
        CFI DPL0 load(1, XDATA, add(CFA_XSP16, literal(-2)))
        CFI DPH0 load(1, XDATA, add(CFA_XSP16, literal(-1)))
        CFI CFA_SP SP+0
        CFI CFA_XSP16 add(XSP16, 15)
        CFI Block cfiCond9 Using cfiCommon0
        CFI (cfiCond9) NoFunction
        CFI (cfiCond9) Conditional ??CrossCallReturnLabel_60
        CFI (cfiCond9) R6 load(1, XDATA, add(CFA_XSP16, literal(-14)))
        CFI (cfiCond9) VB load(1, XDATA, add(CFA_XSP16, literal(-13)))
        CFI (cfiCond9) V0 load(1, XDATA, add(CFA_XSP16, literal(-12)))
        CFI (cfiCond9) V1 load(1, XDATA, add(CFA_XSP16, literal(-11)))
        CFI (cfiCond9) V2 load(1, XDATA, add(CFA_XSP16, literal(-10)))
        CFI (cfiCond9) V3 load(1, XDATA, add(CFA_XSP16, literal(-9)))
        CFI (cfiCond9) V4 load(1, XDATA, add(CFA_XSP16, literal(-8)))
        CFI (cfiCond9) V5 load(1, XDATA, add(CFA_XSP16, literal(-7)))
        CFI (cfiCond9) R7 load(1, XDATA, add(CFA_XSP16, literal(-6)))
        CFI (cfiCond9) ?RET_LOW load(1, XDATA, add(CFA_XSP16, literal(-5)))
        CFI (cfiCond9) ?RET_HIGH load(1, XDATA, add(CFA_XSP16, literal(-4)))
        CFI (cfiCond9) ?BRET_EXT load(1, XDATA, add(CFA_XSP16, literal(-3)))
        CFI (cfiCond9) DPL0 load(1, XDATA, add(CFA_XSP16, literal(-2)))
        CFI (cfiCond9) DPH0 load(1, XDATA, add(CFA_XSP16, literal(-1)))
        CFI (cfiCond9) CFA_SP SP+0
        CFI (cfiCond9) CFA_XSP16 add(XSP16, 24)
        CFI Block cfiCond10 Using cfiCommon0
        CFI (cfiCond10) NoFunction
        CFI (cfiCond10) Conditional ??CrossCallReturnLabel_61
        CFI (cfiCond10) R6 load(1, XDATA, add(CFA_XSP16, literal(-9)))
        CFI (cfiCond10) VB load(1, XDATA, add(CFA_XSP16, literal(-8)))
        CFI (cfiCond10) V0 load(1, XDATA, add(CFA_XSP16, literal(-7)))
        CFI (cfiCond10) R7 load(1, XDATA, add(CFA_XSP16, literal(-6)))
        CFI (cfiCond10) ?RET_LOW load(1, XDATA, add(CFA_XSP16, literal(-5)))
        CFI (cfiCond10) ?RET_HIGH load(1, XDATA, add(CFA_XSP16, literal(-4)))
        CFI (cfiCond10) ?BRET_EXT load(1, XDATA, add(CFA_XSP16, literal(-3)))
        CFI (cfiCond10) DPL0 load(1, XDATA, add(CFA_XSP16, literal(-2)))
        CFI (cfiCond10) DPH0 load(1, XDATA, add(CFA_XSP16, literal(-1)))
        CFI (cfiCond10) CFA_SP SP+0
        CFI (cfiCond10) CFA_XSP16 add(XSP16, 9)
        CFI Block cfiCond11 Using cfiCommon0
        CFI (cfiCond11) NoFunction
        CFI (cfiCond11) Conditional ??CrossCallReturnLabel_62
        CFI (cfiCond11) R6 load(1, XDATA, add(CFA_XSP16, literal(-9)))
        CFI (cfiCond11) VB load(1, XDATA, add(CFA_XSP16, literal(-8)))
        CFI (cfiCond11) V0 load(1, XDATA, add(CFA_XSP16, literal(-7)))
        CFI (cfiCond11) R7 load(1, XDATA, add(CFA_XSP16, literal(-6)))
        CFI (cfiCond11) ?RET_LOW load(1, XDATA, add(CFA_XSP16, literal(-5)))
        CFI (cfiCond11) ?RET_HIGH load(1, XDATA, add(CFA_XSP16, literal(-4)))
        CFI (cfiCond11) ?BRET_EXT load(1, XDATA, add(CFA_XSP16, literal(-3)))
        CFI (cfiCond11) DPL0 load(1, XDATA, add(CFA_XSP16, literal(-2)))
        CFI (cfiCond11) DPH0 load(1, XDATA, add(CFA_XSP16, literal(-1)))
        CFI (cfiCond11) CFA_SP SP+0
        CFI (cfiCond11) CFA_XSP16 add(XSP16, 9)
        CFI Block cfiPicker12 Using cfiCommon1
        CFI (cfiPicker12) NoFunction
        CFI (cfiPicker12) Picker
        LCALL   ?Subroutine38 & 0xFFFF
??CrossCallReturnLabel_129:
        MOVX    A,@DPTR
        RET
        CFI EndBlock cfiCond8
        CFI EndBlock cfiCond9
        CFI EndBlock cfiCond10
        CFI EndBlock cfiCond11
        CFI EndBlock cfiPicker12
//  196 
//  197 /***************************************************************************************************
//  198  * @fn      MT_AfCommandProcessing
//  199  *
//  200  * @brief   Process all the AF commands that are issued by test tool
//  201  *
//  202  * @param   pBuf - pointer to the received buffer
//  203  *
//  204  * @return  status
//  205  ***************************************************************************************************/

        RSEG BANKED_CODE:CODE:NOROOT(0)
//  206 uint8 MT_AfCommandProcessing(uint8 *pBuf)
MT_AfCommandProcessing:
        CFI Block cfiBlock13 Using cfiCommon0
        CFI Function MT_AfCommandProcessing
        CODE
//  207 {
        FUNCALL MT_AfCommandProcessing, MT_AfRegister
        LOCFRAME ISTACK, 0, STACK
        LOCFRAME PSTACK, 0, STACK
        LOCFRAME XSTACK, 12, STACK
        LOCFRAME IOVERLAY, 0, STATIC
        LOCFRAME DOVERLAY, 0, STATIC
        ARGFRAME ISTACK, 0, STACK
        ARGFRAME PSTACK, 0, STACK
        ARGFRAME XSTACK, 12, STACK
        ARGFRAME IOVERLAY, 0, STATIC
        ARGFRAME DOVERLAY, 0, STATIC
        FUNCALL MT_AfCommandProcessing, MT_AfDataRequest
        LOCFRAME ISTACK, 0, STACK
        LOCFRAME PSTACK, 0, STACK
        LOCFRAME XSTACK, 12, STACK
        LOCFRAME IOVERLAY, 0, STATIC
        LOCFRAME DOVERLAY, 0, STATIC
        ARGFRAME ISTACK, 0, STACK
        ARGFRAME PSTACK, 0, STACK
        ARGFRAME XSTACK, 12, STACK
        ARGFRAME IOVERLAY, 0, STATIC
        ARGFRAME DOVERLAY, 0, STATIC
        FUNCALL MT_AfCommandProcessing, MT_AfDataRequestSrcRtg
        LOCFRAME ISTACK, 0, STACK
        LOCFRAME PSTACK, 0, STACK
        LOCFRAME XSTACK, 12, STACK
        LOCFRAME IOVERLAY, 0, STATIC
        LOCFRAME DOVERLAY, 0, STATIC
        ARGFRAME ISTACK, 0, STACK
        ARGFRAME PSTACK, 0, STACK
        ARGFRAME XSTACK, 12, STACK
        ARGFRAME IOVERLAY, 0, STATIC
        ARGFRAME DOVERLAY, 0, STATIC
        FUNCALL MT_AfCommandProcessing, MT_AfDataRetrieve
        LOCFRAME ISTACK, 0, STACK
        LOCFRAME PSTACK, 0, STACK
        LOCFRAME XSTACK, 12, STACK
        LOCFRAME IOVERLAY, 0, STATIC
        LOCFRAME DOVERLAY, 0, STATIC
        ARGFRAME ISTACK, 0, STACK
        ARGFRAME PSTACK, 0, STACK
        ARGFRAME XSTACK, 12, STACK
        ARGFRAME IOVERLAY, 0, STATIC
        ARGFRAME DOVERLAY, 0, STATIC
        FUNCALL MT_AfCommandProcessing, MT_AfDataStore
        LOCFRAME ISTACK, 0, STACK
        LOCFRAME PSTACK, 0, STACK
        LOCFRAME XSTACK, 12, STACK
        LOCFRAME IOVERLAY, 0, STATIC
        LOCFRAME DOVERLAY, 0, STATIC
        ARGFRAME ISTACK, 0, STACK
        ARGFRAME PSTACK, 0, STACK
        ARGFRAME XSTACK, 12, STACK
        ARGFRAME IOVERLAY, 0, STATIC
        ARGFRAME DOVERLAY, 0, STATIC
        FUNCALL MT_AfCommandProcessing, afAPSF_ConfigSet
        LOCFRAME ISTACK, 0, STACK
        LOCFRAME PSTACK, 0, STACK
        LOCFRAME XSTACK, 12, STACK
        LOCFRAME IOVERLAY, 0, STATIC
        LOCFRAME DOVERLAY, 0, STATIC
        ARGFRAME ISTACK, 0, STACK
        ARGFRAME PSTACK, 0, STACK
        ARGFRAME XSTACK, 12, STACK
        ARGFRAME IOVERLAY, 0, STATIC
        ARGFRAME DOVERLAY, 0, STATIC
        FUNCALL MT_AfCommandProcessing, MT_BuildAndSendZToolResponse
        LOCFRAME ISTACK, 0, STACK
        LOCFRAME PSTACK, 0, STACK
        LOCFRAME XSTACK, 12, STACK
        LOCFRAME IOVERLAY, 0, STATIC
        LOCFRAME DOVERLAY, 0, STATIC
        ARGFRAME ISTACK, 0, STACK
        ARGFRAME PSTACK, 0, STACK
        ARGFRAME XSTACK, 12, STACK
        ARGFRAME IOVERLAY, 0, STATIC
        ARGFRAME DOVERLAY, 0, STATIC
        MOV     A,#-0x9
        LCALL   ?BANKED_ENTER_XDATA
        CFI DPH0 load(1, XDATA, add(CFA_XSP16, literal(-1)))
        CFI DPL0 load(1, XDATA, add(CFA_XSP16, literal(-2)))
        CFI ?BRET_EXT load(1, XDATA, add(CFA_XSP16, literal(-3)))
        CFI ?RET_HIGH load(1, XDATA, add(CFA_XSP16, literal(-4)))
        CFI ?RET_LOW load(1, XDATA, add(CFA_XSP16, literal(-5)))
        CFI R7 load(1, XDATA, add(CFA_XSP16, literal(-6)))
        CFI V0 load(1, XDATA, add(CFA_XSP16, literal(-7)))
        CFI VB load(1, XDATA, add(CFA_XSP16, literal(-8)))
        CFI R6 load(1, XDATA, add(CFA_XSP16, literal(-9)))
        CFI CFA_SP SP+0
        CFI CFA_XSP16 add(XSP16, 9)
        ; Saved register size: 9
        ; Auto size: 3
        MOV     A,#-0x3
        LCALL   ?ALLOC_XSTACK8
        CFI CFA_XSP16 add(XSP16, 12)
        MOV     A,R2
        MOV     R0,A
        MOV     A,R3
        MOV     R1,A
//  208   uint8 status = MT_RPC_SUCCESS;
        MOV     R6,#0x0
//  209 
//  210   switch (pBuf[MT_RPC_POS_CMD1])
        MOV     DPL,R0
        MOV     DPH,R1
        INC     DPTR
        INC     DPTR
        MOVX    A,@DPTR
        JZ      ??MT_AfCommandProcessing_0
        DEC     A
        JZ      ??MT_AfCommandProcessing_1
        DEC     A
        JZ      ??MT_AfCommandProcessing_1
        DEC     A
        JZ      ??MT_AfCommandProcessing_2
        ADD     A,#-0xe
        JZ      ??MT_AfCommandProcessing_3
        DEC     A
        JZ      ??MT_AfCommandProcessing_4
        DEC     A
        JZ      ??MT_AfCommandProcessing_5
        SJMP    ??MT_AfCommandProcessing_6
//  211   {
//  212     case MT_AF_REGISTER:
//  213       MT_AfRegister(pBuf);
??MT_AfCommandProcessing_0:
        ; Setup parameters for call to function MT_AfRegister
        LCALL   ??MT_AfRegister?relay
//  214       break;
        SJMP    ??MT_AfCommandProcessing_7
//  215 
//  216     case MT_AF_DATA_REQUEST:
//  217     case MT_AF_DATA_REQUEST_EXT:
//  218       MT_AfDataRequest(pBuf);
??MT_AfCommandProcessing_1:
        ; Setup parameters for call to function MT_AfDataRequest
        LCALL   ??MT_AfDataRequest?relay
//  219       break;
        SJMP    ??MT_AfCommandProcessing_7
//  220 
//  221 #if defined ( ZIGBEE_SOURCE_ROUTING )
//  222     case MT_AF_DATA_REQUEST_SRCRTG:
//  223       MT_AfDataRequestSrcRtg(pBuf);
??MT_AfCommandProcessing_2:
        ; Setup parameters for call to function MT_AfDataRequestSrcRtg
        LCALL   ??MT_AfDataRequestSrcRtg?relay
//  224       break;
        SJMP    ??MT_AfCommandProcessing_7
//  225 #endif
//  226 
//  227 #if defined INTER_PAN
//  228     case MT_AF_INTER_PAN_CTL:
//  229       MT_AfInterPanCtl(pBuf);
//  230       break;
//  231 #endif
//  232 
//  233     case MT_AF_DATA_RETRIEVE:
//  234       MT_AfDataRetrieve(pBuf);
??MT_AfCommandProcessing_4:
        ; Setup parameters for call to function MT_AfDataRetrieve
        LCALL   ??MT_AfDataRetrieve?relay
//  235       break;
        SJMP    ??MT_AfCommandProcessing_7
//  236 
//  237     case MT_AF_DATA_STORE:
//  238       MT_AfDataStore(pBuf);
??MT_AfCommandProcessing_3:
        ; Setup parameters for call to function MT_AfDataStore
        LCALL   ??MT_AfDataStore?relay
//  239       break;
        SJMP    ??MT_AfCommandProcessing_7
//  240 
//  241     case MT_AF_APSF_CONFIG_SET:
//  242       MT_AfAPSF_ConfigSet(pBuf);
??MT_AfCommandProcessing_5:
        MOV     DPL,R0
        MOV     DPH,R1
        INC     DPTR
        INC     DPTR
        INC     DPTR
        INC     DPTR
        MOVX    A,@DPTR
        PUSH    A
        CFI CFA_SP SP+-1
        MOV     A,#0x1
        LCALL   ?XSTACK_DISP0_8
        POP     A
        CFI CFA_SP SP+0
        MOVX    @DPTR,A
        MOV     DPL,R0
        MOV     DPH,R1
        INC     DPTR
        INC     DPTR
        INC     DPTR
        INC     DPTR
        INC     DPTR
        MOVX    A,@DPTR
        PUSH    A
        CFI CFA_SP SP+-1
        MOV     A,#0x2
        LCALL   ?XSTACK_DISP0_8
        POP     A
        CFI CFA_SP SP+0
        MOVX    @DPTR,A
        ; Setup parameters for call to function afAPSF_ConfigSet
        MOV     A,#0x1
        LCALL   ?XSTACK_DISP0_8
        MOV     R2,DPL
        MOV     R3,DPH
        MOV     DPL,R0
        MOV     DPH,R1
        INC     DPTR
        INC     DPTR
        INC     DPTR
        MOVX    A,@DPTR
        MOV     R1,A
        LCALL   ??afAPSF_ConfigSet?relay
        MOV     A,R1
        MOV     DPL,?XSP + 0
        MOV     DPH,?XSP + 1
        MOVX    @DPTR,A
        ; Setup parameters for call to function MT_BuildAndSendZToolResponse
        MOV     R4,DPL
        MOV     R5,DPH
        MOV     R3,#0x1
        MOV     R2,#0x13
        MOV     R1,#0x64
        LCALL   ??MT_BuildAndSendZToolResponse?relay
//  243       break;
        SJMP    ??MT_AfCommandProcessing_7
//  244 
//  245     default:
//  246       status = MT_RPC_ERR_COMMAND_ID;
??MT_AfCommandProcessing_6:
        INC     R6
        INC     R6
//  247       break;
//  248   }
//  249 
//  250   return status;
??MT_AfCommandProcessing_7:
        MOV     A,R6
        MOV     R1,A
        MOV     A,#0x3
        LCALL   ?DEALLOC_XSTACK8
        CFI CFA_XSP16 add(XSP16, 9)
        LJMP    ?Subroutine0 & 0xFFFF
        CFI EndBlock cfiBlock13
//  251 }
//  252 
//  253 /***************************************************************************************************
//  254  * @fn      MT_AfRegister
//  255  *
//  256  * @brief   Process AF Register command
//  257  *
//  258  * @param   pBuf - pointer to the received buffer
//  259  *
//  260  * @return  none
//  261  ***************************************************************************************************/

        RSEG BANKED_CODE:CODE:NOROOT(0)
//  262 void MT_AfRegister(uint8 *pBuf)
MT_AfRegister:
        CFI Block cfiBlock14 Using cfiCommon0
        CFI Function MT_AfRegister
        CODE
//  263 {
        FUNCALL MT_AfRegister, osal_mem_alloc
        LOCFRAME ISTACK, 0, STACK
        LOCFRAME PSTACK, 0, STACK
        LOCFRAME XSTACK, 15, STACK
        LOCFRAME IOVERLAY, 0, STATIC
        LOCFRAME DOVERLAY, 0, STATIC
        ARGFRAME ISTACK, 0, STACK
        ARGFRAME PSTACK, 0, STACK
        ARGFRAME XSTACK, 15, STACK
        ARGFRAME IOVERLAY, 0, STATIC
        ARGFRAME DOVERLAY, 0, STATIC
        FUNCALL MT_AfRegister, MT_BuildEndpointDesc
        LOCFRAME ISTACK, 0, STACK
        LOCFRAME PSTACK, 0, STACK
        LOCFRAME XSTACK, 15, STACK
        LOCFRAME IOVERLAY, 0, STATIC
        LOCFRAME DOVERLAY, 0, STATIC
        ARGFRAME ISTACK, 0, STACK
        ARGFRAME PSTACK, 0, STACK
        ARGFRAME XSTACK, 15, STACK
        ARGFRAME IOVERLAY, 0, STATIC
        ARGFRAME DOVERLAY, 0, STATIC
        FUNCALL MT_AfRegister, afRegister
        LOCFRAME ISTACK, 0, STACK
        LOCFRAME PSTACK, 0, STACK
        LOCFRAME XSTACK, 15, STACK
        LOCFRAME IOVERLAY, 0, STATIC
        LOCFRAME DOVERLAY, 0, STATIC
        ARGFRAME ISTACK, 0, STACK
        ARGFRAME PSTACK, 0, STACK
        ARGFRAME XSTACK, 15, STACK
        ARGFRAME IOVERLAY, 0, STATIC
        ARGFRAME DOVERLAY, 0, STATIC
        FUNCALL MT_AfRegister, osal_mem_free
        LOCFRAME ISTACK, 0, STACK
        LOCFRAME PSTACK, 0, STACK
        LOCFRAME XSTACK, 15, STACK
        LOCFRAME IOVERLAY, 0, STATIC
        LOCFRAME DOVERLAY, 0, STATIC
        ARGFRAME ISTACK, 0, STACK
        ARGFRAME PSTACK, 0, STACK
        ARGFRAME XSTACK, 15, STACK
        ARGFRAME IOVERLAY, 0, STATIC
        ARGFRAME DOVERLAY, 0, STATIC
        FUNCALL MT_AfRegister, MT_BuildAndSendZToolResponse
        LOCFRAME ISTACK, 0, STACK
        LOCFRAME PSTACK, 0, STACK
        LOCFRAME XSTACK, 15, STACK
        LOCFRAME IOVERLAY, 0, STATIC
        LOCFRAME DOVERLAY, 0, STATIC
        ARGFRAME ISTACK, 0, STACK
        ARGFRAME PSTACK, 0, STACK
        ARGFRAME XSTACK, 15, STACK
        ARGFRAME IOVERLAY, 0, STATIC
        ARGFRAME DOVERLAY, 0, STATIC
        MOV     A,#-0xe
        LCALL   ?BANKED_ENTER_XDATA
        CFI DPH0 load(1, XDATA, add(CFA_XSP16, literal(-1)))
        CFI DPL0 load(1, XDATA, add(CFA_XSP16, literal(-2)))
        CFI ?BRET_EXT load(1, XDATA, add(CFA_XSP16, literal(-3)))
        CFI ?RET_HIGH load(1, XDATA, add(CFA_XSP16, literal(-4)))
        CFI ?RET_LOW load(1, XDATA, add(CFA_XSP16, literal(-5)))
        CFI R7 load(1, XDATA, add(CFA_XSP16, literal(-6)))
        CFI V5 load(1, XDATA, add(CFA_XSP16, literal(-7)))
        CFI V4 load(1, XDATA, add(CFA_XSP16, literal(-8)))
        CFI V3 load(1, XDATA, add(CFA_XSP16, literal(-9)))
        CFI V2 load(1, XDATA, add(CFA_XSP16, literal(-10)))
        CFI V1 load(1, XDATA, add(CFA_XSP16, literal(-11)))
        CFI V0 load(1, XDATA, add(CFA_XSP16, literal(-12)))
        CFI VB load(1, XDATA, add(CFA_XSP16, literal(-13)))
        CFI R6 load(1, XDATA, add(CFA_XSP16, literal(-14)))
        CFI CFA_SP SP+0
        CFI CFA_XSP16 add(XSP16, 14)
        ; Saved register size: 14
        ; Auto size: 1
        MOV     A,#-0x1
        LCALL   ?ALLOC_XSTACK8
        CFI CFA_XSP16 add(XSP16, 15)
        MOV     ?V0 + 0,R2
        MOV     ?V0 + 1,R3
//  264   uint8 cmdId;
//  265   uint8 retValue = ZMemError;
        MOV     DPL,?XSP + 0
        MOV     DPH,?XSP + 1
        MOV     A,#0x10
        LCALL   ?Subroutine28 & 0xFFFF
//  266   endPointDesc_t *epDesc;
//  267 
//  268   /* parse header */
//  269   cmdId = pBuf[MT_RPC_POS_CMD1];
??CrossCallReturnLabel_38:
        MOV     ?V0 + 2,A
//  270   pBuf += MT_RPC_FRAME_HDR_SZ;
//  271 
//  272   epDesc = (endPointDesc_t *)osal_mem_alloc(sizeof(endPointDesc_t));
        ; Setup parameters for call to function osal_mem_alloc
        MOV     R2,#0x6
        MOV     R3,#0x0
        LCALL   ??osal_mem_alloc?relay
        MOV     ?V0 + 4,R2
        MOV     ?V0 + 5,R3
        MOV     R6,?V0 + 4
        MOV     R7,?V0 + 5
//  273   if ( epDesc )
        MOV     A,R6
        ORL     A,R7
        JZ      ??MT_AfRegister_0
//  274   {
//  275     epDesc->task_id = &MT_TaskID;
        MOV     DPL,R6
        MOV     DPH,R7
        INC     DPTR
        MOV     A,#MT_TaskID & 0xff
        MOVX    @DPTR,A
        INC     DPTR
        MOV     A,#(MT_TaskID >> 8) & 0xff
        MOVX    @DPTR,A
//  276     retValue = MT_BuildEndpointDesc( pBuf, epDesc );
        ; Setup parameters for call to function MT_BuildEndpointDesc
        MOV     A,R6
        MOV     R4,A
        MOV     A,R7
        MOV     R5,A
        MOV     A,?V0 + 0
        ADD     A,#0x3
        MOV     R2,A
        MOV     A,?V0 + 1
        ADDC    A,#0x0
        MOV     R3,A
        LCALL   ??MT_BuildEndpointDesc?relay
        MOV     A,R1
        MOV     DPL,?XSP + 0
        MOV     DPH,?XSP + 1
        MOVX    @DPTR,A
//  277     if ( retValue == ZSuccess )
        JNZ     ??MT_AfRegister_1
//  278     {
//  279       retValue = afRegister( epDesc );
        ; Setup parameters for call to function afRegister
        MOV     A,R6
        MOV     R2,A
        MOV     A,R7
        MOV     R3,A
        LCALL   ??afRegister?relay
        MOV     A,R1
        MOV     DPL,?XSP + 0
        MOV     DPH,?XSP + 1
        MOVX    @DPTR,A
//  280     }
//  281 
//  282     if ( retValue != ZSuccess )
??MT_AfRegister_1:
        MOVX    A,@DPTR
        JZ      ??MT_AfRegister_0
//  283     {
//  284       osal_mem_free( epDesc );
        ; Setup parameters for call to function osal_mem_free
        MOV     A,R6
        MOV     R2,A
        MOV     A,R7
        MOV     R3,A
        LCALL   ??osal_mem_free?relay
//  285     }
//  286   }
//  287 
//  288   /* Build and send back the response */
//  289   MT_BuildAndSendZToolResponse(((uint8)MT_RPC_CMD_SRSP | (uint8)MT_RPC_SYS_AF), cmdId, 1, &retValue);
??MT_AfRegister_0:
        ; Setup parameters for call to function MT_BuildAndSendZToolResponse
        MOV     DPL,?XSP + 0
        MOV     DPH,?XSP + 1
        MOV     R4,DPL
        MOV     R5,DPH
        MOV     R3,#0x1
        MOV     R2,?V0 + 2
        CFI EndBlock cfiBlock14
        REQUIRE ?Subroutine1
        ; // Fall through to label ?Subroutine1
//  290 }

        RSEG BANKED_CODE:CODE:NOROOT(0)
?Subroutine1:
        CFI Block cfiBlock15 Using cfiCommon0
        CFI NoFunction
        CFI CFA_SP SP+0
        CFI CFA_XSP16 add(XSP16, 15)
        CFI VB load(1, XDATA, add(CFA_XSP16, literal(-13)))
        CFI DPL0 load(1, XDATA, add(CFA_XSP16, literal(-2)))
        CFI DPH0 load(1, XDATA, add(CFA_XSP16, literal(-1)))
        CFI R6 load(1, XDATA, add(CFA_XSP16, literal(-14)))
        CFI R7 load(1, XDATA, add(CFA_XSP16, literal(-6)))
        CFI V0 load(1, XDATA, add(CFA_XSP16, literal(-12)))
        CFI V1 load(1, XDATA, add(CFA_XSP16, literal(-11)))
        CFI V2 load(1, XDATA, add(CFA_XSP16, literal(-10)))
        CFI V3 load(1, XDATA, add(CFA_XSP16, literal(-9)))
        CFI V4 load(1, XDATA, add(CFA_XSP16, literal(-8)))
        CFI V5 load(1, XDATA, add(CFA_XSP16, literal(-7)))
        CFI ?BRET_EXT load(1, XDATA, add(CFA_XSP16, literal(-3)))
        CFI ?RET_HIGH load(1, XDATA, add(CFA_XSP16, literal(-4)))
        CFI ?RET_LOW load(1, XDATA, add(CFA_XSP16, literal(-5)))
        MOV     R1,#0x64
        LCALL   ??MT_BuildAndSendZToolResponse?relay
        MOV     A,#0x1
        LCALL   ?DEALLOC_XSTACK8
        CFI CFA_XSP16 add(XSP16, 14)
        MOV     R7,#0x6
        LJMP    ?BANKED_LEAVE_XDATA
        CFI EndBlock cfiBlock15
//  291 
//  292 /***************************************************************************************************
//  293  * @fn      MT_AfDataRequest
//  294  *
//  295  * @brief   Process AF Register command
//  296  *
//  297  * @param   pBuf - pointer to the received buffer
//  298  *
//  299  * @return  none
//  300  ***************************************************************************************************/

        RSEG BANKED_CODE:CODE:NOROOT(0)
//  301 void MT_AfDataRequest(uint8 *pBuf)
MT_AfDataRequest:
        CFI Block cfiBlock16 Using cfiCommon0
        CFI Function MT_AfDataRequest
        CODE
//  302 {
        FUNCALL MT_AfDataRequest, osal_memcpy
        LOCFRAME ISTACK, 0, STACK
        LOCFRAME PSTACK, 0, STACK
        LOCFRAME XSTACK, 39, STACK
        LOCFRAME IOVERLAY, 0, STATIC
        LOCFRAME DOVERLAY, 0, STATIC
        ARGFRAME ISTACK, 0, STACK
        ARGFRAME PSTACK, 0, STACK
        ARGFRAME XSTACK, 39, STACK
        ARGFRAME IOVERLAY, 0, STATIC
        ARGFRAME DOVERLAY, 0, STATIC
        FUNCALL MT_AfDataRequest, afFindEndPointDesc
        LOCFRAME ISTACK, 0, STACK
        LOCFRAME PSTACK, 0, STACK
        LOCFRAME XSTACK, 36, STACK
        LOCFRAME IOVERLAY, 0, STATIC
        LOCFRAME DOVERLAY, 0, STATIC
        ARGFRAME ISTACK, 0, STACK
        ARGFRAME PSTACK, 0, STACK
        ARGFRAME XSTACK, 36, STACK
        ARGFRAME IOVERLAY, 0, STATIC
        ARGFRAME DOVERLAY, 0, STATIC
        FUNCALL MT_AfDataRequest, osal_mem_alloc
        LOCFRAME ISTACK, 0, STACK
        LOCFRAME PSTACK, 0, STACK
        LOCFRAME XSTACK, 36, STACK
        LOCFRAME IOVERLAY, 0, STATIC
        LOCFRAME DOVERLAY, 0, STATIC
        ARGFRAME ISTACK, 0, STACK
        ARGFRAME PSTACK, 0, STACK
        ARGFRAME XSTACK, 36, STACK
        ARGFRAME IOVERLAY, 0, STATIC
        ARGFRAME DOVERLAY, 0, STATIC
        FUNCALL MT_AfDataRequest, osal_memcpy
        LOCFRAME ISTACK, 0, STACK
        LOCFRAME PSTACK, 0, STACK
        LOCFRAME XSTACK, 39, STACK
        LOCFRAME IOVERLAY, 0, STATIC
        LOCFRAME DOVERLAY, 0, STATIC
        ARGFRAME ISTACK, 0, STACK
        ARGFRAME PSTACK, 0, STACK
        ARGFRAME XSTACK, 39, STACK
        ARGFRAME IOVERLAY, 0, STATIC
        ARGFRAME DOVERLAY, 0, STATIC
        FUNCALL MT_AfDataRequest, osal_start_timerEx
        LOCFRAME ISTACK, 0, STACK
        LOCFRAME PSTACK, 0, STACK
        LOCFRAME XSTACK, 36, STACK
        LOCFRAME IOVERLAY, 0, STATIC
        LOCFRAME DOVERLAY, 0, STATIC
        ARGFRAME ISTACK, 0, STACK
        ARGFRAME PSTACK, 0, STACK
        ARGFRAME XSTACK, 36, STACK
        ARGFRAME IOVERLAY, 0, STATIC
        ARGFRAME DOVERLAY, 0, STATIC
        FUNCALL MT_AfDataRequest, osal_set_event
        LOCFRAME ISTACK, 0, STACK
        LOCFRAME PSTACK, 0, STACK
        LOCFRAME XSTACK, 36, STACK
        LOCFRAME IOVERLAY, 0, STATIC
        LOCFRAME DOVERLAY, 0, STATIC
        ARGFRAME ISTACK, 0, STACK
        ARGFRAME PSTACK, 0, STACK
        ARGFRAME XSTACK, 36, STACK
        ARGFRAME IOVERLAY, 0, STATIC
        ARGFRAME DOVERLAY, 0, STATIC
        FUNCALL MT_AfDataRequest, AF_DataRequest
        LOCFRAME ISTACK, 0, STACK
        LOCFRAME PSTACK, 0, STACK
        LOCFRAME XSTACK, 45, STACK
        LOCFRAME IOVERLAY, 0, STATIC
        LOCFRAME DOVERLAY, 0, STATIC
        ARGFRAME ISTACK, 0, STACK
        ARGFRAME PSTACK, 0, STACK
        ARGFRAME XSTACK, 45, STACK
        ARGFRAME IOVERLAY, 0, STATIC
        ARGFRAME DOVERLAY, 0, STATIC
        FUNCALL MT_AfDataRequest, MT_BuildAndSendZToolResponse
        LOCFRAME ISTACK, 0, STACK
        LOCFRAME PSTACK, 0, STACK
        LOCFRAME XSTACK, 36, STACK
        LOCFRAME IOVERLAY, 0, STATIC
        LOCFRAME DOVERLAY, 0, STATIC
        ARGFRAME ISTACK, 0, STACK
        ARGFRAME PSTACK, 0, STACK
        ARGFRAME XSTACK, 36, STACK
        ARGFRAME IOVERLAY, 0, STATIC
        ARGFRAME DOVERLAY, 0, STATIC
        MOV     A,#-0x16
        LCALL   ?BANKED_ENTER_XDATA
        CFI DPH0 load(1, XDATA, add(CFA_XSP16, literal(-1)))
        CFI DPL0 load(1, XDATA, add(CFA_XSP16, literal(-2)))
        CFI ?BRET_EXT load(1, XDATA, add(CFA_XSP16, literal(-3)))
        CFI ?RET_HIGH load(1, XDATA, add(CFA_XSP16, literal(-4)))
        CFI ?RET_LOW load(1, XDATA, add(CFA_XSP16, literal(-5)))
        CFI R7 load(1, XDATA, add(CFA_XSP16, literal(-6)))
        CFI V13 load(1, XDATA, add(CFA_XSP16, literal(-7)))
        CFI V12 load(1, XDATA, add(CFA_XSP16, literal(-8)))
        CFI V11 load(1, XDATA, add(CFA_XSP16, literal(-9)))
        CFI V10 load(1, XDATA, add(CFA_XSP16, literal(-10)))
        CFI V9 load(1, XDATA, add(CFA_XSP16, literal(-11)))
        CFI V8 load(1, XDATA, add(CFA_XSP16, literal(-12)))
        CFI V7 load(1, XDATA, add(CFA_XSP16, literal(-13)))
        CFI V6 load(1, XDATA, add(CFA_XSP16, literal(-14)))
        CFI V5 load(1, XDATA, add(CFA_XSP16, literal(-15)))
        CFI V4 load(1, XDATA, add(CFA_XSP16, literal(-16)))
        CFI V3 load(1, XDATA, add(CFA_XSP16, literal(-17)))
        CFI V2 load(1, XDATA, add(CFA_XSP16, literal(-18)))
        CFI V1 load(1, XDATA, add(CFA_XSP16, literal(-19)))
        CFI V0 load(1, XDATA, add(CFA_XSP16, literal(-20)))
        CFI VB load(1, XDATA, add(CFA_XSP16, literal(-21)))
        CFI R6 load(1, XDATA, add(CFA_XSP16, literal(-22)))
        CFI CFA_SP SP+0
        CFI CFA_XSP16 add(XSP16, 22)
        ; Saved register size: 22
        ; Auto size: 14
        MOV     A,#-0xe
        LCALL   ?ALLOC_XSTACK8
        CFI CFA_XSP16 add(XSP16, 36)
//  303   #define MT_AF_REQ_MSG_LEN  10
//  304   #define MT_AF_REQ_MSG_EXT  10
//  305 
//  306   endPointDesc_t *epDesc;
//  307   afAddrType_t dstAddr;
//  308   cId_t cId;
//  309   uint8 transId, txOpts, radius;
//  310   uint8 cmd0, cmd1;
//  311   uint8 retValue = ZFailure;
        MOV     DPL,?XSP + 0
        MOV     DPH,?XSP + 1
        MOV     A,#0x1
        LCALL   ?Subroutine29 & 0xFFFF
//  312   uint16 dataLen, tempLen;
//  313 
//  314   /* Parse header */
//  315   cmd0 = pBuf[MT_RPC_POS_CMD0];
??CrossCallReturnLabel_40:
        MOVX    A,@DPTR
        MOV     ?V0 + 7,A
//  316   cmd1 = pBuf[MT_RPC_POS_CMD1];
        MOV     DPL,R2
        MOV     DPH,R3
        INC     DPTR
        INC     DPTR
        MOVX    A,@DPTR
        MOV     ?V0 + 6,A
//  317   pBuf += MT_RPC_FRAME_HDR_SZ;
        MOV     A,R2
        ADD     A,#0x3
        MOV     ?V0 + 2,A
        MOV     A,R3
        LCALL   ?Subroutine40 & 0xFFFF
//  318 
//  319   if (cmd1 == MT_AF_DATA_REQUEST_EXT)
??CrossCallReturnLabel_69:
        INC     DPTR
        MOV     R0,DPL
        MOV     R1,DPH
        MOV     A,#0x2
        XRL     A,?V0 + 6
        JNZ     ??MT_AfDataRequest_0
//  320   {
//  321     dstAddr.addrMode = (afAddrMode_t)*pBuf++;
        MOV     DPL,?V0 + 2
        MOV     DPH,?V0 + 3
        MOVX    A,@DPTR
        MOV     R2,A
        MOV     A,#0xa
        LCALL   ?XSTACK_DISP0_8
        MOV     A,R2
        MOVX    @DPTR,A
        MOV     ?V0 + 2,R0
        MOV     ?V0 + 3,R1
//  322 
//  323     if (dstAddr.addrMode == afAddr64Bit)
        MOV     A,#0x3
        XRL     A,R2
        JNZ     ??MT_AfDataRequest_1
//  324     {
//  325       (void)osal_memcpy(dstAddr.addr.extAddr, pBuf, Z_EXTADDR_LEN);
        ; Setup parameters for call to function osal_memcpy
        MOV     ?V0 + 8,R0
        MOV     ?V0 + 9,R1
        MOV     ?V0 + 10,#0x0
        MOV     R0,#?V0 + 8
        LCALL   ?PUSH_XSTACK_I_THREE
        CFI CFA_XSP16 add(XSP16, 39)
        MOV     R4,#0x8
        MOV     R5,#0x0
        MOV     A,#0x5
        LCALL   ?XSTACK_DISP0_8
        MOV     R2,DPL
        MOV     R3,DPH
        LCALL   ??Subroutine56_0 & 0xFFFF
//  326     }
??CrossCallReturnLabel_116:
        LCALL   ?DEALLOC_XSTACK8
        CFI CFA_XSP16 add(XSP16, 36)
        SJMP    ??CrossCallReturnLabel_45
//  327     else
//  328     {
//  329       dstAddr.addr.shortAddr = BUILD_UINT16(pBuf[0], pBuf[1]);
??MT_AfDataRequest_1:
        MOV     DPL,R0
        MOV     DPH,R1
        LCALL   ?Subroutine11 & 0xFFFF
//  330     }
??CrossCallReturnLabel_8:
        LCALL   ?XSTACK_DISP0_8
        LCALL   ?Subroutine31 & 0xFFFF
//  331     pBuf += Z_EXTADDR_LEN;
??CrossCallReturnLabel_45:
        MOV     A,?V0 + 2
        ADD     A,#0x8
        LCALL   ??Subroutine47_0 & 0xFFFF
//  332 
//  333     dstAddr.endPoint = *pBuf++;
??CrossCallReturnLabel_68:
        PUSH    A
        CFI CFA_SP SP+-1
        MOV     A,#0xb
        LCALL   ?XSTACK_DISP0_8
        POP     A
        CFI CFA_SP SP+0
        LCALL   ?Subroutine22 & 0xFFFF
//  334     dstAddr.panId = BUILD_UINT16(pBuf[0], pBuf[1]);
??CrossCallReturnLabel_21:
        LCALL   ?Subroutine36 & 0xFFFF
??CrossCallReturnLabel_90:
        MOV     R0,A
        MOV     A,#0xc
        LCALL   ?XSTACK_DISP0_8
        LCALL   ?Subroutine31 & 0xFFFF
//  335     pBuf += 2;
??CrossCallReturnLabel_46:
        LCALL   ?Subroutine33 & 0xFFFF
//  336   }
??CrossCallReturnLabel_52:
        SJMP    ??MT_AfDataRequest_2
//  337   else
//  338   {
//  339     /* Destination address */
//  340     dstAddr.addrMode = afAddr16Bit;
??MT_AfDataRequest_0:
        MOV     A,#0xa
        LCALL   ?XSTACK_DISP0_8
        MOV     A,#0x2
        MOVX    @DPTR,A
//  341     dstAddr.addr.shortAddr = BUILD_UINT16(pBuf[0], pBuf[1]);
        MOV     DPL,?V0 + 2
        MOV     DPH,?V0 + 3
        MOVX    A,@DPTR
        MOV     R2,A
        MOV     DPL,R0
        MOV     DPH,R1
        MOVX    A,@DPTR
        MOV     R1,A
        MOV     A,R2
        MOV     R0,A
        MOV     A,#0x2
        LCALL   ?XSTACK_DISP0_8
        LCALL   ?Subroutine31 & 0xFFFF
//  342     pBuf += 2;
??CrossCallReturnLabel_47:
        LCALL   ?Subroutine17 & 0xFFFF
//  343 
//  344     /* Destination endpoint */
//  345     dstAddr.endPoint = *pBuf++;
??CrossCallReturnLabel_66:
        PUSH    A
        CFI CFA_SP SP+-1
        MOV     A,#0xb
        LCALL   ?XSTACK_DISP0_8
        POP     A
        CFI CFA_SP SP+0
        LCALL   ?Subroutine22 & 0xFFFF
//  346     dstAddr.panId = 0;
??CrossCallReturnLabel_22:
        MOV     A,#0xc
        LCALL   ?XSTACK_DISP0_8
        CLR     A
        MOVX    @DPTR,A
        INC     DPTR
        MOVX    @DPTR,A
//  347   }
//  348 
//  349   /* Source endpoint */
//  350   epDesc = afFindEndPointDesc(*pBuf++);
??MT_AfDataRequest_2:
        ; Setup parameters for call to function afFindEndPointDesc
        MOV     DPL,?V0 + 2
        MOV     DPH,?V0 + 3
        MOVX    A,@DPTR
        MOV     R1,A
        LCALL   ??afFindEndPointDesc?relay
        MOV     ?V0 + 12,R2
        MOV     ?V0 + 13,R3
        MOV     DPL,?V0 + 2
        MOV     DPH,?V0 + 3
        INC     DPTR
        MOV     ?V0 + 2,DPL
        MOV     ?V0 + 3,DPH
//  351 
//  352   /* ClusterId */
//  353   cId = BUILD_UINT16(pBuf[0], pBuf[1]);
        LCALL   ??Subroutine51_0 & 0xFFFF
??CrossCallReturnLabel_87:
        MOV     ?V0 + 0,A
        CLR     A
        ADDC    A,R1
        MOV     ?V0 + 1,A
//  354   pBuf +=2;
        LCALL   ?Subroutine17 & 0xFFFF
//  355 
//  356   /* TransId */
//  357   transId = *pBuf++;
??CrossCallReturnLabel_67:
        PUSH    A
        CFI CFA_SP SP+-1
        MOV     A,#0x1
        LCALL   ?XSTACK_DISP0_8
        POP     A
        CFI CFA_SP SP+0
        LCALL   ?Subroutine41 & 0xFFFF
//  358 
//  359   /* TxOption */
//  360   txOpts = *pBuf++;
??CrossCallReturnLabel_57:
        LCALL   ?Subroutine35 & 0xFFFF
//  361 
//  362   /* Radius */
//  363   radius = *pBuf++;
??CrossCallReturnLabel_54:
        INC     DPTR
        MOV     ?V0 + 2,DPL
        MOV     ?V0 + 3,DPH
//  364 
//  365   /* Length */
//  366   if (cmd1 == MT_AF_DATA_REQUEST_EXT)
        INC     DPTR
        MOV     R0,DPL
        MOV     R1,DPH
        MOV     DPL,?V0 + 2
        MOV     DPH,?V0 + 3
        MOVX    A,@DPTR
        MOV     ?V0 + 8,A
        MOV     A,#0x2
        XRL     A,?V0 + 6
        JNZ     ??MT_AfDataRequest_3
//  367   {
//  368     dataLen = BUILD_UINT16(pBuf[0], pBuf[1]);
        MOV     DPL,R0
        MOV     DPH,R1
        MOVX    A,@DPTR
        MOV     R1,A
        MOV     A,?V0 + 8
        ADD     A,#0x0
        MOV     R6,A
        CLR     A
        ADDC    A,R1
        MOV     R7,A
//  369     tempLen = dataLen + MT_AF_REQ_MSG_LEN + MT_AF_REQ_MSG_EXT;
        MOV     A,R6
        ADD     A,#0x14
        MOV     R0,A
        MOV     A,R7
        ADDC    A,#0x0
        MOV     R1,A
//  370     pBuf += 2;
        LCALL   ?Subroutine33 & 0xFFFF
//  371   }
??CrossCallReturnLabel_53:
        SJMP    ??MT_AfDataRequest_4
//  372   else
//  373   {
//  374     dataLen = *pBuf++;
??MT_AfDataRequest_3:
        MOV     DPL,?V0 + 8
        MOV     R6,DPL
        MOV     R7,#0x0
        MOV     ?V0 + 2,R0
        MOV     ?V0 + 3,R1
//  375     tempLen = dataLen + MT_AF_REQ_MSG_LEN;
        MOV     A,R6
        ADD     A,#0xa
        MOV     R0,A
        CLR     A
        ADDC    A,#0x0
        MOV     R1,A
//  376   }
//  377 
//  378   if ( epDesc == NULL )
??MT_AfDataRequest_4:
        MOV     A,?V0 + 12
        ORL     A,?V0 + 13
        JNZ     ??MT_AfDataRequest_5
//  379   {
//  380     retValue = afStatus_INVALID_PARAMETER;
??MT_AfDataRequest_6:
        MOV     DPL,?XSP + 0
        MOV     DPH,?XSP + 1
        MOV     A,#0x2
        LJMP    ??MT_AfDataRequest_7 & 0xFFFF
//  381   }
//  382   else if (tempLen > (uint16)MT_RPC_DATA_MAX)
??MT_AfDataRequest_5:
        CLR     C
        MOV     A,R0
        SUBB    A,#-0x5
        MOV     A,R1
        SUBB    A,#0x0
        JNC     $+5
        LJMP    ??MT_AfDataRequest_8 & 0xFFFF
//  383   {
//  384     if (pMtAfDataReq != NULL)
        LCALL   ?Subroutine4 & 0xFFFF
??CrossCallReturnLabel_77:
        JNZ     ??MT_AfDataRequest_6
//  385     {
//  386       retValue = afStatus_INVALID_PARAMETER;
//  387     }
//  388     else if ((pMtAfDataReq = osal_mem_alloc(sizeof(mtAfDataReq_t) + dataLen)) == NULL)
        ; Setup parameters for call to function osal_mem_alloc
        MOV     A,R6
        ADD     A,#0x18
        LCALL   ?Subroutine20 & 0xFFFF
??CrossCallReturnLabel_63:
        MOV     DPTR,#pMtAfDataReq
        MOV     A,R2
        MOVX    @DPTR,A
        INC     DPTR
        MOV     A,R3
        MOVX    @DPTR,A
        LCALL   ?Subroutine4 & 0xFFFF
??CrossCallReturnLabel_78:
        MOV     DPL,?XSP + 0
        MOV     DPH,?XSP + 1
        JNZ     ??MT_AfDataRequest_9
//  389     {
//  390       retValue = afStatus_MEM_FAIL;
        MOV     A,#0x10
        LJMP    ??MT_AfDataRequest_7 & 0xFFFF
//  391     }
//  392     else
//  393     {
//  394       retValue = afStatus_SUCCESS;
??MT_AfDataRequest_9:
        CLR     A
        LCALL   ?Subroutine23 & 0xFFFF
//  395 
//  396       pMtAfDataReq->data = (uint8 *)(pMtAfDataReq+1);
??CrossCallReturnLabel_23:
        ADD     A,#0x18
        MOV     R2,A
        INC     DPTR
        MOVX    A,@DPTR
        ADDC    A,#0x0
        MOV     R3,A
        LCALL   ?Subroutine15 & 0xFFFF
??CrossCallReturnLabel_14:
        MOV     A,R2
        MOVX    @DPTR,A
        INC     DPTR
        MOV     A,R3
        MOVX    @DPTR,A
//  397       (void)osal_memcpy(&(pMtAfDataReq->dstAddr), &dstAddr, sizeof(afAddrType_t));
        ; Setup parameters for call to function osal_memcpy
        MOV     A,#0x2
        LCALL   ?XSTACK_DISP0_8
        MOV     R1,DPL
        MOV     R2,DPH
        MOV     ?V0 + 8,R1
        MOV     ?V0 + 9,R2
        MOV     ?V0 + 10,#0x0
        MOV     R0,#?V0 + 8
        LCALL   ?PUSH_XSTACK_I_THREE
        CFI CFA_XSP16 add(XSP16, 39)
        MOV     R4,#0xc
        MOV     R5,#0x0
        LCALL   ?Subroutine14 & 0xFFFF
??CrossCallReturnLabel_12:
        LCALL   ??Subroutine56_0 & 0xFFFF
??CrossCallReturnLabel_117:
        LCALL   ?DEALLOC_XSTACK8
        CFI CFA_XSP16 add(XSP16, 36)
//  398       pMtAfDataReq->epDesc = epDesc;
        MOV     DPTR,#pMtAfDataReq
        MOVX    A,@DPTR
        ADD     A,#0xe
        LCALL   ??Subroutine57_0 & 0xFFFF
??CrossCallReturnLabel_120:
        MOV     A,?V0 + 12
        MOVX    @DPTR,A
        INC     DPTR
        MOV     A,?V0 + 13
        MOVX    @DPTR,A
//  399       pMtAfDataReq->cId = cId;
        LCALL   ?Subroutine6 & 0xFFFF
??CrossCallReturnLabel_127:
        MOV     A,?V0 + 0
        MOVX    @DPTR,A
        INC     DPTR
        MOV     A,?V0 + 1
        LCALL   ?Subroutine23 & 0xFFFF
//  400       pMtAfDataReq->dataLen = dataLen;
??CrossCallReturnLabel_24:
        ADD     A,#0x12
        LCALL   ??Subroutine57_0 & 0xFFFF
??CrossCallReturnLabel_121:
        MOV     A,R6
        MOVX    @DPTR,A
        INC     DPTR
        MOV     A,R7
        MOVX    @DPTR,A
//  401       pMtAfDataReq->transId = transId;
        MOV     A,#0x1
        LCALL   ?XSTACK_DISP0_8
        MOVX    A,@DPTR
        PUSH    A
        CFI CFA_SP SP+-1
        MOV     DPTR,#pMtAfDataReq
        MOVX    A,@DPTR
        ADD     A,#0x14
        LCALL   ??Subroutine57_0 & 0xFFFF
??CrossCallReturnLabel_122:
        POP     A
        CFI CFA_SP SP+0
        LCALL   ?Subroutine23 & 0xFFFF
//  402       pMtAfDataReq->txOpts = txOpts;
??CrossCallReturnLabel_25:
        ADD     A,#0x15
        LCALL   ??Subroutine57_0 & 0xFFFF
??CrossCallReturnLabel_123:
        MOV     A,?V0 + 4
        LCALL   ?Subroutine23 & 0xFFFF
//  403       pMtAfDataReq->radius = radius;
??CrossCallReturnLabel_26:
        ADD     A,#0x16
        LCALL   ??Subroutine57_0 & 0xFFFF
??CrossCallReturnLabel_124:
        MOV     A,?V0 + 5
        LCALL   ?Subroutine23 & 0xFFFF
//  404 
//  405       // Setup to time-out the huge outgoing item if host does not MT_AF_DATA_STORE it.
//  406       pMtAfDataReq->tick = MT_AF_EXEC_CNT;
??CrossCallReturnLabel_27:
        ADD     A,#0x17
        LCALL   ??Subroutine57_0 & 0xFFFF
??CrossCallReturnLabel_125:
        LCALL   ?Subroutine12 & 0xFFFF
//  407       if (ZSuccess != osal_start_timerEx(MT_TaskID, MT_AF_EXEC_EVT, MT_AF_EXEC_DLY))
??CrossCallReturnLabel_71:
        JZ      ??MT_AfDataRequest_10
//  408       {
//  409         (void)osal_set_event(MT_TaskID, MT_AF_EXEC_EVT);
        ; Setup parameters for call to function osal_set_event
        LCALL   ?Subroutine16 & 0xFFFF
//  410       }
//  411     }
//  412   }
??CrossCallReturnLabel_17:
        SJMP    ??MT_AfDataRequest_10
//  413   else
//  414   {
//  415     retValue = AF_DataRequest(&dstAddr, epDesc, cId, dataLen, pBuf, &transId, txOpts, radius);
??MT_AfDataRequest_8:
        ; Setup parameters for call to function AF_DataRequest
        MOV     R0,#?V0 + 5
        LCALL   ?PUSH_XSTACK_I_ONE
        CFI CFA_XSP16 add(XSP16, 37)
        MOV     A,#0x2
        LCALL   ?XSTACK_DISP0_8
        MOV     ?V0 + 8,DPL
        MOV     ?V0 + 9,DPH
        MOV     R0,#?V0 + 8
        LCALL   ?PUSH_XSTACK_I_TWO
        CFI CFA_XSP16 add(XSP16, 39)
        MOV     R0,#?V0 + 2
        LCALL   ?PUSH_XSTACK_I_TWO
        CFI CFA_XSP16 add(XSP16, 41)
        MOV     ?V0 + 2,R6
        MOV     ?V0 + 3,R7
        MOV     R0,#?V0 + 2
        LCALL   ?PUSH_XSTACK_I_TWO
        CFI CFA_XSP16 add(XSP16, 43)
        MOV     R0,#?V0 + 0
        LCALL   ?PUSH_XSTACK_I_TWO
        CFI CFA_XSP16 add(XSP16, 45)
        MOV     R1,?V0 + 4
        MOV     R4,?V0 + 12
        MOV     R5,?V0 + 13
        MOV     A,#0xb
        LCALL   ?XSTACK_DISP0_8
        MOV     R2,DPL
        MOV     R3,DPH
        LCALL   ??AF_DataRequest?relay
        MOV     A,#0x9
        LCALL   ?DEALLOC_XSTACK8
        CFI CFA_XSP16 add(XSP16, 36)
        MOV     A,R1
        MOV     DPL,?XSP + 0
        MOV     DPH,?XSP + 1
??MT_AfDataRequest_7:
        MOVX    @DPTR,A
//  416   }
//  417 
//  418   if (MT_RPC_CMD_SREQ == (cmd0 & MT_RPC_CMD_TYPE_MASK))
??MT_AfDataRequest_10:
        MOV     A,#-0x20
        ANL     A,?V0 + 7
        XRL     A,#0x20
        JNZ     ??MT_AfDataRequest_11
//  419   {
//  420     MT_BuildAndSendZToolResponse(((uint8)MT_RPC_CMD_SRSP|(uint8)MT_RPC_SYS_AF), cmd1, 1, &retValue);
        ; Setup parameters for call to function MT_BuildAndSendZToolResponse
        MOV     DPL,?XSP + 0
        MOV     DPH,?XSP + 1
        MOV     R4,DPL
        MOV     R5,DPH
        MOV     R3,#0x1
        MOV     R2,?V0 + 6
        MOV     R1,#0x64
        LCALL   ??MT_BuildAndSendZToolResponse?relay
        CFI EndBlock cfiBlock16
//  421   }
//  422 }
??MT_AfDataRequest_11:
        REQUIRE ?Subroutine2
        ; // Fall through to label ?Subroutine2

        RSEG BANKED_CODE:CODE:NOROOT(0)
?Subroutine2:
        CFI Block cfiBlock17 Using cfiCommon0
        CFI NoFunction
        CFI CFA_SP SP+0
        CFI CFA_XSP16 add(XSP16, 36)
        CFI VB load(1, XDATA, add(CFA_XSP16, literal(-21)))
        CFI DPL0 load(1, XDATA, add(CFA_XSP16, literal(-2)))
        CFI DPH0 load(1, XDATA, add(CFA_XSP16, literal(-1)))
        CFI R6 load(1, XDATA, add(CFA_XSP16, literal(-22)))
        CFI R7 load(1, XDATA, add(CFA_XSP16, literal(-6)))
        CFI V0 load(1, XDATA, add(CFA_XSP16, literal(-20)))
        CFI V1 load(1, XDATA, add(CFA_XSP16, literal(-19)))
        CFI V2 load(1, XDATA, add(CFA_XSP16, literal(-18)))
        CFI V3 load(1, XDATA, add(CFA_XSP16, literal(-17)))
        CFI V4 load(1, XDATA, add(CFA_XSP16, literal(-16)))
        CFI V5 load(1, XDATA, add(CFA_XSP16, literal(-15)))
        CFI V6 load(1, XDATA, add(CFA_XSP16, literal(-14)))
        CFI V7 load(1, XDATA, add(CFA_XSP16, literal(-13)))
        CFI V8 load(1, XDATA, add(CFA_XSP16, literal(-12)))
        CFI V9 load(1, XDATA, add(CFA_XSP16, literal(-11)))
        CFI V10 load(1, XDATA, add(CFA_XSP16, literal(-10)))
        CFI V11 load(1, XDATA, add(CFA_XSP16, literal(-9)))
        CFI V12 load(1, XDATA, add(CFA_XSP16, literal(-8)))
        CFI V13 load(1, XDATA, add(CFA_XSP16, literal(-7)))
        CFI ?BRET_EXT load(1, XDATA, add(CFA_XSP16, literal(-3)))
        CFI ?RET_HIGH load(1, XDATA, add(CFA_XSP16, literal(-4)))
        CFI ?RET_LOW load(1, XDATA, add(CFA_XSP16, literal(-5)))
        MOV     A,#0xe
        LCALL   ?DEALLOC_XSTACK8
        CFI CFA_XSP16 add(XSP16, 22)
        MOV     R7,#0xe
        LJMP    ?BANKED_LEAVE_XDATA
        CFI EndBlock cfiBlock17

        RSEG BANKED_CODE:CODE:NOROOT(0)
?Subroutine33:
        CFI Block cfiCond18 Using cfiCommon0
        CFI NoFunction
        CFI Conditional ??CrossCallReturnLabel_52
        CFI R6 load(1, XDATA, add(CFA_XSP16, literal(-22)))
        CFI VB load(1, XDATA, add(CFA_XSP16, literal(-21)))
        CFI V0 load(1, XDATA, add(CFA_XSP16, literal(-20)))
        CFI V1 load(1, XDATA, add(CFA_XSP16, literal(-19)))
        CFI V2 load(1, XDATA, add(CFA_XSP16, literal(-18)))
        CFI V3 load(1, XDATA, add(CFA_XSP16, literal(-17)))
        CFI V4 load(1, XDATA, add(CFA_XSP16, literal(-16)))
        CFI V5 load(1, XDATA, add(CFA_XSP16, literal(-15)))
        CFI V6 load(1, XDATA, add(CFA_XSP16, literal(-14)))
        CFI V7 load(1, XDATA, add(CFA_XSP16, literal(-13)))
        CFI V8 load(1, XDATA, add(CFA_XSP16, literal(-12)))
        CFI V9 load(1, XDATA, add(CFA_XSP16, literal(-11)))
        CFI V10 load(1, XDATA, add(CFA_XSP16, literal(-10)))
        CFI V11 load(1, XDATA, add(CFA_XSP16, literal(-9)))
        CFI V12 load(1, XDATA, add(CFA_XSP16, literal(-8)))
        CFI V13 load(1, XDATA, add(CFA_XSP16, literal(-7)))
        CFI R7 load(1, XDATA, add(CFA_XSP16, literal(-6)))
        CFI ?RET_LOW load(1, XDATA, add(CFA_XSP16, literal(-5)))
        CFI ?RET_HIGH load(1, XDATA, add(CFA_XSP16, literal(-4)))
        CFI ?BRET_EXT load(1, XDATA, add(CFA_XSP16, literal(-3)))
        CFI DPL0 load(1, XDATA, add(CFA_XSP16, literal(-2)))
        CFI DPH0 load(1, XDATA, add(CFA_XSP16, literal(-1)))
        CFI CFA_SP SP+0
        CFI CFA_XSP16 add(XSP16, 36)
        CFI Block cfiCond19 Using cfiCommon0
        CFI (cfiCond19) NoFunction
        CFI (cfiCond19) Conditional ??CrossCallReturnLabel_53
        CFI (cfiCond19) R6 load(1, XDATA, add(CFA_XSP16, literal(-22)))
        CFI (cfiCond19) VB load(1, XDATA, add(CFA_XSP16, literal(-21)))
        CFI (cfiCond19) V0 load(1, XDATA, add(CFA_XSP16, literal(-20)))
        CFI (cfiCond19) V1 load(1, XDATA, add(CFA_XSP16, literal(-19)))
        CFI (cfiCond19) V2 load(1, XDATA, add(CFA_XSP16, literal(-18)))
        CFI (cfiCond19) V3 load(1, XDATA, add(CFA_XSP16, literal(-17)))
        CFI (cfiCond19) V4 load(1, XDATA, add(CFA_XSP16, literal(-16)))
        CFI (cfiCond19) V5 load(1, XDATA, add(CFA_XSP16, literal(-15)))
        CFI (cfiCond19) V6 load(1, XDATA, add(CFA_XSP16, literal(-14)))
        CFI (cfiCond19) V7 load(1, XDATA, add(CFA_XSP16, literal(-13)))
        CFI (cfiCond19) V8 load(1, XDATA, add(CFA_XSP16, literal(-12)))
        CFI (cfiCond19) V9 load(1, XDATA, add(CFA_XSP16, literal(-11)))
        CFI (cfiCond19) V10 load(1, XDATA, add(CFA_XSP16, literal(-10)))
        CFI (cfiCond19) V11 load(1, XDATA, add(CFA_XSP16, literal(-9)))
        CFI (cfiCond19) V12 load(1, XDATA, add(CFA_XSP16, literal(-8)))
        CFI (cfiCond19) V13 load(1, XDATA, add(CFA_XSP16, literal(-7)))
        CFI (cfiCond19) R7 load(1, XDATA, add(CFA_XSP16, literal(-6)))
        CFI (cfiCond19) ?RET_LOW load(1, XDATA, add(CFA_XSP16, literal(-5)))
        CFI (cfiCond19) ?RET_HIGH load(1, XDATA, add(CFA_XSP16, literal(-4)))
        CFI (cfiCond19) ?BRET_EXT load(1, XDATA, add(CFA_XSP16, literal(-3)))
        CFI (cfiCond19) DPL0 load(1, XDATA, add(CFA_XSP16, literal(-2)))
        CFI (cfiCond19) DPH0 load(1, XDATA, add(CFA_XSP16, literal(-1)))
        CFI (cfiCond19) CFA_SP SP+0
        CFI (cfiCond19) CFA_XSP16 add(XSP16, 36)
        CFI Block cfiPicker20 Using cfiCommon1
        CFI (cfiPicker20) NoFunction
        CFI (cfiPicker20) Picker
        MOV     A,?V0 + 2
        ADD     A,#0x2
        MOV     ?V0 + 2,A
        MOV     A,?V0 + 3
        ADDC    A,#0x0
        MOV     ?V0 + 3,A
        RET
        CFI EndBlock cfiCond18
        CFI EndBlock cfiCond19
        CFI EndBlock cfiPicker20

        RSEG BANKED_CODE:CODE:NOROOT(0)
?Subroutine23:
        CFI Block cfiCond21 Using cfiCommon0
        CFI NoFunction
        CFI Conditional ??CrossCallReturnLabel_23
        CFI R6 load(1, XDATA, add(CFA_XSP16, literal(-22)))
        CFI VB load(1, XDATA, add(CFA_XSP16, literal(-21)))
        CFI V0 load(1, XDATA, add(CFA_XSP16, literal(-20)))
        CFI V1 load(1, XDATA, add(CFA_XSP16, literal(-19)))
        CFI V2 load(1, XDATA, add(CFA_XSP16, literal(-18)))
        CFI V3 load(1, XDATA, add(CFA_XSP16, literal(-17)))
        CFI V4 load(1, XDATA, add(CFA_XSP16, literal(-16)))
        CFI V5 load(1, XDATA, add(CFA_XSP16, literal(-15)))
        CFI V6 load(1, XDATA, add(CFA_XSP16, literal(-14)))
        CFI V7 load(1, XDATA, add(CFA_XSP16, literal(-13)))
        CFI V8 load(1, XDATA, add(CFA_XSP16, literal(-12)))
        CFI V9 load(1, XDATA, add(CFA_XSP16, literal(-11)))
        CFI V10 load(1, XDATA, add(CFA_XSP16, literal(-10)))
        CFI V11 load(1, XDATA, add(CFA_XSP16, literal(-9)))
        CFI V12 load(1, XDATA, add(CFA_XSP16, literal(-8)))
        CFI V13 load(1, XDATA, add(CFA_XSP16, literal(-7)))
        CFI R7 load(1, XDATA, add(CFA_XSP16, literal(-6)))
        CFI ?RET_LOW load(1, XDATA, add(CFA_XSP16, literal(-5)))
        CFI ?RET_HIGH load(1, XDATA, add(CFA_XSP16, literal(-4)))
        CFI ?BRET_EXT load(1, XDATA, add(CFA_XSP16, literal(-3)))
        CFI DPL0 load(1, XDATA, add(CFA_XSP16, literal(-2)))
        CFI DPH0 load(1, XDATA, add(CFA_XSP16, literal(-1)))
        CFI CFA_SP SP+0
        CFI CFA_XSP16 add(XSP16, 36)
        CFI Block cfiCond22 Using cfiCommon0
        CFI (cfiCond22) NoFunction
        CFI (cfiCond22) Conditional ??CrossCallReturnLabel_24
        CFI (cfiCond22) R6 load(1, XDATA, add(CFA_XSP16, literal(-22)))
        CFI (cfiCond22) VB load(1, XDATA, add(CFA_XSP16, literal(-21)))
        CFI (cfiCond22) V0 load(1, XDATA, add(CFA_XSP16, literal(-20)))
        CFI (cfiCond22) V1 load(1, XDATA, add(CFA_XSP16, literal(-19)))
        CFI (cfiCond22) V2 load(1, XDATA, add(CFA_XSP16, literal(-18)))
        CFI (cfiCond22) V3 load(1, XDATA, add(CFA_XSP16, literal(-17)))
        CFI (cfiCond22) V4 load(1, XDATA, add(CFA_XSP16, literal(-16)))
        CFI (cfiCond22) V5 load(1, XDATA, add(CFA_XSP16, literal(-15)))
        CFI (cfiCond22) V6 load(1, XDATA, add(CFA_XSP16, literal(-14)))
        CFI (cfiCond22) V7 load(1, XDATA, add(CFA_XSP16, literal(-13)))
        CFI (cfiCond22) V8 load(1, XDATA, add(CFA_XSP16, literal(-12)))
        CFI (cfiCond22) V9 load(1, XDATA, add(CFA_XSP16, literal(-11)))
        CFI (cfiCond22) V10 load(1, XDATA, add(CFA_XSP16, literal(-10)))
        CFI (cfiCond22) V11 load(1, XDATA, add(CFA_XSP16, literal(-9)))
        CFI (cfiCond22) V12 load(1, XDATA, add(CFA_XSP16, literal(-8)))
        CFI (cfiCond22) V13 load(1, XDATA, add(CFA_XSP16, literal(-7)))
        CFI (cfiCond22) R7 load(1, XDATA, add(CFA_XSP16, literal(-6)))
        CFI (cfiCond22) ?RET_LOW load(1, XDATA, add(CFA_XSP16, literal(-5)))
        CFI (cfiCond22) ?RET_HIGH load(1, XDATA, add(CFA_XSP16, literal(-4)))
        CFI (cfiCond22) ?BRET_EXT load(1, XDATA, add(CFA_XSP16, literal(-3)))
        CFI (cfiCond22) DPL0 load(1, XDATA, add(CFA_XSP16, literal(-2)))
        CFI (cfiCond22) DPH0 load(1, XDATA, add(CFA_XSP16, literal(-1)))
        CFI (cfiCond22) CFA_SP SP+0
        CFI (cfiCond22) CFA_XSP16 add(XSP16, 36)
        CFI Block cfiCond23 Using cfiCommon0
        CFI (cfiCond23) NoFunction
        CFI (cfiCond23) Conditional ??CrossCallReturnLabel_25
        CFI (cfiCond23) R6 load(1, XDATA, add(CFA_XSP16, literal(-22)))
        CFI (cfiCond23) VB load(1, XDATA, add(CFA_XSP16, literal(-21)))
        CFI (cfiCond23) V0 load(1, XDATA, add(CFA_XSP16, literal(-20)))
        CFI (cfiCond23) V1 load(1, XDATA, add(CFA_XSP16, literal(-19)))
        CFI (cfiCond23) V2 load(1, XDATA, add(CFA_XSP16, literal(-18)))
        CFI (cfiCond23) V3 load(1, XDATA, add(CFA_XSP16, literal(-17)))
        CFI (cfiCond23) V4 load(1, XDATA, add(CFA_XSP16, literal(-16)))
        CFI (cfiCond23) V5 load(1, XDATA, add(CFA_XSP16, literal(-15)))
        CFI (cfiCond23) V6 load(1, XDATA, add(CFA_XSP16, literal(-14)))
        CFI (cfiCond23) V7 load(1, XDATA, add(CFA_XSP16, literal(-13)))
        CFI (cfiCond23) V8 load(1, XDATA, add(CFA_XSP16, literal(-12)))
        CFI (cfiCond23) V9 load(1, XDATA, add(CFA_XSP16, literal(-11)))
        CFI (cfiCond23) V10 load(1, XDATA, add(CFA_XSP16, literal(-10)))
        CFI (cfiCond23) V11 load(1, XDATA, add(CFA_XSP16, literal(-9)))
        CFI (cfiCond23) V12 load(1, XDATA, add(CFA_XSP16, literal(-8)))
        CFI (cfiCond23) V13 load(1, XDATA, add(CFA_XSP16, literal(-7)))
        CFI (cfiCond23) R7 load(1, XDATA, add(CFA_XSP16, literal(-6)))
        CFI (cfiCond23) ?RET_LOW load(1, XDATA, add(CFA_XSP16, literal(-5)))
        CFI (cfiCond23) ?RET_HIGH load(1, XDATA, add(CFA_XSP16, literal(-4)))
        CFI (cfiCond23) ?BRET_EXT load(1, XDATA, add(CFA_XSP16, literal(-3)))
        CFI (cfiCond23) DPL0 load(1, XDATA, add(CFA_XSP16, literal(-2)))
        CFI (cfiCond23) DPH0 load(1, XDATA, add(CFA_XSP16, literal(-1)))
        CFI (cfiCond23) CFA_SP SP+0
        CFI (cfiCond23) CFA_XSP16 add(XSP16, 36)
        CFI Block cfiCond24 Using cfiCommon0
        CFI (cfiCond24) NoFunction
        CFI (cfiCond24) Conditional ??CrossCallReturnLabel_26
        CFI (cfiCond24) R6 load(1, XDATA, add(CFA_XSP16, literal(-22)))
        CFI (cfiCond24) VB load(1, XDATA, add(CFA_XSP16, literal(-21)))
        CFI (cfiCond24) V0 load(1, XDATA, add(CFA_XSP16, literal(-20)))
        CFI (cfiCond24) V1 load(1, XDATA, add(CFA_XSP16, literal(-19)))
        CFI (cfiCond24) V2 load(1, XDATA, add(CFA_XSP16, literal(-18)))
        CFI (cfiCond24) V3 load(1, XDATA, add(CFA_XSP16, literal(-17)))
        CFI (cfiCond24) V4 load(1, XDATA, add(CFA_XSP16, literal(-16)))
        CFI (cfiCond24) V5 load(1, XDATA, add(CFA_XSP16, literal(-15)))
        CFI (cfiCond24) V6 load(1, XDATA, add(CFA_XSP16, literal(-14)))
        CFI (cfiCond24) V7 load(1, XDATA, add(CFA_XSP16, literal(-13)))
        CFI (cfiCond24) V8 load(1, XDATA, add(CFA_XSP16, literal(-12)))
        CFI (cfiCond24) V9 load(1, XDATA, add(CFA_XSP16, literal(-11)))
        CFI (cfiCond24) V10 load(1, XDATA, add(CFA_XSP16, literal(-10)))
        CFI (cfiCond24) V11 load(1, XDATA, add(CFA_XSP16, literal(-9)))
        CFI (cfiCond24) V12 load(1, XDATA, add(CFA_XSP16, literal(-8)))
        CFI (cfiCond24) V13 load(1, XDATA, add(CFA_XSP16, literal(-7)))
        CFI (cfiCond24) R7 load(1, XDATA, add(CFA_XSP16, literal(-6)))
        CFI (cfiCond24) ?RET_LOW load(1, XDATA, add(CFA_XSP16, literal(-5)))
        CFI (cfiCond24) ?RET_HIGH load(1, XDATA, add(CFA_XSP16, literal(-4)))
        CFI (cfiCond24) ?BRET_EXT load(1, XDATA, add(CFA_XSP16, literal(-3)))
        CFI (cfiCond24) DPL0 load(1, XDATA, add(CFA_XSP16, literal(-2)))
        CFI (cfiCond24) DPH0 load(1, XDATA, add(CFA_XSP16, literal(-1)))
        CFI (cfiCond24) CFA_SP SP+0
        CFI (cfiCond24) CFA_XSP16 add(XSP16, 36)
        CFI Block cfiCond25 Using cfiCommon0
        CFI (cfiCond25) NoFunction
        CFI (cfiCond25) Conditional ??CrossCallReturnLabel_27
        CFI (cfiCond25) R6 load(1, XDATA, add(CFA_XSP16, literal(-22)))
        CFI (cfiCond25) VB load(1, XDATA, add(CFA_XSP16, literal(-21)))
        CFI (cfiCond25) V0 load(1, XDATA, add(CFA_XSP16, literal(-20)))
        CFI (cfiCond25) V1 load(1, XDATA, add(CFA_XSP16, literal(-19)))
        CFI (cfiCond25) V2 load(1, XDATA, add(CFA_XSP16, literal(-18)))
        CFI (cfiCond25) V3 load(1, XDATA, add(CFA_XSP16, literal(-17)))
        CFI (cfiCond25) V4 load(1, XDATA, add(CFA_XSP16, literal(-16)))
        CFI (cfiCond25) V5 load(1, XDATA, add(CFA_XSP16, literal(-15)))
        CFI (cfiCond25) V6 load(1, XDATA, add(CFA_XSP16, literal(-14)))
        CFI (cfiCond25) V7 load(1, XDATA, add(CFA_XSP16, literal(-13)))
        CFI (cfiCond25) V8 load(1, XDATA, add(CFA_XSP16, literal(-12)))
        CFI (cfiCond25) V9 load(1, XDATA, add(CFA_XSP16, literal(-11)))
        CFI (cfiCond25) V10 load(1, XDATA, add(CFA_XSP16, literal(-10)))
        CFI (cfiCond25) V11 load(1, XDATA, add(CFA_XSP16, literal(-9)))
        CFI (cfiCond25) V12 load(1, XDATA, add(CFA_XSP16, literal(-8)))
        CFI (cfiCond25) V13 load(1, XDATA, add(CFA_XSP16, literal(-7)))
        CFI (cfiCond25) R7 load(1, XDATA, add(CFA_XSP16, literal(-6)))
        CFI (cfiCond25) ?RET_LOW load(1, XDATA, add(CFA_XSP16, literal(-5)))
        CFI (cfiCond25) ?RET_HIGH load(1, XDATA, add(CFA_XSP16, literal(-4)))
        CFI (cfiCond25) ?BRET_EXT load(1, XDATA, add(CFA_XSP16, literal(-3)))
        CFI (cfiCond25) DPL0 load(1, XDATA, add(CFA_XSP16, literal(-2)))
        CFI (cfiCond25) DPH0 load(1, XDATA, add(CFA_XSP16, literal(-1)))
        CFI (cfiCond25) CFA_SP SP+0
        CFI (cfiCond25) CFA_XSP16 add(XSP16, 36)
        CFI Block cfiPicker26 Using cfiCommon1
        CFI (cfiPicker26) NoFunction
        CFI (cfiPicker26) Picker
        MOVX    @DPTR,A
        MOV     DPTR,#pMtAfDataReq
        MOVX    A,@DPTR
        RET
        CFI EndBlock cfiCond21
        CFI EndBlock cfiCond22
        CFI EndBlock cfiCond23
        CFI EndBlock cfiCond24
        CFI EndBlock cfiCond25
        CFI EndBlock cfiPicker26

        RSEG BANKED_CODE:CODE:NOROOT(0)
?Subroutine22:
        CFI Block cfiCond27 Using cfiCommon0
        CFI NoFunction
        CFI Conditional ??CrossCallReturnLabel_21
        CFI R6 load(1, XDATA, add(CFA_XSP16, literal(-22)))
        CFI VB load(1, XDATA, add(CFA_XSP16, literal(-21)))
        CFI V0 load(1, XDATA, add(CFA_XSP16, literal(-20)))
        CFI V1 load(1, XDATA, add(CFA_XSP16, literal(-19)))
        CFI V2 load(1, XDATA, add(CFA_XSP16, literal(-18)))
        CFI V3 load(1, XDATA, add(CFA_XSP16, literal(-17)))
        CFI V4 load(1, XDATA, add(CFA_XSP16, literal(-16)))
        CFI V5 load(1, XDATA, add(CFA_XSP16, literal(-15)))
        CFI V6 load(1, XDATA, add(CFA_XSP16, literal(-14)))
        CFI V7 load(1, XDATA, add(CFA_XSP16, literal(-13)))
        CFI V8 load(1, XDATA, add(CFA_XSP16, literal(-12)))
        CFI V9 load(1, XDATA, add(CFA_XSP16, literal(-11)))
        CFI V10 load(1, XDATA, add(CFA_XSP16, literal(-10)))
        CFI V11 load(1, XDATA, add(CFA_XSP16, literal(-9)))
        CFI V12 load(1, XDATA, add(CFA_XSP16, literal(-8)))
        CFI V13 load(1, XDATA, add(CFA_XSP16, literal(-7)))
        CFI R7 load(1, XDATA, add(CFA_XSP16, literal(-6)))
        CFI ?RET_LOW load(1, XDATA, add(CFA_XSP16, literal(-5)))
        CFI ?RET_HIGH load(1, XDATA, add(CFA_XSP16, literal(-4)))
        CFI ?BRET_EXT load(1, XDATA, add(CFA_XSP16, literal(-3)))
        CFI DPL0 load(1, XDATA, add(CFA_XSP16, literal(-2)))
        CFI DPH0 load(1, XDATA, add(CFA_XSP16, literal(-1)))
        CFI CFA_SP SP+0
        CFI CFA_XSP16 add(XSP16, 36)
        CFI Block cfiCond28 Using cfiCommon0
        CFI (cfiCond28) NoFunction
        CFI (cfiCond28) Conditional ??CrossCallReturnLabel_22
        CFI (cfiCond28) R6 load(1, XDATA, add(CFA_XSP16, literal(-22)))
        CFI (cfiCond28) VB load(1, XDATA, add(CFA_XSP16, literal(-21)))
        CFI (cfiCond28) V0 load(1, XDATA, add(CFA_XSP16, literal(-20)))
        CFI (cfiCond28) V1 load(1, XDATA, add(CFA_XSP16, literal(-19)))
        CFI (cfiCond28) V2 load(1, XDATA, add(CFA_XSP16, literal(-18)))
        CFI (cfiCond28) V3 load(1, XDATA, add(CFA_XSP16, literal(-17)))
        CFI (cfiCond28) V4 load(1, XDATA, add(CFA_XSP16, literal(-16)))
        CFI (cfiCond28) V5 load(1, XDATA, add(CFA_XSP16, literal(-15)))
        CFI (cfiCond28) V6 load(1, XDATA, add(CFA_XSP16, literal(-14)))
        CFI (cfiCond28) V7 load(1, XDATA, add(CFA_XSP16, literal(-13)))
        CFI (cfiCond28) V8 load(1, XDATA, add(CFA_XSP16, literal(-12)))
        CFI (cfiCond28) V9 load(1, XDATA, add(CFA_XSP16, literal(-11)))
        CFI (cfiCond28) V10 load(1, XDATA, add(CFA_XSP16, literal(-10)))
        CFI (cfiCond28) V11 load(1, XDATA, add(CFA_XSP16, literal(-9)))
        CFI (cfiCond28) V12 load(1, XDATA, add(CFA_XSP16, literal(-8)))
        CFI (cfiCond28) V13 load(1, XDATA, add(CFA_XSP16, literal(-7)))
        CFI (cfiCond28) R7 load(1, XDATA, add(CFA_XSP16, literal(-6)))
        CFI (cfiCond28) ?RET_LOW load(1, XDATA, add(CFA_XSP16, literal(-5)))
        CFI (cfiCond28) ?RET_HIGH load(1, XDATA, add(CFA_XSP16, literal(-4)))
        CFI (cfiCond28) ?BRET_EXT load(1, XDATA, add(CFA_XSP16, literal(-3)))
        CFI (cfiCond28) DPL0 load(1, XDATA, add(CFA_XSP16, literal(-2)))
        CFI (cfiCond28) DPH0 load(1, XDATA, add(CFA_XSP16, literal(-1)))
        CFI (cfiCond28) CFA_SP SP+0
        CFI (cfiCond28) CFA_XSP16 add(XSP16, 36)
        CFI Block cfiPicker29 Using cfiCommon1
        CFI (cfiPicker29) NoFunction
        CFI (cfiPicker29) Picker
        LCALL   ?Subroutine41 & 0xFFFF
??CrossCallReturnLabel_58:
        MOV     ?V0 + 2,DPL
        MOV     ?V0 + 3,DPH
        RET
        CFI EndBlock cfiCond27
        CFI EndBlock cfiCond28
        CFI EndBlock cfiPicker29

        RSEG BANKED_CODE:CODE:NOROOT(0)
?Subroutine41:
        CFI Block cfiCond30 Using cfiCommon0
        CFI NoFunction
        CFI Conditional ??CrossCallReturnLabel_57
        CFI R6 load(1, XDATA, add(CFA_XSP16, literal(-22)))
        CFI VB load(1, XDATA, add(CFA_XSP16, literal(-21)))
        CFI V0 load(1, XDATA, add(CFA_XSP16, literal(-20)))
        CFI V1 load(1, XDATA, add(CFA_XSP16, literal(-19)))
        CFI V2 load(1, XDATA, add(CFA_XSP16, literal(-18)))
        CFI V3 load(1, XDATA, add(CFA_XSP16, literal(-17)))
        CFI V4 load(1, XDATA, add(CFA_XSP16, literal(-16)))
        CFI V5 load(1, XDATA, add(CFA_XSP16, literal(-15)))
        CFI V6 load(1, XDATA, add(CFA_XSP16, literal(-14)))
        CFI V7 load(1, XDATA, add(CFA_XSP16, literal(-13)))
        CFI V8 load(1, XDATA, add(CFA_XSP16, literal(-12)))
        CFI V9 load(1, XDATA, add(CFA_XSP16, literal(-11)))
        CFI V10 load(1, XDATA, add(CFA_XSP16, literal(-10)))
        CFI V11 load(1, XDATA, add(CFA_XSP16, literal(-9)))
        CFI V12 load(1, XDATA, add(CFA_XSP16, literal(-8)))
        CFI V13 load(1, XDATA, add(CFA_XSP16, literal(-7)))
        CFI R7 load(1, XDATA, add(CFA_XSP16, literal(-6)))
        CFI ?RET_LOW load(1, XDATA, add(CFA_XSP16, literal(-5)))
        CFI ?RET_HIGH load(1, XDATA, add(CFA_XSP16, literal(-4)))
        CFI ?BRET_EXT load(1, XDATA, add(CFA_XSP16, literal(-3)))
        CFI DPL0 load(1, XDATA, add(CFA_XSP16, literal(-2)))
        CFI DPH0 load(1, XDATA, add(CFA_XSP16, literal(-1)))
        CFI CFA_SP SP+0
        CFI CFA_XSP16 add(XSP16, 36)
        CFI Block cfiCond31 Using cfiCommon0
        CFI (cfiCond31) NoFunction
        CFI (cfiCond31) Conditional ??CrossCallReturnLabel_58, ??CrossCallReturnLabel_21
        CFI (cfiCond31) R6 load(1, XDATA, add(CFA_XSP16, literal(-22)))
        CFI (cfiCond31) VB load(1, XDATA, add(CFA_XSP16, literal(-21)))
        CFI (cfiCond31) V0 load(1, XDATA, add(CFA_XSP16, literal(-20)))
        CFI (cfiCond31) V1 load(1, XDATA, add(CFA_XSP16, literal(-19)))
        CFI (cfiCond31) V2 load(1, XDATA, add(CFA_XSP16, literal(-18)))
        CFI (cfiCond31) V3 load(1, XDATA, add(CFA_XSP16, literal(-17)))
        CFI (cfiCond31) V4 load(1, XDATA, add(CFA_XSP16, literal(-16)))
        CFI (cfiCond31) V5 load(1, XDATA, add(CFA_XSP16, literal(-15)))
        CFI (cfiCond31) V6 load(1, XDATA, add(CFA_XSP16, literal(-14)))
        CFI (cfiCond31) V7 load(1, XDATA, add(CFA_XSP16, literal(-13)))
        CFI (cfiCond31) V8 load(1, XDATA, add(CFA_XSP16, literal(-12)))
        CFI (cfiCond31) V9 load(1, XDATA, add(CFA_XSP16, literal(-11)))
        CFI (cfiCond31) V10 load(1, XDATA, add(CFA_XSP16, literal(-10)))
        CFI (cfiCond31) V11 load(1, XDATA, add(CFA_XSP16, literal(-9)))
        CFI (cfiCond31) V12 load(1, XDATA, add(CFA_XSP16, literal(-8)))
        CFI (cfiCond31) V13 load(1, XDATA, add(CFA_XSP16, literal(-7)))
        CFI (cfiCond31) R7 load(1, XDATA, add(CFA_XSP16, literal(-6)))
        CFI (cfiCond31) ?RET_LOW load(1, XDATA, add(CFA_XSP16, literal(-5)))
        CFI (cfiCond31) ?RET_HIGH load(1, XDATA, add(CFA_XSP16, literal(-4)))
        CFI (cfiCond31) ?BRET_EXT load(1, XDATA, add(CFA_XSP16, literal(-3)))
        CFI (cfiCond31) DPL0 load(1, XDATA, add(CFA_XSP16, literal(-2)))
        CFI (cfiCond31) DPH0 load(1, XDATA, add(CFA_XSP16, literal(-1)))
        CFI (cfiCond31) CFA_SP SP+0
        CFI (cfiCond31) CFA_XSP16 add(XSP16, 36)
        CFI Block cfiCond32 Using cfiCommon0
        CFI (cfiCond32) NoFunction
        CFI (cfiCond32) Conditional ??CrossCallReturnLabel_58, ??CrossCallReturnLabel_22
        CFI (cfiCond32) R6 load(1, XDATA, add(CFA_XSP16, literal(-22)))
        CFI (cfiCond32) VB load(1, XDATA, add(CFA_XSP16, literal(-21)))
        CFI (cfiCond32) V0 load(1, XDATA, add(CFA_XSP16, literal(-20)))
        CFI (cfiCond32) V1 load(1, XDATA, add(CFA_XSP16, literal(-19)))
        CFI (cfiCond32) V2 load(1, XDATA, add(CFA_XSP16, literal(-18)))
        CFI (cfiCond32) V3 load(1, XDATA, add(CFA_XSP16, literal(-17)))
        CFI (cfiCond32) V4 load(1, XDATA, add(CFA_XSP16, literal(-16)))
        CFI (cfiCond32) V5 load(1, XDATA, add(CFA_XSP16, literal(-15)))
        CFI (cfiCond32) V6 load(1, XDATA, add(CFA_XSP16, literal(-14)))
        CFI (cfiCond32) V7 load(1, XDATA, add(CFA_XSP16, literal(-13)))
        CFI (cfiCond32) V8 load(1, XDATA, add(CFA_XSP16, literal(-12)))
        CFI (cfiCond32) V9 load(1, XDATA, add(CFA_XSP16, literal(-11)))
        CFI (cfiCond32) V10 load(1, XDATA, add(CFA_XSP16, literal(-10)))
        CFI (cfiCond32) V11 load(1, XDATA, add(CFA_XSP16, literal(-9)))
        CFI (cfiCond32) V12 load(1, XDATA, add(CFA_XSP16, literal(-8)))
        CFI (cfiCond32) V13 load(1, XDATA, add(CFA_XSP16, literal(-7)))
        CFI (cfiCond32) R7 load(1, XDATA, add(CFA_XSP16, literal(-6)))
        CFI (cfiCond32) ?RET_LOW load(1, XDATA, add(CFA_XSP16, literal(-5)))
        CFI (cfiCond32) ?RET_HIGH load(1, XDATA, add(CFA_XSP16, literal(-4)))
        CFI (cfiCond32) ?BRET_EXT load(1, XDATA, add(CFA_XSP16, literal(-3)))
        CFI (cfiCond32) DPL0 load(1, XDATA, add(CFA_XSP16, literal(-2)))
        CFI (cfiCond32) DPH0 load(1, XDATA, add(CFA_XSP16, literal(-1)))
        CFI (cfiCond32) CFA_SP SP+0
        CFI (cfiCond32) CFA_XSP16 add(XSP16, 36)
        CFI Block cfiPicker33 Using cfiCommon1
        CFI (cfiPicker33) NoFunction
        CFI (cfiPicker33) Picker
        MOVX    @DPTR,A
        MOV     DPL,?V0 + 2
        MOV     DPH,?V0 + 3
        INC     DPTR
        RET
        CFI EndBlock cfiCond30
        CFI EndBlock cfiCond31
        CFI EndBlock cfiCond32
        CFI EndBlock cfiPicker33

        RSEG BANKED_CODE:CODE:NOROOT(0)
?Subroutine20:
        CFI Block cfiCond34 Using cfiCommon0
        CFI NoFunction
        CFI Conditional ??CrossCallReturnLabel_63
        CFI R6 load(1, XDATA, add(CFA_XSP16, literal(-22)))
        CFI VB load(1, XDATA, add(CFA_XSP16, literal(-21)))
        CFI V0 load(1, XDATA, add(CFA_XSP16, literal(-20)))
        CFI V1 load(1, XDATA, add(CFA_XSP16, literal(-19)))
        CFI V2 load(1, XDATA, add(CFA_XSP16, literal(-18)))
        CFI V3 load(1, XDATA, add(CFA_XSP16, literal(-17)))
        CFI V4 load(1, XDATA, add(CFA_XSP16, literal(-16)))
        CFI V5 load(1, XDATA, add(CFA_XSP16, literal(-15)))
        CFI V6 load(1, XDATA, add(CFA_XSP16, literal(-14)))
        CFI V7 load(1, XDATA, add(CFA_XSP16, literal(-13)))
        CFI V8 load(1, XDATA, add(CFA_XSP16, literal(-12)))
        CFI V9 load(1, XDATA, add(CFA_XSP16, literal(-11)))
        CFI V10 load(1, XDATA, add(CFA_XSP16, literal(-10)))
        CFI V11 load(1, XDATA, add(CFA_XSP16, literal(-9)))
        CFI V12 load(1, XDATA, add(CFA_XSP16, literal(-8)))
        CFI V13 load(1, XDATA, add(CFA_XSP16, literal(-7)))
        CFI R7 load(1, XDATA, add(CFA_XSP16, literal(-6)))
        CFI ?RET_LOW load(1, XDATA, add(CFA_XSP16, literal(-5)))
        CFI ?RET_HIGH load(1, XDATA, add(CFA_XSP16, literal(-4)))
        CFI ?BRET_EXT load(1, XDATA, add(CFA_XSP16, literal(-3)))
        CFI DPL0 load(1, XDATA, add(CFA_XSP16, literal(-2)))
        CFI DPH0 load(1, XDATA, add(CFA_XSP16, literal(-1)))
        CFI CFA_SP SP+0
        CFI CFA_XSP16 add(XSP16, 36)
        CFI Block cfiCond35 Using cfiCommon0
        CFI (cfiCond35) NoFunction
        CFI (cfiCond35) Conditional ??CrossCallReturnLabel_64
        CFI (cfiCond35) R6 load(1, XDATA, add(CFA_XSP16, literal(-24)))
        CFI (cfiCond35) VB load(1, XDATA, add(CFA_XSP16, literal(-23)))
        CFI (cfiCond35) V0 load(1, XDATA, add(CFA_XSP16, literal(-22)))
        CFI (cfiCond35) V1 load(1, XDATA, add(CFA_XSP16, literal(-21)))
        CFI (cfiCond35) V2 load(1, XDATA, add(CFA_XSP16, literal(-20)))
        CFI (cfiCond35) V3 load(1, XDATA, add(CFA_XSP16, literal(-19)))
        CFI (cfiCond35) V4 load(1, XDATA, add(CFA_XSP16, literal(-18)))
        CFI (cfiCond35) V5 load(1, XDATA, add(CFA_XSP16, literal(-17)))
        CFI (cfiCond35) V6 load(1, XDATA, add(CFA_XSP16, literal(-16)))
        CFI (cfiCond35) V7 load(1, XDATA, add(CFA_XSP16, literal(-15)))
        CFI (cfiCond35) V8 load(1, XDATA, add(CFA_XSP16, literal(-14)))
        CFI (cfiCond35) V9 load(1, XDATA, add(CFA_XSP16, literal(-13)))
        CFI (cfiCond35) V10 load(1, XDATA, add(CFA_XSP16, literal(-12)))
        CFI (cfiCond35) V11 load(1, XDATA, add(CFA_XSP16, literal(-11)))
        CFI (cfiCond35) V12 load(1, XDATA, add(CFA_XSP16, literal(-10)))
        CFI (cfiCond35) V13 load(1, XDATA, add(CFA_XSP16, literal(-9)))
        CFI (cfiCond35) V14 load(1, XDATA, add(CFA_XSP16, literal(-8)))
        CFI (cfiCond35) V15 load(1, XDATA, add(CFA_XSP16, literal(-7)))
        CFI (cfiCond35) R7 load(1, XDATA, add(CFA_XSP16, literal(-6)))
        CFI (cfiCond35) ?RET_LOW load(1, XDATA, add(CFA_XSP16, literal(-5)))
        CFI (cfiCond35) ?RET_HIGH load(1, XDATA, add(CFA_XSP16, literal(-4)))
        CFI (cfiCond35) ?BRET_EXT load(1, XDATA, add(CFA_XSP16, literal(-3)))
        CFI (cfiCond35) DPL0 load(1, XDATA, add(CFA_XSP16, literal(-2)))
        CFI (cfiCond35) DPH0 load(1, XDATA, add(CFA_XSP16, literal(-1)))
        CFI (cfiCond35) CFA_SP SP+0
        CFI (cfiCond35) CFA_XSP16 add(XSP16, 25)
        CFI Block cfiPicker36 Using cfiCommon1
        CFI (cfiPicker36) NoFunction
        CFI (cfiPicker36) Picker
        MOV     R2,A
        MOV     A,R7
        CFI EndBlock cfiCond34
        CFI EndBlock cfiCond35
        CFI EndBlock cfiPicker36
        REQUIRE ??Subroutine46_0
        ; // Fall through to label ??Subroutine46_0

        RSEG BANKED_CODE:CODE:NOROOT(0)
??Subroutine46_0:
        CFI Block cfiCond37 Using cfiCommon0
        CFI NoFunction
        CFI Conditional ??CrossCallReturnLabel_65
        CFI R6 load(1, XDATA, add(CFA_XSP16, literal(-20)))
        CFI VB load(1, XDATA, add(CFA_XSP16, literal(-19)))
        CFI V0 load(1, XDATA, add(CFA_XSP16, literal(-18)))
        CFI V1 load(1, XDATA, add(CFA_XSP16, literal(-17)))
        CFI V2 load(1, XDATA, add(CFA_XSP16, literal(-16)))
        CFI V3 load(1, XDATA, add(CFA_XSP16, literal(-15)))
        CFI V4 load(1, XDATA, add(CFA_XSP16, literal(-14)))
        CFI V5 load(1, XDATA, add(CFA_XSP16, literal(-13)))
        CFI V6 load(1, XDATA, add(CFA_XSP16, literal(-12)))
        CFI V7 load(1, XDATA, add(CFA_XSP16, literal(-11)))
        CFI V8 load(1, XDATA, add(CFA_XSP16, literal(-10)))
        CFI V9 load(1, XDATA, add(CFA_XSP16, literal(-9)))
        CFI V10 load(1, XDATA, add(CFA_XSP16, literal(-8)))
        CFI V11 load(1, XDATA, add(CFA_XSP16, literal(-7)))
        CFI R7 load(1, XDATA, add(CFA_XSP16, literal(-6)))
        CFI ?RET_LOW load(1, XDATA, add(CFA_XSP16, literal(-5)))
        CFI ?RET_HIGH load(1, XDATA, add(CFA_XSP16, literal(-4)))
        CFI ?BRET_EXT load(1, XDATA, add(CFA_XSP16, literal(-3)))
        CFI DPL0 load(1, XDATA, add(CFA_XSP16, literal(-2)))
        CFI DPH0 load(1, XDATA, add(CFA_XSP16, literal(-1)))
        CFI CFA_SP SP+0
        CFI CFA_XSP16 add(XSP16, 20)
        CFI Block cfiCond38 Using cfiCommon0
        CFI (cfiCond38) NoFunction
        CFI (cfiCond38) Conditional ??CrossCallReturnLabel_63
        CFI (cfiCond38) R6 load(1, XDATA, add(CFA_XSP16, literal(-22)))
        CFI (cfiCond38) VB load(1, XDATA, add(CFA_XSP16, literal(-21)))
        CFI (cfiCond38) V0 load(1, XDATA, add(CFA_XSP16, literal(-20)))
        CFI (cfiCond38) V1 load(1, XDATA, add(CFA_XSP16, literal(-19)))
        CFI (cfiCond38) V2 load(1, XDATA, add(CFA_XSP16, literal(-18)))
        CFI (cfiCond38) V3 load(1, XDATA, add(CFA_XSP16, literal(-17)))
        CFI (cfiCond38) V4 load(1, XDATA, add(CFA_XSP16, literal(-16)))
        CFI (cfiCond38) V5 load(1, XDATA, add(CFA_XSP16, literal(-15)))
        CFI (cfiCond38) V6 load(1, XDATA, add(CFA_XSP16, literal(-14)))
        CFI (cfiCond38) V7 load(1, XDATA, add(CFA_XSP16, literal(-13)))
        CFI (cfiCond38) V8 load(1, XDATA, add(CFA_XSP16, literal(-12)))
        CFI (cfiCond38) V9 load(1, XDATA, add(CFA_XSP16, literal(-11)))
        CFI (cfiCond38) V10 load(1, XDATA, add(CFA_XSP16, literal(-10)))
        CFI (cfiCond38) V11 load(1, XDATA, add(CFA_XSP16, literal(-9)))
        CFI (cfiCond38) V12 load(1, XDATA, add(CFA_XSP16, literal(-8)))
        CFI (cfiCond38) V13 load(1, XDATA, add(CFA_XSP16, literal(-7)))
        CFI (cfiCond38) R7 load(1, XDATA, add(CFA_XSP16, literal(-6)))
        CFI (cfiCond38) ?RET_LOW load(1, XDATA, add(CFA_XSP16, literal(-5)))
        CFI (cfiCond38) ?RET_HIGH load(1, XDATA, add(CFA_XSP16, literal(-4)))
        CFI (cfiCond38) ?BRET_EXT load(1, XDATA, add(CFA_XSP16, literal(-3)))
        CFI (cfiCond38) DPL0 load(1, XDATA, add(CFA_XSP16, literal(-2)))
        CFI (cfiCond38) DPH0 load(1, XDATA, add(CFA_XSP16, literal(-1)))
        CFI (cfiCond38) CFA_SP SP+0
        CFI (cfiCond38) CFA_XSP16 add(XSP16, 36)
        CFI Block cfiCond39 Using cfiCommon0
        CFI (cfiCond39) NoFunction
        CFI (cfiCond39) Conditional ??CrossCallReturnLabel_64
        CFI (cfiCond39) R6 load(1, XDATA, add(CFA_XSP16, literal(-24)))
        CFI (cfiCond39) VB load(1, XDATA, add(CFA_XSP16, literal(-23)))
        CFI (cfiCond39) V0 load(1, XDATA, add(CFA_XSP16, literal(-22)))
        CFI (cfiCond39) V1 load(1, XDATA, add(CFA_XSP16, literal(-21)))
        CFI (cfiCond39) V2 load(1, XDATA, add(CFA_XSP16, literal(-20)))
        CFI (cfiCond39) V3 load(1, XDATA, add(CFA_XSP16, literal(-19)))
        CFI (cfiCond39) V4 load(1, XDATA, add(CFA_XSP16, literal(-18)))
        CFI (cfiCond39) V5 load(1, XDATA, add(CFA_XSP16, literal(-17)))
        CFI (cfiCond39) V6 load(1, XDATA, add(CFA_XSP16, literal(-16)))
        CFI (cfiCond39) V7 load(1, XDATA, add(CFA_XSP16, literal(-15)))
        CFI (cfiCond39) V8 load(1, XDATA, add(CFA_XSP16, literal(-14)))
        CFI (cfiCond39) V9 load(1, XDATA, add(CFA_XSP16, literal(-13)))
        CFI (cfiCond39) V10 load(1, XDATA, add(CFA_XSP16, literal(-12)))
        CFI (cfiCond39) V11 load(1, XDATA, add(CFA_XSP16, literal(-11)))
        CFI (cfiCond39) V12 load(1, XDATA, add(CFA_XSP16, literal(-10)))
        CFI (cfiCond39) V13 load(1, XDATA, add(CFA_XSP16, literal(-9)))
        CFI (cfiCond39) V14 load(1, XDATA, add(CFA_XSP16, literal(-8)))
        CFI (cfiCond39) V15 load(1, XDATA, add(CFA_XSP16, literal(-7)))
        CFI (cfiCond39) R7 load(1, XDATA, add(CFA_XSP16, literal(-6)))
        CFI (cfiCond39) ?RET_LOW load(1, XDATA, add(CFA_XSP16, literal(-5)))
        CFI (cfiCond39) ?RET_HIGH load(1, XDATA, add(CFA_XSP16, literal(-4)))
        CFI (cfiCond39) ?BRET_EXT load(1, XDATA, add(CFA_XSP16, literal(-3)))
        CFI (cfiCond39) DPL0 load(1, XDATA, add(CFA_XSP16, literal(-2)))
        CFI (cfiCond39) DPH0 load(1, XDATA, add(CFA_XSP16, literal(-1)))
        CFI (cfiCond39) CFA_SP SP+0
        CFI (cfiCond39) CFA_XSP16 add(XSP16, 25)
        CFI Block cfiPicker40 Using cfiCommon1
        CFI (cfiPicker40) NoFunction
        CFI (cfiPicker40) Picker
        ADDC    A,#0x0
        MOV     R3,A
        LCALL   ??osal_mem_alloc?relay
        RET
        CFI EndBlock cfiCond37
        CFI EndBlock cfiCond38
        CFI EndBlock cfiCond39
        CFI EndBlock cfiPicker40

        RSEG BANKED_CODE:CODE:NOROOT(0)
?Subroutine17:
        CFI Block cfiCond41 Using cfiCommon0
        CFI NoFunction
        CFI Conditional ??CrossCallReturnLabel_66
        CFI R6 load(1, XDATA, add(CFA_XSP16, literal(-22)))
        CFI VB load(1, XDATA, add(CFA_XSP16, literal(-21)))
        CFI V0 load(1, XDATA, add(CFA_XSP16, literal(-20)))
        CFI V1 load(1, XDATA, add(CFA_XSP16, literal(-19)))
        CFI V2 load(1, XDATA, add(CFA_XSP16, literal(-18)))
        CFI V3 load(1, XDATA, add(CFA_XSP16, literal(-17)))
        CFI V4 load(1, XDATA, add(CFA_XSP16, literal(-16)))
        CFI V5 load(1, XDATA, add(CFA_XSP16, literal(-15)))
        CFI V6 load(1, XDATA, add(CFA_XSP16, literal(-14)))
        CFI V7 load(1, XDATA, add(CFA_XSP16, literal(-13)))
        CFI V8 load(1, XDATA, add(CFA_XSP16, literal(-12)))
        CFI V9 load(1, XDATA, add(CFA_XSP16, literal(-11)))
        CFI V10 load(1, XDATA, add(CFA_XSP16, literal(-10)))
        CFI V11 load(1, XDATA, add(CFA_XSP16, literal(-9)))
        CFI V12 load(1, XDATA, add(CFA_XSP16, literal(-8)))
        CFI V13 load(1, XDATA, add(CFA_XSP16, literal(-7)))
        CFI R7 load(1, XDATA, add(CFA_XSP16, literal(-6)))
        CFI ?RET_LOW load(1, XDATA, add(CFA_XSP16, literal(-5)))
        CFI ?RET_HIGH load(1, XDATA, add(CFA_XSP16, literal(-4)))
        CFI ?BRET_EXT load(1, XDATA, add(CFA_XSP16, literal(-3)))
        CFI DPL0 load(1, XDATA, add(CFA_XSP16, literal(-2)))
        CFI DPH0 load(1, XDATA, add(CFA_XSP16, literal(-1)))
        CFI CFA_SP SP+0
        CFI CFA_XSP16 add(XSP16, 36)
        CFI Block cfiCond42 Using cfiCommon0
        CFI (cfiCond42) NoFunction
        CFI (cfiCond42) Conditional ??CrossCallReturnLabel_67
        CFI (cfiCond42) R6 load(1, XDATA, add(CFA_XSP16, literal(-22)))
        CFI (cfiCond42) VB load(1, XDATA, add(CFA_XSP16, literal(-21)))
        CFI (cfiCond42) V0 load(1, XDATA, add(CFA_XSP16, literal(-20)))
        CFI (cfiCond42) V1 load(1, XDATA, add(CFA_XSP16, literal(-19)))
        CFI (cfiCond42) V2 load(1, XDATA, add(CFA_XSP16, literal(-18)))
        CFI (cfiCond42) V3 load(1, XDATA, add(CFA_XSP16, literal(-17)))
        CFI (cfiCond42) V4 load(1, XDATA, add(CFA_XSP16, literal(-16)))
        CFI (cfiCond42) V5 load(1, XDATA, add(CFA_XSP16, literal(-15)))
        CFI (cfiCond42) V6 load(1, XDATA, add(CFA_XSP16, literal(-14)))
        CFI (cfiCond42) V7 load(1, XDATA, add(CFA_XSP16, literal(-13)))
        CFI (cfiCond42) V8 load(1, XDATA, add(CFA_XSP16, literal(-12)))
        CFI (cfiCond42) V9 load(1, XDATA, add(CFA_XSP16, literal(-11)))
        CFI (cfiCond42) V10 load(1, XDATA, add(CFA_XSP16, literal(-10)))
        CFI (cfiCond42) V11 load(1, XDATA, add(CFA_XSP16, literal(-9)))
        CFI (cfiCond42) V12 load(1, XDATA, add(CFA_XSP16, literal(-8)))
        CFI (cfiCond42) V13 load(1, XDATA, add(CFA_XSP16, literal(-7)))
        CFI (cfiCond42) R7 load(1, XDATA, add(CFA_XSP16, literal(-6)))
        CFI (cfiCond42) ?RET_LOW load(1, XDATA, add(CFA_XSP16, literal(-5)))
        CFI (cfiCond42) ?RET_HIGH load(1, XDATA, add(CFA_XSP16, literal(-4)))
        CFI (cfiCond42) ?BRET_EXT load(1, XDATA, add(CFA_XSP16, literal(-3)))
        CFI (cfiCond42) DPL0 load(1, XDATA, add(CFA_XSP16, literal(-2)))
        CFI (cfiCond42) DPH0 load(1, XDATA, add(CFA_XSP16, literal(-1)))
        CFI (cfiCond42) CFA_SP SP+0
        CFI (cfiCond42) CFA_XSP16 add(XSP16, 36)
        CFI Block cfiPicker43 Using cfiCommon1
        CFI (cfiPicker43) NoFunction
        CFI (cfiPicker43) Picker
        MOV     A,?V0 + 2
        ADD     A,#0x2
        CFI EndBlock cfiCond41
        CFI EndBlock cfiCond42
        CFI EndBlock cfiPicker43
        REQUIRE ??Subroutine47_0
        ; // Fall through to label ??Subroutine47_0

        RSEG BANKED_CODE:CODE:NOROOT(0)
??Subroutine47_0:
        CFI Block cfiCond44 Using cfiCommon0
        CFI NoFunction
        CFI Conditional ??CrossCallReturnLabel_68
        CFI R6 load(1, XDATA, add(CFA_XSP16, literal(-22)))
        CFI VB load(1, XDATA, add(CFA_XSP16, literal(-21)))
        CFI V0 load(1, XDATA, add(CFA_XSP16, literal(-20)))
        CFI V1 load(1, XDATA, add(CFA_XSP16, literal(-19)))
        CFI V2 load(1, XDATA, add(CFA_XSP16, literal(-18)))
        CFI V3 load(1, XDATA, add(CFA_XSP16, literal(-17)))
        CFI V4 load(1, XDATA, add(CFA_XSP16, literal(-16)))
        CFI V5 load(1, XDATA, add(CFA_XSP16, literal(-15)))
        CFI V6 load(1, XDATA, add(CFA_XSP16, literal(-14)))
        CFI V7 load(1, XDATA, add(CFA_XSP16, literal(-13)))
        CFI V8 load(1, XDATA, add(CFA_XSP16, literal(-12)))
        CFI V9 load(1, XDATA, add(CFA_XSP16, literal(-11)))
        CFI V10 load(1, XDATA, add(CFA_XSP16, literal(-10)))
        CFI V11 load(1, XDATA, add(CFA_XSP16, literal(-9)))
        CFI V12 load(1, XDATA, add(CFA_XSP16, literal(-8)))
        CFI V13 load(1, XDATA, add(CFA_XSP16, literal(-7)))
        CFI R7 load(1, XDATA, add(CFA_XSP16, literal(-6)))
        CFI ?RET_LOW load(1, XDATA, add(CFA_XSP16, literal(-5)))
        CFI ?RET_HIGH load(1, XDATA, add(CFA_XSP16, literal(-4)))
        CFI ?BRET_EXT load(1, XDATA, add(CFA_XSP16, literal(-3)))
        CFI DPL0 load(1, XDATA, add(CFA_XSP16, literal(-2)))
        CFI DPH0 load(1, XDATA, add(CFA_XSP16, literal(-1)))
        CFI CFA_SP SP+0
        CFI CFA_XSP16 add(XSP16, 36)
        CFI Block cfiCond45 Using cfiCommon0
        CFI (cfiCond45) NoFunction
        CFI (cfiCond45) Conditional ??CrossCallReturnLabel_66
        CFI (cfiCond45) R6 load(1, XDATA, add(CFA_XSP16, literal(-22)))
        CFI (cfiCond45) VB load(1, XDATA, add(CFA_XSP16, literal(-21)))
        CFI (cfiCond45) V0 load(1, XDATA, add(CFA_XSP16, literal(-20)))
        CFI (cfiCond45) V1 load(1, XDATA, add(CFA_XSP16, literal(-19)))
        CFI (cfiCond45) V2 load(1, XDATA, add(CFA_XSP16, literal(-18)))
        CFI (cfiCond45) V3 load(1, XDATA, add(CFA_XSP16, literal(-17)))
        CFI (cfiCond45) V4 load(1, XDATA, add(CFA_XSP16, literal(-16)))
        CFI (cfiCond45) V5 load(1, XDATA, add(CFA_XSP16, literal(-15)))
        CFI (cfiCond45) V6 load(1, XDATA, add(CFA_XSP16, literal(-14)))
        CFI (cfiCond45) V7 load(1, XDATA, add(CFA_XSP16, literal(-13)))
        CFI (cfiCond45) V8 load(1, XDATA, add(CFA_XSP16, literal(-12)))
        CFI (cfiCond45) V9 load(1, XDATA, add(CFA_XSP16, literal(-11)))
        CFI (cfiCond45) V10 load(1, XDATA, add(CFA_XSP16, literal(-10)))
        CFI (cfiCond45) V11 load(1, XDATA, add(CFA_XSP16, literal(-9)))
        CFI (cfiCond45) V12 load(1, XDATA, add(CFA_XSP16, literal(-8)))
        CFI (cfiCond45) V13 load(1, XDATA, add(CFA_XSP16, literal(-7)))
        CFI (cfiCond45) R7 load(1, XDATA, add(CFA_XSP16, literal(-6)))
        CFI (cfiCond45) ?RET_LOW load(1, XDATA, add(CFA_XSP16, literal(-5)))
        CFI (cfiCond45) ?RET_HIGH load(1, XDATA, add(CFA_XSP16, literal(-4)))
        CFI (cfiCond45) ?BRET_EXT load(1, XDATA, add(CFA_XSP16, literal(-3)))
        CFI (cfiCond45) DPL0 load(1, XDATA, add(CFA_XSP16, literal(-2)))
        CFI (cfiCond45) DPH0 load(1, XDATA, add(CFA_XSP16, literal(-1)))
        CFI (cfiCond45) CFA_SP SP+0
        CFI (cfiCond45) CFA_XSP16 add(XSP16, 36)
        CFI Block cfiCond46 Using cfiCommon0
        CFI (cfiCond46) NoFunction
        CFI (cfiCond46) Conditional ??CrossCallReturnLabel_67
        CFI (cfiCond46) R6 load(1, XDATA, add(CFA_XSP16, literal(-22)))
        CFI (cfiCond46) VB load(1, XDATA, add(CFA_XSP16, literal(-21)))
        CFI (cfiCond46) V0 load(1, XDATA, add(CFA_XSP16, literal(-20)))
        CFI (cfiCond46) V1 load(1, XDATA, add(CFA_XSP16, literal(-19)))
        CFI (cfiCond46) V2 load(1, XDATA, add(CFA_XSP16, literal(-18)))
        CFI (cfiCond46) V3 load(1, XDATA, add(CFA_XSP16, literal(-17)))
        CFI (cfiCond46) V4 load(1, XDATA, add(CFA_XSP16, literal(-16)))
        CFI (cfiCond46) V5 load(1, XDATA, add(CFA_XSP16, literal(-15)))
        CFI (cfiCond46) V6 load(1, XDATA, add(CFA_XSP16, literal(-14)))
        CFI (cfiCond46) V7 load(1, XDATA, add(CFA_XSP16, literal(-13)))
        CFI (cfiCond46) V8 load(1, XDATA, add(CFA_XSP16, literal(-12)))
        CFI (cfiCond46) V9 load(1, XDATA, add(CFA_XSP16, literal(-11)))
        CFI (cfiCond46) V10 load(1, XDATA, add(CFA_XSP16, literal(-10)))
        CFI (cfiCond46) V11 load(1, XDATA, add(CFA_XSP16, literal(-9)))
        CFI (cfiCond46) V12 load(1, XDATA, add(CFA_XSP16, literal(-8)))
        CFI (cfiCond46) V13 load(1, XDATA, add(CFA_XSP16, literal(-7)))
        CFI (cfiCond46) R7 load(1, XDATA, add(CFA_XSP16, literal(-6)))
        CFI (cfiCond46) ?RET_LOW load(1, XDATA, add(CFA_XSP16, literal(-5)))
        CFI (cfiCond46) ?RET_HIGH load(1, XDATA, add(CFA_XSP16, literal(-4)))
        CFI (cfiCond46) ?BRET_EXT load(1, XDATA, add(CFA_XSP16, literal(-3)))
        CFI (cfiCond46) DPL0 load(1, XDATA, add(CFA_XSP16, literal(-2)))
        CFI (cfiCond46) DPH0 load(1, XDATA, add(CFA_XSP16, literal(-1)))
        CFI (cfiCond46) CFA_SP SP+0
        CFI (cfiCond46) CFA_XSP16 add(XSP16, 36)
        CFI Block cfiPicker47 Using cfiCommon1
        CFI (cfiPicker47) NoFunction
        CFI (cfiPicker47) Picker
        MOV     ?V0 + 2,A
        MOV     A,?V0 + 3
        LCALL   ?Subroutine40 & 0xFFFF
??CrossCallReturnLabel_70:
        MOVX    A,@DPTR
        RET
        CFI EndBlock cfiCond44
        CFI EndBlock cfiCond45
        CFI EndBlock cfiCond46
        CFI EndBlock cfiPicker47

        RSEG BANKED_CODE:CODE:NOROOT(0)
?Subroutine40:
        CFI Block cfiCond48 Using cfiCommon0
        CFI NoFunction
        CFI Conditional ??CrossCallReturnLabel_69
        CFI R6 load(1, XDATA, add(CFA_XSP16, literal(-22)))
        CFI VB load(1, XDATA, add(CFA_XSP16, literal(-21)))
        CFI V0 load(1, XDATA, add(CFA_XSP16, literal(-20)))
        CFI V1 load(1, XDATA, add(CFA_XSP16, literal(-19)))
        CFI V2 load(1, XDATA, add(CFA_XSP16, literal(-18)))
        CFI V3 load(1, XDATA, add(CFA_XSP16, literal(-17)))
        CFI V4 load(1, XDATA, add(CFA_XSP16, literal(-16)))
        CFI V5 load(1, XDATA, add(CFA_XSP16, literal(-15)))
        CFI V6 load(1, XDATA, add(CFA_XSP16, literal(-14)))
        CFI V7 load(1, XDATA, add(CFA_XSP16, literal(-13)))
        CFI V8 load(1, XDATA, add(CFA_XSP16, literal(-12)))
        CFI V9 load(1, XDATA, add(CFA_XSP16, literal(-11)))
        CFI V10 load(1, XDATA, add(CFA_XSP16, literal(-10)))
        CFI V11 load(1, XDATA, add(CFA_XSP16, literal(-9)))
        CFI V12 load(1, XDATA, add(CFA_XSP16, literal(-8)))
        CFI V13 load(1, XDATA, add(CFA_XSP16, literal(-7)))
        CFI R7 load(1, XDATA, add(CFA_XSP16, literal(-6)))
        CFI ?RET_LOW load(1, XDATA, add(CFA_XSP16, literal(-5)))
        CFI ?RET_HIGH load(1, XDATA, add(CFA_XSP16, literal(-4)))
        CFI ?BRET_EXT load(1, XDATA, add(CFA_XSP16, literal(-3)))
        CFI DPL0 load(1, XDATA, add(CFA_XSP16, literal(-2)))
        CFI DPH0 load(1, XDATA, add(CFA_XSP16, literal(-1)))
        CFI CFA_SP SP+0
        CFI CFA_XSP16 add(XSP16, 36)
        CFI Block cfiCond49 Using cfiCommon0
        CFI (cfiCond49) NoFunction
        CFI (cfiCond49) Conditional ??CrossCallReturnLabel_70, ??CrossCallReturnLabel_66
        CFI (cfiCond49) R6 load(1, XDATA, add(CFA_XSP16, literal(-22)))
        CFI (cfiCond49) VB load(1, XDATA, add(CFA_XSP16, literal(-21)))
        CFI (cfiCond49) V0 load(1, XDATA, add(CFA_XSP16, literal(-20)))
        CFI (cfiCond49) V1 load(1, XDATA, add(CFA_XSP16, literal(-19)))
        CFI (cfiCond49) V2 load(1, XDATA, add(CFA_XSP16, literal(-18)))
        CFI (cfiCond49) V3 load(1, XDATA, add(CFA_XSP16, literal(-17)))
        CFI (cfiCond49) V4 load(1, XDATA, add(CFA_XSP16, literal(-16)))
        CFI (cfiCond49) V5 load(1, XDATA, add(CFA_XSP16, literal(-15)))
        CFI (cfiCond49) V6 load(1, XDATA, add(CFA_XSP16, literal(-14)))
        CFI (cfiCond49) V7 load(1, XDATA, add(CFA_XSP16, literal(-13)))
        CFI (cfiCond49) V8 load(1, XDATA, add(CFA_XSP16, literal(-12)))
        CFI (cfiCond49) V9 load(1, XDATA, add(CFA_XSP16, literal(-11)))
        CFI (cfiCond49) V10 load(1, XDATA, add(CFA_XSP16, literal(-10)))
        CFI (cfiCond49) V11 load(1, XDATA, add(CFA_XSP16, literal(-9)))
        CFI (cfiCond49) V12 load(1, XDATA, add(CFA_XSP16, literal(-8)))
        CFI (cfiCond49) V13 load(1, XDATA, add(CFA_XSP16, literal(-7)))
        CFI (cfiCond49) R7 load(1, XDATA, add(CFA_XSP16, literal(-6)))
        CFI (cfiCond49) ?RET_LOW load(1, XDATA, add(CFA_XSP16, literal(-5)))
        CFI (cfiCond49) ?RET_HIGH load(1, XDATA, add(CFA_XSP16, literal(-4)))
        CFI (cfiCond49) ?BRET_EXT load(1, XDATA, add(CFA_XSP16, literal(-3)))
        CFI (cfiCond49) DPL0 load(1, XDATA, add(CFA_XSP16, literal(-2)))
        CFI (cfiCond49) DPH0 load(1, XDATA, add(CFA_XSP16, literal(-1)))
        CFI (cfiCond49) CFA_SP SP+0
        CFI (cfiCond49) CFA_XSP16 add(XSP16, 36)
        CFI Block cfiCond50 Using cfiCommon0
        CFI (cfiCond50) NoFunction
        CFI (cfiCond50) Conditional ??CrossCallReturnLabel_70, ??CrossCallReturnLabel_67
        CFI (cfiCond50) R6 load(1, XDATA, add(CFA_XSP16, literal(-22)))
        CFI (cfiCond50) VB load(1, XDATA, add(CFA_XSP16, literal(-21)))
        CFI (cfiCond50) V0 load(1, XDATA, add(CFA_XSP16, literal(-20)))
        CFI (cfiCond50) V1 load(1, XDATA, add(CFA_XSP16, literal(-19)))
        CFI (cfiCond50) V2 load(1, XDATA, add(CFA_XSP16, literal(-18)))
        CFI (cfiCond50) V3 load(1, XDATA, add(CFA_XSP16, literal(-17)))
        CFI (cfiCond50) V4 load(1, XDATA, add(CFA_XSP16, literal(-16)))
        CFI (cfiCond50) V5 load(1, XDATA, add(CFA_XSP16, literal(-15)))
        CFI (cfiCond50) V6 load(1, XDATA, add(CFA_XSP16, literal(-14)))
        CFI (cfiCond50) V7 load(1, XDATA, add(CFA_XSP16, literal(-13)))
        CFI (cfiCond50) V8 load(1, XDATA, add(CFA_XSP16, literal(-12)))
        CFI (cfiCond50) V9 load(1, XDATA, add(CFA_XSP16, literal(-11)))
        CFI (cfiCond50) V10 load(1, XDATA, add(CFA_XSP16, literal(-10)))
        CFI (cfiCond50) V11 load(1, XDATA, add(CFA_XSP16, literal(-9)))
        CFI (cfiCond50) V12 load(1, XDATA, add(CFA_XSP16, literal(-8)))
        CFI (cfiCond50) V13 load(1, XDATA, add(CFA_XSP16, literal(-7)))
        CFI (cfiCond50) R7 load(1, XDATA, add(CFA_XSP16, literal(-6)))
        CFI (cfiCond50) ?RET_LOW load(1, XDATA, add(CFA_XSP16, literal(-5)))
        CFI (cfiCond50) ?RET_HIGH load(1, XDATA, add(CFA_XSP16, literal(-4)))
        CFI (cfiCond50) ?BRET_EXT load(1, XDATA, add(CFA_XSP16, literal(-3)))
        CFI (cfiCond50) DPL0 load(1, XDATA, add(CFA_XSP16, literal(-2)))
        CFI (cfiCond50) DPH0 load(1, XDATA, add(CFA_XSP16, literal(-1)))
        CFI (cfiCond50) CFA_SP SP+0
        CFI (cfiCond50) CFA_XSP16 add(XSP16, 36)
        CFI Block cfiCond51 Using cfiCommon0
        CFI (cfiCond51) NoFunction
        CFI (cfiCond51) Conditional ??CrossCallReturnLabel_70, ??CrossCallReturnLabel_68
        CFI (cfiCond51) R6 load(1, XDATA, add(CFA_XSP16, literal(-22)))
        CFI (cfiCond51) VB load(1, XDATA, add(CFA_XSP16, literal(-21)))
        CFI (cfiCond51) V0 load(1, XDATA, add(CFA_XSP16, literal(-20)))
        CFI (cfiCond51) V1 load(1, XDATA, add(CFA_XSP16, literal(-19)))
        CFI (cfiCond51) V2 load(1, XDATA, add(CFA_XSP16, literal(-18)))
        CFI (cfiCond51) V3 load(1, XDATA, add(CFA_XSP16, literal(-17)))
        CFI (cfiCond51) V4 load(1, XDATA, add(CFA_XSP16, literal(-16)))
        CFI (cfiCond51) V5 load(1, XDATA, add(CFA_XSP16, literal(-15)))
        CFI (cfiCond51) V6 load(1, XDATA, add(CFA_XSP16, literal(-14)))
        CFI (cfiCond51) V7 load(1, XDATA, add(CFA_XSP16, literal(-13)))
        CFI (cfiCond51) V8 load(1, XDATA, add(CFA_XSP16, literal(-12)))
        CFI (cfiCond51) V9 load(1, XDATA, add(CFA_XSP16, literal(-11)))
        CFI (cfiCond51) V10 load(1, XDATA, add(CFA_XSP16, literal(-10)))
        CFI (cfiCond51) V11 load(1, XDATA, add(CFA_XSP16, literal(-9)))
        CFI (cfiCond51) V12 load(1, XDATA, add(CFA_XSP16, literal(-8)))
        CFI (cfiCond51) V13 load(1, XDATA, add(CFA_XSP16, literal(-7)))
        CFI (cfiCond51) R7 load(1, XDATA, add(CFA_XSP16, literal(-6)))
        CFI (cfiCond51) ?RET_LOW load(1, XDATA, add(CFA_XSP16, literal(-5)))
        CFI (cfiCond51) ?RET_HIGH load(1, XDATA, add(CFA_XSP16, literal(-4)))
        CFI (cfiCond51) ?BRET_EXT load(1, XDATA, add(CFA_XSP16, literal(-3)))
        CFI (cfiCond51) DPL0 load(1, XDATA, add(CFA_XSP16, literal(-2)))
        CFI (cfiCond51) DPH0 load(1, XDATA, add(CFA_XSP16, literal(-1)))
        CFI (cfiCond51) CFA_SP SP+0
        CFI (cfiCond51) CFA_XSP16 add(XSP16, 36)
        CFI Block cfiPicker52 Using cfiCommon1
        CFI (cfiPicker52) NoFunction
        CFI (cfiPicker52) Picker
        ADDC    A,#0x0
        MOV     ?V0 + 3,A
        MOV     DPL,?V0 + 2
        MOV     DPH,A
        RET
        CFI EndBlock cfiCond48
        CFI EndBlock cfiCond49
        CFI EndBlock cfiCond50
        CFI EndBlock cfiCond51
        CFI EndBlock cfiPicker52

        RSEG BANKED_CODE:CODE:NOROOT(0)
?Subroutine16:
        CFI Block cfiCond53 Using cfiCommon0
        CFI NoFunction
        CFI Conditional ??CrossCallReturnLabel_16
        CFI R6 load(1, XDATA, add(CFA_XSP16, literal(-9)))
        CFI VB load(1, XDATA, add(CFA_XSP16, literal(-8)))
        CFI V0 load(1, XDATA, add(CFA_XSP16, literal(-7)))
        CFI R7 load(1, XDATA, add(CFA_XSP16, literal(-6)))
        CFI ?RET_LOW load(1, XDATA, add(CFA_XSP16, literal(-5)))
        CFI ?RET_HIGH load(1, XDATA, add(CFA_XSP16, literal(-4)))
        CFI ?BRET_EXT load(1, XDATA, add(CFA_XSP16, literal(-3)))
        CFI DPL0 load(1, XDATA, add(CFA_XSP16, literal(-2)))
        CFI DPH0 load(1, XDATA, add(CFA_XSP16, literal(-1)))
        CFI CFA_SP SP+0
        CFI CFA_XSP16 add(XSP16, 9)
        CFI Block cfiCond54 Using cfiCommon0
        CFI (cfiCond54) NoFunction
        CFI (cfiCond54) Conditional ??CrossCallReturnLabel_17
        CFI (cfiCond54) R6 load(1, XDATA, add(CFA_XSP16, literal(-22)))
        CFI (cfiCond54) VB load(1, XDATA, add(CFA_XSP16, literal(-21)))
        CFI (cfiCond54) V0 load(1, XDATA, add(CFA_XSP16, literal(-20)))
        CFI (cfiCond54) V1 load(1, XDATA, add(CFA_XSP16, literal(-19)))
        CFI (cfiCond54) V2 load(1, XDATA, add(CFA_XSP16, literal(-18)))
        CFI (cfiCond54) V3 load(1, XDATA, add(CFA_XSP16, literal(-17)))
        CFI (cfiCond54) V4 load(1, XDATA, add(CFA_XSP16, literal(-16)))
        CFI (cfiCond54) V5 load(1, XDATA, add(CFA_XSP16, literal(-15)))
        CFI (cfiCond54) V6 load(1, XDATA, add(CFA_XSP16, literal(-14)))
        CFI (cfiCond54) V7 load(1, XDATA, add(CFA_XSP16, literal(-13)))
        CFI (cfiCond54) V8 load(1, XDATA, add(CFA_XSP16, literal(-12)))
        CFI (cfiCond54) V9 load(1, XDATA, add(CFA_XSP16, literal(-11)))
        CFI (cfiCond54) V10 load(1, XDATA, add(CFA_XSP16, literal(-10)))
        CFI (cfiCond54) V11 load(1, XDATA, add(CFA_XSP16, literal(-9)))
        CFI (cfiCond54) V12 load(1, XDATA, add(CFA_XSP16, literal(-8)))
        CFI (cfiCond54) V13 load(1, XDATA, add(CFA_XSP16, literal(-7)))
        CFI (cfiCond54) R7 load(1, XDATA, add(CFA_XSP16, literal(-6)))
        CFI (cfiCond54) ?RET_LOW load(1, XDATA, add(CFA_XSP16, literal(-5)))
        CFI (cfiCond54) ?RET_HIGH load(1, XDATA, add(CFA_XSP16, literal(-4)))
        CFI (cfiCond54) ?BRET_EXT load(1, XDATA, add(CFA_XSP16, literal(-3)))
        CFI (cfiCond54) DPL0 load(1, XDATA, add(CFA_XSP16, literal(-2)))
        CFI (cfiCond54) DPH0 load(1, XDATA, add(CFA_XSP16, literal(-1)))
        CFI (cfiCond54) CFA_SP SP+0
        CFI (cfiCond54) CFA_XSP16 add(XSP16, 36)
        CFI Block cfiCond55 Using cfiCommon0
        CFI (cfiCond55) NoFunction
        CFI (cfiCond55) Conditional ??CrossCallReturnLabel_18
        CFI (cfiCond55) R6 load(1, XDATA, add(CFA_XSP16, literal(-24)))
        CFI (cfiCond55) VB load(1, XDATA, add(CFA_XSP16, literal(-23)))
        CFI (cfiCond55) V0 load(1, XDATA, add(CFA_XSP16, literal(-22)))
        CFI (cfiCond55) V1 load(1, XDATA, add(CFA_XSP16, literal(-21)))
        CFI (cfiCond55) V2 load(1, XDATA, add(CFA_XSP16, literal(-20)))
        CFI (cfiCond55) V3 load(1, XDATA, add(CFA_XSP16, literal(-19)))
        CFI (cfiCond55) V4 load(1, XDATA, add(CFA_XSP16, literal(-18)))
        CFI (cfiCond55) V5 load(1, XDATA, add(CFA_XSP16, literal(-17)))
        CFI (cfiCond55) V6 load(1, XDATA, add(CFA_XSP16, literal(-16)))
        CFI (cfiCond55) V7 load(1, XDATA, add(CFA_XSP16, literal(-15)))
        CFI (cfiCond55) V8 load(1, XDATA, add(CFA_XSP16, literal(-14)))
        CFI (cfiCond55) V9 load(1, XDATA, add(CFA_XSP16, literal(-13)))
        CFI (cfiCond55) V10 load(1, XDATA, add(CFA_XSP16, literal(-12)))
        CFI (cfiCond55) V11 load(1, XDATA, add(CFA_XSP16, literal(-11)))
        CFI (cfiCond55) V12 load(1, XDATA, add(CFA_XSP16, literal(-10)))
        CFI (cfiCond55) V13 load(1, XDATA, add(CFA_XSP16, literal(-9)))
        CFI (cfiCond55) V14 load(1, XDATA, add(CFA_XSP16, literal(-8)))
        CFI (cfiCond55) V15 load(1, XDATA, add(CFA_XSP16, literal(-7)))
        CFI (cfiCond55) R7 load(1, XDATA, add(CFA_XSP16, literal(-6)))
        CFI (cfiCond55) ?RET_LOW load(1, XDATA, add(CFA_XSP16, literal(-5)))
        CFI (cfiCond55) ?RET_HIGH load(1, XDATA, add(CFA_XSP16, literal(-4)))
        CFI (cfiCond55) ?BRET_EXT load(1, XDATA, add(CFA_XSP16, literal(-3)))
        CFI (cfiCond55) DPL0 load(1, XDATA, add(CFA_XSP16, literal(-2)))
        CFI (cfiCond55) DPH0 load(1, XDATA, add(CFA_XSP16, literal(-1)))
        CFI (cfiCond55) CFA_SP SP+0
        CFI (cfiCond55) CFA_XSP16 add(XSP16, 25)
        CFI Block cfiPicker56 Using cfiCommon1
        CFI (cfiPicker56) NoFunction
        CFI (cfiPicker56) Picker
        MOV     R2,#0x8
        MOV     R3,#0x0
        MOV     DPTR,#MT_TaskID
        MOVX    A,@DPTR
        MOV     R1,A
        LCALL   ??osal_set_event?relay
        RET
        CFI EndBlock cfiCond53
        CFI EndBlock cfiCond54
        CFI EndBlock cfiCond55
        CFI EndBlock cfiPicker56

        RSEG BANKED_CODE:CODE:NOROOT(0)
?Subroutine12:
        CFI Block cfiCond57 Using cfiCommon0
        CFI NoFunction
        CFI Conditional ??CrossCallReturnLabel_71
        CFI R6 load(1, XDATA, add(CFA_XSP16, literal(-22)))
        CFI VB load(1, XDATA, add(CFA_XSP16, literal(-21)))
        CFI V0 load(1, XDATA, add(CFA_XSP16, literal(-20)))
        CFI V1 load(1, XDATA, add(CFA_XSP16, literal(-19)))
        CFI V2 load(1, XDATA, add(CFA_XSP16, literal(-18)))
        CFI V3 load(1, XDATA, add(CFA_XSP16, literal(-17)))
        CFI V4 load(1, XDATA, add(CFA_XSP16, literal(-16)))
        CFI V5 load(1, XDATA, add(CFA_XSP16, literal(-15)))
        CFI V6 load(1, XDATA, add(CFA_XSP16, literal(-14)))
        CFI V7 load(1, XDATA, add(CFA_XSP16, literal(-13)))
        CFI V8 load(1, XDATA, add(CFA_XSP16, literal(-12)))
        CFI V9 load(1, XDATA, add(CFA_XSP16, literal(-11)))
        CFI V10 load(1, XDATA, add(CFA_XSP16, literal(-10)))
        CFI V11 load(1, XDATA, add(CFA_XSP16, literal(-9)))
        CFI V12 load(1, XDATA, add(CFA_XSP16, literal(-8)))
        CFI V13 load(1, XDATA, add(CFA_XSP16, literal(-7)))
        CFI R7 load(1, XDATA, add(CFA_XSP16, literal(-6)))
        CFI ?RET_LOW load(1, XDATA, add(CFA_XSP16, literal(-5)))
        CFI ?RET_HIGH load(1, XDATA, add(CFA_XSP16, literal(-4)))
        CFI ?BRET_EXT load(1, XDATA, add(CFA_XSP16, literal(-3)))
        CFI DPL0 load(1, XDATA, add(CFA_XSP16, literal(-2)))
        CFI DPH0 load(1, XDATA, add(CFA_XSP16, literal(-1)))
        CFI CFA_SP SP+0
        CFI CFA_XSP16 add(XSP16, 36)
        CFI Block cfiCond58 Using cfiCommon0
        CFI (cfiCond58) NoFunction
        CFI (cfiCond58) Conditional ??CrossCallReturnLabel_72
        CFI (cfiCond58) R6 load(1, XDATA, add(CFA_XSP16, literal(-24)))
        CFI (cfiCond58) VB load(1, XDATA, add(CFA_XSP16, literal(-23)))
        CFI (cfiCond58) V0 load(1, XDATA, add(CFA_XSP16, literal(-22)))
        CFI (cfiCond58) V1 load(1, XDATA, add(CFA_XSP16, literal(-21)))
        CFI (cfiCond58) V2 load(1, XDATA, add(CFA_XSP16, literal(-20)))
        CFI (cfiCond58) V3 load(1, XDATA, add(CFA_XSP16, literal(-19)))
        CFI (cfiCond58) V4 load(1, XDATA, add(CFA_XSP16, literal(-18)))
        CFI (cfiCond58) V5 load(1, XDATA, add(CFA_XSP16, literal(-17)))
        CFI (cfiCond58) V6 load(1, XDATA, add(CFA_XSP16, literal(-16)))
        CFI (cfiCond58) V7 load(1, XDATA, add(CFA_XSP16, literal(-15)))
        CFI (cfiCond58) V8 load(1, XDATA, add(CFA_XSP16, literal(-14)))
        CFI (cfiCond58) V9 load(1, XDATA, add(CFA_XSP16, literal(-13)))
        CFI (cfiCond58) V10 load(1, XDATA, add(CFA_XSP16, literal(-12)))
        CFI (cfiCond58) V11 load(1, XDATA, add(CFA_XSP16, literal(-11)))
        CFI (cfiCond58) V12 load(1, XDATA, add(CFA_XSP16, literal(-10)))
        CFI (cfiCond58) V13 load(1, XDATA, add(CFA_XSP16, literal(-9)))
        CFI (cfiCond58) V14 load(1, XDATA, add(CFA_XSP16, literal(-8)))
        CFI (cfiCond58) V15 load(1, XDATA, add(CFA_XSP16, literal(-7)))
        CFI (cfiCond58) R7 load(1, XDATA, add(CFA_XSP16, literal(-6)))
        CFI (cfiCond58) ?RET_LOW load(1, XDATA, add(CFA_XSP16, literal(-5)))
        CFI (cfiCond58) ?RET_HIGH load(1, XDATA, add(CFA_XSP16, literal(-4)))
        CFI (cfiCond58) ?BRET_EXT load(1, XDATA, add(CFA_XSP16, literal(-3)))
        CFI (cfiCond58) DPL0 load(1, XDATA, add(CFA_XSP16, literal(-2)))
        CFI (cfiCond58) DPH0 load(1, XDATA, add(CFA_XSP16, literal(-1)))
        CFI (cfiCond58) CFA_SP SP+0
        CFI (cfiCond58) CFA_XSP16 add(XSP16, 25)
        CFI Block cfiPicker59 Using cfiCommon1
        CFI (cfiPicker59) NoFunction
        CFI (cfiPicker59) Picker
        MOV     A,#0xf
        MOVX    @DPTR,A
        CFI EndBlock cfiCond57
        CFI EndBlock cfiCond58
        CFI EndBlock cfiPicker59
        ; Setup parameters for call to function osal_start_timerEx
        ; Setup parameters for call to function osal_start_timerEx
        REQUIRE ??Subroutine48_0
        ; // Fall through to label ??Subroutine48_0

        RSEG BANKED_CODE:CODE:NOROOT(0)
??Subroutine48_0:
        CFI Block cfiCond60 Using cfiCommon0
        CFI NoFunction
        CFI Conditional ??CrossCallReturnLabel_73
        CFI R6 load(1, XDATA, add(CFA_XSP16, literal(-9)))
        CFI VB load(1, XDATA, add(CFA_XSP16, literal(-8)))
        CFI V0 load(1, XDATA, add(CFA_XSP16, literal(-7)))
        CFI R7 load(1, XDATA, add(CFA_XSP16, literal(-6)))
        CFI ?RET_LOW load(1, XDATA, add(CFA_XSP16, literal(-5)))
        CFI ?RET_HIGH load(1, XDATA, add(CFA_XSP16, literal(-4)))
        CFI ?BRET_EXT load(1, XDATA, add(CFA_XSP16, literal(-3)))
        CFI DPL0 load(1, XDATA, add(CFA_XSP16, literal(-2)))
        CFI DPH0 load(1, XDATA, add(CFA_XSP16, literal(-1)))
        CFI CFA_SP SP+0
        CFI CFA_XSP16 add(XSP16, 9)
        CFI Block cfiCond61 Using cfiCommon0
        CFI (cfiCond61) NoFunction
        CFI (cfiCond61) Conditional ??CrossCallReturnLabel_71
        CFI (cfiCond61) R6 load(1, XDATA, add(CFA_XSP16, literal(-22)))
        CFI (cfiCond61) VB load(1, XDATA, add(CFA_XSP16, literal(-21)))
        CFI (cfiCond61) V0 load(1, XDATA, add(CFA_XSP16, literal(-20)))
        CFI (cfiCond61) V1 load(1, XDATA, add(CFA_XSP16, literal(-19)))
        CFI (cfiCond61) V2 load(1, XDATA, add(CFA_XSP16, literal(-18)))
        CFI (cfiCond61) V3 load(1, XDATA, add(CFA_XSP16, literal(-17)))
        CFI (cfiCond61) V4 load(1, XDATA, add(CFA_XSP16, literal(-16)))
        CFI (cfiCond61) V5 load(1, XDATA, add(CFA_XSP16, literal(-15)))
        CFI (cfiCond61) V6 load(1, XDATA, add(CFA_XSP16, literal(-14)))
        CFI (cfiCond61) V7 load(1, XDATA, add(CFA_XSP16, literal(-13)))
        CFI (cfiCond61) V8 load(1, XDATA, add(CFA_XSP16, literal(-12)))
        CFI (cfiCond61) V9 load(1, XDATA, add(CFA_XSP16, literal(-11)))
        CFI (cfiCond61) V10 load(1, XDATA, add(CFA_XSP16, literal(-10)))
        CFI (cfiCond61) V11 load(1, XDATA, add(CFA_XSP16, literal(-9)))
        CFI (cfiCond61) V12 load(1, XDATA, add(CFA_XSP16, literal(-8)))
        CFI (cfiCond61) V13 load(1, XDATA, add(CFA_XSP16, literal(-7)))
        CFI (cfiCond61) R7 load(1, XDATA, add(CFA_XSP16, literal(-6)))
        CFI (cfiCond61) ?RET_LOW load(1, XDATA, add(CFA_XSP16, literal(-5)))
        CFI (cfiCond61) ?RET_HIGH load(1, XDATA, add(CFA_XSP16, literal(-4)))
        CFI (cfiCond61) ?BRET_EXT load(1, XDATA, add(CFA_XSP16, literal(-3)))
        CFI (cfiCond61) DPL0 load(1, XDATA, add(CFA_XSP16, literal(-2)))
        CFI (cfiCond61) DPH0 load(1, XDATA, add(CFA_XSP16, literal(-1)))
        CFI (cfiCond61) CFA_SP SP+0
        CFI (cfiCond61) CFA_XSP16 add(XSP16, 36)
        CFI Block cfiCond62 Using cfiCommon0
        CFI (cfiCond62) NoFunction
        CFI (cfiCond62) Conditional ??CrossCallReturnLabel_72
        CFI (cfiCond62) R6 load(1, XDATA, add(CFA_XSP16, literal(-24)))
        CFI (cfiCond62) VB load(1, XDATA, add(CFA_XSP16, literal(-23)))
        CFI (cfiCond62) V0 load(1, XDATA, add(CFA_XSP16, literal(-22)))
        CFI (cfiCond62) V1 load(1, XDATA, add(CFA_XSP16, literal(-21)))
        CFI (cfiCond62) V2 load(1, XDATA, add(CFA_XSP16, literal(-20)))
        CFI (cfiCond62) V3 load(1, XDATA, add(CFA_XSP16, literal(-19)))
        CFI (cfiCond62) V4 load(1, XDATA, add(CFA_XSP16, literal(-18)))
        CFI (cfiCond62) V5 load(1, XDATA, add(CFA_XSP16, literal(-17)))
        CFI (cfiCond62) V6 load(1, XDATA, add(CFA_XSP16, literal(-16)))
        CFI (cfiCond62) V7 load(1, XDATA, add(CFA_XSP16, literal(-15)))
        CFI (cfiCond62) V8 load(1, XDATA, add(CFA_XSP16, literal(-14)))
        CFI (cfiCond62) V9 load(1, XDATA, add(CFA_XSP16, literal(-13)))
        CFI (cfiCond62) V10 load(1, XDATA, add(CFA_XSP16, literal(-12)))
        CFI (cfiCond62) V11 load(1, XDATA, add(CFA_XSP16, literal(-11)))
        CFI (cfiCond62) V12 load(1, XDATA, add(CFA_XSP16, literal(-10)))
        CFI (cfiCond62) V13 load(1, XDATA, add(CFA_XSP16, literal(-9)))
        CFI (cfiCond62) V14 load(1, XDATA, add(CFA_XSP16, literal(-8)))
        CFI (cfiCond62) V15 load(1, XDATA, add(CFA_XSP16, literal(-7)))
        CFI (cfiCond62) R7 load(1, XDATA, add(CFA_XSP16, literal(-6)))
        CFI (cfiCond62) ?RET_LOW load(1, XDATA, add(CFA_XSP16, literal(-5)))
        CFI (cfiCond62) ?RET_HIGH load(1, XDATA, add(CFA_XSP16, literal(-4)))
        CFI (cfiCond62) ?BRET_EXT load(1, XDATA, add(CFA_XSP16, literal(-3)))
        CFI (cfiCond62) DPL0 load(1, XDATA, add(CFA_XSP16, literal(-2)))
        CFI (cfiCond62) DPH0 load(1, XDATA, add(CFA_XSP16, literal(-1)))
        CFI (cfiCond62) CFA_SP SP+0
        CFI (cfiCond62) CFA_XSP16 add(XSP16, 25)
        CFI Block cfiPicker63 Using cfiCommon1
        CFI (cfiPicker63) NoFunction
        CFI (cfiPicker63) Picker
        MOV     R4,#-0x18
        MOV     R5,#0x3
        MOV     R2,#0x8
        MOV     R3,#0x0
        MOV     DPTR,#MT_TaskID
        MOVX    A,@DPTR
        MOV     R1,A
        LCALL   ??osal_start_timerEx?relay
        MOV     A,R1
        RET
        CFI EndBlock cfiCond60
        CFI EndBlock cfiCond61
        CFI EndBlock cfiCond62
        CFI EndBlock cfiPicker63

        RSEG BANKED_CODE:CODE:NOROOT(0)
?Subroutine4:
        CFI Block cfiCond64 Using cfiCommon0
        CFI NoFunction
        CFI Conditional ??CrossCallReturnLabel_75
        CFI R6 load(1, XDATA, add(CFA_XSP16, literal(-9)))
        CFI VB load(1, XDATA, add(CFA_XSP16, literal(-8)))
        CFI V0 load(1, XDATA, add(CFA_XSP16, literal(-7)))
        CFI R7 load(1, XDATA, add(CFA_XSP16, literal(-6)))
        CFI ?RET_LOW load(1, XDATA, add(CFA_XSP16, literal(-5)))
        CFI ?RET_HIGH load(1, XDATA, add(CFA_XSP16, literal(-4)))
        CFI ?BRET_EXT load(1, XDATA, add(CFA_XSP16, literal(-3)))
        CFI DPL0 load(1, XDATA, add(CFA_XSP16, literal(-2)))
        CFI DPH0 load(1, XDATA, add(CFA_XSP16, literal(-1)))
        CFI CFA_SP SP+0
        CFI CFA_XSP16 add(XSP16, 9)
        CFI Block cfiCond65 Using cfiCommon0
        CFI (cfiCond65) NoFunction
        CFI (cfiCond65) Conditional ??CrossCallReturnLabel_76
        CFI (cfiCond65) R6 load(1, XDATA, add(CFA_XSP16, literal(-9)))
        CFI (cfiCond65) VB load(1, XDATA, add(CFA_XSP16, literal(-8)))
        CFI (cfiCond65) V0 load(1, XDATA, add(CFA_XSP16, literal(-7)))
        CFI (cfiCond65) R7 load(1, XDATA, add(CFA_XSP16, literal(-6)))
        CFI (cfiCond65) ?RET_LOW load(1, XDATA, add(CFA_XSP16, literal(-5)))
        CFI (cfiCond65) ?RET_HIGH load(1, XDATA, add(CFA_XSP16, literal(-4)))
        CFI (cfiCond65) ?BRET_EXT load(1, XDATA, add(CFA_XSP16, literal(-3)))
        CFI (cfiCond65) DPL0 load(1, XDATA, add(CFA_XSP16, literal(-2)))
        CFI (cfiCond65) DPH0 load(1, XDATA, add(CFA_XSP16, literal(-1)))
        CFI (cfiCond65) CFA_SP SP+0
        CFI (cfiCond65) CFA_XSP16 add(XSP16, 9)
        CFI Block cfiCond66 Using cfiCommon0
        CFI (cfiCond66) NoFunction
        CFI (cfiCond66) Conditional ??CrossCallReturnLabel_77
        CFI (cfiCond66) R6 load(1, XDATA, add(CFA_XSP16, literal(-22)))
        CFI (cfiCond66) VB load(1, XDATA, add(CFA_XSP16, literal(-21)))
        CFI (cfiCond66) V0 load(1, XDATA, add(CFA_XSP16, literal(-20)))
        CFI (cfiCond66) V1 load(1, XDATA, add(CFA_XSP16, literal(-19)))
        CFI (cfiCond66) V2 load(1, XDATA, add(CFA_XSP16, literal(-18)))
        CFI (cfiCond66) V3 load(1, XDATA, add(CFA_XSP16, literal(-17)))
        CFI (cfiCond66) V4 load(1, XDATA, add(CFA_XSP16, literal(-16)))
        CFI (cfiCond66) V5 load(1, XDATA, add(CFA_XSP16, literal(-15)))
        CFI (cfiCond66) V6 load(1, XDATA, add(CFA_XSP16, literal(-14)))
        CFI (cfiCond66) V7 load(1, XDATA, add(CFA_XSP16, literal(-13)))
        CFI (cfiCond66) V8 load(1, XDATA, add(CFA_XSP16, literal(-12)))
        CFI (cfiCond66) V9 load(1, XDATA, add(CFA_XSP16, literal(-11)))
        CFI (cfiCond66) V10 load(1, XDATA, add(CFA_XSP16, literal(-10)))
        CFI (cfiCond66) V11 load(1, XDATA, add(CFA_XSP16, literal(-9)))
        CFI (cfiCond66) V12 load(1, XDATA, add(CFA_XSP16, literal(-8)))
        CFI (cfiCond66) V13 load(1, XDATA, add(CFA_XSP16, literal(-7)))
        CFI (cfiCond66) R7 load(1, XDATA, add(CFA_XSP16, literal(-6)))
        CFI (cfiCond66) ?RET_LOW load(1, XDATA, add(CFA_XSP16, literal(-5)))
        CFI (cfiCond66) ?RET_HIGH load(1, XDATA, add(CFA_XSP16, literal(-4)))
        CFI (cfiCond66) ?BRET_EXT load(1, XDATA, add(CFA_XSP16, literal(-3)))
        CFI (cfiCond66) DPL0 load(1, XDATA, add(CFA_XSP16, literal(-2)))
        CFI (cfiCond66) DPH0 load(1, XDATA, add(CFA_XSP16, literal(-1)))
        CFI (cfiCond66) CFA_SP SP+0
        CFI (cfiCond66) CFA_XSP16 add(XSP16, 36)
        CFI Block cfiCond67 Using cfiCommon0
        CFI (cfiCond67) NoFunction
        CFI (cfiCond67) Conditional ??CrossCallReturnLabel_78
        CFI (cfiCond67) R6 load(1, XDATA, add(CFA_XSP16, literal(-22)))
        CFI (cfiCond67) VB load(1, XDATA, add(CFA_XSP16, literal(-21)))
        CFI (cfiCond67) V0 load(1, XDATA, add(CFA_XSP16, literal(-20)))
        CFI (cfiCond67) V1 load(1, XDATA, add(CFA_XSP16, literal(-19)))
        CFI (cfiCond67) V2 load(1, XDATA, add(CFA_XSP16, literal(-18)))
        CFI (cfiCond67) V3 load(1, XDATA, add(CFA_XSP16, literal(-17)))
        CFI (cfiCond67) V4 load(1, XDATA, add(CFA_XSP16, literal(-16)))
        CFI (cfiCond67) V5 load(1, XDATA, add(CFA_XSP16, literal(-15)))
        CFI (cfiCond67) V6 load(1, XDATA, add(CFA_XSP16, literal(-14)))
        CFI (cfiCond67) V7 load(1, XDATA, add(CFA_XSP16, literal(-13)))
        CFI (cfiCond67) V8 load(1, XDATA, add(CFA_XSP16, literal(-12)))
        CFI (cfiCond67) V9 load(1, XDATA, add(CFA_XSP16, literal(-11)))
        CFI (cfiCond67) V10 load(1, XDATA, add(CFA_XSP16, literal(-10)))
        CFI (cfiCond67) V11 load(1, XDATA, add(CFA_XSP16, literal(-9)))
        CFI (cfiCond67) V12 load(1, XDATA, add(CFA_XSP16, literal(-8)))
        CFI (cfiCond67) V13 load(1, XDATA, add(CFA_XSP16, literal(-7)))
        CFI (cfiCond67) R7 load(1, XDATA, add(CFA_XSP16, literal(-6)))
        CFI (cfiCond67) ?RET_LOW load(1, XDATA, add(CFA_XSP16, literal(-5)))
        CFI (cfiCond67) ?RET_HIGH load(1, XDATA, add(CFA_XSP16, literal(-4)))
        CFI (cfiCond67) ?BRET_EXT load(1, XDATA, add(CFA_XSP16, literal(-3)))
        CFI (cfiCond67) DPL0 load(1, XDATA, add(CFA_XSP16, literal(-2)))
        CFI (cfiCond67) DPH0 load(1, XDATA, add(CFA_XSP16, literal(-1)))
        CFI (cfiCond67) CFA_SP SP+0
        CFI (cfiCond67) CFA_XSP16 add(XSP16, 36)
        CFI Block cfiCond68 Using cfiCommon0
        CFI (cfiCond68) NoFunction
        CFI (cfiCond68) Conditional ??CrossCallReturnLabel_79
        CFI (cfiCond68) R6 load(1, XDATA, add(CFA_XSP16, literal(-14)))
        CFI (cfiCond68) VB load(1, XDATA, add(CFA_XSP16, literal(-13)))
        CFI (cfiCond68) V0 load(1, XDATA, add(CFA_XSP16, literal(-12)))
        CFI (cfiCond68) V1 load(1, XDATA, add(CFA_XSP16, literal(-11)))
        CFI (cfiCond68) V2 load(1, XDATA, add(CFA_XSP16, literal(-10)))
        CFI (cfiCond68) V3 load(1, XDATA, add(CFA_XSP16, literal(-9)))
        CFI (cfiCond68) V4 load(1, XDATA, add(CFA_XSP16, literal(-8)))
        CFI (cfiCond68) V5 load(1, XDATA, add(CFA_XSP16, literal(-7)))
        CFI (cfiCond68) R7 load(1, XDATA, add(CFA_XSP16, literal(-6)))
        CFI (cfiCond68) ?RET_LOW load(1, XDATA, add(CFA_XSP16, literal(-5)))
        CFI (cfiCond68) ?RET_HIGH load(1, XDATA, add(CFA_XSP16, literal(-4)))
        CFI (cfiCond68) ?BRET_EXT load(1, XDATA, add(CFA_XSP16, literal(-3)))
        CFI (cfiCond68) DPL0 load(1, XDATA, add(CFA_XSP16, literal(-2)))
        CFI (cfiCond68) DPH0 load(1, XDATA, add(CFA_XSP16, literal(-1)))
        CFI (cfiCond68) CFA_SP SP+0
        CFI (cfiCond68) CFA_XSP16 add(XSP16, 15)
        CFI Block cfiPicker69 Using cfiCommon1
        CFI (cfiPicker69) NoFunction
        CFI (cfiPicker69) Picker
        MOV     DPTR,#pMtAfDataReq
        CFI EndBlock cfiCond64
        CFI EndBlock cfiCond65
        CFI EndBlock cfiCond66
        CFI EndBlock cfiCond67
        CFI EndBlock cfiCond68
        CFI EndBlock cfiPicker69
        REQUIRE ??Subroutine49_0
        ; // Fall through to label ??Subroutine49_0

        RSEG BANKED_CODE:CODE:NOROOT(0)
??Subroutine49_0:
        CFI Block cfiCond70 Using cfiCommon0
        CFI NoFunction
        CFI Conditional ??CrossCallReturnLabel_74
        CFI R6 load(1, XDATA, add(CFA_XSP16, literal(-9)))
        CFI VB load(1, XDATA, add(CFA_XSP16, literal(-8)))
        CFI V0 load(1, XDATA, add(CFA_XSP16, literal(-7)))
        CFI R7 load(1, XDATA, add(CFA_XSP16, literal(-6)))
        CFI ?RET_LOW load(1, XDATA, add(CFA_XSP16, literal(-5)))
        CFI ?RET_HIGH load(1, XDATA, add(CFA_XSP16, literal(-4)))
        CFI ?BRET_EXT load(1, XDATA, add(CFA_XSP16, literal(-3)))
        CFI DPL0 load(1, XDATA, add(CFA_XSP16, literal(-2)))
        CFI DPH0 load(1, XDATA, add(CFA_XSP16, literal(-1)))
        CFI CFA_SP SP+0
        CFI CFA_XSP16 add(XSP16, 9)
        CFI Block cfiCond71 Using cfiCommon0
        CFI (cfiCond71) NoFunction
        CFI (cfiCond71) Conditional ??CrossCallReturnLabel_75
        CFI (cfiCond71) R6 load(1, XDATA, add(CFA_XSP16, literal(-9)))
        CFI (cfiCond71) VB load(1, XDATA, add(CFA_XSP16, literal(-8)))
        CFI (cfiCond71) V0 load(1, XDATA, add(CFA_XSP16, literal(-7)))
        CFI (cfiCond71) R7 load(1, XDATA, add(CFA_XSP16, literal(-6)))
        CFI (cfiCond71) ?RET_LOW load(1, XDATA, add(CFA_XSP16, literal(-5)))
        CFI (cfiCond71) ?RET_HIGH load(1, XDATA, add(CFA_XSP16, literal(-4)))
        CFI (cfiCond71) ?BRET_EXT load(1, XDATA, add(CFA_XSP16, literal(-3)))
        CFI (cfiCond71) DPL0 load(1, XDATA, add(CFA_XSP16, literal(-2)))
        CFI (cfiCond71) DPH0 load(1, XDATA, add(CFA_XSP16, literal(-1)))
        CFI (cfiCond71) CFA_SP SP+0
        CFI (cfiCond71) CFA_XSP16 add(XSP16, 9)
        CFI Block cfiCond72 Using cfiCommon0
        CFI (cfiCond72) NoFunction
        CFI (cfiCond72) Conditional ??CrossCallReturnLabel_76
        CFI (cfiCond72) R6 load(1, XDATA, add(CFA_XSP16, literal(-9)))
        CFI (cfiCond72) VB load(1, XDATA, add(CFA_XSP16, literal(-8)))
        CFI (cfiCond72) V0 load(1, XDATA, add(CFA_XSP16, literal(-7)))
        CFI (cfiCond72) R7 load(1, XDATA, add(CFA_XSP16, literal(-6)))
        CFI (cfiCond72) ?RET_LOW load(1, XDATA, add(CFA_XSP16, literal(-5)))
        CFI (cfiCond72) ?RET_HIGH load(1, XDATA, add(CFA_XSP16, literal(-4)))
        CFI (cfiCond72) ?BRET_EXT load(1, XDATA, add(CFA_XSP16, literal(-3)))
        CFI (cfiCond72) DPL0 load(1, XDATA, add(CFA_XSP16, literal(-2)))
        CFI (cfiCond72) DPH0 load(1, XDATA, add(CFA_XSP16, literal(-1)))
        CFI (cfiCond72) CFA_SP SP+0
        CFI (cfiCond72) CFA_XSP16 add(XSP16, 9)
        CFI Block cfiCond73 Using cfiCommon0
        CFI (cfiCond73) NoFunction
        CFI (cfiCond73) Conditional ??CrossCallReturnLabel_77
        CFI (cfiCond73) R6 load(1, XDATA, add(CFA_XSP16, literal(-22)))
        CFI (cfiCond73) VB load(1, XDATA, add(CFA_XSP16, literal(-21)))
        CFI (cfiCond73) V0 load(1, XDATA, add(CFA_XSP16, literal(-20)))
        CFI (cfiCond73) V1 load(1, XDATA, add(CFA_XSP16, literal(-19)))
        CFI (cfiCond73) V2 load(1, XDATA, add(CFA_XSP16, literal(-18)))
        CFI (cfiCond73) V3 load(1, XDATA, add(CFA_XSP16, literal(-17)))
        CFI (cfiCond73) V4 load(1, XDATA, add(CFA_XSP16, literal(-16)))
        CFI (cfiCond73) V5 load(1, XDATA, add(CFA_XSP16, literal(-15)))
        CFI (cfiCond73) V6 load(1, XDATA, add(CFA_XSP16, literal(-14)))
        CFI (cfiCond73) V7 load(1, XDATA, add(CFA_XSP16, literal(-13)))
        CFI (cfiCond73) V8 load(1, XDATA, add(CFA_XSP16, literal(-12)))
        CFI (cfiCond73) V9 load(1, XDATA, add(CFA_XSP16, literal(-11)))
        CFI (cfiCond73) V10 load(1, XDATA, add(CFA_XSP16, literal(-10)))
        CFI (cfiCond73) V11 load(1, XDATA, add(CFA_XSP16, literal(-9)))
        CFI (cfiCond73) V12 load(1, XDATA, add(CFA_XSP16, literal(-8)))
        CFI (cfiCond73) V13 load(1, XDATA, add(CFA_XSP16, literal(-7)))
        CFI (cfiCond73) R7 load(1, XDATA, add(CFA_XSP16, literal(-6)))
        CFI (cfiCond73) ?RET_LOW load(1, XDATA, add(CFA_XSP16, literal(-5)))
        CFI (cfiCond73) ?RET_HIGH load(1, XDATA, add(CFA_XSP16, literal(-4)))
        CFI (cfiCond73) ?BRET_EXT load(1, XDATA, add(CFA_XSP16, literal(-3)))
        CFI (cfiCond73) DPL0 load(1, XDATA, add(CFA_XSP16, literal(-2)))
        CFI (cfiCond73) DPH0 load(1, XDATA, add(CFA_XSP16, literal(-1)))
        CFI (cfiCond73) CFA_SP SP+0
        CFI (cfiCond73) CFA_XSP16 add(XSP16, 36)
        CFI Block cfiCond74 Using cfiCommon0
        CFI (cfiCond74) NoFunction
        CFI (cfiCond74) Conditional ??CrossCallReturnLabel_78
        CFI (cfiCond74) R6 load(1, XDATA, add(CFA_XSP16, literal(-22)))
        CFI (cfiCond74) VB load(1, XDATA, add(CFA_XSP16, literal(-21)))
        CFI (cfiCond74) V0 load(1, XDATA, add(CFA_XSP16, literal(-20)))
        CFI (cfiCond74) V1 load(1, XDATA, add(CFA_XSP16, literal(-19)))
        CFI (cfiCond74) V2 load(1, XDATA, add(CFA_XSP16, literal(-18)))
        CFI (cfiCond74) V3 load(1, XDATA, add(CFA_XSP16, literal(-17)))
        CFI (cfiCond74) V4 load(1, XDATA, add(CFA_XSP16, literal(-16)))
        CFI (cfiCond74) V5 load(1, XDATA, add(CFA_XSP16, literal(-15)))
        CFI (cfiCond74) V6 load(1, XDATA, add(CFA_XSP16, literal(-14)))
        CFI (cfiCond74) V7 load(1, XDATA, add(CFA_XSP16, literal(-13)))
        CFI (cfiCond74) V8 load(1, XDATA, add(CFA_XSP16, literal(-12)))
        CFI (cfiCond74) V9 load(1, XDATA, add(CFA_XSP16, literal(-11)))
        CFI (cfiCond74) V10 load(1, XDATA, add(CFA_XSP16, literal(-10)))
        CFI (cfiCond74) V11 load(1, XDATA, add(CFA_XSP16, literal(-9)))
        CFI (cfiCond74) V12 load(1, XDATA, add(CFA_XSP16, literal(-8)))
        CFI (cfiCond74) V13 load(1, XDATA, add(CFA_XSP16, literal(-7)))
        CFI (cfiCond74) R7 load(1, XDATA, add(CFA_XSP16, literal(-6)))
        CFI (cfiCond74) ?RET_LOW load(1, XDATA, add(CFA_XSP16, literal(-5)))
        CFI (cfiCond74) ?RET_HIGH load(1, XDATA, add(CFA_XSP16, literal(-4)))
        CFI (cfiCond74) ?BRET_EXT load(1, XDATA, add(CFA_XSP16, literal(-3)))
        CFI (cfiCond74) DPL0 load(1, XDATA, add(CFA_XSP16, literal(-2)))
        CFI (cfiCond74) DPH0 load(1, XDATA, add(CFA_XSP16, literal(-1)))
        CFI (cfiCond74) CFA_SP SP+0
        CFI (cfiCond74) CFA_XSP16 add(XSP16, 36)
        CFI Block cfiCond75 Using cfiCommon0
        CFI (cfiCond75) NoFunction
        CFI (cfiCond75) Conditional ??CrossCallReturnLabel_79
        CFI (cfiCond75) R6 load(1, XDATA, add(CFA_XSP16, literal(-14)))
        CFI (cfiCond75) VB load(1, XDATA, add(CFA_XSP16, literal(-13)))
        CFI (cfiCond75) V0 load(1, XDATA, add(CFA_XSP16, literal(-12)))
        CFI (cfiCond75) V1 load(1, XDATA, add(CFA_XSP16, literal(-11)))
        CFI (cfiCond75) V2 load(1, XDATA, add(CFA_XSP16, literal(-10)))
        CFI (cfiCond75) V3 load(1, XDATA, add(CFA_XSP16, literal(-9)))
        CFI (cfiCond75) V4 load(1, XDATA, add(CFA_XSP16, literal(-8)))
        CFI (cfiCond75) V5 load(1, XDATA, add(CFA_XSP16, literal(-7)))
        CFI (cfiCond75) R7 load(1, XDATA, add(CFA_XSP16, literal(-6)))
        CFI (cfiCond75) ?RET_LOW load(1, XDATA, add(CFA_XSP16, literal(-5)))
        CFI (cfiCond75) ?RET_HIGH load(1, XDATA, add(CFA_XSP16, literal(-4)))
        CFI (cfiCond75) ?BRET_EXT load(1, XDATA, add(CFA_XSP16, literal(-3)))
        CFI (cfiCond75) DPL0 load(1, XDATA, add(CFA_XSP16, literal(-2)))
        CFI (cfiCond75) DPH0 load(1, XDATA, add(CFA_XSP16, literal(-1)))
        CFI (cfiCond75) CFA_SP SP+0
        CFI (cfiCond75) CFA_XSP16 add(XSP16, 15)
        CFI Block cfiPicker76 Using cfiCommon1
        CFI (cfiPicker76) NoFunction
        CFI (cfiPicker76) Picker
        LCALL   ?Subroutine37 & 0xFFFF
??CrossCallReturnLabel_83:
        MOV     A,R0
        ORL     A,R1
        RET
        CFI EndBlock cfiCond70
        CFI EndBlock cfiCond71
        CFI EndBlock cfiCond72
        CFI EndBlock cfiCond73
        CFI EndBlock cfiCond74
        CFI EndBlock cfiCond75
        CFI EndBlock cfiPicker76
//  423 
//  424 #if defined ( ZIGBEE_SOURCE_ROUTING )
//  425 
//  426 /***************************************************************************************************
//  427  * @fn      MT_AfDataRequestSrcRtg
//  428  *
//  429  * @brief   Process AF Register command
//  430  *
//  431  * @param   pBuf - pointer to the received buffer
//  432  *
//  433  * @return  none
//  434  ***************************************************************************************************/

        RSEG BANKED_CODE:CODE:NOROOT(0)
//  435 void MT_AfDataRequestSrcRtg(uint8 *pBuf)
MT_AfDataRequestSrcRtg:
        CFI Block cfiBlock77 Using cfiCommon0
        CFI Function MT_AfDataRequestSrcRtg
        CODE
//  436 {
        FUNCALL MT_AfDataRequestSrcRtg, osal_memset
        LOCFRAME ISTACK, 0, STACK
        LOCFRAME PSTACK, 0, STACK
        LOCFRAME XSTACK, 36, STACK
        LOCFRAME IOVERLAY, 0, STATIC
        LOCFRAME DOVERLAY, 0, STATIC
        ARGFRAME ISTACK, 0, STACK
        ARGFRAME PSTACK, 0, STACK
        ARGFRAME XSTACK, 36, STACK
        ARGFRAME IOVERLAY, 0, STATIC
        ARGFRAME DOVERLAY, 0, STATIC
        FUNCALL MT_AfDataRequestSrcRtg, afFindEndPointDesc
        LOCFRAME ISTACK, 0, STACK
        LOCFRAME PSTACK, 0, STACK
        LOCFRAME XSTACK, 36, STACK
        LOCFRAME IOVERLAY, 0, STATIC
        LOCFRAME DOVERLAY, 0, STATIC
        ARGFRAME ISTACK, 0, STACK
        ARGFRAME PSTACK, 0, STACK
        ARGFRAME XSTACK, 36, STACK
        ARGFRAME IOVERLAY, 0, STATIC
        ARGFRAME DOVERLAY, 0, STATIC
        FUNCALL MT_AfDataRequestSrcRtg, osal_mem_alloc
        LOCFRAME ISTACK, 0, STACK
        LOCFRAME PSTACK, 0, STACK
        LOCFRAME XSTACK, 36, STACK
        LOCFRAME IOVERLAY, 0, STATIC
        LOCFRAME DOVERLAY, 0, STATIC
        ARGFRAME ISTACK, 0, STACK
        ARGFRAME PSTACK, 0, STACK
        ARGFRAME XSTACK, 36, STACK
        ARGFRAME IOVERLAY, 0, STATIC
        ARGFRAME DOVERLAY, 0, STATIC
        FUNCALL MT_AfDataRequestSrcRtg, AF_DataRequestSrcRtg
        LOCFRAME ISTACK, 0, STACK
        LOCFRAME PSTACK, 0, STACK
        LOCFRAME XSTACK, 48, STACK
        LOCFRAME IOVERLAY, 0, STATIC
        LOCFRAME DOVERLAY, 0, STATIC
        ARGFRAME ISTACK, 0, STACK
        ARGFRAME PSTACK, 0, STACK
        ARGFRAME XSTACK, 48, STACK
        ARGFRAME IOVERLAY, 0, STATIC
        ARGFRAME DOVERLAY, 0, STATIC
        FUNCALL MT_AfDataRequestSrcRtg, osal_mem_free
        LOCFRAME ISTACK, 0, STACK
        LOCFRAME PSTACK, 0, STACK
        LOCFRAME XSTACK, 36, STACK
        LOCFRAME IOVERLAY, 0, STATIC
        LOCFRAME DOVERLAY, 0, STATIC
        ARGFRAME ISTACK, 0, STACK
        ARGFRAME PSTACK, 0, STACK
        ARGFRAME XSTACK, 36, STACK
        ARGFRAME IOVERLAY, 0, STATIC
        ARGFRAME DOVERLAY, 0, STATIC
        FUNCALL MT_AfDataRequestSrcRtg, MT_BuildAndSendZToolResponse
        LOCFRAME ISTACK, 0, STACK
        LOCFRAME PSTACK, 0, STACK
        LOCFRAME XSTACK, 36, STACK
        LOCFRAME IOVERLAY, 0, STATIC
        LOCFRAME DOVERLAY, 0, STATIC
        ARGFRAME ISTACK, 0, STACK
        ARGFRAME PSTACK, 0, STACK
        ARGFRAME XSTACK, 36, STACK
        ARGFRAME IOVERLAY, 0, STATIC
        ARGFRAME DOVERLAY, 0, STATIC
        MOV     A,#-0x16
        LCALL   ?BANKED_ENTER_XDATA
        CFI DPH0 load(1, XDATA, add(CFA_XSP16, literal(-1)))
        CFI DPL0 load(1, XDATA, add(CFA_XSP16, literal(-2)))
        CFI ?BRET_EXT load(1, XDATA, add(CFA_XSP16, literal(-3)))
        CFI ?RET_HIGH load(1, XDATA, add(CFA_XSP16, literal(-4)))
        CFI ?RET_LOW load(1, XDATA, add(CFA_XSP16, literal(-5)))
        CFI R7 load(1, XDATA, add(CFA_XSP16, literal(-6)))
        CFI V13 load(1, XDATA, add(CFA_XSP16, literal(-7)))
        CFI V12 load(1, XDATA, add(CFA_XSP16, literal(-8)))
        CFI V11 load(1, XDATA, add(CFA_XSP16, literal(-9)))
        CFI V10 load(1, XDATA, add(CFA_XSP16, literal(-10)))
        CFI V9 load(1, XDATA, add(CFA_XSP16, literal(-11)))
        CFI V8 load(1, XDATA, add(CFA_XSP16, literal(-12)))
        CFI V7 load(1, XDATA, add(CFA_XSP16, literal(-13)))
        CFI V6 load(1, XDATA, add(CFA_XSP16, literal(-14)))
        CFI V5 load(1, XDATA, add(CFA_XSP16, literal(-15)))
        CFI V4 load(1, XDATA, add(CFA_XSP16, literal(-16)))
        CFI V3 load(1, XDATA, add(CFA_XSP16, literal(-17)))
        CFI V2 load(1, XDATA, add(CFA_XSP16, literal(-18)))
        CFI V1 load(1, XDATA, add(CFA_XSP16, literal(-19)))
        CFI V0 load(1, XDATA, add(CFA_XSP16, literal(-20)))
        CFI VB load(1, XDATA, add(CFA_XSP16, literal(-21)))
        CFI R6 load(1, XDATA, add(CFA_XSP16, literal(-22)))
        CFI CFA_SP SP+0
        CFI CFA_XSP16 add(XSP16, 22)
        ; Saved register size: 22
        ; Auto size: 14
        MOV     A,#-0xe
        LCALL   ?ALLOC_XSTACK8
        CFI CFA_XSP16 add(XSP16, 36)
        MOV     A,R2
        MOV     R6,A
        MOV     A,R3
        MOV     R7,A
//  437   uint8 cmdId, dataLen = 0;
//  438   uint8 retValue = ZFailure;
        MOV     DPL,?XSP + 0
        MOV     DPH,?XSP + 1
        MOV     A,#0x1
        LCALL   ?Subroutine27 & 0xFFFF
//  439   endPointDesc_t *epDesc;
//  440   byte transId;
//  441   afAddrType_t dstAddr;
//  442   cId_t cId;
//  443   byte txOpts, radius, srcEP, relayCnt;
//  444   uint16 *pRelayList;
//  445   uint8 i;
//  446 
//  447   /* parse header */
//  448   cmdId = pBuf[MT_RPC_POS_CMD1];
??CrossCallReturnLabel_35:
        INC     DPTR
        MOVX    A,@DPTR
        MOV     ?V0 + 4,A
//  449   pBuf += MT_RPC_FRAME_HDR_SZ;
        MOV     A,R6
        ADD     A,#0x3
        INC     R6
        INC     R6
        INC     R6
        MOV     A,R7
        ADDC    A,#0x0
        MOV     R7,A
//  450 
//  451   /* Destination address */
//  452   /* Initialize the panID field to zero to avoid inter-pan */
//  453   osal_memset( &dstAddr, 0, sizeof(afAddrType_t) );
        ; Setup parameters for call to function osal_memset
        MOV     R4,#0xc
        MOV     R5,#0x0
        MOV     R1,#0x0
        MOV     A,#0x2
        LCALL   ?XSTACK_DISP0_8
        MOV     R2,DPL
        MOV     R3,DPH
        LCALL   ??osal_memset?relay
//  454   dstAddr.addrMode = afAddr16Bit;
        MOV     A,#0xa
        LCALL   ?XSTACK_DISP0_8
        MOV     A,#0x2
        MOVX    @DPTR,A
//  455   dstAddr.addr.shortAddr = BUILD_UINT16(pBuf[0], pBuf[1]);
        MOV     DPL,R6
        MOV     DPH,R7
        LCALL   ?Subroutine11 & 0xFFFF
??CrossCallReturnLabel_9:
        LCALL   ?XSTACK_DISP0_8
        LCALL   ?Subroutine31 & 0xFFFF
//  456   pBuf += 2;
??CrossCallReturnLabel_48:
        LCALL   ?Subroutine18 & 0xFFFF
//  457 
//  458   /* Destination endpoint */
//  459   dstAddr.endPoint = *pBuf++;
??CrossCallReturnLabel_84:
        PUSH    A
        CFI CFA_SP SP+-1
        MOV     A,#0xb
        LCALL   ?XSTACK_DISP0_8
        POP     A
        CFI CFA_SP SP+0
        LCALL   ?Subroutine27 & 0xFFFF
//  460 
//  461   /* Source endpoint */
//  462   srcEP = *pBuf++;
??CrossCallReturnLabel_36:
        MOVX    A,@DPTR
        MOV     R1,A
        INC     DPTR
        MOV     R6,DPL
        MOV     R7,DPH
//  463   epDesc = afFindEndPointDesc( srcEP );
        ; Setup parameters for call to function afFindEndPointDesc
        LCALL   ??afFindEndPointDesc?relay
        MOV     ?V0 + 2,R2
        MOV     ?V0 + 3,R3
//  464 
//  465   /* ClusterId */
//  466   cId = BUILD_UINT16(pBuf[0], pBuf[1]);
        LCALL   ?Subroutine10 & 0xFFFF
??CrossCallReturnLabel_88:
        MOV     ?V0 + 6,A
        CLR     A
        ADDC    A,R1
        MOV     ?V0 + 7,A
//  467   pBuf +=2;
        LCALL   ?Subroutine18 & 0xFFFF
//  468 
//  469   /* TransId */
//  470   transId = *pBuf++;
??CrossCallReturnLabel_85:
        PUSH    A
        CFI CFA_SP SP+-1
        MOV     A,#0x1
        LCALL   ?XSTACK_DISP0_8
        POP     A
        CFI CFA_SP SP+0
        LCALL   ?Subroutine27 & 0xFFFF
//  471 
//  472   /* TxOption */
//  473   txOpts = *pBuf++;
??CrossCallReturnLabel_37:
        MOVX    A,@DPTR
        MOV     ?V0 + 5,A
        INC     DPTR
//  474 
//  475   /* Radius */
//  476   radius = *pBuf++;
        MOVX    A,@DPTR
        MOV     ?V0 + 10,A
        INC     DPTR
//  477 
//  478   /* Source route relay count */
//  479   relayCnt = *pBuf++;
        MOVX    A,@DPTR
        MOV     ?V0 + 11,A
        INC     DPTR
        MOV     R6,DPL
        MOV     R7,DPH
//  480 
//  481   /* Convert the source route relay list */
//  482   if( (pRelayList = osal_mem_alloc( relayCnt * sizeof( uint16 ))) != NULL )
        ; Setup parameters for call to function osal_mem_alloc
        CLR     C
        RLC     A
        MOV     R2,A
        CLR     A
        RLC     A
        MOV     R3,A
        LCALL   ??osal_mem_alloc?relay
        MOV     ?V0 + 0,R2
        MOV     ?V0 + 1,R3
        MOV     A,R2
        ORL     A,?V0 + 1
        JNZ     $+5
        LJMP    ??MT_AfDataRequestSrcRtg_0 & 0xFFFF
//  483   {
//  484     for( i = 0; i < relayCnt; i++ )
        MOV     R4,#0x0
        SJMP    ??MT_AfDataRequestSrcRtg_1
//  485     {
//  486       pRelayList[i]  = BUILD_UINT16( pBuf[0], pBuf[1] );
??MT_AfDataRequestSrcRtg_2:
        MOV     R2,A
        MOV     DPL,R0
        MOV     DPH,R1
        MOVX    A,@DPTR
        MOV     R1,A
        MOV     A,R2
        ADD     A,#0x0
        CLR     A
        ADDC    A,R1
        MOV     R3,A
        MOV     A,R4
        RLC     A
        MOV     R0,A
        CLR     A
        RLC     A
        MOV     R1,A
        MOV     A,?V0 + 0
        ADD     A,R0
        MOV     DPL,A
        MOV     A,?V0 + 1
        ADDC    A,R1
        MOV     DPH,A
        MOV     A,R2
        MOVX    @DPTR,A
        INC     DPTR
        MOV     A,R3
        MOVX    @DPTR,A
//  487       pBuf += 2;
        MOV     A,R6
        ADD     A,#0x2
        INC     R6
        INC     R6
        MOV     A,R7
        ADDC    A,#0x0
        MOV     R7,A
//  488     }
        INC     R4
??MT_AfDataRequestSrcRtg_1:
        MOV     DPL,R6
        MOV     DPH,R7
        INC     DPTR
        MOV     R0,DPL
        MOV     R1,DPH
        MOV     A,R4
        CLR     C
        SUBB    A,?V0 + 11
        MOV     DPL,R6
        MOV     DPH,R7
        MOVX    A,@DPTR
        JC      ??MT_AfDataRequestSrcRtg_2
//  489 
//  490     /* Data payload Length */
//  491     dataLen = *pBuf++;
        MOV     ?V0 + 12,A
        MOV     A,R0
        MOV     R6,A
        MOV     A,R1
        MOV     R7,A
//  492 
//  493     if ( epDesc == NULL )
        MOV     A,?V0 + 2
        ORL     A,?V0 + 3
        JNZ     ??MT_AfDataRequestSrcRtg_3
//  494     {
//  495       retValue = afStatus_INVALID_PARAMETER;
        MOV     DPL,?XSP + 0
        MOV     DPH,?XSP + 1
        MOV     A,#0x2
        SJMP    ??MT_AfDataRequestSrcRtg_4
//  496     }
//  497     else
//  498     {
//  499       retValue = AF_DataRequestSrcRtg( &dstAddr, epDesc, cId, dataLen, pBuf,
//  500                                      &transId, txOpts, radius, relayCnt, pRelayList );
??MT_AfDataRequestSrcRtg_3:
        ; Setup parameters for call to function AF_DataRequestSrcRtg
        MOV     R0,#?V0 + 0
        LCALL   ?PUSH_XSTACK_I_TWO
        CFI CFA_XSP16 add(XSP16, 38)
        MOV     A,?V0 + 11
        MOV     ?V0 + 8,A
        MOV     R0,#?V0 + 8
        LCALL   ?PUSH_XSTACK_I_ONE
        CFI CFA_XSP16 add(XSP16, 39)
        MOV     A,?V0 + 10
        MOV     ?V0 + 8,A
        MOV     R0,#?V0 + 8
        LCALL   ?PUSH_XSTACK_I_ONE
        CFI CFA_XSP16 add(XSP16, 40)
        MOV     A,#0x5
        LCALL   ?XSTACK_DISP0_8
        MOV     ?V0 + 8,DPL
        MOV     ?V0 + 9,DPH
        MOV     R0,#?V0 + 8
        LCALL   ?PUSH_XSTACK_I_TWO
        CFI CFA_XSP16 add(XSP16, 42)
        MOV     ?V0 + 8,R6
        MOV     ?V0 + 9,R7
        MOV     R0,#?V0 + 8
        LCALL   ?PUSH_XSTACK_I_TWO
        CFI CFA_XSP16 add(XSP16, 44)
        MOV     ?V0 + 13,#0x0
        MOV     R0,#?V0 + 12
        LCALL   ?PUSH_XSTACK_I_TWO
        CFI CFA_XSP16 add(XSP16, 46)
        MOV     R0,#?V0 + 6
        LCALL   ?PUSH_XSTACK_I_TWO
        CFI CFA_XSP16 add(XSP16, 48)
        MOV     R1,?V0 + 5
        MOV     R4,?V0 + 2
        MOV     R5,?V0 + 3
        MOV     A,#0xe
        LCALL   ?XSTACK_DISP0_8
        MOV     R2,DPL
        MOV     R3,DPH
        LCALL   ??AF_DataRequestSrcRtg?relay
        MOV     A,#0xc
        LCALL   ?DEALLOC_XSTACK8
        CFI CFA_XSP16 add(XSP16, 36)
        MOV     A,R1
        MOV     DPL,?XSP + 0
        MOV     DPH,?XSP + 1
??MT_AfDataRequestSrcRtg_4:
        MOVX    @DPTR,A
//  501     }
//  502 
//  503     /* Free the memory allocated */
//  504     osal_mem_free( pRelayList );
        ; Setup parameters for call to function osal_mem_free
        MOV     R2,?V0 + 0
        MOV     R3,?V0 + 1
        LCALL   ??osal_mem_free?relay
        SJMP    ??MT_AfDataRequestSrcRtg_5
//  505   }
//  506   else
//  507   {
//  508     retValue = afStatus_MEM_FAIL;
??MT_AfDataRequestSrcRtg_0:
        MOV     DPL,?XSP + 0
        MOV     DPH,?XSP + 1
        MOV     A,#0x10
        MOVX    @DPTR,A
//  509   }
//  510 
//  511 
//  512   /* Build and send back the response */
//  513   MT_BuildAndSendZToolResponse(((uint8)MT_RPC_CMD_SRSP | (uint8)MT_RPC_SYS_AF), cmdId, 1, &retValue);
??MT_AfDataRequestSrcRtg_5:
        ; Setup parameters for call to function MT_BuildAndSendZToolResponse
        MOV     DPL,?XSP + 0
        MOV     DPH,?XSP + 1
        MOV     R4,DPL
        MOV     R5,DPH
        MOV     R3,#0x1
        MOV     R2,?V0 + 4
        MOV     R1,#0x64
        LCALL   ??MT_BuildAndSendZToolResponse?relay
//  514 }
        LJMP    ?Subroutine2 & 0xFFFF
        CFI EndBlock cfiBlock77

        RSEG BANKED_CODE:CODE:NOROOT(0)
?Subroutine27:
        CFI Block cfiCond78 Using cfiCommon0
        CFI NoFunction
        CFI Conditional ??CrossCallReturnLabel_35
        CFI R6 load(1, XDATA, add(CFA_XSP16, literal(-22)))
        CFI VB load(1, XDATA, add(CFA_XSP16, literal(-21)))
        CFI V0 load(1, XDATA, add(CFA_XSP16, literal(-20)))
        CFI V1 load(1, XDATA, add(CFA_XSP16, literal(-19)))
        CFI V2 load(1, XDATA, add(CFA_XSP16, literal(-18)))
        CFI V3 load(1, XDATA, add(CFA_XSP16, literal(-17)))
        CFI V4 load(1, XDATA, add(CFA_XSP16, literal(-16)))
        CFI V5 load(1, XDATA, add(CFA_XSP16, literal(-15)))
        CFI V6 load(1, XDATA, add(CFA_XSP16, literal(-14)))
        CFI V7 load(1, XDATA, add(CFA_XSP16, literal(-13)))
        CFI V8 load(1, XDATA, add(CFA_XSP16, literal(-12)))
        CFI V9 load(1, XDATA, add(CFA_XSP16, literal(-11)))
        CFI V10 load(1, XDATA, add(CFA_XSP16, literal(-10)))
        CFI V11 load(1, XDATA, add(CFA_XSP16, literal(-9)))
        CFI V12 load(1, XDATA, add(CFA_XSP16, literal(-8)))
        CFI V13 load(1, XDATA, add(CFA_XSP16, literal(-7)))
        CFI R7 load(1, XDATA, add(CFA_XSP16, literal(-6)))
        CFI ?RET_LOW load(1, XDATA, add(CFA_XSP16, literal(-5)))
        CFI ?RET_HIGH load(1, XDATA, add(CFA_XSP16, literal(-4)))
        CFI ?BRET_EXT load(1, XDATA, add(CFA_XSP16, literal(-3)))
        CFI DPL0 load(1, XDATA, add(CFA_XSP16, literal(-2)))
        CFI DPH0 load(1, XDATA, add(CFA_XSP16, literal(-1)))
        CFI CFA_SP SP+0
        CFI CFA_XSP16 add(XSP16, 36)
        CFI Block cfiCond79 Using cfiCommon0
        CFI (cfiCond79) NoFunction
        CFI (cfiCond79) Conditional ??CrossCallReturnLabel_36
        CFI (cfiCond79) R6 load(1, XDATA, add(CFA_XSP16, literal(-22)))
        CFI (cfiCond79) VB load(1, XDATA, add(CFA_XSP16, literal(-21)))
        CFI (cfiCond79) V0 load(1, XDATA, add(CFA_XSP16, literal(-20)))
        CFI (cfiCond79) V1 load(1, XDATA, add(CFA_XSP16, literal(-19)))
        CFI (cfiCond79) V2 load(1, XDATA, add(CFA_XSP16, literal(-18)))
        CFI (cfiCond79) V3 load(1, XDATA, add(CFA_XSP16, literal(-17)))
        CFI (cfiCond79) V4 load(1, XDATA, add(CFA_XSP16, literal(-16)))
        CFI (cfiCond79) V5 load(1, XDATA, add(CFA_XSP16, literal(-15)))
        CFI (cfiCond79) V6 load(1, XDATA, add(CFA_XSP16, literal(-14)))
        CFI (cfiCond79) V7 load(1, XDATA, add(CFA_XSP16, literal(-13)))
        CFI (cfiCond79) V8 load(1, XDATA, add(CFA_XSP16, literal(-12)))
        CFI (cfiCond79) V9 load(1, XDATA, add(CFA_XSP16, literal(-11)))
        CFI (cfiCond79) V10 load(1, XDATA, add(CFA_XSP16, literal(-10)))
        CFI (cfiCond79) V11 load(1, XDATA, add(CFA_XSP16, literal(-9)))
        CFI (cfiCond79) V12 load(1, XDATA, add(CFA_XSP16, literal(-8)))
        CFI (cfiCond79) V13 load(1, XDATA, add(CFA_XSP16, literal(-7)))
        CFI (cfiCond79) R7 load(1, XDATA, add(CFA_XSP16, literal(-6)))
        CFI (cfiCond79) ?RET_LOW load(1, XDATA, add(CFA_XSP16, literal(-5)))
        CFI (cfiCond79) ?RET_HIGH load(1, XDATA, add(CFA_XSP16, literal(-4)))
        CFI (cfiCond79) ?BRET_EXT load(1, XDATA, add(CFA_XSP16, literal(-3)))
        CFI (cfiCond79) DPL0 load(1, XDATA, add(CFA_XSP16, literal(-2)))
        CFI (cfiCond79) DPH0 load(1, XDATA, add(CFA_XSP16, literal(-1)))
        CFI (cfiCond79) CFA_SP SP+0
        CFI (cfiCond79) CFA_XSP16 add(XSP16, 36)
        CFI Block cfiCond80 Using cfiCommon0
        CFI (cfiCond80) NoFunction
        CFI (cfiCond80) Conditional ??CrossCallReturnLabel_37
        CFI (cfiCond80) R6 load(1, XDATA, add(CFA_XSP16, literal(-22)))
        CFI (cfiCond80) VB load(1, XDATA, add(CFA_XSP16, literal(-21)))
        CFI (cfiCond80) V0 load(1, XDATA, add(CFA_XSP16, literal(-20)))
        CFI (cfiCond80) V1 load(1, XDATA, add(CFA_XSP16, literal(-19)))
        CFI (cfiCond80) V2 load(1, XDATA, add(CFA_XSP16, literal(-18)))
        CFI (cfiCond80) V3 load(1, XDATA, add(CFA_XSP16, literal(-17)))
        CFI (cfiCond80) V4 load(1, XDATA, add(CFA_XSP16, literal(-16)))
        CFI (cfiCond80) V5 load(1, XDATA, add(CFA_XSP16, literal(-15)))
        CFI (cfiCond80) V6 load(1, XDATA, add(CFA_XSP16, literal(-14)))
        CFI (cfiCond80) V7 load(1, XDATA, add(CFA_XSP16, literal(-13)))
        CFI (cfiCond80) V8 load(1, XDATA, add(CFA_XSP16, literal(-12)))
        CFI (cfiCond80) V9 load(1, XDATA, add(CFA_XSP16, literal(-11)))
        CFI (cfiCond80) V10 load(1, XDATA, add(CFA_XSP16, literal(-10)))
        CFI (cfiCond80) V11 load(1, XDATA, add(CFA_XSP16, literal(-9)))
        CFI (cfiCond80) V12 load(1, XDATA, add(CFA_XSP16, literal(-8)))
        CFI (cfiCond80) V13 load(1, XDATA, add(CFA_XSP16, literal(-7)))
        CFI (cfiCond80) R7 load(1, XDATA, add(CFA_XSP16, literal(-6)))
        CFI (cfiCond80) ?RET_LOW load(1, XDATA, add(CFA_XSP16, literal(-5)))
        CFI (cfiCond80) ?RET_HIGH load(1, XDATA, add(CFA_XSP16, literal(-4)))
        CFI (cfiCond80) ?BRET_EXT load(1, XDATA, add(CFA_XSP16, literal(-3)))
        CFI (cfiCond80) DPL0 load(1, XDATA, add(CFA_XSP16, literal(-2)))
        CFI (cfiCond80) DPH0 load(1, XDATA, add(CFA_XSP16, literal(-1)))
        CFI (cfiCond80) CFA_SP SP+0
        CFI (cfiCond80) CFA_XSP16 add(XSP16, 36)
        CFI Block cfiPicker81 Using cfiCommon1
        CFI (cfiPicker81) NoFunction
        CFI (cfiPicker81) Picker
        MOVX    @DPTR,A
        MOV     DPL,R6
        MOV     DPH,R7
        INC     DPTR
        RET
        CFI EndBlock cfiCond78
        CFI EndBlock cfiCond79
        CFI EndBlock cfiCond80
        CFI EndBlock cfiPicker81

        RSEG BANKED_CODE:CODE:NOROOT(0)
?Subroutine18:
        CFI Block cfiCond82 Using cfiCommon0
        CFI NoFunction
        CFI Conditional ??CrossCallReturnLabel_84
        CFI R6 load(1, XDATA, add(CFA_XSP16, literal(-22)))
        CFI VB load(1, XDATA, add(CFA_XSP16, literal(-21)))
        CFI V0 load(1, XDATA, add(CFA_XSP16, literal(-20)))
        CFI V1 load(1, XDATA, add(CFA_XSP16, literal(-19)))
        CFI V2 load(1, XDATA, add(CFA_XSP16, literal(-18)))
        CFI V3 load(1, XDATA, add(CFA_XSP16, literal(-17)))
        CFI V4 load(1, XDATA, add(CFA_XSP16, literal(-16)))
        CFI V5 load(1, XDATA, add(CFA_XSP16, literal(-15)))
        CFI V6 load(1, XDATA, add(CFA_XSP16, literal(-14)))
        CFI V7 load(1, XDATA, add(CFA_XSP16, literal(-13)))
        CFI V8 load(1, XDATA, add(CFA_XSP16, literal(-12)))
        CFI V9 load(1, XDATA, add(CFA_XSP16, literal(-11)))
        CFI V10 load(1, XDATA, add(CFA_XSP16, literal(-10)))
        CFI V11 load(1, XDATA, add(CFA_XSP16, literal(-9)))
        CFI V12 load(1, XDATA, add(CFA_XSP16, literal(-8)))
        CFI V13 load(1, XDATA, add(CFA_XSP16, literal(-7)))
        CFI R7 load(1, XDATA, add(CFA_XSP16, literal(-6)))
        CFI ?RET_LOW load(1, XDATA, add(CFA_XSP16, literal(-5)))
        CFI ?RET_HIGH load(1, XDATA, add(CFA_XSP16, literal(-4)))
        CFI ?BRET_EXT load(1, XDATA, add(CFA_XSP16, literal(-3)))
        CFI DPL0 load(1, XDATA, add(CFA_XSP16, literal(-2)))
        CFI DPH0 load(1, XDATA, add(CFA_XSP16, literal(-1)))
        CFI CFA_SP SP+0
        CFI CFA_XSP16 add(XSP16, 36)
        CFI Block cfiCond83 Using cfiCommon0
        CFI (cfiCond83) NoFunction
        CFI (cfiCond83) Conditional ??CrossCallReturnLabel_85
        CFI (cfiCond83) R6 load(1, XDATA, add(CFA_XSP16, literal(-22)))
        CFI (cfiCond83) VB load(1, XDATA, add(CFA_XSP16, literal(-21)))
        CFI (cfiCond83) V0 load(1, XDATA, add(CFA_XSP16, literal(-20)))
        CFI (cfiCond83) V1 load(1, XDATA, add(CFA_XSP16, literal(-19)))
        CFI (cfiCond83) V2 load(1, XDATA, add(CFA_XSP16, literal(-18)))
        CFI (cfiCond83) V3 load(1, XDATA, add(CFA_XSP16, literal(-17)))
        CFI (cfiCond83) V4 load(1, XDATA, add(CFA_XSP16, literal(-16)))
        CFI (cfiCond83) V5 load(1, XDATA, add(CFA_XSP16, literal(-15)))
        CFI (cfiCond83) V6 load(1, XDATA, add(CFA_XSP16, literal(-14)))
        CFI (cfiCond83) V7 load(1, XDATA, add(CFA_XSP16, literal(-13)))
        CFI (cfiCond83) V8 load(1, XDATA, add(CFA_XSP16, literal(-12)))
        CFI (cfiCond83) V9 load(1, XDATA, add(CFA_XSP16, literal(-11)))
        CFI (cfiCond83) V10 load(1, XDATA, add(CFA_XSP16, literal(-10)))
        CFI (cfiCond83) V11 load(1, XDATA, add(CFA_XSP16, literal(-9)))
        CFI (cfiCond83) V12 load(1, XDATA, add(CFA_XSP16, literal(-8)))
        CFI (cfiCond83) V13 load(1, XDATA, add(CFA_XSP16, literal(-7)))
        CFI (cfiCond83) R7 load(1, XDATA, add(CFA_XSP16, literal(-6)))
        CFI (cfiCond83) ?RET_LOW load(1, XDATA, add(CFA_XSP16, literal(-5)))
        CFI (cfiCond83) ?RET_HIGH load(1, XDATA, add(CFA_XSP16, literal(-4)))
        CFI (cfiCond83) ?BRET_EXT load(1, XDATA, add(CFA_XSP16, literal(-3)))
        CFI (cfiCond83) DPL0 load(1, XDATA, add(CFA_XSP16, literal(-2)))
        CFI (cfiCond83) DPH0 load(1, XDATA, add(CFA_XSP16, literal(-1)))
        CFI (cfiCond83) CFA_SP SP+0
        CFI (cfiCond83) CFA_XSP16 add(XSP16, 36)
        CFI Block cfiPicker84 Using cfiCommon1
        CFI (cfiPicker84) NoFunction
        CFI (cfiPicker84) Picker
        MOV     A,R6
        ADD     A,#0x2
        CFI EndBlock cfiCond82
        CFI EndBlock cfiCond83
        CFI EndBlock cfiPicker84
        REQUIRE ??Subroutine50_0
        ; // Fall through to label ??Subroutine50_0

        RSEG BANKED_CODE:CODE:NOROOT(0)
??Subroutine50_0:
        CFI Block cfiCond85 Using cfiCommon0
        CFI NoFunction
        CFI Conditional ??CrossCallReturnLabel_86
        CFI R6 load(1, XDATA, add(CFA_XSP16, literal(-20)))
        CFI VB load(1, XDATA, add(CFA_XSP16, literal(-19)))
        CFI V0 load(1, XDATA, add(CFA_XSP16, literal(-18)))
        CFI V1 load(1, XDATA, add(CFA_XSP16, literal(-17)))
        CFI V2 load(1, XDATA, add(CFA_XSP16, literal(-16)))
        CFI V3 load(1, XDATA, add(CFA_XSP16, literal(-15)))
        CFI V4 load(1, XDATA, add(CFA_XSP16, literal(-14)))
        CFI V5 load(1, XDATA, add(CFA_XSP16, literal(-13)))
        CFI V6 load(1, XDATA, add(CFA_XSP16, literal(-12)))
        CFI V7 load(1, XDATA, add(CFA_XSP16, literal(-11)))
        CFI V8 load(1, XDATA, add(CFA_XSP16, literal(-10)))
        CFI V9 load(1, XDATA, add(CFA_XSP16, literal(-9)))
        CFI V10 load(1, XDATA, add(CFA_XSP16, literal(-8)))
        CFI V11 load(1, XDATA, add(CFA_XSP16, literal(-7)))
        CFI R7 load(1, XDATA, add(CFA_XSP16, literal(-6)))
        CFI ?RET_LOW load(1, XDATA, add(CFA_XSP16, literal(-5)))
        CFI ?RET_HIGH load(1, XDATA, add(CFA_XSP16, literal(-4)))
        CFI ?BRET_EXT load(1, XDATA, add(CFA_XSP16, literal(-3)))
        CFI DPL0 load(1, XDATA, add(CFA_XSP16, literal(-2)))
        CFI DPH0 load(1, XDATA, add(CFA_XSP16, literal(-1)))
        CFI CFA_SP SP+0
        CFI CFA_XSP16 add(XSP16, 20)
        CFI Block cfiCond86 Using cfiCommon0
        CFI (cfiCond86) NoFunction
        CFI (cfiCond86) Conditional ??CrossCallReturnLabel_84
        CFI (cfiCond86) R6 load(1, XDATA, add(CFA_XSP16, literal(-22)))
        CFI (cfiCond86) VB load(1, XDATA, add(CFA_XSP16, literal(-21)))
        CFI (cfiCond86) V0 load(1, XDATA, add(CFA_XSP16, literal(-20)))
        CFI (cfiCond86) V1 load(1, XDATA, add(CFA_XSP16, literal(-19)))
        CFI (cfiCond86) V2 load(1, XDATA, add(CFA_XSP16, literal(-18)))
        CFI (cfiCond86) V3 load(1, XDATA, add(CFA_XSP16, literal(-17)))
        CFI (cfiCond86) V4 load(1, XDATA, add(CFA_XSP16, literal(-16)))
        CFI (cfiCond86) V5 load(1, XDATA, add(CFA_XSP16, literal(-15)))
        CFI (cfiCond86) V6 load(1, XDATA, add(CFA_XSP16, literal(-14)))
        CFI (cfiCond86) V7 load(1, XDATA, add(CFA_XSP16, literal(-13)))
        CFI (cfiCond86) V8 load(1, XDATA, add(CFA_XSP16, literal(-12)))
        CFI (cfiCond86) V9 load(1, XDATA, add(CFA_XSP16, literal(-11)))
        CFI (cfiCond86) V10 load(1, XDATA, add(CFA_XSP16, literal(-10)))
        CFI (cfiCond86) V11 load(1, XDATA, add(CFA_XSP16, literal(-9)))
        CFI (cfiCond86) V12 load(1, XDATA, add(CFA_XSP16, literal(-8)))
        CFI (cfiCond86) V13 load(1, XDATA, add(CFA_XSP16, literal(-7)))
        CFI (cfiCond86) R7 load(1, XDATA, add(CFA_XSP16, literal(-6)))
        CFI (cfiCond86) ?RET_LOW load(1, XDATA, add(CFA_XSP16, literal(-5)))
        CFI (cfiCond86) ?RET_HIGH load(1, XDATA, add(CFA_XSP16, literal(-4)))
        CFI (cfiCond86) ?BRET_EXT load(1, XDATA, add(CFA_XSP16, literal(-3)))
        CFI (cfiCond86) DPL0 load(1, XDATA, add(CFA_XSP16, literal(-2)))
        CFI (cfiCond86) DPH0 load(1, XDATA, add(CFA_XSP16, literal(-1)))
        CFI (cfiCond86) CFA_SP SP+0
        CFI (cfiCond86) CFA_XSP16 add(XSP16, 36)
        CFI Block cfiCond87 Using cfiCommon0
        CFI (cfiCond87) NoFunction
        CFI (cfiCond87) Conditional ??CrossCallReturnLabel_85
        CFI (cfiCond87) R6 load(1, XDATA, add(CFA_XSP16, literal(-22)))
        CFI (cfiCond87) VB load(1, XDATA, add(CFA_XSP16, literal(-21)))
        CFI (cfiCond87) V0 load(1, XDATA, add(CFA_XSP16, literal(-20)))
        CFI (cfiCond87) V1 load(1, XDATA, add(CFA_XSP16, literal(-19)))
        CFI (cfiCond87) V2 load(1, XDATA, add(CFA_XSP16, literal(-18)))
        CFI (cfiCond87) V3 load(1, XDATA, add(CFA_XSP16, literal(-17)))
        CFI (cfiCond87) V4 load(1, XDATA, add(CFA_XSP16, literal(-16)))
        CFI (cfiCond87) V5 load(1, XDATA, add(CFA_XSP16, literal(-15)))
        CFI (cfiCond87) V6 load(1, XDATA, add(CFA_XSP16, literal(-14)))
        CFI (cfiCond87) V7 load(1, XDATA, add(CFA_XSP16, literal(-13)))
        CFI (cfiCond87) V8 load(1, XDATA, add(CFA_XSP16, literal(-12)))
        CFI (cfiCond87) V9 load(1, XDATA, add(CFA_XSP16, literal(-11)))
        CFI (cfiCond87) V10 load(1, XDATA, add(CFA_XSP16, literal(-10)))
        CFI (cfiCond87) V11 load(1, XDATA, add(CFA_XSP16, literal(-9)))
        CFI (cfiCond87) V12 load(1, XDATA, add(CFA_XSP16, literal(-8)))
        CFI (cfiCond87) V13 load(1, XDATA, add(CFA_XSP16, literal(-7)))
        CFI (cfiCond87) R7 load(1, XDATA, add(CFA_XSP16, literal(-6)))
        CFI (cfiCond87) ?RET_LOW load(1, XDATA, add(CFA_XSP16, literal(-5)))
        CFI (cfiCond87) ?RET_HIGH load(1, XDATA, add(CFA_XSP16, literal(-4)))
        CFI (cfiCond87) ?BRET_EXT load(1, XDATA, add(CFA_XSP16, literal(-3)))
        CFI (cfiCond87) DPL0 load(1, XDATA, add(CFA_XSP16, literal(-2)))
        CFI (cfiCond87) DPH0 load(1, XDATA, add(CFA_XSP16, literal(-1)))
        CFI (cfiCond87) CFA_SP SP+0
        CFI (cfiCond87) CFA_XSP16 add(XSP16, 36)
        CFI Block cfiPicker88 Using cfiCommon1
        CFI (cfiPicker88) NoFunction
        CFI (cfiPicker88) Picker
        INC     R6
        INC     R6
        MOV     A,R7
        ADDC    A,#0x0
        MOV     R7,A
        MOV     DPL,R6
        MOV     DPH,R7
        MOVX    A,@DPTR
        RET
        CFI EndBlock cfiCond85
        CFI EndBlock cfiCond86
        CFI EndBlock cfiCond87
        CFI EndBlock cfiPicker88

        RSEG BANKED_CODE:CODE:NOROOT(0)
?Subroutine11:
        CFI Block cfiCond89 Using cfiCommon0
        CFI NoFunction
        CFI Conditional ??CrossCallReturnLabel_8
        CFI R6 load(1, XDATA, add(CFA_XSP16, literal(-22)))
        CFI VB load(1, XDATA, add(CFA_XSP16, literal(-21)))
        CFI V0 load(1, XDATA, add(CFA_XSP16, literal(-20)))
        CFI V1 load(1, XDATA, add(CFA_XSP16, literal(-19)))
        CFI V2 load(1, XDATA, add(CFA_XSP16, literal(-18)))
        CFI V3 load(1, XDATA, add(CFA_XSP16, literal(-17)))
        CFI V4 load(1, XDATA, add(CFA_XSP16, literal(-16)))
        CFI V5 load(1, XDATA, add(CFA_XSP16, literal(-15)))
        CFI V6 load(1, XDATA, add(CFA_XSP16, literal(-14)))
        CFI V7 load(1, XDATA, add(CFA_XSP16, literal(-13)))
        CFI V8 load(1, XDATA, add(CFA_XSP16, literal(-12)))
        CFI V9 load(1, XDATA, add(CFA_XSP16, literal(-11)))
        CFI V10 load(1, XDATA, add(CFA_XSP16, literal(-10)))
        CFI V11 load(1, XDATA, add(CFA_XSP16, literal(-9)))
        CFI V12 load(1, XDATA, add(CFA_XSP16, literal(-8)))
        CFI V13 load(1, XDATA, add(CFA_XSP16, literal(-7)))
        CFI R7 load(1, XDATA, add(CFA_XSP16, literal(-6)))
        CFI ?RET_LOW load(1, XDATA, add(CFA_XSP16, literal(-5)))
        CFI ?RET_HIGH load(1, XDATA, add(CFA_XSP16, literal(-4)))
        CFI ?BRET_EXT load(1, XDATA, add(CFA_XSP16, literal(-3)))
        CFI DPL0 load(1, XDATA, add(CFA_XSP16, literal(-2)))
        CFI DPH0 load(1, XDATA, add(CFA_XSP16, literal(-1)))
        CFI CFA_SP SP+0
        CFI CFA_XSP16 add(XSP16, 36)
        CFI Block cfiCond90 Using cfiCommon0
        CFI (cfiCond90) NoFunction
        CFI (cfiCond90) Conditional ??CrossCallReturnLabel_9
        CFI (cfiCond90) R6 load(1, XDATA, add(CFA_XSP16, literal(-22)))
        CFI (cfiCond90) VB load(1, XDATA, add(CFA_XSP16, literal(-21)))
        CFI (cfiCond90) V0 load(1, XDATA, add(CFA_XSP16, literal(-20)))
        CFI (cfiCond90) V1 load(1, XDATA, add(CFA_XSP16, literal(-19)))
        CFI (cfiCond90) V2 load(1, XDATA, add(CFA_XSP16, literal(-18)))
        CFI (cfiCond90) V3 load(1, XDATA, add(CFA_XSP16, literal(-17)))
        CFI (cfiCond90) V4 load(1, XDATA, add(CFA_XSP16, literal(-16)))
        CFI (cfiCond90) V5 load(1, XDATA, add(CFA_XSP16, literal(-15)))
        CFI (cfiCond90) V6 load(1, XDATA, add(CFA_XSP16, literal(-14)))
        CFI (cfiCond90) V7 load(1, XDATA, add(CFA_XSP16, literal(-13)))
        CFI (cfiCond90) V8 load(1, XDATA, add(CFA_XSP16, literal(-12)))
        CFI (cfiCond90) V9 load(1, XDATA, add(CFA_XSP16, literal(-11)))
        CFI (cfiCond90) V10 load(1, XDATA, add(CFA_XSP16, literal(-10)))
        CFI (cfiCond90) V11 load(1, XDATA, add(CFA_XSP16, literal(-9)))
        CFI (cfiCond90) V12 load(1, XDATA, add(CFA_XSP16, literal(-8)))
        CFI (cfiCond90) V13 load(1, XDATA, add(CFA_XSP16, literal(-7)))
        CFI (cfiCond90) R7 load(1, XDATA, add(CFA_XSP16, literal(-6)))
        CFI (cfiCond90) ?RET_LOW load(1, XDATA, add(CFA_XSP16, literal(-5)))
        CFI (cfiCond90) ?RET_HIGH load(1, XDATA, add(CFA_XSP16, literal(-4)))
        CFI (cfiCond90) ?BRET_EXT load(1, XDATA, add(CFA_XSP16, literal(-3)))
        CFI (cfiCond90) DPL0 load(1, XDATA, add(CFA_XSP16, literal(-2)))
        CFI (cfiCond90) DPH0 load(1, XDATA, add(CFA_XSP16, literal(-1)))
        CFI (cfiCond90) CFA_SP SP+0
        CFI (cfiCond90) CFA_XSP16 add(XSP16, 36)
        CFI Block cfiPicker91 Using cfiCommon1
        CFI (cfiPicker91) NoFunction
        CFI (cfiPicker91) Picker
        LCALL   ?Subroutine36 & 0xFFFF
??CrossCallReturnLabel_91:
        MOV     R0,A
        MOV     A,#0x2
        RET
        CFI EndBlock cfiCond89
        CFI EndBlock cfiCond90
        CFI EndBlock cfiPicker91

        RSEG BANKED_CODE:CODE:NOROOT(0)
?Subroutine36:
        CFI Block cfiCond92 Using cfiCommon0
        CFI NoFunction
        CFI Conditional ??CrossCallReturnLabel_90
        CFI R6 load(1, XDATA, add(CFA_XSP16, literal(-22)))
        CFI VB load(1, XDATA, add(CFA_XSP16, literal(-21)))
        CFI V0 load(1, XDATA, add(CFA_XSP16, literal(-20)))
        CFI V1 load(1, XDATA, add(CFA_XSP16, literal(-19)))
        CFI V2 load(1, XDATA, add(CFA_XSP16, literal(-18)))
        CFI V3 load(1, XDATA, add(CFA_XSP16, literal(-17)))
        CFI V4 load(1, XDATA, add(CFA_XSP16, literal(-16)))
        CFI V5 load(1, XDATA, add(CFA_XSP16, literal(-15)))
        CFI V6 load(1, XDATA, add(CFA_XSP16, literal(-14)))
        CFI V7 load(1, XDATA, add(CFA_XSP16, literal(-13)))
        CFI V8 load(1, XDATA, add(CFA_XSP16, literal(-12)))
        CFI V9 load(1, XDATA, add(CFA_XSP16, literal(-11)))
        CFI V10 load(1, XDATA, add(CFA_XSP16, literal(-10)))
        CFI V11 load(1, XDATA, add(CFA_XSP16, literal(-9)))
        CFI V12 load(1, XDATA, add(CFA_XSP16, literal(-8)))
        CFI V13 load(1, XDATA, add(CFA_XSP16, literal(-7)))
        CFI R7 load(1, XDATA, add(CFA_XSP16, literal(-6)))
        CFI ?RET_LOW load(1, XDATA, add(CFA_XSP16, literal(-5)))
        CFI ?RET_HIGH load(1, XDATA, add(CFA_XSP16, literal(-4)))
        CFI ?BRET_EXT load(1, XDATA, add(CFA_XSP16, literal(-3)))
        CFI DPL0 load(1, XDATA, add(CFA_XSP16, literal(-2)))
        CFI DPH0 load(1, XDATA, add(CFA_XSP16, literal(-1)))
        CFI CFA_SP SP+0
        CFI CFA_XSP16 add(XSP16, 36)
        CFI Block cfiCond93 Using cfiCommon0
        CFI (cfiCond93) NoFunction
        CFI (cfiCond93) Conditional ??CrossCallReturnLabel_91, ??CrossCallReturnLabel_8
        CFI (cfiCond93) R6 load(1, XDATA, add(CFA_XSP16, literal(-22)))
        CFI (cfiCond93) VB load(1, XDATA, add(CFA_XSP16, literal(-21)))
        CFI (cfiCond93) V0 load(1, XDATA, add(CFA_XSP16, literal(-20)))
        CFI (cfiCond93) V1 load(1, XDATA, add(CFA_XSP16, literal(-19)))
        CFI (cfiCond93) V2 load(1, XDATA, add(CFA_XSP16, literal(-18)))
        CFI (cfiCond93) V3 load(1, XDATA, add(CFA_XSP16, literal(-17)))
        CFI (cfiCond93) V4 load(1, XDATA, add(CFA_XSP16, literal(-16)))
        CFI (cfiCond93) V5 load(1, XDATA, add(CFA_XSP16, literal(-15)))
        CFI (cfiCond93) V6 load(1, XDATA, add(CFA_XSP16, literal(-14)))
        CFI (cfiCond93) V7 load(1, XDATA, add(CFA_XSP16, literal(-13)))
        CFI (cfiCond93) V8 load(1, XDATA, add(CFA_XSP16, literal(-12)))
        CFI (cfiCond93) V9 load(1, XDATA, add(CFA_XSP16, literal(-11)))
        CFI (cfiCond93) V10 load(1, XDATA, add(CFA_XSP16, literal(-10)))
        CFI (cfiCond93) V11 load(1, XDATA, add(CFA_XSP16, literal(-9)))
        CFI (cfiCond93) V12 load(1, XDATA, add(CFA_XSP16, literal(-8)))
        CFI (cfiCond93) V13 load(1, XDATA, add(CFA_XSP16, literal(-7)))
        CFI (cfiCond93) R7 load(1, XDATA, add(CFA_XSP16, literal(-6)))
        CFI (cfiCond93) ?RET_LOW load(1, XDATA, add(CFA_XSP16, literal(-5)))
        CFI (cfiCond93) ?RET_HIGH load(1, XDATA, add(CFA_XSP16, literal(-4)))
        CFI (cfiCond93) ?BRET_EXT load(1, XDATA, add(CFA_XSP16, literal(-3)))
        CFI (cfiCond93) DPL0 load(1, XDATA, add(CFA_XSP16, literal(-2)))
        CFI (cfiCond93) DPH0 load(1, XDATA, add(CFA_XSP16, literal(-1)))
        CFI (cfiCond93) CFA_SP SP+0
        CFI (cfiCond93) CFA_XSP16 add(XSP16, 36)
        CFI Block cfiCond94 Using cfiCommon0
        CFI (cfiCond94) NoFunction
        CFI (cfiCond94) Conditional ??CrossCallReturnLabel_91, ??CrossCallReturnLabel_9
        CFI (cfiCond94) R6 load(1, XDATA, add(CFA_XSP16, literal(-22)))
        CFI (cfiCond94) VB load(1, XDATA, add(CFA_XSP16, literal(-21)))
        CFI (cfiCond94) V0 load(1, XDATA, add(CFA_XSP16, literal(-20)))
        CFI (cfiCond94) V1 load(1, XDATA, add(CFA_XSP16, literal(-19)))
        CFI (cfiCond94) V2 load(1, XDATA, add(CFA_XSP16, literal(-18)))
        CFI (cfiCond94) V3 load(1, XDATA, add(CFA_XSP16, literal(-17)))
        CFI (cfiCond94) V4 load(1, XDATA, add(CFA_XSP16, literal(-16)))
        CFI (cfiCond94) V5 load(1, XDATA, add(CFA_XSP16, literal(-15)))
        CFI (cfiCond94) V6 load(1, XDATA, add(CFA_XSP16, literal(-14)))
        CFI (cfiCond94) V7 load(1, XDATA, add(CFA_XSP16, literal(-13)))
        CFI (cfiCond94) V8 load(1, XDATA, add(CFA_XSP16, literal(-12)))
        CFI (cfiCond94) V9 load(1, XDATA, add(CFA_XSP16, literal(-11)))
        CFI (cfiCond94) V10 load(1, XDATA, add(CFA_XSP16, literal(-10)))
        CFI (cfiCond94) V11 load(1, XDATA, add(CFA_XSP16, literal(-9)))
        CFI (cfiCond94) V12 load(1, XDATA, add(CFA_XSP16, literal(-8)))
        CFI (cfiCond94) V13 load(1, XDATA, add(CFA_XSP16, literal(-7)))
        CFI (cfiCond94) R7 load(1, XDATA, add(CFA_XSP16, literal(-6)))
        CFI (cfiCond94) ?RET_LOW load(1, XDATA, add(CFA_XSP16, literal(-5)))
        CFI (cfiCond94) ?RET_HIGH load(1, XDATA, add(CFA_XSP16, literal(-4)))
        CFI (cfiCond94) ?BRET_EXT load(1, XDATA, add(CFA_XSP16, literal(-3)))
        CFI (cfiCond94) DPL0 load(1, XDATA, add(CFA_XSP16, literal(-2)))
        CFI (cfiCond94) DPH0 load(1, XDATA, add(CFA_XSP16, literal(-1)))
        CFI (cfiCond94) CFA_SP SP+0
        CFI (cfiCond94) CFA_XSP16 add(XSP16, 36)
        CFI Block cfiCond95 Using cfiCommon0
        CFI (cfiCond95) NoFunction
        CFI (cfiCond95) Conditional ??CrossCallReturnLabel_92, ??CrossCallReturnLabel_88
        CFI (cfiCond95) R6 load(1, XDATA, add(CFA_XSP16, literal(-22)))
        CFI (cfiCond95) VB load(1, XDATA, add(CFA_XSP16, literal(-21)))
        CFI (cfiCond95) V0 load(1, XDATA, add(CFA_XSP16, literal(-20)))
        CFI (cfiCond95) V1 load(1, XDATA, add(CFA_XSP16, literal(-19)))
        CFI (cfiCond95) V2 load(1, XDATA, add(CFA_XSP16, literal(-18)))
        CFI (cfiCond95) V3 load(1, XDATA, add(CFA_XSP16, literal(-17)))
        CFI (cfiCond95) V4 load(1, XDATA, add(CFA_XSP16, literal(-16)))
        CFI (cfiCond95) V5 load(1, XDATA, add(CFA_XSP16, literal(-15)))
        CFI (cfiCond95) V6 load(1, XDATA, add(CFA_XSP16, literal(-14)))
        CFI (cfiCond95) V7 load(1, XDATA, add(CFA_XSP16, literal(-13)))
        CFI (cfiCond95) V8 load(1, XDATA, add(CFA_XSP16, literal(-12)))
        CFI (cfiCond95) V9 load(1, XDATA, add(CFA_XSP16, literal(-11)))
        CFI (cfiCond95) V10 load(1, XDATA, add(CFA_XSP16, literal(-10)))
        CFI (cfiCond95) V11 load(1, XDATA, add(CFA_XSP16, literal(-9)))
        CFI (cfiCond95) V12 load(1, XDATA, add(CFA_XSP16, literal(-8)))
        CFI (cfiCond95) V13 load(1, XDATA, add(CFA_XSP16, literal(-7)))
        CFI (cfiCond95) R7 load(1, XDATA, add(CFA_XSP16, literal(-6)))
        CFI (cfiCond95) ?RET_LOW load(1, XDATA, add(CFA_XSP16, literal(-5)))
        CFI (cfiCond95) ?RET_HIGH load(1, XDATA, add(CFA_XSP16, literal(-4)))
        CFI (cfiCond95) ?BRET_EXT load(1, XDATA, add(CFA_XSP16, literal(-3)))
        CFI (cfiCond95) DPL0 load(1, XDATA, add(CFA_XSP16, literal(-2)))
        CFI (cfiCond95) DPH0 load(1, XDATA, add(CFA_XSP16, literal(-1)))
        CFI (cfiCond95) CFA_SP SP+0
        CFI (cfiCond95) CFA_XSP16 add(XSP16, 36)
        CFI Block cfiCond96 Using cfiCommon0
        CFI (cfiCond96) NoFunction
        CFI (cfiCond96) Conditional ??CrossCallReturnLabel_92, ??CrossCallReturnLabel_89
        CFI (cfiCond96) R6 load(1, XDATA, add(CFA_XSP16, literal(-20)))
        CFI (cfiCond96) VB load(1, XDATA, add(CFA_XSP16, literal(-19)))
        CFI (cfiCond96) V0 load(1, XDATA, add(CFA_XSP16, literal(-18)))
        CFI (cfiCond96) V1 load(1, XDATA, add(CFA_XSP16, literal(-17)))
        CFI (cfiCond96) V2 load(1, XDATA, add(CFA_XSP16, literal(-16)))
        CFI (cfiCond96) V3 load(1, XDATA, add(CFA_XSP16, literal(-15)))
        CFI (cfiCond96) V4 load(1, XDATA, add(CFA_XSP16, literal(-14)))
        CFI (cfiCond96) V5 load(1, XDATA, add(CFA_XSP16, literal(-13)))
        CFI (cfiCond96) V6 load(1, XDATA, add(CFA_XSP16, literal(-12)))
        CFI (cfiCond96) V7 load(1, XDATA, add(CFA_XSP16, literal(-11)))
        CFI (cfiCond96) V8 load(1, XDATA, add(CFA_XSP16, literal(-10)))
        CFI (cfiCond96) V9 load(1, XDATA, add(CFA_XSP16, literal(-9)))
        CFI (cfiCond96) V10 load(1, XDATA, add(CFA_XSP16, literal(-8)))
        CFI (cfiCond96) V11 load(1, XDATA, add(CFA_XSP16, literal(-7)))
        CFI (cfiCond96) R7 load(1, XDATA, add(CFA_XSP16, literal(-6)))
        CFI (cfiCond96) ?RET_LOW load(1, XDATA, add(CFA_XSP16, literal(-5)))
        CFI (cfiCond96) ?RET_HIGH load(1, XDATA, add(CFA_XSP16, literal(-4)))
        CFI (cfiCond96) ?BRET_EXT load(1, XDATA, add(CFA_XSP16, literal(-3)))
        CFI (cfiCond96) DPL0 load(1, XDATA, add(CFA_XSP16, literal(-2)))
        CFI (cfiCond96) DPH0 load(1, XDATA, add(CFA_XSP16, literal(-1)))
        CFI (cfiCond96) CFA_SP SP+0
        CFI (cfiCond96) CFA_XSP16 add(XSP16, 20)
        CFI Block cfiCond97 Using cfiCommon0
        CFI (cfiCond97) NoFunction
        CFI (cfiCond97) Conditional ??CrossCallReturnLabel_92, ??CrossCallReturnLabel_87
        CFI (cfiCond97) R6 load(1, XDATA, add(CFA_XSP16, literal(-22)))
        CFI (cfiCond97) VB load(1, XDATA, add(CFA_XSP16, literal(-21)))
        CFI (cfiCond97) V0 load(1, XDATA, add(CFA_XSP16, literal(-20)))
        CFI (cfiCond97) V1 load(1, XDATA, add(CFA_XSP16, literal(-19)))
        CFI (cfiCond97) V2 load(1, XDATA, add(CFA_XSP16, literal(-18)))
        CFI (cfiCond97) V3 load(1, XDATA, add(CFA_XSP16, literal(-17)))
        CFI (cfiCond97) V4 load(1, XDATA, add(CFA_XSP16, literal(-16)))
        CFI (cfiCond97) V5 load(1, XDATA, add(CFA_XSP16, literal(-15)))
        CFI (cfiCond97) V6 load(1, XDATA, add(CFA_XSP16, literal(-14)))
        CFI (cfiCond97) V7 load(1, XDATA, add(CFA_XSP16, literal(-13)))
        CFI (cfiCond97) V8 load(1, XDATA, add(CFA_XSP16, literal(-12)))
        CFI (cfiCond97) V9 load(1, XDATA, add(CFA_XSP16, literal(-11)))
        CFI (cfiCond97) V10 load(1, XDATA, add(CFA_XSP16, literal(-10)))
        CFI (cfiCond97) V11 load(1, XDATA, add(CFA_XSP16, literal(-9)))
        CFI (cfiCond97) V12 load(1, XDATA, add(CFA_XSP16, literal(-8)))
        CFI (cfiCond97) V13 load(1, XDATA, add(CFA_XSP16, literal(-7)))
        CFI (cfiCond97) R7 load(1, XDATA, add(CFA_XSP16, literal(-6)))
        CFI (cfiCond97) ?RET_LOW load(1, XDATA, add(CFA_XSP16, literal(-5)))
        CFI (cfiCond97) ?RET_HIGH load(1, XDATA, add(CFA_XSP16, literal(-4)))
        CFI (cfiCond97) ?BRET_EXT load(1, XDATA, add(CFA_XSP16, literal(-3)))
        CFI (cfiCond97) DPL0 load(1, XDATA, add(CFA_XSP16, literal(-2)))
        CFI (cfiCond97) DPH0 load(1, XDATA, add(CFA_XSP16, literal(-1)))
        CFI (cfiCond97) CFA_SP SP+0
        CFI (cfiCond97) CFA_XSP16 add(XSP16, 36)
        CFI Block cfiPicker98 Using cfiCommon1
        CFI (cfiPicker98) NoFunction
        CFI (cfiPicker98) Picker
        LCALL   ??Subroutine53_0 & 0xFFFF
??CrossCallReturnLabel_98:
        MOV     R1,A
        MOV     A,R2
        RET
        CFI EndBlock cfiCond92
        CFI EndBlock cfiCond93
        CFI EndBlock cfiCond94
        CFI EndBlock cfiCond95
        CFI EndBlock cfiCond96
        CFI EndBlock cfiCond97
        CFI EndBlock cfiPicker98

        RSEG BANKED_CODE:CODE:NOROOT(0)
?Subroutine10:
        CFI Block cfiCond99 Using cfiCommon0
        CFI NoFunction
        CFI Conditional ??CrossCallReturnLabel_88
        CFI R6 load(1, XDATA, add(CFA_XSP16, literal(-22)))
        CFI VB load(1, XDATA, add(CFA_XSP16, literal(-21)))
        CFI V0 load(1, XDATA, add(CFA_XSP16, literal(-20)))
        CFI V1 load(1, XDATA, add(CFA_XSP16, literal(-19)))
        CFI V2 load(1, XDATA, add(CFA_XSP16, literal(-18)))
        CFI V3 load(1, XDATA, add(CFA_XSP16, literal(-17)))
        CFI V4 load(1, XDATA, add(CFA_XSP16, literal(-16)))
        CFI V5 load(1, XDATA, add(CFA_XSP16, literal(-15)))
        CFI V6 load(1, XDATA, add(CFA_XSP16, literal(-14)))
        CFI V7 load(1, XDATA, add(CFA_XSP16, literal(-13)))
        CFI V8 load(1, XDATA, add(CFA_XSP16, literal(-12)))
        CFI V9 load(1, XDATA, add(CFA_XSP16, literal(-11)))
        CFI V10 load(1, XDATA, add(CFA_XSP16, literal(-10)))
        CFI V11 load(1, XDATA, add(CFA_XSP16, literal(-9)))
        CFI V12 load(1, XDATA, add(CFA_XSP16, literal(-8)))
        CFI V13 load(1, XDATA, add(CFA_XSP16, literal(-7)))
        CFI R7 load(1, XDATA, add(CFA_XSP16, literal(-6)))
        CFI ?RET_LOW load(1, XDATA, add(CFA_XSP16, literal(-5)))
        CFI ?RET_HIGH load(1, XDATA, add(CFA_XSP16, literal(-4)))
        CFI ?BRET_EXT load(1, XDATA, add(CFA_XSP16, literal(-3)))
        CFI DPL0 load(1, XDATA, add(CFA_XSP16, literal(-2)))
        CFI DPH0 load(1, XDATA, add(CFA_XSP16, literal(-1)))
        CFI CFA_SP SP+0
        CFI CFA_XSP16 add(XSP16, 36)
        CFI Block cfiCond100 Using cfiCommon0
        CFI (cfiCond100) NoFunction
        CFI (cfiCond100) Conditional ??CrossCallReturnLabel_89
        CFI (cfiCond100) R6 load(1, XDATA, add(CFA_XSP16, literal(-20)))
        CFI (cfiCond100) VB load(1, XDATA, add(CFA_XSP16, literal(-19)))
        CFI (cfiCond100) V0 load(1, XDATA, add(CFA_XSP16, literal(-18)))
        CFI (cfiCond100) V1 load(1, XDATA, add(CFA_XSP16, literal(-17)))
        CFI (cfiCond100) V2 load(1, XDATA, add(CFA_XSP16, literal(-16)))
        CFI (cfiCond100) V3 load(1, XDATA, add(CFA_XSP16, literal(-15)))
        CFI (cfiCond100) V4 load(1, XDATA, add(CFA_XSP16, literal(-14)))
        CFI (cfiCond100) V5 load(1, XDATA, add(CFA_XSP16, literal(-13)))
        CFI (cfiCond100) V6 load(1, XDATA, add(CFA_XSP16, literal(-12)))
        CFI (cfiCond100) V7 load(1, XDATA, add(CFA_XSP16, literal(-11)))
        CFI (cfiCond100) V8 load(1, XDATA, add(CFA_XSP16, literal(-10)))
        CFI (cfiCond100) V9 load(1, XDATA, add(CFA_XSP16, literal(-9)))
        CFI (cfiCond100) V10 load(1, XDATA, add(CFA_XSP16, literal(-8)))
        CFI (cfiCond100) V11 load(1, XDATA, add(CFA_XSP16, literal(-7)))
        CFI (cfiCond100) R7 load(1, XDATA, add(CFA_XSP16, literal(-6)))
        CFI (cfiCond100) ?RET_LOW load(1, XDATA, add(CFA_XSP16, literal(-5)))
        CFI (cfiCond100) ?RET_HIGH load(1, XDATA, add(CFA_XSP16, literal(-4)))
        CFI (cfiCond100) ?BRET_EXT load(1, XDATA, add(CFA_XSP16, literal(-3)))
        CFI (cfiCond100) DPL0 load(1, XDATA, add(CFA_XSP16, literal(-2)))
        CFI (cfiCond100) DPH0 load(1, XDATA, add(CFA_XSP16, literal(-1)))
        CFI (cfiCond100) CFA_SP SP+0
        CFI (cfiCond100) CFA_XSP16 add(XSP16, 20)
        CFI Block cfiPicker101 Using cfiCommon1
        CFI (cfiPicker101) NoFunction
        CFI (cfiPicker101) Picker
        MOV     DPL,R6
        MOV     DPH,R7
        CFI EndBlock cfiCond99
        CFI EndBlock cfiCond100
        CFI EndBlock cfiPicker101
        REQUIRE ??Subroutine51_0
        ; // Fall through to label ??Subroutine51_0

        RSEG BANKED_CODE:CODE:NOROOT(0)
??Subroutine51_0:
        CFI Block cfiCond102 Using cfiCommon0
        CFI NoFunction
        CFI Conditional ??CrossCallReturnLabel_87
        CFI R6 load(1, XDATA, add(CFA_XSP16, literal(-22)))
        CFI VB load(1, XDATA, add(CFA_XSP16, literal(-21)))
        CFI V0 load(1, XDATA, add(CFA_XSP16, literal(-20)))
        CFI V1 load(1, XDATA, add(CFA_XSP16, literal(-19)))
        CFI V2 load(1, XDATA, add(CFA_XSP16, literal(-18)))
        CFI V3 load(1, XDATA, add(CFA_XSP16, literal(-17)))
        CFI V4 load(1, XDATA, add(CFA_XSP16, literal(-16)))
        CFI V5 load(1, XDATA, add(CFA_XSP16, literal(-15)))
        CFI V6 load(1, XDATA, add(CFA_XSP16, literal(-14)))
        CFI V7 load(1, XDATA, add(CFA_XSP16, literal(-13)))
        CFI V8 load(1, XDATA, add(CFA_XSP16, literal(-12)))
        CFI V9 load(1, XDATA, add(CFA_XSP16, literal(-11)))
        CFI V10 load(1, XDATA, add(CFA_XSP16, literal(-10)))
        CFI V11 load(1, XDATA, add(CFA_XSP16, literal(-9)))
        CFI V12 load(1, XDATA, add(CFA_XSP16, literal(-8)))
        CFI V13 load(1, XDATA, add(CFA_XSP16, literal(-7)))
        CFI R7 load(1, XDATA, add(CFA_XSP16, literal(-6)))
        CFI ?RET_LOW load(1, XDATA, add(CFA_XSP16, literal(-5)))
        CFI ?RET_HIGH load(1, XDATA, add(CFA_XSP16, literal(-4)))
        CFI ?BRET_EXT load(1, XDATA, add(CFA_XSP16, literal(-3)))
        CFI DPL0 load(1, XDATA, add(CFA_XSP16, literal(-2)))
        CFI DPH0 load(1, XDATA, add(CFA_XSP16, literal(-1)))
        CFI CFA_SP SP+0
        CFI CFA_XSP16 add(XSP16, 36)
        CFI Block cfiCond103 Using cfiCommon0
        CFI (cfiCond103) NoFunction
        CFI (cfiCond103) Conditional ??CrossCallReturnLabel_88
        CFI (cfiCond103) R6 load(1, XDATA, add(CFA_XSP16, literal(-22)))
        CFI (cfiCond103) VB load(1, XDATA, add(CFA_XSP16, literal(-21)))
        CFI (cfiCond103) V0 load(1, XDATA, add(CFA_XSP16, literal(-20)))
        CFI (cfiCond103) V1 load(1, XDATA, add(CFA_XSP16, literal(-19)))
        CFI (cfiCond103) V2 load(1, XDATA, add(CFA_XSP16, literal(-18)))
        CFI (cfiCond103) V3 load(1, XDATA, add(CFA_XSP16, literal(-17)))
        CFI (cfiCond103) V4 load(1, XDATA, add(CFA_XSP16, literal(-16)))
        CFI (cfiCond103) V5 load(1, XDATA, add(CFA_XSP16, literal(-15)))
        CFI (cfiCond103) V6 load(1, XDATA, add(CFA_XSP16, literal(-14)))
        CFI (cfiCond103) V7 load(1, XDATA, add(CFA_XSP16, literal(-13)))
        CFI (cfiCond103) V8 load(1, XDATA, add(CFA_XSP16, literal(-12)))
        CFI (cfiCond103) V9 load(1, XDATA, add(CFA_XSP16, literal(-11)))
        CFI (cfiCond103) V10 load(1, XDATA, add(CFA_XSP16, literal(-10)))
        CFI (cfiCond103) V11 load(1, XDATA, add(CFA_XSP16, literal(-9)))
        CFI (cfiCond103) V12 load(1, XDATA, add(CFA_XSP16, literal(-8)))
        CFI (cfiCond103) V13 load(1, XDATA, add(CFA_XSP16, literal(-7)))
        CFI (cfiCond103) R7 load(1, XDATA, add(CFA_XSP16, literal(-6)))
        CFI (cfiCond103) ?RET_LOW load(1, XDATA, add(CFA_XSP16, literal(-5)))
        CFI (cfiCond103) ?RET_HIGH load(1, XDATA, add(CFA_XSP16, literal(-4)))
        CFI (cfiCond103) ?BRET_EXT load(1, XDATA, add(CFA_XSP16, literal(-3)))
        CFI (cfiCond103) DPL0 load(1, XDATA, add(CFA_XSP16, literal(-2)))
        CFI (cfiCond103) DPH0 load(1, XDATA, add(CFA_XSP16, literal(-1)))
        CFI (cfiCond103) CFA_SP SP+0
        CFI (cfiCond103) CFA_XSP16 add(XSP16, 36)
        CFI Block cfiCond104 Using cfiCommon0
        CFI (cfiCond104) NoFunction
        CFI (cfiCond104) Conditional ??CrossCallReturnLabel_89
        CFI (cfiCond104) R6 load(1, XDATA, add(CFA_XSP16, literal(-20)))
        CFI (cfiCond104) VB load(1, XDATA, add(CFA_XSP16, literal(-19)))
        CFI (cfiCond104) V0 load(1, XDATA, add(CFA_XSP16, literal(-18)))
        CFI (cfiCond104) V1 load(1, XDATA, add(CFA_XSP16, literal(-17)))
        CFI (cfiCond104) V2 load(1, XDATA, add(CFA_XSP16, literal(-16)))
        CFI (cfiCond104) V3 load(1, XDATA, add(CFA_XSP16, literal(-15)))
        CFI (cfiCond104) V4 load(1, XDATA, add(CFA_XSP16, literal(-14)))
        CFI (cfiCond104) V5 load(1, XDATA, add(CFA_XSP16, literal(-13)))
        CFI (cfiCond104) V6 load(1, XDATA, add(CFA_XSP16, literal(-12)))
        CFI (cfiCond104) V7 load(1, XDATA, add(CFA_XSP16, literal(-11)))
        CFI (cfiCond104) V8 load(1, XDATA, add(CFA_XSP16, literal(-10)))
        CFI (cfiCond104) V9 load(1, XDATA, add(CFA_XSP16, literal(-9)))
        CFI (cfiCond104) V10 load(1, XDATA, add(CFA_XSP16, literal(-8)))
        CFI (cfiCond104) V11 load(1, XDATA, add(CFA_XSP16, literal(-7)))
        CFI (cfiCond104) R7 load(1, XDATA, add(CFA_XSP16, literal(-6)))
        CFI (cfiCond104) ?RET_LOW load(1, XDATA, add(CFA_XSP16, literal(-5)))
        CFI (cfiCond104) ?RET_HIGH load(1, XDATA, add(CFA_XSP16, literal(-4)))
        CFI (cfiCond104) ?BRET_EXT load(1, XDATA, add(CFA_XSP16, literal(-3)))
        CFI (cfiCond104) DPL0 load(1, XDATA, add(CFA_XSP16, literal(-2)))
        CFI (cfiCond104) DPH0 load(1, XDATA, add(CFA_XSP16, literal(-1)))
        CFI (cfiCond104) CFA_SP SP+0
        CFI (cfiCond104) CFA_XSP16 add(XSP16, 20)
        CFI Block cfiPicker105 Using cfiCommon1
        CFI (cfiPicker105) NoFunction
        CFI (cfiPicker105) Picker
        LCALL   ?Subroutine36 & 0xFFFF
??CrossCallReturnLabel_92:
        ADD     A,#0x0
        RET
        CFI EndBlock cfiCond102
        CFI EndBlock cfiCond103
        CFI EndBlock cfiCond104
        CFI EndBlock cfiPicker105
//  515 #endif
//  516 
//  517 #if defined INTER_PAN
//  518 /***************************************************************************************************
//  519  * @fn      MT_AfInterPanCtl
//  520  *
//  521  * @brief   Process the AF Inter Pan control command.
//  522  *
//  523  * @param   pBuf - pointer to the received buffer
//  524  *
//  525  * @return  none
//  526  ***************************************************************************************************/
//  527 static void MT_AfInterPanCtl(uint8 *pBuf)
//  528 {
//  529   uint8 cmd, rtrn;
//  530   uint16 panId;
//  531   endPointDesc_t *pEP;
//  532 
//  533   cmd = pBuf[MT_RPC_POS_CMD1];
//  534   pBuf += MT_RPC_FRAME_HDR_SZ;
//  535 
//  536   switch (*pBuf++)  // Inter-pan request parameter.
//  537   {
//  538   case InterPanClr:
//  539     rtrn = StubAPS_SetIntraPanChannel();           // Switch channel back to the NIB channel.
//  540     break;
//  541 
//  542   case InterPanSet:
//  543     rtrn = StubAPS_SetInterPanChannel(*pBuf);      // Set channel for inter-pan communication.
//  544     break;
//  545 
//  546   case InterPanReg:
//  547     if ((pEP = afFindEndPointDesc(*pBuf)))
//  548     {
//  549       StubAPS_RegisterApp(pEP);
//  550       rtrn = SUCCESS;
//  551     }
//  552     else
//  553     {
//  554       rtrn = FAILURE;
//  555     }
//  556     break;
//  557 
//  558   case InterPanChk:
//  559     panId = BUILD_UINT16(pBuf[0], pBuf[1]);
//  560     rtrn = (StubAPS_InterPan(panId, pBuf[2])) ? ZSuccess : ZFailure;
//  561     break;
//  562 
//  563   default:
//  564     rtrn = afStatus_INVALID_PARAMETER;
//  565     break;
//  566   }
//  567 
//  568   MT_BuildAndSendZToolResponse(((uint8)MT_RPC_CMD_SRSP | (uint8)MT_RPC_SYS_AF), cmd, 1, &rtrn);
//  569 }
//  570 #endif
//  571 
//  572 /***************************************************************************************************
//  573  * @fn      MT_AfDataConfirm
//  574  *
//  575  * @brief   Process
//  576  *
//  577  * @param   pBuf - pointer to the received buffer
//  578  *
//  579  * @return  none
//  580  ***************************************************************************************************/

        RSEG BANKED_CODE:CODE:NOROOT(0)
//  581 void MT_AfDataConfirm(afDataConfirm_t *pMsg)
MT_AfDataConfirm:
        CFI Block cfiBlock106 Using cfiCommon0
        CFI Function MT_AfDataConfirm
        CODE
//  582 {
        FUNCALL MT_AfDataConfirm, MT_BuildAndSendZToolResponse
        LOCFRAME ISTACK, 2, STACK
        LOCFRAME PSTACK, 0, STACK
        LOCFRAME XSTACK, 3, STACK
        LOCFRAME IOVERLAY, 0, STATIC
        LOCFRAME DOVERLAY, 0, STATIC
        ARGFRAME ISTACK, 2, STACK
        ARGFRAME PSTACK, 0, STACK
        ARGFRAME XSTACK, 3, STACK
        ARGFRAME IOVERLAY, 0, STATIC
        ARGFRAME DOVERLAY, 0, STATIC
        PUSH    DPL
        CFI DPL0 Frame(CFA_SP, 4)
        CFI CFA_SP SP+-4
        PUSH    DPH
        CFI DPH0 Frame(CFA_SP, 5)
        CFI CFA_SP SP+-5
        ; Saved register size: 2
        ; Auto size: 3
        MOV     A,#-0x3
        LCALL   ?ALLOC_XSTACK8
        CFI CFA_XSP16 add(XSP16, 3)
//  583   uint8 retArray[3];
//  584 
//  585   retArray[0] = pMsg->hdr.status;
        MOV     DPL,R2
        MOV     DPH,R3
        INC     DPTR
        MOVX    A,@DPTR
        MOV     DPL,?XSP + 0
        MOV     DPH,?XSP + 1
        LCALL   ?Subroutine28 & 0xFFFF
//  586   retArray[1] = pMsg->endpoint;
??CrossCallReturnLabel_39:
        PUSH    A
        CFI CFA_SP SP+-6
        MOV     A,#0x1
        LCALL   ?XSTACK_DISP0_8
        POP     A
        CFI CFA_SP SP+-5
        LCALL   ?Subroutine29 & 0xFFFF
//  587   retArray[2] = pMsg->transID;
??CrossCallReturnLabel_41:
        INC     DPTR
        INC     DPTR
        MOVX    A,@DPTR
        PUSH    A
        CFI CFA_SP SP+-6
        MOV     A,#0x2
        LCALL   ?XSTACK_DISP0_8
        POP     A
        CFI CFA_SP SP+-5
        LCALL   ?Subroutine24 & 0xFFFF
//  588 
//  589   /* Build and send back the response */
//  590   MT_BuildAndSendZToolResponse(((uint8)MT_RPC_CMD_AREQ | (uint8)MT_RPC_SYS_AF), MT_AF_DATA_CONFIRM, 3, retArray);
??CrossCallReturnLabel_28:
        MOV     R3,#0x3
        MOV     R2,#-0x80
        MOV     R1,#0x44
        LCALL   ??MT_BuildAndSendZToolResponse?relay
//  591 }
        MOV     A,#0x3
        LCALL   ?DEALLOC_XSTACK8
        CFI CFA_XSP16 XSP16+0
        POP     DPH
        CFI DPH0 SameValue
        CFI CFA_SP SP+-4
        POP     DPL
        CFI DPL0 SameValue
        CFI CFA_SP SP+-3
        LJMP    ?BRET
        CFI EndBlock cfiBlock106

        RSEG BANKED_CODE:CODE:NOROOT(0)
?Subroutine29:
        CFI Block cfiCond107 Using cfiCommon0
        CFI NoFunction
        CFI Conditional ??CrossCallReturnLabel_40
        CFI R6 load(1, XDATA, add(CFA_XSP16, literal(-22)))
        CFI VB load(1, XDATA, add(CFA_XSP16, literal(-21)))
        CFI V0 load(1, XDATA, add(CFA_XSP16, literal(-20)))
        CFI V1 load(1, XDATA, add(CFA_XSP16, literal(-19)))
        CFI V2 load(1, XDATA, add(CFA_XSP16, literal(-18)))
        CFI V3 load(1, XDATA, add(CFA_XSP16, literal(-17)))
        CFI V4 load(1, XDATA, add(CFA_XSP16, literal(-16)))
        CFI V5 load(1, XDATA, add(CFA_XSP16, literal(-15)))
        CFI V6 load(1, XDATA, add(CFA_XSP16, literal(-14)))
        CFI V7 load(1, XDATA, add(CFA_XSP16, literal(-13)))
        CFI V8 load(1, XDATA, add(CFA_XSP16, literal(-12)))
        CFI V9 load(1, XDATA, add(CFA_XSP16, literal(-11)))
        CFI V10 load(1, XDATA, add(CFA_XSP16, literal(-10)))
        CFI V11 load(1, XDATA, add(CFA_XSP16, literal(-9)))
        CFI V12 load(1, XDATA, add(CFA_XSP16, literal(-8)))
        CFI V13 load(1, XDATA, add(CFA_XSP16, literal(-7)))
        CFI R7 load(1, XDATA, add(CFA_XSP16, literal(-6)))
        CFI ?RET_LOW load(1, XDATA, add(CFA_XSP16, literal(-5)))
        CFI ?RET_HIGH load(1, XDATA, add(CFA_XSP16, literal(-4)))
        CFI ?BRET_EXT load(1, XDATA, add(CFA_XSP16, literal(-3)))
        CFI DPL0 load(1, XDATA, add(CFA_XSP16, literal(-2)))
        CFI DPH0 load(1, XDATA, add(CFA_XSP16, literal(-1)))
        CFI CFA_SP SP+0
        CFI CFA_XSP16 add(XSP16, 36)
        CFI Block cfiCond108 Using cfiCommon0
        CFI (cfiCond108) NoFunction
        CFI (cfiCond108) Conditional ??CrossCallReturnLabel_41
        CFI (cfiCond108) DPL0 Frame(CFA_SP, 4)
        CFI (cfiCond108) DPH0 Frame(CFA_SP, 5)
        CFI (cfiCond108) CFA_SP SP+-5
        CFI (cfiCond108) CFA_XSP16 add(XSP16, 3)
        CFI Block cfiCond109 Using cfiCommon0
        CFI (cfiCond109) NoFunction
        CFI (cfiCond109) Conditional ??CrossCallReturnLabel_42
        CFI (cfiCond109) R6 load(1, XDATA, add(CFA_XSP16, literal(-24)))
        CFI (cfiCond109) VB load(1, XDATA, add(CFA_XSP16, literal(-23)))
        CFI (cfiCond109) V0 load(1, XDATA, add(CFA_XSP16, literal(-22)))
        CFI (cfiCond109) V1 load(1, XDATA, add(CFA_XSP16, literal(-21)))
        CFI (cfiCond109) V2 load(1, XDATA, add(CFA_XSP16, literal(-20)))
        CFI (cfiCond109) V3 load(1, XDATA, add(CFA_XSP16, literal(-19)))
        CFI (cfiCond109) V4 load(1, XDATA, add(CFA_XSP16, literal(-18)))
        CFI (cfiCond109) V5 load(1, XDATA, add(CFA_XSP16, literal(-17)))
        CFI (cfiCond109) V6 load(1, XDATA, add(CFA_XSP16, literal(-16)))
        CFI (cfiCond109) V7 load(1, XDATA, add(CFA_XSP16, literal(-15)))
        CFI (cfiCond109) V8 load(1, XDATA, add(CFA_XSP16, literal(-14)))
        CFI (cfiCond109) V9 load(1, XDATA, add(CFA_XSP16, literal(-13)))
        CFI (cfiCond109) V10 load(1, XDATA, add(CFA_XSP16, literal(-12)))
        CFI (cfiCond109) V11 load(1, XDATA, add(CFA_XSP16, literal(-11)))
        CFI (cfiCond109) V12 load(1, XDATA, add(CFA_XSP16, literal(-10)))
        CFI (cfiCond109) V13 load(1, XDATA, add(CFA_XSP16, literal(-9)))
        CFI (cfiCond109) V14 load(1, XDATA, add(CFA_XSP16, literal(-8)))
        CFI (cfiCond109) V15 load(1, XDATA, add(CFA_XSP16, literal(-7)))
        CFI (cfiCond109) R7 load(1, XDATA, add(CFA_XSP16, literal(-6)))
        CFI (cfiCond109) ?RET_LOW load(1, XDATA, add(CFA_XSP16, literal(-5)))
        CFI (cfiCond109) ?RET_HIGH load(1, XDATA, add(CFA_XSP16, literal(-4)))
        CFI (cfiCond109) ?BRET_EXT load(1, XDATA, add(CFA_XSP16, literal(-3)))
        CFI (cfiCond109) DPL0 load(1, XDATA, add(CFA_XSP16, literal(-2)))
        CFI (cfiCond109) DPH0 load(1, XDATA, add(CFA_XSP16, literal(-1)))
        CFI (cfiCond109) CFA_SP SP+0
        CFI (cfiCond109) CFA_XSP16 add(XSP16, 25)
        CFI Block cfiPicker110 Using cfiCommon1
        CFI (cfiPicker110) NoFunction
        CFI (cfiPicker110) Picker
        MOVX    @DPTR,A
        MOV     DPL,R2
        MOV     DPH,R3
        INC     DPTR
        RET
        CFI EndBlock cfiCond107
        CFI EndBlock cfiCond108
        CFI EndBlock cfiCond109
        CFI EndBlock cfiPicker110

        RSEG BANKED_CODE:CODE:NOROOT(0)
?Subroutine28:
        CFI Block cfiCond111 Using cfiCommon0
        CFI NoFunction
        CFI Conditional ??CrossCallReturnLabel_38
        CFI R6 load(1, XDATA, add(CFA_XSP16, literal(-14)))
        CFI VB load(1, XDATA, add(CFA_XSP16, literal(-13)))
        CFI V0 load(1, XDATA, add(CFA_XSP16, literal(-12)))
        CFI V1 load(1, XDATA, add(CFA_XSP16, literal(-11)))
        CFI V2 load(1, XDATA, add(CFA_XSP16, literal(-10)))
        CFI V3 load(1, XDATA, add(CFA_XSP16, literal(-9)))
        CFI V4 load(1, XDATA, add(CFA_XSP16, literal(-8)))
        CFI V5 load(1, XDATA, add(CFA_XSP16, literal(-7)))
        CFI R7 load(1, XDATA, add(CFA_XSP16, literal(-6)))
        CFI ?RET_LOW load(1, XDATA, add(CFA_XSP16, literal(-5)))
        CFI ?RET_HIGH load(1, XDATA, add(CFA_XSP16, literal(-4)))
        CFI ?BRET_EXT load(1, XDATA, add(CFA_XSP16, literal(-3)))
        CFI DPL0 load(1, XDATA, add(CFA_XSP16, literal(-2)))
        CFI DPH0 load(1, XDATA, add(CFA_XSP16, literal(-1)))
        CFI CFA_SP SP+0
        CFI CFA_XSP16 add(XSP16, 15)
        CFI Block cfiCond112 Using cfiCommon0
        CFI (cfiCond112) NoFunction
        CFI (cfiCond112) Conditional ??CrossCallReturnLabel_39
        CFI (cfiCond112) DPL0 Frame(CFA_SP, 4)
        CFI (cfiCond112) DPH0 Frame(CFA_SP, 5)
        CFI (cfiCond112) CFA_SP SP+-5
        CFI (cfiCond112) CFA_XSP16 add(XSP16, 3)
        CFI Block cfiPicker113 Using cfiCommon1
        CFI (cfiPicker113) NoFunction
        CFI (cfiPicker113) Picker
        MOVX    @DPTR,A
        MOV     DPL,R2
        MOV     DPH,R3
        INC     DPTR
        INC     DPTR
        MOVX    A,@DPTR
        RET
        CFI EndBlock cfiCond111
        CFI EndBlock cfiCond112
        CFI EndBlock cfiPicker113
//  592 
//  593 /***************************************************************************************************
//  594  * @fn          MT_AfIncomingMsg
//  595  *
//  596  * @brief       Process the callback subscription for AF Incoming data.
//  597  *
//  598  * @param       pkt - Incoming AF data.
//  599  *
//  600  * @return      none
//  601  ***************************************************************************************************/

        RSEG BANKED_CODE:CODE:NOROOT(0)
//  602 void MT_AfIncomingMsg(afIncomingMSGPacket_t *pMsg)
MT_AfIncomingMsg:
        CFI Block cfiBlock114 Using cfiCommon0
        CFI Function MT_AfIncomingMsg
        CODE
//  603 {
        FUNCALL MT_AfIncomingMsg, osal_mem_alloc
        LOCFRAME ISTACK, 0, STACK
        LOCFRAME PSTACK, 0, STACK
        LOCFRAME XSTACK, 25, STACK
        LOCFRAME IOVERLAY, 0, STATIC
        LOCFRAME DOVERLAY, 0, STATIC
        ARGFRAME ISTACK, 0, STACK
        ARGFRAME PSTACK, 0, STACK
        ARGFRAME XSTACK, 25, STACK
        ARGFRAME IOVERLAY, 0, STATIC
        ARGFRAME DOVERLAY, 0, STATIC
        FUNCALL MT_AfIncomingMsg, osal_mem_alloc
        LOCFRAME ISTACK, 0, STACK
        LOCFRAME PSTACK, 0, STACK
        LOCFRAME XSTACK, 25, STACK
        LOCFRAME IOVERLAY, 0, STATIC
        LOCFRAME DOVERLAY, 0, STATIC
        ARGFRAME ISTACK, 0, STACK
        ARGFRAME PSTACK, 0, STACK
        ARGFRAME XSTACK, 25, STACK
        ARGFRAME IOVERLAY, 0, STATIC
        ARGFRAME DOVERLAY, 0, STATIC
        FUNCALL MT_AfIncomingMsg, osal_mem_free
        LOCFRAME ISTACK, 0, STACK
        LOCFRAME PSTACK, 0, STACK
        LOCFRAME XSTACK, 25, STACK
        LOCFRAME IOVERLAY, 0, STATIC
        LOCFRAME DOVERLAY, 0, STATIC
        ARGFRAME ISTACK, 0, STACK
        ARGFRAME PSTACK, 0, STACK
        ARGFRAME XSTACK, 25, STACK
        ARGFRAME IOVERLAY, 0, STATIC
        ARGFRAME DOVERLAY, 0, STATIC
        FUNCALL MT_AfIncomingMsg, osal_memcpy
        LOCFRAME ISTACK, 0, STACK
        LOCFRAME PSTACK, 0, STACK
        LOCFRAME XSTACK, 28, STACK
        LOCFRAME IOVERLAY, 0, STATIC
        LOCFRAME DOVERLAY, 0, STATIC
        ARGFRAME ISTACK, 0, STACK
        ARGFRAME PSTACK, 0, STACK
        ARGFRAME XSTACK, 28, STACK
        ARGFRAME IOVERLAY, 0, STATIC
        ARGFRAME DOVERLAY, 0, STATIC
        FUNCALL MT_AfIncomingMsg, osal_start_timerEx
        LOCFRAME ISTACK, 0, STACK
        LOCFRAME PSTACK, 0, STACK
        LOCFRAME XSTACK, 25, STACK
        LOCFRAME IOVERLAY, 0, STATIC
        LOCFRAME DOVERLAY, 0, STATIC
        ARGFRAME ISTACK, 0, STACK
        ARGFRAME PSTACK, 0, STACK
        ARGFRAME XSTACK, 25, STACK
        ARGFRAME IOVERLAY, 0, STATIC
        ARGFRAME DOVERLAY, 0, STATIC
        FUNCALL MT_AfIncomingMsg, osal_set_event
        LOCFRAME ISTACK, 0, STACK
        LOCFRAME PSTACK, 0, STACK
        LOCFRAME XSTACK, 25, STACK
        LOCFRAME IOVERLAY, 0, STATIC
        LOCFRAME DOVERLAY, 0, STATIC
        ARGFRAME ISTACK, 0, STACK
        ARGFRAME PSTACK, 0, STACK
        ARGFRAME XSTACK, 25, STACK
        ARGFRAME IOVERLAY, 0, STATIC
        ARGFRAME DOVERLAY, 0, STATIC
        FUNCALL MT_AfIncomingMsg, osal_memcpy
        LOCFRAME ISTACK, 0, STACK
        LOCFRAME PSTACK, 0, STACK
        LOCFRAME XSTACK, 28, STACK
        LOCFRAME IOVERLAY, 0, STATIC
        LOCFRAME DOVERLAY, 0, STATIC
        ARGFRAME ISTACK, 0, STACK
        ARGFRAME PSTACK, 0, STACK
        ARGFRAME XSTACK, 28, STACK
        ARGFRAME IOVERLAY, 0, STATIC
        ARGFRAME DOVERLAY, 0, STATIC
        FUNCALL MT_AfIncomingMsg, osal_memcpy
        LOCFRAME ISTACK, 0, STACK
        LOCFRAME PSTACK, 0, STACK
        LOCFRAME XSTACK, 28, STACK
        LOCFRAME IOVERLAY, 0, STATIC
        LOCFRAME DOVERLAY, 0, STATIC
        ARGFRAME ISTACK, 0, STACK
        ARGFRAME PSTACK, 0, STACK
        ARGFRAME XSTACK, 28, STACK
        ARGFRAME IOVERLAY, 0, STATIC
        ARGFRAME DOVERLAY, 0, STATIC
        FUNCALL MT_AfIncomingMsg, MT_BuildAndSendZToolResponse
        LOCFRAME ISTACK, 0, STACK
        LOCFRAME PSTACK, 0, STACK
        LOCFRAME XSTACK, 25, STACK
        LOCFRAME IOVERLAY, 0, STATIC
        LOCFRAME DOVERLAY, 0, STATIC
        ARGFRAME ISTACK, 0, STACK
        ARGFRAME PSTACK, 0, STACK
        ARGFRAME XSTACK, 25, STACK
        ARGFRAME IOVERLAY, 0, STATIC
        ARGFRAME DOVERLAY, 0, STATIC
        FUNCALL MT_AfIncomingMsg, osal_mem_free
        LOCFRAME ISTACK, 0, STACK
        LOCFRAME PSTACK, 0, STACK
        LOCFRAME XSTACK, 25, STACK
        LOCFRAME IOVERLAY, 0, STATIC
        LOCFRAME DOVERLAY, 0, STATIC
        ARGFRAME ISTACK, 0, STACK
        ARGFRAME PSTACK, 0, STACK
        ARGFRAME XSTACK, 25, STACK
        ARGFRAME IOVERLAY, 0, STATIC
        ARGFRAME DOVERLAY, 0, STATIC
        MOV     A,#-0x18
        LCALL   ?BANKED_ENTER_XDATA
        CFI DPH0 load(1, XDATA, add(CFA_XSP16, literal(-1)))
        CFI DPL0 load(1, XDATA, add(CFA_XSP16, literal(-2)))
        CFI ?BRET_EXT load(1, XDATA, add(CFA_XSP16, literal(-3)))
        CFI ?RET_HIGH load(1, XDATA, add(CFA_XSP16, literal(-4)))
        CFI ?RET_LOW load(1, XDATA, add(CFA_XSP16, literal(-5)))
        CFI R7 load(1, XDATA, add(CFA_XSP16, literal(-6)))
        CFI V15 load(1, XDATA, add(CFA_XSP16, literal(-7)))
        CFI V14 load(1, XDATA, add(CFA_XSP16, literal(-8)))
        CFI V13 load(1, XDATA, add(CFA_XSP16, literal(-9)))
        CFI V12 load(1, XDATA, add(CFA_XSP16, literal(-10)))
        CFI V11 load(1, XDATA, add(CFA_XSP16, literal(-11)))
        CFI V10 load(1, XDATA, add(CFA_XSP16, literal(-12)))
        CFI V9 load(1, XDATA, add(CFA_XSP16, literal(-13)))
        CFI V8 load(1, XDATA, add(CFA_XSP16, literal(-14)))
        CFI V7 load(1, XDATA, add(CFA_XSP16, literal(-15)))
        CFI V6 load(1, XDATA, add(CFA_XSP16, literal(-16)))
        CFI V5 load(1, XDATA, add(CFA_XSP16, literal(-17)))
        CFI V4 load(1, XDATA, add(CFA_XSP16, literal(-18)))
        CFI V3 load(1, XDATA, add(CFA_XSP16, literal(-19)))
        CFI V2 load(1, XDATA, add(CFA_XSP16, literal(-20)))
        CFI V1 load(1, XDATA, add(CFA_XSP16, literal(-21)))
        CFI V0 load(1, XDATA, add(CFA_XSP16, literal(-22)))
        CFI VB load(1, XDATA, add(CFA_XSP16, literal(-23)))
        CFI R6 load(1, XDATA, add(CFA_XSP16, literal(-24)))
        CFI CFA_SP SP+0
        CFI CFA_XSP16 add(XSP16, 24)
        ; Saved register size: 24
        ; Auto size: 1
        MOV     A,#-0x1
        LCALL   ?ALLOC_XSTACK8
        CFI CFA_XSP16 add(XSP16, 25)
        MOV     ?V0 + 8,R2
        MOV     ?V0 + 9,R3
//  604   #define MT_AF_INC_MSG_LEN  17
//  605   #define MT_AF_INC_MSG_EXT  10
//  606 
//  607   uint16 dataLen = pMsg->cmd.DataLength;  // Length of the data section in the response packet.
        MOV     A,R2
        ADD     A,#0x20
        MOV     DPL,A
        MOV     A,R3
        ADDC    A,#0x0
        MOV     DPH,A
        MOVX    A,@DPTR
        MOV     R6,A
        INC     DPTR
        MOVX    A,@DPTR
        MOV     R7,A
//  608   uint16 respLen = MT_AF_INC_MSG_LEN + dataLen;
        MOV     A,R6
        ADD     A,#0x11
        MOV     ?V0 + 0,A
        MOV     A,R7
        ADDC    A,#0x0
        MOV     ?V0 + 1,A
//  609   uint8 cmd = MT_AF_INCOMING_MSG;
        MOV     DPL,?XSP + 0
        MOV     DPH,?XSP + 1
        MOV     A,#-0x7f
        MOVX    @DPTR,A
//  610   uint8 *pRsp, *pTmp;
//  611   mtAfInMsgList_t *pItem = NULL;
        MOV     ?V0 + 10,#0x0
        MOV     ?V0 + 11,#0x0
//  612 
//  613 #if defined INTER_PAN
//  614   if (StubAPS_InterPan(pMsg->srcAddr.panId, pMsg->srcAddr.endPoint))
//  615   {
//  616     cmd = MT_AF_INCOMING_MSG_EXT;
//  617   }
//  618   else
//  619 #endif
//  620   if ((pMsg->srcAddr.addrMode == afAddr64Bit) ||
//  621       (respLen > (uint16)(MT_RPC_DATA_MAX - MT_AF_INC_MSG_EXT)))
        MOV     A,R2
        ADD     A,#0xe
        MOV     ?V0 + 4,A
        MOV     A,R3
        ADDC    A,#0x0
        MOV     ?V0 + 5,A
        MOV     DPL,?V0 + 4
        MOV     DPH,A
        MOVX    A,@DPTR
        XRL     A,#0x3
        JZ      ??MT_AfIncomingMsg_0
        CLR     C
        MOV     A,?V0 + 0
        SUBB    A,#-0xf
        MOV     A,?V0 + 1
        SUBB    A,#0x0
        JC      ??MT_AfIncomingMsg_1
//  622   {
//  623     cmd = MT_AF_INCOMING_MSG_EXT;
??MT_AfIncomingMsg_0:
        MOV     DPL,?XSP + 0
        MOV     DPH,?XSP + 1
        MOV     A,#-0x7e
        MOVX    @DPTR,A
//  624   }
//  625 
//  626   if (cmd == MT_AF_INCOMING_MSG_EXT)
//  627   {
//  628     respLen += MT_AF_INC_MSG_EXT;
        MOV     A,?V0 + 0
        ADD     A,#0xa
        MOV     ?V0 + 0,A
        MOV     A,?V0 + 1
        ADDC    A,#0x0
        MOV     ?V0 + 1,A
//  629   }
//  630 
//  631   if (respLen > (uint16)MT_RPC_DATA_MAX)
??MT_AfIncomingMsg_1:
        CLR     C
        MOV     A,?V0 + 0
        SUBB    A,#-0x5
        MOV     A,?V0 + 1
        SUBB    A,#0x0
        JC      ??MT_AfIncomingMsg_2
//  632   {
//  633     if ((pItem = (mtAfInMsgList_t *)osal_mem_alloc(sizeof(mtAfInMsgList_t) + dataLen)) == NULL)
        ; Setup parameters for call to function osal_mem_alloc
        MOV     A,R6
        ADD     A,#0x9
        LCALL   ?Subroutine20 & 0xFFFF
??CrossCallReturnLabel_64:
        MOV     ?V0 + 10,R2
        MOV     ?V0 + 11,R3
        MOV     A,R2
        ORL     A,?V0 + 11
        JNZ     $+5
        LJMP    ??MT_AfIncomingMsg_3 & 0xFFFF
//  634     {
//  635       return;  // If cannot hold a huge message, cannot give indication at all.
//  636     }
//  637 
//  638     pItem->data = (uint8 *)(pItem+1);
        MOV     A,R2
        ADD     A,#0x9
        MOV     R0,A
        MOV     A,R3
        ADDC    A,#0x0
        MOV     R1,A
        MOV     DPL,R2
        MOV     DPH,R3
        INC     DPTR
        INC     DPTR
        LCALL   ?Subroutine31 & 0xFFFF
//  639     respLen -= dataLen;  // Zero data bytes are sent with an over-sized incoming indication.
??CrossCallReturnLabel_49:
        CLR     C
        MOV     A,?V0 + 0
        SUBB    A,R6
        MOV     ?V0 + 0,A
        MOV     A,?V0 + 1
        SUBB    A,R7
        MOV     ?V0 + 1,A
//  640   }
//  641 
//  642   // Attempt to allocate memory for the response packet.
//  643   if ((pRsp = osal_mem_alloc(respLen)) == NULL)
??MT_AfIncomingMsg_2:
        ; Setup parameters for call to function osal_mem_alloc
        MOV     R2,?V0 + 0
        MOV     R3,?V0 + 1
        LCALL   ??osal_mem_alloc?relay
        MOV     ?V0 + 14,R2
        MOV     ?V0 + 15,R3
        MOV     A,R2
        ORL     A,?V0 + 15
        JNZ     ??MT_AfIncomingMsg_4
//  644   {
//  645     if (pItem != NULL)
        MOV     A,?V0 + 10
        ORL     A,?V0 + 11
        JNZ     $+5
        LJMP    ??MT_AfIncomingMsg_3 & 0xFFFF
//  646     {
//  647       (void)osal_mem_free(pItem);
        ; Setup parameters for call to function osal_mem_free
        MOV     R2,?V0 + 10
        MOV     R3,?V0 + 11
        LJMP    ??MT_AfIncomingMsg_5 & 0xFFFF
//  648     }
//  649     return;
//  650   }
//  651   pTmp = pRsp;
//  652 
//  653   /* Group ID */
//  654   *pTmp++ = LO_UINT16(pMsg->groupId);
??MT_AfIncomingMsg_4:
        MOV     A,?V0 + 8
        ADD     A,#0x2
        MOV     R0,A
        LCALL   ?Subroutine44 & 0xFFFF
??CrossCallReturnLabel_131:
        MOVX    A,@DPTR
        MOV     DPL,R2
        MOV     DPH,R3
        LCALL   ?Subroutine26 & 0xFFFF
//  655   *pTmp++ = HI_UINT16(pMsg->groupId);
??CrossCallReturnLabel_32:
        MOV     DPL,R0
        MOV     DPH,R1
        INC     DPTR
        LCALL   ??Subroutine55_0 & 0xFFFF
//  656 
//  657   /* Cluster ID */
//  658   *pTmp++ = LO_UINT16(pMsg->clusterId);
??CrossCallReturnLabel_109:
        ADD     A,#0x4
        INC     R0
        INC     R0
        LCALL   ?Subroutine44 & 0xFFFF
??CrossCallReturnLabel_132:
        LCALL   ?Subroutine7 & 0xFFFF
//  659   *pTmp++ = HI_UINT16(pMsg->clusterId);
??CrossCallReturnLabel_0:
        MOV     DPL,R0
        MOV     DPH,R1
        INC     DPTR
        LCALL   ?Subroutine7 & 0xFFFF
//  660 
//  661   if (cmd == MT_AF_INCOMING_MSG_EXT)
??CrossCallReturnLabel_1:
        INC     DPTR
        MOV     R0,DPL
        MOV     R1,DPH
        MOV     A,?V0 + 8
        ADD     A,#0xf
        MOV     ?V0 + 12,A
        MOV     A,?V0 + 9
        ADDC    A,#0x0
        MOV     ?V0 + 13,A
        MOV     A,?V0 + 8
        ADD     A,#0x6
        MOV     R2,A
        MOV     A,?V0 + 9
        ADDC    A,#0x0
        MOV     R3,A
        MOV     DPL,?XSP + 0
        MOV     DPH,?XSP + 1
        MOVX    A,@DPTR
        XRL     A,#0x82
        JNZ     ??MT_AfIncomingMsg_6
//  662   {
//  663     *pTmp++ = pMsg->srcAddr.addrMode;
        MOV     DPL,?V0 + 4
        MOV     DPH,?V0 + 5
        LCALL   ?Subroutine8 & 0xFFFF
??CrossCallReturnLabel_2:
        MOV     ?V0 + 2,R0
        MOV     ?V0 + 3,R1
//  664 
//  665     if (pMsg->srcAddr.addrMode == afAddr64Bit)
        MOV     DPL,?V0 + 4
        MOV     DPH,?V0 + 5
        MOVX    A,@DPTR
        XRL     A,#0x3
        JNZ     ??MT_AfIncomingMsg_7
//  666     {
//  667       (void)osal_memcpy(pTmp, pMsg->srcAddr.addr.extAddr, Z_EXTADDR_LEN);
        ; Setup parameters for call to function osal_memcpy
        MOV     ?V0 + 4,R2
        MOV     ?V0 + 5,R3
        MOV     ?V0 + 6,#0x0
        MOV     R0,#?V0 + 4
        LCALL   ?PUSH_XSTACK_I_THREE
        CFI CFA_XSP16 add(XSP16, 28)
        MOV     R4,#0x8
        MOV     R5,#0x0
        MOV     R2,?V0 + 2
        MOV     R3,?V0 + 3
        LCALL   ??Subroutine56_0 & 0xFFFF
//  668     }
??CrossCallReturnLabel_118:
        LCALL   ?DEALLOC_XSTACK8
        CFI CFA_XSP16 add(XSP16, 25)
        SJMP    ??MT_AfIncomingMsg_8
//  669     else
//  670     {
//  671       pTmp[0] = LO_UINT16(pMsg->srcAddr.addr.shortAddr);
??MT_AfIncomingMsg_7:
        MOV     DPL,R2
        MOV     DPH,R3
        MOVX    A,@DPTR
        MOV     DPL,R0
        MOV     DPH,R1
        LCALL   ?Subroutine29 & 0xFFFF
//  672       pTmp[1] = HI_UINT16(pMsg->srcAddr.addr.shortAddr);
//  673     }
??CrossCallReturnLabel_42:
        MOVX    A,@DPTR
        MOV     DPL,R0
        MOV     DPH,R1
        INC     DPTR
        MOVX    @DPTR,A
//  674     pTmp += Z_EXTADDR_LEN;
??MT_AfIncomingMsg_8:
        MOV     A,?V0 + 2
        ADD     A,#0x8
        MOV     ?V0 + 2,A
        MOV     A,?V0 + 3
        ADDC    A,#0x0
        MOV     ?V0 + 3,A
//  675 
//  676     *pTmp++ = pMsg->srcAddr.endPoint;
        MOV     DPL,?V0 + 12
        MOV     DPH,?V0 + 13
        LCALL   ?Subroutine8 & 0xFFFF
??CrossCallReturnLabel_3:
        INC     DPTR
//  677 #if defined INTER_PAN
//  678     *pTmp++ = LO_UINT16(pMsg->srcAddr.panId);
//  679     *pTmp++ = HI_UINT16(pMsg->srcAddr.panId);
//  680 #else
//  681     *pTmp++ = 0;
        CLR     A
        MOVX    @DPTR,A
        INC     DPTR
//  682     *pTmp++ = 0;
        SJMP    ??MT_AfIncomingMsg_9
//  683 #endif
//  684   }
//  685   else
//  686   {
//  687     /* Source Address */
//  688     *pTmp++ = LO_UINT16(pMsg->srcAddr.addr.shortAddr);
??MT_AfIncomingMsg_6:
        MOV     DPL,R2
        MOV     DPH,R3
        LCALL   ?Subroutine8 & 0xFFFF
//  689     *pTmp++ = HI_UINT16(pMsg->srcAddr.addr.shortAddr);
??CrossCallReturnLabel_4:
        MOV     DPL,R2
        MOV     DPH,R3
        INC     DPTR
        MOVX    A,@DPTR
        MOV     DPL,R0
        MOV     DPH,R1
        LCALL   ?Subroutine26 & 0xFFFF
//  690 
//  691     /* Source EP */
//  692     *pTmp++ = pMsg->srcAddr.endPoint;
??CrossCallReturnLabel_33:
        MOV     DPL,?V0 + 12
        MOV     DPH,?V0 + 13
        MOVX    A,@DPTR
        MOV     DPL,?V0 + 2
        MOV     DPH,?V0 + 3
//  693   }
??MT_AfIncomingMsg_9:
        LCALL   ?Subroutine25 & 0xFFFF
//  694 
//  695   /* Destination EP */
//  696   *pTmp++ = pMsg->endPoint;
??CrossCallReturnLabel_30:
        ADD     A,#0x14
        LCALL   ?Subroutine3 & 0xFFFF
//  697 
//  698   /* WasBroadCast */
//  699   *pTmp++ = pMsg->wasBroadcast;
??CrossCallReturnLabel_105:
        ADD     A,#0x15
        LCALL   ?Subroutine3 & 0xFFFF
//  700 
//  701   /* LinkQuality */
//  702   *pTmp++ = pMsg->LinkQuality;
??CrossCallReturnLabel_106:
        ADD     A,#0x16
        LCALL   ?Subroutine3 & 0xFFFF
//  703 
//  704   /* SecurityUse */
//  705   *pTmp++ = pMsg->SecurityUse;
??CrossCallReturnLabel_107:
        ADD     A,#0x19
        LCALL   ?Subroutine3 & 0xFFFF
//  706 
//  707   /* Timestamp */
//  708   *pTmp++ = BREAK_UINT32(pMsg->timestamp, 0);
??CrossCallReturnLabel_108:
        ADD     A,#0x1a
        MOV     ?V0 + 12,A
        MOV     A,?V0 + 9
        ADDC    A,#0x0
        MOV     ?V0 + 13,A
        MOV     DPL,?V0 + 12
        MOV     DPH,A
        MOV     R0,#?V0 + 4
        LCALL   ?L_MOV_X
        LCALL   ?Subroutine21 & 0xFFFF
//  709   *pTmp++ = BREAK_UINT32(pMsg->timestamp, 1);
??CrossCallReturnLabel_99:
        LCALL   ?L_MOV_X
        MOV     A,?V0 + 5
        MOV     DPL,?V0 + 2
        MOV     DPH,?V0 + 3
        LCALL   ??Subroutine54_0 & 0xFFFF
//  710   *pTmp++ = BREAK_UINT32(pMsg->timestamp, 2);
??CrossCallReturnLabel_101:
        LCALL   ?L_MOV_X
        MOV     A,#0x10
        MOV     R0,#?V0 + 4
        LCALL   ?UL_SHR
        LCALL   ?Subroutine21 & 0xFFFF
//  711   *pTmp++ = BREAK_UINT32(pMsg->timestamp, 3);
??CrossCallReturnLabel_100:
        LCALL   ?L_MOV_X
        MOV     A,#0x18
        MOV     R0,#?V0 + 4
        LCALL   ?UL_SHR
        MOV     DPL,?V0 + 2
        MOV     DPH,?V0 + 3
        MOV     A,?V0 + 4
        LCALL   ?Subroutine26 & 0xFFFF
//  712 
//  713 
//  714   /* Data Length */
//  715   if (cmd == MT_AF_INCOMING_MSG_EXT)
??CrossCallReturnLabel_34:
        INC     DPTR
        MOV     R0,DPL
        MOV     R1,DPH
        MOV     DPL,?XSP + 0
        MOV     DPH,?XSP + 1
        MOVX    A,@DPTR
        XRL     A,#0x82
        JNZ     ??MT_AfIncomingMsg_10
//  716   {
//  717     /* Z-Tool apparently takes the last Byte before the data buffer as the dynamic length and
//  718      * ignores the bigger UInt16 length of an EXT incoming message. But no data bytes will be sent
//  719      * with a huge message, so it's necessary to work-around and fake-out Z-Tool with a zero here.
//  720      */
//  721     *pTmp++ = 0;  // TODO - workaround Z-Tool shortcoming; should be: = pMsg->cmd.TransSeqNumber;
        MOV     DPL,?V0 + 2
        MOV     DPH,?V0 + 3
        CLR     A
        MOVX    @DPTR,A
//  722     *pTmp++ = LO_UINT16(dataLen);
        MOV     A,R6
        MOV     DPL,R0
        MOV     DPH,R1
        MOVX    @DPTR,A
        INC     DPTR
//  723     *pTmp++ = HI_UINT16(dataLen);
        MOV     A,R7
        SJMP    ??MT_AfIncomingMsg_11
//  724   }
//  725   else
//  726   {
//  727     *pTmp++ = pMsg->cmd.TransSeqNumber;
??MT_AfIncomingMsg_10:
        MOV     A,?V0 + 8
        ADD     A,#0x1f
        MOV     DPL,A
        MOV     A,?V0 + 9
        ADDC    A,#0x0
        MOV     DPH,A
        LCALL   ?Subroutine8 & 0xFFFF
//  728     *pTmp++ = dataLen;
??CrossCallReturnLabel_5:
        MOV     A,R6
        MOV     DPL,R0
        MOV     DPH,R1
//  729   }
??MT_AfIncomingMsg_11:
        LCALL   ?Subroutine25 & 0xFFFF
//  730 
//  731   /* Data */
//  732   if (pItem != NULL)
??CrossCallReturnLabel_31:
        ADD     A,#0x22
        MOV     ?V0 + 4,A
        MOV     A,?V0 + 9
        ADDC    A,#0x0
        MOV     ?V0 + 5,A
        MOV     A,?V0 + 10
        ORL     A,?V0 + 11
        JZ      ??MT_AfIncomingMsg_12
//  733   {
//  734     // Enqueue the new huge incoming item.
//  735     pItem->next = pMtAfInMsgList;
        MOV     DPTR,#pMtAfInMsgList
        LCALL   ?Subroutine37 & 0xFFFF
??CrossCallReturnLabel_81:
        MOV     DPL,?V0 + 10
        MOV     DPH,?V0 + 11
        LCALL   ?Subroutine31 & 0xFFFF
//  736     pMtAfInMsgList = pItem;
??CrossCallReturnLabel_50:
        MOV     DPTR,#pMtAfInMsgList
        MOV     A,?V0 + 10
        MOVX    @DPTR,A
        INC     DPTR
        MOV     A,?V0 + 11
        MOVX    @DPTR,A
//  737 
//  738     // Setup to time-out the huge incoming item if host does not MT_AF_DATA_RETRIEVE it.
//  739     pItem->tick = MT_AF_EXEC_CNT;
        MOV     DPL,?V0 + 10
        MOV     DPH,A
        INC     DPTR
        INC     DPTR
        INC     DPTR
        INC     DPTR
        INC     DPTR
        INC     DPTR
        INC     DPTR
        INC     DPTR
        LCALL   ?Subroutine12 & 0xFFFF
//  740     if (ZSuccess != osal_start_timerEx(MT_TaskID, MT_AF_EXEC_EVT, MT_AF_EXEC_DLY))
??CrossCallReturnLabel_72:
        JZ      ??CrossCallReturnLabel_18
//  741     {
//  742       (void)osal_set_event(MT_TaskID, MT_AF_EXEC_EVT);
        ; Setup parameters for call to function osal_set_event
        LCALL   ?Subroutine16 & 0xFFFF
//  743     }
//  744 
//  745     pItem->timestamp = pMsg->timestamp;
??CrossCallReturnLabel_18:
        MOV     DPL,?V0 + 12
        MOV     DPH,?V0 + 13
        LCALL   ?XLOAD_R2345
        MOV     DPL,?V0 + 10
        MOV     DPH,?V0 + 11
        INC     DPTR
        INC     DPTR
        INC     DPTR
        INC     DPTR
        LCALL   ?XSTORE_R2345
//  746     (void)osal_memcpy(pItem->data, pMsg->cmd.Data, dataLen);
        ; Setup parameters for call to function osal_memcpy
        LCALL   ?Subroutine13 & 0xFFFF
//  747   }
??CrossCallReturnLabel_10:
        LCALL   ?PUSH_XSTACK_I_THREE
        CFI CFA_XSP16 add(XSP16, 28)
        MOV     A,R6
        MOV     R4,A
        MOV     A,R7
        MOV     R5,A
        MOV     DPL,?V0 + 10
        MOV     DPH,?V0 + 11
        INC     DPTR
        INC     DPTR
        LCALL   ??Subroutine53_0 & 0xFFFF
??CrossCallReturnLabel_94:
        MOV     R3,A
        SJMP    ??MT_AfIncomingMsg_13
        CFI CFA_XSP16 add(XSP16, 25)
//  748   else
//  749   {
//  750     (void)osal_memcpy(pTmp, pMsg->cmd.Data, dataLen);
??MT_AfIncomingMsg_12:
        ; Setup parameters for call to function osal_memcpy
        LCALL   ?Subroutine13 & 0xFFFF
//  751   }
??CrossCallReturnLabel_11:
        LCALL   ?PUSH_XSTACK_I_THREE
        CFI CFA_XSP16 add(XSP16, 28)
        MOV     A,R6
        MOV     R4,A
        MOV     A,R7
        MOV     R5,A
        MOV     R2,?V0 + 2
        MOV     R3,?V0 + 3
??MT_AfIncomingMsg_13:
        LCALL   ??Subroutine56_0 & 0xFFFF
??CrossCallReturnLabel_119:
        LCALL   ?DEALLOC_XSTACK8
        CFI CFA_XSP16 add(XSP16, 25)
//  752 
//  753   /* Build and send back the response */
//  754   MT_BuildAndSendZToolResponse(((uint8)MT_RPC_CMD_AREQ|(uint8)MT_RPC_SYS_AF), cmd, respLen, pRsp);
        ; Setup parameters for call to function MT_BuildAndSendZToolResponse
        MOV     R4,?V0 + 14
        MOV     R5,?V0 + 15
        MOV     R3,?V0 + 0
        MOV     DPL,?XSP + 0
        MOV     DPH,?XSP + 1
        MOVX    A,@DPTR
        MOV     R2,A
        MOV     R1,#0x44
        LCALL   ??MT_BuildAndSendZToolResponse?relay
//  755 
//  756   (void)osal_mem_free(pRsp);
        ; Setup parameters for call to function osal_mem_free
        MOV     R2,?V0 + 14
        MOV     R3,?V0 + 15
??MT_AfIncomingMsg_5:
        LCALL   ??osal_mem_free?relay
//  757 }
??MT_AfIncomingMsg_3:
        MOV     A,#0x1
        LCALL   ?DEALLOC_XSTACK8
        CFI CFA_XSP16 add(XSP16, 24)
        MOV     R7,#0x10
        LJMP    ?BANKED_LEAVE_XDATA
        CFI EndBlock cfiBlock114

        RSEG BANKED_CODE:CODE:NOROOT(0)
?Subroutine44:
        CFI Block cfiCond115 Using cfiCommon0
        CFI NoFunction
        CFI Conditional ??CrossCallReturnLabel_131
        CFI R6 load(1, XDATA, add(CFA_XSP16, literal(-24)))
        CFI VB load(1, XDATA, add(CFA_XSP16, literal(-23)))
        CFI V0 load(1, XDATA, add(CFA_XSP16, literal(-22)))
        CFI V1 load(1, XDATA, add(CFA_XSP16, literal(-21)))
        CFI V2 load(1, XDATA, add(CFA_XSP16, literal(-20)))
        CFI V3 load(1, XDATA, add(CFA_XSP16, literal(-19)))
        CFI V4 load(1, XDATA, add(CFA_XSP16, literal(-18)))
        CFI V5 load(1, XDATA, add(CFA_XSP16, literal(-17)))
        CFI V6 load(1, XDATA, add(CFA_XSP16, literal(-16)))
        CFI V7 load(1, XDATA, add(CFA_XSP16, literal(-15)))
        CFI V8 load(1, XDATA, add(CFA_XSP16, literal(-14)))
        CFI V9 load(1, XDATA, add(CFA_XSP16, literal(-13)))
        CFI V10 load(1, XDATA, add(CFA_XSP16, literal(-12)))
        CFI V11 load(1, XDATA, add(CFA_XSP16, literal(-11)))
        CFI V12 load(1, XDATA, add(CFA_XSP16, literal(-10)))
        CFI V13 load(1, XDATA, add(CFA_XSP16, literal(-9)))
        CFI V14 load(1, XDATA, add(CFA_XSP16, literal(-8)))
        CFI V15 load(1, XDATA, add(CFA_XSP16, literal(-7)))
        CFI R7 load(1, XDATA, add(CFA_XSP16, literal(-6)))
        CFI ?RET_LOW load(1, XDATA, add(CFA_XSP16, literal(-5)))
        CFI ?RET_HIGH load(1, XDATA, add(CFA_XSP16, literal(-4)))
        CFI ?BRET_EXT load(1, XDATA, add(CFA_XSP16, literal(-3)))
        CFI DPL0 load(1, XDATA, add(CFA_XSP16, literal(-2)))
        CFI DPH0 load(1, XDATA, add(CFA_XSP16, literal(-1)))
        CFI CFA_SP SP+0
        CFI CFA_XSP16 add(XSP16, 25)
        CFI Block cfiCond116 Using cfiCommon0
        CFI (cfiCond116) NoFunction
        CFI (cfiCond116) Conditional ??CrossCallReturnLabel_132
        CFI (cfiCond116) R6 load(1, XDATA, add(CFA_XSP16, literal(-24)))
        CFI (cfiCond116) VB load(1, XDATA, add(CFA_XSP16, literal(-23)))
        CFI (cfiCond116) V0 load(1, XDATA, add(CFA_XSP16, literal(-22)))
        CFI (cfiCond116) V1 load(1, XDATA, add(CFA_XSP16, literal(-21)))
        CFI (cfiCond116) V2 load(1, XDATA, add(CFA_XSP16, literal(-20)))
        CFI (cfiCond116) V3 load(1, XDATA, add(CFA_XSP16, literal(-19)))
        CFI (cfiCond116) V4 load(1, XDATA, add(CFA_XSP16, literal(-18)))
        CFI (cfiCond116) V5 load(1, XDATA, add(CFA_XSP16, literal(-17)))
        CFI (cfiCond116) V6 load(1, XDATA, add(CFA_XSP16, literal(-16)))
        CFI (cfiCond116) V7 load(1, XDATA, add(CFA_XSP16, literal(-15)))
        CFI (cfiCond116) V8 load(1, XDATA, add(CFA_XSP16, literal(-14)))
        CFI (cfiCond116) V9 load(1, XDATA, add(CFA_XSP16, literal(-13)))
        CFI (cfiCond116) V10 load(1, XDATA, add(CFA_XSP16, literal(-12)))
        CFI (cfiCond116) V11 load(1, XDATA, add(CFA_XSP16, literal(-11)))
        CFI (cfiCond116) V12 load(1, XDATA, add(CFA_XSP16, literal(-10)))
        CFI (cfiCond116) V13 load(1, XDATA, add(CFA_XSP16, literal(-9)))
        CFI (cfiCond116) V14 load(1, XDATA, add(CFA_XSP16, literal(-8)))
        CFI (cfiCond116) V15 load(1, XDATA, add(CFA_XSP16, literal(-7)))
        CFI (cfiCond116) R7 load(1, XDATA, add(CFA_XSP16, literal(-6)))
        CFI (cfiCond116) ?RET_LOW load(1, XDATA, add(CFA_XSP16, literal(-5)))
        CFI (cfiCond116) ?RET_HIGH load(1, XDATA, add(CFA_XSP16, literal(-4)))
        CFI (cfiCond116) ?BRET_EXT load(1, XDATA, add(CFA_XSP16, literal(-3)))
        CFI (cfiCond116) DPL0 load(1, XDATA, add(CFA_XSP16, literal(-2)))
        CFI (cfiCond116) DPH0 load(1, XDATA, add(CFA_XSP16, literal(-1)))
        CFI (cfiCond116) CFA_SP SP+0
        CFI (cfiCond116) CFA_XSP16 add(XSP16, 25)
        CFI Block cfiPicker117 Using cfiCommon1
        CFI (cfiPicker117) NoFunction
        CFI (cfiPicker117) Picker
        MOV     A,?V0 + 9
        CFI EndBlock cfiCond115
        CFI EndBlock cfiCond116
        CFI EndBlock cfiPicker117
        REQUIRE ??Subroutine52_0
        ; // Fall through to label ??Subroutine52_0

        RSEG BANKED_CODE:CODE:NOROOT(0)
??Subroutine52_0:
        CFI Block cfiCond118 Using cfiCommon0
        CFI NoFunction
        CFI Conditional ??CrossCallReturnLabel_133, ??CrossCallReturnLabel_129, ??CrossCallReturnLabel_61
        CFI R6 load(1, XDATA, add(CFA_XSP16, literal(-9)))
        CFI VB load(1, XDATA, add(CFA_XSP16, literal(-8)))
        CFI V0 load(1, XDATA, add(CFA_XSP16, literal(-7)))
        CFI R7 load(1, XDATA, add(CFA_XSP16, literal(-6)))
        CFI ?RET_LOW load(1, XDATA, add(CFA_XSP16, literal(-5)))
        CFI ?RET_HIGH load(1, XDATA, add(CFA_XSP16, literal(-4)))
        CFI ?BRET_EXT load(1, XDATA, add(CFA_XSP16, literal(-3)))
        CFI DPL0 load(1, XDATA, add(CFA_XSP16, literal(-2)))
        CFI DPH0 load(1, XDATA, add(CFA_XSP16, literal(-1)))
        CFI CFA_SP SP+0
        CFI CFA_XSP16 add(XSP16, 9)
        CFI Block cfiCond119 Using cfiCommon0
        CFI (cfiCond119) NoFunction
        CFI (cfiCond119) Conditional ??CrossCallReturnLabel_133, ??CrossCallReturnLabel_129, ??CrossCallReturnLabel_62
        CFI (cfiCond119) R6 load(1, XDATA, add(CFA_XSP16, literal(-9)))
        CFI (cfiCond119) VB load(1, XDATA, add(CFA_XSP16, literal(-8)))
        CFI (cfiCond119) V0 load(1, XDATA, add(CFA_XSP16, literal(-7)))
        CFI (cfiCond119) R7 load(1, XDATA, add(CFA_XSP16, literal(-6)))
        CFI (cfiCond119) ?RET_LOW load(1, XDATA, add(CFA_XSP16, literal(-5)))
        CFI (cfiCond119) ?RET_HIGH load(1, XDATA, add(CFA_XSP16, literal(-4)))
        CFI (cfiCond119) ?BRET_EXT load(1, XDATA, add(CFA_XSP16, literal(-3)))
        CFI (cfiCond119) DPL0 load(1, XDATA, add(CFA_XSP16, literal(-2)))
        CFI (cfiCond119) DPH0 load(1, XDATA, add(CFA_XSP16, literal(-1)))
        CFI (cfiCond119) CFA_SP SP+0
        CFI (cfiCond119) CFA_XSP16 add(XSP16, 9)
        CFI Block cfiCond120 Using cfiCommon0
        CFI (cfiCond120) NoFunction
        CFI (cfiCond120) Conditional ??CrossCallReturnLabel_133, ??CrossCallReturnLabel_129, ??CrossCallReturnLabel_59
        CFI (cfiCond120) R6 load(1, XDATA, add(CFA_XSP16, literal(-14)))
        CFI (cfiCond120) VB load(1, XDATA, add(CFA_XSP16, literal(-13)))
        CFI (cfiCond120) V0 load(1, XDATA, add(CFA_XSP16, literal(-12)))
        CFI (cfiCond120) V1 load(1, XDATA, add(CFA_XSP16, literal(-11)))
        CFI (cfiCond120) V2 load(1, XDATA, add(CFA_XSP16, literal(-10)))
        CFI (cfiCond120) V3 load(1, XDATA, add(CFA_XSP16, literal(-9)))
        CFI (cfiCond120) V4 load(1, XDATA, add(CFA_XSP16, literal(-8)))
        CFI (cfiCond120) V5 load(1, XDATA, add(CFA_XSP16, literal(-7)))
        CFI (cfiCond120) R7 load(1, XDATA, add(CFA_XSP16, literal(-6)))
        CFI (cfiCond120) ?RET_LOW load(1, XDATA, add(CFA_XSP16, literal(-5)))
        CFI (cfiCond120) ?RET_HIGH load(1, XDATA, add(CFA_XSP16, literal(-4)))
        CFI (cfiCond120) ?BRET_EXT load(1, XDATA, add(CFA_XSP16, literal(-3)))
        CFI (cfiCond120) DPL0 load(1, XDATA, add(CFA_XSP16, literal(-2)))
        CFI (cfiCond120) DPH0 load(1, XDATA, add(CFA_XSP16, literal(-1)))
        CFI (cfiCond120) CFA_SP SP+0
        CFI (cfiCond120) CFA_XSP16 add(XSP16, 15)
        CFI Block cfiCond121 Using cfiCommon0
        CFI (cfiCond121) NoFunction
        CFI (cfiCond121) Conditional ??CrossCallReturnLabel_133, ??CrossCallReturnLabel_129, ??CrossCallReturnLabel_60
        CFI (cfiCond121) R6 load(1, XDATA, add(CFA_XSP16, literal(-14)))
        CFI (cfiCond121) VB load(1, XDATA, add(CFA_XSP16, literal(-13)))
        CFI (cfiCond121) V0 load(1, XDATA, add(CFA_XSP16, literal(-12)))
        CFI (cfiCond121) V1 load(1, XDATA, add(CFA_XSP16, literal(-11)))
        CFI (cfiCond121) V2 load(1, XDATA, add(CFA_XSP16, literal(-10)))
        CFI (cfiCond121) V3 load(1, XDATA, add(CFA_XSP16, literal(-9)))
        CFI (cfiCond121) V4 load(1, XDATA, add(CFA_XSP16, literal(-8)))
        CFI (cfiCond121) V5 load(1, XDATA, add(CFA_XSP16, literal(-7)))
        CFI (cfiCond121) R7 load(1, XDATA, add(CFA_XSP16, literal(-6)))
        CFI (cfiCond121) ?RET_LOW load(1, XDATA, add(CFA_XSP16, literal(-5)))
        CFI (cfiCond121) ?RET_HIGH load(1, XDATA, add(CFA_XSP16, literal(-4)))
        CFI (cfiCond121) ?BRET_EXT load(1, XDATA, add(CFA_XSP16, literal(-3)))
        CFI (cfiCond121) DPL0 load(1, XDATA, add(CFA_XSP16, literal(-2)))
        CFI (cfiCond121) DPH0 load(1, XDATA, add(CFA_XSP16, literal(-1)))
        CFI (cfiCond121) CFA_SP SP+0
        CFI (cfiCond121) CFA_XSP16 add(XSP16, 24)
        CFI Block cfiCond122 Using cfiCommon0
        CFI (cfiCond122) NoFunction
        CFI (cfiCond122) Conditional ??CrossCallReturnLabel_133, ??CrossCallReturnLabel_130, ??CrossCallReturnLabel_127
        CFI (cfiCond122) R6 load(1, XDATA, add(CFA_XSP16, literal(-22)))
        CFI (cfiCond122) VB load(1, XDATA, add(CFA_XSP16, literal(-21)))
        CFI (cfiCond122) V0 load(1, XDATA, add(CFA_XSP16, literal(-20)))
        CFI (cfiCond122) V1 load(1, XDATA, add(CFA_XSP16, literal(-19)))
        CFI (cfiCond122) V2 load(1, XDATA, add(CFA_XSP16, literal(-18)))
        CFI (cfiCond122) V3 load(1, XDATA, add(CFA_XSP16, literal(-17)))
        CFI (cfiCond122) V4 load(1, XDATA, add(CFA_XSP16, literal(-16)))
        CFI (cfiCond122) V5 load(1, XDATA, add(CFA_XSP16, literal(-15)))
        CFI (cfiCond122) V6 load(1, XDATA, add(CFA_XSP16, literal(-14)))
        CFI (cfiCond122) V7 load(1, XDATA, add(CFA_XSP16, literal(-13)))
        CFI (cfiCond122) V8 load(1, XDATA, add(CFA_XSP16, literal(-12)))
        CFI (cfiCond122) V9 load(1, XDATA, add(CFA_XSP16, literal(-11)))
        CFI (cfiCond122) V10 load(1, XDATA, add(CFA_XSP16, literal(-10)))
        CFI (cfiCond122) V11 load(1, XDATA, add(CFA_XSP16, literal(-9)))
        CFI (cfiCond122) V12 load(1, XDATA, add(CFA_XSP16, literal(-8)))
        CFI (cfiCond122) V13 load(1, XDATA, add(CFA_XSP16, literal(-7)))
        CFI (cfiCond122) R7 load(1, XDATA, add(CFA_XSP16, literal(-6)))
        CFI (cfiCond122) ?RET_LOW load(1, XDATA, add(CFA_XSP16, literal(-5)))
        CFI (cfiCond122) ?RET_HIGH load(1, XDATA, add(CFA_XSP16, literal(-4)))
        CFI (cfiCond122) ?BRET_EXT load(1, XDATA, add(CFA_XSP16, literal(-3)))
        CFI (cfiCond122) DPL0 load(1, XDATA, add(CFA_XSP16, literal(-2)))
        CFI (cfiCond122) DPH0 load(1, XDATA, add(CFA_XSP16, literal(-1)))
        CFI (cfiCond122) CFA_SP SP+0
        CFI (cfiCond122) CFA_XSP16 add(XSP16, 36)
        CFI Block cfiCond123 Using cfiCommon0
        CFI (cfiCond123) NoFunction
        CFI (cfiCond123) Conditional ??CrossCallReturnLabel_133, ??CrossCallReturnLabel_130, ??CrossCallReturnLabel_128
        CFI (cfiCond123) R6 load(1, XDATA, add(CFA_XSP16, literal(-14)))
        CFI (cfiCond123) VB load(1, XDATA, add(CFA_XSP16, literal(-13)))
        CFI (cfiCond123) V0 load(1, XDATA, add(CFA_XSP16, literal(-12)))
        CFI (cfiCond123) V1 load(1, XDATA, add(CFA_XSP16, literal(-11)))
        CFI (cfiCond123) V2 load(1, XDATA, add(CFA_XSP16, literal(-10)))
        CFI (cfiCond123) V3 load(1, XDATA, add(CFA_XSP16, literal(-9)))
        CFI (cfiCond123) V4 load(1, XDATA, add(CFA_XSP16, literal(-8)))
        CFI (cfiCond123) V5 load(1, XDATA, add(CFA_XSP16, literal(-7)))
        CFI (cfiCond123) R7 load(1, XDATA, add(CFA_XSP16, literal(-6)))
        CFI (cfiCond123) ?RET_LOW load(1, XDATA, add(CFA_XSP16, literal(-5)))
        CFI (cfiCond123) ?RET_HIGH load(1, XDATA, add(CFA_XSP16, literal(-4)))
        CFI (cfiCond123) ?BRET_EXT load(1, XDATA, add(CFA_XSP16, literal(-3)))
        CFI (cfiCond123) DPL0 load(1, XDATA, add(CFA_XSP16, literal(-2)))
        CFI (cfiCond123) DPH0 load(1, XDATA, add(CFA_XSP16, literal(-1)))
        CFI (cfiCond123) CFA_SP SP+0
        CFI (cfiCond123) CFA_XSP16 add(XSP16, 22)
        CFI Block cfiCond124 Using cfiCommon0
        CFI (cfiCond124) NoFunction
        CFI (cfiCond124) Conditional ??CrossCallReturnLabel_133, ??CrossCallReturnLabel_130, ??CrossCallReturnLabel_120
        CFI (cfiCond124) R6 load(1, XDATA, add(CFA_XSP16, literal(-22)))
        CFI (cfiCond124) VB load(1, XDATA, add(CFA_XSP16, literal(-21)))
        CFI (cfiCond124) V0 load(1, XDATA, add(CFA_XSP16, literal(-20)))
        CFI (cfiCond124) V1 load(1, XDATA, add(CFA_XSP16, literal(-19)))
        CFI (cfiCond124) V2 load(1, XDATA, add(CFA_XSP16, literal(-18)))
        CFI (cfiCond124) V3 load(1, XDATA, add(CFA_XSP16, literal(-17)))
        CFI (cfiCond124) V4 load(1, XDATA, add(CFA_XSP16, literal(-16)))
        CFI (cfiCond124) V5 load(1, XDATA, add(CFA_XSP16, literal(-15)))
        CFI (cfiCond124) V6 load(1, XDATA, add(CFA_XSP16, literal(-14)))
        CFI (cfiCond124) V7 load(1, XDATA, add(CFA_XSP16, literal(-13)))
        CFI (cfiCond124) V8 load(1, XDATA, add(CFA_XSP16, literal(-12)))
        CFI (cfiCond124) V9 load(1, XDATA, add(CFA_XSP16, literal(-11)))
        CFI (cfiCond124) V10 load(1, XDATA, add(CFA_XSP16, literal(-10)))
        CFI (cfiCond124) V11 load(1, XDATA, add(CFA_XSP16, literal(-9)))
        CFI (cfiCond124) V12 load(1, XDATA, add(CFA_XSP16, literal(-8)))
        CFI (cfiCond124) V13 load(1, XDATA, add(CFA_XSP16, literal(-7)))
        CFI (cfiCond124) R7 load(1, XDATA, add(CFA_XSP16, literal(-6)))
        CFI (cfiCond124) ?RET_LOW load(1, XDATA, add(CFA_XSP16, literal(-5)))
        CFI (cfiCond124) ?RET_HIGH load(1, XDATA, add(CFA_XSP16, literal(-4)))
        CFI (cfiCond124) ?BRET_EXT load(1, XDATA, add(CFA_XSP16, literal(-3)))
        CFI (cfiCond124) DPL0 load(1, XDATA, add(CFA_XSP16, literal(-2)))
        CFI (cfiCond124) DPH0 load(1, XDATA, add(CFA_XSP16, literal(-1)))
        CFI (cfiCond124) CFA_SP SP+0
        CFI (cfiCond124) CFA_XSP16 add(XSP16, 36)
        CFI Block cfiCond125 Using cfiCommon0
        CFI (cfiCond125) NoFunction
        CFI (cfiCond125) Conditional ??CrossCallReturnLabel_133, ??CrossCallReturnLabel_130, ??CrossCallReturnLabel_121
        CFI (cfiCond125) R6 load(1, XDATA, add(CFA_XSP16, literal(-22)))
        CFI (cfiCond125) VB load(1, XDATA, add(CFA_XSP16, literal(-21)))
        CFI (cfiCond125) V0 load(1, XDATA, add(CFA_XSP16, literal(-20)))
        CFI (cfiCond125) V1 load(1, XDATA, add(CFA_XSP16, literal(-19)))
        CFI (cfiCond125) V2 load(1, XDATA, add(CFA_XSP16, literal(-18)))
        CFI (cfiCond125) V3 load(1, XDATA, add(CFA_XSP16, literal(-17)))
        CFI (cfiCond125) V4 load(1, XDATA, add(CFA_XSP16, literal(-16)))
        CFI (cfiCond125) V5 load(1, XDATA, add(CFA_XSP16, literal(-15)))
        CFI (cfiCond125) V6 load(1, XDATA, add(CFA_XSP16, literal(-14)))
        CFI (cfiCond125) V7 load(1, XDATA, add(CFA_XSP16, literal(-13)))
        CFI (cfiCond125) V8 load(1, XDATA, add(CFA_XSP16, literal(-12)))
        CFI (cfiCond125) V9 load(1, XDATA, add(CFA_XSP16, literal(-11)))
        CFI (cfiCond125) V10 load(1, XDATA, add(CFA_XSP16, literal(-10)))
        CFI (cfiCond125) V11 load(1, XDATA, add(CFA_XSP16, literal(-9)))
        CFI (cfiCond125) V12 load(1, XDATA, add(CFA_XSP16, literal(-8)))
        CFI (cfiCond125) V13 load(1, XDATA, add(CFA_XSP16, literal(-7)))
        CFI (cfiCond125) R7 load(1, XDATA, add(CFA_XSP16, literal(-6)))
        CFI (cfiCond125) ?RET_LOW load(1, XDATA, add(CFA_XSP16, literal(-5)))
        CFI (cfiCond125) ?RET_HIGH load(1, XDATA, add(CFA_XSP16, literal(-4)))
        CFI (cfiCond125) ?BRET_EXT load(1, XDATA, add(CFA_XSP16, literal(-3)))
        CFI (cfiCond125) DPL0 load(1, XDATA, add(CFA_XSP16, literal(-2)))
        CFI (cfiCond125) DPH0 load(1, XDATA, add(CFA_XSP16, literal(-1)))
        CFI (cfiCond125) CFA_SP SP+0
        CFI (cfiCond125) CFA_XSP16 add(XSP16, 36)
        CFI Block cfiCond126 Using cfiCommon0
        CFI (cfiCond126) NoFunction
        CFI (cfiCond126) Conditional ??CrossCallReturnLabel_133, ??CrossCallReturnLabel_130, ??CrossCallReturnLabel_122
        CFI (cfiCond126) R6 load(1, XDATA, add(CFA_XSP16, literal(-22)))
        CFI (cfiCond126) VB load(1, XDATA, add(CFA_XSP16, literal(-21)))
        CFI (cfiCond126) V0 load(1, XDATA, add(CFA_XSP16, literal(-20)))
        CFI (cfiCond126) V1 load(1, XDATA, add(CFA_XSP16, literal(-19)))
        CFI (cfiCond126) V2 load(1, XDATA, add(CFA_XSP16, literal(-18)))
        CFI (cfiCond126) V3 load(1, XDATA, add(CFA_XSP16, literal(-17)))
        CFI (cfiCond126) V4 load(1, XDATA, add(CFA_XSP16, literal(-16)))
        CFI (cfiCond126) V5 load(1, XDATA, add(CFA_XSP16, literal(-15)))
        CFI (cfiCond126) V6 load(1, XDATA, add(CFA_XSP16, literal(-14)))
        CFI (cfiCond126) V7 load(1, XDATA, add(CFA_XSP16, literal(-13)))
        CFI (cfiCond126) V8 load(1, XDATA, add(CFA_XSP16, literal(-12)))
        CFI (cfiCond126) V9 load(1, XDATA, add(CFA_XSP16, literal(-11)))
        CFI (cfiCond126) V10 load(1, XDATA, add(CFA_XSP16, literal(-10)))
        CFI (cfiCond126) V11 load(1, XDATA, add(CFA_XSP16, literal(-9)))
        CFI (cfiCond126) V12 load(1, XDATA, add(CFA_XSP16, literal(-8)))
        CFI (cfiCond126) V13 load(1, XDATA, add(CFA_XSP16, literal(-7)))
        CFI (cfiCond126) R7 load(1, XDATA, add(CFA_XSP16, literal(-6)))
        CFI (cfiCond126) ?RET_LOW load(1, XDATA, add(CFA_XSP16, literal(-5)))
        CFI (cfiCond126) ?RET_HIGH load(1, XDATA, add(CFA_XSP16, literal(-4)))
        CFI (cfiCond126) ?BRET_EXT load(1, XDATA, add(CFA_XSP16, literal(-3)))
        CFI (cfiCond126) DPL0 load(1, XDATA, add(CFA_XSP16, literal(-2)))
        CFI (cfiCond126) DPH0 load(1, XDATA, add(CFA_XSP16, literal(-1)))
        CFI (cfiCond126) CFA_SP SP+-1
        CFI (cfiCond126) CFA_XSP16 add(XSP16, 36)
        CFI Block cfiCond127 Using cfiCommon0
        CFI (cfiCond127) NoFunction
        CFI (cfiCond127) Conditional ??CrossCallReturnLabel_133, ??CrossCallReturnLabel_130, ??CrossCallReturnLabel_123
        CFI (cfiCond127) R6 load(1, XDATA, add(CFA_XSP16, literal(-22)))
        CFI (cfiCond127) VB load(1, XDATA, add(CFA_XSP16, literal(-21)))
        CFI (cfiCond127) V0 load(1, XDATA, add(CFA_XSP16, literal(-20)))
        CFI (cfiCond127) V1 load(1, XDATA, add(CFA_XSP16, literal(-19)))
        CFI (cfiCond127) V2 load(1, XDATA, add(CFA_XSP16, literal(-18)))
        CFI (cfiCond127) V3 load(1, XDATA, add(CFA_XSP16, literal(-17)))
        CFI (cfiCond127) V4 load(1, XDATA, add(CFA_XSP16, literal(-16)))
        CFI (cfiCond127) V5 load(1, XDATA, add(CFA_XSP16, literal(-15)))
        CFI (cfiCond127) V6 load(1, XDATA, add(CFA_XSP16, literal(-14)))
        CFI (cfiCond127) V7 load(1, XDATA, add(CFA_XSP16, literal(-13)))
        CFI (cfiCond127) V8 load(1, XDATA, add(CFA_XSP16, literal(-12)))
        CFI (cfiCond127) V9 load(1, XDATA, add(CFA_XSP16, literal(-11)))
        CFI (cfiCond127) V10 load(1, XDATA, add(CFA_XSP16, literal(-10)))
        CFI (cfiCond127) V11 load(1, XDATA, add(CFA_XSP16, literal(-9)))
        CFI (cfiCond127) V12 load(1, XDATA, add(CFA_XSP16, literal(-8)))
        CFI (cfiCond127) V13 load(1, XDATA, add(CFA_XSP16, literal(-7)))
        CFI (cfiCond127) R7 load(1, XDATA, add(CFA_XSP16, literal(-6)))
        CFI (cfiCond127) ?RET_LOW load(1, XDATA, add(CFA_XSP16, literal(-5)))
        CFI (cfiCond127) ?RET_HIGH load(1, XDATA, add(CFA_XSP16, literal(-4)))
        CFI (cfiCond127) ?BRET_EXT load(1, XDATA, add(CFA_XSP16, literal(-3)))
        CFI (cfiCond127) DPL0 load(1, XDATA, add(CFA_XSP16, literal(-2)))
        CFI (cfiCond127) DPH0 load(1, XDATA, add(CFA_XSP16, literal(-1)))
        CFI (cfiCond127) CFA_SP SP+0
        CFI (cfiCond127) CFA_XSP16 add(XSP16, 36)
        CFI Block cfiCond128 Using cfiCommon0
        CFI (cfiCond128) NoFunction
        CFI (cfiCond128) Conditional ??CrossCallReturnLabel_133, ??CrossCallReturnLabel_130, ??CrossCallReturnLabel_124
        CFI (cfiCond128) R6 load(1, XDATA, add(CFA_XSP16, literal(-22)))
        CFI (cfiCond128) VB load(1, XDATA, add(CFA_XSP16, literal(-21)))
        CFI (cfiCond128) V0 load(1, XDATA, add(CFA_XSP16, literal(-20)))
        CFI (cfiCond128) V1 load(1, XDATA, add(CFA_XSP16, literal(-19)))
        CFI (cfiCond128) V2 load(1, XDATA, add(CFA_XSP16, literal(-18)))
        CFI (cfiCond128) V3 load(1, XDATA, add(CFA_XSP16, literal(-17)))
        CFI (cfiCond128) V4 load(1, XDATA, add(CFA_XSP16, literal(-16)))
        CFI (cfiCond128) V5 load(1, XDATA, add(CFA_XSP16, literal(-15)))
        CFI (cfiCond128) V6 load(1, XDATA, add(CFA_XSP16, literal(-14)))
        CFI (cfiCond128) V7 load(1, XDATA, add(CFA_XSP16, literal(-13)))
        CFI (cfiCond128) V8 load(1, XDATA, add(CFA_XSP16, literal(-12)))
        CFI (cfiCond128) V9 load(1, XDATA, add(CFA_XSP16, literal(-11)))
        CFI (cfiCond128) V10 load(1, XDATA, add(CFA_XSP16, literal(-10)))
        CFI (cfiCond128) V11 load(1, XDATA, add(CFA_XSP16, literal(-9)))
        CFI (cfiCond128) V12 load(1, XDATA, add(CFA_XSP16, literal(-8)))
        CFI (cfiCond128) V13 load(1, XDATA, add(CFA_XSP16, literal(-7)))
        CFI (cfiCond128) R7 load(1, XDATA, add(CFA_XSP16, literal(-6)))
        CFI (cfiCond128) ?RET_LOW load(1, XDATA, add(CFA_XSP16, literal(-5)))
        CFI (cfiCond128) ?RET_HIGH load(1, XDATA, add(CFA_XSP16, literal(-4)))
        CFI (cfiCond128) ?BRET_EXT load(1, XDATA, add(CFA_XSP16, literal(-3)))
        CFI (cfiCond128) DPL0 load(1, XDATA, add(CFA_XSP16, literal(-2)))
        CFI (cfiCond128) DPH0 load(1, XDATA, add(CFA_XSP16, literal(-1)))
        CFI (cfiCond128) CFA_SP SP+0
        CFI (cfiCond128) CFA_XSP16 add(XSP16, 36)
        CFI Block cfiCond129 Using cfiCommon0
        CFI (cfiCond129) NoFunction
        CFI (cfiCond129) Conditional ??CrossCallReturnLabel_133, ??CrossCallReturnLabel_130, ??CrossCallReturnLabel_125
        CFI (cfiCond129) R6 load(1, XDATA, add(CFA_XSP16, literal(-22)))
        CFI (cfiCond129) VB load(1, XDATA, add(CFA_XSP16, literal(-21)))
        CFI (cfiCond129) V0 load(1, XDATA, add(CFA_XSP16, literal(-20)))
        CFI (cfiCond129) V1 load(1, XDATA, add(CFA_XSP16, literal(-19)))
        CFI (cfiCond129) V2 load(1, XDATA, add(CFA_XSP16, literal(-18)))
        CFI (cfiCond129) V3 load(1, XDATA, add(CFA_XSP16, literal(-17)))
        CFI (cfiCond129) V4 load(1, XDATA, add(CFA_XSP16, literal(-16)))
        CFI (cfiCond129) V5 load(1, XDATA, add(CFA_XSP16, literal(-15)))
        CFI (cfiCond129) V6 load(1, XDATA, add(CFA_XSP16, literal(-14)))
        CFI (cfiCond129) V7 load(1, XDATA, add(CFA_XSP16, literal(-13)))
        CFI (cfiCond129) V8 load(1, XDATA, add(CFA_XSP16, literal(-12)))
        CFI (cfiCond129) V9 load(1, XDATA, add(CFA_XSP16, literal(-11)))
        CFI (cfiCond129) V10 load(1, XDATA, add(CFA_XSP16, literal(-10)))
        CFI (cfiCond129) V11 load(1, XDATA, add(CFA_XSP16, literal(-9)))
        CFI (cfiCond129) V12 load(1, XDATA, add(CFA_XSP16, literal(-8)))
        CFI (cfiCond129) V13 load(1, XDATA, add(CFA_XSP16, literal(-7)))
        CFI (cfiCond129) R7 load(1, XDATA, add(CFA_XSP16, literal(-6)))
        CFI (cfiCond129) ?RET_LOW load(1, XDATA, add(CFA_XSP16, literal(-5)))
        CFI (cfiCond129) ?RET_HIGH load(1, XDATA, add(CFA_XSP16, literal(-4)))
        CFI (cfiCond129) ?BRET_EXT load(1, XDATA, add(CFA_XSP16, literal(-3)))
        CFI (cfiCond129) DPL0 load(1, XDATA, add(CFA_XSP16, literal(-2)))
        CFI (cfiCond129) DPH0 load(1, XDATA, add(CFA_XSP16, literal(-1)))
        CFI (cfiCond129) CFA_SP SP+0
        CFI (cfiCond129) CFA_XSP16 add(XSP16, 36)
        CFI Block cfiCond130 Using cfiCommon0
        CFI (cfiCond130) NoFunction
        CFI (cfiCond130) Conditional ??CrossCallReturnLabel_133, ??CrossCallReturnLabel_130, ??CrossCallReturnLabel_126
        CFI (cfiCond130) R6 load(1, XDATA, add(CFA_XSP16, literal(-14)))
        CFI (cfiCond130) VB load(1, XDATA, add(CFA_XSP16, literal(-13)))
        CFI (cfiCond130) V0 load(1, XDATA, add(CFA_XSP16, literal(-12)))
        CFI (cfiCond130) V1 load(1, XDATA, add(CFA_XSP16, literal(-11)))
        CFI (cfiCond130) V2 load(1, XDATA, add(CFA_XSP16, literal(-10)))
        CFI (cfiCond130) V3 load(1, XDATA, add(CFA_XSP16, literal(-9)))
        CFI (cfiCond130) V4 load(1, XDATA, add(CFA_XSP16, literal(-8)))
        CFI (cfiCond130) V5 load(1, XDATA, add(CFA_XSP16, literal(-7)))
        CFI (cfiCond130) R7 load(1, XDATA, add(CFA_XSP16, literal(-6)))
        CFI (cfiCond130) ?RET_LOW load(1, XDATA, add(CFA_XSP16, literal(-5)))
        CFI (cfiCond130) ?RET_HIGH load(1, XDATA, add(CFA_XSP16, literal(-4)))
        CFI (cfiCond130) ?BRET_EXT load(1, XDATA, add(CFA_XSP16, literal(-3)))
        CFI (cfiCond130) DPL0 load(1, XDATA, add(CFA_XSP16, literal(-2)))
        CFI (cfiCond130) DPH0 load(1, XDATA, add(CFA_XSP16, literal(-1)))
        CFI (cfiCond130) CFA_SP SP+0
        CFI (cfiCond130) CFA_XSP16 add(XSP16, 20)
        CFI Block cfiCond131 Using cfiCommon0
        CFI (cfiCond131) NoFunction
        CFI (cfiCond131) Conditional ??CrossCallReturnLabel_131
        CFI (cfiCond131) R6 load(1, XDATA, add(CFA_XSP16, literal(-24)))
        CFI (cfiCond131) VB load(1, XDATA, add(CFA_XSP16, literal(-23)))
        CFI (cfiCond131) V0 load(1, XDATA, add(CFA_XSP16, literal(-22)))
        CFI (cfiCond131) V1 load(1, XDATA, add(CFA_XSP16, literal(-21)))
        CFI (cfiCond131) V2 load(1, XDATA, add(CFA_XSP16, literal(-20)))
        CFI (cfiCond131) V3 load(1, XDATA, add(CFA_XSP16, literal(-19)))
        CFI (cfiCond131) V4 load(1, XDATA, add(CFA_XSP16, literal(-18)))
        CFI (cfiCond131) V5 load(1, XDATA, add(CFA_XSP16, literal(-17)))
        CFI (cfiCond131) V6 load(1, XDATA, add(CFA_XSP16, literal(-16)))
        CFI (cfiCond131) V7 load(1, XDATA, add(CFA_XSP16, literal(-15)))
        CFI (cfiCond131) V8 load(1, XDATA, add(CFA_XSP16, literal(-14)))
        CFI (cfiCond131) V9 load(1, XDATA, add(CFA_XSP16, literal(-13)))
        CFI (cfiCond131) V10 load(1, XDATA, add(CFA_XSP16, literal(-12)))
        CFI (cfiCond131) V11 load(1, XDATA, add(CFA_XSP16, literal(-11)))
        CFI (cfiCond131) V12 load(1, XDATA, add(CFA_XSP16, literal(-10)))
        CFI (cfiCond131) V13 load(1, XDATA, add(CFA_XSP16, literal(-9)))
        CFI (cfiCond131) V14 load(1, XDATA, add(CFA_XSP16, literal(-8)))
        CFI (cfiCond131) V15 load(1, XDATA, add(CFA_XSP16, literal(-7)))
        CFI (cfiCond131) R7 load(1, XDATA, add(CFA_XSP16, literal(-6)))
        CFI (cfiCond131) ?RET_LOW load(1, XDATA, add(CFA_XSP16, literal(-5)))
        CFI (cfiCond131) ?RET_HIGH load(1, XDATA, add(CFA_XSP16, literal(-4)))
        CFI (cfiCond131) ?BRET_EXT load(1, XDATA, add(CFA_XSP16, literal(-3)))
        CFI (cfiCond131) DPL0 load(1, XDATA, add(CFA_XSP16, literal(-2)))
        CFI (cfiCond131) DPH0 load(1, XDATA, add(CFA_XSP16, literal(-1)))
        CFI (cfiCond131) CFA_SP SP+0
        CFI (cfiCond131) CFA_XSP16 add(XSP16, 25)
        CFI Block cfiCond132 Using cfiCommon0
        CFI (cfiCond132) NoFunction
        CFI (cfiCond132) Conditional ??CrossCallReturnLabel_132
        CFI (cfiCond132) R6 load(1, XDATA, add(CFA_XSP16, literal(-24)))
        CFI (cfiCond132) VB load(1, XDATA, add(CFA_XSP16, literal(-23)))
        CFI (cfiCond132) V0 load(1, XDATA, add(CFA_XSP16, literal(-22)))
        CFI (cfiCond132) V1 load(1, XDATA, add(CFA_XSP16, literal(-21)))
        CFI (cfiCond132) V2 load(1, XDATA, add(CFA_XSP16, literal(-20)))
        CFI (cfiCond132) V3 load(1, XDATA, add(CFA_XSP16, literal(-19)))
        CFI (cfiCond132) V4 load(1, XDATA, add(CFA_XSP16, literal(-18)))
        CFI (cfiCond132) V5 load(1, XDATA, add(CFA_XSP16, literal(-17)))
        CFI (cfiCond132) V6 load(1, XDATA, add(CFA_XSP16, literal(-16)))
        CFI (cfiCond132) V7 load(1, XDATA, add(CFA_XSP16, literal(-15)))
        CFI (cfiCond132) V8 load(1, XDATA, add(CFA_XSP16, literal(-14)))
        CFI (cfiCond132) V9 load(1, XDATA, add(CFA_XSP16, literal(-13)))
        CFI (cfiCond132) V10 load(1, XDATA, add(CFA_XSP16, literal(-12)))
        CFI (cfiCond132) V11 load(1, XDATA, add(CFA_XSP16, literal(-11)))
        CFI (cfiCond132) V12 load(1, XDATA, add(CFA_XSP16, literal(-10)))
        CFI (cfiCond132) V13 load(1, XDATA, add(CFA_XSP16, literal(-9)))
        CFI (cfiCond132) V14 load(1, XDATA, add(CFA_XSP16, literal(-8)))
        CFI (cfiCond132) V15 load(1, XDATA, add(CFA_XSP16, literal(-7)))
        CFI (cfiCond132) R7 load(1, XDATA, add(CFA_XSP16, literal(-6)))
        CFI (cfiCond132) ?RET_LOW load(1, XDATA, add(CFA_XSP16, literal(-5)))
        CFI (cfiCond132) ?RET_HIGH load(1, XDATA, add(CFA_XSP16, literal(-4)))
        CFI (cfiCond132) ?BRET_EXT load(1, XDATA, add(CFA_XSP16, literal(-3)))
        CFI (cfiCond132) DPL0 load(1, XDATA, add(CFA_XSP16, literal(-2)))
        CFI (cfiCond132) DPH0 load(1, XDATA, add(CFA_XSP16, literal(-1)))
        CFI (cfiCond132) CFA_SP SP+0
        CFI (cfiCond132) CFA_XSP16 add(XSP16, 25)
        CFI Block cfiPicker133 Using cfiCommon1
        CFI (cfiPicker133) NoFunction
        CFI (cfiPicker133) Picker
        ADDC    A,#0x0
        MOV     R1,A
        MOV     DPL,R0
        MOV     DPH,R1
        RET
        CFI EndBlock cfiCond118
        CFI EndBlock cfiCond119
        CFI EndBlock cfiCond120
        CFI EndBlock cfiCond121
        CFI EndBlock cfiCond122
        CFI EndBlock cfiCond123
        CFI EndBlock cfiCond124
        CFI EndBlock cfiCond125
        CFI EndBlock cfiCond126
        CFI EndBlock cfiCond127
        CFI EndBlock cfiCond128
        CFI EndBlock cfiCond129
        CFI EndBlock cfiCond130
        CFI EndBlock cfiCond131
        CFI EndBlock cfiCond132
        CFI EndBlock cfiPicker133

        RSEG BANKED_CODE:CODE:NOROOT(0)
?Subroutine42:
        CFI Block cfiCond134 Using cfiCommon0
        CFI NoFunction
        CFI Conditional ??CrossCallReturnLabel_96
        CFI R6 load(1, XDATA, add(CFA_XSP16, literal(-9)))
        CFI VB load(1, XDATA, add(CFA_XSP16, literal(-8)))
        CFI V0 load(1, XDATA, add(CFA_XSP16, literal(-7)))
        CFI R7 load(1, XDATA, add(CFA_XSP16, literal(-6)))
        CFI ?RET_LOW load(1, XDATA, add(CFA_XSP16, literal(-5)))
        CFI ?RET_HIGH load(1, XDATA, add(CFA_XSP16, literal(-4)))
        CFI ?BRET_EXT load(1, XDATA, add(CFA_XSP16, literal(-3)))
        CFI DPL0 load(1, XDATA, add(CFA_XSP16, literal(-2)))
        CFI DPH0 load(1, XDATA, add(CFA_XSP16, literal(-1)))
        CFI CFA_SP SP+0
        CFI CFA_XSP16 add(XSP16, 9)
        CFI Block cfiCond135 Using cfiCommon0
        CFI (cfiCond135) NoFunction
        CFI (cfiCond135) Conditional ??CrossCallReturnLabel_97
        CFI (cfiCond135) R6 load(1, XDATA, add(CFA_XSP16, literal(-20)))
        CFI (cfiCond135) VB load(1, XDATA, add(CFA_XSP16, literal(-19)))
        CFI (cfiCond135) V0 load(1, XDATA, add(CFA_XSP16, literal(-18)))
        CFI (cfiCond135) V1 load(1, XDATA, add(CFA_XSP16, literal(-17)))
        CFI (cfiCond135) V2 load(1, XDATA, add(CFA_XSP16, literal(-16)))
        CFI (cfiCond135) V3 load(1, XDATA, add(CFA_XSP16, literal(-15)))
        CFI (cfiCond135) V4 load(1, XDATA, add(CFA_XSP16, literal(-14)))
        CFI (cfiCond135) V5 load(1, XDATA, add(CFA_XSP16, literal(-13)))
        CFI (cfiCond135) V6 load(1, XDATA, add(CFA_XSP16, literal(-12)))
        CFI (cfiCond135) V7 load(1, XDATA, add(CFA_XSP16, literal(-11)))
        CFI (cfiCond135) V8 load(1, XDATA, add(CFA_XSP16, literal(-10)))
        CFI (cfiCond135) V9 load(1, XDATA, add(CFA_XSP16, literal(-9)))
        CFI (cfiCond135) V10 load(1, XDATA, add(CFA_XSP16, literal(-8)))
        CFI (cfiCond135) V11 load(1, XDATA, add(CFA_XSP16, literal(-7)))
        CFI (cfiCond135) R7 load(1, XDATA, add(CFA_XSP16, literal(-6)))
        CFI (cfiCond135) ?RET_LOW load(1, XDATA, add(CFA_XSP16, literal(-5)))
        CFI (cfiCond135) ?RET_HIGH load(1, XDATA, add(CFA_XSP16, literal(-4)))
        CFI (cfiCond135) ?BRET_EXT load(1, XDATA, add(CFA_XSP16, literal(-3)))
        CFI (cfiCond135) DPL0 load(1, XDATA, add(CFA_XSP16, literal(-2)))
        CFI (cfiCond135) DPH0 load(1, XDATA, add(CFA_XSP16, literal(-1)))
        CFI (cfiCond135) CFA_SP SP+0
        CFI (cfiCond135) CFA_XSP16 add(XSP16, 20)
        CFI Block cfiPicker136 Using cfiCommon1
        CFI (cfiPicker136) NoFunction
        CFI (cfiPicker136) Picker
        MOV     DPTR,#pMtAfInMsgList
        CFI EndBlock cfiCond134
        CFI EndBlock cfiCond135
        CFI EndBlock cfiPicker136
        REQUIRE ??Subroutine53_0
        ; // Fall through to label ??Subroutine53_0

        RSEG BANKED_CODE:CODE:NOROOT(0)
??Subroutine53_0:
        CFI Block cfiCond137 Using cfiCommon0
        CFI NoFunction
        CFI Conditional ??CrossCallReturnLabel_93
        CFI R6 load(1, XDATA, add(CFA_XSP16, literal(-9)))
        CFI VB load(1, XDATA, add(CFA_XSP16, literal(-8)))
        CFI V0 load(1, XDATA, add(CFA_XSP16, literal(-7)))
        CFI R7 load(1, XDATA, add(CFA_XSP16, literal(-6)))
        CFI ?RET_LOW load(1, XDATA, add(CFA_XSP16, literal(-5)))
        CFI ?RET_HIGH load(1, XDATA, add(CFA_XSP16, literal(-4)))
        CFI ?BRET_EXT load(1, XDATA, add(CFA_XSP16, literal(-3)))
        CFI DPL0 load(1, XDATA, add(CFA_XSP16, literal(-2)))
        CFI DPH0 load(1, XDATA, add(CFA_XSP16, literal(-1)))
        CFI CFA_SP SP+0
        CFI CFA_XSP16 add(XSP16, 9)
        CFI Block cfiCond138 Using cfiCommon0
        CFI (cfiCond138) NoFunction
        CFI (cfiCond138) Conditional ??CrossCallReturnLabel_98, ??CrossCallReturnLabel_90
        CFI (cfiCond138) R6 load(1, XDATA, add(CFA_XSP16, literal(-22)))
        CFI (cfiCond138) VB load(1, XDATA, add(CFA_XSP16, literal(-21)))
        CFI (cfiCond138) V0 load(1, XDATA, add(CFA_XSP16, literal(-20)))
        CFI (cfiCond138) V1 load(1, XDATA, add(CFA_XSP16, literal(-19)))
        CFI (cfiCond138) V2 load(1, XDATA, add(CFA_XSP16, literal(-18)))
        CFI (cfiCond138) V3 load(1, XDATA, add(CFA_XSP16, literal(-17)))
        CFI (cfiCond138) V4 load(1, XDATA, add(CFA_XSP16, literal(-16)))
        CFI (cfiCond138) V5 load(1, XDATA, add(CFA_XSP16, literal(-15)))
        CFI (cfiCond138) V6 load(1, XDATA, add(CFA_XSP16, literal(-14)))
        CFI (cfiCond138) V7 load(1, XDATA, add(CFA_XSP16, literal(-13)))
        CFI (cfiCond138) V8 load(1, XDATA, add(CFA_XSP16, literal(-12)))
        CFI (cfiCond138) V9 load(1, XDATA, add(CFA_XSP16, literal(-11)))
        CFI (cfiCond138) V10 load(1, XDATA, add(CFA_XSP16, literal(-10)))
        CFI (cfiCond138) V11 load(1, XDATA, add(CFA_XSP16, literal(-9)))
        CFI (cfiCond138) V12 load(1, XDATA, add(CFA_XSP16, literal(-8)))
        CFI (cfiCond138) V13 load(1, XDATA, add(CFA_XSP16, literal(-7)))
        CFI (cfiCond138) R7 load(1, XDATA, add(CFA_XSP16, literal(-6)))
        CFI (cfiCond138) ?RET_LOW load(1, XDATA, add(CFA_XSP16, literal(-5)))
        CFI (cfiCond138) ?RET_HIGH load(1, XDATA, add(CFA_XSP16, literal(-4)))
        CFI (cfiCond138) ?BRET_EXT load(1, XDATA, add(CFA_XSP16, literal(-3)))
        CFI (cfiCond138) DPL0 load(1, XDATA, add(CFA_XSP16, literal(-2)))
        CFI (cfiCond138) DPH0 load(1, XDATA, add(CFA_XSP16, literal(-1)))
        CFI (cfiCond138) CFA_SP SP+0
        CFI (cfiCond138) CFA_XSP16 add(XSP16, 36)
        CFI Block cfiCond139 Using cfiCommon0
        CFI (cfiCond139) NoFunction
        CFI (cfiCond139) Conditional ??CrossCallReturnLabel_98, ??CrossCallReturnLabel_91, ??CrossCallReturnLabel_8
        CFI (cfiCond139) R6 load(1, XDATA, add(CFA_XSP16, literal(-22)))
        CFI (cfiCond139) VB load(1, XDATA, add(CFA_XSP16, literal(-21)))
        CFI (cfiCond139) V0 load(1, XDATA, add(CFA_XSP16, literal(-20)))
        CFI (cfiCond139) V1 load(1, XDATA, add(CFA_XSP16, literal(-19)))
        CFI (cfiCond139) V2 load(1, XDATA, add(CFA_XSP16, literal(-18)))
        CFI (cfiCond139) V3 load(1, XDATA, add(CFA_XSP16, literal(-17)))
        CFI (cfiCond139) V4 load(1, XDATA, add(CFA_XSP16, literal(-16)))
        CFI (cfiCond139) V5 load(1, XDATA, add(CFA_XSP16, literal(-15)))
        CFI (cfiCond139) V6 load(1, XDATA, add(CFA_XSP16, literal(-14)))
        CFI (cfiCond139) V7 load(1, XDATA, add(CFA_XSP16, literal(-13)))
        CFI (cfiCond139) V8 load(1, XDATA, add(CFA_XSP16, literal(-12)))
        CFI (cfiCond139) V9 load(1, XDATA, add(CFA_XSP16, literal(-11)))
        CFI (cfiCond139) V10 load(1, XDATA, add(CFA_XSP16, literal(-10)))
        CFI (cfiCond139) V11 load(1, XDATA, add(CFA_XSP16, literal(-9)))
        CFI (cfiCond139) V12 load(1, XDATA, add(CFA_XSP16, literal(-8)))
        CFI (cfiCond139) V13 load(1, XDATA, add(CFA_XSP16, literal(-7)))
        CFI (cfiCond139) R7 load(1, XDATA, add(CFA_XSP16, literal(-6)))
        CFI (cfiCond139) ?RET_LOW load(1, XDATA, add(CFA_XSP16, literal(-5)))
        CFI (cfiCond139) ?RET_HIGH load(1, XDATA, add(CFA_XSP16, literal(-4)))
        CFI (cfiCond139) ?BRET_EXT load(1, XDATA, add(CFA_XSP16, literal(-3)))
        CFI (cfiCond139) DPL0 load(1, XDATA, add(CFA_XSP16, literal(-2)))
        CFI (cfiCond139) DPH0 load(1, XDATA, add(CFA_XSP16, literal(-1)))
        CFI (cfiCond139) CFA_SP SP+0
        CFI (cfiCond139) CFA_XSP16 add(XSP16, 36)
        CFI Block cfiCond140 Using cfiCommon0
        CFI (cfiCond140) NoFunction
        CFI (cfiCond140) Conditional ??CrossCallReturnLabel_98, ??CrossCallReturnLabel_91, ??CrossCallReturnLabel_9
        CFI (cfiCond140) R6 load(1, XDATA, add(CFA_XSP16, literal(-22)))
        CFI (cfiCond140) VB load(1, XDATA, add(CFA_XSP16, literal(-21)))
        CFI (cfiCond140) V0 load(1, XDATA, add(CFA_XSP16, literal(-20)))
        CFI (cfiCond140) V1 load(1, XDATA, add(CFA_XSP16, literal(-19)))
        CFI (cfiCond140) V2 load(1, XDATA, add(CFA_XSP16, literal(-18)))
        CFI (cfiCond140) V3 load(1, XDATA, add(CFA_XSP16, literal(-17)))
        CFI (cfiCond140) V4 load(1, XDATA, add(CFA_XSP16, literal(-16)))
        CFI (cfiCond140) V5 load(1, XDATA, add(CFA_XSP16, literal(-15)))
        CFI (cfiCond140) V6 load(1, XDATA, add(CFA_XSP16, literal(-14)))
        CFI (cfiCond140) V7 load(1, XDATA, add(CFA_XSP16, literal(-13)))
        CFI (cfiCond140) V8 load(1, XDATA, add(CFA_XSP16, literal(-12)))
        CFI (cfiCond140) V9 load(1, XDATA, add(CFA_XSP16, literal(-11)))
        CFI (cfiCond140) V10 load(1, XDATA, add(CFA_XSP16, literal(-10)))
        CFI (cfiCond140) V11 load(1, XDATA, add(CFA_XSP16, literal(-9)))
        CFI (cfiCond140) V12 load(1, XDATA, add(CFA_XSP16, literal(-8)))
        CFI (cfiCond140) V13 load(1, XDATA, add(CFA_XSP16, literal(-7)))
        CFI (cfiCond140) R7 load(1, XDATA, add(CFA_XSP16, literal(-6)))
        CFI (cfiCond140) ?RET_LOW load(1, XDATA, add(CFA_XSP16, literal(-5)))
        CFI (cfiCond140) ?RET_HIGH load(1, XDATA, add(CFA_XSP16, literal(-4)))
        CFI (cfiCond140) ?BRET_EXT load(1, XDATA, add(CFA_XSP16, literal(-3)))
        CFI (cfiCond140) DPL0 load(1, XDATA, add(CFA_XSP16, literal(-2)))
        CFI (cfiCond140) DPH0 load(1, XDATA, add(CFA_XSP16, literal(-1)))
        CFI (cfiCond140) CFA_SP SP+0
        CFI (cfiCond140) CFA_XSP16 add(XSP16, 36)
        CFI Block cfiCond141 Using cfiCommon0
        CFI (cfiCond141) NoFunction
        CFI (cfiCond141) Conditional ??CrossCallReturnLabel_98, ??CrossCallReturnLabel_92, ??CrossCallReturnLabel_88
        CFI (cfiCond141) R6 load(1, XDATA, add(CFA_XSP16, literal(-22)))
        CFI (cfiCond141) VB load(1, XDATA, add(CFA_XSP16, literal(-21)))
        CFI (cfiCond141) V0 load(1, XDATA, add(CFA_XSP16, literal(-20)))
        CFI (cfiCond141) V1 load(1, XDATA, add(CFA_XSP16, literal(-19)))
        CFI (cfiCond141) V2 load(1, XDATA, add(CFA_XSP16, literal(-18)))
        CFI (cfiCond141) V3 load(1, XDATA, add(CFA_XSP16, literal(-17)))
        CFI (cfiCond141) V4 load(1, XDATA, add(CFA_XSP16, literal(-16)))
        CFI (cfiCond141) V5 load(1, XDATA, add(CFA_XSP16, literal(-15)))
        CFI (cfiCond141) V6 load(1, XDATA, add(CFA_XSP16, literal(-14)))
        CFI (cfiCond141) V7 load(1, XDATA, add(CFA_XSP16, literal(-13)))
        CFI (cfiCond141) V8 load(1, XDATA, add(CFA_XSP16, literal(-12)))
        CFI (cfiCond141) V9 load(1, XDATA, add(CFA_XSP16, literal(-11)))
        CFI (cfiCond141) V10 load(1, XDATA, add(CFA_XSP16, literal(-10)))
        CFI (cfiCond141) V11 load(1, XDATA, add(CFA_XSP16, literal(-9)))
        CFI (cfiCond141) V12 load(1, XDATA, add(CFA_XSP16, literal(-8)))
        CFI (cfiCond141) V13 load(1, XDATA, add(CFA_XSP16, literal(-7)))
        CFI (cfiCond141) R7 load(1, XDATA, add(CFA_XSP16, literal(-6)))
        CFI (cfiCond141) ?RET_LOW load(1, XDATA, add(CFA_XSP16, literal(-5)))
        CFI (cfiCond141) ?RET_HIGH load(1, XDATA, add(CFA_XSP16, literal(-4)))
        CFI (cfiCond141) ?BRET_EXT load(1, XDATA, add(CFA_XSP16, literal(-3)))
        CFI (cfiCond141) DPL0 load(1, XDATA, add(CFA_XSP16, literal(-2)))
        CFI (cfiCond141) DPH0 load(1, XDATA, add(CFA_XSP16, literal(-1)))
        CFI (cfiCond141) CFA_SP SP+0
        CFI (cfiCond141) CFA_XSP16 add(XSP16, 36)
        CFI Block cfiCond142 Using cfiCommon0
        CFI (cfiCond142) NoFunction
        CFI (cfiCond142) Conditional ??CrossCallReturnLabel_98, ??CrossCallReturnLabel_92, ??CrossCallReturnLabel_89
        CFI (cfiCond142) R6 load(1, XDATA, add(CFA_XSP16, literal(-20)))
        CFI (cfiCond142) VB load(1, XDATA, add(CFA_XSP16, literal(-19)))
        CFI (cfiCond142) V0 load(1, XDATA, add(CFA_XSP16, literal(-18)))
        CFI (cfiCond142) V1 load(1, XDATA, add(CFA_XSP16, literal(-17)))
        CFI (cfiCond142) V2 load(1, XDATA, add(CFA_XSP16, literal(-16)))
        CFI (cfiCond142) V3 load(1, XDATA, add(CFA_XSP16, literal(-15)))
        CFI (cfiCond142) V4 load(1, XDATA, add(CFA_XSP16, literal(-14)))
        CFI (cfiCond142) V5 load(1, XDATA, add(CFA_XSP16, literal(-13)))
        CFI (cfiCond142) V6 load(1, XDATA, add(CFA_XSP16, literal(-12)))
        CFI (cfiCond142) V7 load(1, XDATA, add(CFA_XSP16, literal(-11)))
        CFI (cfiCond142) V8 load(1, XDATA, add(CFA_XSP16, literal(-10)))
        CFI (cfiCond142) V9 load(1, XDATA, add(CFA_XSP16, literal(-9)))
        CFI (cfiCond142) V10 load(1, XDATA, add(CFA_XSP16, literal(-8)))
        CFI (cfiCond142) V11 load(1, XDATA, add(CFA_XSP16, literal(-7)))
        CFI (cfiCond142) R7 load(1, XDATA, add(CFA_XSP16, literal(-6)))
        CFI (cfiCond142) ?RET_LOW load(1, XDATA, add(CFA_XSP16, literal(-5)))
        CFI (cfiCond142) ?RET_HIGH load(1, XDATA, add(CFA_XSP16, literal(-4)))
        CFI (cfiCond142) ?BRET_EXT load(1, XDATA, add(CFA_XSP16, literal(-3)))
        CFI (cfiCond142) DPL0 load(1, XDATA, add(CFA_XSP16, literal(-2)))
        CFI (cfiCond142) DPH0 load(1, XDATA, add(CFA_XSP16, literal(-1)))
        CFI (cfiCond142) CFA_SP SP+0
        CFI (cfiCond142) CFA_XSP16 add(XSP16, 20)
        CFI Block cfiCond143 Using cfiCommon0
        CFI (cfiCond143) NoFunction
        CFI (cfiCond143) Conditional ??CrossCallReturnLabel_98, ??CrossCallReturnLabel_92, ??CrossCallReturnLabel_87
        CFI (cfiCond143) R6 load(1, XDATA, add(CFA_XSP16, literal(-22)))
        CFI (cfiCond143) VB load(1, XDATA, add(CFA_XSP16, literal(-21)))
        CFI (cfiCond143) V0 load(1, XDATA, add(CFA_XSP16, literal(-20)))
        CFI (cfiCond143) V1 load(1, XDATA, add(CFA_XSP16, literal(-19)))
        CFI (cfiCond143) V2 load(1, XDATA, add(CFA_XSP16, literal(-18)))
        CFI (cfiCond143) V3 load(1, XDATA, add(CFA_XSP16, literal(-17)))
        CFI (cfiCond143) V4 load(1, XDATA, add(CFA_XSP16, literal(-16)))
        CFI (cfiCond143) V5 load(1, XDATA, add(CFA_XSP16, literal(-15)))
        CFI (cfiCond143) V6 load(1, XDATA, add(CFA_XSP16, literal(-14)))
        CFI (cfiCond143) V7 load(1, XDATA, add(CFA_XSP16, literal(-13)))
        CFI (cfiCond143) V8 load(1, XDATA, add(CFA_XSP16, literal(-12)))
        CFI (cfiCond143) V9 load(1, XDATA, add(CFA_XSP16, literal(-11)))
        CFI (cfiCond143) V10 load(1, XDATA, add(CFA_XSP16, literal(-10)))
        CFI (cfiCond143) V11 load(1, XDATA, add(CFA_XSP16, literal(-9)))
        CFI (cfiCond143) V12 load(1, XDATA, add(CFA_XSP16, literal(-8)))
        CFI (cfiCond143) V13 load(1, XDATA, add(CFA_XSP16, literal(-7)))
        CFI (cfiCond143) R7 load(1, XDATA, add(CFA_XSP16, literal(-6)))
        CFI (cfiCond143) ?RET_LOW load(1, XDATA, add(CFA_XSP16, literal(-5)))
        CFI (cfiCond143) ?RET_HIGH load(1, XDATA, add(CFA_XSP16, literal(-4)))
        CFI (cfiCond143) ?BRET_EXT load(1, XDATA, add(CFA_XSP16, literal(-3)))
        CFI (cfiCond143) DPL0 load(1, XDATA, add(CFA_XSP16, literal(-2)))
        CFI (cfiCond143) DPH0 load(1, XDATA, add(CFA_XSP16, literal(-1)))
        CFI (cfiCond143) CFA_SP SP+0
        CFI (cfiCond143) CFA_XSP16 add(XSP16, 36)
        CFI Block cfiCond144 Using cfiCommon0
        CFI (cfiCond144) NoFunction
        CFI (cfiCond144) Conditional ??CrossCallReturnLabel_94
        CFI (cfiCond144) R6 load(1, XDATA, add(CFA_XSP16, literal(-24)))
        CFI (cfiCond144) VB load(1, XDATA, add(CFA_XSP16, literal(-23)))
        CFI (cfiCond144) V0 load(1, XDATA, add(CFA_XSP16, literal(-22)))
        CFI (cfiCond144) V1 load(1, XDATA, add(CFA_XSP16, literal(-21)))
        CFI (cfiCond144) V2 load(1, XDATA, add(CFA_XSP16, literal(-20)))
        CFI (cfiCond144) V3 load(1, XDATA, add(CFA_XSP16, literal(-19)))
        CFI (cfiCond144) V4 load(1, XDATA, add(CFA_XSP16, literal(-18)))
        CFI (cfiCond144) V5 load(1, XDATA, add(CFA_XSP16, literal(-17)))
        CFI (cfiCond144) V6 load(1, XDATA, add(CFA_XSP16, literal(-16)))
        CFI (cfiCond144) V7 load(1, XDATA, add(CFA_XSP16, literal(-15)))
        CFI (cfiCond144) V8 load(1, XDATA, add(CFA_XSP16, literal(-14)))
        CFI (cfiCond144) V9 load(1, XDATA, add(CFA_XSP16, literal(-13)))
        CFI (cfiCond144) V10 load(1, XDATA, add(CFA_XSP16, literal(-12)))
        CFI (cfiCond144) V11 load(1, XDATA, add(CFA_XSP16, literal(-11)))
        CFI (cfiCond144) V12 load(1, XDATA, add(CFA_XSP16, literal(-10)))
        CFI (cfiCond144) V13 load(1, XDATA, add(CFA_XSP16, literal(-9)))
        CFI (cfiCond144) V14 load(1, XDATA, add(CFA_XSP16, literal(-8)))
        CFI (cfiCond144) V15 load(1, XDATA, add(CFA_XSP16, literal(-7)))
        CFI (cfiCond144) R7 load(1, XDATA, add(CFA_XSP16, literal(-6)))
        CFI (cfiCond144) ?RET_LOW load(1, XDATA, add(CFA_XSP16, literal(-5)))
        CFI (cfiCond144) ?RET_HIGH load(1, XDATA, add(CFA_XSP16, literal(-4)))
        CFI (cfiCond144) ?BRET_EXT load(1, XDATA, add(CFA_XSP16, literal(-3)))
        CFI (cfiCond144) DPL0 load(1, XDATA, add(CFA_XSP16, literal(-2)))
        CFI (cfiCond144) DPH0 load(1, XDATA, add(CFA_XSP16, literal(-1)))
        CFI (cfiCond144) CFA_SP SP+0
        CFI (cfiCond144) CFA_XSP16 add(XSP16, 28)
        CFI Block cfiCond145 Using cfiCommon0
        CFI (cfiCond145) NoFunction
        CFI (cfiCond145) Conditional ??CrossCallReturnLabel_95, ??CrossCallReturnLabel_6
        CFI (cfiCond145) R6 load(1, XDATA, add(CFA_XSP16, literal(-9)))
        CFI (cfiCond145) VB load(1, XDATA, add(CFA_XSP16, literal(-8)))
        CFI (cfiCond145) V0 load(1, XDATA, add(CFA_XSP16, literal(-7)))
        CFI (cfiCond145) R7 load(1, XDATA, add(CFA_XSP16, literal(-6)))
        CFI (cfiCond145) ?RET_LOW load(1, XDATA, add(CFA_XSP16, literal(-5)))
        CFI (cfiCond145) ?RET_HIGH load(1, XDATA, add(CFA_XSP16, literal(-4)))
        CFI (cfiCond145) ?BRET_EXT load(1, XDATA, add(CFA_XSP16, literal(-3)))
        CFI (cfiCond145) DPL0 load(1, XDATA, add(CFA_XSP16, literal(-2)))
        CFI (cfiCond145) DPH0 load(1, XDATA, add(CFA_XSP16, literal(-1)))
        CFI (cfiCond145) CFA_SP SP+0
        CFI (cfiCond145) CFA_XSP16 add(XSP16, 9)
        CFI Block cfiCond146 Using cfiCommon0
        CFI (cfiCond146) NoFunction
        CFI (cfiCond146) Conditional ??CrossCallReturnLabel_95, ??CrossCallReturnLabel_7
        CFI (cfiCond146) R6 load(1, XDATA, add(CFA_XSP16, literal(-14)))
        CFI (cfiCond146) VB load(1, XDATA, add(CFA_XSP16, literal(-13)))
        CFI (cfiCond146) V0 load(1, XDATA, add(CFA_XSP16, literal(-12)))
        CFI (cfiCond146) V1 load(1, XDATA, add(CFA_XSP16, literal(-11)))
        CFI (cfiCond146) V2 load(1, XDATA, add(CFA_XSP16, literal(-10)))
        CFI (cfiCond146) V3 load(1, XDATA, add(CFA_XSP16, literal(-9)))
        CFI (cfiCond146) V4 load(1, XDATA, add(CFA_XSP16, literal(-8)))
        CFI (cfiCond146) V5 load(1, XDATA, add(CFA_XSP16, literal(-7)))
        CFI (cfiCond146) R7 load(1, XDATA, add(CFA_XSP16, literal(-6)))
        CFI (cfiCond146) ?RET_LOW load(1, XDATA, add(CFA_XSP16, literal(-5)))
        CFI (cfiCond146) ?RET_HIGH load(1, XDATA, add(CFA_XSP16, literal(-4)))
        CFI (cfiCond146) ?BRET_EXT load(1, XDATA, add(CFA_XSP16, literal(-3)))
        CFI (cfiCond146) DPL0 load(1, XDATA, add(CFA_XSP16, literal(-2)))
        CFI (cfiCond146) DPH0 load(1, XDATA, add(CFA_XSP16, literal(-1)))
        CFI (cfiCond146) CFA_SP SP+0
        CFI (cfiCond146) CFA_XSP16 add(XSP16, 15)
        CFI Block cfiCond147 Using cfiCommon0
        CFI (cfiCond147) NoFunction
        CFI (cfiCond147) Conditional ??CrossCallReturnLabel_96
        CFI (cfiCond147) R6 load(1, XDATA, add(CFA_XSP16, literal(-9)))
        CFI (cfiCond147) VB load(1, XDATA, add(CFA_XSP16, literal(-8)))
        CFI (cfiCond147) V0 load(1, XDATA, add(CFA_XSP16, literal(-7)))
        CFI (cfiCond147) R7 load(1, XDATA, add(CFA_XSP16, literal(-6)))
        CFI (cfiCond147) ?RET_LOW load(1, XDATA, add(CFA_XSP16, literal(-5)))
        CFI (cfiCond147) ?RET_HIGH load(1, XDATA, add(CFA_XSP16, literal(-4)))
        CFI (cfiCond147) ?BRET_EXT load(1, XDATA, add(CFA_XSP16, literal(-3)))
        CFI (cfiCond147) DPL0 load(1, XDATA, add(CFA_XSP16, literal(-2)))
        CFI (cfiCond147) DPH0 load(1, XDATA, add(CFA_XSP16, literal(-1)))
        CFI (cfiCond147) CFA_SP SP+0
        CFI (cfiCond147) CFA_XSP16 add(XSP16, 9)
        CFI Block cfiCond148 Using cfiCommon0
        CFI (cfiCond148) NoFunction
        CFI (cfiCond148) Conditional ??CrossCallReturnLabel_97
        CFI (cfiCond148) R6 load(1, XDATA, add(CFA_XSP16, literal(-20)))
        CFI (cfiCond148) VB load(1, XDATA, add(CFA_XSP16, literal(-19)))
        CFI (cfiCond148) V0 load(1, XDATA, add(CFA_XSP16, literal(-18)))
        CFI (cfiCond148) V1 load(1, XDATA, add(CFA_XSP16, literal(-17)))
        CFI (cfiCond148) V2 load(1, XDATA, add(CFA_XSP16, literal(-16)))
        CFI (cfiCond148) V3 load(1, XDATA, add(CFA_XSP16, literal(-15)))
        CFI (cfiCond148) V4 load(1, XDATA, add(CFA_XSP16, literal(-14)))
        CFI (cfiCond148) V5 load(1, XDATA, add(CFA_XSP16, literal(-13)))
        CFI (cfiCond148) V6 load(1, XDATA, add(CFA_XSP16, literal(-12)))
        CFI (cfiCond148) V7 load(1, XDATA, add(CFA_XSP16, literal(-11)))
        CFI (cfiCond148) V8 load(1, XDATA, add(CFA_XSP16, literal(-10)))
        CFI (cfiCond148) V9 load(1, XDATA, add(CFA_XSP16, literal(-9)))
        CFI (cfiCond148) V10 load(1, XDATA, add(CFA_XSP16, literal(-8)))
        CFI (cfiCond148) V11 load(1, XDATA, add(CFA_XSP16, literal(-7)))
        CFI (cfiCond148) R7 load(1, XDATA, add(CFA_XSP16, literal(-6)))
        CFI (cfiCond148) ?RET_LOW load(1, XDATA, add(CFA_XSP16, literal(-5)))
        CFI (cfiCond148) ?RET_HIGH load(1, XDATA, add(CFA_XSP16, literal(-4)))
        CFI (cfiCond148) ?BRET_EXT load(1, XDATA, add(CFA_XSP16, literal(-3)))
        CFI (cfiCond148) DPL0 load(1, XDATA, add(CFA_XSP16, literal(-2)))
        CFI (cfiCond148) DPH0 load(1, XDATA, add(CFA_XSP16, literal(-1)))
        CFI (cfiCond148) CFA_SP SP+0
        CFI (cfiCond148) CFA_XSP16 add(XSP16, 20)
        CFI Block cfiPicker149 Using cfiCommon1
        CFI (cfiPicker149) NoFunction
        CFI (cfiPicker149) Picker
        MOVX    A,@DPTR
        MOV     R2,A
        INC     DPTR
        MOVX    A,@DPTR
        RET
        CFI EndBlock cfiCond137
        CFI EndBlock cfiCond138
        CFI EndBlock cfiCond139
        CFI EndBlock cfiCond140
        CFI EndBlock cfiCond141
        CFI EndBlock cfiCond142
        CFI EndBlock cfiCond143
        CFI EndBlock cfiCond144
        CFI EndBlock cfiCond145
        CFI EndBlock cfiCond146
        CFI EndBlock cfiCond147
        CFI EndBlock cfiCond148
        CFI EndBlock cfiPicker149

        RSEG BANKED_CODE:CODE:NOROOT(0)
?Subroutine37:
        CFI Block cfiCond150 Using cfiCommon0
        CFI NoFunction
        CFI Conditional ??CrossCallReturnLabel_80
        CFI R6 load(1, XDATA, add(CFA_XSP16, literal(-9)))
        CFI VB load(1, XDATA, add(CFA_XSP16, literal(-8)))
        CFI V0 load(1, XDATA, add(CFA_XSP16, literal(-7)))
        CFI R7 load(1, XDATA, add(CFA_XSP16, literal(-6)))
        CFI ?RET_LOW load(1, XDATA, add(CFA_XSP16, literal(-5)))
        CFI ?RET_HIGH load(1, XDATA, add(CFA_XSP16, literal(-4)))
        CFI ?BRET_EXT load(1, XDATA, add(CFA_XSP16, literal(-3)))
        CFI DPL0 load(1, XDATA, add(CFA_XSP16, literal(-2)))
        CFI DPH0 load(1, XDATA, add(CFA_XSP16, literal(-1)))
        CFI CFA_SP SP+0
        CFI CFA_XSP16 add(XSP16, 9)
        CFI Block cfiCond151 Using cfiCommon0
        CFI (cfiCond151) NoFunction
        CFI (cfiCond151) Conditional ??CrossCallReturnLabel_83, ??CrossCallReturnLabel_75
        CFI (cfiCond151) R6 load(1, XDATA, add(CFA_XSP16, literal(-9)))
        CFI (cfiCond151) VB load(1, XDATA, add(CFA_XSP16, literal(-8)))
        CFI (cfiCond151) V0 load(1, XDATA, add(CFA_XSP16, literal(-7)))
        CFI (cfiCond151) R7 load(1, XDATA, add(CFA_XSP16, literal(-6)))
        CFI (cfiCond151) ?RET_LOW load(1, XDATA, add(CFA_XSP16, literal(-5)))
        CFI (cfiCond151) ?RET_HIGH load(1, XDATA, add(CFA_XSP16, literal(-4)))
        CFI (cfiCond151) ?BRET_EXT load(1, XDATA, add(CFA_XSP16, literal(-3)))
        CFI (cfiCond151) DPL0 load(1, XDATA, add(CFA_XSP16, literal(-2)))
        CFI (cfiCond151) DPH0 load(1, XDATA, add(CFA_XSP16, literal(-1)))
        CFI (cfiCond151) CFA_SP SP+0
        CFI (cfiCond151) CFA_XSP16 add(XSP16, 9)
        CFI Block cfiCond152 Using cfiCommon0
        CFI (cfiCond152) NoFunction
        CFI (cfiCond152) Conditional ??CrossCallReturnLabel_83, ??CrossCallReturnLabel_76
        CFI (cfiCond152) R6 load(1, XDATA, add(CFA_XSP16, literal(-9)))
        CFI (cfiCond152) VB load(1, XDATA, add(CFA_XSP16, literal(-8)))
        CFI (cfiCond152) V0 load(1, XDATA, add(CFA_XSP16, literal(-7)))
        CFI (cfiCond152) R7 load(1, XDATA, add(CFA_XSP16, literal(-6)))
        CFI (cfiCond152) ?RET_LOW load(1, XDATA, add(CFA_XSP16, literal(-5)))
        CFI (cfiCond152) ?RET_HIGH load(1, XDATA, add(CFA_XSP16, literal(-4)))
        CFI (cfiCond152) ?BRET_EXT load(1, XDATA, add(CFA_XSP16, literal(-3)))
        CFI (cfiCond152) DPL0 load(1, XDATA, add(CFA_XSP16, literal(-2)))
        CFI (cfiCond152) DPH0 load(1, XDATA, add(CFA_XSP16, literal(-1)))
        CFI (cfiCond152) CFA_SP SP+0
        CFI (cfiCond152) CFA_XSP16 add(XSP16, 9)
        CFI Block cfiCond153 Using cfiCommon0
        CFI (cfiCond153) NoFunction
        CFI (cfiCond153) Conditional ??CrossCallReturnLabel_83, ??CrossCallReturnLabel_77
        CFI (cfiCond153) R6 load(1, XDATA, add(CFA_XSP16, literal(-22)))
        CFI (cfiCond153) VB load(1, XDATA, add(CFA_XSP16, literal(-21)))
        CFI (cfiCond153) V0 load(1, XDATA, add(CFA_XSP16, literal(-20)))
        CFI (cfiCond153) V1 load(1, XDATA, add(CFA_XSP16, literal(-19)))
        CFI (cfiCond153) V2 load(1, XDATA, add(CFA_XSP16, literal(-18)))
        CFI (cfiCond153) V3 load(1, XDATA, add(CFA_XSP16, literal(-17)))
        CFI (cfiCond153) V4 load(1, XDATA, add(CFA_XSP16, literal(-16)))
        CFI (cfiCond153) V5 load(1, XDATA, add(CFA_XSP16, literal(-15)))
        CFI (cfiCond153) V6 load(1, XDATA, add(CFA_XSP16, literal(-14)))
        CFI (cfiCond153) V7 load(1, XDATA, add(CFA_XSP16, literal(-13)))
        CFI (cfiCond153) V8 load(1, XDATA, add(CFA_XSP16, literal(-12)))
        CFI (cfiCond153) V9 load(1, XDATA, add(CFA_XSP16, literal(-11)))
        CFI (cfiCond153) V10 load(1, XDATA, add(CFA_XSP16, literal(-10)))
        CFI (cfiCond153) V11 load(1, XDATA, add(CFA_XSP16, literal(-9)))
        CFI (cfiCond153) V12 load(1, XDATA, add(CFA_XSP16, literal(-8)))
        CFI (cfiCond153) V13 load(1, XDATA, add(CFA_XSP16, literal(-7)))
        CFI (cfiCond153) R7 load(1, XDATA, add(CFA_XSP16, literal(-6)))
        CFI (cfiCond153) ?RET_LOW load(1, XDATA, add(CFA_XSP16, literal(-5)))
        CFI (cfiCond153) ?RET_HIGH load(1, XDATA, add(CFA_XSP16, literal(-4)))
        CFI (cfiCond153) ?BRET_EXT load(1, XDATA, add(CFA_XSP16, literal(-3)))
        CFI (cfiCond153) DPL0 load(1, XDATA, add(CFA_XSP16, literal(-2)))
        CFI (cfiCond153) DPH0 load(1, XDATA, add(CFA_XSP16, literal(-1)))
        CFI (cfiCond153) CFA_SP SP+0
        CFI (cfiCond153) CFA_XSP16 add(XSP16, 36)
        CFI Block cfiCond154 Using cfiCommon0
        CFI (cfiCond154) NoFunction
        CFI (cfiCond154) Conditional ??CrossCallReturnLabel_83, ??CrossCallReturnLabel_78
        CFI (cfiCond154) R6 load(1, XDATA, add(CFA_XSP16, literal(-22)))
        CFI (cfiCond154) VB load(1, XDATA, add(CFA_XSP16, literal(-21)))
        CFI (cfiCond154) V0 load(1, XDATA, add(CFA_XSP16, literal(-20)))
        CFI (cfiCond154) V1 load(1, XDATA, add(CFA_XSP16, literal(-19)))
        CFI (cfiCond154) V2 load(1, XDATA, add(CFA_XSP16, literal(-18)))
        CFI (cfiCond154) V3 load(1, XDATA, add(CFA_XSP16, literal(-17)))
        CFI (cfiCond154) V4 load(1, XDATA, add(CFA_XSP16, literal(-16)))
        CFI (cfiCond154) V5 load(1, XDATA, add(CFA_XSP16, literal(-15)))
        CFI (cfiCond154) V6 load(1, XDATA, add(CFA_XSP16, literal(-14)))
        CFI (cfiCond154) V7 load(1, XDATA, add(CFA_XSP16, literal(-13)))
        CFI (cfiCond154) V8 load(1, XDATA, add(CFA_XSP16, literal(-12)))
        CFI (cfiCond154) V9 load(1, XDATA, add(CFA_XSP16, literal(-11)))
        CFI (cfiCond154) V10 load(1, XDATA, add(CFA_XSP16, literal(-10)))
        CFI (cfiCond154) V11 load(1, XDATA, add(CFA_XSP16, literal(-9)))
        CFI (cfiCond154) V12 load(1, XDATA, add(CFA_XSP16, literal(-8)))
        CFI (cfiCond154) V13 load(1, XDATA, add(CFA_XSP16, literal(-7)))
        CFI (cfiCond154) R7 load(1, XDATA, add(CFA_XSP16, literal(-6)))
        CFI (cfiCond154) ?RET_LOW load(1, XDATA, add(CFA_XSP16, literal(-5)))
        CFI (cfiCond154) ?RET_HIGH load(1, XDATA, add(CFA_XSP16, literal(-4)))
        CFI (cfiCond154) ?BRET_EXT load(1, XDATA, add(CFA_XSP16, literal(-3)))
        CFI (cfiCond154) DPL0 load(1, XDATA, add(CFA_XSP16, literal(-2)))
        CFI (cfiCond154) DPH0 load(1, XDATA, add(CFA_XSP16, literal(-1)))
        CFI (cfiCond154) CFA_SP SP+0
        CFI (cfiCond154) CFA_XSP16 add(XSP16, 36)
        CFI Block cfiCond155 Using cfiCommon0
        CFI (cfiCond155) NoFunction
        CFI (cfiCond155) Conditional ??CrossCallReturnLabel_83, ??CrossCallReturnLabel_79
        CFI (cfiCond155) R6 load(1, XDATA, add(CFA_XSP16, literal(-14)))
        CFI (cfiCond155) VB load(1, XDATA, add(CFA_XSP16, literal(-13)))
        CFI (cfiCond155) V0 load(1, XDATA, add(CFA_XSP16, literal(-12)))
        CFI (cfiCond155) V1 load(1, XDATA, add(CFA_XSP16, literal(-11)))
        CFI (cfiCond155) V2 load(1, XDATA, add(CFA_XSP16, literal(-10)))
        CFI (cfiCond155) V3 load(1, XDATA, add(CFA_XSP16, literal(-9)))
        CFI (cfiCond155) V4 load(1, XDATA, add(CFA_XSP16, literal(-8)))
        CFI (cfiCond155) V5 load(1, XDATA, add(CFA_XSP16, literal(-7)))
        CFI (cfiCond155) R7 load(1, XDATA, add(CFA_XSP16, literal(-6)))
        CFI (cfiCond155) ?RET_LOW load(1, XDATA, add(CFA_XSP16, literal(-5)))
        CFI (cfiCond155) ?RET_HIGH load(1, XDATA, add(CFA_XSP16, literal(-4)))
        CFI (cfiCond155) ?BRET_EXT load(1, XDATA, add(CFA_XSP16, literal(-3)))
        CFI (cfiCond155) DPL0 load(1, XDATA, add(CFA_XSP16, literal(-2)))
        CFI (cfiCond155) DPH0 load(1, XDATA, add(CFA_XSP16, literal(-1)))
        CFI (cfiCond155) CFA_SP SP+0
        CFI (cfiCond155) CFA_XSP16 add(XSP16, 15)
        CFI Block cfiCond156 Using cfiCommon0
        CFI (cfiCond156) NoFunction
        CFI (cfiCond156) Conditional ??CrossCallReturnLabel_83, ??CrossCallReturnLabel_74
        CFI (cfiCond156) R6 load(1, XDATA, add(CFA_XSP16, literal(-9)))
        CFI (cfiCond156) VB load(1, XDATA, add(CFA_XSP16, literal(-8)))
        CFI (cfiCond156) V0 load(1, XDATA, add(CFA_XSP16, literal(-7)))
        CFI (cfiCond156) R7 load(1, XDATA, add(CFA_XSP16, literal(-6)))
        CFI (cfiCond156) ?RET_LOW load(1, XDATA, add(CFA_XSP16, literal(-5)))
        CFI (cfiCond156) ?RET_HIGH load(1, XDATA, add(CFA_XSP16, literal(-4)))
        CFI (cfiCond156) ?BRET_EXT load(1, XDATA, add(CFA_XSP16, literal(-3)))
        CFI (cfiCond156) DPL0 load(1, XDATA, add(CFA_XSP16, literal(-2)))
        CFI (cfiCond156) DPH0 load(1, XDATA, add(CFA_XSP16, literal(-1)))
        CFI (cfiCond156) CFA_SP SP+0
        CFI (cfiCond156) CFA_XSP16 add(XSP16, 9)
        CFI Block cfiCond157 Using cfiCommon0
        CFI (cfiCond157) NoFunction
        CFI (cfiCond157) Conditional ??CrossCallReturnLabel_81
        CFI (cfiCond157) R6 load(1, XDATA, add(CFA_XSP16, literal(-24)))
        CFI (cfiCond157) VB load(1, XDATA, add(CFA_XSP16, literal(-23)))
        CFI (cfiCond157) V0 load(1, XDATA, add(CFA_XSP16, literal(-22)))
        CFI (cfiCond157) V1 load(1, XDATA, add(CFA_XSP16, literal(-21)))
        CFI (cfiCond157) V2 load(1, XDATA, add(CFA_XSP16, literal(-20)))
        CFI (cfiCond157) V3 load(1, XDATA, add(CFA_XSP16, literal(-19)))
        CFI (cfiCond157) V4 load(1, XDATA, add(CFA_XSP16, literal(-18)))
        CFI (cfiCond157) V5 load(1, XDATA, add(CFA_XSP16, literal(-17)))
        CFI (cfiCond157) V6 load(1, XDATA, add(CFA_XSP16, literal(-16)))
        CFI (cfiCond157) V7 load(1, XDATA, add(CFA_XSP16, literal(-15)))
        CFI (cfiCond157) V8 load(1, XDATA, add(CFA_XSP16, literal(-14)))
        CFI (cfiCond157) V9 load(1, XDATA, add(CFA_XSP16, literal(-13)))
        CFI (cfiCond157) V10 load(1, XDATA, add(CFA_XSP16, literal(-12)))
        CFI (cfiCond157) V11 load(1, XDATA, add(CFA_XSP16, literal(-11)))
        CFI (cfiCond157) V12 load(1, XDATA, add(CFA_XSP16, literal(-10)))
        CFI (cfiCond157) V13 load(1, XDATA, add(CFA_XSP16, literal(-9)))
        CFI (cfiCond157) V14 load(1, XDATA, add(CFA_XSP16, literal(-8)))
        CFI (cfiCond157) V15 load(1, XDATA, add(CFA_XSP16, literal(-7)))
        CFI (cfiCond157) R7 load(1, XDATA, add(CFA_XSP16, literal(-6)))
        CFI (cfiCond157) ?RET_LOW load(1, XDATA, add(CFA_XSP16, literal(-5)))
        CFI (cfiCond157) ?RET_HIGH load(1, XDATA, add(CFA_XSP16, literal(-4)))
        CFI (cfiCond157) ?BRET_EXT load(1, XDATA, add(CFA_XSP16, literal(-3)))
        CFI (cfiCond157) DPL0 load(1, XDATA, add(CFA_XSP16, literal(-2)))
        CFI (cfiCond157) DPH0 load(1, XDATA, add(CFA_XSP16, literal(-1)))
        CFI (cfiCond157) CFA_SP SP+0
        CFI (cfiCond157) CFA_XSP16 add(XSP16, 25)
        CFI Block cfiCond158 Using cfiCommon0
        CFI (cfiCond158) NoFunction
        CFI (cfiCond158) Conditional ??CrossCallReturnLabel_82
        CFI (cfiCond158) R6 load(1, XDATA, add(CFA_XSP16, literal(-20)))
        CFI (cfiCond158) VB load(1, XDATA, add(CFA_XSP16, literal(-19)))
        CFI (cfiCond158) V0 load(1, XDATA, add(CFA_XSP16, literal(-18)))
        CFI (cfiCond158) V1 load(1, XDATA, add(CFA_XSP16, literal(-17)))
        CFI (cfiCond158) V2 load(1, XDATA, add(CFA_XSP16, literal(-16)))
        CFI (cfiCond158) V3 load(1, XDATA, add(CFA_XSP16, literal(-15)))
        CFI (cfiCond158) V4 load(1, XDATA, add(CFA_XSP16, literal(-14)))
        CFI (cfiCond158) V5 load(1, XDATA, add(CFA_XSP16, literal(-13)))
        CFI (cfiCond158) V6 load(1, XDATA, add(CFA_XSP16, literal(-12)))
        CFI (cfiCond158) V7 load(1, XDATA, add(CFA_XSP16, literal(-11)))
        CFI (cfiCond158) V8 load(1, XDATA, add(CFA_XSP16, literal(-10)))
        CFI (cfiCond158) V9 load(1, XDATA, add(CFA_XSP16, literal(-9)))
        CFI (cfiCond158) V10 load(1, XDATA, add(CFA_XSP16, literal(-8)))
        CFI (cfiCond158) V11 load(1, XDATA, add(CFA_XSP16, literal(-7)))
        CFI (cfiCond158) R7 load(1, XDATA, add(CFA_XSP16, literal(-6)))
        CFI (cfiCond158) ?RET_LOW load(1, XDATA, add(CFA_XSP16, literal(-5)))
        CFI (cfiCond158) ?RET_HIGH load(1, XDATA, add(CFA_XSP16, literal(-4)))
        CFI (cfiCond158) ?BRET_EXT load(1, XDATA, add(CFA_XSP16, literal(-3)))
        CFI (cfiCond158) DPL0 load(1, XDATA, add(CFA_XSP16, literal(-2)))
        CFI (cfiCond158) DPH0 load(1, XDATA, add(CFA_XSP16, literal(-1)))
        CFI (cfiCond158) CFA_SP SP+0
        CFI (cfiCond158) CFA_XSP16 add(XSP16, 20)
        CFI Block cfiPicker159 Using cfiCommon1
        CFI (cfiPicker159) NoFunction
        CFI (cfiPicker159) Picker
        MOVX    A,@DPTR
        MOV     R0,A
        INC     DPTR
        MOVX    A,@DPTR
        MOV     R1,A
        RET
        CFI EndBlock cfiCond150
        CFI EndBlock cfiCond151
        CFI EndBlock cfiCond152
        CFI EndBlock cfiCond153
        CFI EndBlock cfiCond154
        CFI EndBlock cfiCond155
        CFI EndBlock cfiCond156
        CFI EndBlock cfiCond157
        CFI EndBlock cfiCond158
        CFI EndBlock cfiPicker159

        RSEG BANKED_CODE:CODE:NOROOT(0)
?Subroutine31:
        CFI Block cfiCond160 Using cfiCommon0
        CFI NoFunction
        CFI Conditional ??CrossCallReturnLabel_45
        CFI R6 load(1, XDATA, add(CFA_XSP16, literal(-22)))
        CFI VB load(1, XDATA, add(CFA_XSP16, literal(-21)))
        CFI V0 load(1, XDATA, add(CFA_XSP16, literal(-20)))
        CFI V1 load(1, XDATA, add(CFA_XSP16, literal(-19)))
        CFI V2 load(1, XDATA, add(CFA_XSP16, literal(-18)))
        CFI V3 load(1, XDATA, add(CFA_XSP16, literal(-17)))
        CFI V4 load(1, XDATA, add(CFA_XSP16, literal(-16)))
        CFI V5 load(1, XDATA, add(CFA_XSP16, literal(-15)))
        CFI V6 load(1, XDATA, add(CFA_XSP16, literal(-14)))
        CFI V7 load(1, XDATA, add(CFA_XSP16, literal(-13)))
        CFI V8 load(1, XDATA, add(CFA_XSP16, literal(-12)))
        CFI V9 load(1, XDATA, add(CFA_XSP16, literal(-11)))
        CFI V10 load(1, XDATA, add(CFA_XSP16, literal(-10)))
        CFI V11 load(1, XDATA, add(CFA_XSP16, literal(-9)))
        CFI V12 load(1, XDATA, add(CFA_XSP16, literal(-8)))
        CFI V13 load(1, XDATA, add(CFA_XSP16, literal(-7)))
        CFI R7 load(1, XDATA, add(CFA_XSP16, literal(-6)))
        CFI ?RET_LOW load(1, XDATA, add(CFA_XSP16, literal(-5)))
        CFI ?RET_HIGH load(1, XDATA, add(CFA_XSP16, literal(-4)))
        CFI ?BRET_EXT load(1, XDATA, add(CFA_XSP16, literal(-3)))
        CFI DPL0 load(1, XDATA, add(CFA_XSP16, literal(-2)))
        CFI DPH0 load(1, XDATA, add(CFA_XSP16, literal(-1)))
        CFI CFA_SP SP+0
        CFI CFA_XSP16 add(XSP16, 36)
        CFI Block cfiCond161 Using cfiCommon0
        CFI (cfiCond161) NoFunction
        CFI (cfiCond161) Conditional ??CrossCallReturnLabel_46
        CFI (cfiCond161) R6 load(1, XDATA, add(CFA_XSP16, literal(-22)))
        CFI (cfiCond161) VB load(1, XDATA, add(CFA_XSP16, literal(-21)))
        CFI (cfiCond161) V0 load(1, XDATA, add(CFA_XSP16, literal(-20)))
        CFI (cfiCond161) V1 load(1, XDATA, add(CFA_XSP16, literal(-19)))
        CFI (cfiCond161) V2 load(1, XDATA, add(CFA_XSP16, literal(-18)))
        CFI (cfiCond161) V3 load(1, XDATA, add(CFA_XSP16, literal(-17)))
        CFI (cfiCond161) V4 load(1, XDATA, add(CFA_XSP16, literal(-16)))
        CFI (cfiCond161) V5 load(1, XDATA, add(CFA_XSP16, literal(-15)))
        CFI (cfiCond161) V6 load(1, XDATA, add(CFA_XSP16, literal(-14)))
        CFI (cfiCond161) V7 load(1, XDATA, add(CFA_XSP16, literal(-13)))
        CFI (cfiCond161) V8 load(1, XDATA, add(CFA_XSP16, literal(-12)))
        CFI (cfiCond161) V9 load(1, XDATA, add(CFA_XSP16, literal(-11)))
        CFI (cfiCond161) V10 load(1, XDATA, add(CFA_XSP16, literal(-10)))
        CFI (cfiCond161) V11 load(1, XDATA, add(CFA_XSP16, literal(-9)))
        CFI (cfiCond161) V12 load(1, XDATA, add(CFA_XSP16, literal(-8)))
        CFI (cfiCond161) V13 load(1, XDATA, add(CFA_XSP16, literal(-7)))
        CFI (cfiCond161) R7 load(1, XDATA, add(CFA_XSP16, literal(-6)))
        CFI (cfiCond161) ?RET_LOW load(1, XDATA, add(CFA_XSP16, literal(-5)))
        CFI (cfiCond161) ?RET_HIGH load(1, XDATA, add(CFA_XSP16, literal(-4)))
        CFI (cfiCond161) ?BRET_EXT load(1, XDATA, add(CFA_XSP16, literal(-3)))
        CFI (cfiCond161) DPL0 load(1, XDATA, add(CFA_XSP16, literal(-2)))
        CFI (cfiCond161) DPH0 load(1, XDATA, add(CFA_XSP16, literal(-1)))
        CFI (cfiCond161) CFA_SP SP+0
        CFI (cfiCond161) CFA_XSP16 add(XSP16, 36)
        CFI Block cfiCond162 Using cfiCommon0
        CFI (cfiCond162) NoFunction
        CFI (cfiCond162) Conditional ??CrossCallReturnLabel_47
        CFI (cfiCond162) R6 load(1, XDATA, add(CFA_XSP16, literal(-22)))
        CFI (cfiCond162) VB load(1, XDATA, add(CFA_XSP16, literal(-21)))
        CFI (cfiCond162) V0 load(1, XDATA, add(CFA_XSP16, literal(-20)))
        CFI (cfiCond162) V1 load(1, XDATA, add(CFA_XSP16, literal(-19)))
        CFI (cfiCond162) V2 load(1, XDATA, add(CFA_XSP16, literal(-18)))
        CFI (cfiCond162) V3 load(1, XDATA, add(CFA_XSP16, literal(-17)))
        CFI (cfiCond162) V4 load(1, XDATA, add(CFA_XSP16, literal(-16)))
        CFI (cfiCond162) V5 load(1, XDATA, add(CFA_XSP16, literal(-15)))
        CFI (cfiCond162) V6 load(1, XDATA, add(CFA_XSP16, literal(-14)))
        CFI (cfiCond162) V7 load(1, XDATA, add(CFA_XSP16, literal(-13)))
        CFI (cfiCond162) V8 load(1, XDATA, add(CFA_XSP16, literal(-12)))
        CFI (cfiCond162) V9 load(1, XDATA, add(CFA_XSP16, literal(-11)))
        CFI (cfiCond162) V10 load(1, XDATA, add(CFA_XSP16, literal(-10)))
        CFI (cfiCond162) V11 load(1, XDATA, add(CFA_XSP16, literal(-9)))
        CFI (cfiCond162) V12 load(1, XDATA, add(CFA_XSP16, literal(-8)))
        CFI (cfiCond162) V13 load(1, XDATA, add(CFA_XSP16, literal(-7)))
        CFI (cfiCond162) R7 load(1, XDATA, add(CFA_XSP16, literal(-6)))
        CFI (cfiCond162) ?RET_LOW load(1, XDATA, add(CFA_XSP16, literal(-5)))
        CFI (cfiCond162) ?RET_HIGH load(1, XDATA, add(CFA_XSP16, literal(-4)))
        CFI (cfiCond162) ?BRET_EXT load(1, XDATA, add(CFA_XSP16, literal(-3)))
        CFI (cfiCond162) DPL0 load(1, XDATA, add(CFA_XSP16, literal(-2)))
        CFI (cfiCond162) DPH0 load(1, XDATA, add(CFA_XSP16, literal(-1)))
        CFI (cfiCond162) CFA_SP SP+0
        CFI (cfiCond162) CFA_XSP16 add(XSP16, 36)
        CFI Block cfiCond163 Using cfiCommon0
        CFI (cfiCond163) NoFunction
        CFI (cfiCond163) Conditional ??CrossCallReturnLabel_48
        CFI (cfiCond163) R6 load(1, XDATA, add(CFA_XSP16, literal(-22)))
        CFI (cfiCond163) VB load(1, XDATA, add(CFA_XSP16, literal(-21)))
        CFI (cfiCond163) V0 load(1, XDATA, add(CFA_XSP16, literal(-20)))
        CFI (cfiCond163) V1 load(1, XDATA, add(CFA_XSP16, literal(-19)))
        CFI (cfiCond163) V2 load(1, XDATA, add(CFA_XSP16, literal(-18)))
        CFI (cfiCond163) V3 load(1, XDATA, add(CFA_XSP16, literal(-17)))
        CFI (cfiCond163) V4 load(1, XDATA, add(CFA_XSP16, literal(-16)))
        CFI (cfiCond163) V5 load(1, XDATA, add(CFA_XSP16, literal(-15)))
        CFI (cfiCond163) V6 load(1, XDATA, add(CFA_XSP16, literal(-14)))
        CFI (cfiCond163) V7 load(1, XDATA, add(CFA_XSP16, literal(-13)))
        CFI (cfiCond163) V8 load(1, XDATA, add(CFA_XSP16, literal(-12)))
        CFI (cfiCond163) V9 load(1, XDATA, add(CFA_XSP16, literal(-11)))
        CFI (cfiCond163) V10 load(1, XDATA, add(CFA_XSP16, literal(-10)))
        CFI (cfiCond163) V11 load(1, XDATA, add(CFA_XSP16, literal(-9)))
        CFI (cfiCond163) V12 load(1, XDATA, add(CFA_XSP16, literal(-8)))
        CFI (cfiCond163) V13 load(1, XDATA, add(CFA_XSP16, literal(-7)))
        CFI (cfiCond163) R7 load(1, XDATA, add(CFA_XSP16, literal(-6)))
        CFI (cfiCond163) ?RET_LOW load(1, XDATA, add(CFA_XSP16, literal(-5)))
        CFI (cfiCond163) ?RET_HIGH load(1, XDATA, add(CFA_XSP16, literal(-4)))
        CFI (cfiCond163) ?BRET_EXT load(1, XDATA, add(CFA_XSP16, literal(-3)))
        CFI (cfiCond163) DPL0 load(1, XDATA, add(CFA_XSP16, literal(-2)))
        CFI (cfiCond163) DPH0 load(1, XDATA, add(CFA_XSP16, literal(-1)))
        CFI (cfiCond163) CFA_SP SP+0
        CFI (cfiCond163) CFA_XSP16 add(XSP16, 36)
        CFI Block cfiCond164 Using cfiCommon0
        CFI (cfiCond164) NoFunction
        CFI (cfiCond164) Conditional ??CrossCallReturnLabel_49
        CFI (cfiCond164) R6 load(1, XDATA, add(CFA_XSP16, literal(-24)))
        CFI (cfiCond164) VB load(1, XDATA, add(CFA_XSP16, literal(-23)))
        CFI (cfiCond164) V0 load(1, XDATA, add(CFA_XSP16, literal(-22)))
        CFI (cfiCond164) V1 load(1, XDATA, add(CFA_XSP16, literal(-21)))
        CFI (cfiCond164) V2 load(1, XDATA, add(CFA_XSP16, literal(-20)))
        CFI (cfiCond164) V3 load(1, XDATA, add(CFA_XSP16, literal(-19)))
        CFI (cfiCond164) V4 load(1, XDATA, add(CFA_XSP16, literal(-18)))
        CFI (cfiCond164) V5 load(1, XDATA, add(CFA_XSP16, literal(-17)))
        CFI (cfiCond164) V6 load(1, XDATA, add(CFA_XSP16, literal(-16)))
        CFI (cfiCond164) V7 load(1, XDATA, add(CFA_XSP16, literal(-15)))
        CFI (cfiCond164) V8 load(1, XDATA, add(CFA_XSP16, literal(-14)))
        CFI (cfiCond164) V9 load(1, XDATA, add(CFA_XSP16, literal(-13)))
        CFI (cfiCond164) V10 load(1, XDATA, add(CFA_XSP16, literal(-12)))
        CFI (cfiCond164) V11 load(1, XDATA, add(CFA_XSP16, literal(-11)))
        CFI (cfiCond164) V12 load(1, XDATA, add(CFA_XSP16, literal(-10)))
        CFI (cfiCond164) V13 load(1, XDATA, add(CFA_XSP16, literal(-9)))
        CFI (cfiCond164) V14 load(1, XDATA, add(CFA_XSP16, literal(-8)))
        CFI (cfiCond164) V15 load(1, XDATA, add(CFA_XSP16, literal(-7)))
        CFI (cfiCond164) R7 load(1, XDATA, add(CFA_XSP16, literal(-6)))
        CFI (cfiCond164) ?RET_LOW load(1, XDATA, add(CFA_XSP16, literal(-5)))
        CFI (cfiCond164) ?RET_HIGH load(1, XDATA, add(CFA_XSP16, literal(-4)))
        CFI (cfiCond164) ?BRET_EXT load(1, XDATA, add(CFA_XSP16, literal(-3)))
        CFI (cfiCond164) DPL0 load(1, XDATA, add(CFA_XSP16, literal(-2)))
        CFI (cfiCond164) DPH0 load(1, XDATA, add(CFA_XSP16, literal(-1)))
        CFI (cfiCond164) CFA_SP SP+0
        CFI (cfiCond164) CFA_XSP16 add(XSP16, 25)
        CFI Block cfiCond165 Using cfiCommon0
        CFI (cfiCond165) NoFunction
        CFI (cfiCond165) Conditional ??CrossCallReturnLabel_50
        CFI (cfiCond165) R6 load(1, XDATA, add(CFA_XSP16, literal(-24)))
        CFI (cfiCond165) VB load(1, XDATA, add(CFA_XSP16, literal(-23)))
        CFI (cfiCond165) V0 load(1, XDATA, add(CFA_XSP16, literal(-22)))
        CFI (cfiCond165) V1 load(1, XDATA, add(CFA_XSP16, literal(-21)))
        CFI (cfiCond165) V2 load(1, XDATA, add(CFA_XSP16, literal(-20)))
        CFI (cfiCond165) V3 load(1, XDATA, add(CFA_XSP16, literal(-19)))
        CFI (cfiCond165) V4 load(1, XDATA, add(CFA_XSP16, literal(-18)))
        CFI (cfiCond165) V5 load(1, XDATA, add(CFA_XSP16, literal(-17)))
        CFI (cfiCond165) V6 load(1, XDATA, add(CFA_XSP16, literal(-16)))
        CFI (cfiCond165) V7 load(1, XDATA, add(CFA_XSP16, literal(-15)))
        CFI (cfiCond165) V8 load(1, XDATA, add(CFA_XSP16, literal(-14)))
        CFI (cfiCond165) V9 load(1, XDATA, add(CFA_XSP16, literal(-13)))
        CFI (cfiCond165) V10 load(1, XDATA, add(CFA_XSP16, literal(-12)))
        CFI (cfiCond165) V11 load(1, XDATA, add(CFA_XSP16, literal(-11)))
        CFI (cfiCond165) V12 load(1, XDATA, add(CFA_XSP16, literal(-10)))
        CFI (cfiCond165) V13 load(1, XDATA, add(CFA_XSP16, literal(-9)))
        CFI (cfiCond165) V14 load(1, XDATA, add(CFA_XSP16, literal(-8)))
        CFI (cfiCond165) V15 load(1, XDATA, add(CFA_XSP16, literal(-7)))
        CFI (cfiCond165) R7 load(1, XDATA, add(CFA_XSP16, literal(-6)))
        CFI (cfiCond165) ?RET_LOW load(1, XDATA, add(CFA_XSP16, literal(-5)))
        CFI (cfiCond165) ?RET_HIGH load(1, XDATA, add(CFA_XSP16, literal(-4)))
        CFI (cfiCond165) ?BRET_EXT load(1, XDATA, add(CFA_XSP16, literal(-3)))
        CFI (cfiCond165) DPL0 load(1, XDATA, add(CFA_XSP16, literal(-2)))
        CFI (cfiCond165) DPH0 load(1, XDATA, add(CFA_XSP16, literal(-1)))
        CFI (cfiCond165) CFA_SP SP+0
        CFI (cfiCond165) CFA_XSP16 add(XSP16, 25)
        CFI Block cfiCond166 Using cfiCommon0
        CFI (cfiCond166) NoFunction
        CFI (cfiCond166) Conditional ??CrossCallReturnLabel_51
        CFI (cfiCond166) R6 load(1, XDATA, add(CFA_XSP16, literal(-20)))
        CFI (cfiCond166) VB load(1, XDATA, add(CFA_XSP16, literal(-19)))
        CFI (cfiCond166) V0 load(1, XDATA, add(CFA_XSP16, literal(-18)))
        CFI (cfiCond166) V1 load(1, XDATA, add(CFA_XSP16, literal(-17)))
        CFI (cfiCond166) V2 load(1, XDATA, add(CFA_XSP16, literal(-16)))
        CFI (cfiCond166) V3 load(1, XDATA, add(CFA_XSP16, literal(-15)))
        CFI (cfiCond166) V4 load(1, XDATA, add(CFA_XSP16, literal(-14)))
        CFI (cfiCond166) V5 load(1, XDATA, add(CFA_XSP16, literal(-13)))
        CFI (cfiCond166) V6 load(1, XDATA, add(CFA_XSP16, literal(-12)))
        CFI (cfiCond166) V7 load(1, XDATA, add(CFA_XSP16, literal(-11)))
        CFI (cfiCond166) V8 load(1, XDATA, add(CFA_XSP16, literal(-10)))
        CFI (cfiCond166) V9 load(1, XDATA, add(CFA_XSP16, literal(-9)))
        CFI (cfiCond166) V10 load(1, XDATA, add(CFA_XSP16, literal(-8)))
        CFI (cfiCond166) V11 load(1, XDATA, add(CFA_XSP16, literal(-7)))
        CFI (cfiCond166) R7 load(1, XDATA, add(CFA_XSP16, literal(-6)))
        CFI (cfiCond166) ?RET_LOW load(1, XDATA, add(CFA_XSP16, literal(-5)))
        CFI (cfiCond166) ?RET_HIGH load(1, XDATA, add(CFA_XSP16, literal(-4)))
        CFI (cfiCond166) ?BRET_EXT load(1, XDATA, add(CFA_XSP16, literal(-3)))
        CFI (cfiCond166) DPL0 load(1, XDATA, add(CFA_XSP16, literal(-2)))
        CFI (cfiCond166) DPH0 load(1, XDATA, add(CFA_XSP16, literal(-1)))
        CFI (cfiCond166) CFA_SP SP+0
        CFI (cfiCond166) CFA_XSP16 add(XSP16, 20)
        CFI Block cfiPicker167 Using cfiCommon1
        CFI (cfiPicker167) NoFunction
        CFI (cfiPicker167) Picker
        MOV     A,R0
        MOVX    @DPTR,A
        INC     DPTR
        MOV     A,R1
        MOVX    @DPTR,A
        RET
        CFI EndBlock cfiCond160
        CFI EndBlock cfiCond161
        CFI EndBlock cfiCond162
        CFI EndBlock cfiCond163
        CFI EndBlock cfiCond164
        CFI EndBlock cfiCond165
        CFI EndBlock cfiCond166
        CFI EndBlock cfiPicker167

        RSEG BANKED_CODE:CODE:NOROOT(0)
?Subroutine26:
        CFI Block cfiCond168 Using cfiCommon0
        CFI NoFunction
        CFI Conditional ??CrossCallReturnLabel_32
        CFI R6 load(1, XDATA, add(CFA_XSP16, literal(-24)))
        CFI VB load(1, XDATA, add(CFA_XSP16, literal(-23)))
        CFI V0 load(1, XDATA, add(CFA_XSP16, literal(-22)))
        CFI V1 load(1, XDATA, add(CFA_XSP16, literal(-21)))
        CFI V2 load(1, XDATA, add(CFA_XSP16, literal(-20)))
        CFI V3 load(1, XDATA, add(CFA_XSP16, literal(-19)))
        CFI V4 load(1, XDATA, add(CFA_XSP16, literal(-18)))
        CFI V5 load(1, XDATA, add(CFA_XSP16, literal(-17)))
        CFI V6 load(1, XDATA, add(CFA_XSP16, literal(-16)))
        CFI V7 load(1, XDATA, add(CFA_XSP16, literal(-15)))
        CFI V8 load(1, XDATA, add(CFA_XSP16, literal(-14)))
        CFI V9 load(1, XDATA, add(CFA_XSP16, literal(-13)))
        CFI V10 load(1, XDATA, add(CFA_XSP16, literal(-12)))
        CFI V11 load(1, XDATA, add(CFA_XSP16, literal(-11)))
        CFI V12 load(1, XDATA, add(CFA_XSP16, literal(-10)))
        CFI V13 load(1, XDATA, add(CFA_XSP16, literal(-9)))
        CFI V14 load(1, XDATA, add(CFA_XSP16, literal(-8)))
        CFI V15 load(1, XDATA, add(CFA_XSP16, literal(-7)))
        CFI R7 load(1, XDATA, add(CFA_XSP16, literal(-6)))
        CFI ?RET_LOW load(1, XDATA, add(CFA_XSP16, literal(-5)))
        CFI ?RET_HIGH load(1, XDATA, add(CFA_XSP16, literal(-4)))
        CFI ?BRET_EXT load(1, XDATA, add(CFA_XSP16, literal(-3)))
        CFI DPL0 load(1, XDATA, add(CFA_XSP16, literal(-2)))
        CFI DPH0 load(1, XDATA, add(CFA_XSP16, literal(-1)))
        CFI CFA_SP SP+0
        CFI CFA_XSP16 add(XSP16, 25)
        CFI Block cfiCond169 Using cfiCommon0
        CFI (cfiCond169) NoFunction
        CFI (cfiCond169) Conditional ??CrossCallReturnLabel_33
        CFI (cfiCond169) R6 load(1, XDATA, add(CFA_XSP16, literal(-24)))
        CFI (cfiCond169) VB load(1, XDATA, add(CFA_XSP16, literal(-23)))
        CFI (cfiCond169) V0 load(1, XDATA, add(CFA_XSP16, literal(-22)))
        CFI (cfiCond169) V1 load(1, XDATA, add(CFA_XSP16, literal(-21)))
        CFI (cfiCond169) V2 load(1, XDATA, add(CFA_XSP16, literal(-20)))
        CFI (cfiCond169) V3 load(1, XDATA, add(CFA_XSP16, literal(-19)))
        CFI (cfiCond169) V4 load(1, XDATA, add(CFA_XSP16, literal(-18)))
        CFI (cfiCond169) V5 load(1, XDATA, add(CFA_XSP16, literal(-17)))
        CFI (cfiCond169) V6 load(1, XDATA, add(CFA_XSP16, literal(-16)))
        CFI (cfiCond169) V7 load(1, XDATA, add(CFA_XSP16, literal(-15)))
        CFI (cfiCond169) V8 load(1, XDATA, add(CFA_XSP16, literal(-14)))
        CFI (cfiCond169) V9 load(1, XDATA, add(CFA_XSP16, literal(-13)))
        CFI (cfiCond169) V10 load(1, XDATA, add(CFA_XSP16, literal(-12)))
        CFI (cfiCond169) V11 load(1, XDATA, add(CFA_XSP16, literal(-11)))
        CFI (cfiCond169) V12 load(1, XDATA, add(CFA_XSP16, literal(-10)))
        CFI (cfiCond169) V13 load(1, XDATA, add(CFA_XSP16, literal(-9)))
        CFI (cfiCond169) V14 load(1, XDATA, add(CFA_XSP16, literal(-8)))
        CFI (cfiCond169) V15 load(1, XDATA, add(CFA_XSP16, literal(-7)))
        CFI (cfiCond169) R7 load(1, XDATA, add(CFA_XSP16, literal(-6)))
        CFI (cfiCond169) ?RET_LOW load(1, XDATA, add(CFA_XSP16, literal(-5)))
        CFI (cfiCond169) ?RET_HIGH load(1, XDATA, add(CFA_XSP16, literal(-4)))
        CFI (cfiCond169) ?BRET_EXT load(1, XDATA, add(CFA_XSP16, literal(-3)))
        CFI (cfiCond169) DPL0 load(1, XDATA, add(CFA_XSP16, literal(-2)))
        CFI (cfiCond169) DPH0 load(1, XDATA, add(CFA_XSP16, literal(-1)))
        CFI (cfiCond169) CFA_SP SP+0
        CFI (cfiCond169) CFA_XSP16 add(XSP16, 25)
        CFI Block cfiCond170 Using cfiCommon0
        CFI (cfiCond170) NoFunction
        CFI (cfiCond170) Conditional ??CrossCallReturnLabel_34
        CFI (cfiCond170) R6 load(1, XDATA, add(CFA_XSP16, literal(-24)))
        CFI (cfiCond170) VB load(1, XDATA, add(CFA_XSP16, literal(-23)))
        CFI (cfiCond170) V0 load(1, XDATA, add(CFA_XSP16, literal(-22)))
        CFI (cfiCond170) V1 load(1, XDATA, add(CFA_XSP16, literal(-21)))
        CFI (cfiCond170) V2 load(1, XDATA, add(CFA_XSP16, literal(-20)))
        CFI (cfiCond170) V3 load(1, XDATA, add(CFA_XSP16, literal(-19)))
        CFI (cfiCond170) V4 load(1, XDATA, add(CFA_XSP16, literal(-18)))
        CFI (cfiCond170) V5 load(1, XDATA, add(CFA_XSP16, literal(-17)))
        CFI (cfiCond170) V6 load(1, XDATA, add(CFA_XSP16, literal(-16)))
        CFI (cfiCond170) V7 load(1, XDATA, add(CFA_XSP16, literal(-15)))
        CFI (cfiCond170) V8 load(1, XDATA, add(CFA_XSP16, literal(-14)))
        CFI (cfiCond170) V9 load(1, XDATA, add(CFA_XSP16, literal(-13)))
        CFI (cfiCond170) V10 load(1, XDATA, add(CFA_XSP16, literal(-12)))
        CFI (cfiCond170) V11 load(1, XDATA, add(CFA_XSP16, literal(-11)))
        CFI (cfiCond170) V12 load(1, XDATA, add(CFA_XSP16, literal(-10)))
        CFI (cfiCond170) V13 load(1, XDATA, add(CFA_XSP16, literal(-9)))
        CFI (cfiCond170) V14 load(1, XDATA, add(CFA_XSP16, literal(-8)))
        CFI (cfiCond170) V15 load(1, XDATA, add(CFA_XSP16, literal(-7)))
        CFI (cfiCond170) R7 load(1, XDATA, add(CFA_XSP16, literal(-6)))
        CFI (cfiCond170) ?RET_LOW load(1, XDATA, add(CFA_XSP16, literal(-5)))
        CFI (cfiCond170) ?RET_HIGH load(1, XDATA, add(CFA_XSP16, literal(-4)))
        CFI (cfiCond170) ?BRET_EXT load(1, XDATA, add(CFA_XSP16, literal(-3)))
        CFI (cfiCond170) DPL0 load(1, XDATA, add(CFA_XSP16, literal(-2)))
        CFI (cfiCond170) DPH0 load(1, XDATA, add(CFA_XSP16, literal(-1)))
        CFI (cfiCond170) CFA_SP SP+0
        CFI (cfiCond170) CFA_XSP16 add(XSP16, 25)
        CFI Block cfiPicker171 Using cfiCommon1
        CFI (cfiPicker171) NoFunction
        CFI (cfiPicker171) Picker
        LCALL   ?Subroutine39 & 0xFFFF
??CrossCallReturnLabel_103:
        RET
        CFI EndBlock cfiCond168
        CFI EndBlock cfiCond169
        CFI EndBlock cfiCond170
        CFI EndBlock cfiPicker171

        RSEG BANKED_CODE:CODE:NOROOT(0)
?Subroutine39:
        CFI Block cfiCond172 Using cfiCommon0
        CFI NoFunction
        CFI Conditional ??CrossCallReturnLabel_103, ??CrossCallReturnLabel_32
        CFI R6 load(1, XDATA, add(CFA_XSP16, literal(-24)))
        CFI VB load(1, XDATA, add(CFA_XSP16, literal(-23)))
        CFI V0 load(1, XDATA, add(CFA_XSP16, literal(-22)))
        CFI V1 load(1, XDATA, add(CFA_XSP16, literal(-21)))
        CFI V2 load(1, XDATA, add(CFA_XSP16, literal(-20)))
        CFI V3 load(1, XDATA, add(CFA_XSP16, literal(-19)))
        CFI V4 load(1, XDATA, add(CFA_XSP16, literal(-18)))
        CFI V5 load(1, XDATA, add(CFA_XSP16, literal(-17)))
        CFI V6 load(1, XDATA, add(CFA_XSP16, literal(-16)))
        CFI V7 load(1, XDATA, add(CFA_XSP16, literal(-15)))
        CFI V8 load(1, XDATA, add(CFA_XSP16, literal(-14)))
        CFI V9 load(1, XDATA, add(CFA_XSP16, literal(-13)))
        CFI V10 load(1, XDATA, add(CFA_XSP16, literal(-12)))
        CFI V11 load(1, XDATA, add(CFA_XSP16, literal(-11)))
        CFI V12 load(1, XDATA, add(CFA_XSP16, literal(-10)))
        CFI V13 load(1, XDATA, add(CFA_XSP16, literal(-9)))
        CFI V14 load(1, XDATA, add(CFA_XSP16, literal(-8)))
        CFI V15 load(1, XDATA, add(CFA_XSP16, literal(-7)))
        CFI R7 load(1, XDATA, add(CFA_XSP16, literal(-6)))
        CFI ?RET_LOW load(1, XDATA, add(CFA_XSP16, literal(-5)))
        CFI ?RET_HIGH load(1, XDATA, add(CFA_XSP16, literal(-4)))
        CFI ?BRET_EXT load(1, XDATA, add(CFA_XSP16, literal(-3)))
        CFI DPL0 load(1, XDATA, add(CFA_XSP16, literal(-2)))
        CFI DPH0 load(1, XDATA, add(CFA_XSP16, literal(-1)))
        CFI CFA_SP SP+0
        CFI CFA_XSP16 add(XSP16, 25)
        CFI Block cfiCond173 Using cfiCommon0
        CFI (cfiCond173) NoFunction
        CFI (cfiCond173) Conditional ??CrossCallReturnLabel_103, ??CrossCallReturnLabel_33
        CFI (cfiCond173) R6 load(1, XDATA, add(CFA_XSP16, literal(-24)))
        CFI (cfiCond173) VB load(1, XDATA, add(CFA_XSP16, literal(-23)))
        CFI (cfiCond173) V0 load(1, XDATA, add(CFA_XSP16, literal(-22)))
        CFI (cfiCond173) V1 load(1, XDATA, add(CFA_XSP16, literal(-21)))
        CFI (cfiCond173) V2 load(1, XDATA, add(CFA_XSP16, literal(-20)))
        CFI (cfiCond173) V3 load(1, XDATA, add(CFA_XSP16, literal(-19)))
        CFI (cfiCond173) V4 load(1, XDATA, add(CFA_XSP16, literal(-18)))
        CFI (cfiCond173) V5 load(1, XDATA, add(CFA_XSP16, literal(-17)))
        CFI (cfiCond173) V6 load(1, XDATA, add(CFA_XSP16, literal(-16)))
        CFI (cfiCond173) V7 load(1, XDATA, add(CFA_XSP16, literal(-15)))
        CFI (cfiCond173) V8 load(1, XDATA, add(CFA_XSP16, literal(-14)))
        CFI (cfiCond173) V9 load(1, XDATA, add(CFA_XSP16, literal(-13)))
        CFI (cfiCond173) V10 load(1, XDATA, add(CFA_XSP16, literal(-12)))
        CFI (cfiCond173) V11 load(1, XDATA, add(CFA_XSP16, literal(-11)))
        CFI (cfiCond173) V12 load(1, XDATA, add(CFA_XSP16, literal(-10)))
        CFI (cfiCond173) V13 load(1, XDATA, add(CFA_XSP16, literal(-9)))
        CFI (cfiCond173) V14 load(1, XDATA, add(CFA_XSP16, literal(-8)))
        CFI (cfiCond173) V15 load(1, XDATA, add(CFA_XSP16, literal(-7)))
        CFI (cfiCond173) R7 load(1, XDATA, add(CFA_XSP16, literal(-6)))
        CFI (cfiCond173) ?RET_LOW load(1, XDATA, add(CFA_XSP16, literal(-5)))
        CFI (cfiCond173) ?RET_HIGH load(1, XDATA, add(CFA_XSP16, literal(-4)))
        CFI (cfiCond173) ?BRET_EXT load(1, XDATA, add(CFA_XSP16, literal(-3)))
        CFI (cfiCond173) DPL0 load(1, XDATA, add(CFA_XSP16, literal(-2)))
        CFI (cfiCond173) DPH0 load(1, XDATA, add(CFA_XSP16, literal(-1)))
        CFI (cfiCond173) CFA_SP SP+0
        CFI (cfiCond173) CFA_XSP16 add(XSP16, 25)
        CFI Block cfiCond174 Using cfiCommon0
        CFI (cfiCond174) NoFunction
        CFI (cfiCond174) Conditional ??CrossCallReturnLabel_103, ??CrossCallReturnLabel_34
        CFI (cfiCond174) R6 load(1, XDATA, add(CFA_XSP16, literal(-24)))
        CFI (cfiCond174) VB load(1, XDATA, add(CFA_XSP16, literal(-23)))
        CFI (cfiCond174) V0 load(1, XDATA, add(CFA_XSP16, literal(-22)))
        CFI (cfiCond174) V1 load(1, XDATA, add(CFA_XSP16, literal(-21)))
        CFI (cfiCond174) V2 load(1, XDATA, add(CFA_XSP16, literal(-20)))
        CFI (cfiCond174) V3 load(1, XDATA, add(CFA_XSP16, literal(-19)))
        CFI (cfiCond174) V4 load(1, XDATA, add(CFA_XSP16, literal(-18)))
        CFI (cfiCond174) V5 load(1, XDATA, add(CFA_XSP16, literal(-17)))
        CFI (cfiCond174) V6 load(1, XDATA, add(CFA_XSP16, literal(-16)))
        CFI (cfiCond174) V7 load(1, XDATA, add(CFA_XSP16, literal(-15)))
        CFI (cfiCond174) V8 load(1, XDATA, add(CFA_XSP16, literal(-14)))
        CFI (cfiCond174) V9 load(1, XDATA, add(CFA_XSP16, literal(-13)))
        CFI (cfiCond174) V10 load(1, XDATA, add(CFA_XSP16, literal(-12)))
        CFI (cfiCond174) V11 load(1, XDATA, add(CFA_XSP16, literal(-11)))
        CFI (cfiCond174) V12 load(1, XDATA, add(CFA_XSP16, literal(-10)))
        CFI (cfiCond174) V13 load(1, XDATA, add(CFA_XSP16, literal(-9)))
        CFI (cfiCond174) V14 load(1, XDATA, add(CFA_XSP16, literal(-8)))
        CFI (cfiCond174) V15 load(1, XDATA, add(CFA_XSP16, literal(-7)))
        CFI (cfiCond174) R7 load(1, XDATA, add(CFA_XSP16, literal(-6)))
        CFI (cfiCond174) ?RET_LOW load(1, XDATA, add(CFA_XSP16, literal(-5)))
        CFI (cfiCond174) ?RET_HIGH load(1, XDATA, add(CFA_XSP16, literal(-4)))
        CFI (cfiCond174) ?BRET_EXT load(1, XDATA, add(CFA_XSP16, literal(-3)))
        CFI (cfiCond174) DPL0 load(1, XDATA, add(CFA_XSP16, literal(-2)))
        CFI (cfiCond174) DPH0 load(1, XDATA, add(CFA_XSP16, literal(-1)))
        CFI (cfiCond174) CFA_SP SP+0
        CFI (cfiCond174) CFA_XSP16 add(XSP16, 25)
        CFI Block cfiCond175 Using cfiCommon0
        CFI (cfiCond175) NoFunction
        CFI (cfiCond175) Conditional ??CrossCallReturnLabel_102, ??CrossCallReturnLabel_30
        CFI (cfiCond175) R6 load(1, XDATA, add(CFA_XSP16, literal(-24)))
        CFI (cfiCond175) VB load(1, XDATA, add(CFA_XSP16, literal(-23)))
        CFI (cfiCond175) V0 load(1, XDATA, add(CFA_XSP16, literal(-22)))
        CFI (cfiCond175) V1 load(1, XDATA, add(CFA_XSP16, literal(-21)))
        CFI (cfiCond175) V2 load(1, XDATA, add(CFA_XSP16, literal(-20)))
        CFI (cfiCond175) V3 load(1, XDATA, add(CFA_XSP16, literal(-19)))
        CFI (cfiCond175) V4 load(1, XDATA, add(CFA_XSP16, literal(-18)))
        CFI (cfiCond175) V5 load(1, XDATA, add(CFA_XSP16, literal(-17)))
        CFI (cfiCond175) V6 load(1, XDATA, add(CFA_XSP16, literal(-16)))
        CFI (cfiCond175) V7 load(1, XDATA, add(CFA_XSP16, literal(-15)))
        CFI (cfiCond175) V8 load(1, XDATA, add(CFA_XSP16, literal(-14)))
        CFI (cfiCond175) V9 load(1, XDATA, add(CFA_XSP16, literal(-13)))
        CFI (cfiCond175) V10 load(1, XDATA, add(CFA_XSP16, literal(-12)))
        CFI (cfiCond175) V11 load(1, XDATA, add(CFA_XSP16, literal(-11)))
        CFI (cfiCond175) V12 load(1, XDATA, add(CFA_XSP16, literal(-10)))
        CFI (cfiCond175) V13 load(1, XDATA, add(CFA_XSP16, literal(-9)))
        CFI (cfiCond175) V14 load(1, XDATA, add(CFA_XSP16, literal(-8)))
        CFI (cfiCond175) V15 load(1, XDATA, add(CFA_XSP16, literal(-7)))
        CFI (cfiCond175) R7 load(1, XDATA, add(CFA_XSP16, literal(-6)))
        CFI (cfiCond175) ?RET_LOW load(1, XDATA, add(CFA_XSP16, literal(-5)))
        CFI (cfiCond175) ?RET_HIGH load(1, XDATA, add(CFA_XSP16, literal(-4)))
        CFI (cfiCond175) ?BRET_EXT load(1, XDATA, add(CFA_XSP16, literal(-3)))
        CFI (cfiCond175) DPL0 load(1, XDATA, add(CFA_XSP16, literal(-2)))
        CFI (cfiCond175) DPH0 load(1, XDATA, add(CFA_XSP16, literal(-1)))
        CFI (cfiCond175) CFA_SP SP+0
        CFI (cfiCond175) CFA_XSP16 add(XSP16, 25)
        CFI Block cfiCond176 Using cfiCommon0
        CFI (cfiCond176) NoFunction
        CFI (cfiCond176) Conditional ??CrossCallReturnLabel_102, ??CrossCallReturnLabel_31
        CFI (cfiCond176) R6 load(1, XDATA, add(CFA_XSP16, literal(-24)))
        CFI (cfiCond176) VB load(1, XDATA, add(CFA_XSP16, literal(-23)))
        CFI (cfiCond176) V0 load(1, XDATA, add(CFA_XSP16, literal(-22)))
        CFI (cfiCond176) V1 load(1, XDATA, add(CFA_XSP16, literal(-21)))
        CFI (cfiCond176) V2 load(1, XDATA, add(CFA_XSP16, literal(-20)))
        CFI (cfiCond176) V3 load(1, XDATA, add(CFA_XSP16, literal(-19)))
        CFI (cfiCond176) V4 load(1, XDATA, add(CFA_XSP16, literal(-18)))
        CFI (cfiCond176) V5 load(1, XDATA, add(CFA_XSP16, literal(-17)))
        CFI (cfiCond176) V6 load(1, XDATA, add(CFA_XSP16, literal(-16)))
        CFI (cfiCond176) V7 load(1, XDATA, add(CFA_XSP16, literal(-15)))
        CFI (cfiCond176) V8 load(1, XDATA, add(CFA_XSP16, literal(-14)))
        CFI (cfiCond176) V9 load(1, XDATA, add(CFA_XSP16, literal(-13)))
        CFI (cfiCond176) V10 load(1, XDATA, add(CFA_XSP16, literal(-12)))
        CFI (cfiCond176) V11 load(1, XDATA, add(CFA_XSP16, literal(-11)))
        CFI (cfiCond176) V12 load(1, XDATA, add(CFA_XSP16, literal(-10)))
        CFI (cfiCond176) V13 load(1, XDATA, add(CFA_XSP16, literal(-9)))
        CFI (cfiCond176) V14 load(1, XDATA, add(CFA_XSP16, literal(-8)))
        CFI (cfiCond176) V15 load(1, XDATA, add(CFA_XSP16, literal(-7)))
        CFI (cfiCond176) R7 load(1, XDATA, add(CFA_XSP16, literal(-6)))
        CFI (cfiCond176) ?RET_LOW load(1, XDATA, add(CFA_XSP16, literal(-5)))
        CFI (cfiCond176) ?RET_HIGH load(1, XDATA, add(CFA_XSP16, literal(-4)))
        CFI (cfiCond176) ?BRET_EXT load(1, XDATA, add(CFA_XSP16, literal(-3)))
        CFI (cfiCond176) DPL0 load(1, XDATA, add(CFA_XSP16, literal(-2)))
        CFI (cfiCond176) DPH0 load(1, XDATA, add(CFA_XSP16, literal(-1)))
        CFI (cfiCond176) CFA_SP SP+0
        CFI (cfiCond176) CFA_XSP16 add(XSP16, 25)
        CFI Block cfiCond177 Using cfiCommon0
        CFI (cfiCond177) NoFunction
        CFI (cfiCond177) Conditional ??CrossCallReturnLabel_104, ??CrossCallReturnLabel_99
        CFI (cfiCond177) R6 load(1, XDATA, add(CFA_XSP16, literal(-24)))
        CFI (cfiCond177) VB load(1, XDATA, add(CFA_XSP16, literal(-23)))
        CFI (cfiCond177) V0 load(1, XDATA, add(CFA_XSP16, literal(-22)))
        CFI (cfiCond177) V1 load(1, XDATA, add(CFA_XSP16, literal(-21)))
        CFI (cfiCond177) V2 load(1, XDATA, add(CFA_XSP16, literal(-20)))
        CFI (cfiCond177) V3 load(1, XDATA, add(CFA_XSP16, literal(-19)))
        CFI (cfiCond177) V4 load(1, XDATA, add(CFA_XSP16, literal(-18)))
        CFI (cfiCond177) V5 load(1, XDATA, add(CFA_XSP16, literal(-17)))
        CFI (cfiCond177) V6 load(1, XDATA, add(CFA_XSP16, literal(-16)))
        CFI (cfiCond177) V7 load(1, XDATA, add(CFA_XSP16, literal(-15)))
        CFI (cfiCond177) V8 load(1, XDATA, add(CFA_XSP16, literal(-14)))
        CFI (cfiCond177) V9 load(1, XDATA, add(CFA_XSP16, literal(-13)))
        CFI (cfiCond177) V10 load(1, XDATA, add(CFA_XSP16, literal(-12)))
        CFI (cfiCond177) V11 load(1, XDATA, add(CFA_XSP16, literal(-11)))
        CFI (cfiCond177) V12 load(1, XDATA, add(CFA_XSP16, literal(-10)))
        CFI (cfiCond177) V13 load(1, XDATA, add(CFA_XSP16, literal(-9)))
        CFI (cfiCond177) V14 load(1, XDATA, add(CFA_XSP16, literal(-8)))
        CFI (cfiCond177) V15 load(1, XDATA, add(CFA_XSP16, literal(-7)))
        CFI (cfiCond177) R7 load(1, XDATA, add(CFA_XSP16, literal(-6)))
        CFI (cfiCond177) ?RET_LOW load(1, XDATA, add(CFA_XSP16, literal(-5)))
        CFI (cfiCond177) ?RET_HIGH load(1, XDATA, add(CFA_XSP16, literal(-4)))
        CFI (cfiCond177) ?BRET_EXT load(1, XDATA, add(CFA_XSP16, literal(-3)))
        CFI (cfiCond177) DPL0 load(1, XDATA, add(CFA_XSP16, literal(-2)))
        CFI (cfiCond177) DPH0 load(1, XDATA, add(CFA_XSP16, literal(-1)))
        CFI (cfiCond177) CFA_SP SP+0
        CFI (cfiCond177) CFA_XSP16 add(XSP16, 25)
        CFI Block cfiCond178 Using cfiCommon0
        CFI (cfiCond178) NoFunction
        CFI (cfiCond178) Conditional ??CrossCallReturnLabel_104, ??CrossCallReturnLabel_100
        CFI (cfiCond178) R6 load(1, XDATA, add(CFA_XSP16, literal(-24)))
        CFI (cfiCond178) VB load(1, XDATA, add(CFA_XSP16, literal(-23)))
        CFI (cfiCond178) V0 load(1, XDATA, add(CFA_XSP16, literal(-22)))
        CFI (cfiCond178) V1 load(1, XDATA, add(CFA_XSP16, literal(-21)))
        CFI (cfiCond178) V2 load(1, XDATA, add(CFA_XSP16, literal(-20)))
        CFI (cfiCond178) V3 load(1, XDATA, add(CFA_XSP16, literal(-19)))
        CFI (cfiCond178) V4 load(1, XDATA, add(CFA_XSP16, literal(-18)))
        CFI (cfiCond178) V5 load(1, XDATA, add(CFA_XSP16, literal(-17)))
        CFI (cfiCond178) V6 load(1, XDATA, add(CFA_XSP16, literal(-16)))
        CFI (cfiCond178) V7 load(1, XDATA, add(CFA_XSP16, literal(-15)))
        CFI (cfiCond178) V8 load(1, XDATA, add(CFA_XSP16, literal(-14)))
        CFI (cfiCond178) V9 load(1, XDATA, add(CFA_XSP16, literal(-13)))
        CFI (cfiCond178) V10 load(1, XDATA, add(CFA_XSP16, literal(-12)))
        CFI (cfiCond178) V11 load(1, XDATA, add(CFA_XSP16, literal(-11)))
        CFI (cfiCond178) V12 load(1, XDATA, add(CFA_XSP16, literal(-10)))
        CFI (cfiCond178) V13 load(1, XDATA, add(CFA_XSP16, literal(-9)))
        CFI (cfiCond178) V14 load(1, XDATA, add(CFA_XSP16, literal(-8)))
        CFI (cfiCond178) V15 load(1, XDATA, add(CFA_XSP16, literal(-7)))
        CFI (cfiCond178) R7 load(1, XDATA, add(CFA_XSP16, literal(-6)))
        CFI (cfiCond178) ?RET_LOW load(1, XDATA, add(CFA_XSP16, literal(-5)))
        CFI (cfiCond178) ?RET_HIGH load(1, XDATA, add(CFA_XSP16, literal(-4)))
        CFI (cfiCond178) ?BRET_EXT load(1, XDATA, add(CFA_XSP16, literal(-3)))
        CFI (cfiCond178) DPL0 load(1, XDATA, add(CFA_XSP16, literal(-2)))
        CFI (cfiCond178) DPH0 load(1, XDATA, add(CFA_XSP16, literal(-1)))
        CFI (cfiCond178) CFA_SP SP+0
        CFI (cfiCond178) CFA_XSP16 add(XSP16, 25)
        CFI Block cfiCond179 Using cfiCommon0
        CFI (cfiCond179) NoFunction
        CFI (cfiCond179) Conditional ??CrossCallReturnLabel_104, ??CrossCallReturnLabel_101
        CFI (cfiCond179) R6 load(1, XDATA, add(CFA_XSP16, literal(-24)))
        CFI (cfiCond179) VB load(1, XDATA, add(CFA_XSP16, literal(-23)))
        CFI (cfiCond179) V0 load(1, XDATA, add(CFA_XSP16, literal(-22)))
        CFI (cfiCond179) V1 load(1, XDATA, add(CFA_XSP16, literal(-21)))
        CFI (cfiCond179) V2 load(1, XDATA, add(CFA_XSP16, literal(-20)))
        CFI (cfiCond179) V3 load(1, XDATA, add(CFA_XSP16, literal(-19)))
        CFI (cfiCond179) V4 load(1, XDATA, add(CFA_XSP16, literal(-18)))
        CFI (cfiCond179) V5 load(1, XDATA, add(CFA_XSP16, literal(-17)))
        CFI (cfiCond179) V6 load(1, XDATA, add(CFA_XSP16, literal(-16)))
        CFI (cfiCond179) V7 load(1, XDATA, add(CFA_XSP16, literal(-15)))
        CFI (cfiCond179) V8 load(1, XDATA, add(CFA_XSP16, literal(-14)))
        CFI (cfiCond179) V9 load(1, XDATA, add(CFA_XSP16, literal(-13)))
        CFI (cfiCond179) V10 load(1, XDATA, add(CFA_XSP16, literal(-12)))
        CFI (cfiCond179) V11 load(1, XDATA, add(CFA_XSP16, literal(-11)))
        CFI (cfiCond179) V12 load(1, XDATA, add(CFA_XSP16, literal(-10)))
        CFI (cfiCond179) V13 load(1, XDATA, add(CFA_XSP16, literal(-9)))
        CFI (cfiCond179) V14 load(1, XDATA, add(CFA_XSP16, literal(-8)))
        CFI (cfiCond179) V15 load(1, XDATA, add(CFA_XSP16, literal(-7)))
        CFI (cfiCond179) R7 load(1, XDATA, add(CFA_XSP16, literal(-6)))
        CFI (cfiCond179) ?RET_LOW load(1, XDATA, add(CFA_XSP16, literal(-5)))
        CFI (cfiCond179) ?RET_HIGH load(1, XDATA, add(CFA_XSP16, literal(-4)))
        CFI (cfiCond179) ?BRET_EXT load(1, XDATA, add(CFA_XSP16, literal(-3)))
        CFI (cfiCond179) DPL0 load(1, XDATA, add(CFA_XSP16, literal(-2)))
        CFI (cfiCond179) DPH0 load(1, XDATA, add(CFA_XSP16, literal(-1)))
        CFI (cfiCond179) CFA_SP SP+0
        CFI (cfiCond179) CFA_XSP16 add(XSP16, 25)
        CFI Block cfiPicker180 Using cfiCommon1
        CFI (cfiPicker180) NoFunction
        CFI (cfiPicker180) Picker
        MOVX    @DPTR,A
        INC     DPTR
        MOV     ?V0 + 2,DPL
        MOV     ?V0 + 3,DPH
        RET
        CFI EndBlock cfiCond172
        CFI EndBlock cfiCond173
        CFI EndBlock cfiCond174
        CFI EndBlock cfiCond175
        CFI EndBlock cfiCond176
        CFI EndBlock cfiCond177
        CFI EndBlock cfiCond178
        CFI EndBlock cfiCond179
        CFI EndBlock cfiPicker180

        RSEG BANKED_CODE:CODE:NOROOT(0)
?Subroutine25:
        CFI Block cfiCond181 Using cfiCommon0
        CFI NoFunction
        CFI Conditional ??CrossCallReturnLabel_30
        CFI R6 load(1, XDATA, add(CFA_XSP16, literal(-24)))
        CFI VB load(1, XDATA, add(CFA_XSP16, literal(-23)))
        CFI V0 load(1, XDATA, add(CFA_XSP16, literal(-22)))
        CFI V1 load(1, XDATA, add(CFA_XSP16, literal(-21)))
        CFI V2 load(1, XDATA, add(CFA_XSP16, literal(-20)))
        CFI V3 load(1, XDATA, add(CFA_XSP16, literal(-19)))
        CFI V4 load(1, XDATA, add(CFA_XSP16, literal(-18)))
        CFI V5 load(1, XDATA, add(CFA_XSP16, literal(-17)))
        CFI V6 load(1, XDATA, add(CFA_XSP16, literal(-16)))
        CFI V7 load(1, XDATA, add(CFA_XSP16, literal(-15)))
        CFI V8 load(1, XDATA, add(CFA_XSP16, literal(-14)))
        CFI V9 load(1, XDATA, add(CFA_XSP16, literal(-13)))
        CFI V10 load(1, XDATA, add(CFA_XSP16, literal(-12)))
        CFI V11 load(1, XDATA, add(CFA_XSP16, literal(-11)))
        CFI V12 load(1, XDATA, add(CFA_XSP16, literal(-10)))
        CFI V13 load(1, XDATA, add(CFA_XSP16, literal(-9)))
        CFI V14 load(1, XDATA, add(CFA_XSP16, literal(-8)))
        CFI V15 load(1, XDATA, add(CFA_XSP16, literal(-7)))
        CFI R7 load(1, XDATA, add(CFA_XSP16, literal(-6)))
        CFI ?RET_LOW load(1, XDATA, add(CFA_XSP16, literal(-5)))
        CFI ?RET_HIGH load(1, XDATA, add(CFA_XSP16, literal(-4)))
        CFI ?BRET_EXT load(1, XDATA, add(CFA_XSP16, literal(-3)))
        CFI DPL0 load(1, XDATA, add(CFA_XSP16, literal(-2)))
        CFI DPH0 load(1, XDATA, add(CFA_XSP16, literal(-1)))
        CFI CFA_SP SP+0
        CFI CFA_XSP16 add(XSP16, 25)
        CFI Block cfiCond182 Using cfiCommon0
        CFI (cfiCond182) NoFunction
        CFI (cfiCond182) Conditional ??CrossCallReturnLabel_31
        CFI (cfiCond182) R6 load(1, XDATA, add(CFA_XSP16, literal(-24)))
        CFI (cfiCond182) VB load(1, XDATA, add(CFA_XSP16, literal(-23)))
        CFI (cfiCond182) V0 load(1, XDATA, add(CFA_XSP16, literal(-22)))
        CFI (cfiCond182) V1 load(1, XDATA, add(CFA_XSP16, literal(-21)))
        CFI (cfiCond182) V2 load(1, XDATA, add(CFA_XSP16, literal(-20)))
        CFI (cfiCond182) V3 load(1, XDATA, add(CFA_XSP16, literal(-19)))
        CFI (cfiCond182) V4 load(1, XDATA, add(CFA_XSP16, literal(-18)))
        CFI (cfiCond182) V5 load(1, XDATA, add(CFA_XSP16, literal(-17)))
        CFI (cfiCond182) V6 load(1, XDATA, add(CFA_XSP16, literal(-16)))
        CFI (cfiCond182) V7 load(1, XDATA, add(CFA_XSP16, literal(-15)))
        CFI (cfiCond182) V8 load(1, XDATA, add(CFA_XSP16, literal(-14)))
        CFI (cfiCond182) V9 load(1, XDATA, add(CFA_XSP16, literal(-13)))
        CFI (cfiCond182) V10 load(1, XDATA, add(CFA_XSP16, literal(-12)))
        CFI (cfiCond182) V11 load(1, XDATA, add(CFA_XSP16, literal(-11)))
        CFI (cfiCond182) V12 load(1, XDATA, add(CFA_XSP16, literal(-10)))
        CFI (cfiCond182) V13 load(1, XDATA, add(CFA_XSP16, literal(-9)))
        CFI (cfiCond182) V14 load(1, XDATA, add(CFA_XSP16, literal(-8)))
        CFI (cfiCond182) V15 load(1, XDATA, add(CFA_XSP16, literal(-7)))
        CFI (cfiCond182) R7 load(1, XDATA, add(CFA_XSP16, literal(-6)))
        CFI (cfiCond182) ?RET_LOW load(1, XDATA, add(CFA_XSP16, literal(-5)))
        CFI (cfiCond182) ?RET_HIGH load(1, XDATA, add(CFA_XSP16, literal(-4)))
        CFI (cfiCond182) ?BRET_EXT load(1, XDATA, add(CFA_XSP16, literal(-3)))
        CFI (cfiCond182) DPL0 load(1, XDATA, add(CFA_XSP16, literal(-2)))
        CFI (cfiCond182) DPH0 load(1, XDATA, add(CFA_XSP16, literal(-1)))
        CFI (cfiCond182) CFA_SP SP+0
        CFI (cfiCond182) CFA_XSP16 add(XSP16, 25)
        CFI Block cfiPicker183 Using cfiCommon1
        CFI (cfiPicker183) NoFunction
        CFI (cfiPicker183) Picker
        LCALL   ?Subroutine39 & 0xFFFF
??CrossCallReturnLabel_102:
        MOV     A,?V0 + 8
        RET
        CFI EndBlock cfiCond181
        CFI EndBlock cfiCond182
        CFI EndBlock cfiPicker183

        RSEG BANKED_CODE:CODE:NOROOT(0)
?Subroutine21:
        CFI Block cfiCond184 Using cfiCommon0
        CFI NoFunction
        CFI Conditional ??CrossCallReturnLabel_99
        CFI R6 load(1, XDATA, add(CFA_XSP16, literal(-24)))
        CFI VB load(1, XDATA, add(CFA_XSP16, literal(-23)))
        CFI V0 load(1, XDATA, add(CFA_XSP16, literal(-22)))
        CFI V1 load(1, XDATA, add(CFA_XSP16, literal(-21)))
        CFI V2 load(1, XDATA, add(CFA_XSP16, literal(-20)))
        CFI V3 load(1, XDATA, add(CFA_XSP16, literal(-19)))
        CFI V4 load(1, XDATA, add(CFA_XSP16, literal(-18)))
        CFI V5 load(1, XDATA, add(CFA_XSP16, literal(-17)))
        CFI V6 load(1, XDATA, add(CFA_XSP16, literal(-16)))
        CFI V7 load(1, XDATA, add(CFA_XSP16, literal(-15)))
        CFI V8 load(1, XDATA, add(CFA_XSP16, literal(-14)))
        CFI V9 load(1, XDATA, add(CFA_XSP16, literal(-13)))
        CFI V10 load(1, XDATA, add(CFA_XSP16, literal(-12)))
        CFI V11 load(1, XDATA, add(CFA_XSP16, literal(-11)))
        CFI V12 load(1, XDATA, add(CFA_XSP16, literal(-10)))
        CFI V13 load(1, XDATA, add(CFA_XSP16, literal(-9)))
        CFI V14 load(1, XDATA, add(CFA_XSP16, literal(-8)))
        CFI V15 load(1, XDATA, add(CFA_XSP16, literal(-7)))
        CFI R7 load(1, XDATA, add(CFA_XSP16, literal(-6)))
        CFI ?RET_LOW load(1, XDATA, add(CFA_XSP16, literal(-5)))
        CFI ?RET_HIGH load(1, XDATA, add(CFA_XSP16, literal(-4)))
        CFI ?BRET_EXT load(1, XDATA, add(CFA_XSP16, literal(-3)))
        CFI DPL0 load(1, XDATA, add(CFA_XSP16, literal(-2)))
        CFI DPH0 load(1, XDATA, add(CFA_XSP16, literal(-1)))
        CFI CFA_SP SP+0
        CFI CFA_XSP16 add(XSP16, 25)
        CFI Block cfiCond185 Using cfiCommon0
        CFI (cfiCond185) NoFunction
        CFI (cfiCond185) Conditional ??CrossCallReturnLabel_100
        CFI (cfiCond185) R6 load(1, XDATA, add(CFA_XSP16, literal(-24)))
        CFI (cfiCond185) VB load(1, XDATA, add(CFA_XSP16, literal(-23)))
        CFI (cfiCond185) V0 load(1, XDATA, add(CFA_XSP16, literal(-22)))
        CFI (cfiCond185) V1 load(1, XDATA, add(CFA_XSP16, literal(-21)))
        CFI (cfiCond185) V2 load(1, XDATA, add(CFA_XSP16, literal(-20)))
        CFI (cfiCond185) V3 load(1, XDATA, add(CFA_XSP16, literal(-19)))
        CFI (cfiCond185) V4 load(1, XDATA, add(CFA_XSP16, literal(-18)))
        CFI (cfiCond185) V5 load(1, XDATA, add(CFA_XSP16, literal(-17)))
        CFI (cfiCond185) V6 load(1, XDATA, add(CFA_XSP16, literal(-16)))
        CFI (cfiCond185) V7 load(1, XDATA, add(CFA_XSP16, literal(-15)))
        CFI (cfiCond185) V8 load(1, XDATA, add(CFA_XSP16, literal(-14)))
        CFI (cfiCond185) V9 load(1, XDATA, add(CFA_XSP16, literal(-13)))
        CFI (cfiCond185) V10 load(1, XDATA, add(CFA_XSP16, literal(-12)))
        CFI (cfiCond185) V11 load(1, XDATA, add(CFA_XSP16, literal(-11)))
        CFI (cfiCond185) V12 load(1, XDATA, add(CFA_XSP16, literal(-10)))
        CFI (cfiCond185) V13 load(1, XDATA, add(CFA_XSP16, literal(-9)))
        CFI (cfiCond185) V14 load(1, XDATA, add(CFA_XSP16, literal(-8)))
        CFI (cfiCond185) V15 load(1, XDATA, add(CFA_XSP16, literal(-7)))
        CFI (cfiCond185) R7 load(1, XDATA, add(CFA_XSP16, literal(-6)))
        CFI (cfiCond185) ?RET_LOW load(1, XDATA, add(CFA_XSP16, literal(-5)))
        CFI (cfiCond185) ?RET_HIGH load(1, XDATA, add(CFA_XSP16, literal(-4)))
        CFI (cfiCond185) ?BRET_EXT load(1, XDATA, add(CFA_XSP16, literal(-3)))
        CFI (cfiCond185) DPL0 load(1, XDATA, add(CFA_XSP16, literal(-2)))
        CFI (cfiCond185) DPH0 load(1, XDATA, add(CFA_XSP16, literal(-1)))
        CFI (cfiCond185) CFA_SP SP+0
        CFI (cfiCond185) CFA_XSP16 add(XSP16, 25)
        CFI Block cfiPicker186 Using cfiCommon1
        CFI (cfiPicker186) NoFunction
        CFI (cfiPicker186) Picker
        MOV     DPL,?V0 + 2
        MOV     DPH,?V0 + 3
        MOV     A,?V0 + 4
        CFI EndBlock cfiCond184
        CFI EndBlock cfiCond185
        CFI EndBlock cfiPicker186
        REQUIRE ??Subroutine54_0
        ; // Fall through to label ??Subroutine54_0

        RSEG BANKED_CODE:CODE:NOROOT(0)
??Subroutine54_0:
        CFI Block cfiCond187 Using cfiCommon0
        CFI NoFunction
        CFI Conditional ??CrossCallReturnLabel_101
        CFI R6 load(1, XDATA, add(CFA_XSP16, literal(-24)))
        CFI VB load(1, XDATA, add(CFA_XSP16, literal(-23)))
        CFI V0 load(1, XDATA, add(CFA_XSP16, literal(-22)))
        CFI V1 load(1, XDATA, add(CFA_XSP16, literal(-21)))
        CFI V2 load(1, XDATA, add(CFA_XSP16, literal(-20)))
        CFI V3 load(1, XDATA, add(CFA_XSP16, literal(-19)))
        CFI V4 load(1, XDATA, add(CFA_XSP16, literal(-18)))
        CFI V5 load(1, XDATA, add(CFA_XSP16, literal(-17)))
        CFI V6 load(1, XDATA, add(CFA_XSP16, literal(-16)))
        CFI V7 load(1, XDATA, add(CFA_XSP16, literal(-15)))
        CFI V8 load(1, XDATA, add(CFA_XSP16, literal(-14)))
        CFI V9 load(1, XDATA, add(CFA_XSP16, literal(-13)))
        CFI V10 load(1, XDATA, add(CFA_XSP16, literal(-12)))
        CFI V11 load(1, XDATA, add(CFA_XSP16, literal(-11)))
        CFI V12 load(1, XDATA, add(CFA_XSP16, literal(-10)))
        CFI V13 load(1, XDATA, add(CFA_XSP16, literal(-9)))
        CFI V14 load(1, XDATA, add(CFA_XSP16, literal(-8)))
        CFI V15 load(1, XDATA, add(CFA_XSP16, literal(-7)))
        CFI R7 load(1, XDATA, add(CFA_XSP16, literal(-6)))
        CFI ?RET_LOW load(1, XDATA, add(CFA_XSP16, literal(-5)))
        CFI ?RET_HIGH load(1, XDATA, add(CFA_XSP16, literal(-4)))
        CFI ?BRET_EXT load(1, XDATA, add(CFA_XSP16, literal(-3)))
        CFI DPL0 load(1, XDATA, add(CFA_XSP16, literal(-2)))
        CFI DPH0 load(1, XDATA, add(CFA_XSP16, literal(-1)))
        CFI CFA_SP SP+0
        CFI CFA_XSP16 add(XSP16, 25)
        CFI Block cfiCond188 Using cfiCommon0
        CFI (cfiCond188) NoFunction
        CFI (cfiCond188) Conditional ??CrossCallReturnLabel_99
        CFI (cfiCond188) R6 load(1, XDATA, add(CFA_XSP16, literal(-24)))
        CFI (cfiCond188) VB load(1, XDATA, add(CFA_XSP16, literal(-23)))
        CFI (cfiCond188) V0 load(1, XDATA, add(CFA_XSP16, literal(-22)))
        CFI (cfiCond188) V1 load(1, XDATA, add(CFA_XSP16, literal(-21)))
        CFI (cfiCond188) V2 load(1, XDATA, add(CFA_XSP16, literal(-20)))
        CFI (cfiCond188) V3 load(1, XDATA, add(CFA_XSP16, literal(-19)))
        CFI (cfiCond188) V4 load(1, XDATA, add(CFA_XSP16, literal(-18)))
        CFI (cfiCond188) V5 load(1, XDATA, add(CFA_XSP16, literal(-17)))
        CFI (cfiCond188) V6 load(1, XDATA, add(CFA_XSP16, literal(-16)))
        CFI (cfiCond188) V7 load(1, XDATA, add(CFA_XSP16, literal(-15)))
        CFI (cfiCond188) V8 load(1, XDATA, add(CFA_XSP16, literal(-14)))
        CFI (cfiCond188) V9 load(1, XDATA, add(CFA_XSP16, literal(-13)))
        CFI (cfiCond188) V10 load(1, XDATA, add(CFA_XSP16, literal(-12)))
        CFI (cfiCond188) V11 load(1, XDATA, add(CFA_XSP16, literal(-11)))
        CFI (cfiCond188) V12 load(1, XDATA, add(CFA_XSP16, literal(-10)))
        CFI (cfiCond188) V13 load(1, XDATA, add(CFA_XSP16, literal(-9)))
        CFI (cfiCond188) V14 load(1, XDATA, add(CFA_XSP16, literal(-8)))
        CFI (cfiCond188) V15 load(1, XDATA, add(CFA_XSP16, literal(-7)))
        CFI (cfiCond188) R7 load(1, XDATA, add(CFA_XSP16, literal(-6)))
        CFI (cfiCond188) ?RET_LOW load(1, XDATA, add(CFA_XSP16, literal(-5)))
        CFI (cfiCond188) ?RET_HIGH load(1, XDATA, add(CFA_XSP16, literal(-4)))
        CFI (cfiCond188) ?BRET_EXT load(1, XDATA, add(CFA_XSP16, literal(-3)))
        CFI (cfiCond188) DPL0 load(1, XDATA, add(CFA_XSP16, literal(-2)))
        CFI (cfiCond188) DPH0 load(1, XDATA, add(CFA_XSP16, literal(-1)))
        CFI (cfiCond188) CFA_SP SP+0
        CFI (cfiCond188) CFA_XSP16 add(XSP16, 25)
        CFI Block cfiCond189 Using cfiCommon0
        CFI (cfiCond189) NoFunction
        CFI (cfiCond189) Conditional ??CrossCallReturnLabel_100
        CFI (cfiCond189) R6 load(1, XDATA, add(CFA_XSP16, literal(-24)))
        CFI (cfiCond189) VB load(1, XDATA, add(CFA_XSP16, literal(-23)))
        CFI (cfiCond189) V0 load(1, XDATA, add(CFA_XSP16, literal(-22)))
        CFI (cfiCond189) V1 load(1, XDATA, add(CFA_XSP16, literal(-21)))
        CFI (cfiCond189) V2 load(1, XDATA, add(CFA_XSP16, literal(-20)))
        CFI (cfiCond189) V3 load(1, XDATA, add(CFA_XSP16, literal(-19)))
        CFI (cfiCond189) V4 load(1, XDATA, add(CFA_XSP16, literal(-18)))
        CFI (cfiCond189) V5 load(1, XDATA, add(CFA_XSP16, literal(-17)))
        CFI (cfiCond189) V6 load(1, XDATA, add(CFA_XSP16, literal(-16)))
        CFI (cfiCond189) V7 load(1, XDATA, add(CFA_XSP16, literal(-15)))
        CFI (cfiCond189) V8 load(1, XDATA, add(CFA_XSP16, literal(-14)))
        CFI (cfiCond189) V9 load(1, XDATA, add(CFA_XSP16, literal(-13)))
        CFI (cfiCond189) V10 load(1, XDATA, add(CFA_XSP16, literal(-12)))
        CFI (cfiCond189) V11 load(1, XDATA, add(CFA_XSP16, literal(-11)))
        CFI (cfiCond189) V12 load(1, XDATA, add(CFA_XSP16, literal(-10)))
        CFI (cfiCond189) V13 load(1, XDATA, add(CFA_XSP16, literal(-9)))
        CFI (cfiCond189) V14 load(1, XDATA, add(CFA_XSP16, literal(-8)))
        CFI (cfiCond189) V15 load(1, XDATA, add(CFA_XSP16, literal(-7)))
        CFI (cfiCond189) R7 load(1, XDATA, add(CFA_XSP16, literal(-6)))
        CFI (cfiCond189) ?RET_LOW load(1, XDATA, add(CFA_XSP16, literal(-5)))
        CFI (cfiCond189) ?RET_HIGH load(1, XDATA, add(CFA_XSP16, literal(-4)))
        CFI (cfiCond189) ?BRET_EXT load(1, XDATA, add(CFA_XSP16, literal(-3)))
        CFI (cfiCond189) DPL0 load(1, XDATA, add(CFA_XSP16, literal(-2)))
        CFI (cfiCond189) DPH0 load(1, XDATA, add(CFA_XSP16, literal(-1)))
        CFI (cfiCond189) CFA_SP SP+0
        CFI (cfiCond189) CFA_XSP16 add(XSP16, 25)
        CFI Block cfiPicker190 Using cfiCommon1
        CFI (cfiPicker190) NoFunction
        CFI (cfiPicker190) Picker
        LCALL   ?Subroutine39 & 0xFFFF
??CrossCallReturnLabel_104:
        MOV     DPL,?V0 + 12
        MOV     DPH,?V0 + 13
        MOV     R0,#?V0 + 4
        RET
        CFI EndBlock cfiCond187
        CFI EndBlock cfiCond188
        CFI EndBlock cfiCond189
        CFI EndBlock cfiPicker190

        RSEG BANKED_CODE:CODE:NOROOT(0)
?Subroutine13:
        CFI Block cfiCond191 Using cfiCommon0
        CFI NoFunction
        CFI Conditional ??CrossCallReturnLabel_10
        CFI R6 load(1, XDATA, add(CFA_XSP16, literal(-24)))
        CFI VB load(1, XDATA, add(CFA_XSP16, literal(-23)))
        CFI V0 load(1, XDATA, add(CFA_XSP16, literal(-22)))
        CFI V1 load(1, XDATA, add(CFA_XSP16, literal(-21)))
        CFI V2 load(1, XDATA, add(CFA_XSP16, literal(-20)))
        CFI V3 load(1, XDATA, add(CFA_XSP16, literal(-19)))
        CFI V4 load(1, XDATA, add(CFA_XSP16, literal(-18)))
        CFI V5 load(1, XDATA, add(CFA_XSP16, literal(-17)))
        CFI V6 load(1, XDATA, add(CFA_XSP16, literal(-16)))
        CFI V7 load(1, XDATA, add(CFA_XSP16, literal(-15)))
        CFI V8 load(1, XDATA, add(CFA_XSP16, literal(-14)))
        CFI V9 load(1, XDATA, add(CFA_XSP16, literal(-13)))
        CFI V10 load(1, XDATA, add(CFA_XSP16, literal(-12)))
        CFI V11 load(1, XDATA, add(CFA_XSP16, literal(-11)))
        CFI V12 load(1, XDATA, add(CFA_XSP16, literal(-10)))
        CFI V13 load(1, XDATA, add(CFA_XSP16, literal(-9)))
        CFI V14 load(1, XDATA, add(CFA_XSP16, literal(-8)))
        CFI V15 load(1, XDATA, add(CFA_XSP16, literal(-7)))
        CFI R7 load(1, XDATA, add(CFA_XSP16, literal(-6)))
        CFI ?RET_LOW load(1, XDATA, add(CFA_XSP16, literal(-5)))
        CFI ?RET_HIGH load(1, XDATA, add(CFA_XSP16, literal(-4)))
        CFI ?BRET_EXT load(1, XDATA, add(CFA_XSP16, literal(-3)))
        CFI DPL0 load(1, XDATA, add(CFA_XSP16, literal(-2)))
        CFI DPH0 load(1, XDATA, add(CFA_XSP16, literal(-1)))
        CFI CFA_SP SP+0
        CFI CFA_XSP16 add(XSP16, 25)
        CFI Block cfiCond192 Using cfiCommon0
        CFI (cfiCond192) NoFunction
        CFI (cfiCond192) Conditional ??CrossCallReturnLabel_11
        CFI (cfiCond192) R6 load(1, XDATA, add(CFA_XSP16, literal(-24)))
        CFI (cfiCond192) VB load(1, XDATA, add(CFA_XSP16, literal(-23)))
        CFI (cfiCond192) V0 load(1, XDATA, add(CFA_XSP16, literal(-22)))
        CFI (cfiCond192) V1 load(1, XDATA, add(CFA_XSP16, literal(-21)))
        CFI (cfiCond192) V2 load(1, XDATA, add(CFA_XSP16, literal(-20)))
        CFI (cfiCond192) V3 load(1, XDATA, add(CFA_XSP16, literal(-19)))
        CFI (cfiCond192) V4 load(1, XDATA, add(CFA_XSP16, literal(-18)))
        CFI (cfiCond192) V5 load(1, XDATA, add(CFA_XSP16, literal(-17)))
        CFI (cfiCond192) V6 load(1, XDATA, add(CFA_XSP16, literal(-16)))
        CFI (cfiCond192) V7 load(1, XDATA, add(CFA_XSP16, literal(-15)))
        CFI (cfiCond192) V8 load(1, XDATA, add(CFA_XSP16, literal(-14)))
        CFI (cfiCond192) V9 load(1, XDATA, add(CFA_XSP16, literal(-13)))
        CFI (cfiCond192) V10 load(1, XDATA, add(CFA_XSP16, literal(-12)))
        CFI (cfiCond192) V11 load(1, XDATA, add(CFA_XSP16, literal(-11)))
        CFI (cfiCond192) V12 load(1, XDATA, add(CFA_XSP16, literal(-10)))
        CFI (cfiCond192) V13 load(1, XDATA, add(CFA_XSP16, literal(-9)))
        CFI (cfiCond192) V14 load(1, XDATA, add(CFA_XSP16, literal(-8)))
        CFI (cfiCond192) V15 load(1, XDATA, add(CFA_XSP16, literal(-7)))
        CFI (cfiCond192) R7 load(1, XDATA, add(CFA_XSP16, literal(-6)))
        CFI (cfiCond192) ?RET_LOW load(1, XDATA, add(CFA_XSP16, literal(-5)))
        CFI (cfiCond192) ?RET_HIGH load(1, XDATA, add(CFA_XSP16, literal(-4)))
        CFI (cfiCond192) ?BRET_EXT load(1, XDATA, add(CFA_XSP16, literal(-3)))
        CFI (cfiCond192) DPL0 load(1, XDATA, add(CFA_XSP16, literal(-2)))
        CFI (cfiCond192) DPH0 load(1, XDATA, add(CFA_XSP16, literal(-1)))
        CFI (cfiCond192) CFA_SP SP+0
        CFI (cfiCond192) CFA_XSP16 add(XSP16, 25)
        CFI Block cfiPicker193 Using cfiCommon1
        CFI (cfiPicker193) NoFunction
        CFI (cfiPicker193) Picker
        MOV     DPL,?V0 + 4
        MOV     DPH,?V0 + 5
        LCALL   ?Subroutine35 & 0xFFFF
??CrossCallReturnLabel_56:
        MOV     R0,#?V0 + 4
        RET
        CFI EndBlock cfiCond191
        CFI EndBlock cfiCond192
        CFI EndBlock cfiPicker193

        RSEG BANKED_CODE:CODE:NOROOT(0)
?Subroutine35:
        CFI Block cfiCond194 Using cfiCommon0
        CFI NoFunction
        CFI Conditional ??CrossCallReturnLabel_54
        CFI R6 load(1, XDATA, add(CFA_XSP16, literal(-22)))
        CFI VB load(1, XDATA, add(CFA_XSP16, literal(-21)))
        CFI V0 load(1, XDATA, add(CFA_XSP16, literal(-20)))
        CFI V1 load(1, XDATA, add(CFA_XSP16, literal(-19)))
        CFI V2 load(1, XDATA, add(CFA_XSP16, literal(-18)))
        CFI V3 load(1, XDATA, add(CFA_XSP16, literal(-17)))
        CFI V4 load(1, XDATA, add(CFA_XSP16, literal(-16)))
        CFI V5 load(1, XDATA, add(CFA_XSP16, literal(-15)))
        CFI V6 load(1, XDATA, add(CFA_XSP16, literal(-14)))
        CFI V7 load(1, XDATA, add(CFA_XSP16, literal(-13)))
        CFI V8 load(1, XDATA, add(CFA_XSP16, literal(-12)))
        CFI V9 load(1, XDATA, add(CFA_XSP16, literal(-11)))
        CFI V10 load(1, XDATA, add(CFA_XSP16, literal(-10)))
        CFI V11 load(1, XDATA, add(CFA_XSP16, literal(-9)))
        CFI V12 load(1, XDATA, add(CFA_XSP16, literal(-8)))
        CFI V13 load(1, XDATA, add(CFA_XSP16, literal(-7)))
        CFI R7 load(1, XDATA, add(CFA_XSP16, literal(-6)))
        CFI ?RET_LOW load(1, XDATA, add(CFA_XSP16, literal(-5)))
        CFI ?RET_HIGH load(1, XDATA, add(CFA_XSP16, literal(-4)))
        CFI ?BRET_EXT load(1, XDATA, add(CFA_XSP16, literal(-3)))
        CFI DPL0 load(1, XDATA, add(CFA_XSP16, literal(-2)))
        CFI DPH0 load(1, XDATA, add(CFA_XSP16, literal(-1)))
        CFI CFA_SP SP+0
        CFI CFA_XSP16 add(XSP16, 36)
        CFI Block cfiCond195 Using cfiCommon0
        CFI (cfiCond195) NoFunction
        CFI (cfiCond195) Conditional ??CrossCallReturnLabel_56, ??CrossCallReturnLabel_10
        CFI (cfiCond195) R6 load(1, XDATA, add(CFA_XSP16, literal(-24)))
        CFI (cfiCond195) VB load(1, XDATA, add(CFA_XSP16, literal(-23)))
        CFI (cfiCond195) V0 load(1, XDATA, add(CFA_XSP16, literal(-22)))
        CFI (cfiCond195) V1 load(1, XDATA, add(CFA_XSP16, literal(-21)))
        CFI (cfiCond195) V2 load(1, XDATA, add(CFA_XSP16, literal(-20)))
        CFI (cfiCond195) V3 load(1, XDATA, add(CFA_XSP16, literal(-19)))
        CFI (cfiCond195) V4 load(1, XDATA, add(CFA_XSP16, literal(-18)))
        CFI (cfiCond195) V5 load(1, XDATA, add(CFA_XSP16, literal(-17)))
        CFI (cfiCond195) V6 load(1, XDATA, add(CFA_XSP16, literal(-16)))
        CFI (cfiCond195) V7 load(1, XDATA, add(CFA_XSP16, literal(-15)))
        CFI (cfiCond195) V8 load(1, XDATA, add(CFA_XSP16, literal(-14)))
        CFI (cfiCond195) V9 load(1, XDATA, add(CFA_XSP16, literal(-13)))
        CFI (cfiCond195) V10 load(1, XDATA, add(CFA_XSP16, literal(-12)))
        CFI (cfiCond195) V11 load(1, XDATA, add(CFA_XSP16, literal(-11)))
        CFI (cfiCond195) V12 load(1, XDATA, add(CFA_XSP16, literal(-10)))
        CFI (cfiCond195) V13 load(1, XDATA, add(CFA_XSP16, literal(-9)))
        CFI (cfiCond195) V14 load(1, XDATA, add(CFA_XSP16, literal(-8)))
        CFI (cfiCond195) V15 load(1, XDATA, add(CFA_XSP16, literal(-7)))
        CFI (cfiCond195) R7 load(1, XDATA, add(CFA_XSP16, literal(-6)))
        CFI (cfiCond195) ?RET_LOW load(1, XDATA, add(CFA_XSP16, literal(-5)))
        CFI (cfiCond195) ?RET_HIGH load(1, XDATA, add(CFA_XSP16, literal(-4)))
        CFI (cfiCond195) ?BRET_EXT load(1, XDATA, add(CFA_XSP16, literal(-3)))
        CFI (cfiCond195) DPL0 load(1, XDATA, add(CFA_XSP16, literal(-2)))
        CFI (cfiCond195) DPH0 load(1, XDATA, add(CFA_XSP16, literal(-1)))
        CFI (cfiCond195) CFA_SP SP+0
        CFI (cfiCond195) CFA_XSP16 add(XSP16, 25)
        CFI Block cfiCond196 Using cfiCommon0
        CFI (cfiCond196) NoFunction
        CFI (cfiCond196) Conditional ??CrossCallReturnLabel_56, ??CrossCallReturnLabel_11
        CFI (cfiCond196) R6 load(1, XDATA, add(CFA_XSP16, literal(-24)))
        CFI (cfiCond196) VB load(1, XDATA, add(CFA_XSP16, literal(-23)))
        CFI (cfiCond196) V0 load(1, XDATA, add(CFA_XSP16, literal(-22)))
        CFI (cfiCond196) V1 load(1, XDATA, add(CFA_XSP16, literal(-21)))
        CFI (cfiCond196) V2 load(1, XDATA, add(CFA_XSP16, literal(-20)))
        CFI (cfiCond196) V3 load(1, XDATA, add(CFA_XSP16, literal(-19)))
        CFI (cfiCond196) V4 load(1, XDATA, add(CFA_XSP16, literal(-18)))
        CFI (cfiCond196) V5 load(1, XDATA, add(CFA_XSP16, literal(-17)))
        CFI (cfiCond196) V6 load(1, XDATA, add(CFA_XSP16, literal(-16)))
        CFI (cfiCond196) V7 load(1, XDATA, add(CFA_XSP16, literal(-15)))
        CFI (cfiCond196) V8 load(1, XDATA, add(CFA_XSP16, literal(-14)))
        CFI (cfiCond196) V9 load(1, XDATA, add(CFA_XSP16, literal(-13)))
        CFI (cfiCond196) V10 load(1, XDATA, add(CFA_XSP16, literal(-12)))
        CFI (cfiCond196) V11 load(1, XDATA, add(CFA_XSP16, literal(-11)))
        CFI (cfiCond196) V12 load(1, XDATA, add(CFA_XSP16, literal(-10)))
        CFI (cfiCond196) V13 load(1, XDATA, add(CFA_XSP16, literal(-9)))
        CFI (cfiCond196) V14 load(1, XDATA, add(CFA_XSP16, literal(-8)))
        CFI (cfiCond196) V15 load(1, XDATA, add(CFA_XSP16, literal(-7)))
        CFI (cfiCond196) R7 load(1, XDATA, add(CFA_XSP16, literal(-6)))
        CFI (cfiCond196) ?RET_LOW load(1, XDATA, add(CFA_XSP16, literal(-5)))
        CFI (cfiCond196) ?RET_HIGH load(1, XDATA, add(CFA_XSP16, literal(-4)))
        CFI (cfiCond196) ?BRET_EXT load(1, XDATA, add(CFA_XSP16, literal(-3)))
        CFI (cfiCond196) DPL0 load(1, XDATA, add(CFA_XSP16, literal(-2)))
        CFI (cfiCond196) DPH0 load(1, XDATA, add(CFA_XSP16, literal(-1)))
        CFI (cfiCond196) CFA_SP SP+0
        CFI (cfiCond196) CFA_XSP16 add(XSP16, 25)
        CFI Block cfiCond197 Using cfiCommon0
        CFI (cfiCond197) NoFunction
        CFI (cfiCond197) Conditional ??CrossCallReturnLabel_55
        CFI (cfiCond197) R6 load(1, XDATA, add(CFA_XSP16, literal(-14)))
        CFI (cfiCond197) VB load(1, XDATA, add(CFA_XSP16, literal(-13)))
        CFI (cfiCond197) V0 load(1, XDATA, add(CFA_XSP16, literal(-12)))
        CFI (cfiCond197) V1 load(1, XDATA, add(CFA_XSP16, literal(-11)))
        CFI (cfiCond197) V2 load(1, XDATA, add(CFA_XSP16, literal(-10)))
        CFI (cfiCond197) V3 load(1, XDATA, add(CFA_XSP16, literal(-9)))
        CFI (cfiCond197) V4 load(1, XDATA, add(CFA_XSP16, literal(-8)))
        CFI (cfiCond197) V5 load(1, XDATA, add(CFA_XSP16, literal(-7)))
        CFI (cfiCond197) R7 load(1, XDATA, add(CFA_XSP16, literal(-6)))
        CFI (cfiCond197) ?RET_LOW load(1, XDATA, add(CFA_XSP16, literal(-5)))
        CFI (cfiCond197) ?RET_HIGH load(1, XDATA, add(CFA_XSP16, literal(-4)))
        CFI (cfiCond197) ?BRET_EXT load(1, XDATA, add(CFA_XSP16, literal(-3)))
        CFI (cfiCond197) DPL0 load(1, XDATA, add(CFA_XSP16, literal(-2)))
        CFI (cfiCond197) DPH0 load(1, XDATA, add(CFA_XSP16, literal(-1)))
        CFI (cfiCond197) CFA_SP SP+0
        CFI (cfiCond197) CFA_XSP16 add(XSP16, 15)
        CFI Block cfiPicker198 Using cfiCommon1
        CFI (cfiPicker198) NoFunction
        CFI (cfiPicker198) Picker
        MOVX    A,@DPTR
        MOV     ?V0 + 4,A
        INC     DPTR
        MOVX    A,@DPTR
        MOV     ?V0 + 5,A
        RET
        CFI EndBlock cfiCond194
        CFI EndBlock cfiCond195
        CFI EndBlock cfiCond196
        CFI EndBlock cfiCond197
        CFI EndBlock cfiPicker198

        RSEG BANKED_CODE:CODE:NOROOT(0)
?Subroutine8:
        CFI Block cfiCond199 Using cfiCommon0
        CFI NoFunction
        CFI Conditional ??CrossCallReturnLabel_2
        CFI R6 load(1, XDATA, add(CFA_XSP16, literal(-24)))
        CFI VB load(1, XDATA, add(CFA_XSP16, literal(-23)))
        CFI V0 load(1, XDATA, add(CFA_XSP16, literal(-22)))
        CFI V1 load(1, XDATA, add(CFA_XSP16, literal(-21)))
        CFI V2 load(1, XDATA, add(CFA_XSP16, literal(-20)))
        CFI V3 load(1, XDATA, add(CFA_XSP16, literal(-19)))
        CFI V4 load(1, XDATA, add(CFA_XSP16, literal(-18)))
        CFI V5 load(1, XDATA, add(CFA_XSP16, literal(-17)))
        CFI V6 load(1, XDATA, add(CFA_XSP16, literal(-16)))
        CFI V7 load(1, XDATA, add(CFA_XSP16, literal(-15)))
        CFI V8 load(1, XDATA, add(CFA_XSP16, literal(-14)))
        CFI V9 load(1, XDATA, add(CFA_XSP16, literal(-13)))
        CFI V10 load(1, XDATA, add(CFA_XSP16, literal(-12)))
        CFI V11 load(1, XDATA, add(CFA_XSP16, literal(-11)))
        CFI V12 load(1, XDATA, add(CFA_XSP16, literal(-10)))
        CFI V13 load(1, XDATA, add(CFA_XSP16, literal(-9)))
        CFI V14 load(1, XDATA, add(CFA_XSP16, literal(-8)))
        CFI V15 load(1, XDATA, add(CFA_XSP16, literal(-7)))
        CFI R7 load(1, XDATA, add(CFA_XSP16, literal(-6)))
        CFI ?RET_LOW load(1, XDATA, add(CFA_XSP16, literal(-5)))
        CFI ?RET_HIGH load(1, XDATA, add(CFA_XSP16, literal(-4)))
        CFI ?BRET_EXT load(1, XDATA, add(CFA_XSP16, literal(-3)))
        CFI DPL0 load(1, XDATA, add(CFA_XSP16, literal(-2)))
        CFI DPH0 load(1, XDATA, add(CFA_XSP16, literal(-1)))
        CFI CFA_SP SP+0
        CFI CFA_XSP16 add(XSP16, 25)
        CFI Block cfiCond200 Using cfiCommon0
        CFI (cfiCond200) NoFunction
        CFI (cfiCond200) Conditional ??CrossCallReturnLabel_3
        CFI (cfiCond200) R6 load(1, XDATA, add(CFA_XSP16, literal(-24)))
        CFI (cfiCond200) VB load(1, XDATA, add(CFA_XSP16, literal(-23)))
        CFI (cfiCond200) V0 load(1, XDATA, add(CFA_XSP16, literal(-22)))
        CFI (cfiCond200) V1 load(1, XDATA, add(CFA_XSP16, literal(-21)))
        CFI (cfiCond200) V2 load(1, XDATA, add(CFA_XSP16, literal(-20)))
        CFI (cfiCond200) V3 load(1, XDATA, add(CFA_XSP16, literal(-19)))
        CFI (cfiCond200) V4 load(1, XDATA, add(CFA_XSP16, literal(-18)))
        CFI (cfiCond200) V5 load(1, XDATA, add(CFA_XSP16, literal(-17)))
        CFI (cfiCond200) V6 load(1, XDATA, add(CFA_XSP16, literal(-16)))
        CFI (cfiCond200) V7 load(1, XDATA, add(CFA_XSP16, literal(-15)))
        CFI (cfiCond200) V8 load(1, XDATA, add(CFA_XSP16, literal(-14)))
        CFI (cfiCond200) V9 load(1, XDATA, add(CFA_XSP16, literal(-13)))
        CFI (cfiCond200) V10 load(1, XDATA, add(CFA_XSP16, literal(-12)))
        CFI (cfiCond200) V11 load(1, XDATA, add(CFA_XSP16, literal(-11)))
        CFI (cfiCond200) V12 load(1, XDATA, add(CFA_XSP16, literal(-10)))
        CFI (cfiCond200) V13 load(1, XDATA, add(CFA_XSP16, literal(-9)))
        CFI (cfiCond200) V14 load(1, XDATA, add(CFA_XSP16, literal(-8)))
        CFI (cfiCond200) V15 load(1, XDATA, add(CFA_XSP16, literal(-7)))
        CFI (cfiCond200) R7 load(1, XDATA, add(CFA_XSP16, literal(-6)))
        CFI (cfiCond200) ?RET_LOW load(1, XDATA, add(CFA_XSP16, literal(-5)))
        CFI (cfiCond200) ?RET_HIGH load(1, XDATA, add(CFA_XSP16, literal(-4)))
        CFI (cfiCond200) ?BRET_EXT load(1, XDATA, add(CFA_XSP16, literal(-3)))
        CFI (cfiCond200) DPL0 load(1, XDATA, add(CFA_XSP16, literal(-2)))
        CFI (cfiCond200) DPH0 load(1, XDATA, add(CFA_XSP16, literal(-1)))
        CFI (cfiCond200) CFA_SP SP+0
        CFI (cfiCond200) CFA_XSP16 add(XSP16, 25)
        CFI Block cfiCond201 Using cfiCommon0
        CFI (cfiCond201) NoFunction
        CFI (cfiCond201) Conditional ??CrossCallReturnLabel_4
        CFI (cfiCond201) R6 load(1, XDATA, add(CFA_XSP16, literal(-24)))
        CFI (cfiCond201) VB load(1, XDATA, add(CFA_XSP16, literal(-23)))
        CFI (cfiCond201) V0 load(1, XDATA, add(CFA_XSP16, literal(-22)))
        CFI (cfiCond201) V1 load(1, XDATA, add(CFA_XSP16, literal(-21)))
        CFI (cfiCond201) V2 load(1, XDATA, add(CFA_XSP16, literal(-20)))
        CFI (cfiCond201) V3 load(1, XDATA, add(CFA_XSP16, literal(-19)))
        CFI (cfiCond201) V4 load(1, XDATA, add(CFA_XSP16, literal(-18)))
        CFI (cfiCond201) V5 load(1, XDATA, add(CFA_XSP16, literal(-17)))
        CFI (cfiCond201) V6 load(1, XDATA, add(CFA_XSP16, literal(-16)))
        CFI (cfiCond201) V7 load(1, XDATA, add(CFA_XSP16, literal(-15)))
        CFI (cfiCond201) V8 load(1, XDATA, add(CFA_XSP16, literal(-14)))
        CFI (cfiCond201) V9 load(1, XDATA, add(CFA_XSP16, literal(-13)))
        CFI (cfiCond201) V10 load(1, XDATA, add(CFA_XSP16, literal(-12)))
        CFI (cfiCond201) V11 load(1, XDATA, add(CFA_XSP16, literal(-11)))
        CFI (cfiCond201) V12 load(1, XDATA, add(CFA_XSP16, literal(-10)))
        CFI (cfiCond201) V13 load(1, XDATA, add(CFA_XSP16, literal(-9)))
        CFI (cfiCond201) V14 load(1, XDATA, add(CFA_XSP16, literal(-8)))
        CFI (cfiCond201) V15 load(1, XDATA, add(CFA_XSP16, literal(-7)))
        CFI (cfiCond201) R7 load(1, XDATA, add(CFA_XSP16, literal(-6)))
        CFI (cfiCond201) ?RET_LOW load(1, XDATA, add(CFA_XSP16, literal(-5)))
        CFI (cfiCond201) ?RET_HIGH load(1, XDATA, add(CFA_XSP16, literal(-4)))
        CFI (cfiCond201) ?BRET_EXT load(1, XDATA, add(CFA_XSP16, literal(-3)))
        CFI (cfiCond201) DPL0 load(1, XDATA, add(CFA_XSP16, literal(-2)))
        CFI (cfiCond201) DPH0 load(1, XDATA, add(CFA_XSP16, literal(-1)))
        CFI (cfiCond201) CFA_SP SP+0
        CFI (cfiCond201) CFA_XSP16 add(XSP16, 25)
        CFI Block cfiCond202 Using cfiCommon0
        CFI (cfiCond202) NoFunction
        CFI (cfiCond202) Conditional ??CrossCallReturnLabel_5
        CFI (cfiCond202) R6 load(1, XDATA, add(CFA_XSP16, literal(-24)))
        CFI (cfiCond202) VB load(1, XDATA, add(CFA_XSP16, literal(-23)))
        CFI (cfiCond202) V0 load(1, XDATA, add(CFA_XSP16, literal(-22)))
        CFI (cfiCond202) V1 load(1, XDATA, add(CFA_XSP16, literal(-21)))
        CFI (cfiCond202) V2 load(1, XDATA, add(CFA_XSP16, literal(-20)))
        CFI (cfiCond202) V3 load(1, XDATA, add(CFA_XSP16, literal(-19)))
        CFI (cfiCond202) V4 load(1, XDATA, add(CFA_XSP16, literal(-18)))
        CFI (cfiCond202) V5 load(1, XDATA, add(CFA_XSP16, literal(-17)))
        CFI (cfiCond202) V6 load(1, XDATA, add(CFA_XSP16, literal(-16)))
        CFI (cfiCond202) V7 load(1, XDATA, add(CFA_XSP16, literal(-15)))
        CFI (cfiCond202) V8 load(1, XDATA, add(CFA_XSP16, literal(-14)))
        CFI (cfiCond202) V9 load(1, XDATA, add(CFA_XSP16, literal(-13)))
        CFI (cfiCond202) V10 load(1, XDATA, add(CFA_XSP16, literal(-12)))
        CFI (cfiCond202) V11 load(1, XDATA, add(CFA_XSP16, literal(-11)))
        CFI (cfiCond202) V12 load(1, XDATA, add(CFA_XSP16, literal(-10)))
        CFI (cfiCond202) V13 load(1, XDATA, add(CFA_XSP16, literal(-9)))
        CFI (cfiCond202) V14 load(1, XDATA, add(CFA_XSP16, literal(-8)))
        CFI (cfiCond202) V15 load(1, XDATA, add(CFA_XSP16, literal(-7)))
        CFI (cfiCond202) R7 load(1, XDATA, add(CFA_XSP16, literal(-6)))
        CFI (cfiCond202) ?RET_LOW load(1, XDATA, add(CFA_XSP16, literal(-5)))
        CFI (cfiCond202) ?RET_HIGH load(1, XDATA, add(CFA_XSP16, literal(-4)))
        CFI (cfiCond202) ?BRET_EXT load(1, XDATA, add(CFA_XSP16, literal(-3)))
        CFI (cfiCond202) DPL0 load(1, XDATA, add(CFA_XSP16, literal(-2)))
        CFI (cfiCond202) DPH0 load(1, XDATA, add(CFA_XSP16, literal(-1)))
        CFI (cfiCond202) CFA_SP SP+0
        CFI (cfiCond202) CFA_XSP16 add(XSP16, 25)
        CFI Block cfiPicker203 Using cfiCommon1
        CFI (cfiPicker203) NoFunction
        CFI (cfiPicker203) Picker
        LCALL   ?Subroutine43 & 0xFFFF
??CrossCallReturnLabel_112:
        RET
        CFI EndBlock cfiCond199
        CFI EndBlock cfiCond200
        CFI EndBlock cfiCond201
        CFI EndBlock cfiCond202
        CFI EndBlock cfiPicker203

        RSEG BANKED_CODE:CODE:NOROOT(0)
?Subroutine43:
        CFI Block cfiCond204 Using cfiCommon0
        CFI NoFunction
        CFI Conditional ??CrossCallReturnLabel_112, ??CrossCallReturnLabel_2
        CFI R6 load(1, XDATA, add(CFA_XSP16, literal(-24)))
        CFI VB load(1, XDATA, add(CFA_XSP16, literal(-23)))
        CFI V0 load(1, XDATA, add(CFA_XSP16, literal(-22)))
        CFI V1 load(1, XDATA, add(CFA_XSP16, literal(-21)))
        CFI V2 load(1, XDATA, add(CFA_XSP16, literal(-20)))
        CFI V3 load(1, XDATA, add(CFA_XSP16, literal(-19)))
        CFI V4 load(1, XDATA, add(CFA_XSP16, literal(-18)))
        CFI V5 load(1, XDATA, add(CFA_XSP16, literal(-17)))
        CFI V6 load(1, XDATA, add(CFA_XSP16, literal(-16)))
        CFI V7 load(1, XDATA, add(CFA_XSP16, literal(-15)))
        CFI V8 load(1, XDATA, add(CFA_XSP16, literal(-14)))
        CFI V9 load(1, XDATA, add(CFA_XSP16, literal(-13)))
        CFI V10 load(1, XDATA, add(CFA_XSP16, literal(-12)))
        CFI V11 load(1, XDATA, add(CFA_XSP16, literal(-11)))
        CFI V12 load(1, XDATA, add(CFA_XSP16, literal(-10)))
        CFI V13 load(1, XDATA, add(CFA_XSP16, literal(-9)))
        CFI V14 load(1, XDATA, add(CFA_XSP16, literal(-8)))
        CFI V15 load(1, XDATA, add(CFA_XSP16, literal(-7)))
        CFI R7 load(1, XDATA, add(CFA_XSP16, literal(-6)))
        CFI ?RET_LOW load(1, XDATA, add(CFA_XSP16, literal(-5)))
        CFI ?RET_HIGH load(1, XDATA, add(CFA_XSP16, literal(-4)))
        CFI ?BRET_EXT load(1, XDATA, add(CFA_XSP16, literal(-3)))
        CFI DPL0 load(1, XDATA, add(CFA_XSP16, literal(-2)))
        CFI DPH0 load(1, XDATA, add(CFA_XSP16, literal(-1)))
        CFI CFA_SP SP+0
        CFI CFA_XSP16 add(XSP16, 25)
        CFI Block cfiCond205 Using cfiCommon0
        CFI (cfiCond205) NoFunction
        CFI (cfiCond205) Conditional ??CrossCallReturnLabel_112, ??CrossCallReturnLabel_3
        CFI (cfiCond205) R6 load(1, XDATA, add(CFA_XSP16, literal(-24)))
        CFI (cfiCond205) VB load(1, XDATA, add(CFA_XSP16, literal(-23)))
        CFI (cfiCond205) V0 load(1, XDATA, add(CFA_XSP16, literal(-22)))
        CFI (cfiCond205) V1 load(1, XDATA, add(CFA_XSP16, literal(-21)))
        CFI (cfiCond205) V2 load(1, XDATA, add(CFA_XSP16, literal(-20)))
        CFI (cfiCond205) V3 load(1, XDATA, add(CFA_XSP16, literal(-19)))
        CFI (cfiCond205) V4 load(1, XDATA, add(CFA_XSP16, literal(-18)))
        CFI (cfiCond205) V5 load(1, XDATA, add(CFA_XSP16, literal(-17)))
        CFI (cfiCond205) V6 load(1, XDATA, add(CFA_XSP16, literal(-16)))
        CFI (cfiCond205) V7 load(1, XDATA, add(CFA_XSP16, literal(-15)))
        CFI (cfiCond205) V8 load(1, XDATA, add(CFA_XSP16, literal(-14)))
        CFI (cfiCond205) V9 load(1, XDATA, add(CFA_XSP16, literal(-13)))
        CFI (cfiCond205) V10 load(1, XDATA, add(CFA_XSP16, literal(-12)))
        CFI (cfiCond205) V11 load(1, XDATA, add(CFA_XSP16, literal(-11)))
        CFI (cfiCond205) V12 load(1, XDATA, add(CFA_XSP16, literal(-10)))
        CFI (cfiCond205) V13 load(1, XDATA, add(CFA_XSP16, literal(-9)))
        CFI (cfiCond205) V14 load(1, XDATA, add(CFA_XSP16, literal(-8)))
        CFI (cfiCond205) V15 load(1, XDATA, add(CFA_XSP16, literal(-7)))
        CFI (cfiCond205) R7 load(1, XDATA, add(CFA_XSP16, literal(-6)))
        CFI (cfiCond205) ?RET_LOW load(1, XDATA, add(CFA_XSP16, literal(-5)))
        CFI (cfiCond205) ?RET_HIGH load(1, XDATA, add(CFA_XSP16, literal(-4)))
        CFI (cfiCond205) ?BRET_EXT load(1, XDATA, add(CFA_XSP16, literal(-3)))
        CFI (cfiCond205) DPL0 load(1, XDATA, add(CFA_XSP16, literal(-2)))
        CFI (cfiCond205) DPH0 load(1, XDATA, add(CFA_XSP16, literal(-1)))
        CFI (cfiCond205) CFA_SP SP+0
        CFI (cfiCond205) CFA_XSP16 add(XSP16, 25)
        CFI Block cfiCond206 Using cfiCommon0
        CFI (cfiCond206) NoFunction
        CFI (cfiCond206) Conditional ??CrossCallReturnLabel_112, ??CrossCallReturnLabel_4
        CFI (cfiCond206) R6 load(1, XDATA, add(CFA_XSP16, literal(-24)))
        CFI (cfiCond206) VB load(1, XDATA, add(CFA_XSP16, literal(-23)))
        CFI (cfiCond206) V0 load(1, XDATA, add(CFA_XSP16, literal(-22)))
        CFI (cfiCond206) V1 load(1, XDATA, add(CFA_XSP16, literal(-21)))
        CFI (cfiCond206) V2 load(1, XDATA, add(CFA_XSP16, literal(-20)))
        CFI (cfiCond206) V3 load(1, XDATA, add(CFA_XSP16, literal(-19)))
        CFI (cfiCond206) V4 load(1, XDATA, add(CFA_XSP16, literal(-18)))
        CFI (cfiCond206) V5 load(1, XDATA, add(CFA_XSP16, literal(-17)))
        CFI (cfiCond206) V6 load(1, XDATA, add(CFA_XSP16, literal(-16)))
        CFI (cfiCond206) V7 load(1, XDATA, add(CFA_XSP16, literal(-15)))
        CFI (cfiCond206) V8 load(1, XDATA, add(CFA_XSP16, literal(-14)))
        CFI (cfiCond206) V9 load(1, XDATA, add(CFA_XSP16, literal(-13)))
        CFI (cfiCond206) V10 load(1, XDATA, add(CFA_XSP16, literal(-12)))
        CFI (cfiCond206) V11 load(1, XDATA, add(CFA_XSP16, literal(-11)))
        CFI (cfiCond206) V12 load(1, XDATA, add(CFA_XSP16, literal(-10)))
        CFI (cfiCond206) V13 load(1, XDATA, add(CFA_XSP16, literal(-9)))
        CFI (cfiCond206) V14 load(1, XDATA, add(CFA_XSP16, literal(-8)))
        CFI (cfiCond206) V15 load(1, XDATA, add(CFA_XSP16, literal(-7)))
        CFI (cfiCond206) R7 load(1, XDATA, add(CFA_XSP16, literal(-6)))
        CFI (cfiCond206) ?RET_LOW load(1, XDATA, add(CFA_XSP16, literal(-5)))
        CFI (cfiCond206) ?RET_HIGH load(1, XDATA, add(CFA_XSP16, literal(-4)))
        CFI (cfiCond206) ?BRET_EXT load(1, XDATA, add(CFA_XSP16, literal(-3)))
        CFI (cfiCond206) DPL0 load(1, XDATA, add(CFA_XSP16, literal(-2)))
        CFI (cfiCond206) DPH0 load(1, XDATA, add(CFA_XSP16, literal(-1)))
        CFI (cfiCond206) CFA_SP SP+0
        CFI (cfiCond206) CFA_XSP16 add(XSP16, 25)
        CFI Block cfiCond207 Using cfiCommon0
        CFI (cfiCond207) NoFunction
        CFI (cfiCond207) Conditional ??CrossCallReturnLabel_112, ??CrossCallReturnLabel_5
        CFI (cfiCond207) R6 load(1, XDATA, add(CFA_XSP16, literal(-24)))
        CFI (cfiCond207) VB load(1, XDATA, add(CFA_XSP16, literal(-23)))
        CFI (cfiCond207) V0 load(1, XDATA, add(CFA_XSP16, literal(-22)))
        CFI (cfiCond207) V1 load(1, XDATA, add(CFA_XSP16, literal(-21)))
        CFI (cfiCond207) V2 load(1, XDATA, add(CFA_XSP16, literal(-20)))
        CFI (cfiCond207) V3 load(1, XDATA, add(CFA_XSP16, literal(-19)))
        CFI (cfiCond207) V4 load(1, XDATA, add(CFA_XSP16, literal(-18)))
        CFI (cfiCond207) V5 load(1, XDATA, add(CFA_XSP16, literal(-17)))
        CFI (cfiCond207) V6 load(1, XDATA, add(CFA_XSP16, literal(-16)))
        CFI (cfiCond207) V7 load(1, XDATA, add(CFA_XSP16, literal(-15)))
        CFI (cfiCond207) V8 load(1, XDATA, add(CFA_XSP16, literal(-14)))
        CFI (cfiCond207) V9 load(1, XDATA, add(CFA_XSP16, literal(-13)))
        CFI (cfiCond207) V10 load(1, XDATA, add(CFA_XSP16, literal(-12)))
        CFI (cfiCond207) V11 load(1, XDATA, add(CFA_XSP16, literal(-11)))
        CFI (cfiCond207) V12 load(1, XDATA, add(CFA_XSP16, literal(-10)))
        CFI (cfiCond207) V13 load(1, XDATA, add(CFA_XSP16, literal(-9)))
        CFI (cfiCond207) V14 load(1, XDATA, add(CFA_XSP16, literal(-8)))
        CFI (cfiCond207) V15 load(1, XDATA, add(CFA_XSP16, literal(-7)))
        CFI (cfiCond207) R7 load(1, XDATA, add(CFA_XSP16, literal(-6)))
        CFI (cfiCond207) ?RET_LOW load(1, XDATA, add(CFA_XSP16, literal(-5)))
        CFI (cfiCond207) ?RET_HIGH load(1, XDATA, add(CFA_XSP16, literal(-4)))
        CFI (cfiCond207) ?BRET_EXT load(1, XDATA, add(CFA_XSP16, literal(-3)))
        CFI (cfiCond207) DPL0 load(1, XDATA, add(CFA_XSP16, literal(-2)))
        CFI (cfiCond207) DPH0 load(1, XDATA, add(CFA_XSP16, literal(-1)))
        CFI (cfiCond207) CFA_SP SP+0
        CFI (cfiCond207) CFA_XSP16 add(XSP16, 25)
        CFI Block cfiCond208 Using cfiCommon0
        CFI (cfiCond208) NoFunction
        CFI (cfiCond208) Conditional ??CrossCallReturnLabel_113, ??CrossCallReturnLabel_110, ??CrossCallReturnLabel_0
        CFI (cfiCond208) R6 load(1, XDATA, add(CFA_XSP16, literal(-24)))
        CFI (cfiCond208) VB load(1, XDATA, add(CFA_XSP16, literal(-23)))
        CFI (cfiCond208) V0 load(1, XDATA, add(CFA_XSP16, literal(-22)))
        CFI (cfiCond208) V1 load(1, XDATA, add(CFA_XSP16, literal(-21)))
        CFI (cfiCond208) V2 load(1, XDATA, add(CFA_XSP16, literal(-20)))
        CFI (cfiCond208) V3 load(1, XDATA, add(CFA_XSP16, literal(-19)))
        CFI (cfiCond208) V4 load(1, XDATA, add(CFA_XSP16, literal(-18)))
        CFI (cfiCond208) V5 load(1, XDATA, add(CFA_XSP16, literal(-17)))
        CFI (cfiCond208) V6 load(1, XDATA, add(CFA_XSP16, literal(-16)))
        CFI (cfiCond208) V7 load(1, XDATA, add(CFA_XSP16, literal(-15)))
        CFI (cfiCond208) V8 load(1, XDATA, add(CFA_XSP16, literal(-14)))
        CFI (cfiCond208) V9 load(1, XDATA, add(CFA_XSP16, literal(-13)))
        CFI (cfiCond208) V10 load(1, XDATA, add(CFA_XSP16, literal(-12)))
        CFI (cfiCond208) V11 load(1, XDATA, add(CFA_XSP16, literal(-11)))
        CFI (cfiCond208) V12 load(1, XDATA, add(CFA_XSP16, literal(-10)))
        CFI (cfiCond208) V13 load(1, XDATA, add(CFA_XSP16, literal(-9)))
        CFI (cfiCond208) V14 load(1, XDATA, add(CFA_XSP16, literal(-8)))
        CFI (cfiCond208) V15 load(1, XDATA, add(CFA_XSP16, literal(-7)))
        CFI (cfiCond208) R7 load(1, XDATA, add(CFA_XSP16, literal(-6)))
        CFI (cfiCond208) ?RET_LOW load(1, XDATA, add(CFA_XSP16, literal(-5)))
        CFI (cfiCond208) ?RET_HIGH load(1, XDATA, add(CFA_XSP16, literal(-4)))
        CFI (cfiCond208) ?BRET_EXT load(1, XDATA, add(CFA_XSP16, literal(-3)))
        CFI (cfiCond208) DPL0 load(1, XDATA, add(CFA_XSP16, literal(-2)))
        CFI (cfiCond208) DPH0 load(1, XDATA, add(CFA_XSP16, literal(-1)))
        CFI (cfiCond208) CFA_SP SP+0
        CFI (cfiCond208) CFA_XSP16 add(XSP16, 25)
        CFI Block cfiCond209 Using cfiCommon0
        CFI (cfiCond209) NoFunction
        CFI (cfiCond209) Conditional ??CrossCallReturnLabel_113, ??CrossCallReturnLabel_110, ??CrossCallReturnLabel_1
        CFI (cfiCond209) R6 load(1, XDATA, add(CFA_XSP16, literal(-24)))
        CFI (cfiCond209) VB load(1, XDATA, add(CFA_XSP16, literal(-23)))
        CFI (cfiCond209) V0 load(1, XDATA, add(CFA_XSP16, literal(-22)))
        CFI (cfiCond209) V1 load(1, XDATA, add(CFA_XSP16, literal(-21)))
        CFI (cfiCond209) V2 load(1, XDATA, add(CFA_XSP16, literal(-20)))
        CFI (cfiCond209) V3 load(1, XDATA, add(CFA_XSP16, literal(-19)))
        CFI (cfiCond209) V4 load(1, XDATA, add(CFA_XSP16, literal(-18)))
        CFI (cfiCond209) V5 load(1, XDATA, add(CFA_XSP16, literal(-17)))
        CFI (cfiCond209) V6 load(1, XDATA, add(CFA_XSP16, literal(-16)))
        CFI (cfiCond209) V7 load(1, XDATA, add(CFA_XSP16, literal(-15)))
        CFI (cfiCond209) V8 load(1, XDATA, add(CFA_XSP16, literal(-14)))
        CFI (cfiCond209) V9 load(1, XDATA, add(CFA_XSP16, literal(-13)))
        CFI (cfiCond209) V10 load(1, XDATA, add(CFA_XSP16, literal(-12)))
        CFI (cfiCond209) V11 load(1, XDATA, add(CFA_XSP16, literal(-11)))
        CFI (cfiCond209) V12 load(1, XDATA, add(CFA_XSP16, literal(-10)))
        CFI (cfiCond209) V13 load(1, XDATA, add(CFA_XSP16, literal(-9)))
        CFI (cfiCond209) V14 load(1, XDATA, add(CFA_XSP16, literal(-8)))
        CFI (cfiCond209) V15 load(1, XDATA, add(CFA_XSP16, literal(-7)))
        CFI (cfiCond209) R7 load(1, XDATA, add(CFA_XSP16, literal(-6)))
        CFI (cfiCond209) ?RET_LOW load(1, XDATA, add(CFA_XSP16, literal(-5)))
        CFI (cfiCond209) ?RET_HIGH load(1, XDATA, add(CFA_XSP16, literal(-4)))
        CFI (cfiCond209) ?BRET_EXT load(1, XDATA, add(CFA_XSP16, literal(-3)))
        CFI (cfiCond209) DPL0 load(1, XDATA, add(CFA_XSP16, literal(-2)))
        CFI (cfiCond209) DPH0 load(1, XDATA, add(CFA_XSP16, literal(-1)))
        CFI (cfiCond209) CFA_SP SP+0
        CFI (cfiCond209) CFA_XSP16 add(XSP16, 25)
        CFI Block cfiCond210 Using cfiCommon0
        CFI (cfiCond210) NoFunction
        CFI (cfiCond210) Conditional ??CrossCallReturnLabel_113, ??CrossCallReturnLabel_111, ??CrossCallReturnLabel_105
        CFI (cfiCond210) R6 load(1, XDATA, add(CFA_XSP16, literal(-24)))
        CFI (cfiCond210) VB load(1, XDATA, add(CFA_XSP16, literal(-23)))
        CFI (cfiCond210) V0 load(1, XDATA, add(CFA_XSP16, literal(-22)))
        CFI (cfiCond210) V1 load(1, XDATA, add(CFA_XSP16, literal(-21)))
        CFI (cfiCond210) V2 load(1, XDATA, add(CFA_XSP16, literal(-20)))
        CFI (cfiCond210) V3 load(1, XDATA, add(CFA_XSP16, literal(-19)))
        CFI (cfiCond210) V4 load(1, XDATA, add(CFA_XSP16, literal(-18)))
        CFI (cfiCond210) V5 load(1, XDATA, add(CFA_XSP16, literal(-17)))
        CFI (cfiCond210) V6 load(1, XDATA, add(CFA_XSP16, literal(-16)))
        CFI (cfiCond210) V7 load(1, XDATA, add(CFA_XSP16, literal(-15)))
        CFI (cfiCond210) V8 load(1, XDATA, add(CFA_XSP16, literal(-14)))
        CFI (cfiCond210) V9 load(1, XDATA, add(CFA_XSP16, literal(-13)))
        CFI (cfiCond210) V10 load(1, XDATA, add(CFA_XSP16, literal(-12)))
        CFI (cfiCond210) V11 load(1, XDATA, add(CFA_XSP16, literal(-11)))
        CFI (cfiCond210) V12 load(1, XDATA, add(CFA_XSP16, literal(-10)))
        CFI (cfiCond210) V13 load(1, XDATA, add(CFA_XSP16, literal(-9)))
        CFI (cfiCond210) V14 load(1, XDATA, add(CFA_XSP16, literal(-8)))
        CFI (cfiCond210) V15 load(1, XDATA, add(CFA_XSP16, literal(-7)))
        CFI (cfiCond210) R7 load(1, XDATA, add(CFA_XSP16, literal(-6)))
        CFI (cfiCond210) ?RET_LOW load(1, XDATA, add(CFA_XSP16, literal(-5)))
        CFI (cfiCond210) ?RET_HIGH load(1, XDATA, add(CFA_XSP16, literal(-4)))
        CFI (cfiCond210) ?BRET_EXT load(1, XDATA, add(CFA_XSP16, literal(-3)))
        CFI (cfiCond210) DPL0 load(1, XDATA, add(CFA_XSP16, literal(-2)))
        CFI (cfiCond210) DPH0 load(1, XDATA, add(CFA_XSP16, literal(-1)))
        CFI (cfiCond210) CFA_SP SP+0
        CFI (cfiCond210) CFA_XSP16 add(XSP16, 25)
        CFI Block cfiCond211 Using cfiCommon0
        CFI (cfiCond211) NoFunction
        CFI (cfiCond211) Conditional ??CrossCallReturnLabel_113, ??CrossCallReturnLabel_111, ??CrossCallReturnLabel_106
        CFI (cfiCond211) R6 load(1, XDATA, add(CFA_XSP16, literal(-24)))
        CFI (cfiCond211) VB load(1, XDATA, add(CFA_XSP16, literal(-23)))
        CFI (cfiCond211) V0 load(1, XDATA, add(CFA_XSP16, literal(-22)))
        CFI (cfiCond211) V1 load(1, XDATA, add(CFA_XSP16, literal(-21)))
        CFI (cfiCond211) V2 load(1, XDATA, add(CFA_XSP16, literal(-20)))
        CFI (cfiCond211) V3 load(1, XDATA, add(CFA_XSP16, literal(-19)))
        CFI (cfiCond211) V4 load(1, XDATA, add(CFA_XSP16, literal(-18)))
        CFI (cfiCond211) V5 load(1, XDATA, add(CFA_XSP16, literal(-17)))
        CFI (cfiCond211) V6 load(1, XDATA, add(CFA_XSP16, literal(-16)))
        CFI (cfiCond211) V7 load(1, XDATA, add(CFA_XSP16, literal(-15)))
        CFI (cfiCond211) V8 load(1, XDATA, add(CFA_XSP16, literal(-14)))
        CFI (cfiCond211) V9 load(1, XDATA, add(CFA_XSP16, literal(-13)))
        CFI (cfiCond211) V10 load(1, XDATA, add(CFA_XSP16, literal(-12)))
        CFI (cfiCond211) V11 load(1, XDATA, add(CFA_XSP16, literal(-11)))
        CFI (cfiCond211) V12 load(1, XDATA, add(CFA_XSP16, literal(-10)))
        CFI (cfiCond211) V13 load(1, XDATA, add(CFA_XSP16, literal(-9)))
        CFI (cfiCond211) V14 load(1, XDATA, add(CFA_XSP16, literal(-8)))
        CFI (cfiCond211) V15 load(1, XDATA, add(CFA_XSP16, literal(-7)))
        CFI (cfiCond211) R7 load(1, XDATA, add(CFA_XSP16, literal(-6)))
        CFI (cfiCond211) ?RET_LOW load(1, XDATA, add(CFA_XSP16, literal(-5)))
        CFI (cfiCond211) ?RET_HIGH load(1, XDATA, add(CFA_XSP16, literal(-4)))
        CFI (cfiCond211) ?BRET_EXT load(1, XDATA, add(CFA_XSP16, literal(-3)))
        CFI (cfiCond211) DPL0 load(1, XDATA, add(CFA_XSP16, literal(-2)))
        CFI (cfiCond211) DPH0 load(1, XDATA, add(CFA_XSP16, literal(-1)))
        CFI (cfiCond211) CFA_SP SP+0
        CFI (cfiCond211) CFA_XSP16 add(XSP16, 25)
        CFI Block cfiCond212 Using cfiCommon0
        CFI (cfiCond212) NoFunction
        CFI (cfiCond212) Conditional ??CrossCallReturnLabel_113, ??CrossCallReturnLabel_111, ??CrossCallReturnLabel_107
        CFI (cfiCond212) R6 load(1, XDATA, add(CFA_XSP16, literal(-24)))
        CFI (cfiCond212) VB load(1, XDATA, add(CFA_XSP16, literal(-23)))
        CFI (cfiCond212) V0 load(1, XDATA, add(CFA_XSP16, literal(-22)))
        CFI (cfiCond212) V1 load(1, XDATA, add(CFA_XSP16, literal(-21)))
        CFI (cfiCond212) V2 load(1, XDATA, add(CFA_XSP16, literal(-20)))
        CFI (cfiCond212) V3 load(1, XDATA, add(CFA_XSP16, literal(-19)))
        CFI (cfiCond212) V4 load(1, XDATA, add(CFA_XSP16, literal(-18)))
        CFI (cfiCond212) V5 load(1, XDATA, add(CFA_XSP16, literal(-17)))
        CFI (cfiCond212) V6 load(1, XDATA, add(CFA_XSP16, literal(-16)))
        CFI (cfiCond212) V7 load(1, XDATA, add(CFA_XSP16, literal(-15)))
        CFI (cfiCond212) V8 load(1, XDATA, add(CFA_XSP16, literal(-14)))
        CFI (cfiCond212) V9 load(1, XDATA, add(CFA_XSP16, literal(-13)))
        CFI (cfiCond212) V10 load(1, XDATA, add(CFA_XSP16, literal(-12)))
        CFI (cfiCond212) V11 load(1, XDATA, add(CFA_XSP16, literal(-11)))
        CFI (cfiCond212) V12 load(1, XDATA, add(CFA_XSP16, literal(-10)))
        CFI (cfiCond212) V13 load(1, XDATA, add(CFA_XSP16, literal(-9)))
        CFI (cfiCond212) V14 load(1, XDATA, add(CFA_XSP16, literal(-8)))
        CFI (cfiCond212) V15 load(1, XDATA, add(CFA_XSP16, literal(-7)))
        CFI (cfiCond212) R7 load(1, XDATA, add(CFA_XSP16, literal(-6)))
        CFI (cfiCond212) ?RET_LOW load(1, XDATA, add(CFA_XSP16, literal(-5)))
        CFI (cfiCond212) ?RET_HIGH load(1, XDATA, add(CFA_XSP16, literal(-4)))
        CFI (cfiCond212) ?BRET_EXT load(1, XDATA, add(CFA_XSP16, literal(-3)))
        CFI (cfiCond212) DPL0 load(1, XDATA, add(CFA_XSP16, literal(-2)))
        CFI (cfiCond212) DPH0 load(1, XDATA, add(CFA_XSP16, literal(-1)))
        CFI (cfiCond212) CFA_SP SP+0
        CFI (cfiCond212) CFA_XSP16 add(XSP16, 25)
        CFI Block cfiCond213 Using cfiCommon0
        CFI (cfiCond213) NoFunction
        CFI (cfiCond213) Conditional ??CrossCallReturnLabel_113, ??CrossCallReturnLabel_111, ??CrossCallReturnLabel_108
        CFI (cfiCond213) R6 load(1, XDATA, add(CFA_XSP16, literal(-24)))
        CFI (cfiCond213) VB load(1, XDATA, add(CFA_XSP16, literal(-23)))
        CFI (cfiCond213) V0 load(1, XDATA, add(CFA_XSP16, literal(-22)))
        CFI (cfiCond213) V1 load(1, XDATA, add(CFA_XSP16, literal(-21)))
        CFI (cfiCond213) V2 load(1, XDATA, add(CFA_XSP16, literal(-20)))
        CFI (cfiCond213) V3 load(1, XDATA, add(CFA_XSP16, literal(-19)))
        CFI (cfiCond213) V4 load(1, XDATA, add(CFA_XSP16, literal(-18)))
        CFI (cfiCond213) V5 load(1, XDATA, add(CFA_XSP16, literal(-17)))
        CFI (cfiCond213) V6 load(1, XDATA, add(CFA_XSP16, literal(-16)))
        CFI (cfiCond213) V7 load(1, XDATA, add(CFA_XSP16, literal(-15)))
        CFI (cfiCond213) V8 load(1, XDATA, add(CFA_XSP16, literal(-14)))
        CFI (cfiCond213) V9 load(1, XDATA, add(CFA_XSP16, literal(-13)))
        CFI (cfiCond213) V10 load(1, XDATA, add(CFA_XSP16, literal(-12)))
        CFI (cfiCond213) V11 load(1, XDATA, add(CFA_XSP16, literal(-11)))
        CFI (cfiCond213) V12 load(1, XDATA, add(CFA_XSP16, literal(-10)))
        CFI (cfiCond213) V13 load(1, XDATA, add(CFA_XSP16, literal(-9)))
        CFI (cfiCond213) V14 load(1, XDATA, add(CFA_XSP16, literal(-8)))
        CFI (cfiCond213) V15 load(1, XDATA, add(CFA_XSP16, literal(-7)))
        CFI (cfiCond213) R7 load(1, XDATA, add(CFA_XSP16, literal(-6)))
        CFI (cfiCond213) ?RET_LOW load(1, XDATA, add(CFA_XSP16, literal(-5)))
        CFI (cfiCond213) ?RET_HIGH load(1, XDATA, add(CFA_XSP16, literal(-4)))
        CFI (cfiCond213) ?BRET_EXT load(1, XDATA, add(CFA_XSP16, literal(-3)))
        CFI (cfiCond213) DPL0 load(1, XDATA, add(CFA_XSP16, literal(-2)))
        CFI (cfiCond213) DPH0 load(1, XDATA, add(CFA_XSP16, literal(-1)))
        CFI (cfiCond213) CFA_SP SP+0
        CFI (cfiCond213) CFA_XSP16 add(XSP16, 25)
        CFI Block cfiCond214 Using cfiCommon0
        CFI (cfiCond214) NoFunction
        CFI (cfiCond214) Conditional ??CrossCallReturnLabel_113, ??CrossCallReturnLabel_111, ??CrossCallReturnLabel_109
        CFI (cfiCond214) R6 load(1, XDATA, add(CFA_XSP16, literal(-24)))
        CFI (cfiCond214) VB load(1, XDATA, add(CFA_XSP16, literal(-23)))
        CFI (cfiCond214) V0 load(1, XDATA, add(CFA_XSP16, literal(-22)))
        CFI (cfiCond214) V1 load(1, XDATA, add(CFA_XSP16, literal(-21)))
        CFI (cfiCond214) V2 load(1, XDATA, add(CFA_XSP16, literal(-20)))
        CFI (cfiCond214) V3 load(1, XDATA, add(CFA_XSP16, literal(-19)))
        CFI (cfiCond214) V4 load(1, XDATA, add(CFA_XSP16, literal(-18)))
        CFI (cfiCond214) V5 load(1, XDATA, add(CFA_XSP16, literal(-17)))
        CFI (cfiCond214) V6 load(1, XDATA, add(CFA_XSP16, literal(-16)))
        CFI (cfiCond214) V7 load(1, XDATA, add(CFA_XSP16, literal(-15)))
        CFI (cfiCond214) V8 load(1, XDATA, add(CFA_XSP16, literal(-14)))
        CFI (cfiCond214) V9 load(1, XDATA, add(CFA_XSP16, literal(-13)))
        CFI (cfiCond214) V10 load(1, XDATA, add(CFA_XSP16, literal(-12)))
        CFI (cfiCond214) V11 load(1, XDATA, add(CFA_XSP16, literal(-11)))
        CFI (cfiCond214) V12 load(1, XDATA, add(CFA_XSP16, literal(-10)))
        CFI (cfiCond214) V13 load(1, XDATA, add(CFA_XSP16, literal(-9)))
        CFI (cfiCond214) V14 load(1, XDATA, add(CFA_XSP16, literal(-8)))
        CFI (cfiCond214) V15 load(1, XDATA, add(CFA_XSP16, literal(-7)))
        CFI (cfiCond214) R7 load(1, XDATA, add(CFA_XSP16, literal(-6)))
        CFI (cfiCond214) ?RET_LOW load(1, XDATA, add(CFA_XSP16, literal(-5)))
        CFI (cfiCond214) ?RET_HIGH load(1, XDATA, add(CFA_XSP16, literal(-4)))
        CFI (cfiCond214) ?BRET_EXT load(1, XDATA, add(CFA_XSP16, literal(-3)))
        CFI (cfiCond214) DPL0 load(1, XDATA, add(CFA_XSP16, literal(-2)))
        CFI (cfiCond214) DPH0 load(1, XDATA, add(CFA_XSP16, literal(-1)))
        CFI (cfiCond214) CFA_SP SP+0
        CFI (cfiCond214) CFA_XSP16 add(XSP16, 25)
        CFI Block cfiPicker215 Using cfiCommon1
        CFI (cfiPicker215) NoFunction
        CFI (cfiPicker215) Picker
        MOVX    A,@DPTR
        MOV     DPL,?V0 + 2
        MOV     DPH,?V0 + 3
        MOVX    @DPTR,A
        RET
        CFI EndBlock cfiCond204
        CFI EndBlock cfiCond205
        CFI EndBlock cfiCond206
        CFI EndBlock cfiCond207
        CFI EndBlock cfiCond208
        CFI EndBlock cfiCond209
        CFI EndBlock cfiCond210
        CFI EndBlock cfiCond211
        CFI EndBlock cfiCond212
        CFI EndBlock cfiCond213
        CFI EndBlock cfiCond214
        CFI EndBlock cfiPicker215

        RSEG BANKED_CODE:CODE:NOROOT(0)
?Subroutine7:
        CFI Block cfiCond216 Using cfiCommon0
        CFI NoFunction
        CFI Conditional ??CrossCallReturnLabel_0
        CFI R6 load(1, XDATA, add(CFA_XSP16, literal(-24)))
        CFI VB load(1, XDATA, add(CFA_XSP16, literal(-23)))
        CFI V0 load(1, XDATA, add(CFA_XSP16, literal(-22)))
        CFI V1 load(1, XDATA, add(CFA_XSP16, literal(-21)))
        CFI V2 load(1, XDATA, add(CFA_XSP16, literal(-20)))
        CFI V3 load(1, XDATA, add(CFA_XSP16, literal(-19)))
        CFI V4 load(1, XDATA, add(CFA_XSP16, literal(-18)))
        CFI V5 load(1, XDATA, add(CFA_XSP16, literal(-17)))
        CFI V6 load(1, XDATA, add(CFA_XSP16, literal(-16)))
        CFI V7 load(1, XDATA, add(CFA_XSP16, literal(-15)))
        CFI V8 load(1, XDATA, add(CFA_XSP16, literal(-14)))
        CFI V9 load(1, XDATA, add(CFA_XSP16, literal(-13)))
        CFI V10 load(1, XDATA, add(CFA_XSP16, literal(-12)))
        CFI V11 load(1, XDATA, add(CFA_XSP16, literal(-11)))
        CFI V12 load(1, XDATA, add(CFA_XSP16, literal(-10)))
        CFI V13 load(1, XDATA, add(CFA_XSP16, literal(-9)))
        CFI V14 load(1, XDATA, add(CFA_XSP16, literal(-8)))
        CFI V15 load(1, XDATA, add(CFA_XSP16, literal(-7)))
        CFI R7 load(1, XDATA, add(CFA_XSP16, literal(-6)))
        CFI ?RET_LOW load(1, XDATA, add(CFA_XSP16, literal(-5)))
        CFI ?RET_HIGH load(1, XDATA, add(CFA_XSP16, literal(-4)))
        CFI ?BRET_EXT load(1, XDATA, add(CFA_XSP16, literal(-3)))
        CFI DPL0 load(1, XDATA, add(CFA_XSP16, literal(-2)))
        CFI DPH0 load(1, XDATA, add(CFA_XSP16, literal(-1)))
        CFI CFA_SP SP+0
        CFI CFA_XSP16 add(XSP16, 25)
        CFI Block cfiCond217 Using cfiCommon0
        CFI (cfiCond217) NoFunction
        CFI (cfiCond217) Conditional ??CrossCallReturnLabel_1
        CFI (cfiCond217) R6 load(1, XDATA, add(CFA_XSP16, literal(-24)))
        CFI (cfiCond217) VB load(1, XDATA, add(CFA_XSP16, literal(-23)))
        CFI (cfiCond217) V0 load(1, XDATA, add(CFA_XSP16, literal(-22)))
        CFI (cfiCond217) V1 load(1, XDATA, add(CFA_XSP16, literal(-21)))
        CFI (cfiCond217) V2 load(1, XDATA, add(CFA_XSP16, literal(-20)))
        CFI (cfiCond217) V3 load(1, XDATA, add(CFA_XSP16, literal(-19)))
        CFI (cfiCond217) V4 load(1, XDATA, add(CFA_XSP16, literal(-18)))
        CFI (cfiCond217) V5 load(1, XDATA, add(CFA_XSP16, literal(-17)))
        CFI (cfiCond217) V6 load(1, XDATA, add(CFA_XSP16, literal(-16)))
        CFI (cfiCond217) V7 load(1, XDATA, add(CFA_XSP16, literal(-15)))
        CFI (cfiCond217) V8 load(1, XDATA, add(CFA_XSP16, literal(-14)))
        CFI (cfiCond217) V9 load(1, XDATA, add(CFA_XSP16, literal(-13)))
        CFI (cfiCond217) V10 load(1, XDATA, add(CFA_XSP16, literal(-12)))
        CFI (cfiCond217) V11 load(1, XDATA, add(CFA_XSP16, literal(-11)))
        CFI (cfiCond217) V12 load(1, XDATA, add(CFA_XSP16, literal(-10)))
        CFI (cfiCond217) V13 load(1, XDATA, add(CFA_XSP16, literal(-9)))
        CFI (cfiCond217) V14 load(1, XDATA, add(CFA_XSP16, literal(-8)))
        CFI (cfiCond217) V15 load(1, XDATA, add(CFA_XSP16, literal(-7)))
        CFI (cfiCond217) R7 load(1, XDATA, add(CFA_XSP16, literal(-6)))
        CFI (cfiCond217) ?RET_LOW load(1, XDATA, add(CFA_XSP16, literal(-5)))
        CFI (cfiCond217) ?RET_HIGH load(1, XDATA, add(CFA_XSP16, literal(-4)))
        CFI (cfiCond217) ?BRET_EXT load(1, XDATA, add(CFA_XSP16, literal(-3)))
        CFI (cfiCond217) DPL0 load(1, XDATA, add(CFA_XSP16, literal(-2)))
        CFI (cfiCond217) DPH0 load(1, XDATA, add(CFA_XSP16, literal(-1)))
        CFI (cfiCond217) CFA_SP SP+0
        CFI (cfiCond217) CFA_XSP16 add(XSP16, 25)
        CFI Block cfiPicker218 Using cfiCommon1
        CFI (cfiPicker218) NoFunction
        CFI (cfiPicker218) Picker
        LCALL   ?Subroutine34 & 0xFFFF
??CrossCallReturnLabel_110:
        RET
        CFI EndBlock cfiCond216
        CFI EndBlock cfiCond217
        CFI EndBlock cfiPicker218

        RSEG BANKED_CODE:CODE:NOROOT(0)
?Subroutine34:
        CFI Block cfiCond219 Using cfiCommon0
        CFI NoFunction
        CFI Conditional ??CrossCallReturnLabel_110, ??CrossCallReturnLabel_0
        CFI R6 load(1, XDATA, add(CFA_XSP16, literal(-24)))
        CFI VB load(1, XDATA, add(CFA_XSP16, literal(-23)))
        CFI V0 load(1, XDATA, add(CFA_XSP16, literal(-22)))
        CFI V1 load(1, XDATA, add(CFA_XSP16, literal(-21)))
        CFI V2 load(1, XDATA, add(CFA_XSP16, literal(-20)))
        CFI V3 load(1, XDATA, add(CFA_XSP16, literal(-19)))
        CFI V4 load(1, XDATA, add(CFA_XSP16, literal(-18)))
        CFI V5 load(1, XDATA, add(CFA_XSP16, literal(-17)))
        CFI V6 load(1, XDATA, add(CFA_XSP16, literal(-16)))
        CFI V7 load(1, XDATA, add(CFA_XSP16, literal(-15)))
        CFI V8 load(1, XDATA, add(CFA_XSP16, literal(-14)))
        CFI V9 load(1, XDATA, add(CFA_XSP16, literal(-13)))
        CFI V10 load(1, XDATA, add(CFA_XSP16, literal(-12)))
        CFI V11 load(1, XDATA, add(CFA_XSP16, literal(-11)))
        CFI V12 load(1, XDATA, add(CFA_XSP16, literal(-10)))
        CFI V13 load(1, XDATA, add(CFA_XSP16, literal(-9)))
        CFI V14 load(1, XDATA, add(CFA_XSP16, literal(-8)))
        CFI V15 load(1, XDATA, add(CFA_XSP16, literal(-7)))
        CFI R7 load(1, XDATA, add(CFA_XSP16, literal(-6)))
        CFI ?RET_LOW load(1, XDATA, add(CFA_XSP16, literal(-5)))
        CFI ?RET_HIGH load(1, XDATA, add(CFA_XSP16, literal(-4)))
        CFI ?BRET_EXT load(1, XDATA, add(CFA_XSP16, literal(-3)))
        CFI DPL0 load(1, XDATA, add(CFA_XSP16, literal(-2)))
        CFI DPH0 load(1, XDATA, add(CFA_XSP16, literal(-1)))
        CFI CFA_SP SP+0
        CFI CFA_XSP16 add(XSP16, 25)
        CFI Block cfiCond220 Using cfiCommon0
        CFI (cfiCond220) NoFunction
        CFI (cfiCond220) Conditional ??CrossCallReturnLabel_110, ??CrossCallReturnLabel_1
        CFI (cfiCond220) R6 load(1, XDATA, add(CFA_XSP16, literal(-24)))
        CFI (cfiCond220) VB load(1, XDATA, add(CFA_XSP16, literal(-23)))
        CFI (cfiCond220) V0 load(1, XDATA, add(CFA_XSP16, literal(-22)))
        CFI (cfiCond220) V1 load(1, XDATA, add(CFA_XSP16, literal(-21)))
        CFI (cfiCond220) V2 load(1, XDATA, add(CFA_XSP16, literal(-20)))
        CFI (cfiCond220) V3 load(1, XDATA, add(CFA_XSP16, literal(-19)))
        CFI (cfiCond220) V4 load(1, XDATA, add(CFA_XSP16, literal(-18)))
        CFI (cfiCond220) V5 load(1, XDATA, add(CFA_XSP16, literal(-17)))
        CFI (cfiCond220) V6 load(1, XDATA, add(CFA_XSP16, literal(-16)))
        CFI (cfiCond220) V7 load(1, XDATA, add(CFA_XSP16, literal(-15)))
        CFI (cfiCond220) V8 load(1, XDATA, add(CFA_XSP16, literal(-14)))
        CFI (cfiCond220) V9 load(1, XDATA, add(CFA_XSP16, literal(-13)))
        CFI (cfiCond220) V10 load(1, XDATA, add(CFA_XSP16, literal(-12)))
        CFI (cfiCond220) V11 load(1, XDATA, add(CFA_XSP16, literal(-11)))
        CFI (cfiCond220) V12 load(1, XDATA, add(CFA_XSP16, literal(-10)))
        CFI (cfiCond220) V13 load(1, XDATA, add(CFA_XSP16, literal(-9)))
        CFI (cfiCond220) V14 load(1, XDATA, add(CFA_XSP16, literal(-8)))
        CFI (cfiCond220) V15 load(1, XDATA, add(CFA_XSP16, literal(-7)))
        CFI (cfiCond220) R7 load(1, XDATA, add(CFA_XSP16, literal(-6)))
        CFI (cfiCond220) ?RET_LOW load(1, XDATA, add(CFA_XSP16, literal(-5)))
        CFI (cfiCond220) ?RET_HIGH load(1, XDATA, add(CFA_XSP16, literal(-4)))
        CFI (cfiCond220) ?BRET_EXT load(1, XDATA, add(CFA_XSP16, literal(-3)))
        CFI (cfiCond220) DPL0 load(1, XDATA, add(CFA_XSP16, literal(-2)))
        CFI (cfiCond220) DPH0 load(1, XDATA, add(CFA_XSP16, literal(-1)))
        CFI (cfiCond220) CFA_SP SP+0
        CFI (cfiCond220) CFA_XSP16 add(XSP16, 25)
        CFI Block cfiCond221 Using cfiCommon0
        CFI (cfiCond221) NoFunction
        CFI (cfiCond221) Conditional ??CrossCallReturnLabel_111, ??CrossCallReturnLabel_105
        CFI (cfiCond221) R6 load(1, XDATA, add(CFA_XSP16, literal(-24)))
        CFI (cfiCond221) VB load(1, XDATA, add(CFA_XSP16, literal(-23)))
        CFI (cfiCond221) V0 load(1, XDATA, add(CFA_XSP16, literal(-22)))
        CFI (cfiCond221) V1 load(1, XDATA, add(CFA_XSP16, literal(-21)))
        CFI (cfiCond221) V2 load(1, XDATA, add(CFA_XSP16, literal(-20)))
        CFI (cfiCond221) V3 load(1, XDATA, add(CFA_XSP16, literal(-19)))
        CFI (cfiCond221) V4 load(1, XDATA, add(CFA_XSP16, literal(-18)))
        CFI (cfiCond221) V5 load(1, XDATA, add(CFA_XSP16, literal(-17)))
        CFI (cfiCond221) V6 load(1, XDATA, add(CFA_XSP16, literal(-16)))
        CFI (cfiCond221) V7 load(1, XDATA, add(CFA_XSP16, literal(-15)))
        CFI (cfiCond221) V8 load(1, XDATA, add(CFA_XSP16, literal(-14)))
        CFI (cfiCond221) V9 load(1, XDATA, add(CFA_XSP16, literal(-13)))
        CFI (cfiCond221) V10 load(1, XDATA, add(CFA_XSP16, literal(-12)))
        CFI (cfiCond221) V11 load(1, XDATA, add(CFA_XSP16, literal(-11)))
        CFI (cfiCond221) V12 load(1, XDATA, add(CFA_XSP16, literal(-10)))
        CFI (cfiCond221) V13 load(1, XDATA, add(CFA_XSP16, literal(-9)))
        CFI (cfiCond221) V14 load(1, XDATA, add(CFA_XSP16, literal(-8)))
        CFI (cfiCond221) V15 load(1, XDATA, add(CFA_XSP16, literal(-7)))
        CFI (cfiCond221) R7 load(1, XDATA, add(CFA_XSP16, literal(-6)))
        CFI (cfiCond221) ?RET_LOW load(1, XDATA, add(CFA_XSP16, literal(-5)))
        CFI (cfiCond221) ?RET_HIGH load(1, XDATA, add(CFA_XSP16, literal(-4)))
        CFI (cfiCond221) ?BRET_EXT load(1, XDATA, add(CFA_XSP16, literal(-3)))
        CFI (cfiCond221) DPL0 load(1, XDATA, add(CFA_XSP16, literal(-2)))
        CFI (cfiCond221) DPH0 load(1, XDATA, add(CFA_XSP16, literal(-1)))
        CFI (cfiCond221) CFA_SP SP+0
        CFI (cfiCond221) CFA_XSP16 add(XSP16, 25)
        CFI Block cfiCond222 Using cfiCommon0
        CFI (cfiCond222) NoFunction
        CFI (cfiCond222) Conditional ??CrossCallReturnLabel_111, ??CrossCallReturnLabel_106
        CFI (cfiCond222) R6 load(1, XDATA, add(CFA_XSP16, literal(-24)))
        CFI (cfiCond222) VB load(1, XDATA, add(CFA_XSP16, literal(-23)))
        CFI (cfiCond222) V0 load(1, XDATA, add(CFA_XSP16, literal(-22)))
        CFI (cfiCond222) V1 load(1, XDATA, add(CFA_XSP16, literal(-21)))
        CFI (cfiCond222) V2 load(1, XDATA, add(CFA_XSP16, literal(-20)))
        CFI (cfiCond222) V3 load(1, XDATA, add(CFA_XSP16, literal(-19)))
        CFI (cfiCond222) V4 load(1, XDATA, add(CFA_XSP16, literal(-18)))
        CFI (cfiCond222) V5 load(1, XDATA, add(CFA_XSP16, literal(-17)))
        CFI (cfiCond222) V6 load(1, XDATA, add(CFA_XSP16, literal(-16)))
        CFI (cfiCond222) V7 load(1, XDATA, add(CFA_XSP16, literal(-15)))
        CFI (cfiCond222) V8 load(1, XDATA, add(CFA_XSP16, literal(-14)))
        CFI (cfiCond222) V9 load(1, XDATA, add(CFA_XSP16, literal(-13)))
        CFI (cfiCond222) V10 load(1, XDATA, add(CFA_XSP16, literal(-12)))
        CFI (cfiCond222) V11 load(1, XDATA, add(CFA_XSP16, literal(-11)))
        CFI (cfiCond222) V12 load(1, XDATA, add(CFA_XSP16, literal(-10)))
        CFI (cfiCond222) V13 load(1, XDATA, add(CFA_XSP16, literal(-9)))
        CFI (cfiCond222) V14 load(1, XDATA, add(CFA_XSP16, literal(-8)))
        CFI (cfiCond222) V15 load(1, XDATA, add(CFA_XSP16, literal(-7)))
        CFI (cfiCond222) R7 load(1, XDATA, add(CFA_XSP16, literal(-6)))
        CFI (cfiCond222) ?RET_LOW load(1, XDATA, add(CFA_XSP16, literal(-5)))
        CFI (cfiCond222) ?RET_HIGH load(1, XDATA, add(CFA_XSP16, literal(-4)))
        CFI (cfiCond222) ?BRET_EXT load(1, XDATA, add(CFA_XSP16, literal(-3)))
        CFI (cfiCond222) DPL0 load(1, XDATA, add(CFA_XSP16, literal(-2)))
        CFI (cfiCond222) DPH0 load(1, XDATA, add(CFA_XSP16, literal(-1)))
        CFI (cfiCond222) CFA_SP SP+0
        CFI (cfiCond222) CFA_XSP16 add(XSP16, 25)
        CFI Block cfiCond223 Using cfiCommon0
        CFI (cfiCond223) NoFunction
        CFI (cfiCond223) Conditional ??CrossCallReturnLabel_111, ??CrossCallReturnLabel_107
        CFI (cfiCond223) R6 load(1, XDATA, add(CFA_XSP16, literal(-24)))
        CFI (cfiCond223) VB load(1, XDATA, add(CFA_XSP16, literal(-23)))
        CFI (cfiCond223) V0 load(1, XDATA, add(CFA_XSP16, literal(-22)))
        CFI (cfiCond223) V1 load(1, XDATA, add(CFA_XSP16, literal(-21)))
        CFI (cfiCond223) V2 load(1, XDATA, add(CFA_XSP16, literal(-20)))
        CFI (cfiCond223) V3 load(1, XDATA, add(CFA_XSP16, literal(-19)))
        CFI (cfiCond223) V4 load(1, XDATA, add(CFA_XSP16, literal(-18)))
        CFI (cfiCond223) V5 load(1, XDATA, add(CFA_XSP16, literal(-17)))
        CFI (cfiCond223) V6 load(1, XDATA, add(CFA_XSP16, literal(-16)))
        CFI (cfiCond223) V7 load(1, XDATA, add(CFA_XSP16, literal(-15)))
        CFI (cfiCond223) V8 load(1, XDATA, add(CFA_XSP16, literal(-14)))
        CFI (cfiCond223) V9 load(1, XDATA, add(CFA_XSP16, literal(-13)))
        CFI (cfiCond223) V10 load(1, XDATA, add(CFA_XSP16, literal(-12)))
        CFI (cfiCond223) V11 load(1, XDATA, add(CFA_XSP16, literal(-11)))
        CFI (cfiCond223) V12 load(1, XDATA, add(CFA_XSP16, literal(-10)))
        CFI (cfiCond223) V13 load(1, XDATA, add(CFA_XSP16, literal(-9)))
        CFI (cfiCond223) V14 load(1, XDATA, add(CFA_XSP16, literal(-8)))
        CFI (cfiCond223) V15 load(1, XDATA, add(CFA_XSP16, literal(-7)))
        CFI (cfiCond223) R7 load(1, XDATA, add(CFA_XSP16, literal(-6)))
        CFI (cfiCond223) ?RET_LOW load(1, XDATA, add(CFA_XSP16, literal(-5)))
        CFI (cfiCond223) ?RET_HIGH load(1, XDATA, add(CFA_XSP16, literal(-4)))
        CFI (cfiCond223) ?BRET_EXT load(1, XDATA, add(CFA_XSP16, literal(-3)))
        CFI (cfiCond223) DPL0 load(1, XDATA, add(CFA_XSP16, literal(-2)))
        CFI (cfiCond223) DPH0 load(1, XDATA, add(CFA_XSP16, literal(-1)))
        CFI (cfiCond223) CFA_SP SP+0
        CFI (cfiCond223) CFA_XSP16 add(XSP16, 25)
        CFI Block cfiCond224 Using cfiCommon0
        CFI (cfiCond224) NoFunction
        CFI (cfiCond224) Conditional ??CrossCallReturnLabel_111, ??CrossCallReturnLabel_108
        CFI (cfiCond224) R6 load(1, XDATA, add(CFA_XSP16, literal(-24)))
        CFI (cfiCond224) VB load(1, XDATA, add(CFA_XSP16, literal(-23)))
        CFI (cfiCond224) V0 load(1, XDATA, add(CFA_XSP16, literal(-22)))
        CFI (cfiCond224) V1 load(1, XDATA, add(CFA_XSP16, literal(-21)))
        CFI (cfiCond224) V2 load(1, XDATA, add(CFA_XSP16, literal(-20)))
        CFI (cfiCond224) V3 load(1, XDATA, add(CFA_XSP16, literal(-19)))
        CFI (cfiCond224) V4 load(1, XDATA, add(CFA_XSP16, literal(-18)))
        CFI (cfiCond224) V5 load(1, XDATA, add(CFA_XSP16, literal(-17)))
        CFI (cfiCond224) V6 load(1, XDATA, add(CFA_XSP16, literal(-16)))
        CFI (cfiCond224) V7 load(1, XDATA, add(CFA_XSP16, literal(-15)))
        CFI (cfiCond224) V8 load(1, XDATA, add(CFA_XSP16, literal(-14)))
        CFI (cfiCond224) V9 load(1, XDATA, add(CFA_XSP16, literal(-13)))
        CFI (cfiCond224) V10 load(1, XDATA, add(CFA_XSP16, literal(-12)))
        CFI (cfiCond224) V11 load(1, XDATA, add(CFA_XSP16, literal(-11)))
        CFI (cfiCond224) V12 load(1, XDATA, add(CFA_XSP16, literal(-10)))
        CFI (cfiCond224) V13 load(1, XDATA, add(CFA_XSP16, literal(-9)))
        CFI (cfiCond224) V14 load(1, XDATA, add(CFA_XSP16, literal(-8)))
        CFI (cfiCond224) V15 load(1, XDATA, add(CFA_XSP16, literal(-7)))
        CFI (cfiCond224) R7 load(1, XDATA, add(CFA_XSP16, literal(-6)))
        CFI (cfiCond224) ?RET_LOW load(1, XDATA, add(CFA_XSP16, literal(-5)))
        CFI (cfiCond224) ?RET_HIGH load(1, XDATA, add(CFA_XSP16, literal(-4)))
        CFI (cfiCond224) ?BRET_EXT load(1, XDATA, add(CFA_XSP16, literal(-3)))
        CFI (cfiCond224) DPL0 load(1, XDATA, add(CFA_XSP16, literal(-2)))
        CFI (cfiCond224) DPH0 load(1, XDATA, add(CFA_XSP16, literal(-1)))
        CFI (cfiCond224) CFA_SP SP+0
        CFI (cfiCond224) CFA_XSP16 add(XSP16, 25)
        CFI Block cfiCond225 Using cfiCommon0
        CFI (cfiCond225) NoFunction
        CFI (cfiCond225) Conditional ??CrossCallReturnLabel_111, ??CrossCallReturnLabel_109
        CFI (cfiCond225) R6 load(1, XDATA, add(CFA_XSP16, literal(-24)))
        CFI (cfiCond225) VB load(1, XDATA, add(CFA_XSP16, literal(-23)))
        CFI (cfiCond225) V0 load(1, XDATA, add(CFA_XSP16, literal(-22)))
        CFI (cfiCond225) V1 load(1, XDATA, add(CFA_XSP16, literal(-21)))
        CFI (cfiCond225) V2 load(1, XDATA, add(CFA_XSP16, literal(-20)))
        CFI (cfiCond225) V3 load(1, XDATA, add(CFA_XSP16, literal(-19)))
        CFI (cfiCond225) V4 load(1, XDATA, add(CFA_XSP16, literal(-18)))
        CFI (cfiCond225) V5 load(1, XDATA, add(CFA_XSP16, literal(-17)))
        CFI (cfiCond225) V6 load(1, XDATA, add(CFA_XSP16, literal(-16)))
        CFI (cfiCond225) V7 load(1, XDATA, add(CFA_XSP16, literal(-15)))
        CFI (cfiCond225) V8 load(1, XDATA, add(CFA_XSP16, literal(-14)))
        CFI (cfiCond225) V9 load(1, XDATA, add(CFA_XSP16, literal(-13)))
        CFI (cfiCond225) V10 load(1, XDATA, add(CFA_XSP16, literal(-12)))
        CFI (cfiCond225) V11 load(1, XDATA, add(CFA_XSP16, literal(-11)))
        CFI (cfiCond225) V12 load(1, XDATA, add(CFA_XSP16, literal(-10)))
        CFI (cfiCond225) V13 load(1, XDATA, add(CFA_XSP16, literal(-9)))
        CFI (cfiCond225) V14 load(1, XDATA, add(CFA_XSP16, literal(-8)))
        CFI (cfiCond225) V15 load(1, XDATA, add(CFA_XSP16, literal(-7)))
        CFI (cfiCond225) R7 load(1, XDATA, add(CFA_XSP16, literal(-6)))
        CFI (cfiCond225) ?RET_LOW load(1, XDATA, add(CFA_XSP16, literal(-5)))
        CFI (cfiCond225) ?RET_HIGH load(1, XDATA, add(CFA_XSP16, literal(-4)))
        CFI (cfiCond225) ?BRET_EXT load(1, XDATA, add(CFA_XSP16, literal(-3)))
        CFI (cfiCond225) DPL0 load(1, XDATA, add(CFA_XSP16, literal(-2)))
        CFI (cfiCond225) DPH0 load(1, XDATA, add(CFA_XSP16, literal(-1)))
        CFI (cfiCond225) CFA_SP SP+0
        CFI (cfiCond225) CFA_XSP16 add(XSP16, 25)
        CFI Block cfiPicker226 Using cfiCommon1
        CFI (cfiPicker226) NoFunction
        CFI (cfiPicker226) Picker
        LCALL   ?Subroutine43 & 0xFFFF
??CrossCallReturnLabel_113:
        INC     DPTR
        MOV     ?V0 + 2,DPL
        MOV     ?V0 + 3,DPH
        RET
        CFI EndBlock cfiCond219
        CFI EndBlock cfiCond220
        CFI EndBlock cfiCond221
        CFI EndBlock cfiCond222
        CFI EndBlock cfiCond223
        CFI EndBlock cfiCond224
        CFI EndBlock cfiCond225
        CFI EndBlock cfiPicker226

        RSEG BANKED_CODE:CODE:NOROOT(0)
?Subroutine3:
        CFI Block cfiCond227 Using cfiCommon0
        CFI NoFunction
        CFI Conditional ??CrossCallReturnLabel_105
        CFI R6 load(1, XDATA, add(CFA_XSP16, literal(-24)))
        CFI VB load(1, XDATA, add(CFA_XSP16, literal(-23)))
        CFI V0 load(1, XDATA, add(CFA_XSP16, literal(-22)))
        CFI V1 load(1, XDATA, add(CFA_XSP16, literal(-21)))
        CFI V2 load(1, XDATA, add(CFA_XSP16, literal(-20)))
        CFI V3 load(1, XDATA, add(CFA_XSP16, literal(-19)))
        CFI V4 load(1, XDATA, add(CFA_XSP16, literal(-18)))
        CFI V5 load(1, XDATA, add(CFA_XSP16, literal(-17)))
        CFI V6 load(1, XDATA, add(CFA_XSP16, literal(-16)))
        CFI V7 load(1, XDATA, add(CFA_XSP16, literal(-15)))
        CFI V8 load(1, XDATA, add(CFA_XSP16, literal(-14)))
        CFI V9 load(1, XDATA, add(CFA_XSP16, literal(-13)))
        CFI V10 load(1, XDATA, add(CFA_XSP16, literal(-12)))
        CFI V11 load(1, XDATA, add(CFA_XSP16, literal(-11)))
        CFI V12 load(1, XDATA, add(CFA_XSP16, literal(-10)))
        CFI V13 load(1, XDATA, add(CFA_XSP16, literal(-9)))
        CFI V14 load(1, XDATA, add(CFA_XSP16, literal(-8)))
        CFI V15 load(1, XDATA, add(CFA_XSP16, literal(-7)))
        CFI R7 load(1, XDATA, add(CFA_XSP16, literal(-6)))
        CFI ?RET_LOW load(1, XDATA, add(CFA_XSP16, literal(-5)))
        CFI ?RET_HIGH load(1, XDATA, add(CFA_XSP16, literal(-4)))
        CFI ?BRET_EXT load(1, XDATA, add(CFA_XSP16, literal(-3)))
        CFI DPL0 load(1, XDATA, add(CFA_XSP16, literal(-2)))
        CFI DPH0 load(1, XDATA, add(CFA_XSP16, literal(-1)))
        CFI CFA_SP SP+0
        CFI CFA_XSP16 add(XSP16, 25)
        CFI Block cfiCond228 Using cfiCommon0
        CFI (cfiCond228) NoFunction
        CFI (cfiCond228) Conditional ??CrossCallReturnLabel_106
        CFI (cfiCond228) R6 load(1, XDATA, add(CFA_XSP16, literal(-24)))
        CFI (cfiCond228) VB load(1, XDATA, add(CFA_XSP16, literal(-23)))
        CFI (cfiCond228) V0 load(1, XDATA, add(CFA_XSP16, literal(-22)))
        CFI (cfiCond228) V1 load(1, XDATA, add(CFA_XSP16, literal(-21)))
        CFI (cfiCond228) V2 load(1, XDATA, add(CFA_XSP16, literal(-20)))
        CFI (cfiCond228) V3 load(1, XDATA, add(CFA_XSP16, literal(-19)))
        CFI (cfiCond228) V4 load(1, XDATA, add(CFA_XSP16, literal(-18)))
        CFI (cfiCond228) V5 load(1, XDATA, add(CFA_XSP16, literal(-17)))
        CFI (cfiCond228) V6 load(1, XDATA, add(CFA_XSP16, literal(-16)))
        CFI (cfiCond228) V7 load(1, XDATA, add(CFA_XSP16, literal(-15)))
        CFI (cfiCond228) V8 load(1, XDATA, add(CFA_XSP16, literal(-14)))
        CFI (cfiCond228) V9 load(1, XDATA, add(CFA_XSP16, literal(-13)))
        CFI (cfiCond228) V10 load(1, XDATA, add(CFA_XSP16, literal(-12)))
        CFI (cfiCond228) V11 load(1, XDATA, add(CFA_XSP16, literal(-11)))
        CFI (cfiCond228) V12 load(1, XDATA, add(CFA_XSP16, literal(-10)))
        CFI (cfiCond228) V13 load(1, XDATA, add(CFA_XSP16, literal(-9)))
        CFI (cfiCond228) V14 load(1, XDATA, add(CFA_XSP16, literal(-8)))
        CFI (cfiCond228) V15 load(1, XDATA, add(CFA_XSP16, literal(-7)))
        CFI (cfiCond228) R7 load(1, XDATA, add(CFA_XSP16, literal(-6)))
        CFI (cfiCond228) ?RET_LOW load(1, XDATA, add(CFA_XSP16, literal(-5)))
        CFI (cfiCond228) ?RET_HIGH load(1, XDATA, add(CFA_XSP16, literal(-4)))
        CFI (cfiCond228) ?BRET_EXT load(1, XDATA, add(CFA_XSP16, literal(-3)))
        CFI (cfiCond228) DPL0 load(1, XDATA, add(CFA_XSP16, literal(-2)))
        CFI (cfiCond228) DPH0 load(1, XDATA, add(CFA_XSP16, literal(-1)))
        CFI (cfiCond228) CFA_SP SP+0
        CFI (cfiCond228) CFA_XSP16 add(XSP16, 25)
        CFI Block cfiCond229 Using cfiCommon0
        CFI (cfiCond229) NoFunction
        CFI (cfiCond229) Conditional ??CrossCallReturnLabel_107
        CFI (cfiCond229) R6 load(1, XDATA, add(CFA_XSP16, literal(-24)))
        CFI (cfiCond229) VB load(1, XDATA, add(CFA_XSP16, literal(-23)))
        CFI (cfiCond229) V0 load(1, XDATA, add(CFA_XSP16, literal(-22)))
        CFI (cfiCond229) V1 load(1, XDATA, add(CFA_XSP16, literal(-21)))
        CFI (cfiCond229) V2 load(1, XDATA, add(CFA_XSP16, literal(-20)))
        CFI (cfiCond229) V3 load(1, XDATA, add(CFA_XSP16, literal(-19)))
        CFI (cfiCond229) V4 load(1, XDATA, add(CFA_XSP16, literal(-18)))
        CFI (cfiCond229) V5 load(1, XDATA, add(CFA_XSP16, literal(-17)))
        CFI (cfiCond229) V6 load(1, XDATA, add(CFA_XSP16, literal(-16)))
        CFI (cfiCond229) V7 load(1, XDATA, add(CFA_XSP16, literal(-15)))
        CFI (cfiCond229) V8 load(1, XDATA, add(CFA_XSP16, literal(-14)))
        CFI (cfiCond229) V9 load(1, XDATA, add(CFA_XSP16, literal(-13)))
        CFI (cfiCond229) V10 load(1, XDATA, add(CFA_XSP16, literal(-12)))
        CFI (cfiCond229) V11 load(1, XDATA, add(CFA_XSP16, literal(-11)))
        CFI (cfiCond229) V12 load(1, XDATA, add(CFA_XSP16, literal(-10)))
        CFI (cfiCond229) V13 load(1, XDATA, add(CFA_XSP16, literal(-9)))
        CFI (cfiCond229) V14 load(1, XDATA, add(CFA_XSP16, literal(-8)))
        CFI (cfiCond229) V15 load(1, XDATA, add(CFA_XSP16, literal(-7)))
        CFI (cfiCond229) R7 load(1, XDATA, add(CFA_XSP16, literal(-6)))
        CFI (cfiCond229) ?RET_LOW load(1, XDATA, add(CFA_XSP16, literal(-5)))
        CFI (cfiCond229) ?RET_HIGH load(1, XDATA, add(CFA_XSP16, literal(-4)))
        CFI (cfiCond229) ?BRET_EXT load(1, XDATA, add(CFA_XSP16, literal(-3)))
        CFI (cfiCond229) DPL0 load(1, XDATA, add(CFA_XSP16, literal(-2)))
        CFI (cfiCond229) DPH0 load(1, XDATA, add(CFA_XSP16, literal(-1)))
        CFI (cfiCond229) CFA_SP SP+0
        CFI (cfiCond229) CFA_XSP16 add(XSP16, 25)
        CFI Block cfiCond230 Using cfiCommon0
        CFI (cfiCond230) NoFunction
        CFI (cfiCond230) Conditional ??CrossCallReturnLabel_108
        CFI (cfiCond230) R6 load(1, XDATA, add(CFA_XSP16, literal(-24)))
        CFI (cfiCond230) VB load(1, XDATA, add(CFA_XSP16, literal(-23)))
        CFI (cfiCond230) V0 load(1, XDATA, add(CFA_XSP16, literal(-22)))
        CFI (cfiCond230) V1 load(1, XDATA, add(CFA_XSP16, literal(-21)))
        CFI (cfiCond230) V2 load(1, XDATA, add(CFA_XSP16, literal(-20)))
        CFI (cfiCond230) V3 load(1, XDATA, add(CFA_XSP16, literal(-19)))
        CFI (cfiCond230) V4 load(1, XDATA, add(CFA_XSP16, literal(-18)))
        CFI (cfiCond230) V5 load(1, XDATA, add(CFA_XSP16, literal(-17)))
        CFI (cfiCond230) V6 load(1, XDATA, add(CFA_XSP16, literal(-16)))
        CFI (cfiCond230) V7 load(1, XDATA, add(CFA_XSP16, literal(-15)))
        CFI (cfiCond230) V8 load(1, XDATA, add(CFA_XSP16, literal(-14)))
        CFI (cfiCond230) V9 load(1, XDATA, add(CFA_XSP16, literal(-13)))
        CFI (cfiCond230) V10 load(1, XDATA, add(CFA_XSP16, literal(-12)))
        CFI (cfiCond230) V11 load(1, XDATA, add(CFA_XSP16, literal(-11)))
        CFI (cfiCond230) V12 load(1, XDATA, add(CFA_XSP16, literal(-10)))
        CFI (cfiCond230) V13 load(1, XDATA, add(CFA_XSP16, literal(-9)))
        CFI (cfiCond230) V14 load(1, XDATA, add(CFA_XSP16, literal(-8)))
        CFI (cfiCond230) V15 load(1, XDATA, add(CFA_XSP16, literal(-7)))
        CFI (cfiCond230) R7 load(1, XDATA, add(CFA_XSP16, literal(-6)))
        CFI (cfiCond230) ?RET_LOW load(1, XDATA, add(CFA_XSP16, literal(-5)))
        CFI (cfiCond230) ?RET_HIGH load(1, XDATA, add(CFA_XSP16, literal(-4)))
        CFI (cfiCond230) ?BRET_EXT load(1, XDATA, add(CFA_XSP16, literal(-3)))
        CFI (cfiCond230) DPL0 load(1, XDATA, add(CFA_XSP16, literal(-2)))
        CFI (cfiCond230) DPH0 load(1, XDATA, add(CFA_XSP16, literal(-1)))
        CFI (cfiCond230) CFA_SP SP+0
        CFI (cfiCond230) CFA_XSP16 add(XSP16, 25)
        CFI Block cfiPicker231 Using cfiCommon1
        CFI (cfiPicker231) NoFunction
        CFI (cfiPicker231) Picker
        MOV     DPL,A
        MOV     A,?V0 + 9
        ADDC    A,#0x0
        MOV     DPH,A
        CFI EndBlock cfiCond227
        CFI EndBlock cfiCond228
        CFI EndBlock cfiCond229
        CFI EndBlock cfiCond230
        CFI EndBlock cfiPicker231
        REQUIRE ??Subroutine55_0
        ; // Fall through to label ??Subroutine55_0

        RSEG BANKED_CODE:CODE:NOROOT(0)
??Subroutine55_0:
        CFI Block cfiCond232 Using cfiCommon0
        CFI NoFunction
        CFI Conditional ??CrossCallReturnLabel_109
        CFI R6 load(1, XDATA, add(CFA_XSP16, literal(-24)))
        CFI VB load(1, XDATA, add(CFA_XSP16, literal(-23)))
        CFI V0 load(1, XDATA, add(CFA_XSP16, literal(-22)))
        CFI V1 load(1, XDATA, add(CFA_XSP16, literal(-21)))
        CFI V2 load(1, XDATA, add(CFA_XSP16, literal(-20)))
        CFI V3 load(1, XDATA, add(CFA_XSP16, literal(-19)))
        CFI V4 load(1, XDATA, add(CFA_XSP16, literal(-18)))
        CFI V5 load(1, XDATA, add(CFA_XSP16, literal(-17)))
        CFI V6 load(1, XDATA, add(CFA_XSP16, literal(-16)))
        CFI V7 load(1, XDATA, add(CFA_XSP16, literal(-15)))
        CFI V8 load(1, XDATA, add(CFA_XSP16, literal(-14)))
        CFI V9 load(1, XDATA, add(CFA_XSP16, literal(-13)))
        CFI V10 load(1, XDATA, add(CFA_XSP16, literal(-12)))
        CFI V11 load(1, XDATA, add(CFA_XSP16, literal(-11)))
        CFI V12 load(1, XDATA, add(CFA_XSP16, literal(-10)))
        CFI V13 load(1, XDATA, add(CFA_XSP16, literal(-9)))
        CFI V14 load(1, XDATA, add(CFA_XSP16, literal(-8)))
        CFI V15 load(1, XDATA, add(CFA_XSP16, literal(-7)))
        CFI R7 load(1, XDATA, add(CFA_XSP16, literal(-6)))
        CFI ?RET_LOW load(1, XDATA, add(CFA_XSP16, literal(-5)))
        CFI ?RET_HIGH load(1, XDATA, add(CFA_XSP16, literal(-4)))
        CFI ?BRET_EXT load(1, XDATA, add(CFA_XSP16, literal(-3)))
        CFI DPL0 load(1, XDATA, add(CFA_XSP16, literal(-2)))
        CFI DPH0 load(1, XDATA, add(CFA_XSP16, literal(-1)))
        CFI CFA_SP SP+0
        CFI CFA_XSP16 add(XSP16, 25)
        CFI Block cfiCond233 Using cfiCommon0
        CFI (cfiCond233) NoFunction
        CFI (cfiCond233) Conditional ??CrossCallReturnLabel_105
        CFI (cfiCond233) R6 load(1, XDATA, add(CFA_XSP16, literal(-24)))
        CFI (cfiCond233) VB load(1, XDATA, add(CFA_XSP16, literal(-23)))
        CFI (cfiCond233) V0 load(1, XDATA, add(CFA_XSP16, literal(-22)))
        CFI (cfiCond233) V1 load(1, XDATA, add(CFA_XSP16, literal(-21)))
        CFI (cfiCond233) V2 load(1, XDATA, add(CFA_XSP16, literal(-20)))
        CFI (cfiCond233) V3 load(1, XDATA, add(CFA_XSP16, literal(-19)))
        CFI (cfiCond233) V4 load(1, XDATA, add(CFA_XSP16, literal(-18)))
        CFI (cfiCond233) V5 load(1, XDATA, add(CFA_XSP16, literal(-17)))
        CFI (cfiCond233) V6 load(1, XDATA, add(CFA_XSP16, literal(-16)))
        CFI (cfiCond233) V7 load(1, XDATA, add(CFA_XSP16, literal(-15)))
        CFI (cfiCond233) V8 load(1, XDATA, add(CFA_XSP16, literal(-14)))
        CFI (cfiCond233) V9 load(1, XDATA, add(CFA_XSP16, literal(-13)))
        CFI (cfiCond233) V10 load(1, XDATA, add(CFA_XSP16, literal(-12)))
        CFI (cfiCond233) V11 load(1, XDATA, add(CFA_XSP16, literal(-11)))
        CFI (cfiCond233) V12 load(1, XDATA, add(CFA_XSP16, literal(-10)))
        CFI (cfiCond233) V13 load(1, XDATA, add(CFA_XSP16, literal(-9)))
        CFI (cfiCond233) V14 load(1, XDATA, add(CFA_XSP16, literal(-8)))
        CFI (cfiCond233) V15 load(1, XDATA, add(CFA_XSP16, literal(-7)))
        CFI (cfiCond233) R7 load(1, XDATA, add(CFA_XSP16, literal(-6)))
        CFI (cfiCond233) ?RET_LOW load(1, XDATA, add(CFA_XSP16, literal(-5)))
        CFI (cfiCond233) ?RET_HIGH load(1, XDATA, add(CFA_XSP16, literal(-4)))
        CFI (cfiCond233) ?BRET_EXT load(1, XDATA, add(CFA_XSP16, literal(-3)))
        CFI (cfiCond233) DPL0 load(1, XDATA, add(CFA_XSP16, literal(-2)))
        CFI (cfiCond233) DPH0 load(1, XDATA, add(CFA_XSP16, literal(-1)))
        CFI (cfiCond233) CFA_SP SP+0
        CFI (cfiCond233) CFA_XSP16 add(XSP16, 25)
        CFI Block cfiCond234 Using cfiCommon0
        CFI (cfiCond234) NoFunction
        CFI (cfiCond234) Conditional ??CrossCallReturnLabel_106
        CFI (cfiCond234) R6 load(1, XDATA, add(CFA_XSP16, literal(-24)))
        CFI (cfiCond234) VB load(1, XDATA, add(CFA_XSP16, literal(-23)))
        CFI (cfiCond234) V0 load(1, XDATA, add(CFA_XSP16, literal(-22)))
        CFI (cfiCond234) V1 load(1, XDATA, add(CFA_XSP16, literal(-21)))
        CFI (cfiCond234) V2 load(1, XDATA, add(CFA_XSP16, literal(-20)))
        CFI (cfiCond234) V3 load(1, XDATA, add(CFA_XSP16, literal(-19)))
        CFI (cfiCond234) V4 load(1, XDATA, add(CFA_XSP16, literal(-18)))
        CFI (cfiCond234) V5 load(1, XDATA, add(CFA_XSP16, literal(-17)))
        CFI (cfiCond234) V6 load(1, XDATA, add(CFA_XSP16, literal(-16)))
        CFI (cfiCond234) V7 load(1, XDATA, add(CFA_XSP16, literal(-15)))
        CFI (cfiCond234) V8 load(1, XDATA, add(CFA_XSP16, literal(-14)))
        CFI (cfiCond234) V9 load(1, XDATA, add(CFA_XSP16, literal(-13)))
        CFI (cfiCond234) V10 load(1, XDATA, add(CFA_XSP16, literal(-12)))
        CFI (cfiCond234) V11 load(1, XDATA, add(CFA_XSP16, literal(-11)))
        CFI (cfiCond234) V12 load(1, XDATA, add(CFA_XSP16, literal(-10)))
        CFI (cfiCond234) V13 load(1, XDATA, add(CFA_XSP16, literal(-9)))
        CFI (cfiCond234) V14 load(1, XDATA, add(CFA_XSP16, literal(-8)))
        CFI (cfiCond234) V15 load(1, XDATA, add(CFA_XSP16, literal(-7)))
        CFI (cfiCond234) R7 load(1, XDATA, add(CFA_XSP16, literal(-6)))
        CFI (cfiCond234) ?RET_LOW load(1, XDATA, add(CFA_XSP16, literal(-5)))
        CFI (cfiCond234) ?RET_HIGH load(1, XDATA, add(CFA_XSP16, literal(-4)))
        CFI (cfiCond234) ?BRET_EXT load(1, XDATA, add(CFA_XSP16, literal(-3)))
        CFI (cfiCond234) DPL0 load(1, XDATA, add(CFA_XSP16, literal(-2)))
        CFI (cfiCond234) DPH0 load(1, XDATA, add(CFA_XSP16, literal(-1)))
        CFI (cfiCond234) CFA_SP SP+0
        CFI (cfiCond234) CFA_XSP16 add(XSP16, 25)
        CFI Block cfiCond235 Using cfiCommon0
        CFI (cfiCond235) NoFunction
        CFI (cfiCond235) Conditional ??CrossCallReturnLabel_107
        CFI (cfiCond235) R6 load(1, XDATA, add(CFA_XSP16, literal(-24)))
        CFI (cfiCond235) VB load(1, XDATA, add(CFA_XSP16, literal(-23)))
        CFI (cfiCond235) V0 load(1, XDATA, add(CFA_XSP16, literal(-22)))
        CFI (cfiCond235) V1 load(1, XDATA, add(CFA_XSP16, literal(-21)))
        CFI (cfiCond235) V2 load(1, XDATA, add(CFA_XSP16, literal(-20)))
        CFI (cfiCond235) V3 load(1, XDATA, add(CFA_XSP16, literal(-19)))
        CFI (cfiCond235) V4 load(1, XDATA, add(CFA_XSP16, literal(-18)))
        CFI (cfiCond235) V5 load(1, XDATA, add(CFA_XSP16, literal(-17)))
        CFI (cfiCond235) V6 load(1, XDATA, add(CFA_XSP16, literal(-16)))
        CFI (cfiCond235) V7 load(1, XDATA, add(CFA_XSP16, literal(-15)))
        CFI (cfiCond235) V8 load(1, XDATA, add(CFA_XSP16, literal(-14)))
        CFI (cfiCond235) V9 load(1, XDATA, add(CFA_XSP16, literal(-13)))
        CFI (cfiCond235) V10 load(1, XDATA, add(CFA_XSP16, literal(-12)))
        CFI (cfiCond235) V11 load(1, XDATA, add(CFA_XSP16, literal(-11)))
        CFI (cfiCond235) V12 load(1, XDATA, add(CFA_XSP16, literal(-10)))
        CFI (cfiCond235) V13 load(1, XDATA, add(CFA_XSP16, literal(-9)))
        CFI (cfiCond235) V14 load(1, XDATA, add(CFA_XSP16, literal(-8)))
        CFI (cfiCond235) V15 load(1, XDATA, add(CFA_XSP16, literal(-7)))
        CFI (cfiCond235) R7 load(1, XDATA, add(CFA_XSP16, literal(-6)))
        CFI (cfiCond235) ?RET_LOW load(1, XDATA, add(CFA_XSP16, literal(-5)))
        CFI (cfiCond235) ?RET_HIGH load(1, XDATA, add(CFA_XSP16, literal(-4)))
        CFI (cfiCond235) ?BRET_EXT load(1, XDATA, add(CFA_XSP16, literal(-3)))
        CFI (cfiCond235) DPL0 load(1, XDATA, add(CFA_XSP16, literal(-2)))
        CFI (cfiCond235) DPH0 load(1, XDATA, add(CFA_XSP16, literal(-1)))
        CFI (cfiCond235) CFA_SP SP+0
        CFI (cfiCond235) CFA_XSP16 add(XSP16, 25)
        CFI Block cfiCond236 Using cfiCommon0
        CFI (cfiCond236) NoFunction
        CFI (cfiCond236) Conditional ??CrossCallReturnLabel_108
        CFI (cfiCond236) R6 load(1, XDATA, add(CFA_XSP16, literal(-24)))
        CFI (cfiCond236) VB load(1, XDATA, add(CFA_XSP16, literal(-23)))
        CFI (cfiCond236) V0 load(1, XDATA, add(CFA_XSP16, literal(-22)))
        CFI (cfiCond236) V1 load(1, XDATA, add(CFA_XSP16, literal(-21)))
        CFI (cfiCond236) V2 load(1, XDATA, add(CFA_XSP16, literal(-20)))
        CFI (cfiCond236) V3 load(1, XDATA, add(CFA_XSP16, literal(-19)))
        CFI (cfiCond236) V4 load(1, XDATA, add(CFA_XSP16, literal(-18)))
        CFI (cfiCond236) V5 load(1, XDATA, add(CFA_XSP16, literal(-17)))
        CFI (cfiCond236) V6 load(1, XDATA, add(CFA_XSP16, literal(-16)))
        CFI (cfiCond236) V7 load(1, XDATA, add(CFA_XSP16, literal(-15)))
        CFI (cfiCond236) V8 load(1, XDATA, add(CFA_XSP16, literal(-14)))
        CFI (cfiCond236) V9 load(1, XDATA, add(CFA_XSP16, literal(-13)))
        CFI (cfiCond236) V10 load(1, XDATA, add(CFA_XSP16, literal(-12)))
        CFI (cfiCond236) V11 load(1, XDATA, add(CFA_XSP16, literal(-11)))
        CFI (cfiCond236) V12 load(1, XDATA, add(CFA_XSP16, literal(-10)))
        CFI (cfiCond236) V13 load(1, XDATA, add(CFA_XSP16, literal(-9)))
        CFI (cfiCond236) V14 load(1, XDATA, add(CFA_XSP16, literal(-8)))
        CFI (cfiCond236) V15 load(1, XDATA, add(CFA_XSP16, literal(-7)))
        CFI (cfiCond236) R7 load(1, XDATA, add(CFA_XSP16, literal(-6)))
        CFI (cfiCond236) ?RET_LOW load(1, XDATA, add(CFA_XSP16, literal(-5)))
        CFI (cfiCond236) ?RET_HIGH load(1, XDATA, add(CFA_XSP16, literal(-4)))
        CFI (cfiCond236) ?BRET_EXT load(1, XDATA, add(CFA_XSP16, literal(-3)))
        CFI (cfiCond236) DPL0 load(1, XDATA, add(CFA_XSP16, literal(-2)))
        CFI (cfiCond236) DPH0 load(1, XDATA, add(CFA_XSP16, literal(-1)))
        CFI (cfiCond236) CFA_SP SP+0
        CFI (cfiCond236) CFA_XSP16 add(XSP16, 25)
        CFI Block cfiPicker237 Using cfiCommon1
        CFI (cfiPicker237) NoFunction
        CFI (cfiPicker237) Picker
        LCALL   ?Subroutine34 & 0xFFFF
??CrossCallReturnLabel_111:
        MOV     A,?V0 + 8
        RET
        CFI EndBlock cfiCond232
        CFI EndBlock cfiCond233
        CFI EndBlock cfiCond234
        CFI EndBlock cfiCond235
        CFI EndBlock cfiCond236
        CFI EndBlock cfiPicker237
//  758 
//  759 /**************************************************************************************************
//  760  * @fn          MT_AfDataRetrieve
//  761  *
//  762  * @brief   Process AF Data Retrieve command to incrementally read out a very large
//  763  *          incoming AF message.
//  764  *
//  765  * input parameters
//  766  *
//  767  * @param pBuf - pointer to the received buffer
//  768  *
//  769  * output parameters
//  770  *
//  771  * @param rtrn - AF-Status of the operation.
//  772  *
//  773  * @return      None.
//  774  **************************************************************************************************
//  775  */

        RSEG BANKED_CODE:CODE:NOROOT(0)
//  776 void MT_AfDataRetrieve(uint8 *pBuf)
MT_AfDataRetrieve:
        CFI Block cfiBlock238 Using cfiCommon0
        CFI Function MT_AfDataRetrieve
        CODE
//  777 {
        FUNCALL MT_AfDataRetrieve, osal_mem_free
        LOCFRAME ISTACK, 0, STACK
        LOCFRAME PSTACK, 0, STACK
        LOCFRAME XSTACK, 20, STACK
        LOCFRAME IOVERLAY, 0, STATIC
        LOCFRAME DOVERLAY, 0, STATIC
        ARGFRAME ISTACK, 0, STACK
        ARGFRAME PSTACK, 0, STACK
        ARGFRAME XSTACK, 20, STACK
        ARGFRAME IOVERLAY, 0, STATIC
        ARGFRAME DOVERLAY, 0, STATIC
        FUNCALL MT_AfDataRetrieve, MT_BuildAndSendZToolResponse
        LOCFRAME ISTACK, 0, STACK
        LOCFRAME PSTACK, 0, STACK
        LOCFRAME XSTACK, 20, STACK
        LOCFRAME IOVERLAY, 0, STATIC
        LOCFRAME DOVERLAY, 0, STATIC
        ARGFRAME ISTACK, 0, STACK
        ARGFRAME PSTACK, 0, STACK
        ARGFRAME XSTACK, 20, STACK
        ARGFRAME IOVERLAY, 0, STATIC
        ARGFRAME DOVERLAY, 0, STATIC
        FUNCALL MT_AfDataRetrieve, osal_mem_alloc
        LOCFRAME ISTACK, 0, STACK
        LOCFRAME PSTACK, 0, STACK
        LOCFRAME XSTACK, 20, STACK
        LOCFRAME IOVERLAY, 0, STATIC
        LOCFRAME DOVERLAY, 0, STATIC
        ARGFRAME ISTACK, 0, STACK
        ARGFRAME PSTACK, 0, STACK
        ARGFRAME XSTACK, 20, STACK
        ARGFRAME IOVERLAY, 0, STATIC
        ARGFRAME DOVERLAY, 0, STATIC
        FUNCALL MT_AfDataRetrieve, osal_memcpy
        LOCFRAME ISTACK, 0, STACK
        LOCFRAME PSTACK, 0, STACK
        LOCFRAME XSTACK, 23, STACK
        LOCFRAME IOVERLAY, 0, STATIC
        LOCFRAME DOVERLAY, 0, STATIC
        ARGFRAME ISTACK, 0, STACK
        ARGFRAME PSTACK, 0, STACK
        ARGFRAME XSTACK, 23, STACK
        ARGFRAME IOVERLAY, 0, STATIC
        ARGFRAME DOVERLAY, 0, STATIC
        FUNCALL MT_AfDataRetrieve, MT_BuildAndSendZToolResponse
        LOCFRAME ISTACK, 0, STACK
        LOCFRAME PSTACK, 0, STACK
        LOCFRAME XSTACK, 20, STACK
        LOCFRAME IOVERLAY, 0, STATIC
        LOCFRAME DOVERLAY, 0, STATIC
        ARGFRAME ISTACK, 0, STACK
        ARGFRAME PSTACK, 0, STACK
        ARGFRAME XSTACK, 20, STACK
        ARGFRAME IOVERLAY, 0, STATIC
        ARGFRAME DOVERLAY, 0, STATIC
        FUNCALL MT_AfDataRetrieve, osal_mem_free
        LOCFRAME ISTACK, 0, STACK
        LOCFRAME PSTACK, 0, STACK
        LOCFRAME XSTACK, 20, STACK
        LOCFRAME IOVERLAY, 0, STATIC
        LOCFRAME DOVERLAY, 0, STATIC
        ARGFRAME ISTACK, 0, STACK
        ARGFRAME PSTACK, 0, STACK
        ARGFRAME XSTACK, 20, STACK
        ARGFRAME IOVERLAY, 0, STATIC
        ARGFRAME DOVERLAY, 0, STATIC
        MOV     A,#-0x14
        LCALL   ?BANKED_ENTER_XDATA
        CFI DPH0 load(1, XDATA, add(CFA_XSP16, literal(-1)))
        CFI DPL0 load(1, XDATA, add(CFA_XSP16, literal(-2)))
        CFI ?BRET_EXT load(1, XDATA, add(CFA_XSP16, literal(-3)))
        CFI ?RET_HIGH load(1, XDATA, add(CFA_XSP16, literal(-4)))
        CFI ?RET_LOW load(1, XDATA, add(CFA_XSP16, literal(-5)))
        CFI R7 load(1, XDATA, add(CFA_XSP16, literal(-6)))
        CFI V11 load(1, XDATA, add(CFA_XSP16, literal(-7)))
        CFI V10 load(1, XDATA, add(CFA_XSP16, literal(-8)))
        CFI V9 load(1, XDATA, add(CFA_XSP16, literal(-9)))
        CFI V8 load(1, XDATA, add(CFA_XSP16, literal(-10)))
        CFI V7 load(1, XDATA, add(CFA_XSP16, literal(-11)))
        CFI V6 load(1, XDATA, add(CFA_XSP16, literal(-12)))
        CFI V5 load(1, XDATA, add(CFA_XSP16, literal(-13)))
        CFI V4 load(1, XDATA, add(CFA_XSP16, literal(-14)))
        CFI V3 load(1, XDATA, add(CFA_XSP16, literal(-15)))
        CFI V2 load(1, XDATA, add(CFA_XSP16, literal(-16)))
        CFI V1 load(1, XDATA, add(CFA_XSP16, literal(-17)))
        CFI V0 load(1, XDATA, add(CFA_XSP16, literal(-18)))
        CFI VB load(1, XDATA, add(CFA_XSP16, literal(-19)))
        CFI R6 load(1, XDATA, add(CFA_XSP16, literal(-20)))
        CFI CFA_SP SP+0
        CFI CFA_XSP16 add(XSP16, 20)
        ; Saved register size: 20
        ; Auto size: 0
        MOV     A,R2
        MOV     R6,A
        MOV     A,R3
        MOV     R7,A
//  778   #define MT_AF_RTV_HDR_SZ  2
//  779 
//  780   uint32 timestamp;
//  781   mtAfInMsgList_t *pPrev, *pItem = pMtAfInMsgList;
        MOV     DPTR,#pMtAfInMsgList
        MOVX    A,@DPTR
        MOV     ?V0 + 6,A
        INC     DPTR
        MOVX    A,@DPTR
        MOV     ?V0 + 7,A
//  782   uint8 rtrn = afStatus_FAILED;
        MOV     R2,#0x1
//  783   uint8 len = 0;
        MOV     ?V0 + 4,#0x0
//  784 
//  785   pBuf += MT_RPC_FRAME_HDR_SZ;
        MOV     A,R6
        ADD     A,#0x3
        INC     R6
        LCALL   ??Subroutine50_0 & 0xFFFF
//  786   timestamp = BUILD_UINT32(pBuf[0], pBuf[1], pBuf[2], pBuf[3]);
??CrossCallReturnLabel_86:
        MOV     ?V0 + 0,A
        CLR     A
        MOV     ?V0 + 1,A
        MOV     ?V0 + 2,A
        MOV     ?V0 + 3,A
        INC     DPTR
        MOVX    A,@DPTR
        MOV     ?V0 + 8,A
        CLR     A
        MOV     ?V0 + 9,A
        MOV     ?V0 + 10,A
        MOV     ?V0 + 11,A
        MOV     A,#0x8
        MOV     R0,#?V0 + 8
        LCALL   ?L_SHL
        MOV     R0,#?V0 + 0
        MOV     R1,#?V0 + 8
        LCALL   ?L_ADD
        MOV     DPL,R6
        MOV     DPH,R7
        INC     DPTR
        INC     DPTR
        MOVX    A,@DPTR
        MOV     ?V0 + 8,A
        CLR     A
        MOV     ?V0 + 9,A
        MOV     A,#0x10
        MOV     R0,#?V0 + 8
        LCALL   ?L_SHL
        MOV     R0,#?V0 + 0
        MOV     R1,#?V0 + 8
        LCALL   ?L_ADD
        MOV     DPL,R6
        MOV     DPH,R7
        INC     DPTR
        INC     DPTR
        INC     DPTR
        MOVX    A,@DPTR
        MOV     ?V0 + 8,A
        CLR     A
        MOV     ?V0 + 10,A
        MOV     A,#0x18
        MOV     R0,#?V0 + 8
        LCALL   ?L_SHL
        MOV     R0,#?V0 + 0
        MOV     R1,#?V0 + 8
        LCALL   ?L_ADD
        SJMP    ??MT_AfDataRetrieve_0
//  787 
//  788   while (pItem != NULL)
//  789   {
//  790     pPrev = pItem;
//  791     if (pItem->timestamp == timestamp)
//  792     {
//  793       break;
//  794     }
//  795     pItem = pItem->next;
??MT_AfDataRetrieve_1:
        MOV     DPL,R4
        MOV     DPH,R5
        MOVX    A,@DPTR
        MOV     ?V0 + 6,A
        INC     DPTR
        MOVX    A,@DPTR
        MOV     ?V0 + 7,A
??MT_AfDataRetrieve_0:
        MOV     A,?V0 + 6
        ORL     A,?V0 + 7
        JZ      ??MT_AfDataRetrieve_2
        MOV     R4,?V0 + 6
        MOV     R5,?V0 + 7
        MOV     DPL,R4
        MOV     DPH,R5
        INC     DPTR
        INC     DPTR
        INC     DPTR
        INC     DPTR
        MOV     R0,#?V0 + 0
        LCALL   ?L_EQ_X
        JNZ     ??MT_AfDataRetrieve_1
//  796   }
//  797 
//  798   if (pItem != NULL)
//  799   {
//  800     uint16 idx;
//  801     uint8 *pRsp;
//  802 
//  803     pBuf += 4;
        MOV     A,R6
        ADD     A,#0x4
        MOV     R6,A
        MOV     A,R7
        ADDC    A,#0x0
        MOV     R7,A
//  804     idx = BUILD_UINT16(pBuf[0], pBuf[1]);
        LCALL   ?Subroutine10 & 0xFFFF
??CrossCallReturnLabel_89:
        MOV     ?V0 + 2,A
        CLR     A
        ADDC    A,R1
        MOV     ?V0 + 3,A
//  805     len = pBuf[2];
        MOV     DPL,R6
        MOV     DPH,R7
        INC     DPTR
        INC     DPTR
        MOVX    A,@DPTR
        MOV     ?V0 + 4,A
//  806 
//  807     if (len == 0)  // Indication to delete the afIncomingMSGPacket.
        JNZ     ??MT_AfDataRetrieve_3
//  808     {
//  809       if (pMtAfInMsgList == pItem)
        MOV     DPL,R4
        MOV     DPH,R5
        LCALL   ?Subroutine37 & 0xFFFF
??CrossCallReturnLabel_82:
        LCALL   ?Subroutine42 & 0xFFFF
??CrossCallReturnLabel_97:
        MOV     R3,A
        MOV     A,R4
        XRL     A,R2
        JNZ     ??MT_AfDataRetrieve_4
        MOV     A,R5
        XRL     A,R3
??MT_AfDataRetrieve_4:
        JNZ     ??MT_AfDataRetrieve_5
//  810       {
//  811         pMtAfInMsgList = pItem->next;
        MOV     DPTR,#pMtAfInMsgList
        SJMP    ??MT_AfDataRetrieve_6
//  812       }
//  813       else
//  814       {
//  815         pPrev->next = pItem->next;
??MT_AfDataRetrieve_5:
        MOV     DPL,R4
        MOV     DPH,R5
//  816       }
??MT_AfDataRetrieve_6:
        LCALL   ?Subroutine31 & 0xFFFF
//  817       (void)osal_mem_free(pItem);
??CrossCallReturnLabel_51:
        ; Setup parameters for call to function osal_mem_free
        MOV     R2,?V0 + 6
        MOV     R3,?V0 + 7
        LCALL   ??osal_mem_free?relay
//  818       rtrn = afStatus_SUCCESS;
        MOV     R2,#0x0
//  819     }
//  820     else if ((pRsp = osal_mem_alloc(len + MT_AF_RTV_HDR_SZ)) == NULL)
//  821     {
//  822       rtrn = afStatus_MEM_FAIL;
//  823       len = 0;
//  824     }
//  825     else
//  826     {
//  827       pRsp[0] = ZSuccess;
//  828       pRsp[1] = len;
//  829       (void)osal_memcpy(pRsp + MT_AF_RTV_HDR_SZ, pItem->data+idx, len);
//  830       MT_BuildAndSendZToolResponse(((uint8)MT_RPC_CMD_SRSP | (uint8)MT_RPC_SYS_AF),
//  831                                            MT_AF_DATA_RETRIEVE, len + MT_AF_RTV_HDR_SZ, pRsp);
//  832       (void)osal_mem_free(pRsp);
//  833       return;
//  834     }
//  835   }
//  836 
//  837   pBuf[0] = rtrn;
??MT_AfDataRetrieve_2:
        MOV     A,R2
        MOV     DPL,R6
        MOV     DPH,R7
        MOVX    @DPTR,A
//  838   pBuf[1] = len;
        INC     DPTR
        MOV     A,?V0 + 4
        MOVX    @DPTR,A
//  839   MT_BuildAndSendZToolResponse(((uint8)MT_RPC_CMD_SRSP | (uint8)MT_RPC_SYS_AF),
//  840                                        MT_AF_DATA_RETRIEVE, MT_AF_RTV_HDR_SZ, pBuf);
        ; Setup parameters for call to function MT_BuildAndSendZToolResponse
        MOV     A,R6
        MOV     R4,A
        MOV     A,R7
        MOV     R5,A
        MOV     R3,#0x2
        MOV     R2,#0x12
        MOV     R1,#0x64
        LCALL   ??MT_BuildAndSendZToolResponse?relay
//  841 }
??MT_AfDataRetrieve_7:
        MOV     R7,#0xc
        LJMP    ?BANKED_LEAVE_XDATA
??MT_AfDataRetrieve_3:
        ; Setup parameters for call to function osal_mem_alloc
        ADD     A,#0x2
        MOV     R2,A
        CLR     A
        LCALL   ??Subroutine46_0 & 0xFFFF
??CrossCallReturnLabel_65:
        MOV     ?V0 + 0,R2
        MOV     ?V0 + 1,R3
        MOV     A,R2
        ORL     A,?V0 + 1
        JNZ     ??MT_AfDataRetrieve_8
        MOV     R2,#0x10
        MOV     ?V0 + 4,#0x0
        SJMP    ??MT_AfDataRetrieve_2
??MT_AfDataRetrieve_8:
        MOV     DPL,R2
        MOV     DPH,R3
        CLR     A
        MOVX    @DPTR,A
        INC     DPTR
        MOV     A,?V0 + 4
        MOVX    @DPTR,A
        ; Setup parameters for call to function osal_memcpy
        MOV     DPL,?V0 + 6
        MOV     DPH,?V0 + 7
        INC     DPTR
        INC     DPTR
        MOVX    A,@DPTR
        ADD     A,?V0 + 2
        MOV     ?V0 + 8,A
        INC     DPTR
        MOVX    A,@DPTR
        ADDC    A,?V0 + 3
        MOV     ?V0 + 9,A
        MOV     R0,#?V0 + 8
        LCALL   ?PUSH_XSTACK_I_THREE
        CFI CFA_XSP16 add(XSP16, 23)
        MOV     ?V0 + 2,?V0 + 4
        MOV     R4,?V0 + 2
        MOV     R5,#0x0
        MOV     A,R2
        ADD     A,#0x2
        INC     R2
        INC     R2
        MOV     A,R3
        ADDC    A,#0x0
        LCALL   ?Subroutine32 & 0xFFFF
??CrossCallReturnLabel_114:
        LCALL   ?DEALLOC_XSTACK8
        CFI CFA_XSP16 add(XSP16, 20)
        ; Setup parameters for call to function MT_BuildAndSendZToolResponse
        MOV     R4,?V0 + 0
        MOV     R5,?V0 + 1
        MOV     A,#0x2
        ADD     A,?V0 + 4
        MOV     R3,A
        MOV     R2,#0x12
        MOV     R1,#0x64
        LCALL   ??MT_BuildAndSendZToolResponse?relay
        ; Setup parameters for call to function osal_mem_free
        MOV     R2,?V0 + 0
        MOV     R3,?V0 + 1
        LCALL   ??osal_mem_free?relay
        SJMP    ??MT_AfDataRetrieve_7
        CFI EndBlock cfiBlock238

        RSEG BANKED_CODE:CODE:NOROOT(0)
?Subroutine32:
        CFI Block cfiCond239 Using cfiCommon0
        CFI NoFunction
        CFI Conditional ??CrossCallReturnLabel_114
        CFI R6 load(1, XDATA, add(CFA_XSP16, literal(-20)))
        CFI VB load(1, XDATA, add(CFA_XSP16, literal(-19)))
        CFI V0 load(1, XDATA, add(CFA_XSP16, literal(-18)))
        CFI V1 load(1, XDATA, add(CFA_XSP16, literal(-17)))
        CFI V2 load(1, XDATA, add(CFA_XSP16, literal(-16)))
        CFI V3 load(1, XDATA, add(CFA_XSP16, literal(-15)))
        CFI V4 load(1, XDATA, add(CFA_XSP16, literal(-14)))
        CFI V5 load(1, XDATA, add(CFA_XSP16, literal(-13)))
        CFI V6 load(1, XDATA, add(CFA_XSP16, literal(-12)))
        CFI V7 load(1, XDATA, add(CFA_XSP16, literal(-11)))
        CFI V8 load(1, XDATA, add(CFA_XSP16, literal(-10)))
        CFI V9 load(1, XDATA, add(CFA_XSP16, literal(-9)))
        CFI V10 load(1, XDATA, add(CFA_XSP16, literal(-8)))
        CFI V11 load(1, XDATA, add(CFA_XSP16, literal(-7)))
        CFI R7 load(1, XDATA, add(CFA_XSP16, literal(-6)))
        CFI ?RET_LOW load(1, XDATA, add(CFA_XSP16, literal(-5)))
        CFI ?RET_HIGH load(1, XDATA, add(CFA_XSP16, literal(-4)))
        CFI ?BRET_EXT load(1, XDATA, add(CFA_XSP16, literal(-3)))
        CFI DPL0 load(1, XDATA, add(CFA_XSP16, literal(-2)))
        CFI DPH0 load(1, XDATA, add(CFA_XSP16, literal(-1)))
        CFI CFA_SP SP+0
        CFI CFA_XSP16 add(XSP16, 23)
        CFI Block cfiCond240 Using cfiCommon0
        CFI (cfiCond240) NoFunction
        CFI (cfiCond240) Conditional ??CrossCallReturnLabel_115
        CFI (cfiCond240) R6 load(1, XDATA, add(CFA_XSP16, literal(-14)))
        CFI (cfiCond240) VB load(1, XDATA, add(CFA_XSP16, literal(-13)))
        CFI (cfiCond240) V0 load(1, XDATA, add(CFA_XSP16, literal(-12)))
        CFI (cfiCond240) V1 load(1, XDATA, add(CFA_XSP16, literal(-11)))
        CFI (cfiCond240) V2 load(1, XDATA, add(CFA_XSP16, literal(-10)))
        CFI (cfiCond240) V3 load(1, XDATA, add(CFA_XSP16, literal(-9)))
        CFI (cfiCond240) V4 load(1, XDATA, add(CFA_XSP16, literal(-8)))
        CFI (cfiCond240) V5 load(1, XDATA, add(CFA_XSP16, literal(-7)))
        CFI (cfiCond240) R7 load(1, XDATA, add(CFA_XSP16, literal(-6)))
        CFI (cfiCond240) ?RET_LOW load(1, XDATA, add(CFA_XSP16, literal(-5)))
        CFI (cfiCond240) ?RET_HIGH load(1, XDATA, add(CFA_XSP16, literal(-4)))
        CFI (cfiCond240) ?BRET_EXT load(1, XDATA, add(CFA_XSP16, literal(-3)))
        CFI (cfiCond240) DPL0 load(1, XDATA, add(CFA_XSP16, literal(-2)))
        CFI (cfiCond240) DPH0 load(1, XDATA, add(CFA_XSP16, literal(-1)))
        CFI (cfiCond240) CFA_SP SP+0
        CFI (cfiCond240) CFA_XSP16 add(XSP16, 18)
        CFI Block cfiPicker241 Using cfiCommon1
        CFI (cfiPicker241) NoFunction
        CFI (cfiPicker241) Picker
        MOV     R3,A
        CFI EndBlock cfiCond239
        CFI EndBlock cfiCond240
        CFI EndBlock cfiPicker241
        REQUIRE ??Subroutine56_0
        ; // Fall through to label ??Subroutine56_0

        RSEG BANKED_CODE:CODE:NOROOT(0)
??Subroutine56_0:
        CFI Block cfiCond242 Using cfiCommon0
        CFI NoFunction
        CFI Conditional ??CrossCallReturnLabel_116
        CFI R6 load(1, XDATA, add(CFA_XSP16, literal(-22)))
        CFI VB load(1, XDATA, add(CFA_XSP16, literal(-21)))
        CFI V0 load(1, XDATA, add(CFA_XSP16, literal(-20)))
        CFI V1 load(1, XDATA, add(CFA_XSP16, literal(-19)))
        CFI V2 load(1, XDATA, add(CFA_XSP16, literal(-18)))
        CFI V3 load(1, XDATA, add(CFA_XSP16, literal(-17)))
        CFI V4 load(1, XDATA, add(CFA_XSP16, literal(-16)))
        CFI V5 load(1, XDATA, add(CFA_XSP16, literal(-15)))
        CFI V6 load(1, XDATA, add(CFA_XSP16, literal(-14)))
        CFI V7 load(1, XDATA, add(CFA_XSP16, literal(-13)))
        CFI V8 load(1, XDATA, add(CFA_XSP16, literal(-12)))
        CFI V9 load(1, XDATA, add(CFA_XSP16, literal(-11)))
        CFI V10 load(1, XDATA, add(CFA_XSP16, literal(-10)))
        CFI V11 load(1, XDATA, add(CFA_XSP16, literal(-9)))
        CFI V12 load(1, XDATA, add(CFA_XSP16, literal(-8)))
        CFI V13 load(1, XDATA, add(CFA_XSP16, literal(-7)))
        CFI R7 load(1, XDATA, add(CFA_XSP16, literal(-6)))
        CFI ?RET_LOW load(1, XDATA, add(CFA_XSP16, literal(-5)))
        CFI ?RET_HIGH load(1, XDATA, add(CFA_XSP16, literal(-4)))
        CFI ?BRET_EXT load(1, XDATA, add(CFA_XSP16, literal(-3)))
        CFI DPL0 load(1, XDATA, add(CFA_XSP16, literal(-2)))
        CFI DPH0 load(1, XDATA, add(CFA_XSP16, literal(-1)))
        CFI CFA_SP SP+0
        CFI CFA_XSP16 add(XSP16, 39)
        CFI Block cfiCond243 Using cfiCommon0
        CFI (cfiCond243) NoFunction
        CFI (cfiCond243) Conditional ??CrossCallReturnLabel_117
        CFI (cfiCond243) R6 load(1, XDATA, add(CFA_XSP16, literal(-22)))
        CFI (cfiCond243) VB load(1, XDATA, add(CFA_XSP16, literal(-21)))
        CFI (cfiCond243) V0 load(1, XDATA, add(CFA_XSP16, literal(-20)))
        CFI (cfiCond243) V1 load(1, XDATA, add(CFA_XSP16, literal(-19)))
        CFI (cfiCond243) V2 load(1, XDATA, add(CFA_XSP16, literal(-18)))
        CFI (cfiCond243) V3 load(1, XDATA, add(CFA_XSP16, literal(-17)))
        CFI (cfiCond243) V4 load(1, XDATA, add(CFA_XSP16, literal(-16)))
        CFI (cfiCond243) V5 load(1, XDATA, add(CFA_XSP16, literal(-15)))
        CFI (cfiCond243) V6 load(1, XDATA, add(CFA_XSP16, literal(-14)))
        CFI (cfiCond243) V7 load(1, XDATA, add(CFA_XSP16, literal(-13)))
        CFI (cfiCond243) V8 load(1, XDATA, add(CFA_XSP16, literal(-12)))
        CFI (cfiCond243) V9 load(1, XDATA, add(CFA_XSP16, literal(-11)))
        CFI (cfiCond243) V10 load(1, XDATA, add(CFA_XSP16, literal(-10)))
        CFI (cfiCond243) V11 load(1, XDATA, add(CFA_XSP16, literal(-9)))
        CFI (cfiCond243) V12 load(1, XDATA, add(CFA_XSP16, literal(-8)))
        CFI (cfiCond243) V13 load(1, XDATA, add(CFA_XSP16, literal(-7)))
        CFI (cfiCond243) R7 load(1, XDATA, add(CFA_XSP16, literal(-6)))
        CFI (cfiCond243) ?RET_LOW load(1, XDATA, add(CFA_XSP16, literal(-5)))
        CFI (cfiCond243) ?RET_HIGH load(1, XDATA, add(CFA_XSP16, literal(-4)))
        CFI (cfiCond243) ?BRET_EXT load(1, XDATA, add(CFA_XSP16, literal(-3)))
        CFI (cfiCond243) DPL0 load(1, XDATA, add(CFA_XSP16, literal(-2)))
        CFI (cfiCond243) DPH0 load(1, XDATA, add(CFA_XSP16, literal(-1)))
        CFI (cfiCond243) CFA_SP SP+0
        CFI (cfiCond243) CFA_XSP16 add(XSP16, 39)
        CFI Block cfiCond244 Using cfiCommon0
        CFI (cfiCond244) NoFunction
        CFI (cfiCond244) Conditional ??CrossCallReturnLabel_118
        CFI (cfiCond244) R6 load(1, XDATA, add(CFA_XSP16, literal(-24)))
        CFI (cfiCond244) VB load(1, XDATA, add(CFA_XSP16, literal(-23)))
        CFI (cfiCond244) V0 load(1, XDATA, add(CFA_XSP16, literal(-22)))
        CFI (cfiCond244) V1 load(1, XDATA, add(CFA_XSP16, literal(-21)))
        CFI (cfiCond244) V2 load(1, XDATA, add(CFA_XSP16, literal(-20)))
        CFI (cfiCond244) V3 load(1, XDATA, add(CFA_XSP16, literal(-19)))
        CFI (cfiCond244) V4 load(1, XDATA, add(CFA_XSP16, literal(-18)))
        CFI (cfiCond244) V5 load(1, XDATA, add(CFA_XSP16, literal(-17)))
        CFI (cfiCond244) V6 load(1, XDATA, add(CFA_XSP16, literal(-16)))
        CFI (cfiCond244) V7 load(1, XDATA, add(CFA_XSP16, literal(-15)))
        CFI (cfiCond244) V8 load(1, XDATA, add(CFA_XSP16, literal(-14)))
        CFI (cfiCond244) V9 load(1, XDATA, add(CFA_XSP16, literal(-13)))
        CFI (cfiCond244) V10 load(1, XDATA, add(CFA_XSP16, literal(-12)))
        CFI (cfiCond244) V11 load(1, XDATA, add(CFA_XSP16, literal(-11)))
        CFI (cfiCond244) V12 load(1, XDATA, add(CFA_XSP16, literal(-10)))
        CFI (cfiCond244) V13 load(1, XDATA, add(CFA_XSP16, literal(-9)))
        CFI (cfiCond244) V14 load(1, XDATA, add(CFA_XSP16, literal(-8)))
        CFI (cfiCond244) V15 load(1, XDATA, add(CFA_XSP16, literal(-7)))
        CFI (cfiCond244) R7 load(1, XDATA, add(CFA_XSP16, literal(-6)))
        CFI (cfiCond244) ?RET_LOW load(1, XDATA, add(CFA_XSP16, literal(-5)))
        CFI (cfiCond244) ?RET_HIGH load(1, XDATA, add(CFA_XSP16, literal(-4)))
        CFI (cfiCond244) ?BRET_EXT load(1, XDATA, add(CFA_XSP16, literal(-3)))
        CFI (cfiCond244) DPL0 load(1, XDATA, add(CFA_XSP16, literal(-2)))
        CFI (cfiCond244) DPH0 load(1, XDATA, add(CFA_XSP16, literal(-1)))
        CFI (cfiCond244) CFA_SP SP+0
        CFI (cfiCond244) CFA_XSP16 add(XSP16, 28)
        CFI Block cfiCond245 Using cfiCommon0
        CFI (cfiCond245) NoFunction
        CFI (cfiCond245) Conditional ??CrossCallReturnLabel_119
        CFI (cfiCond245) R6 load(1, XDATA, add(CFA_XSP16, literal(-24)))
        CFI (cfiCond245) VB load(1, XDATA, add(CFA_XSP16, literal(-23)))
        CFI (cfiCond245) V0 load(1, XDATA, add(CFA_XSP16, literal(-22)))
        CFI (cfiCond245) V1 load(1, XDATA, add(CFA_XSP16, literal(-21)))
        CFI (cfiCond245) V2 load(1, XDATA, add(CFA_XSP16, literal(-20)))
        CFI (cfiCond245) V3 load(1, XDATA, add(CFA_XSP16, literal(-19)))
        CFI (cfiCond245) V4 load(1, XDATA, add(CFA_XSP16, literal(-18)))
        CFI (cfiCond245) V5 load(1, XDATA, add(CFA_XSP16, literal(-17)))
        CFI (cfiCond245) V6 load(1, XDATA, add(CFA_XSP16, literal(-16)))
        CFI (cfiCond245) V7 load(1, XDATA, add(CFA_XSP16, literal(-15)))
        CFI (cfiCond245) V8 load(1, XDATA, add(CFA_XSP16, literal(-14)))
        CFI (cfiCond245) V9 load(1, XDATA, add(CFA_XSP16, literal(-13)))
        CFI (cfiCond245) V10 load(1, XDATA, add(CFA_XSP16, literal(-12)))
        CFI (cfiCond245) V11 load(1, XDATA, add(CFA_XSP16, literal(-11)))
        CFI (cfiCond245) V12 load(1, XDATA, add(CFA_XSP16, literal(-10)))
        CFI (cfiCond245) V13 load(1, XDATA, add(CFA_XSP16, literal(-9)))
        CFI (cfiCond245) V14 load(1, XDATA, add(CFA_XSP16, literal(-8)))
        CFI (cfiCond245) V15 load(1, XDATA, add(CFA_XSP16, literal(-7)))
        CFI (cfiCond245) R7 load(1, XDATA, add(CFA_XSP16, literal(-6)))
        CFI (cfiCond245) ?RET_LOW load(1, XDATA, add(CFA_XSP16, literal(-5)))
        CFI (cfiCond245) ?RET_HIGH load(1, XDATA, add(CFA_XSP16, literal(-4)))
        CFI (cfiCond245) ?BRET_EXT load(1, XDATA, add(CFA_XSP16, literal(-3)))
        CFI (cfiCond245) DPL0 load(1, XDATA, add(CFA_XSP16, literal(-2)))
        CFI (cfiCond245) DPH0 load(1, XDATA, add(CFA_XSP16, literal(-1)))
        CFI (cfiCond245) CFA_SP SP+0
        CFI (cfiCond245) CFA_XSP16 add(XSP16, 28)
        CFI Block cfiCond246 Using cfiCommon0
        CFI (cfiCond246) NoFunction
        CFI (cfiCond246) Conditional ??CrossCallReturnLabel_114
        CFI (cfiCond246) R6 load(1, XDATA, add(CFA_XSP16, literal(-20)))
        CFI (cfiCond246) VB load(1, XDATA, add(CFA_XSP16, literal(-19)))
        CFI (cfiCond246) V0 load(1, XDATA, add(CFA_XSP16, literal(-18)))
        CFI (cfiCond246) V1 load(1, XDATA, add(CFA_XSP16, literal(-17)))
        CFI (cfiCond246) V2 load(1, XDATA, add(CFA_XSP16, literal(-16)))
        CFI (cfiCond246) V3 load(1, XDATA, add(CFA_XSP16, literal(-15)))
        CFI (cfiCond246) V4 load(1, XDATA, add(CFA_XSP16, literal(-14)))
        CFI (cfiCond246) V5 load(1, XDATA, add(CFA_XSP16, literal(-13)))
        CFI (cfiCond246) V6 load(1, XDATA, add(CFA_XSP16, literal(-12)))
        CFI (cfiCond246) V7 load(1, XDATA, add(CFA_XSP16, literal(-11)))
        CFI (cfiCond246) V8 load(1, XDATA, add(CFA_XSP16, literal(-10)))
        CFI (cfiCond246) V9 load(1, XDATA, add(CFA_XSP16, literal(-9)))
        CFI (cfiCond246) V10 load(1, XDATA, add(CFA_XSP16, literal(-8)))
        CFI (cfiCond246) V11 load(1, XDATA, add(CFA_XSP16, literal(-7)))
        CFI (cfiCond246) R7 load(1, XDATA, add(CFA_XSP16, literal(-6)))
        CFI (cfiCond246) ?RET_LOW load(1, XDATA, add(CFA_XSP16, literal(-5)))
        CFI (cfiCond246) ?RET_HIGH load(1, XDATA, add(CFA_XSP16, literal(-4)))
        CFI (cfiCond246) ?BRET_EXT load(1, XDATA, add(CFA_XSP16, literal(-3)))
        CFI (cfiCond246) DPL0 load(1, XDATA, add(CFA_XSP16, literal(-2)))
        CFI (cfiCond246) DPH0 load(1, XDATA, add(CFA_XSP16, literal(-1)))
        CFI (cfiCond246) CFA_SP SP+0
        CFI (cfiCond246) CFA_XSP16 add(XSP16, 23)
        CFI Block cfiCond247 Using cfiCommon0
        CFI (cfiCond247) NoFunction
        CFI (cfiCond247) Conditional ??CrossCallReturnLabel_115
        CFI (cfiCond247) R6 load(1, XDATA, add(CFA_XSP16, literal(-14)))
        CFI (cfiCond247) VB load(1, XDATA, add(CFA_XSP16, literal(-13)))
        CFI (cfiCond247) V0 load(1, XDATA, add(CFA_XSP16, literal(-12)))
        CFI (cfiCond247) V1 load(1, XDATA, add(CFA_XSP16, literal(-11)))
        CFI (cfiCond247) V2 load(1, XDATA, add(CFA_XSP16, literal(-10)))
        CFI (cfiCond247) V3 load(1, XDATA, add(CFA_XSP16, literal(-9)))
        CFI (cfiCond247) V4 load(1, XDATA, add(CFA_XSP16, literal(-8)))
        CFI (cfiCond247) V5 load(1, XDATA, add(CFA_XSP16, literal(-7)))
        CFI (cfiCond247) R7 load(1, XDATA, add(CFA_XSP16, literal(-6)))
        CFI (cfiCond247) ?RET_LOW load(1, XDATA, add(CFA_XSP16, literal(-5)))
        CFI (cfiCond247) ?RET_HIGH load(1, XDATA, add(CFA_XSP16, literal(-4)))
        CFI (cfiCond247) ?BRET_EXT load(1, XDATA, add(CFA_XSP16, literal(-3)))
        CFI (cfiCond247) DPL0 load(1, XDATA, add(CFA_XSP16, literal(-2)))
        CFI (cfiCond247) DPH0 load(1, XDATA, add(CFA_XSP16, literal(-1)))
        CFI (cfiCond247) CFA_SP SP+0
        CFI (cfiCond247) CFA_XSP16 add(XSP16, 18)
        CFI Block cfiPicker248 Using cfiCommon1
        CFI (cfiPicker248) NoFunction
        CFI (cfiPicker248) Picker
        LCALL   ??osal_memcpy?relay
        MOV     A,#0x3
        RET
        CFI EndBlock cfiCond242
        CFI EndBlock cfiCond243
        CFI EndBlock cfiCond244
        CFI EndBlock cfiCond245
        CFI EndBlock cfiCond246
        CFI EndBlock cfiCond247
        CFI EndBlock cfiPicker248
//  842 
//  843 /**************************************************************************************************
//  844  * @fn          MT_AfDataStore
//  845  *
//  846  * @brief   Process AF Data Store command to incrementally store the data buffer for very large
//  847  *          outgoing AF message.
//  848  *
//  849  * input parameters
//  850  *
//  851  * @param pBuf - pointer to the received buffer
//  852  *
//  853  * output parameters
//  854  *
//  855  * @param rtrn - AF-Status of the operation.
//  856  *
//  857  * @return      None.
//  858  **************************************************************************************************
//  859  */

        RSEG BANKED_CODE:CODE:NOROOT(0)
//  860 void MT_AfDataStore(uint8 *pBuf)
MT_AfDataStore:
        CFI Block cfiBlock249 Using cfiCommon0
        CFI Function MT_AfDataStore
        CODE
//  861 {
        FUNCALL MT_AfDataStore, AF_DataRequest
        LOCFRAME ISTACK, 0, STACK
        LOCFRAME PSTACK, 0, STACK
        LOCFRAME XSTACK, 24, STACK
        LOCFRAME IOVERLAY, 0, STATIC
        LOCFRAME DOVERLAY, 0, STATIC
        ARGFRAME ISTACK, 0, STACK
        ARGFRAME PSTACK, 0, STACK
        ARGFRAME XSTACK, 24, STACK
        ARGFRAME IOVERLAY, 0, STATIC
        ARGFRAME DOVERLAY, 0, STATIC
        FUNCALL MT_AfDataStore, osal_mem_free
        LOCFRAME ISTACK, 0, STACK
        LOCFRAME PSTACK, 0, STACK
        LOCFRAME XSTACK, 15, STACK
        LOCFRAME IOVERLAY, 0, STATIC
        LOCFRAME DOVERLAY, 0, STATIC
        ARGFRAME ISTACK, 0, STACK
        ARGFRAME PSTACK, 0, STACK
        ARGFRAME XSTACK, 15, STACK
        ARGFRAME IOVERLAY, 0, STATIC
        ARGFRAME DOVERLAY, 0, STATIC
        FUNCALL MT_AfDataStore, osal_memcpy
        LOCFRAME ISTACK, 0, STACK
        LOCFRAME PSTACK, 0, STACK
        LOCFRAME XSTACK, 18, STACK
        LOCFRAME IOVERLAY, 0, STATIC
        LOCFRAME DOVERLAY, 0, STATIC
        ARGFRAME ISTACK, 0, STACK
        ARGFRAME PSTACK, 0, STACK
        ARGFRAME XSTACK, 18, STACK
        ARGFRAME IOVERLAY, 0, STATIC
        ARGFRAME DOVERLAY, 0, STATIC
        FUNCALL MT_AfDataStore, MT_BuildAndSendZToolResponse
        LOCFRAME ISTACK, 0, STACK
        LOCFRAME PSTACK, 0, STACK
        LOCFRAME XSTACK, 15, STACK
        LOCFRAME IOVERLAY, 0, STATIC
        LOCFRAME DOVERLAY, 0, STATIC
        ARGFRAME ISTACK, 0, STACK
        ARGFRAME PSTACK, 0, STACK
        ARGFRAME XSTACK, 15, STACK
        ARGFRAME IOVERLAY, 0, STATIC
        ARGFRAME DOVERLAY, 0, STATIC
        MOV     A,#-0xe
        LCALL   ?BANKED_ENTER_XDATA
        CFI DPH0 load(1, XDATA, add(CFA_XSP16, literal(-1)))
        CFI DPL0 load(1, XDATA, add(CFA_XSP16, literal(-2)))
        CFI ?BRET_EXT load(1, XDATA, add(CFA_XSP16, literal(-3)))
        CFI ?RET_HIGH load(1, XDATA, add(CFA_XSP16, literal(-4)))
        CFI ?RET_LOW load(1, XDATA, add(CFA_XSP16, literal(-5)))
        CFI R7 load(1, XDATA, add(CFA_XSP16, literal(-6)))
        CFI V5 load(1, XDATA, add(CFA_XSP16, literal(-7)))
        CFI V4 load(1, XDATA, add(CFA_XSP16, literal(-8)))
        CFI V3 load(1, XDATA, add(CFA_XSP16, literal(-9)))
        CFI V2 load(1, XDATA, add(CFA_XSP16, literal(-10)))
        CFI V1 load(1, XDATA, add(CFA_XSP16, literal(-11)))
        CFI V0 load(1, XDATA, add(CFA_XSP16, literal(-12)))
        CFI VB load(1, XDATA, add(CFA_XSP16, literal(-13)))
        CFI R6 load(1, XDATA, add(CFA_XSP16, literal(-14)))
        CFI CFA_SP SP+0
        CFI CFA_XSP16 add(XSP16, 14)
        ; Saved register size: 14
        ; Auto size: 1
        MOV     A,#-0x1
        LCALL   ?ALLOC_XSTACK8
        CFI CFA_XSP16 add(XSP16, 15)
//  862   uint16 idx;
//  863   uint8 len, rtrn = afStatus_FAILED;
        MOV     DPL,?XSP + 0
        MOV     DPH,?XSP + 1
        MOV     A,#0x1
        MOVX    @DPTR,A
//  864 
//  865   pBuf += MT_RPC_FRAME_HDR_SZ;
        MOV     A,R2
        ADD     A,#0x3
        INC     R2
        INC     R2
        INC     R2
        MOV     A,R3
        LCALL   ?Subroutine19 & 0xFFFF
//  866   idx = BUILD_UINT16(pBuf[0], pBuf[1]);
??CrossCallReturnLabel_19:
        MOV     R1,A
        MOV     A,R4
        ADD     A,#0x0
        MOV     R6,A
        CLR     A
        ADDC    A,R1
        MOV     R7,A
//  867   len = pBuf[2];
        MOV     DPL,R2
        MOV     DPH,R3
        INC     DPTR
        INC     DPTR
        MOVX    A,@DPTR
        MOV     R4,A
//  868   pBuf += 3;
        MOV     A,R2
        ADD     A,#0x3
        INC     R2
        INC     R2
        INC     R2
        MOV     A,R3
        ADDC    A,#0x0
        MOV     R3,A
//  869 
//  870   if (pMtAfDataReq == NULL)
        LCALL   ?Subroutine4 & 0xFFFF
??CrossCallReturnLabel_79:
        JNZ     ??MT_AfDataStore_0
//  871   {
//  872     rtrn = afStatus_MEM_FAIL;
        MOV     DPL,?XSP + 0
        MOV     DPH,?XSP + 1
        MOV     A,#0x10
        LJMP    ??MT_AfDataStore_1 & 0xFFFF
//  873   }
//  874   else if (len == 0)  // Indication to send the message.
??MT_AfDataStore_0:
        LCALL   ?Subroutine15 & 0xFFFF
??CrossCallReturnLabel_15:
        LCALL   ?Subroutine35 & 0xFFFF
??CrossCallReturnLabel_55:
        MOV     A,R4
        JNZ     ??MT_AfDataStore_2
//  875   {
//  876     rtrn = AF_DataRequest(&(pMtAfDataReq->dstAddr), pMtAfDataReq->epDesc, pMtAfDataReq->cId,
//  877                             pMtAfDataReq->dataLen,  pMtAfDataReq->data,
//  878                           &(pMtAfDataReq->transId), pMtAfDataReq->txOpts, pMtAfDataReq->radius);
        ; Setup parameters for call to function AF_DataRequest
        MOV     DPTR,#pMtAfDataReq
        MOVX    A,@DPTR
        ADD     A,#0x16
        LCALL   ??Subroutine45_0 & 0xFFFF
??CrossCallReturnLabel_59:
        MOV     ?V0 + 0,A
        MOV     R0,#?V0 + 0
        LCALL   ?PUSH_XSTACK_I_ONE
        CFI CFA_XSP16 add(XSP16, 16)
        MOV     DPTR,#pMtAfDataReq
        MOVX    A,@DPTR
        ADD     A,#0x14
        MOV     ?V0 + 0,A
        INC     DPTR
        MOVX    A,@DPTR
        ADDC    A,#0x0
        MOV     ?V0 + 1,A
        MOV     R0,#?V0 + 0
        LCALL   ?PUSH_XSTACK_I_TWO
        CFI CFA_XSP16 add(XSP16, 18)
        MOV     R0,#?V0 + 4
        LCALL   ?PUSH_XSTACK_I_TWO
        CFI CFA_XSP16 add(XSP16, 20)
        MOV     DPTR,#pMtAfDataReq
        MOVX    A,@DPTR
        ADD     A,#0x12
        LCALL   ??Subroutine57_0 & 0xFFFF
??CrossCallReturnLabel_126:
        LCALL   ?PUSH_XSTACK8_X_TWO
        CFI CFA_XSP16 add(XSP16, 22)
        LCALL   ?Subroutine6 & 0xFFFF
??CrossCallReturnLabel_128:
        LCALL   ?PUSH_XSTACK8_X_TWO
        CFI CFA_XSP16 add(XSP16, 24)
        MOV     DPTR,#pMtAfDataReq
        MOVX    A,@DPTR
        ADD     A,#0x15
        LCALL   ??Subroutine45_0 & 0xFFFF
??CrossCallReturnLabel_60:
        MOV     R1,A
        MOV     DPTR,#pMtAfDataReq
        MOVX    A,@DPTR
        ADD     A,#0xe
        MOV     R2,A
        INC     DPTR
        MOVX    A,@DPTR
        LCALL   ?Subroutine19 & 0xFFFF
??CrossCallReturnLabel_20:
        MOV     R5,A
        LCALL   ?Subroutine14 & 0xFFFF
??CrossCallReturnLabel_13:
        LCALL   ??AF_DataRequest?relay
        MOV     A,#0x9
        LCALL   ?DEALLOC_XSTACK8
        CFI CFA_XSP16 add(XSP16, 15)
        MOV     A,R1
        MOV     DPL,?XSP + 0
        MOV     DPH,?XSP + 1
        MOVX    @DPTR,A
//  879     (void)osal_mem_free(pMtAfDataReq);
        ; Setup parameters for call to function osal_mem_free
        LCALL   ?Subroutine9 & 0xFFFF
//  880     pMtAfDataReq = NULL;
//  881   }
??CrossCallReturnLabel_7:
        SJMP    ??MT_AfDataStore_1
//  882   else
//  883   {
//  884     (void)osal_memcpy(pMtAfDataReq->data+idx, pBuf, len);
??MT_AfDataStore_2:
        ; Setup parameters for call to function osal_memcpy
        MOV     ?V0 + 0,R2
        MOV     ?V0 + 1,R3
        MOV     ?V0 + 2,#0x0
        MOV     R0,#?V0 + 0
        LCALL   ?PUSH_XSTACK_I_THREE
        CFI CFA_XSP16 add(XSP16, 18)
        MOV     R5,#0x0
        MOV     A,?V0 + 4
        ADD     A,R6
        MOV     R2,A
        MOV     A,?V0 + 5
        ADDC    A,R7
        LCALL   ?Subroutine32 & 0xFFFF
??CrossCallReturnLabel_115:
        LCALL   ?DEALLOC_XSTACK8
        CFI CFA_XSP16 add(XSP16, 15)
//  885     rtrn = afStatus_SUCCESS;
        MOV     DPL,?XSP + 0
        MOV     DPH,?XSP + 1
        CLR     A
//  886   }
??MT_AfDataStore_1:
        LCALL   ?Subroutine24 & 0xFFFF
//  887 
//  888   MT_BuildAndSendZToolResponse(((uint8)MT_RPC_CMD_SRSP | (uint8)MT_RPC_SYS_AF),
//  889                                                                 MT_AF_DATA_STORE, 1, &rtrn);
??CrossCallReturnLabel_29:
        MOV     R3,#0x1
        MOV     R2,#0x11
        LJMP    ?Subroutine1 & 0xFFFF
        CFI EndBlock cfiBlock249
//  890 }

        RSEG BANKED_CODE:CODE:NOROOT(0)
?Subroutine24:
        CFI Block cfiCond250 Using cfiCommon0
        CFI NoFunction
        CFI Conditional ??CrossCallReturnLabel_28
        CFI DPL0 Frame(CFA_SP, 4)
        CFI DPH0 Frame(CFA_SP, 5)
        CFI CFA_SP SP+-5
        CFI CFA_XSP16 add(XSP16, 3)
        CFI Block cfiCond251 Using cfiCommon0
        CFI (cfiCond251) NoFunction
        CFI (cfiCond251) Conditional ??CrossCallReturnLabel_29
        CFI (cfiCond251) R6 load(1, XDATA, add(CFA_XSP16, literal(-14)))
        CFI (cfiCond251) VB load(1, XDATA, add(CFA_XSP16, literal(-13)))
        CFI (cfiCond251) V0 load(1, XDATA, add(CFA_XSP16, literal(-12)))
        CFI (cfiCond251) V1 load(1, XDATA, add(CFA_XSP16, literal(-11)))
        CFI (cfiCond251) V2 load(1, XDATA, add(CFA_XSP16, literal(-10)))
        CFI (cfiCond251) V3 load(1, XDATA, add(CFA_XSP16, literal(-9)))
        CFI (cfiCond251) V4 load(1, XDATA, add(CFA_XSP16, literal(-8)))
        CFI (cfiCond251) V5 load(1, XDATA, add(CFA_XSP16, literal(-7)))
        CFI (cfiCond251) R7 load(1, XDATA, add(CFA_XSP16, literal(-6)))
        CFI (cfiCond251) ?RET_LOW load(1, XDATA, add(CFA_XSP16, literal(-5)))
        CFI (cfiCond251) ?RET_HIGH load(1, XDATA, add(CFA_XSP16, literal(-4)))
        CFI (cfiCond251) ?BRET_EXT load(1, XDATA, add(CFA_XSP16, literal(-3)))
        CFI (cfiCond251) DPL0 load(1, XDATA, add(CFA_XSP16, literal(-2)))
        CFI (cfiCond251) DPH0 load(1, XDATA, add(CFA_XSP16, literal(-1)))
        CFI (cfiCond251) CFA_SP SP+0
        CFI (cfiCond251) CFA_XSP16 add(XSP16, 15)
        CFI Block cfiPicker252 Using cfiCommon1
        CFI (cfiPicker252) NoFunction
        CFI (cfiPicker252) Picker
        MOVX    @DPTR,A
        ; Setup parameters for call to function MT_BuildAndSendZToolResponse
        ; Setup parameters for call to function MT_BuildAndSendZToolResponse
        MOV     DPL,?XSP + 0
        MOV     DPH,?XSP + 1
        MOV     R4,DPL
        MOV     R5,DPH
        RET
        CFI EndBlock cfiCond250
        CFI EndBlock cfiCond251
        CFI EndBlock cfiPicker252

        RSEG BANKED_CODE:CODE:NOROOT(0)
?Subroutine19:
        CFI Block cfiCond253 Using cfiCommon0
        CFI NoFunction
        CFI Conditional ??CrossCallReturnLabel_19
        CFI R6 load(1, XDATA, add(CFA_XSP16, literal(-14)))
        CFI VB load(1, XDATA, add(CFA_XSP16, literal(-13)))
        CFI V0 load(1, XDATA, add(CFA_XSP16, literal(-12)))
        CFI V1 load(1, XDATA, add(CFA_XSP16, literal(-11)))
        CFI V2 load(1, XDATA, add(CFA_XSP16, literal(-10)))
        CFI V3 load(1, XDATA, add(CFA_XSP16, literal(-9)))
        CFI V4 load(1, XDATA, add(CFA_XSP16, literal(-8)))
        CFI V5 load(1, XDATA, add(CFA_XSP16, literal(-7)))
        CFI R7 load(1, XDATA, add(CFA_XSP16, literal(-6)))
        CFI ?RET_LOW load(1, XDATA, add(CFA_XSP16, literal(-5)))
        CFI ?RET_HIGH load(1, XDATA, add(CFA_XSP16, literal(-4)))
        CFI ?BRET_EXT load(1, XDATA, add(CFA_XSP16, literal(-3)))
        CFI DPL0 load(1, XDATA, add(CFA_XSP16, literal(-2)))
        CFI DPH0 load(1, XDATA, add(CFA_XSP16, literal(-1)))
        CFI CFA_SP SP+0
        CFI CFA_XSP16 add(XSP16, 15)
        CFI Block cfiCond254 Using cfiCommon0
        CFI (cfiCond254) NoFunction
        CFI (cfiCond254) Conditional ??CrossCallReturnLabel_20
        CFI (cfiCond254) R6 load(1, XDATA, add(CFA_XSP16, literal(-14)))
        CFI (cfiCond254) VB load(1, XDATA, add(CFA_XSP16, literal(-13)))
        CFI (cfiCond254) V0 load(1, XDATA, add(CFA_XSP16, literal(-12)))
        CFI (cfiCond254) V1 load(1, XDATA, add(CFA_XSP16, literal(-11)))
        CFI (cfiCond254) V2 load(1, XDATA, add(CFA_XSP16, literal(-10)))
        CFI (cfiCond254) V3 load(1, XDATA, add(CFA_XSP16, literal(-9)))
        CFI (cfiCond254) V4 load(1, XDATA, add(CFA_XSP16, literal(-8)))
        CFI (cfiCond254) V5 load(1, XDATA, add(CFA_XSP16, literal(-7)))
        CFI (cfiCond254) R7 load(1, XDATA, add(CFA_XSP16, literal(-6)))
        CFI (cfiCond254) ?RET_LOW load(1, XDATA, add(CFA_XSP16, literal(-5)))
        CFI (cfiCond254) ?RET_HIGH load(1, XDATA, add(CFA_XSP16, literal(-4)))
        CFI (cfiCond254) ?BRET_EXT load(1, XDATA, add(CFA_XSP16, literal(-3)))
        CFI (cfiCond254) DPL0 load(1, XDATA, add(CFA_XSP16, literal(-2)))
        CFI (cfiCond254) DPH0 load(1, XDATA, add(CFA_XSP16, literal(-1)))
        CFI (cfiCond254) CFA_SP SP+0
        CFI (cfiCond254) CFA_XSP16 add(XSP16, 24)
        CFI Block cfiPicker255 Using cfiCommon1
        CFI (cfiPicker255) NoFunction
        CFI (cfiPicker255) Picker
        ADDC    A,#0x0
        MOV     R3,A
        MOV     DPL,R2
        MOV     DPH,R3
        MOVX    A,@DPTR
        MOV     R4,A
        INC     DPTR
        MOVX    A,@DPTR
        RET
        CFI EndBlock cfiCond253
        CFI EndBlock cfiCond254
        CFI EndBlock cfiPicker255

        RSEG BANKED_CODE:CODE:NOROOT(0)
?Subroutine15:
        CFI Block cfiCond256 Using cfiCommon0
        CFI NoFunction
        CFI Conditional ??CrossCallReturnLabel_14
        CFI R6 load(1, XDATA, add(CFA_XSP16, literal(-22)))
        CFI VB load(1, XDATA, add(CFA_XSP16, literal(-21)))
        CFI V0 load(1, XDATA, add(CFA_XSP16, literal(-20)))
        CFI V1 load(1, XDATA, add(CFA_XSP16, literal(-19)))
        CFI V2 load(1, XDATA, add(CFA_XSP16, literal(-18)))
        CFI V3 load(1, XDATA, add(CFA_XSP16, literal(-17)))
        CFI V4 load(1, XDATA, add(CFA_XSP16, literal(-16)))
        CFI V5 load(1, XDATA, add(CFA_XSP16, literal(-15)))
        CFI V6 load(1, XDATA, add(CFA_XSP16, literal(-14)))
        CFI V7 load(1, XDATA, add(CFA_XSP16, literal(-13)))
        CFI V8 load(1, XDATA, add(CFA_XSP16, literal(-12)))
        CFI V9 load(1, XDATA, add(CFA_XSP16, literal(-11)))
        CFI V10 load(1, XDATA, add(CFA_XSP16, literal(-10)))
        CFI V11 load(1, XDATA, add(CFA_XSP16, literal(-9)))
        CFI V12 load(1, XDATA, add(CFA_XSP16, literal(-8)))
        CFI V13 load(1, XDATA, add(CFA_XSP16, literal(-7)))
        CFI R7 load(1, XDATA, add(CFA_XSP16, literal(-6)))
        CFI ?RET_LOW load(1, XDATA, add(CFA_XSP16, literal(-5)))
        CFI ?RET_HIGH load(1, XDATA, add(CFA_XSP16, literal(-4)))
        CFI ?BRET_EXT load(1, XDATA, add(CFA_XSP16, literal(-3)))
        CFI DPL0 load(1, XDATA, add(CFA_XSP16, literal(-2)))
        CFI DPH0 load(1, XDATA, add(CFA_XSP16, literal(-1)))
        CFI CFA_SP SP+0
        CFI CFA_XSP16 add(XSP16, 36)
        CFI Block cfiCond257 Using cfiCommon0
        CFI (cfiCond257) NoFunction
        CFI (cfiCond257) Conditional ??CrossCallReturnLabel_15
        CFI (cfiCond257) R6 load(1, XDATA, add(CFA_XSP16, literal(-14)))
        CFI (cfiCond257) VB load(1, XDATA, add(CFA_XSP16, literal(-13)))
        CFI (cfiCond257) V0 load(1, XDATA, add(CFA_XSP16, literal(-12)))
        CFI (cfiCond257) V1 load(1, XDATA, add(CFA_XSP16, literal(-11)))
        CFI (cfiCond257) V2 load(1, XDATA, add(CFA_XSP16, literal(-10)))
        CFI (cfiCond257) V3 load(1, XDATA, add(CFA_XSP16, literal(-9)))
        CFI (cfiCond257) V4 load(1, XDATA, add(CFA_XSP16, literal(-8)))
        CFI (cfiCond257) V5 load(1, XDATA, add(CFA_XSP16, literal(-7)))
        CFI (cfiCond257) R7 load(1, XDATA, add(CFA_XSP16, literal(-6)))
        CFI (cfiCond257) ?RET_LOW load(1, XDATA, add(CFA_XSP16, literal(-5)))
        CFI (cfiCond257) ?RET_HIGH load(1, XDATA, add(CFA_XSP16, literal(-4)))
        CFI (cfiCond257) ?BRET_EXT load(1, XDATA, add(CFA_XSP16, literal(-3)))
        CFI (cfiCond257) DPL0 load(1, XDATA, add(CFA_XSP16, literal(-2)))
        CFI (cfiCond257) DPH0 load(1, XDATA, add(CFA_XSP16, literal(-1)))
        CFI (cfiCond257) CFA_SP SP+0
        CFI (cfiCond257) CFA_XSP16 add(XSP16, 15)
        CFI Block cfiPicker258 Using cfiCommon1
        CFI (cfiPicker258) NoFunction
        CFI (cfiPicker258) Picker
        MOV     DPTR,#pMtAfDataReq
        MOVX    A,@DPTR
        MOV     R0,A
        INC     DPTR
        MOVX    A,@DPTR
        MOV     DPH,A
        MOV     DPL,R0
        RET
        CFI EndBlock cfiCond256
        CFI EndBlock cfiCond257
        CFI EndBlock cfiPicker258

        RSEG BANKED_CODE:CODE:NOROOT(0)
?Subroutine14:
        CFI Block cfiCond259 Using cfiCommon0
        CFI NoFunction
        CFI Conditional ??CrossCallReturnLabel_12
        CFI R6 load(1, XDATA, add(CFA_XSP16, literal(-22)))
        CFI VB load(1, XDATA, add(CFA_XSP16, literal(-21)))
        CFI V0 load(1, XDATA, add(CFA_XSP16, literal(-20)))
        CFI V1 load(1, XDATA, add(CFA_XSP16, literal(-19)))
        CFI V2 load(1, XDATA, add(CFA_XSP16, literal(-18)))
        CFI V3 load(1, XDATA, add(CFA_XSP16, literal(-17)))
        CFI V4 load(1, XDATA, add(CFA_XSP16, literal(-16)))
        CFI V5 load(1, XDATA, add(CFA_XSP16, literal(-15)))
        CFI V6 load(1, XDATA, add(CFA_XSP16, literal(-14)))
        CFI V7 load(1, XDATA, add(CFA_XSP16, literal(-13)))
        CFI V8 load(1, XDATA, add(CFA_XSP16, literal(-12)))
        CFI V9 load(1, XDATA, add(CFA_XSP16, literal(-11)))
        CFI V10 load(1, XDATA, add(CFA_XSP16, literal(-10)))
        CFI V11 load(1, XDATA, add(CFA_XSP16, literal(-9)))
        CFI V12 load(1, XDATA, add(CFA_XSP16, literal(-8)))
        CFI V13 load(1, XDATA, add(CFA_XSP16, literal(-7)))
        CFI R7 load(1, XDATA, add(CFA_XSP16, literal(-6)))
        CFI ?RET_LOW load(1, XDATA, add(CFA_XSP16, literal(-5)))
        CFI ?RET_HIGH load(1, XDATA, add(CFA_XSP16, literal(-4)))
        CFI ?BRET_EXT load(1, XDATA, add(CFA_XSP16, literal(-3)))
        CFI DPL0 load(1, XDATA, add(CFA_XSP16, literal(-2)))
        CFI DPH0 load(1, XDATA, add(CFA_XSP16, literal(-1)))
        CFI CFA_SP SP+0
        CFI CFA_XSP16 add(XSP16, 39)
        CFI Block cfiCond260 Using cfiCommon0
        CFI (cfiCond260) NoFunction
        CFI (cfiCond260) Conditional ??CrossCallReturnLabel_13
        CFI (cfiCond260) R6 load(1, XDATA, add(CFA_XSP16, literal(-14)))
        CFI (cfiCond260) VB load(1, XDATA, add(CFA_XSP16, literal(-13)))
        CFI (cfiCond260) V0 load(1, XDATA, add(CFA_XSP16, literal(-12)))
        CFI (cfiCond260) V1 load(1, XDATA, add(CFA_XSP16, literal(-11)))
        CFI (cfiCond260) V2 load(1, XDATA, add(CFA_XSP16, literal(-10)))
        CFI (cfiCond260) V3 load(1, XDATA, add(CFA_XSP16, literal(-9)))
        CFI (cfiCond260) V4 load(1, XDATA, add(CFA_XSP16, literal(-8)))
        CFI (cfiCond260) V5 load(1, XDATA, add(CFA_XSP16, literal(-7)))
        CFI (cfiCond260) R7 load(1, XDATA, add(CFA_XSP16, literal(-6)))
        CFI (cfiCond260) ?RET_LOW load(1, XDATA, add(CFA_XSP16, literal(-5)))
        CFI (cfiCond260) ?RET_HIGH load(1, XDATA, add(CFA_XSP16, literal(-4)))
        CFI (cfiCond260) ?BRET_EXT load(1, XDATA, add(CFA_XSP16, literal(-3)))
        CFI (cfiCond260) DPL0 load(1, XDATA, add(CFA_XSP16, literal(-2)))
        CFI (cfiCond260) DPH0 load(1, XDATA, add(CFA_XSP16, literal(-1)))
        CFI (cfiCond260) CFA_SP SP+0
        CFI (cfiCond260) CFA_XSP16 add(XSP16, 24)
        CFI Block cfiPicker261 Using cfiCommon1
        CFI (cfiPicker261) NoFunction
        CFI (cfiPicker261) Picker
        MOV     DPTR,#pMtAfDataReq
        MOVX    A,@DPTR
        ADD     A,#0x2
        MOV     R2,A
        INC     DPTR
        MOVX    A,@DPTR
        ADDC    A,#0x0
        MOV     R3,A
        RET
        CFI EndBlock cfiCond259
        CFI EndBlock cfiCond260
        CFI EndBlock cfiPicker261

        RSEG BANKED_CODE:CODE:NOROOT(0)
?Subroutine9:
        CFI Block cfiCond262 Using cfiCommon0
        CFI NoFunction
        CFI Conditional ??CrossCallReturnLabel_6
        CFI R6 load(1, XDATA, add(CFA_XSP16, literal(-9)))
        CFI VB load(1, XDATA, add(CFA_XSP16, literal(-8)))
        CFI V0 load(1, XDATA, add(CFA_XSP16, literal(-7)))
        CFI R7 load(1, XDATA, add(CFA_XSP16, literal(-6)))
        CFI ?RET_LOW load(1, XDATA, add(CFA_XSP16, literal(-5)))
        CFI ?RET_HIGH load(1, XDATA, add(CFA_XSP16, literal(-4)))
        CFI ?BRET_EXT load(1, XDATA, add(CFA_XSP16, literal(-3)))
        CFI DPL0 load(1, XDATA, add(CFA_XSP16, literal(-2)))
        CFI DPH0 load(1, XDATA, add(CFA_XSP16, literal(-1)))
        CFI CFA_SP SP+0
        CFI CFA_XSP16 add(XSP16, 9)
        CFI Block cfiCond263 Using cfiCommon0
        CFI (cfiCond263) NoFunction
        CFI (cfiCond263) Conditional ??CrossCallReturnLabel_7
        CFI (cfiCond263) R6 load(1, XDATA, add(CFA_XSP16, literal(-14)))
        CFI (cfiCond263) VB load(1, XDATA, add(CFA_XSP16, literal(-13)))
        CFI (cfiCond263) V0 load(1, XDATA, add(CFA_XSP16, literal(-12)))
        CFI (cfiCond263) V1 load(1, XDATA, add(CFA_XSP16, literal(-11)))
        CFI (cfiCond263) V2 load(1, XDATA, add(CFA_XSP16, literal(-10)))
        CFI (cfiCond263) V3 load(1, XDATA, add(CFA_XSP16, literal(-9)))
        CFI (cfiCond263) V4 load(1, XDATA, add(CFA_XSP16, literal(-8)))
        CFI (cfiCond263) V5 load(1, XDATA, add(CFA_XSP16, literal(-7)))
        CFI (cfiCond263) R7 load(1, XDATA, add(CFA_XSP16, literal(-6)))
        CFI (cfiCond263) ?RET_LOW load(1, XDATA, add(CFA_XSP16, literal(-5)))
        CFI (cfiCond263) ?RET_HIGH load(1, XDATA, add(CFA_XSP16, literal(-4)))
        CFI (cfiCond263) ?BRET_EXT load(1, XDATA, add(CFA_XSP16, literal(-3)))
        CFI (cfiCond263) DPL0 load(1, XDATA, add(CFA_XSP16, literal(-2)))
        CFI (cfiCond263) DPH0 load(1, XDATA, add(CFA_XSP16, literal(-1)))
        CFI (cfiCond263) CFA_SP SP+0
        CFI (cfiCond263) CFA_XSP16 add(XSP16, 15)
        CFI Block cfiPicker264 Using cfiCommon1
        CFI (cfiPicker264) NoFunction
        CFI (cfiPicker264) Picker
        MOV     DPTR,#pMtAfDataReq
        LCALL   ??Subroutine53_0 & 0xFFFF
??CrossCallReturnLabel_95:
        MOV     R3,A
        LCALL   ??osal_mem_free?relay
        MOV     DPTR,#pMtAfDataReq
        CLR     A
        MOVX    @DPTR,A
        INC     DPTR
        RET
        CFI EndBlock cfiCond262
        CFI EndBlock cfiCond263
        CFI EndBlock cfiPicker264

        RSEG BANKED_CODE:CODE:NOROOT(0)
?Subroutine6:
        CFI Block cfiCond265 Using cfiCommon0
        CFI NoFunction
        CFI Conditional ??CrossCallReturnLabel_127
        CFI R6 load(1, XDATA, add(CFA_XSP16, literal(-22)))
        CFI VB load(1, XDATA, add(CFA_XSP16, literal(-21)))
        CFI V0 load(1, XDATA, add(CFA_XSP16, literal(-20)))
        CFI V1 load(1, XDATA, add(CFA_XSP16, literal(-19)))
        CFI V2 load(1, XDATA, add(CFA_XSP16, literal(-18)))
        CFI V3 load(1, XDATA, add(CFA_XSP16, literal(-17)))
        CFI V4 load(1, XDATA, add(CFA_XSP16, literal(-16)))
        CFI V5 load(1, XDATA, add(CFA_XSP16, literal(-15)))
        CFI V6 load(1, XDATA, add(CFA_XSP16, literal(-14)))
        CFI V7 load(1, XDATA, add(CFA_XSP16, literal(-13)))
        CFI V8 load(1, XDATA, add(CFA_XSP16, literal(-12)))
        CFI V9 load(1, XDATA, add(CFA_XSP16, literal(-11)))
        CFI V10 load(1, XDATA, add(CFA_XSP16, literal(-10)))
        CFI V11 load(1, XDATA, add(CFA_XSP16, literal(-9)))
        CFI V12 load(1, XDATA, add(CFA_XSP16, literal(-8)))
        CFI V13 load(1, XDATA, add(CFA_XSP16, literal(-7)))
        CFI R7 load(1, XDATA, add(CFA_XSP16, literal(-6)))
        CFI ?RET_LOW load(1, XDATA, add(CFA_XSP16, literal(-5)))
        CFI ?RET_HIGH load(1, XDATA, add(CFA_XSP16, literal(-4)))
        CFI ?BRET_EXT load(1, XDATA, add(CFA_XSP16, literal(-3)))
        CFI DPL0 load(1, XDATA, add(CFA_XSP16, literal(-2)))
        CFI DPH0 load(1, XDATA, add(CFA_XSP16, literal(-1)))
        CFI CFA_SP SP+0
        CFI CFA_XSP16 add(XSP16, 36)
        CFI Block cfiCond266 Using cfiCommon0
        CFI (cfiCond266) NoFunction
        CFI (cfiCond266) Conditional ??CrossCallReturnLabel_128
        CFI (cfiCond266) R6 load(1, XDATA, add(CFA_XSP16, literal(-14)))
        CFI (cfiCond266) VB load(1, XDATA, add(CFA_XSP16, literal(-13)))
        CFI (cfiCond266) V0 load(1, XDATA, add(CFA_XSP16, literal(-12)))
        CFI (cfiCond266) V1 load(1, XDATA, add(CFA_XSP16, literal(-11)))
        CFI (cfiCond266) V2 load(1, XDATA, add(CFA_XSP16, literal(-10)))
        CFI (cfiCond266) V3 load(1, XDATA, add(CFA_XSP16, literal(-9)))
        CFI (cfiCond266) V4 load(1, XDATA, add(CFA_XSP16, literal(-8)))
        CFI (cfiCond266) V5 load(1, XDATA, add(CFA_XSP16, literal(-7)))
        CFI (cfiCond266) R7 load(1, XDATA, add(CFA_XSP16, literal(-6)))
        CFI (cfiCond266) ?RET_LOW load(1, XDATA, add(CFA_XSP16, literal(-5)))
        CFI (cfiCond266) ?RET_HIGH load(1, XDATA, add(CFA_XSP16, literal(-4)))
        CFI (cfiCond266) ?BRET_EXT load(1, XDATA, add(CFA_XSP16, literal(-3)))
        CFI (cfiCond266) DPL0 load(1, XDATA, add(CFA_XSP16, literal(-2)))
        CFI (cfiCond266) DPH0 load(1, XDATA, add(CFA_XSP16, literal(-1)))
        CFI (cfiCond266) CFA_SP SP+0
        CFI (cfiCond266) CFA_XSP16 add(XSP16, 22)
        CFI Block cfiPicker267 Using cfiCommon1
        CFI (cfiPicker267) NoFunction
        CFI (cfiPicker267) Picker
        MOV     DPTR,#pMtAfDataReq
        MOVX    A,@DPTR
        ADD     A,#0x10
        CFI EndBlock cfiCond265
        CFI EndBlock cfiCond266
        CFI EndBlock cfiPicker267
        REQUIRE ??Subroutine57_0
        ; // Fall through to label ??Subroutine57_0

        RSEG BANKED_CODE:CODE:NOROOT(0)
??Subroutine57_0:
        CFI Block cfiCond268 Using cfiCommon0
        CFI NoFunction
        CFI Conditional ??CrossCallReturnLabel_120
        CFI R6 load(1, XDATA, add(CFA_XSP16, literal(-22)))
        CFI VB load(1, XDATA, add(CFA_XSP16, literal(-21)))
        CFI V0 load(1, XDATA, add(CFA_XSP16, literal(-20)))
        CFI V1 load(1, XDATA, add(CFA_XSP16, literal(-19)))
        CFI V2 load(1, XDATA, add(CFA_XSP16, literal(-18)))
        CFI V3 load(1, XDATA, add(CFA_XSP16, literal(-17)))
        CFI V4 load(1, XDATA, add(CFA_XSP16, literal(-16)))
        CFI V5 load(1, XDATA, add(CFA_XSP16, literal(-15)))
        CFI V6 load(1, XDATA, add(CFA_XSP16, literal(-14)))
        CFI V7 load(1, XDATA, add(CFA_XSP16, literal(-13)))
        CFI V8 load(1, XDATA, add(CFA_XSP16, literal(-12)))
        CFI V9 load(1, XDATA, add(CFA_XSP16, literal(-11)))
        CFI V10 load(1, XDATA, add(CFA_XSP16, literal(-10)))
        CFI V11 load(1, XDATA, add(CFA_XSP16, literal(-9)))
        CFI V12 load(1, XDATA, add(CFA_XSP16, literal(-8)))
        CFI V13 load(1, XDATA, add(CFA_XSP16, literal(-7)))
        CFI R7 load(1, XDATA, add(CFA_XSP16, literal(-6)))
        CFI ?RET_LOW load(1, XDATA, add(CFA_XSP16, literal(-5)))
        CFI ?RET_HIGH load(1, XDATA, add(CFA_XSP16, literal(-4)))
        CFI ?BRET_EXT load(1, XDATA, add(CFA_XSP16, literal(-3)))
        CFI DPL0 load(1, XDATA, add(CFA_XSP16, literal(-2)))
        CFI DPH0 load(1, XDATA, add(CFA_XSP16, literal(-1)))
        CFI CFA_SP SP+0
        CFI CFA_XSP16 add(XSP16, 36)
        CFI Block cfiCond269 Using cfiCommon0
        CFI (cfiCond269) NoFunction
        CFI (cfiCond269) Conditional ??CrossCallReturnLabel_121
        CFI (cfiCond269) R6 load(1, XDATA, add(CFA_XSP16, literal(-22)))
        CFI (cfiCond269) VB load(1, XDATA, add(CFA_XSP16, literal(-21)))
        CFI (cfiCond269) V0 load(1, XDATA, add(CFA_XSP16, literal(-20)))
        CFI (cfiCond269) V1 load(1, XDATA, add(CFA_XSP16, literal(-19)))
        CFI (cfiCond269) V2 load(1, XDATA, add(CFA_XSP16, literal(-18)))
        CFI (cfiCond269) V3 load(1, XDATA, add(CFA_XSP16, literal(-17)))
        CFI (cfiCond269) V4 load(1, XDATA, add(CFA_XSP16, literal(-16)))
        CFI (cfiCond269) V5 load(1, XDATA, add(CFA_XSP16, literal(-15)))
        CFI (cfiCond269) V6 load(1, XDATA, add(CFA_XSP16, literal(-14)))
        CFI (cfiCond269) V7 load(1, XDATA, add(CFA_XSP16, literal(-13)))
        CFI (cfiCond269) V8 load(1, XDATA, add(CFA_XSP16, literal(-12)))
        CFI (cfiCond269) V9 load(1, XDATA, add(CFA_XSP16, literal(-11)))
        CFI (cfiCond269) V10 load(1, XDATA, add(CFA_XSP16, literal(-10)))
        CFI (cfiCond269) V11 load(1, XDATA, add(CFA_XSP16, literal(-9)))
        CFI (cfiCond269) V12 load(1, XDATA, add(CFA_XSP16, literal(-8)))
        CFI (cfiCond269) V13 load(1, XDATA, add(CFA_XSP16, literal(-7)))
        CFI (cfiCond269) R7 load(1, XDATA, add(CFA_XSP16, literal(-6)))
        CFI (cfiCond269) ?RET_LOW load(1, XDATA, add(CFA_XSP16, literal(-5)))
        CFI (cfiCond269) ?RET_HIGH load(1, XDATA, add(CFA_XSP16, literal(-4)))
        CFI (cfiCond269) ?BRET_EXT load(1, XDATA, add(CFA_XSP16, literal(-3)))
        CFI (cfiCond269) DPL0 load(1, XDATA, add(CFA_XSP16, literal(-2)))
        CFI (cfiCond269) DPH0 load(1, XDATA, add(CFA_XSP16, literal(-1)))
        CFI (cfiCond269) CFA_SP SP+0
        CFI (cfiCond269) CFA_XSP16 add(XSP16, 36)
        CFI Block cfiCond270 Using cfiCommon0
        CFI (cfiCond270) NoFunction
        CFI (cfiCond270) Conditional ??CrossCallReturnLabel_122
        CFI (cfiCond270) R6 load(1, XDATA, add(CFA_XSP16, literal(-22)))
        CFI (cfiCond270) VB load(1, XDATA, add(CFA_XSP16, literal(-21)))
        CFI (cfiCond270) V0 load(1, XDATA, add(CFA_XSP16, literal(-20)))
        CFI (cfiCond270) V1 load(1, XDATA, add(CFA_XSP16, literal(-19)))
        CFI (cfiCond270) V2 load(1, XDATA, add(CFA_XSP16, literal(-18)))
        CFI (cfiCond270) V3 load(1, XDATA, add(CFA_XSP16, literal(-17)))
        CFI (cfiCond270) V4 load(1, XDATA, add(CFA_XSP16, literal(-16)))
        CFI (cfiCond270) V5 load(1, XDATA, add(CFA_XSP16, literal(-15)))
        CFI (cfiCond270) V6 load(1, XDATA, add(CFA_XSP16, literal(-14)))
        CFI (cfiCond270) V7 load(1, XDATA, add(CFA_XSP16, literal(-13)))
        CFI (cfiCond270) V8 load(1, XDATA, add(CFA_XSP16, literal(-12)))
        CFI (cfiCond270) V9 load(1, XDATA, add(CFA_XSP16, literal(-11)))
        CFI (cfiCond270) V10 load(1, XDATA, add(CFA_XSP16, literal(-10)))
        CFI (cfiCond270) V11 load(1, XDATA, add(CFA_XSP16, literal(-9)))
        CFI (cfiCond270) V12 load(1, XDATA, add(CFA_XSP16, literal(-8)))
        CFI (cfiCond270) V13 load(1, XDATA, add(CFA_XSP16, literal(-7)))
        CFI (cfiCond270) R7 load(1, XDATA, add(CFA_XSP16, literal(-6)))
        CFI (cfiCond270) ?RET_LOW load(1, XDATA, add(CFA_XSP16, literal(-5)))
        CFI (cfiCond270) ?RET_HIGH load(1, XDATA, add(CFA_XSP16, literal(-4)))
        CFI (cfiCond270) ?BRET_EXT load(1, XDATA, add(CFA_XSP16, literal(-3)))
        CFI (cfiCond270) DPL0 load(1, XDATA, add(CFA_XSP16, literal(-2)))
        CFI (cfiCond270) DPH0 load(1, XDATA, add(CFA_XSP16, literal(-1)))
        CFI (cfiCond270) CFA_SP SP+-1
        CFI (cfiCond270) CFA_XSP16 add(XSP16, 36)
        CFI Block cfiCond271 Using cfiCommon0
        CFI (cfiCond271) NoFunction
        CFI (cfiCond271) Conditional ??CrossCallReturnLabel_123
        CFI (cfiCond271) R6 load(1, XDATA, add(CFA_XSP16, literal(-22)))
        CFI (cfiCond271) VB load(1, XDATA, add(CFA_XSP16, literal(-21)))
        CFI (cfiCond271) V0 load(1, XDATA, add(CFA_XSP16, literal(-20)))
        CFI (cfiCond271) V1 load(1, XDATA, add(CFA_XSP16, literal(-19)))
        CFI (cfiCond271) V2 load(1, XDATA, add(CFA_XSP16, literal(-18)))
        CFI (cfiCond271) V3 load(1, XDATA, add(CFA_XSP16, literal(-17)))
        CFI (cfiCond271) V4 load(1, XDATA, add(CFA_XSP16, literal(-16)))
        CFI (cfiCond271) V5 load(1, XDATA, add(CFA_XSP16, literal(-15)))
        CFI (cfiCond271) V6 load(1, XDATA, add(CFA_XSP16, literal(-14)))
        CFI (cfiCond271) V7 load(1, XDATA, add(CFA_XSP16, literal(-13)))
        CFI (cfiCond271) V8 load(1, XDATA, add(CFA_XSP16, literal(-12)))
        CFI (cfiCond271) V9 load(1, XDATA, add(CFA_XSP16, literal(-11)))
        CFI (cfiCond271) V10 load(1, XDATA, add(CFA_XSP16, literal(-10)))
        CFI (cfiCond271) V11 load(1, XDATA, add(CFA_XSP16, literal(-9)))
        CFI (cfiCond271) V12 load(1, XDATA, add(CFA_XSP16, literal(-8)))
        CFI (cfiCond271) V13 load(1, XDATA, add(CFA_XSP16, literal(-7)))
        CFI (cfiCond271) R7 load(1, XDATA, add(CFA_XSP16, literal(-6)))
        CFI (cfiCond271) ?RET_LOW load(1, XDATA, add(CFA_XSP16, literal(-5)))
        CFI (cfiCond271) ?RET_HIGH load(1, XDATA, add(CFA_XSP16, literal(-4)))
        CFI (cfiCond271) ?BRET_EXT load(1, XDATA, add(CFA_XSP16, literal(-3)))
        CFI (cfiCond271) DPL0 load(1, XDATA, add(CFA_XSP16, literal(-2)))
        CFI (cfiCond271) DPH0 load(1, XDATA, add(CFA_XSP16, literal(-1)))
        CFI (cfiCond271) CFA_SP SP+0
        CFI (cfiCond271) CFA_XSP16 add(XSP16, 36)
        CFI Block cfiCond272 Using cfiCommon0
        CFI (cfiCond272) NoFunction
        CFI (cfiCond272) Conditional ??CrossCallReturnLabel_124
        CFI (cfiCond272) R6 load(1, XDATA, add(CFA_XSP16, literal(-22)))
        CFI (cfiCond272) VB load(1, XDATA, add(CFA_XSP16, literal(-21)))
        CFI (cfiCond272) V0 load(1, XDATA, add(CFA_XSP16, literal(-20)))
        CFI (cfiCond272) V1 load(1, XDATA, add(CFA_XSP16, literal(-19)))
        CFI (cfiCond272) V2 load(1, XDATA, add(CFA_XSP16, literal(-18)))
        CFI (cfiCond272) V3 load(1, XDATA, add(CFA_XSP16, literal(-17)))
        CFI (cfiCond272) V4 load(1, XDATA, add(CFA_XSP16, literal(-16)))
        CFI (cfiCond272) V5 load(1, XDATA, add(CFA_XSP16, literal(-15)))
        CFI (cfiCond272) V6 load(1, XDATA, add(CFA_XSP16, literal(-14)))
        CFI (cfiCond272) V7 load(1, XDATA, add(CFA_XSP16, literal(-13)))
        CFI (cfiCond272) V8 load(1, XDATA, add(CFA_XSP16, literal(-12)))
        CFI (cfiCond272) V9 load(1, XDATA, add(CFA_XSP16, literal(-11)))
        CFI (cfiCond272) V10 load(1, XDATA, add(CFA_XSP16, literal(-10)))
        CFI (cfiCond272) V11 load(1, XDATA, add(CFA_XSP16, literal(-9)))
        CFI (cfiCond272) V12 load(1, XDATA, add(CFA_XSP16, literal(-8)))
        CFI (cfiCond272) V13 load(1, XDATA, add(CFA_XSP16, literal(-7)))
        CFI (cfiCond272) R7 load(1, XDATA, add(CFA_XSP16, literal(-6)))
        CFI (cfiCond272) ?RET_LOW load(1, XDATA, add(CFA_XSP16, literal(-5)))
        CFI (cfiCond272) ?RET_HIGH load(1, XDATA, add(CFA_XSP16, literal(-4)))
        CFI (cfiCond272) ?BRET_EXT load(1, XDATA, add(CFA_XSP16, literal(-3)))
        CFI (cfiCond272) DPL0 load(1, XDATA, add(CFA_XSP16, literal(-2)))
        CFI (cfiCond272) DPH0 load(1, XDATA, add(CFA_XSP16, literal(-1)))
        CFI (cfiCond272) CFA_SP SP+0
        CFI (cfiCond272) CFA_XSP16 add(XSP16, 36)
        CFI Block cfiCond273 Using cfiCommon0
        CFI (cfiCond273) NoFunction
        CFI (cfiCond273) Conditional ??CrossCallReturnLabel_125
        CFI (cfiCond273) R6 load(1, XDATA, add(CFA_XSP16, literal(-22)))
        CFI (cfiCond273) VB load(1, XDATA, add(CFA_XSP16, literal(-21)))
        CFI (cfiCond273) V0 load(1, XDATA, add(CFA_XSP16, literal(-20)))
        CFI (cfiCond273) V1 load(1, XDATA, add(CFA_XSP16, literal(-19)))
        CFI (cfiCond273) V2 load(1, XDATA, add(CFA_XSP16, literal(-18)))
        CFI (cfiCond273) V3 load(1, XDATA, add(CFA_XSP16, literal(-17)))
        CFI (cfiCond273) V4 load(1, XDATA, add(CFA_XSP16, literal(-16)))
        CFI (cfiCond273) V5 load(1, XDATA, add(CFA_XSP16, literal(-15)))
        CFI (cfiCond273) V6 load(1, XDATA, add(CFA_XSP16, literal(-14)))
        CFI (cfiCond273) V7 load(1, XDATA, add(CFA_XSP16, literal(-13)))
        CFI (cfiCond273) V8 load(1, XDATA, add(CFA_XSP16, literal(-12)))
        CFI (cfiCond273) V9 load(1, XDATA, add(CFA_XSP16, literal(-11)))
        CFI (cfiCond273) V10 load(1, XDATA, add(CFA_XSP16, literal(-10)))
        CFI (cfiCond273) V11 load(1, XDATA, add(CFA_XSP16, literal(-9)))
        CFI (cfiCond273) V12 load(1, XDATA, add(CFA_XSP16, literal(-8)))
        CFI (cfiCond273) V13 load(1, XDATA, add(CFA_XSP16, literal(-7)))
        CFI (cfiCond273) R7 load(1, XDATA, add(CFA_XSP16, literal(-6)))
        CFI (cfiCond273) ?RET_LOW load(1, XDATA, add(CFA_XSP16, literal(-5)))
        CFI (cfiCond273) ?RET_HIGH load(1, XDATA, add(CFA_XSP16, literal(-4)))
        CFI (cfiCond273) ?BRET_EXT load(1, XDATA, add(CFA_XSP16, literal(-3)))
        CFI (cfiCond273) DPL0 load(1, XDATA, add(CFA_XSP16, literal(-2)))
        CFI (cfiCond273) DPH0 load(1, XDATA, add(CFA_XSP16, literal(-1)))
        CFI (cfiCond273) CFA_SP SP+0
        CFI (cfiCond273) CFA_XSP16 add(XSP16, 36)
        CFI Block cfiCond274 Using cfiCommon0
        CFI (cfiCond274) NoFunction
        CFI (cfiCond274) Conditional ??CrossCallReturnLabel_126
        CFI (cfiCond274) R6 load(1, XDATA, add(CFA_XSP16, literal(-14)))
        CFI (cfiCond274) VB load(1, XDATA, add(CFA_XSP16, literal(-13)))
        CFI (cfiCond274) V0 load(1, XDATA, add(CFA_XSP16, literal(-12)))
        CFI (cfiCond274) V1 load(1, XDATA, add(CFA_XSP16, literal(-11)))
        CFI (cfiCond274) V2 load(1, XDATA, add(CFA_XSP16, literal(-10)))
        CFI (cfiCond274) V3 load(1, XDATA, add(CFA_XSP16, literal(-9)))
        CFI (cfiCond274) V4 load(1, XDATA, add(CFA_XSP16, literal(-8)))
        CFI (cfiCond274) V5 load(1, XDATA, add(CFA_XSP16, literal(-7)))
        CFI (cfiCond274) R7 load(1, XDATA, add(CFA_XSP16, literal(-6)))
        CFI (cfiCond274) ?RET_LOW load(1, XDATA, add(CFA_XSP16, literal(-5)))
        CFI (cfiCond274) ?RET_HIGH load(1, XDATA, add(CFA_XSP16, literal(-4)))
        CFI (cfiCond274) ?BRET_EXT load(1, XDATA, add(CFA_XSP16, literal(-3)))
        CFI (cfiCond274) DPL0 load(1, XDATA, add(CFA_XSP16, literal(-2)))
        CFI (cfiCond274) DPH0 load(1, XDATA, add(CFA_XSP16, literal(-1)))
        CFI (cfiCond274) CFA_SP SP+0
        CFI (cfiCond274) CFA_XSP16 add(XSP16, 20)
        CFI Block cfiCond275 Using cfiCommon0
        CFI (cfiCond275) NoFunction
        CFI (cfiCond275) Conditional ??CrossCallReturnLabel_127
        CFI (cfiCond275) R6 load(1, XDATA, add(CFA_XSP16, literal(-22)))
        CFI (cfiCond275) VB load(1, XDATA, add(CFA_XSP16, literal(-21)))
        CFI (cfiCond275) V0 load(1, XDATA, add(CFA_XSP16, literal(-20)))
        CFI (cfiCond275) V1 load(1, XDATA, add(CFA_XSP16, literal(-19)))
        CFI (cfiCond275) V2 load(1, XDATA, add(CFA_XSP16, literal(-18)))
        CFI (cfiCond275) V3 load(1, XDATA, add(CFA_XSP16, literal(-17)))
        CFI (cfiCond275) V4 load(1, XDATA, add(CFA_XSP16, literal(-16)))
        CFI (cfiCond275) V5 load(1, XDATA, add(CFA_XSP16, literal(-15)))
        CFI (cfiCond275) V6 load(1, XDATA, add(CFA_XSP16, literal(-14)))
        CFI (cfiCond275) V7 load(1, XDATA, add(CFA_XSP16, literal(-13)))
        CFI (cfiCond275) V8 load(1, XDATA, add(CFA_XSP16, literal(-12)))
        CFI (cfiCond275) V9 load(1, XDATA, add(CFA_XSP16, literal(-11)))
        CFI (cfiCond275) V10 load(1, XDATA, add(CFA_XSP16, literal(-10)))
        CFI (cfiCond275) V11 load(1, XDATA, add(CFA_XSP16, literal(-9)))
        CFI (cfiCond275) V12 load(1, XDATA, add(CFA_XSP16, literal(-8)))
        CFI (cfiCond275) V13 load(1, XDATA, add(CFA_XSP16, literal(-7)))
        CFI (cfiCond275) R7 load(1, XDATA, add(CFA_XSP16, literal(-6)))
        CFI (cfiCond275) ?RET_LOW load(1, XDATA, add(CFA_XSP16, literal(-5)))
        CFI (cfiCond275) ?RET_HIGH load(1, XDATA, add(CFA_XSP16, literal(-4)))
        CFI (cfiCond275) ?BRET_EXT load(1, XDATA, add(CFA_XSP16, literal(-3)))
        CFI (cfiCond275) DPL0 load(1, XDATA, add(CFA_XSP16, literal(-2)))
        CFI (cfiCond275) DPH0 load(1, XDATA, add(CFA_XSP16, literal(-1)))
        CFI (cfiCond275) CFA_SP SP+0
        CFI (cfiCond275) CFA_XSP16 add(XSP16, 36)
        CFI Block cfiCond276 Using cfiCommon0
        CFI (cfiCond276) NoFunction
        CFI (cfiCond276) Conditional ??CrossCallReturnLabel_128
        CFI (cfiCond276) R6 load(1, XDATA, add(CFA_XSP16, literal(-14)))
        CFI (cfiCond276) VB load(1, XDATA, add(CFA_XSP16, literal(-13)))
        CFI (cfiCond276) V0 load(1, XDATA, add(CFA_XSP16, literal(-12)))
        CFI (cfiCond276) V1 load(1, XDATA, add(CFA_XSP16, literal(-11)))
        CFI (cfiCond276) V2 load(1, XDATA, add(CFA_XSP16, literal(-10)))
        CFI (cfiCond276) V3 load(1, XDATA, add(CFA_XSP16, literal(-9)))
        CFI (cfiCond276) V4 load(1, XDATA, add(CFA_XSP16, literal(-8)))
        CFI (cfiCond276) V5 load(1, XDATA, add(CFA_XSP16, literal(-7)))
        CFI (cfiCond276) R7 load(1, XDATA, add(CFA_XSP16, literal(-6)))
        CFI (cfiCond276) ?RET_LOW load(1, XDATA, add(CFA_XSP16, literal(-5)))
        CFI (cfiCond276) ?RET_HIGH load(1, XDATA, add(CFA_XSP16, literal(-4)))
        CFI (cfiCond276) ?BRET_EXT load(1, XDATA, add(CFA_XSP16, literal(-3)))
        CFI (cfiCond276) DPL0 load(1, XDATA, add(CFA_XSP16, literal(-2)))
        CFI (cfiCond276) DPH0 load(1, XDATA, add(CFA_XSP16, literal(-1)))
        CFI (cfiCond276) CFA_SP SP+0
        CFI (cfiCond276) CFA_XSP16 add(XSP16, 22)
        CFI Block cfiPicker277 Using cfiCommon1
        CFI (cfiPicker277) NoFunction
        CFI (cfiPicker277) Picker
        LCALL   ?Subroutine38 & 0xFFFF
??CrossCallReturnLabel_130:
        RET
        CFI EndBlock cfiCond268
        CFI EndBlock cfiCond269
        CFI EndBlock cfiCond270
        CFI EndBlock cfiCond271
        CFI EndBlock cfiCond272
        CFI EndBlock cfiCond273
        CFI EndBlock cfiCond274
        CFI EndBlock cfiCond275
        CFI EndBlock cfiCond276
        CFI EndBlock cfiPicker277

        RSEG BANKED_CODE:CODE:NOROOT(0)
?Subroutine38:
        CFI Block cfiCond278 Using cfiCommon0
        CFI NoFunction
        CFI Conditional ??CrossCallReturnLabel_129, ??CrossCallReturnLabel_61
        CFI R6 load(1, XDATA, add(CFA_XSP16, literal(-9)))
        CFI VB load(1, XDATA, add(CFA_XSP16, literal(-8)))
        CFI V0 load(1, XDATA, add(CFA_XSP16, literal(-7)))
        CFI R7 load(1, XDATA, add(CFA_XSP16, literal(-6)))
        CFI ?RET_LOW load(1, XDATA, add(CFA_XSP16, literal(-5)))
        CFI ?RET_HIGH load(1, XDATA, add(CFA_XSP16, literal(-4)))
        CFI ?BRET_EXT load(1, XDATA, add(CFA_XSP16, literal(-3)))
        CFI DPL0 load(1, XDATA, add(CFA_XSP16, literal(-2)))
        CFI DPH0 load(1, XDATA, add(CFA_XSP16, literal(-1)))
        CFI CFA_SP SP+0
        CFI CFA_XSP16 add(XSP16, 9)
        CFI Block cfiCond279 Using cfiCommon0
        CFI (cfiCond279) NoFunction
        CFI (cfiCond279) Conditional ??CrossCallReturnLabel_129, ??CrossCallReturnLabel_62
        CFI (cfiCond279) R6 load(1, XDATA, add(CFA_XSP16, literal(-9)))
        CFI (cfiCond279) VB load(1, XDATA, add(CFA_XSP16, literal(-8)))
        CFI (cfiCond279) V0 load(1, XDATA, add(CFA_XSP16, literal(-7)))
        CFI (cfiCond279) R7 load(1, XDATA, add(CFA_XSP16, literal(-6)))
        CFI (cfiCond279) ?RET_LOW load(1, XDATA, add(CFA_XSP16, literal(-5)))
        CFI (cfiCond279) ?RET_HIGH load(1, XDATA, add(CFA_XSP16, literal(-4)))
        CFI (cfiCond279) ?BRET_EXT load(1, XDATA, add(CFA_XSP16, literal(-3)))
        CFI (cfiCond279) DPL0 load(1, XDATA, add(CFA_XSP16, literal(-2)))
        CFI (cfiCond279) DPH0 load(1, XDATA, add(CFA_XSP16, literal(-1)))
        CFI (cfiCond279) CFA_SP SP+0
        CFI (cfiCond279) CFA_XSP16 add(XSP16, 9)
        CFI Block cfiCond280 Using cfiCommon0
        CFI (cfiCond280) NoFunction
        CFI (cfiCond280) Conditional ??CrossCallReturnLabel_129, ??CrossCallReturnLabel_59
        CFI (cfiCond280) R6 load(1, XDATA, add(CFA_XSP16, literal(-14)))
        CFI (cfiCond280) VB load(1, XDATA, add(CFA_XSP16, literal(-13)))
        CFI (cfiCond280) V0 load(1, XDATA, add(CFA_XSP16, literal(-12)))
        CFI (cfiCond280) V1 load(1, XDATA, add(CFA_XSP16, literal(-11)))
        CFI (cfiCond280) V2 load(1, XDATA, add(CFA_XSP16, literal(-10)))
        CFI (cfiCond280) V3 load(1, XDATA, add(CFA_XSP16, literal(-9)))
        CFI (cfiCond280) V4 load(1, XDATA, add(CFA_XSP16, literal(-8)))
        CFI (cfiCond280) V5 load(1, XDATA, add(CFA_XSP16, literal(-7)))
        CFI (cfiCond280) R7 load(1, XDATA, add(CFA_XSP16, literal(-6)))
        CFI (cfiCond280) ?RET_LOW load(1, XDATA, add(CFA_XSP16, literal(-5)))
        CFI (cfiCond280) ?RET_HIGH load(1, XDATA, add(CFA_XSP16, literal(-4)))
        CFI (cfiCond280) ?BRET_EXT load(1, XDATA, add(CFA_XSP16, literal(-3)))
        CFI (cfiCond280) DPL0 load(1, XDATA, add(CFA_XSP16, literal(-2)))
        CFI (cfiCond280) DPH0 load(1, XDATA, add(CFA_XSP16, literal(-1)))
        CFI (cfiCond280) CFA_SP SP+0
        CFI (cfiCond280) CFA_XSP16 add(XSP16, 15)
        CFI Block cfiCond281 Using cfiCommon0
        CFI (cfiCond281) NoFunction
        CFI (cfiCond281) Conditional ??CrossCallReturnLabel_129, ??CrossCallReturnLabel_60
        CFI (cfiCond281) R6 load(1, XDATA, add(CFA_XSP16, literal(-14)))
        CFI (cfiCond281) VB load(1, XDATA, add(CFA_XSP16, literal(-13)))
        CFI (cfiCond281) V0 load(1, XDATA, add(CFA_XSP16, literal(-12)))
        CFI (cfiCond281) V1 load(1, XDATA, add(CFA_XSP16, literal(-11)))
        CFI (cfiCond281) V2 load(1, XDATA, add(CFA_XSP16, literal(-10)))
        CFI (cfiCond281) V3 load(1, XDATA, add(CFA_XSP16, literal(-9)))
        CFI (cfiCond281) V4 load(1, XDATA, add(CFA_XSP16, literal(-8)))
        CFI (cfiCond281) V5 load(1, XDATA, add(CFA_XSP16, literal(-7)))
        CFI (cfiCond281) R7 load(1, XDATA, add(CFA_XSP16, literal(-6)))
        CFI (cfiCond281) ?RET_LOW load(1, XDATA, add(CFA_XSP16, literal(-5)))
        CFI (cfiCond281) ?RET_HIGH load(1, XDATA, add(CFA_XSP16, literal(-4)))
        CFI (cfiCond281) ?BRET_EXT load(1, XDATA, add(CFA_XSP16, literal(-3)))
        CFI (cfiCond281) DPL0 load(1, XDATA, add(CFA_XSP16, literal(-2)))
        CFI (cfiCond281) DPH0 load(1, XDATA, add(CFA_XSP16, literal(-1)))
        CFI (cfiCond281) CFA_SP SP+0
        CFI (cfiCond281) CFA_XSP16 add(XSP16, 24)
        CFI Block cfiCond282 Using cfiCommon0
        CFI (cfiCond282) NoFunction
        CFI (cfiCond282) Conditional ??CrossCallReturnLabel_130, ??CrossCallReturnLabel_127
        CFI (cfiCond282) R6 load(1, XDATA, add(CFA_XSP16, literal(-22)))
        CFI (cfiCond282) VB load(1, XDATA, add(CFA_XSP16, literal(-21)))
        CFI (cfiCond282) V0 load(1, XDATA, add(CFA_XSP16, literal(-20)))
        CFI (cfiCond282) V1 load(1, XDATA, add(CFA_XSP16, literal(-19)))
        CFI (cfiCond282) V2 load(1, XDATA, add(CFA_XSP16, literal(-18)))
        CFI (cfiCond282) V3 load(1, XDATA, add(CFA_XSP16, literal(-17)))
        CFI (cfiCond282) V4 load(1, XDATA, add(CFA_XSP16, literal(-16)))
        CFI (cfiCond282) V5 load(1, XDATA, add(CFA_XSP16, literal(-15)))
        CFI (cfiCond282) V6 load(1, XDATA, add(CFA_XSP16, literal(-14)))
        CFI (cfiCond282) V7 load(1, XDATA, add(CFA_XSP16, literal(-13)))
        CFI (cfiCond282) V8 load(1, XDATA, add(CFA_XSP16, literal(-12)))
        CFI (cfiCond282) V9 load(1, XDATA, add(CFA_XSP16, literal(-11)))
        CFI (cfiCond282) V10 load(1, XDATA, add(CFA_XSP16, literal(-10)))
        CFI (cfiCond282) V11 load(1, XDATA, add(CFA_XSP16, literal(-9)))
        CFI (cfiCond282) V12 load(1, XDATA, add(CFA_XSP16, literal(-8)))
        CFI (cfiCond282) V13 load(1, XDATA, add(CFA_XSP16, literal(-7)))
        CFI (cfiCond282) R7 load(1, XDATA, add(CFA_XSP16, literal(-6)))
        CFI (cfiCond282) ?RET_LOW load(1, XDATA, add(CFA_XSP16, literal(-5)))
        CFI (cfiCond282) ?RET_HIGH load(1, XDATA, add(CFA_XSP16, literal(-4)))
        CFI (cfiCond282) ?BRET_EXT load(1, XDATA, add(CFA_XSP16, literal(-3)))
        CFI (cfiCond282) DPL0 load(1, XDATA, add(CFA_XSP16, literal(-2)))
        CFI (cfiCond282) DPH0 load(1, XDATA, add(CFA_XSP16, literal(-1)))
        CFI (cfiCond282) CFA_SP SP+0
        CFI (cfiCond282) CFA_XSP16 add(XSP16, 36)
        CFI Block cfiCond283 Using cfiCommon0
        CFI (cfiCond283) NoFunction
        CFI (cfiCond283) Conditional ??CrossCallReturnLabel_130, ??CrossCallReturnLabel_128
        CFI (cfiCond283) R6 load(1, XDATA, add(CFA_XSP16, literal(-14)))
        CFI (cfiCond283) VB load(1, XDATA, add(CFA_XSP16, literal(-13)))
        CFI (cfiCond283) V0 load(1, XDATA, add(CFA_XSP16, literal(-12)))
        CFI (cfiCond283) V1 load(1, XDATA, add(CFA_XSP16, literal(-11)))
        CFI (cfiCond283) V2 load(1, XDATA, add(CFA_XSP16, literal(-10)))
        CFI (cfiCond283) V3 load(1, XDATA, add(CFA_XSP16, literal(-9)))
        CFI (cfiCond283) V4 load(1, XDATA, add(CFA_XSP16, literal(-8)))
        CFI (cfiCond283) V5 load(1, XDATA, add(CFA_XSP16, literal(-7)))
        CFI (cfiCond283) R7 load(1, XDATA, add(CFA_XSP16, literal(-6)))
        CFI (cfiCond283) ?RET_LOW load(1, XDATA, add(CFA_XSP16, literal(-5)))
        CFI (cfiCond283) ?RET_HIGH load(1, XDATA, add(CFA_XSP16, literal(-4)))
        CFI (cfiCond283) ?BRET_EXT load(1, XDATA, add(CFA_XSP16, literal(-3)))
        CFI (cfiCond283) DPL0 load(1, XDATA, add(CFA_XSP16, literal(-2)))
        CFI (cfiCond283) DPH0 load(1, XDATA, add(CFA_XSP16, literal(-1)))
        CFI (cfiCond283) CFA_SP SP+0
        CFI (cfiCond283) CFA_XSP16 add(XSP16, 22)
        CFI Block cfiCond284 Using cfiCommon0
        CFI (cfiCond284) NoFunction
        CFI (cfiCond284) Conditional ??CrossCallReturnLabel_130, ??CrossCallReturnLabel_120
        CFI (cfiCond284) R6 load(1, XDATA, add(CFA_XSP16, literal(-22)))
        CFI (cfiCond284) VB load(1, XDATA, add(CFA_XSP16, literal(-21)))
        CFI (cfiCond284) V0 load(1, XDATA, add(CFA_XSP16, literal(-20)))
        CFI (cfiCond284) V1 load(1, XDATA, add(CFA_XSP16, literal(-19)))
        CFI (cfiCond284) V2 load(1, XDATA, add(CFA_XSP16, literal(-18)))
        CFI (cfiCond284) V3 load(1, XDATA, add(CFA_XSP16, literal(-17)))
        CFI (cfiCond284) V4 load(1, XDATA, add(CFA_XSP16, literal(-16)))
        CFI (cfiCond284) V5 load(1, XDATA, add(CFA_XSP16, literal(-15)))
        CFI (cfiCond284) V6 load(1, XDATA, add(CFA_XSP16, literal(-14)))
        CFI (cfiCond284) V7 load(1, XDATA, add(CFA_XSP16, literal(-13)))
        CFI (cfiCond284) V8 load(1, XDATA, add(CFA_XSP16, literal(-12)))
        CFI (cfiCond284) V9 load(1, XDATA, add(CFA_XSP16, literal(-11)))
        CFI (cfiCond284) V10 load(1, XDATA, add(CFA_XSP16, literal(-10)))
        CFI (cfiCond284) V11 load(1, XDATA, add(CFA_XSP16, literal(-9)))
        CFI (cfiCond284) V12 load(1, XDATA, add(CFA_XSP16, literal(-8)))
        CFI (cfiCond284) V13 load(1, XDATA, add(CFA_XSP16, literal(-7)))
        CFI (cfiCond284) R7 load(1, XDATA, add(CFA_XSP16, literal(-6)))
        CFI (cfiCond284) ?RET_LOW load(1, XDATA, add(CFA_XSP16, literal(-5)))
        CFI (cfiCond284) ?RET_HIGH load(1, XDATA, add(CFA_XSP16, literal(-4)))
        CFI (cfiCond284) ?BRET_EXT load(1, XDATA, add(CFA_XSP16, literal(-3)))
        CFI (cfiCond284) DPL0 load(1, XDATA, add(CFA_XSP16, literal(-2)))
        CFI (cfiCond284) DPH0 load(1, XDATA, add(CFA_XSP16, literal(-1)))
        CFI (cfiCond284) CFA_SP SP+0
        CFI (cfiCond284) CFA_XSP16 add(XSP16, 36)
        CFI Block cfiCond285 Using cfiCommon0
        CFI (cfiCond285) NoFunction
        CFI (cfiCond285) Conditional ??CrossCallReturnLabel_130, ??CrossCallReturnLabel_121
        CFI (cfiCond285) R6 load(1, XDATA, add(CFA_XSP16, literal(-22)))
        CFI (cfiCond285) VB load(1, XDATA, add(CFA_XSP16, literal(-21)))
        CFI (cfiCond285) V0 load(1, XDATA, add(CFA_XSP16, literal(-20)))
        CFI (cfiCond285) V1 load(1, XDATA, add(CFA_XSP16, literal(-19)))
        CFI (cfiCond285) V2 load(1, XDATA, add(CFA_XSP16, literal(-18)))
        CFI (cfiCond285) V3 load(1, XDATA, add(CFA_XSP16, literal(-17)))
        CFI (cfiCond285) V4 load(1, XDATA, add(CFA_XSP16, literal(-16)))
        CFI (cfiCond285) V5 load(1, XDATA, add(CFA_XSP16, literal(-15)))
        CFI (cfiCond285) V6 load(1, XDATA, add(CFA_XSP16, literal(-14)))
        CFI (cfiCond285) V7 load(1, XDATA, add(CFA_XSP16, literal(-13)))
        CFI (cfiCond285) V8 load(1, XDATA, add(CFA_XSP16, literal(-12)))
        CFI (cfiCond285) V9 load(1, XDATA, add(CFA_XSP16, literal(-11)))
        CFI (cfiCond285) V10 load(1, XDATA, add(CFA_XSP16, literal(-10)))
        CFI (cfiCond285) V11 load(1, XDATA, add(CFA_XSP16, literal(-9)))
        CFI (cfiCond285) V12 load(1, XDATA, add(CFA_XSP16, literal(-8)))
        CFI (cfiCond285) V13 load(1, XDATA, add(CFA_XSP16, literal(-7)))
        CFI (cfiCond285) R7 load(1, XDATA, add(CFA_XSP16, literal(-6)))
        CFI (cfiCond285) ?RET_LOW load(1, XDATA, add(CFA_XSP16, literal(-5)))
        CFI (cfiCond285) ?RET_HIGH load(1, XDATA, add(CFA_XSP16, literal(-4)))
        CFI (cfiCond285) ?BRET_EXT load(1, XDATA, add(CFA_XSP16, literal(-3)))
        CFI (cfiCond285) DPL0 load(1, XDATA, add(CFA_XSP16, literal(-2)))
        CFI (cfiCond285) DPH0 load(1, XDATA, add(CFA_XSP16, literal(-1)))
        CFI (cfiCond285) CFA_SP SP+0
        CFI (cfiCond285) CFA_XSP16 add(XSP16, 36)
        CFI Block cfiCond286 Using cfiCommon0
        CFI (cfiCond286) NoFunction
        CFI (cfiCond286) Conditional ??CrossCallReturnLabel_130, ??CrossCallReturnLabel_122
        CFI (cfiCond286) R6 load(1, XDATA, add(CFA_XSP16, literal(-22)))
        CFI (cfiCond286) VB load(1, XDATA, add(CFA_XSP16, literal(-21)))
        CFI (cfiCond286) V0 load(1, XDATA, add(CFA_XSP16, literal(-20)))
        CFI (cfiCond286) V1 load(1, XDATA, add(CFA_XSP16, literal(-19)))
        CFI (cfiCond286) V2 load(1, XDATA, add(CFA_XSP16, literal(-18)))
        CFI (cfiCond286) V3 load(1, XDATA, add(CFA_XSP16, literal(-17)))
        CFI (cfiCond286) V4 load(1, XDATA, add(CFA_XSP16, literal(-16)))
        CFI (cfiCond286) V5 load(1, XDATA, add(CFA_XSP16, literal(-15)))
        CFI (cfiCond286) V6 load(1, XDATA, add(CFA_XSP16, literal(-14)))
        CFI (cfiCond286) V7 load(1, XDATA, add(CFA_XSP16, literal(-13)))
        CFI (cfiCond286) V8 load(1, XDATA, add(CFA_XSP16, literal(-12)))
        CFI (cfiCond286) V9 load(1, XDATA, add(CFA_XSP16, literal(-11)))
        CFI (cfiCond286) V10 load(1, XDATA, add(CFA_XSP16, literal(-10)))
        CFI (cfiCond286) V11 load(1, XDATA, add(CFA_XSP16, literal(-9)))
        CFI (cfiCond286) V12 load(1, XDATA, add(CFA_XSP16, literal(-8)))
        CFI (cfiCond286) V13 load(1, XDATA, add(CFA_XSP16, literal(-7)))
        CFI (cfiCond286) R7 load(1, XDATA, add(CFA_XSP16, literal(-6)))
        CFI (cfiCond286) ?RET_LOW load(1, XDATA, add(CFA_XSP16, literal(-5)))
        CFI (cfiCond286) ?RET_HIGH load(1, XDATA, add(CFA_XSP16, literal(-4)))
        CFI (cfiCond286) ?BRET_EXT load(1, XDATA, add(CFA_XSP16, literal(-3)))
        CFI (cfiCond286) DPL0 load(1, XDATA, add(CFA_XSP16, literal(-2)))
        CFI (cfiCond286) DPH0 load(1, XDATA, add(CFA_XSP16, literal(-1)))
        CFI (cfiCond286) CFA_SP SP+-1
        CFI (cfiCond286) CFA_XSP16 add(XSP16, 36)
        CFI Block cfiCond287 Using cfiCommon0
        CFI (cfiCond287) NoFunction
        CFI (cfiCond287) Conditional ??CrossCallReturnLabel_130, ??CrossCallReturnLabel_123
        CFI (cfiCond287) R6 load(1, XDATA, add(CFA_XSP16, literal(-22)))
        CFI (cfiCond287) VB load(1, XDATA, add(CFA_XSP16, literal(-21)))
        CFI (cfiCond287) V0 load(1, XDATA, add(CFA_XSP16, literal(-20)))
        CFI (cfiCond287) V1 load(1, XDATA, add(CFA_XSP16, literal(-19)))
        CFI (cfiCond287) V2 load(1, XDATA, add(CFA_XSP16, literal(-18)))
        CFI (cfiCond287) V3 load(1, XDATA, add(CFA_XSP16, literal(-17)))
        CFI (cfiCond287) V4 load(1, XDATA, add(CFA_XSP16, literal(-16)))
        CFI (cfiCond287) V5 load(1, XDATA, add(CFA_XSP16, literal(-15)))
        CFI (cfiCond287) V6 load(1, XDATA, add(CFA_XSP16, literal(-14)))
        CFI (cfiCond287) V7 load(1, XDATA, add(CFA_XSP16, literal(-13)))
        CFI (cfiCond287) V8 load(1, XDATA, add(CFA_XSP16, literal(-12)))
        CFI (cfiCond287) V9 load(1, XDATA, add(CFA_XSP16, literal(-11)))
        CFI (cfiCond287) V10 load(1, XDATA, add(CFA_XSP16, literal(-10)))
        CFI (cfiCond287) V11 load(1, XDATA, add(CFA_XSP16, literal(-9)))
        CFI (cfiCond287) V12 load(1, XDATA, add(CFA_XSP16, literal(-8)))
        CFI (cfiCond287) V13 load(1, XDATA, add(CFA_XSP16, literal(-7)))
        CFI (cfiCond287) R7 load(1, XDATA, add(CFA_XSP16, literal(-6)))
        CFI (cfiCond287) ?RET_LOW load(1, XDATA, add(CFA_XSP16, literal(-5)))
        CFI (cfiCond287) ?RET_HIGH load(1, XDATA, add(CFA_XSP16, literal(-4)))
        CFI (cfiCond287) ?BRET_EXT load(1, XDATA, add(CFA_XSP16, literal(-3)))
        CFI (cfiCond287) DPL0 load(1, XDATA, add(CFA_XSP16, literal(-2)))
        CFI (cfiCond287) DPH0 load(1, XDATA, add(CFA_XSP16, literal(-1)))
        CFI (cfiCond287) CFA_SP SP+0
        CFI (cfiCond287) CFA_XSP16 add(XSP16, 36)
        CFI Block cfiCond288 Using cfiCommon0
        CFI (cfiCond288) NoFunction
        CFI (cfiCond288) Conditional ??CrossCallReturnLabel_130, ??CrossCallReturnLabel_124
        CFI (cfiCond288) R6 load(1, XDATA, add(CFA_XSP16, literal(-22)))
        CFI (cfiCond288) VB load(1, XDATA, add(CFA_XSP16, literal(-21)))
        CFI (cfiCond288) V0 load(1, XDATA, add(CFA_XSP16, literal(-20)))
        CFI (cfiCond288) V1 load(1, XDATA, add(CFA_XSP16, literal(-19)))
        CFI (cfiCond288) V2 load(1, XDATA, add(CFA_XSP16, literal(-18)))
        CFI (cfiCond288) V3 load(1, XDATA, add(CFA_XSP16, literal(-17)))
        CFI (cfiCond288) V4 load(1, XDATA, add(CFA_XSP16, literal(-16)))
        CFI (cfiCond288) V5 load(1, XDATA, add(CFA_XSP16, literal(-15)))
        CFI (cfiCond288) V6 load(1, XDATA, add(CFA_XSP16, literal(-14)))
        CFI (cfiCond288) V7 load(1, XDATA, add(CFA_XSP16, literal(-13)))
        CFI (cfiCond288) V8 load(1, XDATA, add(CFA_XSP16, literal(-12)))
        CFI (cfiCond288) V9 load(1, XDATA, add(CFA_XSP16, literal(-11)))
        CFI (cfiCond288) V10 load(1, XDATA, add(CFA_XSP16, literal(-10)))
        CFI (cfiCond288) V11 load(1, XDATA, add(CFA_XSP16, literal(-9)))
        CFI (cfiCond288) V12 load(1, XDATA, add(CFA_XSP16, literal(-8)))
        CFI (cfiCond288) V13 load(1, XDATA, add(CFA_XSP16, literal(-7)))
        CFI (cfiCond288) R7 load(1, XDATA, add(CFA_XSP16, literal(-6)))
        CFI (cfiCond288) ?RET_LOW load(1, XDATA, add(CFA_XSP16, literal(-5)))
        CFI (cfiCond288) ?RET_HIGH load(1, XDATA, add(CFA_XSP16, literal(-4)))
        CFI (cfiCond288) ?BRET_EXT load(1, XDATA, add(CFA_XSP16, literal(-3)))
        CFI (cfiCond288) DPL0 load(1, XDATA, add(CFA_XSP16, literal(-2)))
        CFI (cfiCond288) DPH0 load(1, XDATA, add(CFA_XSP16, literal(-1)))
        CFI (cfiCond288) CFA_SP SP+0
        CFI (cfiCond288) CFA_XSP16 add(XSP16, 36)
        CFI Block cfiCond289 Using cfiCommon0
        CFI (cfiCond289) NoFunction
        CFI (cfiCond289) Conditional ??CrossCallReturnLabel_130, ??CrossCallReturnLabel_125
        CFI (cfiCond289) R6 load(1, XDATA, add(CFA_XSP16, literal(-22)))
        CFI (cfiCond289) VB load(1, XDATA, add(CFA_XSP16, literal(-21)))
        CFI (cfiCond289) V0 load(1, XDATA, add(CFA_XSP16, literal(-20)))
        CFI (cfiCond289) V1 load(1, XDATA, add(CFA_XSP16, literal(-19)))
        CFI (cfiCond289) V2 load(1, XDATA, add(CFA_XSP16, literal(-18)))
        CFI (cfiCond289) V3 load(1, XDATA, add(CFA_XSP16, literal(-17)))
        CFI (cfiCond289) V4 load(1, XDATA, add(CFA_XSP16, literal(-16)))
        CFI (cfiCond289) V5 load(1, XDATA, add(CFA_XSP16, literal(-15)))
        CFI (cfiCond289) V6 load(1, XDATA, add(CFA_XSP16, literal(-14)))
        CFI (cfiCond289) V7 load(1, XDATA, add(CFA_XSP16, literal(-13)))
        CFI (cfiCond289) V8 load(1, XDATA, add(CFA_XSP16, literal(-12)))
        CFI (cfiCond289) V9 load(1, XDATA, add(CFA_XSP16, literal(-11)))
        CFI (cfiCond289) V10 load(1, XDATA, add(CFA_XSP16, literal(-10)))
        CFI (cfiCond289) V11 load(1, XDATA, add(CFA_XSP16, literal(-9)))
        CFI (cfiCond289) V12 load(1, XDATA, add(CFA_XSP16, literal(-8)))
        CFI (cfiCond289) V13 load(1, XDATA, add(CFA_XSP16, literal(-7)))
        CFI (cfiCond289) R7 load(1, XDATA, add(CFA_XSP16, literal(-6)))
        CFI (cfiCond289) ?RET_LOW load(1, XDATA, add(CFA_XSP16, literal(-5)))
        CFI (cfiCond289) ?RET_HIGH load(1, XDATA, add(CFA_XSP16, literal(-4)))
        CFI (cfiCond289) ?BRET_EXT load(1, XDATA, add(CFA_XSP16, literal(-3)))
        CFI (cfiCond289) DPL0 load(1, XDATA, add(CFA_XSP16, literal(-2)))
        CFI (cfiCond289) DPH0 load(1, XDATA, add(CFA_XSP16, literal(-1)))
        CFI (cfiCond289) CFA_SP SP+0
        CFI (cfiCond289) CFA_XSP16 add(XSP16, 36)
        CFI Block cfiCond290 Using cfiCommon0
        CFI (cfiCond290) NoFunction
        CFI (cfiCond290) Conditional ??CrossCallReturnLabel_130, ??CrossCallReturnLabel_126
        CFI (cfiCond290) R6 load(1, XDATA, add(CFA_XSP16, literal(-14)))
        CFI (cfiCond290) VB load(1, XDATA, add(CFA_XSP16, literal(-13)))
        CFI (cfiCond290) V0 load(1, XDATA, add(CFA_XSP16, literal(-12)))
        CFI (cfiCond290) V1 load(1, XDATA, add(CFA_XSP16, literal(-11)))
        CFI (cfiCond290) V2 load(1, XDATA, add(CFA_XSP16, literal(-10)))
        CFI (cfiCond290) V3 load(1, XDATA, add(CFA_XSP16, literal(-9)))
        CFI (cfiCond290) V4 load(1, XDATA, add(CFA_XSP16, literal(-8)))
        CFI (cfiCond290) V5 load(1, XDATA, add(CFA_XSP16, literal(-7)))
        CFI (cfiCond290) R7 load(1, XDATA, add(CFA_XSP16, literal(-6)))
        CFI (cfiCond290) ?RET_LOW load(1, XDATA, add(CFA_XSP16, literal(-5)))
        CFI (cfiCond290) ?RET_HIGH load(1, XDATA, add(CFA_XSP16, literal(-4)))
        CFI (cfiCond290) ?BRET_EXT load(1, XDATA, add(CFA_XSP16, literal(-3)))
        CFI (cfiCond290) DPL0 load(1, XDATA, add(CFA_XSP16, literal(-2)))
        CFI (cfiCond290) DPH0 load(1, XDATA, add(CFA_XSP16, literal(-1)))
        CFI (cfiCond290) CFA_SP SP+0
        CFI (cfiCond290) CFA_XSP16 add(XSP16, 20)
        CFI Block cfiPicker291 Using cfiCommon1
        CFI (cfiPicker291) NoFunction
        CFI (cfiPicker291) Picker
        MOV     R0,A
        INC     DPTR
        MOVX    A,@DPTR
        LCALL   ??Subroutine52_0 & 0xFFFF
??CrossCallReturnLabel_133:
        RET
        CFI EndBlock cfiCond278
        CFI EndBlock cfiCond279
        CFI EndBlock cfiCond280
        CFI EndBlock cfiCond281
        CFI EndBlock cfiCond282
        CFI EndBlock cfiCond283
        CFI EndBlock cfiCond284
        CFI EndBlock cfiCond285
        CFI EndBlock cfiCond286
        CFI EndBlock cfiCond287
        CFI EndBlock cfiCond288
        CFI EndBlock cfiCond289
        CFI EndBlock cfiCond290
        CFI EndBlock cfiPicker291

        RSEG BANK_RELAYS:CODE:REORDER:NOROOT(0)
??MT_AfExec?relay:
        LCALL   ?BDISPATCH
        DATA
        DC24    MT_AfExec

        RSEG BANK_RELAYS:CODE:REORDER:NOROOT(0)
??MT_AfCommandProcessing?relay:
        LCALL   ?BDISPATCH
        DATA
        DC24    MT_AfCommandProcessing

        RSEG BANK_RELAYS:CODE:REORDER:NOROOT(0)
??MT_AfRegister?relay:
        LCALL   ?BDISPATCH
        DATA
        DC24    MT_AfRegister

        RSEG BANK_RELAYS:CODE:REORDER:NOROOT(0)
??MT_AfDataRequest?relay:
        LCALL   ?BDISPATCH
        DATA
        DC24    MT_AfDataRequest

        RSEG BANK_RELAYS:CODE:REORDER:NOROOT(0)
??MT_AfDataRequestSrcRtg?relay:
        LCALL   ?BDISPATCH
        DATA
        DC24    MT_AfDataRequestSrcRtg

        RSEG BANK_RELAYS:CODE:REORDER:NOROOT(0)
??MT_AfDataConfirm?relay:
        LCALL   ?BDISPATCH
        DATA
        DC24    MT_AfDataConfirm

        RSEG BANK_RELAYS:CODE:REORDER:NOROOT(0)
??MT_AfIncomingMsg?relay:
        LCALL   ?BDISPATCH
        DATA
        DC24    MT_AfIncomingMsg

        RSEG BANK_RELAYS:CODE:REORDER:NOROOT(0)
??MT_AfDataRetrieve?relay:
        LCALL   ?BDISPATCH
        DATA
        DC24    MT_AfDataRetrieve

        RSEG BANK_RELAYS:CODE:REORDER:NOROOT(0)
??MT_AfDataStore?relay:
        LCALL   ?BDISPATCH
        DATA
        DC24    MT_AfDataStore

        END
//  891 
//  892 /**************************************************************************************************
//  893  * @fn          MT_AfAPSF_ConfigSet
//  894  *
//  895  * @brief       This function is the MT proxy for afAPSF_ConfigSet().
//  896  *
//  897  * input parameters
//  898  *
//  899  * @param       pBuf - Pointer to the received buffer.
//  900  *
//  901  * output parameters
//  902  *
//  903  * None.
//  904  *
//  905  * @return      None.
//  906  */
//  907 static void MT_AfAPSF_ConfigSet(uint8 *pBuf)
//  908 {
//  909   afAPSF_Config_t cfg = { pBuf[MT_RPC_POS_DAT0+1], pBuf[MT_RPC_POS_DAT0+2] };
//  910   afStatus_t rtrn = afAPSF_ConfigSet(pBuf[MT_RPC_POS_DAT0], &cfg);
//  911 
//  912   MT_BuildAndSendZToolResponse(((uint8)MT_RPC_CMD_SRSP | (uint8)MT_RPC_SYS_AF),
//  913                                        MT_AF_APSF_CONFIG_SET, 1, (uint8 *)&rtrn);
//  914 }
//  915 
//  916 /***************************************************************************************************
//  917 ***************************************************************************************************/
// 
// 3 291 bytes in segment BANKED_CODE
//    54 bytes in segment BANK_RELAYS
//     4 bytes in segment XDATA_Z
// 
// 3 345 bytes of CODE  memory
//     4 bytes of XDATA memory
//
//Errors: none
//Warnings: none
