///////////////////////////////////////////////////////////////////////////////
//                                                                            /
// IAR C/C++ Compiler V8.10.1.10194/W32 for 8051        01/Jun/2015  00:49:48 /
// Copyright 2004-2011 IAR Systems AB.                                        /
//                                                                            /
//    Core               =  plain                                             /
//    Code model         =  banked                                            /
//    Data model         =  large                                             /
//    Calling convention =  xdata reentrant                                   /
//    Constant location  =  data_rom                                          /
//    Dptr setup         =  1,16                                              /
//    Source file        =  C:\Texas Instruments\ZStack-CC2530-2.5.1a\Compone /
//                          nts\osal\mcu\cc2530\OSAL_Nv.c                     /
//    Command line       =  -f "C:\Texas Instruments\ZStack-CC2530-2.5.1a\Pro /
//                          jects\zstack\Samples\WirelessMonitorSystem\CC2530 /
//                          DB\..\..\..\Tools\CC2530DB\f8wEndev.cfg"          /
//                          (-DCPU32MHZ -DROOT=__near_func                    /
//                          -DMAC_CFG_TX_DATA_MAX=3 -DMAC_CFG_TX_MAX=6        /
//                          -DMAC_CFG_RX_MAX=3) -f "C:\Texas                  /
//                          Instruments\ZStack-CC2530-2.5.1a\Projects\zstack\ /
//                          Samples\WirelessMonitorSystem\CC2530DB\..\..\..\T /
//                          ools\CC2530DB\f8wConfig.cfg" (-DZIGBEEPRO         /
//                          -DSECURE=0 -DZG_SECURE_DYNAMIC=0 -DREFLECTOR      /
//                          -DDEFAULT_CHANLIST=0x00000800                     /
//                          -DZDAPP_CONFIG_PAN_ID=0xFFFF                      /
//                          -DNWK_START_DELAY=100 -DEXTENDED_JOINING_RANDOM_M /
//                          ASK=0x007F -DBEACON_REQUEST_DELAY=100             /
//                          -DBEACON_REQ_DELAY_MASK=0x00FF                    /
//                          -DLINK_STATUS_JITTER_MASK=0x007F                  /
//                          -DROUTE_EXPIRY_TIME=30 -DAPSC_ACK_WAIT_DURATION_P /
//                          OLLED=3000 -DNWK_INDIRECT_MSG_TIMEOUT=7           /
//                          -DMAX_RREQ_ENTRIES=8 -DAPSC_MAX_FRAME_RETRIES=3   /
//                          -DNWK_MAX_DATA_RETRIES=2                          /
//                          -DMAX_POLL_FAILURE_RETRIES=2 -DMAX_BCAST=9        /
//                          -DAPS_MAX_GROUPS=16 -DMAX_RTG_ENTRIES=40          /
//                          -DNWK_MAX_BINDING_ENTRIES=4                       /
//                          -DMAX_BINDING_CLUSTER_IDS=4                       /
//                          "-DDEFAULT_KEY={0x01, 0x03, 0x05, 0x07, 0x09,     /
//                          0x0B, 0x0D, 0x0F, 0x00, 0x02, 0x04, 0x06, 0x08,   /
//                          0x0A, 0x0C, 0x0D}" -DMAC_MAX_FRAME_SIZE=116       /
//                          -DZDNWKMGR_MIN_TRANSMISSIONS=20 "-DCONST=const    /
//                          __code" -DGENERIC=__generic                       /
//                          -DRFD_RCVC_ALWAYS_ON=FALSE -DPOLL_RATE=500        /
//                          -DQUEUED_POLL_RATE=30 -DRESPONSE_POLL_RATE=100)   /
//                          -DREJOIN_POLL_RATE=440 "C:\Texas                  /
//                          Instruments\ZStack-CC2530-2.5.1a\Components\osal\ /
//                          mcu\cc2530\OSAL_Nv.c" -D HAL_UART -D              /
//                          xOCM_CLK_PORT=0 -D xOCM_CLK_PIN=7 -D              /
//                          xOCM_DATA_PORT=0 -D xOCM_DATA_PIN=6 -lC           /
//                          "C:\Texas Instruments\ZStack-CC2530-2.5.1a\Projec /
//                          ts\zstack\Samples\WirelessMonitorSystem\CC2530DB\ /
//                          Vibrate\List\" -lA "C:\Texas                      /
//                          Instruments\ZStack-CC2530-2.5.1a\Projects\zstack\ /
//                          Samples\WirelessMonitorSystem\CC2530DB\Vibrate\Li /
//                          st\" --diag_suppress Pe001,Pa010 -o "C:\Texas     /
//                          Instruments\ZStack-CC2530-2.5.1a\Projects\zstack\ /
//                          Samples\WirelessMonitorSystem\CC2530DB\Vibrate\Ob /
//                          j\" -e --debug --core=plain --dptr=16,1           /
//                          --data_model=large --code_model=banked            /
//                          --calling_convention=xdata_reentrant              /
//                          --place_constants=data_rom --nr_virtual_regs 16   /
//                          -I "C:\Texas Instruments\ZStack-CC2530-2.5.1a\Pro /
//                          jects\zstack\Samples\WirelessMonitorSystem\CC2530 /
//                          DB\" -I "C:\Texas Instruments\ZStack-CC2530-2.5.1 /
//                          a\Projects\zstack\Samples\WirelessMonitorSystem\C /
//                          C2530DB\..\Source\" -I "C:\Texas                  /
//                          Instruments\ZStack-CC2530-2.5.1a\Projects\zstack\ /
//                          Samples\WirelessMonitorSystem\CC2530DB\..\..\..\Z /
//                          Main\TI2530DB\" -I "C:\Texas                      /
//                          Instruments\ZStack-CC2530-2.5.1a\Projects\zstack\ /
//                          Samples\WirelessMonitorSystem\CC2530DB\..\..\..\. /
//                          .\..\Components\hal\include\" -I "C:\Texas        /
//                          Instruments\ZStack-CC2530-2.5.1a\Projects\zstack\ /
//                          Samples\WirelessMonitorSystem\CC2530DB\..\..\..\. /
//                          .\..\Components\hal\target\CC2530EB\" -I          /
//                          "C:\Texas Instruments\ZStack-CC2530-2.5.1a\Projec /
//                          ts\zstack\Samples\WirelessMonitorSystem\CC2530DB\ /
//                          ..\..\..\..\..\Components\mac\include\" -I        /
//                          "C:\Texas Instruments\ZStack-CC2530-2.5.1a\Projec /
//                          ts\zstack\Samples\WirelessMonitorSystem\CC2530DB\ /
//                          ..\..\..\..\..\Components\mac\high_level\" -I     /
//                          "C:\Texas Instruments\ZStack-CC2530-2.5.1a\Projec /
//                          ts\zstack\Samples\WirelessMonitorSystem\CC2530DB\ /
//                          ..\..\..\..\..\Components\mac\low_level\srf04\"   /
//                          -I "C:\Texas Instruments\ZStack-CC2530-2.5.1a\Pro /
//                          jects\zstack\Samples\WirelessMonitorSystem\CC2530 /
//                          DB\..\..\..\..\..\Components\mac\low_level\srf04\ /
//                          single_chip\" -I "C:\Texas                        /
//                          Instruments\ZStack-CC2530-2.5.1a\Projects\zstack\ /
//                          Samples\WirelessMonitorSystem\CC2530DB\..\..\..\. /
//                          .\..\Components\mt\" -I "C:\Texas                 /
//                          Instruments\ZStack-CC2530-2.5.1a\Projects\zstack\ /
//                          Samples\WirelessMonitorSystem\CC2530DB\..\..\..\. /
//                          .\..\Components\osal\include\" -I "C:\Texas       /
//                          Instruments\ZStack-CC2530-2.5.1a\Projects\zstack\ /
//                          Samples\WirelessMonitorSystem\CC2530DB\..\..\..\. /
//                          .\..\Components\services\saddr\" -I "C:\Texas     /
//                          Instruments\ZStack-CC2530-2.5.1a\Projects\zstack\ /
//                          Samples\WirelessMonitorSystem\CC2530DB\..\..\..\. /
//                          .\..\Components\services\sdata\" -I "C:\Texas     /
//                          Instruments\ZStack-CC2530-2.5.1a\Projects\zstack\ /
//                          Samples\WirelessMonitorSystem\CC2530DB\..\..\..\. /
//                          .\..\Components\stack\af\" -I "C:\Texas           /
//                          Instruments\ZStack-CC2530-2.5.1a\Projects\zstack\ /
//                          Samples\WirelessMonitorSystem\CC2530DB\..\..\..\. /
//                          .\..\Components\stack\nwk\" -I "C:\Texas          /
//                          Instruments\ZStack-CC2530-2.5.1a\Projects\zstack\ /
//                          Samples\WirelessMonitorSystem\CC2530DB\..\..\..\. /
//                          .\..\Components\stack\sapi\" -I "C:\Texas         /
//                          Instruments\ZStack-CC2530-2.5.1a\Projects\zstack\ /
//                          Samples\WirelessMonitorSystem\CC2530DB\..\..\..\. /
//                          .\..\Components\stack\sec\" -I "C:\Texas          /
//                          Instruments\ZStack-CC2530-2.5.1a\Projects\zstack\ /
//                          Samples\WirelessMonitorSystem\CC2530DB\..\..\..\. /
//                          .\..\Components\stack\sys\" -I "C:\Texas          /
//                          Instruments\ZStack-CC2530-2.5.1a\Projects\zstack\ /
//                          Samples\WirelessMonitorSystem\CC2530DB\..\..\..\. /
//                          .\..\Components\stack\zdo\" -I "C:\Texas          /
//                          Instruments\ZStack-CC2530-2.5.1a\Projects\zstack\ /
//                          Samples\WirelessMonitorSystem\CC2530DB\..\..\..\. /
//                          .\..\Components\zmac\" -I "C:\Texas               /
//                          Instruments\ZStack-CC2530-2.5.1a\Projects\zstack\ /
//                          Samples\WirelessMonitorSystem\CC2530DB\..\..\..\. /
//                          .\..\Components\zmac\f8w\" -Ohz                   /
//                          --require_prototypes                              /
//    List file          =  C:\Texas Instruments\ZStack-CC2530-2.5.1a\Project /
//                          s\zstack\Samples\WirelessMonitorSystem\CC2530DB\V /
//                          ibrate\List\OSAL_Nv.s51                           /
//                                                                            /
//                                                                            /
///////////////////////////////////////////////////////////////////////////////

        NAME OSAL_Nv

        RTMODEL "__SystemLibrary", "CLib"
        RTMODEL "__calling_convention", "xdata_reentrant"
        RTMODEL "__code_model", "banked"
        RTMODEL "__core", "plain"
        RTMODEL "__data_model", "large"
        RTMODEL "__dptr_size", "16"
        RTMODEL "__extended_stack", "disabled"
        RTMODEL "__location_for_constants", "data"
        RTMODEL "__number_of_dptrs", "1"
        RTMODEL "__rt_version", "1"

        RSEG DOVERLAY:DATA:NOROOT(0)
        RSEG IOVERLAY:IDATA:NOROOT(0)
        RSEG ISTACK:IDATA:NOROOT(0)
        RSEG PSTACK:XDATA:NOROOT(0)
        RSEG XSTACK:XDATA:NOROOT(0)

        EXTERN ?ALLOC_XSTACK8
        EXTERN ?BANKED_ENTER_XDATA
        EXTERN ?BANKED_LEAVE_XDATA
        EXTERN ?BDISPATCH
        EXTERN ?BRET
        EXTERN ?DEALLOC_XSTACK8
        EXTERN ?PUSH_XSTACK8_X_TWO
        EXTERN ?PUSH_XSTACK_I_ONE
        EXTERN ?PUSH_XSTACK_I_TWO
        EXTERN ?S_SHL
        EXTERN ?US_SHR
        EXTERN ?V0
        EXTERN ?XSP
        EXTERN ?XSTACK_DISP0_8
        EXTERN __INIT_XDATA_Z

        FUNCTION ??calcChkF?relay,0203H
        FUNCTION ??compactPage?relay,0203H
        FUNCTION ??erasePage?relay,0203H
        FUNCTION ??findItem?relay,0203H
        FUNCTION ??hotItem?relay,0203H
        FUNCTION ??hotItemUpdate?relay,0203H
        FUNCTION ??initItem?relay,0203H
        FUNCTION ??initNV?relay,0203H
        FUNCTION ??initPage?relay,0203H
        PUBLIC ??osal_nv_delete?relay
        FUNCTION ??osal_nv_delete?relay,0203H
        PUBLIC ??osal_nv_init?relay
        FUNCTION ??osal_nv_init?relay,0203H
        PUBLIC ??osal_nv_item_init?relay
        FUNCTION ??osal_nv_item_init?relay,0203H
        PUBLIC ??osal_nv_item_len?relay
        FUNCTION ??osal_nv_item_len?relay,0203H
        PUBLIC ??osal_nv_read?relay
        FUNCTION ??osal_nv_read?relay,0203H
        PUBLIC ??osal_nv_write?relay
        FUNCTION ??osal_nv_write?relay,0203H
        FUNCTION ??setChk?relay,0203H
        FUNCTION ??setItem?relay,0203H
        FUNCTION ??setPageUse?relay,0203H
        FUNCTION ??writeBuf?relay,0203H
        FUNCTION ??writeItem?relay,0203H
        FUNCTION ??writeWord?relay,0203H
        FUNCTION ??writeWordH?relay,0203H
        FUNCTION ??xferBuf?relay,0203H
        PUBLIC _nvBuf
        FUNCTION calcChkF,021203H
        ARGFRAME XSTACK, 35, STACK
        ARGFRAME IOVERLAY, 0, STATIC
        ARGFRAME DOVERLAY, 0, STATIC
        LOCFRAME XSTACK, 22, STACK
        FUNCTION compactPage,021203H
        ARGFRAME XSTACK, 28, STACK
        ARGFRAME IOVERLAY, 0, STATIC
        ARGFRAME DOVERLAY, 0, STATIC
        LOCFRAME XSTACK, 31, STACK
        FUNCTION erasePage,021203H
        ARGFRAME XSTACK, 35, STACK
        ARGFRAME IOVERLAY, 0, STATIC
        ARGFRAME DOVERLAY, 0, STATIC
        LOCFRAME XSTACK, 9, STACK
        FUNCTION findItem,021203H
        ARGFRAME XSTACK, 35, STACK
        ARGFRAME IOVERLAY, 0, STATIC
        ARGFRAME DOVERLAY, 0, STATIC
        LOCFRAME XSTACK, 12, STACK
        FUNCTION hotItem,0203H
        ARGFRAME XSTACK, 20, STACK
        ARGFRAME IOVERLAY, 0, STATIC
        ARGFRAME DOVERLAY, 0, STATIC
        LOCFRAME ISTACK, 2, STACK
        FUNCTION hotItemUpdate,021203H
        ARGFRAME XSTACK, 35, STACK
        ARGFRAME IOVERLAY, 0, STATIC
        ARGFRAME DOVERLAY, 0, STATIC
        LOCFRAME ISTACK, 1, STACK
        LOCFRAME XSTACK, 10, STACK
        FUNCTION initItem,021203H
        ARGFRAME XSTACK, 37, STACK
        ARGFRAME IOVERLAY, 0, STATIC
        ARGFRAME DOVERLAY, 0, STATIC
        LOCFRAME ISTACK, 1, STACK
        LOCFRAME XSTACK, 31, STACK
        FUNCTION initNV,021203H
        ARGFRAME XSTACK, 0, STACK
        ARGFRAME IOVERLAY, 0, STATIC
        ARGFRAME DOVERLAY, 0, STATIC
        LOCFRAME XSTACK, 22, STACK
        FUNCTION initPage,021203H
        ARGFRAME XSTACK, 20, STACK
        ARGFRAME IOVERLAY, 0, STATIC
        ARGFRAME DOVERLAY, 0, STATIC
        LOCFRAME XSTACK, 28, STACK
        PUBLIC osal_nv_delete
        FUNCTION osal_nv_delete,021203H
        ARGFRAME XSTACK, 0, STACK
        LOCFRAME XSTACK, 14, STACK
        PUBLIC osal_nv_init
        FUNCTION osal_nv_init,021203H
        ARGFRAME XSTACK, 0, STACK
        LOCFRAME ISTACK, 2, STACK
        PUBLIC osal_nv_item_init
        FUNCTION osal_nv_item_init,021203H
        ARGFRAME XSTACK, 2, STACK
        LOCFRAME XSTACK, 16, STACK
        PUBLIC osal_nv_item_len
        FUNCTION osal_nv_item_len,021203H
        ARGFRAME XSTACK, 14, STACK
        ARGFRAME IOVERLAY, 0, STATIC
        ARGFRAME DOVERLAY, 0, STATIC
        LOCFRAME XSTACK, 22, STACK
        PUBLIC osal_nv_read
        FUNCTION osal_nv_read,021203H
        ARGFRAME XSTACK, 4, STACK
        LOCFRAME XSTACK, 18, STACK
        PUBLIC osal_nv_write
        FUNCTION osal_nv_write,021203H
        ARGFRAME XSTACK, 4, STACK
        LOCFRAME XSTACK, 39, STACK
        FUNCTION setChk,021203H
        ARGFRAME XSTACK, 35, STACK
        ARGFRAME IOVERLAY, 0, STATIC
        ARGFRAME DOVERLAY, 0, STATIC
        LOCFRAME XSTACK, 16, STACK
        FUNCTION setItem,021203H
        ARGFRAME XSTACK, 35, STACK
        ARGFRAME IOVERLAY, 0, STATIC
        ARGFRAME DOVERLAY, 0, STATIC
        LOCFRAME XSTACK, 24, STACK
        FUNCTION setPageUse,021203H
        ARGFRAME XSTACK, 35, STACK
        ARGFRAME IOVERLAY, 0, STATIC
        ARGFRAME DOVERLAY, 0, STATIC
        LOCFRAME XSTACK, 17, STACK
        FUNCTION writeBuf,021203H
        ARGFRAME XSTACK, 37, STACK
        ARGFRAME IOVERLAY, 0, STATIC
        ARGFRAME DOVERLAY, 0, STATIC
        LOCFRAME ISTACK, 1, STACK
        LOCFRAME XSTACK, 24, STACK
        FUNCTION writeItem,021203H
        ARGFRAME XSTACK, 31, STACK
        ARGFRAME IOVERLAY, 0, STATIC
        ARGFRAME DOVERLAY, 0, STATIC
        LOCFRAME XSTACK, 34, STACK
        FUNCTION writeWord,021203H
        ARGFRAME XSTACK, 32, STACK
        ARGFRAME IOVERLAY, 0, STATIC
        ARGFRAME DOVERLAY, 0, STATIC
        LOCFRAME XSTACK, 14, STACK
        FUNCTION writeWordH,021203H
        ARGFRAME XSTACK, 28, STACK
        ARGFRAME IOVERLAY, 0, STATIC
        ARGFRAME DOVERLAY, 0, STATIC
        LOCFRAME ISTACK, 1, STACK
        LOCFRAME XSTACK, 13, STACK
        FUNCTION xferBuf,021203H
        ARGFRAME XSTACK, 39, STACK
        ARGFRAME IOVERLAY, 0, STATIC
        ARGFRAME DOVERLAY, 0, STATIC
        LOCFRAME XSTACK, 24, STACK
        
        CFI Names cfiNames0
        CFI StackFrame CFA_SP SP IDATA
        CFI StackFrame CFA_PSP16 PSP16 XDATA
        CFI StackFrame CFA_XSP16 XSP16 XDATA
        CFI StaticOverlayFrame CFA_IOVERLAY IOVERLAY
        CFI StaticOverlayFrame CFA_DOVERLAY DOVERLAY
        CFI Resource `PSW.CY`:1, `B.BR0`:1, `B.BR1`:1, `B.BR2`:1, `B.BR3`:1
        CFI Resource `B.BR4`:1, `B.BR5`:1, `B.BR6`:1, `B.BR7`:1, `VB.BR8`:1
        CFI Resource `VB.BR9`:1, `VB.BR10`:1, `VB.BR11`:1, `VB.BR12`:1
        CFI Resource `VB.BR13`:1, `VB.BR14`:1, `VB.BR15`:1, VB:8, B:8, A:8
        CFI Resource PSW:8, DPL0:8, DPH0:8, R0:8, R1:8, R2:8, R3:8, R4:8, R5:8
        CFI Resource R6:8, R7:8, V0:8, V1:8, V2:8, V3:8, V4:8, V5:8, V6:8, V7:8
        CFI Resource V8:8, V9:8, V10:8, V11:8, V12:8, V13:8, V14:8, V15:8, SP:8
        CFI Resource PSPH:8, PSPL:8, PSP16:16, XSPH:8, XSPL:8, XSP16:16
        CFI VirtualResource ?RET:24
        CFI Resource ?BRET_EXT:8
        CFI VirtualResource ?RET_HIGH:8, ?RET_LOW:8
        CFI ResourceParts PSP16 PSPH, PSPL
        CFI ResourceParts XSP16 XSPH, XSPL
        CFI ResourceParts ?RET ?BRET_EXT, ?RET_HIGH, ?RET_LOW
        CFI EndNames cfiNames0
        
        CFI Common cfiCommon0 Using cfiNames0
        CFI CodeAlign 1
        CFI DataAlign -1
        CFI ReturnAddress ?RET CODE
        CFI CFA_DOVERLAY Used
        CFI CFA_IOVERLAY Used
        CFI CFA_SP SP+-3
        CFI CFA_PSP16 PSP16+0
        CFI CFA_XSP16 XSP16+0
        CFI `PSW.CY` SameValue
        CFI `B.BR0` SameValue
        CFI `B.BR1` SameValue
        CFI `B.BR2` SameValue
        CFI `B.BR3` SameValue
        CFI `B.BR4` SameValue
        CFI `B.BR5` SameValue
        CFI `B.BR6` SameValue
        CFI `B.BR7` SameValue
        CFI `VB.BR8` SameValue
        CFI `VB.BR9` SameValue
        CFI `VB.BR10` SameValue
        CFI `VB.BR11` SameValue
        CFI `VB.BR12` SameValue
        CFI `VB.BR13` SameValue
        CFI `VB.BR14` SameValue
        CFI `VB.BR15` SameValue
        CFI VB SameValue
        CFI B Undefined
        CFI A Undefined
        CFI PSW SameValue
        CFI DPL0 SameValue
        CFI DPH0 SameValue
        CFI R0 Undefined
        CFI R1 Undefined
        CFI R2 Undefined
        CFI R3 Undefined
        CFI R4 Undefined
        CFI R5 Undefined
        CFI R6 SameValue
        CFI R7 SameValue
        CFI V0 SameValue
        CFI V1 SameValue
        CFI V2 SameValue
        CFI V3 SameValue
        CFI V4 SameValue
        CFI V5 SameValue
        CFI V6 SameValue
        CFI V7 SameValue
        CFI V8 SameValue
        CFI V9 SameValue
        CFI V10 SameValue
        CFI V11 SameValue
        CFI V12 SameValue
        CFI V13 SameValue
        CFI V14 SameValue
        CFI V15 SameValue
        CFI PSPH Undefined
        CFI PSPL Undefined
        CFI XSPH Undefined
        CFI XSPL Undefined
        CFI ?RET Concat
        CFI ?BRET_EXT Frame(CFA_SP, 3)
        CFI ?RET_HIGH Frame(CFA_SP, 2)
        CFI ?RET_LOW Frame(CFA_SP, 1)
        CFI EndCommon cfiCommon0
        
        
        CFI Common cfiCommon1 Using cfiNames0
        CFI CodeAlign 1
        CFI DataAlign -1
        CFI ReturnAddress ?RET CODE
        CFI CFA_DOVERLAY Used
        CFI CFA_IOVERLAY Used
        CFI CFA_SP SP+-2
        CFI CFA_PSP16 PSP16+0
        CFI CFA_XSP16 XSP16+0
        CFI `PSW.CY` SameValue
        CFI `B.BR0` SameValue
        CFI `B.BR1` SameValue
        CFI `B.BR2` SameValue
        CFI `B.BR3` SameValue
        CFI `B.BR4` SameValue
        CFI `B.BR5` SameValue
        CFI `B.BR6` SameValue
        CFI `B.BR7` SameValue
        CFI `VB.BR8` SameValue
        CFI `VB.BR9` SameValue
        CFI `VB.BR10` SameValue
        CFI `VB.BR11` SameValue
        CFI `VB.BR12` SameValue
        CFI `VB.BR13` SameValue
        CFI `VB.BR14` SameValue
        CFI `VB.BR15` SameValue
        CFI VB SameValue
        CFI B SameValue
        CFI A SameValue
        CFI PSW SameValue
        CFI DPL0 SameValue
        CFI DPH0 SameValue
        CFI R0 SameValue
        CFI R1 SameValue
        CFI R2 SameValue
        CFI R3 SameValue
        CFI R4 SameValue
        CFI R5 SameValue
        CFI R6 SameValue
        CFI R7 SameValue
        CFI V0 SameValue
        CFI V1 SameValue
        CFI V2 SameValue
        CFI V3 SameValue
        CFI V4 SameValue
        CFI V5 SameValue
        CFI V6 SameValue
        CFI V7 SameValue
        CFI V8 SameValue
        CFI V9 SameValue
        CFI V10 SameValue
        CFI V11 SameValue
        CFI V12 SameValue
        CFI V13 SameValue
        CFI V14 SameValue
        CFI V15 SameValue
        CFI PSPH Undefined
        CFI PSPL Undefined
        CFI XSPH Undefined
        CFI XSPL Undefined
        CFI ?RET Concat
        CFI ?BRET_EXT SameValue
        CFI ?RET_HIGH Frame(CFA_SP, 2)
        CFI ?RET_LOW Frame(CFA_SP, 1)
        CFI EndCommon cfiCommon1
        
HalFlashRead        SYMBOL "HalFlashRead"
HalFlashErase       SYMBOL "HalFlashErase"
HalFlashWrite       SYMBOL "HalFlashWrite"
HalAdcCheckVdd      SYMBOL "HalAdcCheckVdd"
??HalAdcCheckVdd?relay SYMBOL "?relay", HalAdcCheckVdd
??HalFlashErase?relay SYMBOL "?relay", HalFlashErase
??HalFlashRead?relay SYMBOL "?relay", HalFlashRead
??HalFlashWrite?relay SYMBOL "?relay", HalFlashWrite
osal_nv_delete      SYMBOL "osal_nv_delete"
??osal_nv_delete?relay SYMBOL "?relay", osal_nv_delete
osal_nv_init        SYMBOL "osal_nv_init"
??osal_nv_init?relay SYMBOL "?relay", osal_nv_init
osal_nv_item_init   SYMBOL "osal_nv_item_init"
??osal_nv_item_init?relay SYMBOL "?relay", osal_nv_item_init
osal_nv_item_len    SYMBOL "osal_nv_item_len"
??osal_nv_item_len?relay SYMBOL "?relay", osal_nv_item_len
osal_nv_read        SYMBOL "osal_nv_read"
??osal_nv_read?relay SYMBOL "?relay", osal_nv_read
osal_nv_write       SYMBOL "osal_nv_write"
??osal_nv_write?relay SYMBOL "?relay", osal_nv_write

        EXTERN HalFlashRead
        FUNCTION HalFlashRead,0202H
        ARGFRAME ISTACK, 0, STACK
        ARGFRAME PSTACK, 0, STACK
        ARGFRAME XSTACK, 37, STACK
        ARGFRAME IOVERLAY, 0, STATIC
        ARGFRAME DOVERLAY, 0, STATIC
        EXTERN HalFlashErase
        FUNCTION HalFlashErase,0202H
        ARGFRAME ISTACK, 0, STACK
        ARGFRAME PSTACK, 0, STACK
        ARGFRAME XSTACK, 9, STACK
        ARGFRAME IOVERLAY, 0, STATIC
        ARGFRAME DOVERLAY, 0, STATIC
        EXTERN HalFlashWrite
        FUNCTION HalFlashWrite,0202H
        ARGFRAME ISTACK, 0, STACK
        ARGFRAME PSTACK, 0, STACK
        ARGFRAME XSTACK, 24, STACK
        ARGFRAME IOVERLAY, 0, STATIC
        ARGFRAME DOVERLAY, 0, STATIC
        EXTERN HalAdcCheckVdd
        FUNCTION HalAdcCheckVdd,0202H
        ARGFRAME ISTACK, 0, STACK
        ARGFRAME PSTACK, 0, STACK
        ARGFRAME XSTACK, 35, STACK
        ARGFRAME IOVERLAY, 0, STATIC
        ARGFRAME DOVERLAY, 0, STATIC
        EXTERN ??HalAdcCheckVdd?relay
        FUNCTION ??HalAdcCheckVdd?relay,00H
        EXTERN ??HalFlashErase?relay
        FUNCTION ??HalFlashErase?relay,00H
        EXTERN ??HalFlashRead?relay
        FUNCTION ??HalFlashRead?relay,00H
        EXTERN ??HalFlashWrite?relay
        FUNCTION ??HalFlashWrite?relay,00H

// C:\Texas Instruments\ZStack-CC2530-2.5.1a\Components\osal\mcu\cc2530\OSAL_Nv.c
//    1 /******************************************************************************
//    2   Filename:       OSAL_Nv.c
//    3   Revised:        $Date: 2011-06-05 18:52:21 -0700 (Sun, 05 Jun 2011) $
//    4   Revision:       $Revision: 26212 $
//    5 
//    6   Description:    This module contains the OSAL non-volatile memory functions.
//    7 
//    8 
//    9   Copyright 2006-2011 Texas Instruments Incorporated. All rights reserved.
//   10 
//   11   IMPORTANT: Your use of this Software is limited to those specific rights
//   12   granted under the terms of a software license agreement between the user
//   13   who downloaded the software, his/her employer (which must be your employer)
//   14   and Texas Instruments Incorporated (the "License"). You may not use this
//   15   Software unless you agree to abide by the terms of the License. The License
//   16   limits your use, and you acknowledge, that the Software may not be modified,
//   17   copied or distributed unless embedded on a Texas Instruments microcontroller
//   18   or used solely and exclusively in conjunction with a Texas Instruments radio
//   19   frequency transceiver, which is integrated into your product. Other than for
//   20   the foregoing purpose, you may not use, reproduce, copy, prepare derivative
//   21   works of, modify, distribute, perform, display or sell this Software and/or
//   22   its documentation for any purpose.
//   23 
//   24   YOU FURTHER ACKNOWLEDGE AND AGREE THAT THE SOFTWARE AND DOCUMENTATION ARE
//   25   PROVIDED “AS IS” WITHOUT WARRANTY OF ANY KIND, EITHER EXPRESS OR IMPLIED,
//   26   INCLUDING WITHOUT LIMITATION, ANY WARRANTY OF MERCHANTABILITY, TITLE,
//   27   NON-INFRINGEMENT AND FITNESS FOR A PARTICULAR PURPOSE. IN NO EVENT SHALL
//   28   TEXAS INSTRUMENTS OR ITS LICENSORS BE LIABLE OR OBLIGATED UNDER CONTRACT,
//   29   NEGLIGENCE, STRICT LIABILITY, CONTRIBUTION, BREACH OF WARRANTY, OR OTHER
//   30   LEGAL EQUITABLE THEORY ANY DIRECT OR INDIRECT DAMAGES OR EXPENSES
//   31   INCLUDING BUT NOT LIMITED TO ANY INCIDENTAL, SPECIAL, INDIRECT, PUNITIVE
//   32   OR CONSEQUENTIAL DAMAGES, LOST PROFITS OR LOST DATA, COST OF PROCUREMENT
//   33   OF SUBSTITUTE GOODS, TECHNOLOGY, SERVICES, OR ANY CLAIMS BY THIRD PARTIES
//   34   (INCLUDING BUT NOT LIMITED TO ANY DEFENSE THEREOF), OR OTHER SIMILAR COSTS.
//   35 
//   36   Should you have any questions regarding your right to use this Software,
//   37   contact Texas Instruments Incorporated at www.TI.com.
//   38 ******************************************************************************/
//   39 
//   40 /******************************************************************************
//   41   Notes:
//   42     - A trick buried deep in initPage() requires that the MSB of the NV Item Id
//   43       is to be reserved for use by this module.
//   44 ******************************************************************************/
//   45 
//   46 /*********************************************************************
//   47  * INCLUDES
//   48  */
//   49 
//   50 #include "hal_adc.h"
//   51 #include "hal_flash.h"
//   52 #include "hal_types.h"
//   53 #include "OSAL_Nv.h"
//   54 #include "ZComDef.h"
//   55 
//   56 /*********************************************************************
//   57  * CONSTANTS
//   58  */
//   59 
//   60 #define OSAL_NV_PAGE_SIZE       HAL_FLASH_PAGE_SIZE
//   61 #define OSAL_NV_PAGES_USED      HAL_NV_PAGE_CNT
//   62 #define OSAL_NV_PAGE_BEG        HAL_NV_PAGE_BEG
//   63 #define OSAL_NV_PAGE_END       (OSAL_NV_PAGE_BEG + OSAL_NV_PAGES_USED - 1)
//   64 
//   65 #define OSAL_NV_ACTIVE          0x00
//   66 #define OSAL_NV_ERASED          0xFF
//   67 #define OSAL_NV_ERASED_ID       0xFFFF
//   68 #define OSAL_NV_ZEROED_ID       0x0000
//   69 // Reserve MSB of Id to signal a search for the "old" source copy (new write interrupted/failed.)
//   70 #define OSAL_NV_SOURCE_ID       0x8000
//   71 
//   72 // In case pages 0-1 are ever used, define a null page value.
//   73 #define OSAL_NV_PAGE_NULL       0
//   74 
//   75 // In case item Id 0 is ever used, define a null item value.
//   76 #define OSAL_NV_ITEM_NULL       0
//   77 
//   78 #define OSAL_NV_WORD_SIZE       HAL_FLASH_WORD_SIZE
//   79 
//   80 #define OSAL_NV_PAGE_HDR_OFFSET 0
//   81 
//   82 #define OSAL_NV_MAX_HOT         3

        RSEG XDATA_ROM_C:CONST:REORDER:NOROOT(0)
        DATA8
//   83 static const uint16 hotIds[OSAL_NV_MAX_HOT] = {
hotIds:
        DATA16
        DW 130
        DW 58
        DW 59
//   84   ZCD_NV_NWKKEY,
//   85   ZCD_NV_NWK_ACTIVE_KEY_INFO,
//   86   ZCD_NV_NWK_ALTERN_KEY_INFO,
//   87 };
//   88 
//   89 /*********************************************************************
//   90  * MACROS
//   91  */
//   92 
//   93 #define OSAL_NV_CHECK_BUS_VOLTAGE  HalAdcCheckVdd(VDD_MIN_NV)
//   94 
//   95 #define OSAL_NV_DATA_SIZE( LEN )                      \ 
//   96   (((LEN) >= ((uint16)(65536UL - OSAL_NV_WORD_SIZE))) ? \ 
//   97              ((uint16)(65536UL - OSAL_NV_WORD_SIZE))  : \ 
//   98              ((((LEN) + OSAL_NV_WORD_SIZE - 1) / OSAL_NV_WORD_SIZE) * OSAL_NV_WORD_SIZE))
//   99 
//  100 #define OSAL_NV_ITEM_SIZE( LEN )                                         \ 
//  101   (((LEN) >= ((uint16)(65536UL - OSAL_NV_WORD_SIZE - OSAL_NV_HDR_SIZE))) ? \ 
//  102              ((uint16)(65536UL - OSAL_NV_WORD_SIZE))                     : \ 
//  103   (((((LEN) + OSAL_NV_WORD_SIZE - 1) / OSAL_NV_WORD_SIZE) * OSAL_NV_WORD_SIZE) + OSAL_NV_HDR_SIZE))
//  104 
//  105 #define COMPACT_PAGE_CLEANUP( COM_PG ) st ( \ 
//  106   /* In order to recover from a page compaction that is interrupted,\ 
//  107    * the logic in osal_nv_init() depends upon the following order:\ 
//  108    * 1. State of the target of compaction is changed to ePgInUse.\ 
//  109    * 2. Compacted page is erased.\ 
//  110    */\ 
//  111   setPageUse( pgRes, TRUE );  /* Mark the reserve page as being in use. */\ 
//  112   erasePage( (COM_PG) ); \ 
//  113   \ 
//  114   pgRes = (COM_PG);           /* Set the reserve page to be the newly erased page. */\ 
//  115 )
//  116 
//  117 /*********************************************************************
//  118  * TYPEDEFS
//  119  */
//  120 
//  121 typedef struct
//  122 {
//  123   uint16 id;
//  124   uint16 len;   // Enforce Flash-WORD size on len.
//  125   uint16 chk;   // Byte-wise checksum of the 'len' data bytes of the item.
//  126   uint16 stat;  // Item status.
//  127 } osalNvHdr_t;
//  128 // Struct member offsets.
//  129 #define OSAL_NV_HDR_ID    0
//  130 #define OSAL_NV_HDR_LEN   2
//  131 #define OSAL_NV_HDR_CHK   4
//  132 #define OSAL_NV_HDR_STAT  6
//  133 
//  134 #define OSAL_NV_HDR_ITEM  2  // Length of any item of a header struct.
//  135 #define OSAL_NV_HDR_SIZE  8
//  136 #define OSAL_NV_HDR_HALF (OSAL_NV_HDR_SIZE / 2)
//  137 
//  138 typedef struct
//  139 {
//  140   uint16 active;
//  141   uint16 inUse;
//  142   uint16 xfer;
//  143   uint16 spare;
//  144 } osalNvPgHdr_t;
//  145 // Struct member offsets.
//  146 #define OSAL_NV_PG_ACTIVE 0
//  147 #define OSAL_NV_PG_INUSE  2
//  148 #define OSAL_NV_PG_XFER   4
//  149 #define OSAL_NV_PG_SPARE  6
//  150 
//  151 #define OSAL_NV_PAGE_HDR_SIZE  8
//  152 #define OSAL_NV_PAGE_HDR_HALF (OSAL_NV_PAGE_HDR_SIZE / 2)
//  153 
//  154 typedef enum
//  155 {
//  156   eNvXfer,
//  157   eNvZero
//  158 } eNvHdrEnum;
//  159 
//  160 typedef enum
//  161 {
//  162   ePgActive,
//  163   ePgInUse,
//  164   ePgXfer,
//  165   ePgSpare
//  166 } ePgHdrEnum;
//  167 
//  168 /*********************************************************************
//  169  * GLOBAL VARIABLES
//  170  */
//  171 
//  172 #ifndef OAD_KEEP_NV_PAGES
//  173 // When NV pages are to remain intact during OAD download,
//  174 // the image itself should not include NV pages.
//  175 #pragma location="ZIGNV_ADDRESS_SPACE"

        RSEG ZIGNV_ADDRESS_SPACE:XDATA:REORDER:NOROOT(0)
        DATA8
//  176 __no_init uint8 _nvBuf[OSAL_NV_PAGES_USED * OSAL_NV_PAGE_SIZE];
_nvBuf:
        DS 12288
//  177 #pragma required=_nvBuf
//  178 #endif // OAD_KEEP_NV_PAGES
//  179 
//  180 /*********************************************************************
//  181  * LOCAL VARIABLES
//  182  */
//  183 
//  184 // Offset into the page of the first available erased space.

        RSEG XDATA_Z:XDATA:NOROOT(0)
        DATA8
//  185 static uint16 pgOff[OSAL_NV_PAGES_USED];
pgOff:
        DS 12
        REQUIRE __INIT_XDATA_Z
        REQUIRE _nvBuf
//  186 
//  187 // Count of the bytes lost for the zeroed-out items.

        RSEG XDATA_Z:XDATA:NOROOT(0)
        DATA8
//  188 static uint16 pgLost[OSAL_NV_PAGES_USED];
pgLost:
        DS 12
        REQUIRE __INIT_XDATA_Z
//  189 

        RSEG XDATA_Z:XDATA:NOROOT(0)
        DATA8
//  190 static uint8 pgRes;  // Page reserved for item compacting transfer.
pgRes:
        DS 1
        REQUIRE __INIT_XDATA_Z
//  191 
//  192 // Saving ~100 code bytes to move a uint8* parameter/return value from findItem() to a global.

        RSEG XDATA_Z:XDATA:NOROOT(0)
        DATA8
//  193 static uint8 findPg;
findPg:
        DS 1
        REQUIRE __INIT_XDATA_Z
//  194 
//  195 // NV page and offsets for hot items.

        RSEG XDATA_Z:XDATA:NOROOT(0)
        DATA8
//  196 static uint8 hotPg[OSAL_NV_MAX_HOT];
hotPg:
        DS 3
        REQUIRE __INIT_XDATA_Z

        RSEG XDATA_Z:XDATA:NOROOT(0)
        DATA8
//  197 static uint16 hotOff[OSAL_NV_MAX_HOT];
hotOff:
        DS 6
        REQUIRE __INIT_XDATA_Z
//  198 
//  199 /*********************************************************************
//  200  * LOCAL FUNCTIONS
//  201  */
//  202 
//  203 static uint8  initNV( void );
//  204 
//  205 static void   setPageUse( uint8 pg, uint8 inUse );
//  206 static uint16 initPage( uint8 pg, uint16 id, uint8 findDups );
//  207 static void   erasePage( uint8 pg );
//  208 static uint8  compactPage( uint8 srcPg, uint16 skipId );
//  209 
//  210 static uint16 findItem( uint16 id );
//  211 static uint8  initItem( uint8 flag, uint16 id, uint16 len, void *buf );
//  212 static void   setItem( uint8 pg, uint16 offset, eNvHdrEnum stat );
//  213 static uint16 setChk( uint8 pg, uint16 offset, uint16 chk );
//  214 
//  215 static uint16 calcChkB( uint16 len, uint8 *buf );
//  216 static uint16 calcChkF( uint8 pg, uint16 offset, uint16 len );
//  217 
//  218 static void   writeWord( uint8 pg, uint16 offset, uint8 *buf );
//  219 static void   writeWordH( uint8 pg, uint16 offset, uint8 *buf );
//  220 static void   writeWordM( uint8 pg, uint16 offset, uint8 *buf, uint16 cnt );
//  221 static void   writeBuf( uint8 pg, uint16 offset, uint16 len, uint8 *buf );
//  222 static void   xferBuf( uint8 srcPg, uint16 srcOff, uint8 dstPg, uint16 dstOff, uint16 len );
//  223 
//  224 static uint8  writeItem( uint8 pg, uint16 id, uint16 len, void *buf, uint8 flag );
//  225 static uint8  hotItem(uint16 id);
//  226 static void   hotItemUpdate(uint8 pg, uint16 off, uint16 id);
//  227 
//  228 /*********************************************************************
//  229  * @fn      initNV
//  230  *
//  231  * @brief   Initialize the NV flash pages.
//  232  *
//  233  * @param   none
//  234  *
//  235  * @return  TRUE
//  236  */

        RSEG BANKED_CODE:CODE:NOROOT(0)
//  237 static uint8 initNV( void )
initNV:
        CFI Block cfiBlock0 Using cfiCommon0
        CFI Function initNV
        CODE
//  238 {
        FUNCALL initNV, HalFlashRead
        LOCFRAME ISTACK, 0, STACK
        LOCFRAME PSTACK, 0, STACK
        LOCFRAME XSTACK, 22, STACK
        LOCFRAME IOVERLAY, 0, STATIC
        LOCFRAME DOVERLAY, 0, STATIC
        ARGFRAME ISTACK, 0, STACK
        ARGFRAME PSTACK, 0, STACK
        ARGFRAME XSTACK, 22, STACK
        ARGFRAME IOVERLAY, 0, STATIC
        ARGFRAME DOVERLAY, 0, STATIC
        FUNCALL initNV, setPageUse
        LOCFRAME ISTACK, 0, STACK
        LOCFRAME PSTACK, 0, STACK
        LOCFRAME XSTACK, 20, STACK
        LOCFRAME IOVERLAY, 0, STATIC
        LOCFRAME DOVERLAY, 0, STATIC
        ARGFRAME ISTACK, 0, STACK
        ARGFRAME PSTACK, 0, STACK
        ARGFRAME XSTACK, 20, STACK
        ARGFRAME IOVERLAY, 0, STATIC
        ARGFRAME DOVERLAY, 0, STATIC
        FUNCALL initNV, erasePage
        LOCFRAME ISTACK, 0, STACK
        LOCFRAME PSTACK, 0, STACK
        LOCFRAME XSTACK, 20, STACK
        LOCFRAME IOVERLAY, 0, STATIC
        LOCFRAME DOVERLAY, 0, STATIC
        ARGFRAME ISTACK, 0, STACK
        ARGFRAME PSTACK, 0, STACK
        ARGFRAME XSTACK, 20, STACK
        ARGFRAME IOVERLAY, 0, STATIC
        ARGFRAME DOVERLAY, 0, STATIC
        FUNCALL initNV, compactPage
        LOCFRAME ISTACK, 0, STACK
        LOCFRAME PSTACK, 0, STACK
        LOCFRAME XSTACK, 20, STACK
        LOCFRAME IOVERLAY, 0, STATIC
        LOCFRAME DOVERLAY, 0, STATIC
        ARGFRAME ISTACK, 0, STACK
        ARGFRAME PSTACK, 0, STACK
        ARGFRAME XSTACK, 20, STACK
        ARGFRAME IOVERLAY, 0, STATIC
        ARGFRAME DOVERLAY, 0, STATIC
        FUNCALL initNV, erasePage
        LOCFRAME ISTACK, 0, STACK
        LOCFRAME PSTACK, 0, STACK
        LOCFRAME XSTACK, 20, STACK
        LOCFRAME IOVERLAY, 0, STATIC
        LOCFRAME DOVERLAY, 0, STATIC
        ARGFRAME ISTACK, 0, STACK
        ARGFRAME PSTACK, 0, STACK
        ARGFRAME XSTACK, 20, STACK
        ARGFRAME IOVERLAY, 0, STATIC
        ARGFRAME DOVERLAY, 0, STATIC
        FUNCALL initNV, erasePage
        LOCFRAME ISTACK, 0, STACK
        LOCFRAME PSTACK, 0, STACK
        LOCFRAME XSTACK, 20, STACK
        LOCFRAME IOVERLAY, 0, STATIC
        LOCFRAME DOVERLAY, 0, STATIC
        ARGFRAME ISTACK, 0, STACK
        ARGFRAME PSTACK, 0, STACK
        ARGFRAME XSTACK, 20, STACK
        ARGFRAME IOVERLAY, 0, STATIC
        ARGFRAME DOVERLAY, 0, STATIC
        FUNCALL initNV, initPage
        LOCFRAME ISTACK, 0, STACK
        LOCFRAME PSTACK, 0, STACK
        LOCFRAME XSTACK, 20, STACK
        LOCFRAME IOVERLAY, 0, STATIC
        LOCFRAME DOVERLAY, 0, STATIC
        ARGFRAME ISTACK, 0, STACK
        ARGFRAME PSTACK, 0, STACK
        ARGFRAME XSTACK, 20, STACK
        ARGFRAME IOVERLAY, 0, STATIC
        ARGFRAME DOVERLAY, 0, STATIC
        FUNCALL initNV, initPage
        LOCFRAME ISTACK, 0, STACK
        LOCFRAME PSTACK, 0, STACK
        LOCFRAME XSTACK, 20, STACK
        LOCFRAME IOVERLAY, 0, STATIC
        LOCFRAME DOVERLAY, 0, STATIC
        ARGFRAME ISTACK, 0, STACK
        ARGFRAME PSTACK, 0, STACK
        ARGFRAME XSTACK, 20, STACK
        ARGFRAME IOVERLAY, 0, STATIC
        ARGFRAME DOVERLAY, 0, STATIC
        FUNCALL initNV, erasePage
        LOCFRAME ISTACK, 0, STACK
        LOCFRAME PSTACK, 0, STACK
        LOCFRAME XSTACK, 20, STACK
        LOCFRAME IOVERLAY, 0, STATIC
        LOCFRAME DOVERLAY, 0, STATIC
        ARGFRAME ISTACK, 0, STACK
        ARGFRAME PSTACK, 0, STACK
        ARGFRAME XSTACK, 20, STACK
        ARGFRAME IOVERLAY, 0, STATIC
        ARGFRAME DOVERLAY, 0, STATIC
        MOV     A,#-0xc
        LCALL   ?BANKED_ENTER_XDATA
        CFI DPH0 load(1, XDATA, add(CFA_XSP16, literal(-1)))
        CFI DPL0 load(1, XDATA, add(CFA_XSP16, literal(-2)))
        CFI ?BRET_EXT load(1, XDATA, add(CFA_XSP16, literal(-3)))
        CFI ?RET_HIGH load(1, XDATA, add(CFA_XSP16, literal(-4)))
        CFI ?RET_LOW load(1, XDATA, add(CFA_XSP16, literal(-5)))
        CFI R7 load(1, XDATA, add(CFA_XSP16, literal(-6)))
        CFI V3 load(1, XDATA, add(CFA_XSP16, literal(-7)))
        CFI V2 load(1, XDATA, add(CFA_XSP16, literal(-8)))
        CFI V1 load(1, XDATA, add(CFA_XSP16, literal(-9)))
        CFI V0 load(1, XDATA, add(CFA_XSP16, literal(-10)))
        CFI VB load(1, XDATA, add(CFA_XSP16, literal(-11)))
        CFI R6 load(1, XDATA, add(CFA_XSP16, literal(-12)))
        CFI CFA_SP SP+0
        CFI CFA_XSP16 add(XSP16, 12)
        ; Saved register size: 12
        ; Auto size: 8
        MOV     A,#-0x8
        LCALL   ?ALLOC_XSTACK8
        CFI CFA_XSP16 add(XSP16, 20)
//  239   osalNvPgHdr_t pgHdr;
//  240   uint8 oldPg = OSAL_NV_PAGE_NULL;
        MOV     R6,#0x0
//  241   uint8 findDups = FALSE;
        MOV     ?V0 + 0,R6
//  242   uint8 pg;
//  243 
//  244   pgRes = OSAL_NV_PAGE_NULL;
        MOV     DPTR,#pgRes
        CLR     A
        MOVX    @DPTR,A
//  245 
//  246   for ( pg = OSAL_NV_PAGE_BEG; pg <= OSAL_NV_PAGE_END; pg++ )
        MOV     R7,#0x79
//  247   {
//  248     HalFlashRead(pg, OSAL_NV_PAGE_HDR_OFFSET, (uint8 *)(&pgHdr), OSAL_NV_HDR_SIZE);
??initNV_0:
        ; Setup parameters for call to function HalFlashRead
        MOV     ?V0 + 2,#0x8
        MOV     ?V0 + 3,#0x0
        MOV     R0,#?V0 + 2
        LCALL   ?PUSH_XSTACK_I_TWO
        CFI CFA_XSP16 add(XSP16, 22)
        MOV     A,#0x2
        LCALL   ?XSTACK_DISP0_8
        MOV     R4,DPL
        MOV     R5,DPH
        MOV     R2,#0x0
        MOV     R3,#0x0
        MOV     A,R7
        MOV     R1,A
        LCALL   ??Subroutine53_0 & 0xFFFF
??CrossCallReturnLabel_94:
        LCALL   ?DEALLOC_XSTACK8
        CFI CFA_XSP16 add(XSP16, 20)
//  249 
//  250     if ( pgHdr.active == OSAL_NV_ERASED_ID )
        MOV     DPL,?XSP + 0
        MOV     DPH,?XSP + 1
        MOVX    A,@DPTR
        CPL     A
        JNZ     ??initNV_1
        INC     DPTR
        MOVX    A,@DPTR
        CPL     A
??initNV_1:
        JNZ     ??initNV_2
//  251     {
//  252       if ( pgRes == OSAL_NV_PAGE_NULL )
        MOV     DPTR,#pgRes
        MOVX    A,@DPTR
        JNZ     ??initNV_3
//  253       {
//  254         pgRes = pg;
        MOV     A,R7
        MOVX    @DPTR,A
        SJMP    ??initNV_4
//  255       }
//  256       else
//  257       {
//  258         setPageUse( pg, TRUE );
??initNV_3:
        ; Setup parameters for call to function setPageUse
        MOV     R2,#0x1
        MOV     A,R7
        MOV     R1,A
        LCALL   ??setPageUse?relay
        SJMP    ??initNV_4
//  259       }
//  260     }
//  261     // An Xfer from this page was in progress.
//  262     else if ( pgHdr.xfer != OSAL_NV_ERASED_ID )
??initNV_2:
        MOV     A,#0x4
        LCALL   ?XSTACK_DISP0_8
        MOVX    A,@DPTR
        CPL     A
        JNZ     ??initNV_5
        INC     DPTR
        MOVX    A,@DPTR
        CPL     A
??initNV_5:
        JZ      ??initNV_4
//  263     {
//  264       oldPg = pg;
        MOV     A,R7
        MOV     R6,A
//  265     }
//  266   }
??initNV_4:
        INC     R7
        MOV     A,R7
        CLR     C
        SUBB    A,#0x7f
        JC      ??initNV_0
//  267 
//  268   // If a page compaction was interrupted before the old page was erased.
//  269   if ( oldPg != OSAL_NV_PAGE_NULL )
        MOV     A,R6
        MOV     DPTR,#pgRes
        JZ      ??initNV_6
//  270   {
//  271     /* Interrupted compaction before the target of compaction was put in use;
//  272      * so erase the target of compaction and start again.
//  273      */
//  274     if ( pgRes != OSAL_NV_PAGE_NULL )
        MOVX    A,@DPTR
        JZ      ??initNV_7
//  275     {
//  276       erasePage( pgRes );
        ; Setup parameters for call to function erasePage
        MOV     R1,A
        LCALL   ??erasePage?relay
//  277       (void)compactPage( oldPg, OSAL_NV_ITEM_NULL );
        ; Setup parameters for call to function compactPage
        MOV     R2,#0x0
        MOV     R3,#0x0
        MOV     A,R6
        MOV     R1,A
        LCALL   ??compactPage?relay
        SJMP    ??initNV_8
//  278     }
//  279     /* Interrupted compaction after the target of compaction was put in use,
//  280      * but before the old page was erased; so erase it now and create a new reserve page.
//  281      */
//  282     else
//  283     {
//  284       erasePage( oldPg );
??initNV_7:
        ; Setup parameters for call to function erasePage
        MOV     A,R6
        MOV     R1,A
        LCALL   ??erasePage?relay
//  285       pgRes = oldPg;
        MOV     A,R6
        MOV     DPTR,#pgRes
        MOVX    @DPTR,A
        SJMP    ??initNV_8
//  286     }
//  287   }
//  288   else if ( pgRes != OSAL_NV_PAGE_NULL )
??initNV_6:
        MOVX    A,@DPTR
        JZ      ??initNV_8
//  289   {
//  290     erasePage( pgRes );  // The last page erase could have been interrupted by a power-cycle.
        ; Setup parameters for call to function erasePage
        MOV     R1,A
        LCALL   ??erasePage?relay
//  291   }
//  292   /* else if there is no reserve page, COMPACT_PAGE_CLEANUP() must have succeeded to put the old
//  293    * reserve page (i.e. the target of the compacted items) into use but got interrupted by a reset
//  294    * while trying to erase the page to be compacted. Such a page should only contain duplicate items
//  295    * (i.e. all items will be marked 'Xfer') and thus should have the lost count equal to the page
//  296    * size less the page header.
//  297    */
//  298 
//  299   for ( pg = OSAL_NV_PAGE_BEG; pg <= OSAL_NV_PAGE_END; pg++ )
??initNV_8:
        MOV     R7,#0x79
//  300   {
//  301     // Calculate page offset and lost bytes - any "old" item triggers an N^2 re-scan from start.
//  302     if ( initPage( pg, OSAL_NV_ITEM_NULL, findDups ) != OSAL_NV_ITEM_NULL )
??initNV_9:
        ; Setup parameters for call to function initPage
        MOV     R4,?V0 + 0
        MOV     R2,#0x0
        MOV     R3,#0x0
        MOV     A,R7
        MOV     R1,A
        LCALL   ??initPage?relay
        MOV     ?V0 + 3,R3
        MOV     A,R2
        ORL     A,?V0 + 3
        JZ      ??initNV_10
//  303     {
//  304       findDups = TRUE;
        MOV     ?V0 + 0,#0x1
//  305       pg = (OSAL_NV_PAGE_BEG - 1);  // Pre-decrement so that loop increment will start over at zero.
        MOV     R7,#0x78
//  306       continue;
//  307     }
//  308   }
??initNV_10:
        INC     R7
        MOV     A,R7
        CLR     C
        SUBB    A,#0x7f
        JC      ??initNV_9
//  309 
//  310   if (findDups)
        MOV     A,?V0 + 0
        MOV     C,0xE0 /* A   */.0
        JNC     ??initNV_11
//  311   {
//  312     // Final pass to calculate page lost after invalidating duplicate items.
//  313     for ( pg = OSAL_NV_PAGE_BEG; pg <= OSAL_NV_PAGE_END; pg++ )
        MOV     R7,#0x79
//  314     {
//  315       (void)initPage( pg, OSAL_NV_ITEM_NULL, FALSE );
??initNV_12:
        ; Setup parameters for call to function initPage
        MOV     R4,#0x0
        MOV     R2,#0x0
        MOV     R3,#0x0
        MOV     A,R7
        MOV     R1,A
        LCALL   ??initPage?relay
//  316     }
        INC     R7
        MOV     A,R7
        CLR     C
        SUBB    A,#0x7f
        JC      ??initNV_12
//  317   }
//  318 
//  319   if ( pgRes == OSAL_NV_PAGE_NULL )
??initNV_11:
        MOV     DPTR,#pgRes
        MOVX    A,@DPTR
        JNZ     ??initNV_13
//  320   {
//  321     uint8 idx, mostLost = 0;
        MOV     R7,#0x0
//  322 
//  323     for ( idx = 0; idx < OSAL_NV_PAGES_USED; idx++ )
        MOV     R4,#0x0
//  324     {
//  325       // Is this the page that was compacted?
//  326       if (pgLost[idx] == (OSAL_NV_PAGE_SIZE - OSAL_NV_PAGE_HDR_SIZE))
??initNV_14:
        MOV     A,R4
        CLR     C
        RLC     A
        MOV     R0,A
        CLR     A
        RLC     A
        MOV     R1,A
        MOV     A,#pgLost & 0xff
        ADD     A,R0
        MOV     DPL,A
        MOV     A,#(pgLost >> 8) & 0xff
        LCALL   ?Subroutine17 & 0xFFFF
??CrossCallReturnLabel_122:
        MOV     A,#-0x8
        XRL     A,R2
        JNZ     ??initNV_15
        MOV     A,#0x7
        XRL     A,R3
??initNV_15:
        JNZ     ??initNV_16
//  327       {
//  328         mostLost = idx;
        MOV     A,R4
        MOV     R7,A
//  329         break;
        SJMP    ??initNV_17
//  330       }
//  331       /* This check is not expected to be necessary because the above test should always succeed
//  332        * with an early loop exit.
//  333        */
//  334       else if (pgLost[idx] > pgLost[mostLost])
??initNV_16:
        MOV     A,R7
        CLR     C
        RLC     A
        MOV     R0,A
        CLR     A
        RLC     A
        MOV     R1,A
        LCALL   ?Subroutine32 & 0xFFFF
??CrossCallReturnLabel_45:
        CLR     C
        MOVX    A,@DPTR
        SUBB    A,R2
        INC     DPTR
        MOVX    A,@DPTR
        SUBB    A,R3
        JNC     ??initNV_18
//  335       {
//  336         mostLost = idx;
        MOV     A,R4
        MOV     R7,A
//  337       }
//  338     }
??initNV_18:
        INC     R4
        MOV     A,R4
        CLR     C
        SUBB    A,#0x6
        JC      ??initNV_14
//  339 
//  340     pgRes = mostLost + OSAL_NV_PAGE_BEG;
??initNV_17:
        MOV     A,#0x79
        ADD     A,R7
        MOV     DPTR,#pgRes
        MOVX    @DPTR,A
//  341     erasePage( pgRes );  // The last page erase had been interrupted by a power-cycle.
        ; Setup parameters for call to function erasePage
        MOV     R1,A
        LCALL   ??erasePage?relay
//  342   }
//  343 
//  344   return TRUE;
??initNV_13:
        MOV     R1,#0x1
        LJMP    ?Subroutine0 & 0xFFFF
        CFI EndBlock cfiBlock0
//  345 }
//  346 
//  347 /*********************************************************************
//  348  * @fn      setPageUse
//  349  *
//  350  * @brief   Set page header active/inUse state according to 'inUse'.
//  351  *
//  352  * @param   pg - Valid NV page to verify and init.
//  353  * @param   inUse - Boolean TRUE if inUse, FALSE if only active.
//  354  *
//  355  * @return  none
//  356  */

        RSEG BANKED_CODE:CODE:NOROOT(0)
//  357 static void setPageUse( uint8 pg, uint8 inUse )
setPageUse:
        CFI Block cfiBlock1 Using cfiCommon0
        CFI Function setPageUse
        CODE
//  358 {
        FUNCALL setPageUse, writeWord
        LOCFRAME ISTACK, 0, STACK
        LOCFRAME PSTACK, 0, STACK
        LOCFRAME XSTACK, 17, STACK
        LOCFRAME IOVERLAY, 0, STATIC
        LOCFRAME DOVERLAY, 0, STATIC
        ARGFRAME ISTACK, 0, STACK
        ARGFRAME PSTACK, 0, STACK
        ARGFRAME XSTACK, 17, STACK
        ARGFRAME IOVERLAY, 0, STATIC
        ARGFRAME DOVERLAY, 0, STATIC
        MOV     A,#-0x9
        LCALL   ?BANKED_ENTER_XDATA
        CFI DPH0 load(1, XDATA, add(CFA_XSP16, literal(-1)))
        CFI DPL0 load(1, XDATA, add(CFA_XSP16, literal(-2)))
        CFI ?BRET_EXT load(1, XDATA, add(CFA_XSP16, literal(-3)))
        CFI ?RET_HIGH load(1, XDATA, add(CFA_XSP16, literal(-4)))
        CFI ?RET_LOW load(1, XDATA, add(CFA_XSP16, literal(-5)))
        CFI R7 load(1, XDATA, add(CFA_XSP16, literal(-6)))
        CFI V0 load(1, XDATA, add(CFA_XSP16, literal(-7)))
        CFI VB load(1, XDATA, add(CFA_XSP16, literal(-8)))
        CFI R6 load(1, XDATA, add(CFA_XSP16, literal(-9)))
        CFI CFA_SP SP+0
        CFI CFA_XSP16 add(XSP16, 9)
        ; Saved register size: 9
        ; Auto size: 8
        MOV     A,#-0x8
        LCALL   ?ALLOC_XSTACK8
        CFI CFA_XSP16 add(XSP16, 17)
        MOV     A,R2
        MOV     R7,A
//  359   osalNvPgHdr_t pgHdr;
//  360 
//  361   pgHdr.active = OSAL_NV_ZEROED_ID;
        MOV     DPL,?XSP + 0
        MOV     DPH,?XSP + 1
        CLR     A
        MOVX    @DPTR,A
        INC     DPTR
        MOVX    @DPTR,A
//  362 
//  363   if ( inUse )
        MOV     A,R7
        JZ      ??setPageUse_0
//  364   {
//  365     pgHdr.inUse = OSAL_NV_ZEROED_ID;
        MOV     A,#0x2
        LCALL   ?XSTACK_DISP0_8
        CLR     A
        SJMP    ??setPageUse_1
//  366   }
//  367   else
//  368   {
//  369     pgHdr.inUse = OSAL_NV_ERASED_ID;
??setPageUse_0:
        MOV     A,#0x2
        LCALL   ?XSTACK_DISP0_8
        MOV     A,#-0x1
//  370   }
??setPageUse_1:
        LCALL   ??Subroutine50_0 & 0xFFFF
//  371 
//  372   writeWord( pg, OSAL_NV_PAGE_HDR_OFFSET, (uint8*)(&pgHdr) );
??CrossCallReturnLabel_85:
        MOV     R2,#0x0
        MOV     R3,#0x0
        LCALL   ??writeWord?relay
//  373 }
        MOV     A,#0x8
        CFI EndBlock cfiBlock1
        REQUIRE ?Subroutine1
        ; // Fall through to label ?Subroutine1

        RSEG BANKED_CODE:CODE:NOROOT(0)
?Subroutine1:
        CFI Block cfiBlock2 Using cfiCommon0
        CFI NoFunction
        CFI CFA_SP SP+0
        CFI CFA_XSP16 add(XSP16, 17)
        CFI VB load(1, XDATA, add(CFA_XSP16, literal(-8)))
        CFI DPL0 load(1, XDATA, add(CFA_XSP16, literal(-2)))
        CFI DPH0 load(1, XDATA, add(CFA_XSP16, literal(-1)))
        CFI R6 load(1, XDATA, add(CFA_XSP16, literal(-9)))
        CFI R7 load(1, XDATA, add(CFA_XSP16, literal(-6)))
        CFI V0 load(1, XDATA, add(CFA_XSP16, literal(-7)))
        CFI ?BRET_EXT load(1, XDATA, add(CFA_XSP16, literal(-3)))
        CFI ?RET_HIGH load(1, XDATA, add(CFA_XSP16, literal(-4)))
        CFI ?RET_LOW load(1, XDATA, add(CFA_XSP16, literal(-5)))
        CFI Invalid
        LCALL   ?DEALLOC_XSTACK8
        CFI EndBlock cfiBlock2
        REQUIRE ??Subroutine46_0
        ; // Fall through to label ??Subroutine46_0

        RSEG BANKED_CODE:CODE:NOROOT(0)
??Subroutine46_0:
        CFI Block cfiBlock3 Using cfiCommon0
        CFI NoFunction
        CFI CFA_SP SP+0
        CFI CFA_XSP16 add(XSP16, 9)
        CFI VB load(1, XDATA, add(CFA_XSP16, literal(-8)))
        CFI DPL0 load(1, XDATA, add(CFA_XSP16, literal(-2)))
        CFI DPH0 load(1, XDATA, add(CFA_XSP16, literal(-1)))
        CFI R6 load(1, XDATA, add(CFA_XSP16, literal(-9)))
        CFI R7 load(1, XDATA, add(CFA_XSP16, literal(-6)))
        CFI V0 load(1, XDATA, add(CFA_XSP16, literal(-7)))
        CFI ?BRET_EXT load(1, XDATA, add(CFA_XSP16, literal(-3)))
        CFI ?RET_HIGH load(1, XDATA, add(CFA_XSP16, literal(-4)))
        CFI ?RET_LOW load(1, XDATA, add(CFA_XSP16, literal(-5)))
        MOV     R7,#0x1
        LJMP    ?BANKED_LEAVE_XDATA
        CFI EndBlock cfiBlock3
//  374 
//  375 /*********************************************************************
//  376  * @fn      initPage
//  377  *
//  378  * @brief   Walk the page items; calculate checksums, lost bytes & page offset.
//  379  *
//  380  * @param   pg - Valid NV page to verify and init.
//  381  * @param   id - Valid NV item Id to use function as a "findItem".
//  382  *               If set to NULL then just perform the page initialization.
//  383  * @param   findDups - TRUE on recursive call from initNV() to find and zero-out duplicate items
//  384  *                     left from a write that is interrupted by a reset/power-cycle.
//  385  *                     FALSE otherwise.
//  386  *
//  387  * @return  If 'id' is non-NULL and good checksums are found, return the offset
//  388  *          of the data corresponding to item Id; else OSAL_NV_ITEM_NULL.
//  389  */

        RSEG BANKED_CODE:CODE:NOROOT(0)
//  390 static uint16 initPage( uint8 pg, uint16 id, uint8 findDups )
initPage:
        CFI Block cfiBlock4 Using cfiCommon0
        CFI Function initPage
        CODE
//  391 {
        FUNCALL initPage, HalFlashRead
        LOCFRAME ISTACK, 0, STACK
        LOCFRAME PSTACK, 0, STACK
        LOCFRAME XSTACK, 28, STACK
        LOCFRAME IOVERLAY, 0, STATIC
        LOCFRAME DOVERLAY, 0, STATIC
        ARGFRAME ISTACK, 0, STACK
        ARGFRAME PSTACK, 0, STACK
        ARGFRAME XSTACK, 28, STACK
        ARGFRAME IOVERLAY, 0, STATIC
        ARGFRAME DOVERLAY, 0, STATIC
        FUNCALL initPage, calcChkF
        LOCFRAME ISTACK, 0, STACK
        LOCFRAME PSTACK, 0, STACK
        LOCFRAME XSTACK, 26, STACK
        LOCFRAME IOVERLAY, 0, STATIC
        LOCFRAME DOVERLAY, 0, STATIC
        ARGFRAME ISTACK, 0, STACK
        ARGFRAME PSTACK, 0, STACK
        ARGFRAME XSTACK, 26, STACK
        ARGFRAME IOVERLAY, 0, STATIC
        ARGFRAME DOVERLAY, 0, STATIC
        FUNCALL initPage, findItem
        LOCFRAME ISTACK, 0, STACK
        LOCFRAME PSTACK, 0, STACK
        LOCFRAME XSTACK, 26, STACK
        LOCFRAME IOVERLAY, 0, STATIC
        LOCFRAME DOVERLAY, 0, STATIC
        ARGFRAME ISTACK, 0, STACK
        ARGFRAME PSTACK, 0, STACK
        ARGFRAME XSTACK, 26, STACK
        ARGFRAME IOVERLAY, 0, STATIC
        ARGFRAME DOVERLAY, 0, STATIC
        FUNCALL initPage, setItem
        LOCFRAME ISTACK, 0, STACK
        LOCFRAME PSTACK, 0, STACK
        LOCFRAME XSTACK, 26, STACK
        LOCFRAME IOVERLAY, 0, STATIC
        LOCFRAME DOVERLAY, 0, STATIC
        ARGFRAME ISTACK, 0, STACK
        ARGFRAME PSTACK, 0, STACK
        ARGFRAME XSTACK, 26, STACK
        ARGFRAME IOVERLAY, 0, STATIC
        ARGFRAME DOVERLAY, 0, STATIC
        FUNCALL initPage, setItem
        LOCFRAME ISTACK, 0, STACK
        LOCFRAME PSTACK, 0, STACK
        LOCFRAME XSTACK, 26, STACK
        LOCFRAME IOVERLAY, 0, STATIC
        LOCFRAME DOVERLAY, 0, STATIC
        ARGFRAME ISTACK, 0, STACK
        ARGFRAME PSTACK, 0, STACK
        ARGFRAME XSTACK, 26, STACK
        ARGFRAME IOVERLAY, 0, STATIC
        ARGFRAME DOVERLAY, 0, STATIC
        MOV     A,#-0x12
        LCALL   ?BANKED_ENTER_XDATA
        CFI DPH0 load(1, XDATA, add(CFA_XSP16, literal(-1)))
        CFI DPL0 load(1, XDATA, add(CFA_XSP16, literal(-2)))
        CFI ?BRET_EXT load(1, XDATA, add(CFA_XSP16, literal(-3)))
        CFI ?RET_HIGH load(1, XDATA, add(CFA_XSP16, literal(-4)))
        CFI ?RET_LOW load(1, XDATA, add(CFA_XSP16, literal(-5)))
        CFI R7 load(1, XDATA, add(CFA_XSP16, literal(-6)))
        CFI V9 load(1, XDATA, add(CFA_XSP16, literal(-7)))
        CFI V8 load(1, XDATA, add(CFA_XSP16, literal(-8)))
        CFI V7 load(1, XDATA, add(CFA_XSP16, literal(-9)))
        CFI V6 load(1, XDATA, add(CFA_XSP16, literal(-10)))
        CFI V5 load(1, XDATA, add(CFA_XSP16, literal(-11)))
        CFI V4 load(1, XDATA, add(CFA_XSP16, literal(-12)))
        CFI V3 load(1, XDATA, add(CFA_XSP16, literal(-13)))
        CFI V2 load(1, XDATA, add(CFA_XSP16, literal(-14)))
        CFI V1 load(1, XDATA, add(CFA_XSP16, literal(-15)))
        CFI V0 load(1, XDATA, add(CFA_XSP16, literal(-16)))
        CFI VB load(1, XDATA, add(CFA_XSP16, literal(-17)))
        CFI R6 load(1, XDATA, add(CFA_XSP16, literal(-18)))
        CFI CFA_SP SP+0
        CFI CFA_XSP16 add(XSP16, 18)
        ; Saved register size: 18
        ; Auto size: 8
        MOV     A,#-0x8
        LCALL   ?ALLOC_XSTACK8
        CFI CFA_XSP16 add(XSP16, 26)
        MOV     ?V0 + 4,R1
        MOV     ?V0 + 6,R2
        MOV     ?V0 + 7,R3
        MOV     ?V0 + 5,R4
//  392   uint16 offset = OSAL_NV_PAGE_HDR_SIZE;
        MOV     ?V0 + 2,#0x8
        MOV     ?V0 + 3,#0x0
//  393   uint16 sz, lost = 0;
        MOV     R6,#0x0
        MOV     R7,#0x0
//  394   osalNvHdr_t hdr;
//  395 
//  396   do
//  397   {
//  398     HalFlashRead(pg, offset, (uint8 *)(&hdr), OSAL_NV_HDR_SIZE);
??initPage_0:
        ; Setup parameters for call to function HalFlashRead
        MOV     ?V0 + 0,#0x8
        MOV     ?V0 + 1,#0x0
        MOV     R0,#?V0 + 0
        LCALL   ?PUSH_XSTACK_I_TWO
        CFI CFA_XSP16 add(XSP16, 28)
        MOV     A,#0x2
        LCALL   ?XSTACK_DISP0_8
        MOV     R4,DPL
        MOV     R5,DPH
        MOV     R2,?V0 + 2
        MOV     R3,?V0 + 3
        MOV     R1,?V0 + 4
        LCALL   ??Subroutine53_0 & 0xFFFF
??CrossCallReturnLabel_95:
        LCALL   ?DEALLOC_XSTACK8
        CFI CFA_XSP16 add(XSP16, 26)
//  399 
//  400     if ( hdr.id == OSAL_NV_ERASED_ID )
        MOV     DPL,?XSP + 0
        MOV     DPH,?XSP + 1
        MOVX    A,@DPTR
        CPL     A
        JNZ     ??initPage_1
        INC     DPTR
        MOVX    A,@DPTR
        CPL     A
??initPage_1:
        JNZ     $+5
        LJMP    ??initPage_2 & 0xFFFF
//  401     {
//  402       break;
//  403     }
//  404 
//  405     // Get the actual size in bytes which is the ceiling(hdr.len)
//  406     sz = OSAL_NV_DATA_SIZE( hdr.len );
        MOV     A,#0x2
        LCALL   ?XSTACK_DISP0_8
        LCALL   ?Subroutine15 & 0xFFFF
??CrossCallReturnLabel_10:
        JC      ??initPage_3
        MOV     ?V0 + 0,#-0x4
        MOV     ?V0 + 1,#-0x1
        SJMP    ??initPage_4
??initPage_3:
        LCALL   ?Subroutine34 & 0xFFFF
??CrossCallReturnLabel_47:
        MOV     ?V0 + 0,A
        MOV     A,R1
        MOV     ?V0 + 1,A
//  407 
//  408     // A bad 'len' write has blown away the rest of the page.
//  409     if (sz > (OSAL_NV_PAGE_SIZE - OSAL_NV_HDR_SIZE - offset))
??initPage_4:
        MOV     A,#-0x8
        CLR     C
        SUBB    A,?V0 + 2
        MOV     R0,A
        MOV     A,#0x7
        SUBB    A,?V0 + 3
        MOV     R1,A
        CLR     C
        MOV     A,R0
        SUBB    A,?V0 + 0
        MOV     A,R1
        SUBB    A,?V0 + 1
        JNC     ??initPage_5
//  410     {
//  411       lost += (OSAL_NV_PAGE_SIZE - offset);
        MOV     A,R6
        ADD     A,#0x0
        MOV     R0,A
        MOV     A,R7
        ADDC    A,#0x8
        MOV     R1,A
        MOV     A,R0
        CLR     C
        SUBB    A,?V0 + 2
        MOV     R6,A
        MOV     A,R1
        SUBB    A,?V0 + 3
        MOV     R7,A
//  412       offset = OSAL_NV_PAGE_SIZE;
        MOV     ?V0 + 2,#0x0
        MOV     ?V0 + 3,#0x8
//  413       break;
        LJMP    ??initPage_2 & 0xFFFF
//  414     }
//  415 
//  416     offset += OSAL_NV_HDR_SIZE;
??initPage_5:
        LCALL   ?Subroutine35 & 0xFFFF
//  417 
//  418     if ( hdr.id != OSAL_NV_ZEROED_ID )
??CrossCallReturnLabel_50:
        MOV     DPL,?XSP + 0
        MOV     DPH,?XSP + 1
        LCALL   ?Subroutine27 & 0xFFFF
??CrossCallReturnLabel_31:
        MOV     A,R0
        ORL     A,R1
        JNZ     $+5
        LJMP    ??initPage_6 & 0xFFFF
//  419     {
//  420       /* This trick allows function to do double duty for findItem() without
//  421        * compromising its essential functionality at powerup initialization.
//  422        */
//  423       if ( id != OSAL_NV_ITEM_NULL )
        MOV     A,?V0 + 6
        ORL     A,?V0 + 7
        JZ      ??initPage_7
//  424       {
//  425         /* This trick allows asking to find the old/transferred item in case
//  426          * of a successful new item write that gets interrupted before the
//  427          * old item can be zeroed out.
//  428          */
//  429         if ( (id & 0x7fff) == hdr.id )
        MOV     R0,?V0 + 6
        MOV     A,?V0 + 7
        ANL     A,#0x7f
        MOV     R1,A
        MOV     DPL,?XSP + 0
        MOV     DPH,?XSP + 1
        MOVX    A,@DPTR
        XRL     A,R0
        JNZ     ??initPage_8
        INC     DPTR
        MOVX    A,@DPTR
        XRL     A,R1
??initPage_8:
        JZ      $+5
        LJMP    ??initPage_9 & 0xFFFF
//  430         {
//  431           if ( (((id & OSAL_NV_SOURCE_ID) == 0) && (hdr.stat == OSAL_NV_ERASED_ID)) ||
//  432                (((id & OSAL_NV_SOURCE_ID) != 0) && (hdr.stat != OSAL_NV_ERASED_ID)) )
        MOV     A,#0x6
        LCALL   ?XSTACK_DISP0_8
        LCALL   ?Subroutine27 & 0xFFFF
??CrossCallReturnLabel_32:
        MOV     A,?V0 + 7
        ANL     A,#0x80
        JNZ     ??initPage_10
        MOV     A,#-0x1
        XRL     A,R0
        JNZ     ??initPage_11
        MOV     A,#-0x1
        XRL     A,R1
??initPage_11:
        JZ      $+5
        LJMP    ??initPage_9 & 0xFFFF
        SJMP    ??initPage_12
??initPage_10:
        MOV     A,#-0x1
        XRL     A,R0
        JNZ     ??initPage_13
        MOV     A,#-0x1
        XRL     A,R1
??initPage_13:
        JZ      ??initPage_9
//  433           {
//  434             return offset;
??initPage_12:
        MOV     R2,?V0 + 2
        MOV     R3,?V0 + 3
        LJMP    ??initPage_14 & 0xFFFF
//  435           }
//  436         }
//  437       }
//  438       // When invoked from the osal_nv_init(), verify checksums and find & zero any duplicates.
//  439       else
//  440       {
//  441         if ( hdr.chk == calcChkF( pg, offset, hdr.len ) )
??initPage_7:
        ; Setup parameters for call to function calcChkF
        MOV     R2,?V0 + 2
        MOV     R3,?V0 + 3
        MOV     R1,?V0 + 4
        LCALL   ?Subroutine36 & 0xFFFF
??CrossCallReturnLabel_52:
        MOV     A,#0x4
        LCALL   ?XSTACK_DISP0_8
        MOVX    A,@DPTR
        XRL     A,R0
        JNZ     ??initPage_15
        INC     DPTR
        MOVX    A,@DPTR
        XRL     A,R1
??initPage_15:
        JNZ     ??initPage_16
//  442         {
//  443           if ( findDups )
        MOV     A,#0x6
        LCALL   ?XSTACK_DISP0_8
        LCALL   ?Subroutine27 & 0xFFFF
??CrossCallReturnLabel_33:
        MOV     A,?V0 + 5
        JZ      ??initPage_17
//  444           {
//  445             if ( hdr.stat == OSAL_NV_ERASED_ID )
        MOV     A,#-0x1
        XRL     A,R0
        JNZ     ??initPage_18
        MOV     A,#-0x1
        XRL     A,R1
??initPage_18:
        JNZ     ??initPage_9
//  446             {
//  447               /* The trick of setting the MSB of the item Id causes the logic
//  448                * immediately above to return a valid page only if the header 'stat'
//  449                * indicates that it was the older item being transferred.
//  450                */
//  451               uint16 off = findItem( (hdr.id | OSAL_NV_SOURCE_ID) );
        ; Setup parameters for call to function findItem
        MOV     DPL,?XSP + 0
        MOV     DPH,?XSP + 1
        MOVX    A,@DPTR
        MOV     R2,A
        INC     DPTR
        MOVX    A,@DPTR
        ORL     A,#0x80
        MOV     R3,A
        LCALL   ??findItem?relay
//  452 
//  453               if ( off != OSAL_NV_ITEM_NULL )
        MOV     A,R2
        ORL     A,R3
        JZ      ??initPage_9
//  454               {
//  455                 setItem( findPg, off, eNvZero );  // Mark old duplicate as invalid.
        ; Setup parameters for call to function setItem
        MOV     R4,#0x1
        MOV     DPTR,#findPg
        MOVX    A,@DPTR
        MOV     R1,A
        LCALL   ??setItem?relay
        SJMP    ??initPage_9
//  456               }
//  457             }
//  458           }
//  459           // Any "old" item immediately exits and triggers the N^2 exhaustive initialization.
//  460           else if ( hdr.stat != OSAL_NV_ERASED_ID )
??initPage_17:
        MOV     A,#-0x1
        XRL     A,R0
        JNZ     ??initPage_19
        MOV     A,#-0x1
        XRL     A,R1
??initPage_19:
        JZ      ??initPage_9
//  461           {
//  462             return OSAL_NV_ERASED_ID;
        MOV     R2,#-0x1
        MOV     R3,#-0x1
        SJMP    ??initPage_14
//  463           }
//  464         }
//  465         else
//  466         {
//  467           setItem( pg, offset, eNvZero );  // Mark bad checksum as invalid.
??initPage_16:
        ; Setup parameters for call to function setItem
        MOV     R4,#0x1
        MOV     R2,?V0 + 2
        MOV     R3,?V0 + 3
        MOV     R1,?V0 + 4
        LCALL   ??setItem?relay
//  468           lost += (OSAL_NV_HDR_SIZE + sz);
//  469         }
//  470       }
//  471     }
//  472     else
//  473     {
//  474       lost += (OSAL_NV_HDR_SIZE + sz);
??initPage_6:
        MOV     A,?V0 + 0
        ADD     A,#0x8
        MOV     R0,A
        MOV     A,?V0 + 1
        ADDC    A,#0x0
        MOV     R1,A
        MOV     A,R6
        ADD     A,R0
        MOV     R6,A
        MOV     A,R7
        ADDC    A,R1
        MOV     R7,A
//  475     }
//  476     offset += sz;
??initPage_9:
        MOV     A,?V0 + 2
        ADD     A,?V0 + 0
        MOV     ?V0 + 2,A
        MOV     A,?V0 + 3
        ADDC    A,?V0 + 1
        MOV     ?V0 + 3,A
//  477 
//  478   } while (offset < (OSAL_NV_PAGE_SIZE - OSAL_NV_HDR_SIZE));
        CLR     C
        MOV     A,?V0 + 2
        SUBB    A,#-0x8
        MOV     A,?V0 + 3
        SUBB    A,#0x7
        JNC     $+5
        LJMP    ??initPage_0 & 0xFFFF
//  479 
//  480   pgOff[pg - OSAL_NV_PAGE_BEG] = offset;
??initPage_2:
        MOV     A,?V0 + 4
        LCALL   ??Subroutine48_0 & 0xFFFF
??CrossCallReturnLabel_75:
        MOV     A,?V0 + 2
        MOVX    @DPTR,A
        INC     DPTR
        MOV     A,?V0 + 3
        LCALL   ?Subroutine12 & 0xFFFF
//  481   pgLost[pg - OSAL_NV_PAGE_BEG] = lost;
??CrossCallReturnLabel_4:
        MOV     A,R6
        MOVX    @DPTR,A
        INC     DPTR
        MOV     A,R7
        MOVX    @DPTR,A
//  482 
//  483   return OSAL_NV_ITEM_NULL;
        MOV     R2,#0x0
        MOV     R3,#0x0
??initPage_14:
        MOV     A,#0x8
        SJMP    ??Subroutine47_0
        CFI EndBlock cfiBlock4
//  484 }

        RSEG BANKED_CODE:CODE:NOROOT(0)
?Subroutine2:
        CFI Block cfiBlock5 Using cfiCommon0
        CFI NoFunction
        CFI CFA_SP SP+0
        CFI CFA_XSP16 add(XSP16, 22)
        CFI VB load(1, XDATA, add(CFA_XSP16, literal(-17)))
        CFI DPL0 load(1, XDATA, add(CFA_XSP16, literal(-2)))
        CFI DPH0 load(1, XDATA, add(CFA_XSP16, literal(-1)))
        CFI R6 load(1, XDATA, add(CFA_XSP16, literal(-18)))
        CFI R7 load(1, XDATA, add(CFA_XSP16, literal(-6)))
        CFI V0 load(1, XDATA, add(CFA_XSP16, literal(-16)))
        CFI V1 load(1, XDATA, add(CFA_XSP16, literal(-15)))
        CFI V2 load(1, XDATA, add(CFA_XSP16, literal(-14)))
        CFI V3 load(1, XDATA, add(CFA_XSP16, literal(-13)))
        CFI V4 load(1, XDATA, add(CFA_XSP16, literal(-12)))
        CFI V5 load(1, XDATA, add(CFA_XSP16, literal(-11)))
        CFI V6 load(1, XDATA, add(CFA_XSP16, literal(-10)))
        CFI V7 load(1, XDATA, add(CFA_XSP16, literal(-9)))
        CFI V8 load(1, XDATA, add(CFA_XSP16, literal(-8)))
        CFI V9 load(1, XDATA, add(CFA_XSP16, literal(-7)))
        CFI ?BRET_EXT load(1, XDATA, add(CFA_XSP16, literal(-3)))
        CFI ?RET_HIGH load(1, XDATA, add(CFA_XSP16, literal(-4)))
        CFI ?RET_LOW load(1, XDATA, add(CFA_XSP16, literal(-5)))
        MOV     A,#0x4
        CFI EndBlock cfiBlock5
        REQUIRE ??Subroutine47_0
        ; // Fall through to label ??Subroutine47_0

        RSEG BANKED_CODE:CODE:NOROOT(0)
??Subroutine47_0:
        CFI Block cfiBlock6 Using cfiCommon0
        CFI NoFunction
        CFI CFA_SP SP+0
        CFI CFA_XSP16 add(XSP16, 26)
        CFI VB load(1, XDATA, add(CFA_XSP16, literal(-17)))
        CFI DPL0 load(1, XDATA, add(CFA_XSP16, literal(-2)))
        CFI DPH0 load(1, XDATA, add(CFA_XSP16, literal(-1)))
        CFI R6 load(1, XDATA, add(CFA_XSP16, literal(-18)))
        CFI R7 load(1, XDATA, add(CFA_XSP16, literal(-6)))
        CFI V0 load(1, XDATA, add(CFA_XSP16, literal(-16)))
        CFI V1 load(1, XDATA, add(CFA_XSP16, literal(-15)))
        CFI V2 load(1, XDATA, add(CFA_XSP16, literal(-14)))
        CFI V3 load(1, XDATA, add(CFA_XSP16, literal(-13)))
        CFI V4 load(1, XDATA, add(CFA_XSP16, literal(-12)))
        CFI V5 load(1, XDATA, add(CFA_XSP16, literal(-11)))
        CFI V6 load(1, XDATA, add(CFA_XSP16, literal(-10)))
        CFI V7 load(1, XDATA, add(CFA_XSP16, literal(-9)))
        CFI V8 load(1, XDATA, add(CFA_XSP16, literal(-8)))
        CFI V9 load(1, XDATA, add(CFA_XSP16, literal(-7)))
        CFI ?BRET_EXT load(1, XDATA, add(CFA_XSP16, literal(-3)))
        CFI ?RET_HIGH load(1, XDATA, add(CFA_XSP16, literal(-4)))
        CFI ?RET_LOW load(1, XDATA, add(CFA_XSP16, literal(-5)))
        CFI Invalid
        LCALL   ?DEALLOC_XSTACK8
        CFI CFA_XSP16 add(XSP16, 18)
        CFI Valid
        MOV     R7,#0xa
        LJMP    ?BANKED_LEAVE_XDATA
        CFI EndBlock cfiBlock6
//  485 
//  486 /*********************************************************************
//  487  * @fn      erasePage
//  488  *
//  489  * @brief   Erases a page in Flash.
//  490  *
//  491  * @param   pg - Valid NV page to erase.
//  492  *
//  493  * @return  none
//  494  */

        RSEG BANKED_CODE:CODE:NOROOT(0)
//  495 static void erasePage( uint8 pg )
erasePage:
        CFI Block cfiBlock7 Using cfiCommon0
        CFI Function erasePage
        CODE
//  496 {
        FUNCALL erasePage, HalFlashErase
        LOCFRAME ISTACK, 0, STACK
        LOCFRAME PSTACK, 0, STACK
        LOCFRAME XSTACK, 9, STACK
        LOCFRAME IOVERLAY, 0, STATIC
        LOCFRAME DOVERLAY, 0, STATIC
        ARGFRAME ISTACK, 0, STACK
        ARGFRAME PSTACK, 0, STACK
        ARGFRAME XSTACK, 9, STACK
        ARGFRAME IOVERLAY, 0, STATIC
        ARGFRAME DOVERLAY, 0, STATIC
        MOV     A,#-0x9
        LCALL   ?BANKED_ENTER_XDATA
        CFI DPH0 load(1, XDATA, add(CFA_XSP16, literal(-1)))
        CFI DPL0 load(1, XDATA, add(CFA_XSP16, literal(-2)))
        CFI ?BRET_EXT load(1, XDATA, add(CFA_XSP16, literal(-3)))
        CFI ?RET_HIGH load(1, XDATA, add(CFA_XSP16, literal(-4)))
        CFI ?RET_LOW load(1, XDATA, add(CFA_XSP16, literal(-5)))
        CFI R7 load(1, XDATA, add(CFA_XSP16, literal(-6)))
        CFI V0 load(1, XDATA, add(CFA_XSP16, literal(-7)))
        CFI VB load(1, XDATA, add(CFA_XSP16, literal(-8)))
        CFI R6 load(1, XDATA, add(CFA_XSP16, literal(-9)))
        CFI CFA_SP SP+0
        CFI CFA_XSP16 add(XSP16, 9)
        ; Saved register size: 9
        ; Auto size: 0
        MOV     A,R1
        MOV     R6,A
//  497   HalFlashErase(pg);
        ; Setup parameters for call to function HalFlashErase
        LCALL   ??HalFlashErase?relay
//  498 
//  499   pgOff[pg - OSAL_NV_PAGE_BEG] = OSAL_NV_PAGE_HDR_SIZE;
        LCALL   ?Subroutine29 & 0xFFFF
??CrossCallReturnLabel_77:
        MOV     A,#0x8
        MOVX    @DPTR,A
        INC     DPTR
        CLR     A
        LCALL   ?Subroutine12 & 0xFFFF
//  500   pgLost[pg - OSAL_NV_PAGE_BEG] = 0;
??CrossCallReturnLabel_5:
        CLR     A
        MOVX    @DPTR,A
        INC     DPTR
        MOVX    @DPTR,A
//  501 }
        LJMP    ??Subroutine46_0 & 0xFFFF
        CFI EndBlock cfiBlock7

        RSEG BANKED_CODE:CODE:NOROOT(0)
?Subroutine29:
        CFI Block cfiCond8 Using cfiCommon0
        CFI NoFunction
        CFI Conditional ??CrossCallReturnLabel_77
        CFI R6 load(1, XDATA, add(CFA_XSP16, literal(-9)))
        CFI VB load(1, XDATA, add(CFA_XSP16, literal(-8)))
        CFI V0 load(1, XDATA, add(CFA_XSP16, literal(-7)))
        CFI R7 load(1, XDATA, add(CFA_XSP16, literal(-6)))
        CFI ?RET_LOW load(1, XDATA, add(CFA_XSP16, literal(-5)))
        CFI ?RET_HIGH load(1, XDATA, add(CFA_XSP16, literal(-4)))
        CFI ?BRET_EXT load(1, XDATA, add(CFA_XSP16, literal(-3)))
        CFI DPL0 load(1, XDATA, add(CFA_XSP16, literal(-2)))
        CFI DPH0 load(1, XDATA, add(CFA_XSP16, literal(-1)))
        CFI CFA_SP SP+0
        CFI CFA_XSP16 add(XSP16, 9)
        CFI Block cfiCond9 Using cfiCommon0
        CFI (cfiCond9) NoFunction
        CFI (cfiCond9) Conditional ??CrossCallReturnLabel_78
        CFI (cfiCond9) R6 load(1, XDATA, add(CFA_XSP16, literal(-18)))
        CFI (cfiCond9) VB load(1, XDATA, add(CFA_XSP16, literal(-17)))
        CFI (cfiCond9) V0 load(1, XDATA, add(CFA_XSP16, literal(-16)))
        CFI (cfiCond9) V1 load(1, XDATA, add(CFA_XSP16, literal(-15)))
        CFI (cfiCond9) V2 load(1, XDATA, add(CFA_XSP16, literal(-14)))
        CFI (cfiCond9) V3 load(1, XDATA, add(CFA_XSP16, literal(-13)))
        CFI (cfiCond9) V4 load(1, XDATA, add(CFA_XSP16, literal(-12)))
        CFI (cfiCond9) V5 load(1, XDATA, add(CFA_XSP16, literal(-11)))
        CFI (cfiCond9) V6 load(1, XDATA, add(CFA_XSP16, literal(-10)))
        CFI (cfiCond9) V7 load(1, XDATA, add(CFA_XSP16, literal(-9)))
        CFI (cfiCond9) V8 load(1, XDATA, add(CFA_XSP16, literal(-8)))
        CFI (cfiCond9) V9 load(1, XDATA, add(CFA_XSP16, literal(-7)))
        CFI (cfiCond9) R7 load(1, XDATA, add(CFA_XSP16, literal(-6)))
        CFI (cfiCond9) ?RET_LOW load(1, XDATA, add(CFA_XSP16, literal(-5)))
        CFI (cfiCond9) ?RET_HIGH load(1, XDATA, add(CFA_XSP16, literal(-4)))
        CFI (cfiCond9) ?BRET_EXT load(1, XDATA, add(CFA_XSP16, literal(-3)))
        CFI (cfiCond9) DPL0 load(1, XDATA, add(CFA_XSP16, literal(-2)))
        CFI (cfiCond9) DPH0 load(1, XDATA, add(CFA_XSP16, literal(-1)))
        CFI (cfiCond9) CFA_SP SP+0
        CFI (cfiCond9) CFA_XSP16 add(XSP16, 28)
        CFI Block cfiPicker10 Using cfiCommon1
        CFI (cfiPicker10) NoFunction
        CFI (cfiPicker10) Picker
        MOV     A,R6
        CFI EndBlock cfiCond8
        CFI EndBlock cfiCond9
        CFI EndBlock cfiPicker10
        REQUIRE ??Subroutine48_0
        ; // Fall through to label ??Subroutine48_0

        RSEG BANKED_CODE:CODE:NOROOT(0)
??Subroutine48_0:
        CFI Block cfiCond11 Using cfiCommon0
        CFI NoFunction
        CFI Conditional ??CrossCallReturnLabel_75
        CFI R6 load(1, XDATA, add(CFA_XSP16, literal(-18)))
        CFI VB load(1, XDATA, add(CFA_XSP16, literal(-17)))
        CFI V0 load(1, XDATA, add(CFA_XSP16, literal(-16)))
        CFI V1 load(1, XDATA, add(CFA_XSP16, literal(-15)))
        CFI V2 load(1, XDATA, add(CFA_XSP16, literal(-14)))
        CFI V3 load(1, XDATA, add(CFA_XSP16, literal(-13)))
        CFI V4 load(1, XDATA, add(CFA_XSP16, literal(-12)))
        CFI V5 load(1, XDATA, add(CFA_XSP16, literal(-11)))
        CFI V6 load(1, XDATA, add(CFA_XSP16, literal(-10)))
        CFI V7 load(1, XDATA, add(CFA_XSP16, literal(-9)))
        CFI V8 load(1, XDATA, add(CFA_XSP16, literal(-8)))
        CFI V9 load(1, XDATA, add(CFA_XSP16, literal(-7)))
        CFI R7 load(1, XDATA, add(CFA_XSP16, literal(-6)))
        CFI ?RET_LOW load(1, XDATA, add(CFA_XSP16, literal(-5)))
        CFI ?RET_HIGH load(1, XDATA, add(CFA_XSP16, literal(-4)))
        CFI ?BRET_EXT load(1, XDATA, add(CFA_XSP16, literal(-3)))
        CFI DPL0 load(1, XDATA, add(CFA_XSP16, literal(-2)))
        CFI DPH0 load(1, XDATA, add(CFA_XSP16, literal(-1)))
        CFI CFA_SP SP+0
        CFI CFA_XSP16 add(XSP16, 26)
        CFI Block cfiCond12 Using cfiCommon0
        CFI (cfiCond12) NoFunction
        CFI (cfiCond12) Conditional ??CrossCallReturnLabel_76
        CFI (cfiCond12) R6 load(1, XDATA, add(CFA_XSP16, literal(-18)))
        CFI (cfiCond12) VB load(1, XDATA, add(CFA_XSP16, literal(-17)))
        CFI (cfiCond12) V0 load(1, XDATA, add(CFA_XSP16, literal(-16)))
        CFI (cfiCond12) V1 load(1, XDATA, add(CFA_XSP16, literal(-15)))
        CFI (cfiCond12) V2 load(1, XDATA, add(CFA_XSP16, literal(-14)))
        CFI (cfiCond12) V3 load(1, XDATA, add(CFA_XSP16, literal(-13)))
        CFI (cfiCond12) V4 load(1, XDATA, add(CFA_XSP16, literal(-12)))
        CFI (cfiCond12) V5 load(1, XDATA, add(CFA_XSP16, literal(-11)))
        CFI (cfiCond12) V6 load(1, XDATA, add(CFA_XSP16, literal(-10)))
        CFI (cfiCond12) V7 load(1, XDATA, add(CFA_XSP16, literal(-9)))
        CFI (cfiCond12) V8 load(1, XDATA, add(CFA_XSP16, literal(-8)))
        CFI (cfiCond12) V9 load(1, XDATA, add(CFA_XSP16, literal(-7)))
        CFI (cfiCond12) R7 load(1, XDATA, add(CFA_XSP16, literal(-6)))
        CFI (cfiCond12) ?RET_LOW load(1, XDATA, add(CFA_XSP16, literal(-5)))
        CFI (cfiCond12) ?RET_HIGH load(1, XDATA, add(CFA_XSP16, literal(-4)))
        CFI (cfiCond12) ?BRET_EXT load(1, XDATA, add(CFA_XSP16, literal(-3)))
        CFI (cfiCond12) DPL0 load(1, XDATA, add(CFA_XSP16, literal(-2)))
        CFI (cfiCond12) DPH0 load(1, XDATA, add(CFA_XSP16, literal(-1)))
        CFI (cfiCond12) CFA_SP SP+0
        CFI (cfiCond12) CFA_XSP16 add(XSP16, 27)
        CFI Block cfiCond13 Using cfiCommon0
        CFI (cfiCond13) NoFunction
        CFI (cfiCond13) Conditional ??CrossCallReturnLabel_77
        CFI (cfiCond13) R6 load(1, XDATA, add(CFA_XSP16, literal(-9)))
        CFI (cfiCond13) VB load(1, XDATA, add(CFA_XSP16, literal(-8)))
        CFI (cfiCond13) V0 load(1, XDATA, add(CFA_XSP16, literal(-7)))
        CFI (cfiCond13) R7 load(1, XDATA, add(CFA_XSP16, literal(-6)))
        CFI (cfiCond13) ?RET_LOW load(1, XDATA, add(CFA_XSP16, literal(-5)))
        CFI (cfiCond13) ?RET_HIGH load(1, XDATA, add(CFA_XSP16, literal(-4)))
        CFI (cfiCond13) ?BRET_EXT load(1, XDATA, add(CFA_XSP16, literal(-3)))
        CFI (cfiCond13) DPL0 load(1, XDATA, add(CFA_XSP16, literal(-2)))
        CFI (cfiCond13) DPH0 load(1, XDATA, add(CFA_XSP16, literal(-1)))
        CFI (cfiCond13) CFA_SP SP+0
        CFI (cfiCond13) CFA_XSP16 add(XSP16, 9)
        CFI Block cfiCond14 Using cfiCommon0
        CFI (cfiCond14) NoFunction
        CFI (cfiCond14) Conditional ??CrossCallReturnLabel_78
        CFI (cfiCond14) R6 load(1, XDATA, add(CFA_XSP16, literal(-18)))
        CFI (cfiCond14) VB load(1, XDATA, add(CFA_XSP16, literal(-17)))
        CFI (cfiCond14) V0 load(1, XDATA, add(CFA_XSP16, literal(-16)))
        CFI (cfiCond14) V1 load(1, XDATA, add(CFA_XSP16, literal(-15)))
        CFI (cfiCond14) V2 load(1, XDATA, add(CFA_XSP16, literal(-14)))
        CFI (cfiCond14) V3 load(1, XDATA, add(CFA_XSP16, literal(-13)))
        CFI (cfiCond14) V4 load(1, XDATA, add(CFA_XSP16, literal(-12)))
        CFI (cfiCond14) V5 load(1, XDATA, add(CFA_XSP16, literal(-11)))
        CFI (cfiCond14) V6 load(1, XDATA, add(CFA_XSP16, literal(-10)))
        CFI (cfiCond14) V7 load(1, XDATA, add(CFA_XSP16, literal(-9)))
        CFI (cfiCond14) V8 load(1, XDATA, add(CFA_XSP16, literal(-8)))
        CFI (cfiCond14) V9 load(1, XDATA, add(CFA_XSP16, literal(-7)))
        CFI (cfiCond14) R7 load(1, XDATA, add(CFA_XSP16, literal(-6)))
        CFI (cfiCond14) ?RET_LOW load(1, XDATA, add(CFA_XSP16, literal(-5)))
        CFI (cfiCond14) ?RET_HIGH load(1, XDATA, add(CFA_XSP16, literal(-4)))
        CFI (cfiCond14) ?BRET_EXT load(1, XDATA, add(CFA_XSP16, literal(-3)))
        CFI (cfiCond14) DPL0 load(1, XDATA, add(CFA_XSP16, literal(-2)))
        CFI (cfiCond14) DPH0 load(1, XDATA, add(CFA_XSP16, literal(-1)))
        CFI (cfiCond14) CFA_SP SP+0
        CFI (cfiCond14) CFA_XSP16 add(XSP16, 28)
        CFI Block cfiPicker15 Using cfiCommon1
        CFI (cfiPicker15) NoFunction
        CFI (cfiPicker15) Picker
        CLR     C
        RLC     A
        MOV     R0,A
        CLR     A
        RLC     A
        MOV     R1,A
        MOV     A,#(pgOff + 14) & 0xff
        ADD     A,R0
        MOV     DPL,A
        MOV     A,#((pgOff - 242) >> 8) & 0xff
        ADDC    A,R1
        MOV     DPH,A
        RET
        CFI EndBlock cfiCond11
        CFI EndBlock cfiCond12
        CFI EndBlock cfiCond13
        CFI EndBlock cfiCond14
        CFI EndBlock cfiPicker15

        RSEG BANKED_CODE:CODE:NOROOT(0)
?Subroutine12:
        CFI Block cfiCond16 Using cfiCommon0
        CFI NoFunction
        CFI Conditional ??CrossCallReturnLabel_4
        CFI R6 load(1, XDATA, add(CFA_XSP16, literal(-18)))
        CFI VB load(1, XDATA, add(CFA_XSP16, literal(-17)))
        CFI V0 load(1, XDATA, add(CFA_XSP16, literal(-16)))
        CFI V1 load(1, XDATA, add(CFA_XSP16, literal(-15)))
        CFI V2 load(1, XDATA, add(CFA_XSP16, literal(-14)))
        CFI V3 load(1, XDATA, add(CFA_XSP16, literal(-13)))
        CFI V4 load(1, XDATA, add(CFA_XSP16, literal(-12)))
        CFI V5 load(1, XDATA, add(CFA_XSP16, literal(-11)))
        CFI V6 load(1, XDATA, add(CFA_XSP16, literal(-10)))
        CFI V7 load(1, XDATA, add(CFA_XSP16, literal(-9)))
        CFI V8 load(1, XDATA, add(CFA_XSP16, literal(-8)))
        CFI V9 load(1, XDATA, add(CFA_XSP16, literal(-7)))
        CFI R7 load(1, XDATA, add(CFA_XSP16, literal(-6)))
        CFI ?RET_LOW load(1, XDATA, add(CFA_XSP16, literal(-5)))
        CFI ?RET_HIGH load(1, XDATA, add(CFA_XSP16, literal(-4)))
        CFI ?BRET_EXT load(1, XDATA, add(CFA_XSP16, literal(-3)))
        CFI DPL0 load(1, XDATA, add(CFA_XSP16, literal(-2)))
        CFI DPH0 load(1, XDATA, add(CFA_XSP16, literal(-1)))
        CFI CFA_SP SP+0
        CFI CFA_XSP16 add(XSP16, 26)
        CFI Block cfiCond17 Using cfiCommon0
        CFI (cfiCond17) NoFunction
        CFI (cfiCond17) Conditional ??CrossCallReturnLabel_5
        CFI (cfiCond17) R6 load(1, XDATA, add(CFA_XSP16, literal(-9)))
        CFI (cfiCond17) VB load(1, XDATA, add(CFA_XSP16, literal(-8)))
        CFI (cfiCond17) V0 load(1, XDATA, add(CFA_XSP16, literal(-7)))
        CFI (cfiCond17) R7 load(1, XDATA, add(CFA_XSP16, literal(-6)))
        CFI (cfiCond17) ?RET_LOW load(1, XDATA, add(CFA_XSP16, literal(-5)))
        CFI (cfiCond17) ?RET_HIGH load(1, XDATA, add(CFA_XSP16, literal(-4)))
        CFI (cfiCond17) ?BRET_EXT load(1, XDATA, add(CFA_XSP16, literal(-3)))
        CFI (cfiCond17) DPL0 load(1, XDATA, add(CFA_XSP16, literal(-2)))
        CFI (cfiCond17) DPH0 load(1, XDATA, add(CFA_XSP16, literal(-1)))
        CFI (cfiCond17) CFA_SP SP+0
        CFI (cfiCond17) CFA_XSP16 add(XSP16, 9)
        CFI Block cfiPicker18 Using cfiCommon1
        CFI (cfiPicker18) NoFunction
        CFI (cfiPicker18) Picker
        MOVX    @DPTR,A
        MOV     A,#(pgLost + 14) & 0xff
        ADD     A,R0
        MOV     DPL,A
        MOV     A,#((pgLost - 242) >> 8) & 0xff
        ADDC    A,R1
        MOV     DPH,A
        RET
        CFI EndBlock cfiCond16
        CFI EndBlock cfiCond17
        CFI EndBlock cfiPicker18
//  502 
//  503 /*********************************************************************
//  504  * @fn      compactPage
//  505  *
//  506  * @brief   Compacts the page specified.
//  507  *
//  508  * @param   srcPg - Valid NV page to erase.
//  509  * @param   skipId - Item Id to not compact.
//  510  *
//  511  * @return  TRUE if valid items from 'srcPg' are successully compacted onto the 'pgRes';
//  512  *          FALSE otherwise.
//  513  *          Note that on a failure, this could loop, re-erasing the 'pgRes' and re-compacting with
//  514  *          the risk of infinitely looping on HAL flash failure.
//  515  *          Worst case scenario: HAL flash starts failing in general, perhaps low Vdd?
//  516  *          All page compactions will fail which will cause all osal_nv_write() calls to return
//  517  *          NV_OPER_FAILED.
//  518  *          Eventually, all pages in use may also be in the state of "pending compaction" where
//  519  *          the page header member OSAL_NV_PG_XFER is zeroed out.
//  520  *          During this "HAL flash brown-out", the code will run and OTA should work (until low Vdd
//  521  *          causes an actual chip brown-out, of course.) Although no new NV items will be created
//  522  *          or written, the last value written with a return value of SUCCESS can continue to be
//  523  *          read successfully.
//  524  *          If eventually HAL flash starts working again, all of the pages marked as
//  525  *          "pending compaction" may or may not be eventually compacted. But, initNV() will
//  526  *          deterministically clean-up one page pending compaction per power-cycle
//  527  *          (if HAL flash is working.) Nevertheless, one erased reserve page will be maintained
//  528  *          through such a scenario.
//  529  */

        RSEG BANKED_CODE:CODE:NOROOT(0)
//  530 static uint8 compactPage( uint8 srcPg, uint16 skipId )
compactPage:
        CFI Block cfiBlock19 Using cfiCommon0
        CFI Function compactPage
        CODE
//  531 {
        FUNCALL compactPage, HalFlashRead
        LOCFRAME ISTACK, 0, STACK
        LOCFRAME PSTACK, 0, STACK
        LOCFRAME XSTACK, 29, STACK
        LOCFRAME IOVERLAY, 0, STATIC
        LOCFRAME DOVERLAY, 0, STATIC
        ARGFRAME ISTACK, 0, STACK
        ARGFRAME PSTACK, 0, STACK
        ARGFRAME XSTACK, 29, STACK
        ARGFRAME IOVERLAY, 0, STATIC
        ARGFRAME DOVERLAY, 0, STATIC
        FUNCALL compactPage, erasePage
        LOCFRAME ISTACK, 0, STACK
        LOCFRAME PSTACK, 0, STACK
        LOCFRAME XSTACK, 27, STACK
        LOCFRAME IOVERLAY, 0, STATIC
        LOCFRAME DOVERLAY, 0, STATIC
        ARGFRAME ISTACK, 0, STACK
        ARGFRAME PSTACK, 0, STACK
        ARGFRAME XSTACK, 27, STACK
        ARGFRAME IOVERLAY, 0, STATIC
        ARGFRAME DOVERLAY, 0, STATIC
        FUNCALL compactPage, HalFlashRead
        LOCFRAME ISTACK, 0, STACK
        LOCFRAME PSTACK, 0, STACK
        LOCFRAME XSTACK, 29, STACK
        LOCFRAME IOVERLAY, 0, STATIC
        LOCFRAME DOVERLAY, 0, STATIC
        ARGFRAME ISTACK, 0, STACK
        ARGFRAME PSTACK, 0, STACK
        ARGFRAME XSTACK, 29, STACK
        ARGFRAME IOVERLAY, 0, STATIC
        ARGFRAME DOVERLAY, 0, STATIC
        FUNCALL compactPage, calcChkF
        LOCFRAME ISTACK, 0, STACK
        LOCFRAME PSTACK, 0, STACK
        LOCFRAME XSTACK, 27, STACK
        LOCFRAME IOVERLAY, 0, STATIC
        LOCFRAME DOVERLAY, 0, STATIC
        ARGFRAME ISTACK, 0, STACK
        ARGFRAME PSTACK, 0, STACK
        ARGFRAME XSTACK, 27, STACK
        ARGFRAME IOVERLAY, 0, STATIC
        ARGFRAME DOVERLAY, 0, STATIC
        FUNCALL compactPage, setItem
        LOCFRAME ISTACK, 0, STACK
        LOCFRAME PSTACK, 0, STACK
        LOCFRAME XSTACK, 27, STACK
        LOCFRAME IOVERLAY, 0, STATIC
        LOCFRAME DOVERLAY, 0, STATIC
        ARGFRAME ISTACK, 0, STACK
        ARGFRAME PSTACK, 0, STACK
        ARGFRAME XSTACK, 27, STACK
        ARGFRAME IOVERLAY, 0, STATIC
        ARGFRAME DOVERLAY, 0, STATIC
        FUNCALL compactPage, writeItem
        LOCFRAME ISTACK, 0, STACK
        LOCFRAME PSTACK, 0, STACK
        LOCFRAME XSTACK, 30, STACK
        LOCFRAME IOVERLAY, 0, STATIC
        LOCFRAME DOVERLAY, 0, STATIC
        ARGFRAME ISTACK, 0, STACK
        ARGFRAME PSTACK, 0, STACK
        ARGFRAME XSTACK, 30, STACK
        ARGFRAME IOVERLAY, 0, STATIC
        ARGFRAME DOVERLAY, 0, STATIC
        FUNCALL compactPage, xferBuf
        LOCFRAME ISTACK, 0, STACK
        LOCFRAME PSTACK, 0, STACK
        LOCFRAME XSTACK, 31, STACK
        LOCFRAME IOVERLAY, 0, STATIC
        LOCFRAME DOVERLAY, 0, STATIC
        ARGFRAME ISTACK, 0, STACK
        ARGFRAME PSTACK, 0, STACK
        ARGFRAME XSTACK, 31, STACK
        ARGFRAME IOVERLAY, 0, STATIC
        ARGFRAME DOVERLAY, 0, STATIC
        FUNCALL compactPage, calcChkF
        LOCFRAME ISTACK, 0, STACK
        LOCFRAME PSTACK, 0, STACK
        LOCFRAME XSTACK, 27, STACK
        LOCFRAME IOVERLAY, 0, STATIC
        LOCFRAME DOVERLAY, 0, STATIC
        ARGFRAME ISTACK, 0, STACK
        ARGFRAME PSTACK, 0, STACK
        ARGFRAME XSTACK, 27, STACK
        ARGFRAME IOVERLAY, 0, STATIC
        ARGFRAME DOVERLAY, 0, STATIC
        FUNCALL compactPage, setChk
        LOCFRAME ISTACK, 0, STACK
        LOCFRAME PSTACK, 0, STACK
        LOCFRAME XSTACK, 27, STACK
        LOCFRAME IOVERLAY, 0, STATIC
        LOCFRAME DOVERLAY, 0, STATIC
        ARGFRAME ISTACK, 0, STACK
        ARGFRAME PSTACK, 0, STACK
        ARGFRAME XSTACK, 27, STACK
        ARGFRAME IOVERLAY, 0, STATIC
        ARGFRAME DOVERLAY, 0, STATIC
        FUNCALL compactPage, hotItemUpdate
        LOCFRAME ISTACK, 0, STACK
        LOCFRAME PSTACK, 0, STACK
        LOCFRAME XSTACK, 27, STACK
        LOCFRAME IOVERLAY, 0, STATIC
        LOCFRAME DOVERLAY, 0, STATIC
        ARGFRAME ISTACK, 0, STACK
        ARGFRAME PSTACK, 0, STACK
        ARGFRAME XSTACK, 27, STACK
        ARGFRAME IOVERLAY, 0, STATIC
        ARGFRAME DOVERLAY, 0, STATIC
        FUNCALL compactPage, erasePage
        LOCFRAME ISTACK, 0, STACK
        LOCFRAME PSTACK, 0, STACK
        LOCFRAME XSTACK, 27, STACK
        LOCFRAME IOVERLAY, 0, STATIC
        LOCFRAME DOVERLAY, 0, STATIC
        ARGFRAME ISTACK, 0, STACK
        ARGFRAME PSTACK, 0, STACK
        ARGFRAME XSTACK, 27, STACK
        ARGFRAME IOVERLAY, 0, STATIC
        ARGFRAME DOVERLAY, 0, STATIC
        FUNCALL compactPage, setPageUse
        LOCFRAME ISTACK, 0, STACK
        LOCFRAME PSTACK, 0, STACK
        LOCFRAME XSTACK, 27, STACK
        LOCFRAME IOVERLAY, 0, STATIC
        LOCFRAME DOVERLAY, 0, STATIC
        ARGFRAME ISTACK, 0, STACK
        ARGFRAME PSTACK, 0, STACK
        ARGFRAME XSTACK, 27, STACK
        ARGFRAME IOVERLAY, 0, STATIC
        ARGFRAME DOVERLAY, 0, STATIC
        FUNCALL compactPage, erasePage
        LOCFRAME ISTACK, 0, STACK
        LOCFRAME PSTACK, 0, STACK
        LOCFRAME XSTACK, 27, STACK
        LOCFRAME IOVERLAY, 0, STATIC
        LOCFRAME DOVERLAY, 0, STATIC
        ARGFRAME ISTACK, 0, STACK
        ARGFRAME PSTACK, 0, STACK
        ARGFRAME XSTACK, 27, STACK
        ARGFRAME IOVERLAY, 0, STATIC
        ARGFRAME DOVERLAY, 0, STATIC
        MOV     A,#-0x12
        LCALL   ?BANKED_ENTER_XDATA
        CFI DPH0 load(1, XDATA, add(CFA_XSP16, literal(-1)))
        CFI DPL0 load(1, XDATA, add(CFA_XSP16, literal(-2)))
        CFI ?BRET_EXT load(1, XDATA, add(CFA_XSP16, literal(-3)))
        CFI ?RET_HIGH load(1, XDATA, add(CFA_XSP16, literal(-4)))
        CFI ?RET_LOW load(1, XDATA, add(CFA_XSP16, literal(-5)))
        CFI R7 load(1, XDATA, add(CFA_XSP16, literal(-6)))
        CFI V9 load(1, XDATA, add(CFA_XSP16, literal(-7)))
        CFI V8 load(1, XDATA, add(CFA_XSP16, literal(-8)))
        CFI V7 load(1, XDATA, add(CFA_XSP16, literal(-9)))
        CFI V6 load(1, XDATA, add(CFA_XSP16, literal(-10)))
        CFI V5 load(1, XDATA, add(CFA_XSP16, literal(-11)))
        CFI V4 load(1, XDATA, add(CFA_XSP16, literal(-12)))
        CFI V3 load(1, XDATA, add(CFA_XSP16, literal(-13)))
        CFI V2 load(1, XDATA, add(CFA_XSP16, literal(-14)))
        CFI V1 load(1, XDATA, add(CFA_XSP16, literal(-15)))
        CFI V0 load(1, XDATA, add(CFA_XSP16, literal(-16)))
        CFI VB load(1, XDATA, add(CFA_XSP16, literal(-17)))
        CFI R6 load(1, XDATA, add(CFA_XSP16, literal(-18)))
        CFI CFA_SP SP+0
        CFI CFA_XSP16 add(XSP16, 18)
        ; Saved register size: 18
        ; Auto size: 9
        MOV     A,#-0x9
        LCALL   ?ALLOC_XSTACK8
        CFI CFA_XSP16 add(XSP16, 27)
        MOV     ?V0 + 0,R1
        MOV     ?V0 + 2,R2
        MOV     ?V0 + 3,R3
//  532   uint16 srcOff;
//  533   uint8 rtrn;
//  534 
//  535   // To minimize code size, only check for a clean page here where it's absolutely required.
//  536   for (srcOff = 0; srcOff < OSAL_NV_PAGE_SIZE; srcOff++)
        MOV     R6,#0x0
        MOV     R7,#0x0
//  537   {
//  538     HalFlashRead(pgRes, srcOff, &rtrn, 1);
??compactPage_0:
        ; Setup parameters for call to function HalFlashRead
        MOV     ?V0 + 4,#0x1
        MOV     ?V0 + 5,#0x0
        MOV     R0,#?V0 + 4
        LCALL   ?PUSH_XSTACK_I_TWO
        CFI CFA_XSP16 add(XSP16, 29)
        MOV     A,#0x2
        LCALL   ?XSTACK_DISP0_8
        MOV     R4,DPL
        MOV     R5,DPH
        MOV     A,R6
        MOV     R2,A
        MOV     A,R7
        MOV     R3,A
        MOV     DPTR,#pgRes
        MOVX    A,@DPTR
        MOV     R1,A
        LCALL   ??Subroutine53_0 & 0xFFFF
??CrossCallReturnLabel_96:
        LCALL   ?DEALLOC_XSTACK8
        CFI CFA_XSP16 add(XSP16, 27)
//  539     if (rtrn != OSAL_NV_ERASED)
        MOV     DPL,?XSP + 0
        MOV     DPH,?XSP + 1
        MOVX    A,@DPTR
        CPL     A
        JZ      ??compactPage_1
//  540     {
//  541       erasePage(pgRes);
        ; Setup parameters for call to function erasePage
        LCALL   ?Subroutine24 & 0xFFFF
//  542       return FALSE;
??CrossCallReturnLabel_79:
        MOV     R1,#0x0
        LJMP    ??compactPage_2 & 0xFFFF
//  543     }
//  544   }
??compactPage_1:
        MOV     A,R6
        ADD     A,#0x1
        INC     R6
        MOV     A,R7
        ADDC    A,#0x0
        MOV     R7,A
        CLR     C
        SUBB    A,#0x8
        JC      ??compactPage_0
//  545 
//  546   srcOff = OSAL_NV_PAGE_HDR_SIZE;
        MOV     R6,#0x8
        MOV     R7,#0x0
//  547   rtrn = TRUE;
        MOV     A,#0x1
        MOVX    @DPTR,A
//  548 
//  549   while ( srcOff < (OSAL_NV_PAGE_SIZE - OSAL_NV_HDR_SIZE ) )
//  550   {
//  551     osalNvHdr_t hdr;
//  552     uint16 sz, dstOff = pgOff[pgRes-OSAL_NV_PAGE_BEG];
??compactPage_3:
        MOV     DPTR,#pgRes
        MOVX    A,@DPTR
        LCALL   ??Subroutine48_0 & 0xFFFF
??CrossCallReturnLabel_76:
        LCALL   ?Subroutine18 & 0xFFFF
//  553 
//  554     HalFlashRead(srcPg, srcOff, (uint8 *)(&hdr), OSAL_NV_HDR_SIZE);
??CrossCallReturnLabel_14:
        ; Setup parameters for call to function HalFlashRead
        MOV     ?V0 + 4,#0x8
        MOV     ?V0 + 5,#0x0
        MOV     R0,#?V0 + 4
        LCALL   ?PUSH_XSTACK_I_TWO
        CFI CFA_XSP16 add(XSP16, 29)
        MOV     A,#0x3
        LCALL   ?XSTACK_DISP0_8
        MOV     R4,DPL
        MOV     R5,DPH
        MOV     A,R6
        MOV     R2,A
        MOV     A,R7
        MOV     R3,A
        MOV     R1,?V0 + 0
        LCALL   ??Subroutine53_0 & 0xFFFF
??CrossCallReturnLabel_97:
        LCALL   ?DEALLOC_XSTACK8
        CFI CFA_XSP16 add(XSP16, 27)
//  555 
//  556     if ( hdr.id == OSAL_NV_ERASED_ID )
        MOV     A,#0x1
        LCALL   ?XSTACK_DISP0_8
        MOVX    A,@DPTR
        CPL     A
        JNZ     ??compactPage_4
        INC     DPTR
        MOVX    A,@DPTR
        CPL     A
??compactPage_4:
        JNZ     $+5
        LJMP    ??compactPage_5 & 0xFFFF
//  557     {
//  558       break;
//  559     }
//  560 
//  561     // Get the actual size in bytes which is the ceiling(hdr.len)
//  562     sz = OSAL_NV_DATA_SIZE( hdr.len );
        MOV     A,#0x3
        LCALL   ?XSTACK_DISP0_8
        LCALL   ?Subroutine15 & 0xFFFF
??CrossCallReturnLabel_11:
        JC      ??compactPage_6
        MOV     ?V0 + 4,#-0x4
        MOV     ?V0 + 5,#-0x1
        SJMP    ??compactPage_7
??compactPage_6:
        LCALL   ?Subroutine34 & 0xFFFF
??CrossCallReturnLabel_48:
        MOV     ?V0 + 4,A
        MOV     A,R1
        MOV     ?V0 + 5,A
//  563 
//  564     if ( sz > (OSAL_NV_PAGE_SIZE - OSAL_NV_HDR_SIZE - srcOff) )
??compactPage_7:
        MOV     A,#-0x8
        CLR     C
        SUBB    A,R6
        MOV     R0,A
        MOV     A,#0x7
        SUBB    A,R7
        MOV     R1,A
        CLR     C
        MOV     A,R0
        SUBB    A,?V0 + 4
        MOV     A,R1
        SUBB    A,?V0 + 5
        JNC     $+5
        LJMP    ??compactPage_5 & 0xFFFF
//  565     {
//  566       break;
//  567     }
//  568 
//  569     if ( sz > (OSAL_NV_PAGE_SIZE - OSAL_NV_HDR_SIZE - dstOff) )
        MOV     A,#-0x8
        CLR     C
        SUBB    A,?V0 + 6
        MOV     R0,A
        MOV     A,#0x7
        SUBB    A,?V0 + 7
        MOV     R1,A
        CLR     C
        MOV     A,R0
        SUBB    A,?V0 + 4
        MOV     A,R1
        SUBB    A,?V0 + 5
        JNC     ??compactPage_8
//  570     {
//  571       rtrn = FALSE;
??compactPage_9:
        MOV     DPL,?XSP + 0
        MOV     DPH,?XSP + 1
        CLR     A
        MOVX    @DPTR,A
//  572       break;
        LJMP    ??compactPage_10 & 0xFFFF
//  573     }
//  574 
//  575     srcOff += OSAL_NV_HDR_SIZE;
??compactPage_8:
        MOV     A,R6
        ADD     A,#0x8
        MOV     R6,A
        MOV     A,R7
        ADDC    A,#0x0
        MOV     R7,A
//  576 
//  577     if ( (hdr.id != OSAL_NV_ZEROED_ID) && (hdr.id != skipId) )
        MOV     A,#0x1
        LCALL   ?XSTACK_DISP0_8
        LCALL   ?Subroutine27 & 0xFFFF
??CrossCallReturnLabel_34:
        MOV     A,R0
        ORL     A,R1
        JNZ     $+5
        LJMP    ??compactPage_11 & 0xFFFF
        MOV     A,#0x1
        LCALL   ?XSTACK_DISP0_8
        MOVX    A,@DPTR
        XRL     A,?V0 + 2
        JNZ     ??compactPage_12
        INC     DPTR
        MOVX    A,@DPTR
        XRL     A,?V0 + 3
??compactPage_12:
        JNZ     $+5
        LJMP    ??compactPage_11 & 0xFFFF
//  578     {
//  579       if ( hdr.chk == calcChkF( srcPg, srcOff, hdr.len ) )
        ; Setup parameters for call to function calcChkF
        MOV     A,R6
        MOV     R2,A
        MOV     A,R7
        MOV     R3,A
        MOV     R1,?V0 + 0
        LCALL   ?Subroutine36 & 0xFFFF
??CrossCallReturnLabel_53:
        MOV     A,#0x5
        LCALL   ?XSTACK_DISP0_8
        MOVX    A,@DPTR
        XRL     A,R0
        JNZ     ??compactPage_13
        INC     DPTR
        MOVX    A,@DPTR
        XRL     A,R1
??compactPage_13:
        JZ      $+5
        LJMP    ??compactPage_11 & 0xFFFF
//  580       {
//  581         /* Prevent excessive re-writes to item header caused by numerous, rapid, & successive
//  582          * OSAL_Nv interruptions caused by resets.
//  583          */
//  584         if ( hdr.stat == OSAL_NV_ERASED_ID )
        MOV     A,#0x7
        LCALL   ?XSTACK_DISP0_8
        MOVX    A,@DPTR
        CPL     A
        JNZ     ??compactPage_14
        INC     DPTR
        MOVX    A,@DPTR
        CPL     A
??compactPage_14:
        JNZ     ??compactPage_15
//  585         {
//  586           setItem( srcPg, srcOff, eNvXfer );
        ; Setup parameters for call to function setItem
        MOV     R4,#0x0
        MOV     A,R6
        MOV     R2,A
        MOV     A,R7
        MOV     R3,A
        MOV     R1,?V0 + 0
        LCALL   ??setItem?relay
//  587         }
//  588 
//  589         if ( writeItem( pgRes, hdr.id, hdr.len, NULL, FALSE ) )
??compactPage_15:
        ; Setup parameters for call to function writeItem
        MOV     ?V0 + 1,#0x0
        MOV     R0,#?V0 + 1
        LCALL   ?PUSH_XSTACK_I_ONE
        CFI CFA_XSP16 add(XSP16, 28)
        CLR     A
        MOV     ?V0 + 8,A
        MOV     ?V0 + 9,A
        MOV     R0,#?V0 + 8
        LCALL   ?PUSH_XSTACK_I_TWO
        CFI CFA_XSP16 add(XSP16, 30)
        MOV     A,#0x6
        LCALL   ?XSTACK_DISP0_8
        LCALL   ?Subroutine43 & 0xFFFF
??CrossCallReturnLabel_66:
        MOV     A,#0x4
        LCALL   ?XSTACK_DISP0_8
        LCALL   ??Subroutine57_0 & 0xFFFF
??CrossCallReturnLabel_117:
        MOV     DPTR,#pgRes
        MOVX    A,@DPTR
        MOV     R1,A
        LCALL   ??writeItem?relay
        MOV     A,#0x3
        LCALL   ?DEALLOC_XSTACK8
        CFI CFA_XSP16 add(XSP16, 27)
        MOV     A,R1
        JNZ     $+5
        LJMP    ??compactPage_9 & 0xFFFF
//  590         {
//  591           dstOff += OSAL_NV_HDR_SIZE;
        MOV     A,?V0 + 6
        ADD     A,#0x8
        MOV     ?V0 + 6,A
        MOV     A,?V0 + 7
        ADDC    A,#0x0
        MOV     ?V0 + 7,A
//  592           xferBuf( srcPg, srcOff, pgRes, dstOff, sz );
        ; Setup parameters for call to function xferBuf
        MOV     R0,#?V0 + 4
        LCALL   ?PUSH_XSTACK_I_TWO
        CFI CFA_XSP16 add(XSP16, 29)
        MOV     R0,#?V0 + 6
        LCALL   ?PUSH_XSTACK_I_TWO
        CFI CFA_XSP16 add(XSP16, 31)
        MOV     DPTR,#pgRes
        MOVX    A,@DPTR
        MOV     R4,A
        MOV     A,R6
        MOV     R2,A
        MOV     A,R7
        MOV     R3,A
        MOV     R1,?V0 + 0
        LCALL   ??xferBuf?relay
        MOV     A,#0x4
        LCALL   ?DEALLOC_XSTACK8
        CFI CFA_XSP16 add(XSP16, 27)
//  593           // Calculate and write the new checksum.
//  594           if (hdr.chk == calcChkF(pgRes, dstOff, hdr.len))
        ; Setup parameters for call to function calcChkF
        MOV     A,#0x3
        LCALL   ?XSTACK_DISP0_8
        LCALL   ?Subroutine14 & 0xFFFF
??CrossCallReturnLabel_8:
        LCALL   ??calcChkF?relay
        MOV     A,#0x5
        LCALL   ?XSTACK_DISP0_8
        LCALL   ?Subroutine19 & 0xFFFF
??CrossCallReturnLabel_17:
        JNZ     ??compactPage_16
        MOV     A,R3
        XRL     A,R5
??compactPage_16:
        JZ      $+5
        LJMP    ??compactPage_9 & 0xFFFF
//  595           {
//  596             if ( hdr.chk != setChk( pgRes, dstOff, hdr.chk ) )
        ; Setup parameters for call to function setChk
        MOV     R2,?V0 + 6
        MOV     R3,?V0 + 7
        MOV     DPTR,#pgRes
        MOVX    A,@DPTR
        MOV     R1,A
        LCALL   ??setChk?relay
        MOV     ?V0 + 8,R2
        MOV     ?V0 + 9,R3
        MOV     R0,?V0 + 8
        MOV     R1,?V0 + 9
        MOV     A,#0x5
        LCALL   ?XSTACK_DISP0_8
        MOVX    A,@DPTR
        XRL     A,R0
        JNZ     ??compactPage_17
        INC     DPTR
        MOVX    A,@DPTR
        XRL     A,R1
??compactPage_17:
        JZ      $+5
        LJMP    ??compactPage_9 & 0xFFFF
//  597             {
//  598               rtrn = FALSE;
//  599               break;
//  600             }
//  601             else
//  602             {
//  603               hotItemUpdate(pgRes, dstOff, hdr.id);
        ; Setup parameters for call to function hotItemUpdate
        MOV     A,#0x1
        LCALL   ?XSTACK_DISP0_8
        LCALL   ?Subroutine14 & 0xFFFF
//  604             }
//  605           }
//  606           else
//  607           {
//  608             rtrn = FALSE;
//  609             break;
//  610           }
//  611         }
//  612         else
//  613         {
//  614           rtrn = FALSE;
//  615           break;
//  616         }
//  617       }
//  618     }
??CrossCallReturnLabel_9:
        LCALL   ??hotItemUpdate?relay
//  619 
//  620     srcOff += sz;
??compactPage_11:
        MOV     A,R6
        ADD     A,?V0 + 4
        MOV     R6,A
        MOV     A,R7
        ADDC    A,?V0 + 5
        MOV     R7,A
//  621   }
        CLR     C
        MOV     A,R6
        SUBB    A,#-0x8
        MOV     A,R7
        SUBB    A,#0x7
        JNC     $+5
        LJMP    ??compactPage_3 & 0xFFFF
//  622 
//  623   if (rtrn == FALSE)
??compactPage_5:
        MOV     DPL,?XSP + 0
        MOV     DPH,?XSP + 1
        MOVX    A,@DPTR
        JNZ     ??compactPage_18
//  624   {
//  625     erasePage(pgRes);
??compactPage_10:
        ; Setup parameters for call to function erasePage
        LCALL   ?Subroutine24 & 0xFFFF
//  626   }
??CrossCallReturnLabel_80:
        SJMP    ??compactPage_19
//  627   else if (skipId == OSAL_NV_ITEM_NULL)
??compactPage_18:
        MOV     A,?V0 + 2
        ORL     A,?V0 + 3
        JNZ     ??compactPage_19
//  628   {
//  629     COMPACT_PAGE_CLEANUP(srcPg);
        ; Setup parameters for call to function setPageUse
        LCALL   ?Subroutine28 & 0xFFFF
??CrossCallReturnLabel_38:
        ; Setup parameters for call to function erasePage
        MOV     R1,?V0 + 0
        LCALL   ??erasePage?relay
        MOV     A,?V0 + 0
        MOV     DPTR,#pgRes
        MOVX    @DPTR,A
//  630   }
//  631   // else invoking function must cleanup.
//  632 
//  633   return rtrn;
??compactPage_19:
        MOV     DPL,?XSP + 0
        MOV     DPH,?XSP + 1
        MOVX    A,@DPTR
        MOV     R1,A
??compactPage_2:
        MOV     A,#0x9
        LJMP    ??Subroutine47_0 & 0xFFFF
        CFI EndBlock cfiBlock19
//  634 }

        RSEG BANKED_CODE:CODE:NOROOT(0)
?Subroutine36:
        CFI Block cfiCond20 Using cfiCommon0
        CFI NoFunction
        CFI Conditional ??CrossCallReturnLabel_52
        CFI R6 load(1, XDATA, add(CFA_XSP16, literal(-18)))
        CFI VB load(1, XDATA, add(CFA_XSP16, literal(-17)))
        CFI V0 load(1, XDATA, add(CFA_XSP16, literal(-16)))
        CFI V1 load(1, XDATA, add(CFA_XSP16, literal(-15)))
        CFI V2 load(1, XDATA, add(CFA_XSP16, literal(-14)))
        CFI V3 load(1, XDATA, add(CFA_XSP16, literal(-13)))
        CFI V4 load(1, XDATA, add(CFA_XSP16, literal(-12)))
        CFI V5 load(1, XDATA, add(CFA_XSP16, literal(-11)))
        CFI V6 load(1, XDATA, add(CFA_XSP16, literal(-10)))
        CFI V7 load(1, XDATA, add(CFA_XSP16, literal(-9)))
        CFI V8 load(1, XDATA, add(CFA_XSP16, literal(-8)))
        CFI V9 load(1, XDATA, add(CFA_XSP16, literal(-7)))
        CFI R7 load(1, XDATA, add(CFA_XSP16, literal(-6)))
        CFI ?RET_LOW load(1, XDATA, add(CFA_XSP16, literal(-5)))
        CFI ?RET_HIGH load(1, XDATA, add(CFA_XSP16, literal(-4)))
        CFI ?BRET_EXT load(1, XDATA, add(CFA_XSP16, literal(-3)))
        CFI DPL0 load(1, XDATA, add(CFA_XSP16, literal(-2)))
        CFI DPH0 load(1, XDATA, add(CFA_XSP16, literal(-1)))
        CFI CFA_SP SP+0
        CFI CFA_XSP16 add(XSP16, 26)
        CFI Block cfiCond21 Using cfiCommon0
        CFI (cfiCond21) NoFunction
        CFI (cfiCond21) Conditional ??CrossCallReturnLabel_53
        CFI (cfiCond21) R6 load(1, XDATA, add(CFA_XSP16, literal(-18)))
        CFI (cfiCond21) VB load(1, XDATA, add(CFA_XSP16, literal(-17)))
        CFI (cfiCond21) V0 load(1, XDATA, add(CFA_XSP16, literal(-16)))
        CFI (cfiCond21) V1 load(1, XDATA, add(CFA_XSP16, literal(-15)))
        CFI (cfiCond21) V2 load(1, XDATA, add(CFA_XSP16, literal(-14)))
        CFI (cfiCond21) V3 load(1, XDATA, add(CFA_XSP16, literal(-13)))
        CFI (cfiCond21) V4 load(1, XDATA, add(CFA_XSP16, literal(-12)))
        CFI (cfiCond21) V5 load(1, XDATA, add(CFA_XSP16, literal(-11)))
        CFI (cfiCond21) V6 load(1, XDATA, add(CFA_XSP16, literal(-10)))
        CFI (cfiCond21) V7 load(1, XDATA, add(CFA_XSP16, literal(-9)))
        CFI (cfiCond21) V8 load(1, XDATA, add(CFA_XSP16, literal(-8)))
        CFI (cfiCond21) V9 load(1, XDATA, add(CFA_XSP16, literal(-7)))
        CFI (cfiCond21) R7 load(1, XDATA, add(CFA_XSP16, literal(-6)))
        CFI (cfiCond21) ?RET_LOW load(1, XDATA, add(CFA_XSP16, literal(-5)))
        CFI (cfiCond21) ?RET_HIGH load(1, XDATA, add(CFA_XSP16, literal(-4)))
        CFI (cfiCond21) ?BRET_EXT load(1, XDATA, add(CFA_XSP16, literal(-3)))
        CFI (cfiCond21) DPL0 load(1, XDATA, add(CFA_XSP16, literal(-2)))
        CFI (cfiCond21) DPH0 load(1, XDATA, add(CFA_XSP16, literal(-1)))
        CFI (cfiCond21) CFA_SP SP+0
        CFI (cfiCond21) CFA_XSP16 add(XSP16, 27)
        CFI Block cfiPicker22 Using cfiCommon1
        CFI (cfiPicker22) NoFunction
        CFI (cfiPicker22) Picker
        LCALL   ??calcChkF?relay
        MOV     ?V0 + 8,R2
        MOV     ?V0 + 9,R3
        MOV     R0,?V0 + 8
        MOV     R1,?V0 + 9
        RET
        CFI EndBlock cfiCond20
        CFI EndBlock cfiCond21
        CFI EndBlock cfiPicker22

        RSEG BANKED_CODE:CODE:NOROOT(0)
?Subroutine34:
        CFI Block cfiCond23 Using cfiCommon0
        CFI NoFunction
        CFI Conditional ??CrossCallReturnLabel_47
        CFI R6 load(1, XDATA, add(CFA_XSP16, literal(-18)))
        CFI VB load(1, XDATA, add(CFA_XSP16, literal(-17)))
        CFI V0 load(1, XDATA, add(CFA_XSP16, literal(-16)))
        CFI V1 load(1, XDATA, add(CFA_XSP16, literal(-15)))
        CFI V2 load(1, XDATA, add(CFA_XSP16, literal(-14)))
        CFI V3 load(1, XDATA, add(CFA_XSP16, literal(-13)))
        CFI V4 load(1, XDATA, add(CFA_XSP16, literal(-12)))
        CFI V5 load(1, XDATA, add(CFA_XSP16, literal(-11)))
        CFI V6 load(1, XDATA, add(CFA_XSP16, literal(-10)))
        CFI V7 load(1, XDATA, add(CFA_XSP16, literal(-9)))
        CFI V8 load(1, XDATA, add(CFA_XSP16, literal(-8)))
        CFI V9 load(1, XDATA, add(CFA_XSP16, literal(-7)))
        CFI R7 load(1, XDATA, add(CFA_XSP16, literal(-6)))
        CFI ?RET_LOW load(1, XDATA, add(CFA_XSP16, literal(-5)))
        CFI ?RET_HIGH load(1, XDATA, add(CFA_XSP16, literal(-4)))
        CFI ?BRET_EXT load(1, XDATA, add(CFA_XSP16, literal(-3)))
        CFI DPL0 load(1, XDATA, add(CFA_XSP16, literal(-2)))
        CFI DPH0 load(1, XDATA, add(CFA_XSP16, literal(-1)))
        CFI CFA_SP SP+0
        CFI CFA_XSP16 add(XSP16, 26)
        CFI Block cfiCond24 Using cfiCommon0
        CFI (cfiCond24) NoFunction
        CFI (cfiCond24) Conditional ??CrossCallReturnLabel_48
        CFI (cfiCond24) R6 load(1, XDATA, add(CFA_XSP16, literal(-18)))
        CFI (cfiCond24) VB load(1, XDATA, add(CFA_XSP16, literal(-17)))
        CFI (cfiCond24) V0 load(1, XDATA, add(CFA_XSP16, literal(-16)))
        CFI (cfiCond24) V1 load(1, XDATA, add(CFA_XSP16, literal(-15)))
        CFI (cfiCond24) V2 load(1, XDATA, add(CFA_XSP16, literal(-14)))
        CFI (cfiCond24) V3 load(1, XDATA, add(CFA_XSP16, literal(-13)))
        CFI (cfiCond24) V4 load(1, XDATA, add(CFA_XSP16, literal(-12)))
        CFI (cfiCond24) V5 load(1, XDATA, add(CFA_XSP16, literal(-11)))
        CFI (cfiCond24) V6 load(1, XDATA, add(CFA_XSP16, literal(-10)))
        CFI (cfiCond24) V7 load(1, XDATA, add(CFA_XSP16, literal(-9)))
        CFI (cfiCond24) V8 load(1, XDATA, add(CFA_XSP16, literal(-8)))
        CFI (cfiCond24) V9 load(1, XDATA, add(CFA_XSP16, literal(-7)))
        CFI (cfiCond24) R7 load(1, XDATA, add(CFA_XSP16, literal(-6)))
        CFI (cfiCond24) ?RET_LOW load(1, XDATA, add(CFA_XSP16, literal(-5)))
        CFI (cfiCond24) ?RET_HIGH load(1, XDATA, add(CFA_XSP16, literal(-4)))
        CFI (cfiCond24) ?BRET_EXT load(1, XDATA, add(CFA_XSP16, literal(-3)))
        CFI (cfiCond24) DPL0 load(1, XDATA, add(CFA_XSP16, literal(-2)))
        CFI (cfiCond24) DPH0 load(1, XDATA, add(CFA_XSP16, literal(-1)))
        CFI (cfiCond24) CFA_SP SP+0
        CFI (cfiCond24) CFA_XSP16 add(XSP16, 27)
        CFI Block cfiCond25 Using cfiCommon0
        CFI (cfiCond25) NoFunction
        CFI (cfiCond25) Conditional ??CrossCallReturnLabel_49
        CFI (cfiCond25) R6 load(1, XDATA, add(CFA_XSP16, literal(-18)))
        CFI (cfiCond25) VB load(1, XDATA, add(CFA_XSP16, literal(-17)))
        CFI (cfiCond25) V0 load(1, XDATA, add(CFA_XSP16, literal(-16)))
        CFI (cfiCond25) V1 load(1, XDATA, add(CFA_XSP16, literal(-15)))
        CFI (cfiCond25) V2 load(1, XDATA, add(CFA_XSP16, literal(-14)))
        CFI (cfiCond25) V3 load(1, XDATA, add(CFA_XSP16, literal(-13)))
        CFI (cfiCond25) V4 load(1, XDATA, add(CFA_XSP16, literal(-12)))
        CFI (cfiCond25) V5 load(1, XDATA, add(CFA_XSP16, literal(-11)))
        CFI (cfiCond25) V6 load(1, XDATA, add(CFA_XSP16, literal(-10)))
        CFI (cfiCond25) V7 load(1, XDATA, add(CFA_XSP16, literal(-9)))
        CFI (cfiCond25) V8 load(1, XDATA, add(CFA_XSP16, literal(-8)))
        CFI (cfiCond25) V9 load(1, XDATA, add(CFA_XSP16, literal(-7)))
        CFI (cfiCond25) R7 load(1, XDATA, add(CFA_XSP16, literal(-6)))
        CFI (cfiCond25) ?RET_LOW load(1, XDATA, add(CFA_XSP16, literal(-5)))
        CFI (cfiCond25) ?RET_HIGH load(1, XDATA, add(CFA_XSP16, literal(-4)))
        CFI (cfiCond25) ?BRET_EXT load(1, XDATA, add(CFA_XSP16, literal(-3)))
        CFI (cfiCond25) DPL0 load(1, XDATA, add(CFA_XSP16, literal(-2)))
        CFI (cfiCond25) DPH0 load(1, XDATA, add(CFA_XSP16, literal(-1)))
        CFI (cfiCond25) CFA_SP SP+0
        CFI (cfiCond25) CFA_XSP16 add(XSP16, 28)
        CFI Block cfiPicker26 Using cfiCommon1
        CFI (cfiPicker26) NoFunction
        CFI (cfiPicker26) Picker
        MOV     A,R4
        ADD     A,#0x3
        MOV     R0,A
        MOV     A,R5
        LCALL   ?Subroutine45 & 0xFFFF
??CrossCallReturnLabel_115:
        RET
        CFI EndBlock cfiCond23
        CFI EndBlock cfiCond24
        CFI EndBlock cfiCond25
        CFI EndBlock cfiPicker26

        RSEG BANKED_CODE:CODE:NOROOT(0)
?Subroutine45:
        CFI Block cfiCond27 Using cfiCommon0
        CFI NoFunction
        CFI Conditional ??CrossCallReturnLabel_115, ??CrossCallReturnLabel_47
        CFI R6 load(1, XDATA, add(CFA_XSP16, literal(-18)))
        CFI VB load(1, XDATA, add(CFA_XSP16, literal(-17)))
        CFI V0 load(1, XDATA, add(CFA_XSP16, literal(-16)))
        CFI V1 load(1, XDATA, add(CFA_XSP16, literal(-15)))
        CFI V2 load(1, XDATA, add(CFA_XSP16, literal(-14)))
        CFI V3 load(1, XDATA, add(CFA_XSP16, literal(-13)))
        CFI V4 load(1, XDATA, add(CFA_XSP16, literal(-12)))
        CFI V5 load(1, XDATA, add(CFA_XSP16, literal(-11)))
        CFI V6 load(1, XDATA, add(CFA_XSP16, literal(-10)))
        CFI V7 load(1, XDATA, add(CFA_XSP16, literal(-9)))
        CFI V8 load(1, XDATA, add(CFA_XSP16, literal(-8)))
        CFI V9 load(1, XDATA, add(CFA_XSP16, literal(-7)))
        CFI R7 load(1, XDATA, add(CFA_XSP16, literal(-6)))
        CFI ?RET_LOW load(1, XDATA, add(CFA_XSP16, literal(-5)))
        CFI ?RET_HIGH load(1, XDATA, add(CFA_XSP16, literal(-4)))
        CFI ?BRET_EXT load(1, XDATA, add(CFA_XSP16, literal(-3)))
        CFI DPL0 load(1, XDATA, add(CFA_XSP16, literal(-2)))
        CFI DPH0 load(1, XDATA, add(CFA_XSP16, literal(-1)))
        CFI CFA_SP SP+0
        CFI CFA_XSP16 add(XSP16, 26)
        CFI Block cfiCond28 Using cfiCommon0
        CFI (cfiCond28) NoFunction
        CFI (cfiCond28) Conditional ??CrossCallReturnLabel_115, ??CrossCallReturnLabel_48
        CFI (cfiCond28) R6 load(1, XDATA, add(CFA_XSP16, literal(-18)))
        CFI (cfiCond28) VB load(1, XDATA, add(CFA_XSP16, literal(-17)))
        CFI (cfiCond28) V0 load(1, XDATA, add(CFA_XSP16, literal(-16)))
        CFI (cfiCond28) V1 load(1, XDATA, add(CFA_XSP16, literal(-15)))
        CFI (cfiCond28) V2 load(1, XDATA, add(CFA_XSP16, literal(-14)))
        CFI (cfiCond28) V3 load(1, XDATA, add(CFA_XSP16, literal(-13)))
        CFI (cfiCond28) V4 load(1, XDATA, add(CFA_XSP16, literal(-12)))
        CFI (cfiCond28) V5 load(1, XDATA, add(CFA_XSP16, literal(-11)))
        CFI (cfiCond28) V6 load(1, XDATA, add(CFA_XSP16, literal(-10)))
        CFI (cfiCond28) V7 load(1, XDATA, add(CFA_XSP16, literal(-9)))
        CFI (cfiCond28) V8 load(1, XDATA, add(CFA_XSP16, literal(-8)))
        CFI (cfiCond28) V9 load(1, XDATA, add(CFA_XSP16, literal(-7)))
        CFI (cfiCond28) R7 load(1, XDATA, add(CFA_XSP16, literal(-6)))
        CFI (cfiCond28) ?RET_LOW load(1, XDATA, add(CFA_XSP16, literal(-5)))
        CFI (cfiCond28) ?RET_HIGH load(1, XDATA, add(CFA_XSP16, literal(-4)))
        CFI (cfiCond28) ?BRET_EXT load(1, XDATA, add(CFA_XSP16, literal(-3)))
        CFI (cfiCond28) DPL0 load(1, XDATA, add(CFA_XSP16, literal(-2)))
        CFI (cfiCond28) DPH0 load(1, XDATA, add(CFA_XSP16, literal(-1)))
        CFI (cfiCond28) CFA_SP SP+0
        CFI (cfiCond28) CFA_XSP16 add(XSP16, 27)
        CFI Block cfiCond29 Using cfiCommon0
        CFI (cfiCond29) NoFunction
        CFI (cfiCond29) Conditional ??CrossCallReturnLabel_115, ??CrossCallReturnLabel_49
        CFI (cfiCond29) R6 load(1, XDATA, add(CFA_XSP16, literal(-18)))
        CFI (cfiCond29) VB load(1, XDATA, add(CFA_XSP16, literal(-17)))
        CFI (cfiCond29) V0 load(1, XDATA, add(CFA_XSP16, literal(-16)))
        CFI (cfiCond29) V1 load(1, XDATA, add(CFA_XSP16, literal(-15)))
        CFI (cfiCond29) V2 load(1, XDATA, add(CFA_XSP16, literal(-14)))
        CFI (cfiCond29) V3 load(1, XDATA, add(CFA_XSP16, literal(-13)))
        CFI (cfiCond29) V4 load(1, XDATA, add(CFA_XSP16, literal(-12)))
        CFI (cfiCond29) V5 load(1, XDATA, add(CFA_XSP16, literal(-11)))
        CFI (cfiCond29) V6 load(1, XDATA, add(CFA_XSP16, literal(-10)))
        CFI (cfiCond29) V7 load(1, XDATA, add(CFA_XSP16, literal(-9)))
        CFI (cfiCond29) V8 load(1, XDATA, add(CFA_XSP16, literal(-8)))
        CFI (cfiCond29) V9 load(1, XDATA, add(CFA_XSP16, literal(-7)))
        CFI (cfiCond29) R7 load(1, XDATA, add(CFA_XSP16, literal(-6)))
        CFI (cfiCond29) ?RET_LOW load(1, XDATA, add(CFA_XSP16, literal(-5)))
        CFI (cfiCond29) ?RET_HIGH load(1, XDATA, add(CFA_XSP16, literal(-4)))
        CFI (cfiCond29) ?BRET_EXT load(1, XDATA, add(CFA_XSP16, literal(-3)))
        CFI (cfiCond29) DPL0 load(1, XDATA, add(CFA_XSP16, literal(-2)))
        CFI (cfiCond29) DPH0 load(1, XDATA, add(CFA_XSP16, literal(-1)))
        CFI (cfiCond29) CFA_SP SP+0
        CFI (cfiCond29) CFA_XSP16 add(XSP16, 28)
        CFI Block cfiCond30 Using cfiCommon0
        CFI (cfiCond30) NoFunction
        CFI (cfiCond30) Conditional ??CrossCallReturnLabel_116, ??CrossCallReturnLabel_112
        CFI (cfiCond30) R6 load(1, XDATA, add(CFA_XSP16, literal(-24)))
        CFI (cfiCond30) VB load(1, XDATA, add(CFA_XSP16, literal(-23)))
        CFI (cfiCond30) V0 load(1, XDATA, add(CFA_XSP16, literal(-22)))
        CFI (cfiCond30) V1 load(1, XDATA, add(CFA_XSP16, literal(-21)))
        CFI (cfiCond30) V2 load(1, XDATA, add(CFA_XSP16, literal(-20)))
        CFI (cfiCond30) V3 load(1, XDATA, add(CFA_XSP16, literal(-19)))
        CFI (cfiCond30) V4 load(1, XDATA, add(CFA_XSP16, literal(-18)))
        CFI (cfiCond30) V5 load(1, XDATA, add(CFA_XSP16, literal(-17)))
        CFI (cfiCond30) V6 load(1, XDATA, add(CFA_XSP16, literal(-16)))
        CFI (cfiCond30) V7 load(1, XDATA, add(CFA_XSP16, literal(-15)))
        CFI (cfiCond30) V8 load(1, XDATA, add(CFA_XSP16, literal(-14)))
        CFI (cfiCond30) V9 load(1, XDATA, add(CFA_XSP16, literal(-13)))
        CFI (cfiCond30) V10 load(1, XDATA, add(CFA_XSP16, literal(-12)))
        CFI (cfiCond30) V11 load(1, XDATA, add(CFA_XSP16, literal(-11)))
        CFI (cfiCond30) V12 load(1, XDATA, add(CFA_XSP16, literal(-10)))
        CFI (cfiCond30) V13 load(1, XDATA, add(CFA_XSP16, literal(-9)))
        CFI (cfiCond30) V14 load(1, XDATA, add(CFA_XSP16, literal(-8)))
        CFI (cfiCond30) V15 load(1, XDATA, add(CFA_XSP16, literal(-7)))
        CFI (cfiCond30) R7 load(1, XDATA, add(CFA_XSP16, literal(-6)))
        CFI (cfiCond30) ?RET_LOW load(1, XDATA, add(CFA_XSP16, literal(-5)))
        CFI (cfiCond30) ?RET_HIGH load(1, XDATA, add(CFA_XSP16, literal(-4)))
        CFI (cfiCond30) ?BRET_EXT load(1, XDATA, add(CFA_XSP16, literal(-3)))
        CFI (cfiCond30) DPL0 load(1, XDATA, add(CFA_XSP16, literal(-2)))
        CFI (cfiCond30) DPH0 load(1, XDATA, add(CFA_XSP16, literal(-1)))
        CFI (cfiCond30) CFA_SP SP+0
        CFI (cfiCond30) CFA_XSP16 add(XSP16, 32)
        CFI Block cfiCond31 Using cfiCommon0
        CFI (cfiCond31) NoFunction
        CFI (cfiCond31) Conditional ??CrossCallReturnLabel_116, ??CrossCallReturnLabel_113
        CFI (cfiCond31) R6 load(1, XDATA, add(CFA_XSP16, literal(-24)))
        CFI (cfiCond31) VB load(1, XDATA, add(CFA_XSP16, literal(-23)))
        CFI (cfiCond31) V0 load(1, XDATA, add(CFA_XSP16, literal(-22)))
        CFI (cfiCond31) V1 load(1, XDATA, add(CFA_XSP16, literal(-21)))
        CFI (cfiCond31) V2 load(1, XDATA, add(CFA_XSP16, literal(-20)))
        CFI (cfiCond31) V3 load(1, XDATA, add(CFA_XSP16, literal(-19)))
        CFI (cfiCond31) V4 load(1, XDATA, add(CFA_XSP16, literal(-18)))
        CFI (cfiCond31) V5 load(1, XDATA, add(CFA_XSP16, literal(-17)))
        CFI (cfiCond31) V6 load(1, XDATA, add(CFA_XSP16, literal(-16)))
        CFI (cfiCond31) V7 load(1, XDATA, add(CFA_XSP16, literal(-15)))
        CFI (cfiCond31) V8 load(1, XDATA, add(CFA_XSP16, literal(-14)))
        CFI (cfiCond31) V9 load(1, XDATA, add(CFA_XSP16, literal(-13)))
        CFI (cfiCond31) V10 load(1, XDATA, add(CFA_XSP16, literal(-12)))
        CFI (cfiCond31) V11 load(1, XDATA, add(CFA_XSP16, literal(-11)))
        CFI (cfiCond31) V12 load(1, XDATA, add(CFA_XSP16, literal(-10)))
        CFI (cfiCond31) V13 load(1, XDATA, add(CFA_XSP16, literal(-9)))
        CFI (cfiCond31) V14 load(1, XDATA, add(CFA_XSP16, literal(-8)))
        CFI (cfiCond31) V15 load(1, XDATA, add(CFA_XSP16, literal(-7)))
        CFI (cfiCond31) R7 load(1, XDATA, add(CFA_XSP16, literal(-6)))
        CFI (cfiCond31) ?RET_LOW load(1, XDATA, add(CFA_XSP16, literal(-5)))
        CFI (cfiCond31) ?RET_HIGH load(1, XDATA, add(CFA_XSP16, literal(-4)))
        CFI (cfiCond31) ?BRET_EXT load(1, XDATA, add(CFA_XSP16, literal(-3)))
        CFI (cfiCond31) DPL0 load(1, XDATA, add(CFA_XSP16, literal(-2)))
        CFI (cfiCond31) DPH0 load(1, XDATA, add(CFA_XSP16, literal(-1)))
        CFI (cfiCond31) CFA_SP SP+0
        CFI (cfiCond31) CFA_XSP16 add(XSP16, 32)
        CFI Block cfiCond32 Using cfiCommon0
        CFI (cfiCond32) NoFunction
        CFI (cfiCond32) Conditional ??CrossCallReturnLabel_116, ??CrossCallReturnLabel_111
        CFI (cfiCond32) R6 load(1, XDATA, add(CFA_XSP16, literal(-14)))
        CFI (cfiCond32) VB load(1, XDATA, add(CFA_XSP16, literal(-13)))
        CFI (cfiCond32) V0 load(1, XDATA, add(CFA_XSP16, literal(-12)))
        CFI (cfiCond32) V1 load(1, XDATA, add(CFA_XSP16, literal(-11)))
        CFI (cfiCond32) V2 load(1, XDATA, add(CFA_XSP16, literal(-10)))
        CFI (cfiCond32) V3 load(1, XDATA, add(CFA_XSP16, literal(-9)))
        CFI (cfiCond32) V4 load(1, XDATA, add(CFA_XSP16, literal(-8)))
        CFI (cfiCond32) V5 load(1, XDATA, add(CFA_XSP16, literal(-7)))
        CFI (cfiCond32) R7 load(1, XDATA, add(CFA_XSP16, literal(-6)))
        CFI (cfiCond32) ?RET_LOW load(1, XDATA, add(CFA_XSP16, literal(-5)))
        CFI (cfiCond32) ?RET_HIGH load(1, XDATA, add(CFA_XSP16, literal(-4)))
        CFI (cfiCond32) ?BRET_EXT load(1, XDATA, add(CFA_XSP16, literal(-3)))
        CFI (cfiCond32) DPL0 load(1, XDATA, add(CFA_XSP16, literal(-2)))
        CFI (cfiCond32) DPH0 load(1, XDATA, add(CFA_XSP16, literal(-1)))
        CFI (cfiCond32) CFA_SP SP+0
        CFI (cfiCond32) CFA_XSP16 add(XSP16, 22)
        CFI Block cfiCond33 Using cfiCommon0
        CFI (cfiCond33) NoFunction
        CFI (cfiCond33) Conditional ??CrossCallReturnLabel_114
        CFI (cfiCond33) R6 load(1, XDATA, add(CFA_XSP16, literal(-24)))
        CFI (cfiCond33) VB load(1, XDATA, add(CFA_XSP16, literal(-23)))
        CFI (cfiCond33) V0 load(1, XDATA, add(CFA_XSP16, literal(-22)))
        CFI (cfiCond33) V1 load(1, XDATA, add(CFA_XSP16, literal(-21)))
        CFI (cfiCond33) V2 load(1, XDATA, add(CFA_XSP16, literal(-20)))
        CFI (cfiCond33) V3 load(1, XDATA, add(CFA_XSP16, literal(-19)))
        CFI (cfiCond33) V4 load(1, XDATA, add(CFA_XSP16, literal(-18)))
        CFI (cfiCond33) V5 load(1, XDATA, add(CFA_XSP16, literal(-17)))
        CFI (cfiCond33) V6 load(1, XDATA, add(CFA_XSP16, literal(-16)))
        CFI (cfiCond33) V7 load(1, XDATA, add(CFA_XSP16, literal(-15)))
        CFI (cfiCond33) V8 load(1, XDATA, add(CFA_XSP16, literal(-14)))
        CFI (cfiCond33) V9 load(1, XDATA, add(CFA_XSP16, literal(-13)))
        CFI (cfiCond33) V10 load(1, XDATA, add(CFA_XSP16, literal(-12)))
        CFI (cfiCond33) V11 load(1, XDATA, add(CFA_XSP16, literal(-11)))
        CFI (cfiCond33) V12 load(1, XDATA, add(CFA_XSP16, literal(-10)))
        CFI (cfiCond33) V13 load(1, XDATA, add(CFA_XSP16, literal(-9)))
        CFI (cfiCond33) V14 load(1, XDATA, add(CFA_XSP16, literal(-8)))
        CFI (cfiCond33) V15 load(1, XDATA, add(CFA_XSP16, literal(-7)))
        CFI (cfiCond33) R7 load(1, XDATA, add(CFA_XSP16, literal(-6)))
        CFI (cfiCond33) ?RET_LOW load(1, XDATA, add(CFA_XSP16, literal(-5)))
        CFI (cfiCond33) ?RET_HIGH load(1, XDATA, add(CFA_XSP16, literal(-4)))
        CFI (cfiCond33) ?BRET_EXT load(1, XDATA, add(CFA_XSP16, literal(-3)))
        CFI (cfiCond33) DPL0 load(1, XDATA, add(CFA_XSP16, literal(-2)))
        CFI (cfiCond33) DPH0 load(1, XDATA, add(CFA_XSP16, literal(-1)))
        CFI (cfiCond33) CFA_SP SP+0
        CFI (cfiCond33) CFA_XSP16 add(XSP16, 35)
        CFI Block cfiPicker34 Using cfiCommon1
        CFI (cfiPicker34) NoFunction
        CFI (cfiPicker34) Picker
        ADDC    A,#0x0
        MOV     R1,A
        MOV     A,R0
        ANL     A,#0xfc
        RET
        CFI EndBlock cfiCond27
        CFI EndBlock cfiCond28
        CFI EndBlock cfiCond29
        CFI EndBlock cfiCond30
        CFI EndBlock cfiCond31
        CFI EndBlock cfiCond32
        CFI EndBlock cfiCond33
        CFI EndBlock cfiPicker34

        RSEG BANKED_CODE:CODE:NOROOT(0)
?Subroutine24:
        CFI Block cfiCond35 Using cfiCommon0
        CFI NoFunction
        CFI Conditional ??CrossCallReturnLabel_79
        CFI R6 load(1, XDATA, add(CFA_XSP16, literal(-18)))
        CFI VB load(1, XDATA, add(CFA_XSP16, literal(-17)))
        CFI V0 load(1, XDATA, add(CFA_XSP16, literal(-16)))
        CFI V1 load(1, XDATA, add(CFA_XSP16, literal(-15)))
        CFI V2 load(1, XDATA, add(CFA_XSP16, literal(-14)))
        CFI V3 load(1, XDATA, add(CFA_XSP16, literal(-13)))
        CFI V4 load(1, XDATA, add(CFA_XSP16, literal(-12)))
        CFI V5 load(1, XDATA, add(CFA_XSP16, literal(-11)))
        CFI V6 load(1, XDATA, add(CFA_XSP16, literal(-10)))
        CFI V7 load(1, XDATA, add(CFA_XSP16, literal(-9)))
        CFI V8 load(1, XDATA, add(CFA_XSP16, literal(-8)))
        CFI V9 load(1, XDATA, add(CFA_XSP16, literal(-7)))
        CFI R7 load(1, XDATA, add(CFA_XSP16, literal(-6)))
        CFI ?RET_LOW load(1, XDATA, add(CFA_XSP16, literal(-5)))
        CFI ?RET_HIGH load(1, XDATA, add(CFA_XSP16, literal(-4)))
        CFI ?BRET_EXT load(1, XDATA, add(CFA_XSP16, literal(-3)))
        CFI DPL0 load(1, XDATA, add(CFA_XSP16, literal(-2)))
        CFI DPH0 load(1, XDATA, add(CFA_XSP16, literal(-1)))
        CFI CFA_SP SP+0
        CFI CFA_XSP16 add(XSP16, 27)
        CFI Block cfiCond36 Using cfiCommon0
        CFI (cfiCond36) NoFunction
        CFI (cfiCond36) Conditional ??CrossCallReturnLabel_80
        CFI (cfiCond36) R6 load(1, XDATA, add(CFA_XSP16, literal(-18)))
        CFI (cfiCond36) VB load(1, XDATA, add(CFA_XSP16, literal(-17)))
        CFI (cfiCond36) V0 load(1, XDATA, add(CFA_XSP16, literal(-16)))
        CFI (cfiCond36) V1 load(1, XDATA, add(CFA_XSP16, literal(-15)))
        CFI (cfiCond36) V2 load(1, XDATA, add(CFA_XSP16, literal(-14)))
        CFI (cfiCond36) V3 load(1, XDATA, add(CFA_XSP16, literal(-13)))
        CFI (cfiCond36) V4 load(1, XDATA, add(CFA_XSP16, literal(-12)))
        CFI (cfiCond36) V5 load(1, XDATA, add(CFA_XSP16, literal(-11)))
        CFI (cfiCond36) V6 load(1, XDATA, add(CFA_XSP16, literal(-10)))
        CFI (cfiCond36) V7 load(1, XDATA, add(CFA_XSP16, literal(-9)))
        CFI (cfiCond36) V8 load(1, XDATA, add(CFA_XSP16, literal(-8)))
        CFI (cfiCond36) V9 load(1, XDATA, add(CFA_XSP16, literal(-7)))
        CFI (cfiCond36) R7 load(1, XDATA, add(CFA_XSP16, literal(-6)))
        CFI (cfiCond36) ?RET_LOW load(1, XDATA, add(CFA_XSP16, literal(-5)))
        CFI (cfiCond36) ?RET_HIGH load(1, XDATA, add(CFA_XSP16, literal(-4)))
        CFI (cfiCond36) ?BRET_EXT load(1, XDATA, add(CFA_XSP16, literal(-3)))
        CFI (cfiCond36) DPL0 load(1, XDATA, add(CFA_XSP16, literal(-2)))
        CFI (cfiCond36) DPH0 load(1, XDATA, add(CFA_XSP16, literal(-1)))
        CFI (cfiCond36) CFA_SP SP+0
        CFI (cfiCond36) CFA_XSP16 add(XSP16, 27)
        CFI Block cfiCond37 Using cfiCommon0
        CFI (cfiCond37) NoFunction
        CFI (cfiCond37) Conditional ??CrossCallReturnLabel_81
        CFI (cfiCond37) R6 load(1, XDATA, add(CFA_XSP16, literal(-24)))
        CFI (cfiCond37) VB load(1, XDATA, add(CFA_XSP16, literal(-23)))
        CFI (cfiCond37) V0 load(1, XDATA, add(CFA_XSP16, literal(-22)))
        CFI (cfiCond37) V1 load(1, XDATA, add(CFA_XSP16, literal(-21)))
        CFI (cfiCond37) V2 load(1, XDATA, add(CFA_XSP16, literal(-20)))
        CFI (cfiCond37) V3 load(1, XDATA, add(CFA_XSP16, literal(-19)))
        CFI (cfiCond37) V4 load(1, XDATA, add(CFA_XSP16, literal(-18)))
        CFI (cfiCond37) V5 load(1, XDATA, add(CFA_XSP16, literal(-17)))
        CFI (cfiCond37) V6 load(1, XDATA, add(CFA_XSP16, literal(-16)))
        CFI (cfiCond37) V7 load(1, XDATA, add(CFA_XSP16, literal(-15)))
        CFI (cfiCond37) V8 load(1, XDATA, add(CFA_XSP16, literal(-14)))
        CFI (cfiCond37) V9 load(1, XDATA, add(CFA_XSP16, literal(-13)))
        CFI (cfiCond37) V10 load(1, XDATA, add(CFA_XSP16, literal(-12)))
        CFI (cfiCond37) V11 load(1, XDATA, add(CFA_XSP16, literal(-11)))
        CFI (cfiCond37) V12 load(1, XDATA, add(CFA_XSP16, literal(-10)))
        CFI (cfiCond37) V13 load(1, XDATA, add(CFA_XSP16, literal(-9)))
        CFI (cfiCond37) V14 load(1, XDATA, add(CFA_XSP16, literal(-8)))
        CFI (cfiCond37) V15 load(1, XDATA, add(CFA_XSP16, literal(-7)))
        CFI (cfiCond37) R7 load(1, XDATA, add(CFA_XSP16, literal(-6)))
        CFI (cfiCond37) ?RET_LOW load(1, XDATA, add(CFA_XSP16, literal(-5)))
        CFI (cfiCond37) ?RET_HIGH load(1, XDATA, add(CFA_XSP16, literal(-4)))
        CFI (cfiCond37) ?BRET_EXT load(1, XDATA, add(CFA_XSP16, literal(-3)))
        CFI (cfiCond37) DPL0 load(1, XDATA, add(CFA_XSP16, literal(-2)))
        CFI (cfiCond37) DPH0 load(1, XDATA, add(CFA_XSP16, literal(-1)))
        CFI (cfiCond37) CFA_SP SP+0
        CFI (cfiCond37) CFA_XSP16 add(XSP16, 35)
        CFI Block cfiPicker38 Using cfiCommon1
        CFI (cfiPicker38) NoFunction
        CFI (cfiPicker38) Picker
        MOV     DPTR,#pgRes
        CFI EndBlock cfiCond35
        CFI EndBlock cfiCond36
        CFI EndBlock cfiCond37
        CFI EndBlock cfiPicker38
        REQUIRE ??Subroutine49_0
        ; // Fall through to label ??Subroutine49_0

        RSEG BANKED_CODE:CODE:NOROOT(0)
??Subroutine49_0:
        CFI Block cfiCond39 Using cfiCommon0
        CFI NoFunction
        CFI Conditional ??CrossCallReturnLabel_82
        CFI R6 load(1, XDATA, add(CFA_XSP16, literal(-24)))
        CFI VB load(1, XDATA, add(CFA_XSP16, literal(-23)))
        CFI V0 load(1, XDATA, add(CFA_XSP16, literal(-22)))
        CFI V1 load(1, XDATA, add(CFA_XSP16, literal(-21)))
        CFI V2 load(1, XDATA, add(CFA_XSP16, literal(-20)))
        CFI V3 load(1, XDATA, add(CFA_XSP16, literal(-19)))
        CFI V4 load(1, XDATA, add(CFA_XSP16, literal(-18)))
        CFI V5 load(1, XDATA, add(CFA_XSP16, literal(-17)))
        CFI V6 load(1, XDATA, add(CFA_XSP16, literal(-16)))
        CFI V7 load(1, XDATA, add(CFA_XSP16, literal(-15)))
        CFI V8 load(1, XDATA, add(CFA_XSP16, literal(-14)))
        CFI V9 load(1, XDATA, add(CFA_XSP16, literal(-13)))
        CFI V10 load(1, XDATA, add(CFA_XSP16, literal(-12)))
        CFI V11 load(1, XDATA, add(CFA_XSP16, literal(-11)))
        CFI V12 load(1, XDATA, add(CFA_XSP16, literal(-10)))
        CFI V13 load(1, XDATA, add(CFA_XSP16, literal(-9)))
        CFI V14 load(1, XDATA, add(CFA_XSP16, literal(-8)))
        CFI V15 load(1, XDATA, add(CFA_XSP16, literal(-7)))
        CFI R7 load(1, XDATA, add(CFA_XSP16, literal(-6)))
        CFI ?RET_LOW load(1, XDATA, add(CFA_XSP16, literal(-5)))
        CFI ?RET_HIGH load(1, XDATA, add(CFA_XSP16, literal(-4)))
        CFI ?BRET_EXT load(1, XDATA, add(CFA_XSP16, literal(-3)))
        CFI DPL0 load(1, XDATA, add(CFA_XSP16, literal(-2)))
        CFI DPH0 load(1, XDATA, add(CFA_XSP16, literal(-1)))
        CFI CFA_SP SP+0
        CFI CFA_XSP16 add(XSP16, 35)
        CFI Block cfiCond40 Using cfiCommon0
        CFI (cfiCond40) NoFunction
        CFI (cfiCond40) Conditional ??CrossCallReturnLabel_79
        CFI (cfiCond40) R6 load(1, XDATA, add(CFA_XSP16, literal(-18)))
        CFI (cfiCond40) VB load(1, XDATA, add(CFA_XSP16, literal(-17)))
        CFI (cfiCond40) V0 load(1, XDATA, add(CFA_XSP16, literal(-16)))
        CFI (cfiCond40) V1 load(1, XDATA, add(CFA_XSP16, literal(-15)))
        CFI (cfiCond40) V2 load(1, XDATA, add(CFA_XSP16, literal(-14)))
        CFI (cfiCond40) V3 load(1, XDATA, add(CFA_XSP16, literal(-13)))
        CFI (cfiCond40) V4 load(1, XDATA, add(CFA_XSP16, literal(-12)))
        CFI (cfiCond40) V5 load(1, XDATA, add(CFA_XSP16, literal(-11)))
        CFI (cfiCond40) V6 load(1, XDATA, add(CFA_XSP16, literal(-10)))
        CFI (cfiCond40) V7 load(1, XDATA, add(CFA_XSP16, literal(-9)))
        CFI (cfiCond40) V8 load(1, XDATA, add(CFA_XSP16, literal(-8)))
        CFI (cfiCond40) V9 load(1, XDATA, add(CFA_XSP16, literal(-7)))
        CFI (cfiCond40) R7 load(1, XDATA, add(CFA_XSP16, literal(-6)))
        CFI (cfiCond40) ?RET_LOW load(1, XDATA, add(CFA_XSP16, literal(-5)))
        CFI (cfiCond40) ?RET_HIGH load(1, XDATA, add(CFA_XSP16, literal(-4)))
        CFI (cfiCond40) ?BRET_EXT load(1, XDATA, add(CFA_XSP16, literal(-3)))
        CFI (cfiCond40) DPL0 load(1, XDATA, add(CFA_XSP16, literal(-2)))
        CFI (cfiCond40) DPH0 load(1, XDATA, add(CFA_XSP16, literal(-1)))
        CFI (cfiCond40) CFA_SP SP+0
        CFI (cfiCond40) CFA_XSP16 add(XSP16, 27)
        CFI Block cfiCond41 Using cfiCommon0
        CFI (cfiCond41) NoFunction
        CFI (cfiCond41) Conditional ??CrossCallReturnLabel_80
        CFI (cfiCond41) R6 load(1, XDATA, add(CFA_XSP16, literal(-18)))
        CFI (cfiCond41) VB load(1, XDATA, add(CFA_XSP16, literal(-17)))
        CFI (cfiCond41) V0 load(1, XDATA, add(CFA_XSP16, literal(-16)))
        CFI (cfiCond41) V1 load(1, XDATA, add(CFA_XSP16, literal(-15)))
        CFI (cfiCond41) V2 load(1, XDATA, add(CFA_XSP16, literal(-14)))
        CFI (cfiCond41) V3 load(1, XDATA, add(CFA_XSP16, literal(-13)))
        CFI (cfiCond41) V4 load(1, XDATA, add(CFA_XSP16, literal(-12)))
        CFI (cfiCond41) V5 load(1, XDATA, add(CFA_XSP16, literal(-11)))
        CFI (cfiCond41) V6 load(1, XDATA, add(CFA_XSP16, literal(-10)))
        CFI (cfiCond41) V7 load(1, XDATA, add(CFA_XSP16, literal(-9)))
        CFI (cfiCond41) V8 load(1, XDATA, add(CFA_XSP16, literal(-8)))
        CFI (cfiCond41) V9 load(1, XDATA, add(CFA_XSP16, literal(-7)))
        CFI (cfiCond41) R7 load(1, XDATA, add(CFA_XSP16, literal(-6)))
        CFI (cfiCond41) ?RET_LOW load(1, XDATA, add(CFA_XSP16, literal(-5)))
        CFI (cfiCond41) ?RET_HIGH load(1, XDATA, add(CFA_XSP16, literal(-4)))
        CFI (cfiCond41) ?BRET_EXT load(1, XDATA, add(CFA_XSP16, literal(-3)))
        CFI (cfiCond41) DPL0 load(1, XDATA, add(CFA_XSP16, literal(-2)))
        CFI (cfiCond41) DPH0 load(1, XDATA, add(CFA_XSP16, literal(-1)))
        CFI (cfiCond41) CFA_SP SP+0
        CFI (cfiCond41) CFA_XSP16 add(XSP16, 27)
        CFI Block cfiCond42 Using cfiCommon0
        CFI (cfiCond42) NoFunction
        CFI (cfiCond42) Conditional ??CrossCallReturnLabel_81
        CFI (cfiCond42) R6 load(1, XDATA, add(CFA_XSP16, literal(-24)))
        CFI (cfiCond42) VB load(1, XDATA, add(CFA_XSP16, literal(-23)))
        CFI (cfiCond42) V0 load(1, XDATA, add(CFA_XSP16, literal(-22)))
        CFI (cfiCond42) V1 load(1, XDATA, add(CFA_XSP16, literal(-21)))
        CFI (cfiCond42) V2 load(1, XDATA, add(CFA_XSP16, literal(-20)))
        CFI (cfiCond42) V3 load(1, XDATA, add(CFA_XSP16, literal(-19)))
        CFI (cfiCond42) V4 load(1, XDATA, add(CFA_XSP16, literal(-18)))
        CFI (cfiCond42) V5 load(1, XDATA, add(CFA_XSP16, literal(-17)))
        CFI (cfiCond42) V6 load(1, XDATA, add(CFA_XSP16, literal(-16)))
        CFI (cfiCond42) V7 load(1, XDATA, add(CFA_XSP16, literal(-15)))
        CFI (cfiCond42) V8 load(1, XDATA, add(CFA_XSP16, literal(-14)))
        CFI (cfiCond42) V9 load(1, XDATA, add(CFA_XSP16, literal(-13)))
        CFI (cfiCond42) V10 load(1, XDATA, add(CFA_XSP16, literal(-12)))
        CFI (cfiCond42) V11 load(1, XDATA, add(CFA_XSP16, literal(-11)))
        CFI (cfiCond42) V12 load(1, XDATA, add(CFA_XSP16, literal(-10)))
        CFI (cfiCond42) V13 load(1, XDATA, add(CFA_XSP16, literal(-9)))
        CFI (cfiCond42) V14 load(1, XDATA, add(CFA_XSP16, literal(-8)))
        CFI (cfiCond42) V15 load(1, XDATA, add(CFA_XSP16, literal(-7)))
        CFI (cfiCond42) R7 load(1, XDATA, add(CFA_XSP16, literal(-6)))
        CFI (cfiCond42) ?RET_LOW load(1, XDATA, add(CFA_XSP16, literal(-5)))
        CFI (cfiCond42) ?RET_HIGH load(1, XDATA, add(CFA_XSP16, literal(-4)))
        CFI (cfiCond42) ?BRET_EXT load(1, XDATA, add(CFA_XSP16, literal(-3)))
        CFI (cfiCond42) DPL0 load(1, XDATA, add(CFA_XSP16, literal(-2)))
        CFI (cfiCond42) DPH0 load(1, XDATA, add(CFA_XSP16, literal(-1)))
        CFI (cfiCond42) CFA_SP SP+0
        CFI (cfiCond42) CFA_XSP16 add(XSP16, 35)
        CFI Block cfiPicker43 Using cfiCommon1
        CFI (cfiPicker43) NoFunction
        CFI (cfiPicker43) Picker
        MOVX    A,@DPTR
        MOV     R1,A
        LCALL   ??erasePage?relay
        RET
        CFI EndBlock cfiCond39
        CFI EndBlock cfiCond40
        CFI EndBlock cfiCond41
        CFI EndBlock cfiCond42
        CFI EndBlock cfiPicker43

        RSEG BANKED_CODE:CODE:NOROOT(0)
?Subroutine15:
        CFI Block cfiCond44 Using cfiCommon0
        CFI NoFunction
        CFI Conditional ??CrossCallReturnLabel_10
        CFI R6 load(1, XDATA, add(CFA_XSP16, literal(-18)))
        CFI VB load(1, XDATA, add(CFA_XSP16, literal(-17)))
        CFI V0 load(1, XDATA, add(CFA_XSP16, literal(-16)))
        CFI V1 load(1, XDATA, add(CFA_XSP16, literal(-15)))
        CFI V2 load(1, XDATA, add(CFA_XSP16, literal(-14)))
        CFI V3 load(1, XDATA, add(CFA_XSP16, literal(-13)))
        CFI V4 load(1, XDATA, add(CFA_XSP16, literal(-12)))
        CFI V5 load(1, XDATA, add(CFA_XSP16, literal(-11)))
        CFI V6 load(1, XDATA, add(CFA_XSP16, literal(-10)))
        CFI V7 load(1, XDATA, add(CFA_XSP16, literal(-9)))
        CFI V8 load(1, XDATA, add(CFA_XSP16, literal(-8)))
        CFI V9 load(1, XDATA, add(CFA_XSP16, literal(-7)))
        CFI R7 load(1, XDATA, add(CFA_XSP16, literal(-6)))
        CFI ?RET_LOW load(1, XDATA, add(CFA_XSP16, literal(-5)))
        CFI ?RET_HIGH load(1, XDATA, add(CFA_XSP16, literal(-4)))
        CFI ?BRET_EXT load(1, XDATA, add(CFA_XSP16, literal(-3)))
        CFI DPL0 load(1, XDATA, add(CFA_XSP16, literal(-2)))
        CFI DPH0 load(1, XDATA, add(CFA_XSP16, literal(-1)))
        CFI CFA_SP SP+0
        CFI CFA_XSP16 add(XSP16, 26)
        CFI Block cfiCond45 Using cfiCommon0
        CFI (cfiCond45) NoFunction
        CFI (cfiCond45) Conditional ??CrossCallReturnLabel_11
        CFI (cfiCond45) R6 load(1, XDATA, add(CFA_XSP16, literal(-18)))
        CFI (cfiCond45) VB load(1, XDATA, add(CFA_XSP16, literal(-17)))
        CFI (cfiCond45) V0 load(1, XDATA, add(CFA_XSP16, literal(-16)))
        CFI (cfiCond45) V1 load(1, XDATA, add(CFA_XSP16, literal(-15)))
        CFI (cfiCond45) V2 load(1, XDATA, add(CFA_XSP16, literal(-14)))
        CFI (cfiCond45) V3 load(1, XDATA, add(CFA_XSP16, literal(-13)))
        CFI (cfiCond45) V4 load(1, XDATA, add(CFA_XSP16, literal(-12)))
        CFI (cfiCond45) V5 load(1, XDATA, add(CFA_XSP16, literal(-11)))
        CFI (cfiCond45) V6 load(1, XDATA, add(CFA_XSP16, literal(-10)))
        CFI (cfiCond45) V7 load(1, XDATA, add(CFA_XSP16, literal(-9)))
        CFI (cfiCond45) V8 load(1, XDATA, add(CFA_XSP16, literal(-8)))
        CFI (cfiCond45) V9 load(1, XDATA, add(CFA_XSP16, literal(-7)))
        CFI (cfiCond45) R7 load(1, XDATA, add(CFA_XSP16, literal(-6)))
        CFI (cfiCond45) ?RET_LOW load(1, XDATA, add(CFA_XSP16, literal(-5)))
        CFI (cfiCond45) ?RET_HIGH load(1, XDATA, add(CFA_XSP16, literal(-4)))
        CFI (cfiCond45) ?BRET_EXT load(1, XDATA, add(CFA_XSP16, literal(-3)))
        CFI (cfiCond45) DPL0 load(1, XDATA, add(CFA_XSP16, literal(-2)))
        CFI (cfiCond45) DPH0 load(1, XDATA, add(CFA_XSP16, literal(-1)))
        CFI (cfiCond45) CFA_SP SP+0
        CFI (cfiCond45) CFA_XSP16 add(XSP16, 27)
        CFI Block cfiPicker46 Using cfiCommon1
        CFI (cfiPicker46) NoFunction
        CFI (cfiPicker46) Picker
        LCALL   ?Subroutine43 & 0xFFFF
??CrossCallReturnLabel_70:
        CLR     C
        MOV     A,R4
        SUBB    A,#-0x4
        MOV     A,R5
        SUBB    A,#-0x1
        RET
        CFI EndBlock cfiCond44
        CFI EndBlock cfiCond45
        CFI EndBlock cfiPicker46

        RSEG BANKED_CODE:CODE:NOROOT(0)
?Subroutine14:
        CFI Block cfiCond47 Using cfiCommon0
        CFI NoFunction
        CFI Conditional ??CrossCallReturnLabel_8
        CFI R6 load(1, XDATA, add(CFA_XSP16, literal(-18)))
        CFI VB load(1, XDATA, add(CFA_XSP16, literal(-17)))
        CFI V0 load(1, XDATA, add(CFA_XSP16, literal(-16)))
        CFI V1 load(1, XDATA, add(CFA_XSP16, literal(-15)))
        CFI V2 load(1, XDATA, add(CFA_XSP16, literal(-14)))
        CFI V3 load(1, XDATA, add(CFA_XSP16, literal(-13)))
        CFI V4 load(1, XDATA, add(CFA_XSP16, literal(-12)))
        CFI V5 load(1, XDATA, add(CFA_XSP16, literal(-11)))
        CFI V6 load(1, XDATA, add(CFA_XSP16, literal(-10)))
        CFI V7 load(1, XDATA, add(CFA_XSP16, literal(-9)))
        CFI V8 load(1, XDATA, add(CFA_XSP16, literal(-8)))
        CFI V9 load(1, XDATA, add(CFA_XSP16, literal(-7)))
        CFI R7 load(1, XDATA, add(CFA_XSP16, literal(-6)))
        CFI ?RET_LOW load(1, XDATA, add(CFA_XSP16, literal(-5)))
        CFI ?RET_HIGH load(1, XDATA, add(CFA_XSP16, literal(-4)))
        CFI ?BRET_EXT load(1, XDATA, add(CFA_XSP16, literal(-3)))
        CFI DPL0 load(1, XDATA, add(CFA_XSP16, literal(-2)))
        CFI DPH0 load(1, XDATA, add(CFA_XSP16, literal(-1)))
        CFI CFA_SP SP+0
        CFI CFA_XSP16 add(XSP16, 27)
        CFI Block cfiCond48 Using cfiCommon0
        CFI (cfiCond48) NoFunction
        CFI (cfiCond48) Conditional ??CrossCallReturnLabel_9
        CFI (cfiCond48) R6 load(1, XDATA, add(CFA_XSP16, literal(-18)))
        CFI (cfiCond48) VB load(1, XDATA, add(CFA_XSP16, literal(-17)))
        CFI (cfiCond48) V0 load(1, XDATA, add(CFA_XSP16, literal(-16)))
        CFI (cfiCond48) V1 load(1, XDATA, add(CFA_XSP16, literal(-15)))
        CFI (cfiCond48) V2 load(1, XDATA, add(CFA_XSP16, literal(-14)))
        CFI (cfiCond48) V3 load(1, XDATA, add(CFA_XSP16, literal(-13)))
        CFI (cfiCond48) V4 load(1, XDATA, add(CFA_XSP16, literal(-12)))
        CFI (cfiCond48) V5 load(1, XDATA, add(CFA_XSP16, literal(-11)))
        CFI (cfiCond48) V6 load(1, XDATA, add(CFA_XSP16, literal(-10)))
        CFI (cfiCond48) V7 load(1, XDATA, add(CFA_XSP16, literal(-9)))
        CFI (cfiCond48) V8 load(1, XDATA, add(CFA_XSP16, literal(-8)))
        CFI (cfiCond48) V9 load(1, XDATA, add(CFA_XSP16, literal(-7)))
        CFI (cfiCond48) R7 load(1, XDATA, add(CFA_XSP16, literal(-6)))
        CFI (cfiCond48) ?RET_LOW load(1, XDATA, add(CFA_XSP16, literal(-5)))
        CFI (cfiCond48) ?RET_HIGH load(1, XDATA, add(CFA_XSP16, literal(-4)))
        CFI (cfiCond48) ?BRET_EXT load(1, XDATA, add(CFA_XSP16, literal(-3)))
        CFI (cfiCond48) DPL0 load(1, XDATA, add(CFA_XSP16, literal(-2)))
        CFI (cfiCond48) DPH0 load(1, XDATA, add(CFA_XSP16, literal(-1)))
        CFI (cfiCond48) CFA_SP SP+0
        CFI (cfiCond48) CFA_XSP16 add(XSP16, 27)
        CFI Block cfiPicker49 Using cfiCommon1
        CFI (cfiPicker49) NoFunction
        CFI (cfiPicker49) Picker
        LCALL   ?Subroutine43 & 0xFFFF
??CrossCallReturnLabel_69:
        MOV     R2,?V0 + 6
        MOV     R3,?V0 + 7
        MOV     DPTR,#pgRes
        MOVX    A,@DPTR
        MOV     R1,A
        RET
        CFI EndBlock cfiCond47
        CFI EndBlock cfiCond48
        CFI EndBlock cfiPicker49
//  635 
//  636 /*********************************************************************
//  637  * @fn      findItem
//  638  *
//  639  * @brief   Find an item Id in NV and return the page and offset to its data.
//  640  *
//  641  * @param   id - Valid NV item Id.
//  642  *
//  643  * @return  Offset of data corresponding to item Id, if found;
//  644  *          otherwise OSAL_NV_ITEM_NULL.
//  645  *
//  646  *          The page containing the item, if found;
//  647  *          otherwise no valid assignment made - left equal to item Id.
//  648  *
//  649  */

        RSEG BANKED_CODE:CODE:NOROOT(0)
//  650 static uint16 findItem( uint16 id )
findItem:
        CFI Block cfiBlock50 Using cfiCommon0
        CFI Function findItem
        CODE
//  651 {
        FUNCALL findItem, initPage
        LOCFRAME ISTACK, 0, STACK
        LOCFRAME PSTACK, 0, STACK
        LOCFRAME XSTACK, 12, STACK
        LOCFRAME IOVERLAY, 0, STATIC
        LOCFRAME DOVERLAY, 0, STATIC
        ARGFRAME ISTACK, 0, STACK
        ARGFRAME PSTACK, 0, STACK
        ARGFRAME XSTACK, 12, STACK
        ARGFRAME IOVERLAY, 0, STATIC
        ARGFRAME DOVERLAY, 0, STATIC
        MOV     A,#-0xc
        LCALL   ?BANKED_ENTER_XDATA
        CFI DPH0 load(1, XDATA, add(CFA_XSP16, literal(-1)))
        CFI DPL0 load(1, XDATA, add(CFA_XSP16, literal(-2)))
        CFI ?BRET_EXT load(1, XDATA, add(CFA_XSP16, literal(-3)))
        CFI ?RET_HIGH load(1, XDATA, add(CFA_XSP16, literal(-4)))
        CFI ?RET_LOW load(1, XDATA, add(CFA_XSP16, literal(-5)))
        CFI R7 load(1, XDATA, add(CFA_XSP16, literal(-6)))
        CFI V3 load(1, XDATA, add(CFA_XSP16, literal(-7)))
        CFI V2 load(1, XDATA, add(CFA_XSP16, literal(-8)))
        CFI V1 load(1, XDATA, add(CFA_XSP16, literal(-9)))
        CFI V0 load(1, XDATA, add(CFA_XSP16, literal(-10)))
        CFI VB load(1, XDATA, add(CFA_XSP16, literal(-11)))
        CFI R6 load(1, XDATA, add(CFA_XSP16, literal(-12)))
        CFI CFA_SP SP+0
        CFI CFA_XSP16 add(XSP16, 12)
        ; Saved register size: 12
        ; Auto size: 0
        MOV     A,R2
        MOV     R6,A
        MOV     A,R3
        SJMP    ??findItem_0
//  652   uint16 off;
//  653   uint8 pg;
//  654 
//  655   for ( pg = OSAL_NV_PAGE_BEG; pg <= OSAL_NV_PAGE_END; pg++ )
//  656   {
//  657     if ( (off = initPage( pg, id, FALSE )) != OSAL_NV_ITEM_NULL )
//  658     {
//  659       findPg = pg;
//  660       return off;
//  661     }
//  662   }
//  663 
//  664   // Now attempt to find the item as the "old" item of a failed/interrupted NV write.
//  665   if ( (id & OSAL_NV_SOURCE_ID) == 0 )
//  666   {
//  667     return findItem( id | OSAL_NV_SOURCE_ID );
??findItem_1:
        MOV     A,#-0x80
        ORL     A,R7
??findItem_0:
        MOV     R7,A
//  668   }
        MOV     ?V0 + 0,#0x79
??findItem_2:
        ; Setup parameters for call to function initPage
        MOV     R4,#0x0
        MOV     A,R6
        MOV     R2,A
        MOV     A,R7
        MOV     R3,A
        MOV     R1,?V0 + 0
        LCALL   ??initPage?relay
        MOV     ?V0 + 3,R3
        MOV     R1,?V0 + 3
        MOV     A,R2
        ORL     A,R1
        JZ      ??findItem_3
        MOV     A,?V0 + 0
        MOV     DPTR,#findPg
        MOVX    @DPTR,A
        SJMP    ??findItem_4
??findItem_3:
        INC     ?V0 + 0
        MOV     A,?V0 + 0
        CLR     C
        SUBB    A,#0x7f
        JC      ??findItem_2
        MOV     A,R7
        ANL     A,#0x80
        JZ      ??findItem_1
//  669   else
//  670   {
//  671     findPg = OSAL_NV_PAGE_NULL;
        MOV     DPTR,#findPg
        CLR     A
        MOVX    @DPTR,A
//  672     return OSAL_NV_ITEM_NULL;
        MOV     R2,A
        MOV     R3,A
//  673   }
??findItem_4:
        LJMP    ??Subroutine55_0 & 0xFFFF
        CFI EndBlock cfiBlock50
//  674 }
//  675 
//  676 /*********************************************************************
//  677  * @fn      initItem
//  678  *
//  679  * @brief   An NV item is created and initialized with the data passed to the function, if any.
//  680  *
//  681  * @param   flag - TRUE if the 'buf' parameter contains data for the call to writeItem().
//  682  *                 (i.e. if invoked from osal_nv_item_init() ).
//  683  *                 FALSE if writeItem() should just write the header and the 'buf' parameter
//  684  *                 is ok to use as a return value of the page number to be cleaned with
//  685  *                 COMPACT_PAGE_CLEANUP().
//  686  *                 (i.e. if invoked from osal_nv_write() ).
//  687  * @param   id  - Valid NV item Id.
//  688  * @param   len - Item data length.
//  689  * @param  *buf - Pointer to item initalization data. Set to NULL if none.
//  690  *
//  691  * @return  The OSAL Nv page number if item write and read back checksums ok;
//  692  *          OSAL_NV_PAGE_NULL otherwise.
//  693  */

        RSEG BANKED_CODE:CODE:NOROOT(0)
//  694 static uint8 initItem( uint8 flag, uint16 id, uint16 len, void *buf )
initItem:
        CFI Block cfiBlock51 Using cfiCommon0
        CFI Function initItem
        CODE
//  695 {
        FUNCALL initItem, HalFlashRead
        LOCFRAME ISTACK, 0, STACK
        LOCFRAME PSTACK, 0, STACK
        LOCFRAME XSTACK, 30, STACK
        LOCFRAME IOVERLAY, 0, STATIC
        LOCFRAME DOVERLAY, 0, STATIC
        ARGFRAME ISTACK, 0, STACK
        ARGFRAME PSTACK, 0, STACK
        ARGFRAME XSTACK, 30, STACK
        ARGFRAME IOVERLAY, 0, STATIC
        ARGFRAME DOVERLAY, 0, STATIC
        FUNCALL initItem, writeWordH
        LOCFRAME ISTACK, 0, STACK
        LOCFRAME PSTACK, 0, STACK
        LOCFRAME XSTACK, 28, STACK
        LOCFRAME IOVERLAY, 0, STATIC
        LOCFRAME DOVERLAY, 0, STATIC
        ARGFRAME ISTACK, 0, STACK
        ARGFRAME PSTACK, 0, STACK
        ARGFRAME XSTACK, 28, STACK
        ARGFRAME IOVERLAY, 0, STATIC
        ARGFRAME DOVERLAY, 0, STATIC
        FUNCALL initItem, compactPage
        LOCFRAME ISTACK, 0, STACK
        LOCFRAME PSTACK, 0, STACK
        LOCFRAME XSTACK, 28, STACK
        LOCFRAME IOVERLAY, 0, STATIC
        LOCFRAME DOVERLAY, 0, STATIC
        ARGFRAME ISTACK, 0, STACK
        ARGFRAME PSTACK, 0, STACK
        ARGFRAME XSTACK, 28, STACK
        ARGFRAME IOVERLAY, 0, STATIC
        ARGFRAME DOVERLAY, 0, STATIC
        FUNCALL initItem, writeItem
        LOCFRAME ISTACK, 0, STACK
        LOCFRAME PSTACK, 0, STACK
        LOCFRAME XSTACK, 31, STACK
        LOCFRAME IOVERLAY, 0, STATIC
        LOCFRAME DOVERLAY, 0, STATIC
        ARGFRAME ISTACK, 0, STACK
        ARGFRAME PSTACK, 0, STACK
        ARGFRAME XSTACK, 31, STACK
        ARGFRAME IOVERLAY, 0, STATIC
        ARGFRAME DOVERLAY, 0, STATIC
        FUNCALL initItem, setPageUse
        LOCFRAME ISTACK, 0, STACK
        LOCFRAME PSTACK, 0, STACK
        LOCFRAME XSTACK, 28, STACK
        LOCFRAME IOVERLAY, 0, STATIC
        LOCFRAME DOVERLAY, 0, STATIC
        ARGFRAME ISTACK, 0, STACK
        ARGFRAME PSTACK, 0, STACK
        ARGFRAME XSTACK, 28, STACK
        ARGFRAME IOVERLAY, 0, STATIC
        ARGFRAME DOVERLAY, 0, STATIC
        FUNCALL initItem, erasePage
        LOCFRAME ISTACK, 0, STACK
        LOCFRAME PSTACK, 0, STACK
        LOCFRAME XSTACK, 28, STACK
        LOCFRAME IOVERLAY, 0, STATIC
        LOCFRAME DOVERLAY, 0, STATIC
        ARGFRAME ISTACK, 0, STACK
        ARGFRAME PSTACK, 0, STACK
        ARGFRAME XSTACK, 28, STACK
        ARGFRAME IOVERLAY, 0, STATIC
        ARGFRAME DOVERLAY, 0, STATIC
        FUNCALL initItem, writeItem
        LOCFRAME ISTACK, 0, STACK
        LOCFRAME PSTACK, 0, STACK
        LOCFRAME XSTACK, 31, STACK
        LOCFRAME IOVERLAY, 0, STATIC
        LOCFRAME DOVERLAY, 0, STATIC
        ARGFRAME ISTACK, 0, STACK
        ARGFRAME PSTACK, 0, STACK
        ARGFRAME XSTACK, 31, STACK
        ARGFRAME IOVERLAY, 0, STATIC
        ARGFRAME DOVERLAY, 0, STATIC
        MOV     A,#-0x12
        LCALL   ?BANKED_ENTER_XDATA
        CFI DPH0 load(1, XDATA, add(CFA_XSP16, literal(-1)))
        CFI DPL0 load(1, XDATA, add(CFA_XSP16, literal(-2)))
        CFI ?BRET_EXT load(1, XDATA, add(CFA_XSP16, literal(-3)))
        CFI ?RET_HIGH load(1, XDATA, add(CFA_XSP16, literal(-4)))
        CFI ?RET_LOW load(1, XDATA, add(CFA_XSP16, literal(-5)))
        CFI R7 load(1, XDATA, add(CFA_XSP16, literal(-6)))
        CFI V9 load(1, XDATA, add(CFA_XSP16, literal(-7)))
        CFI V8 load(1, XDATA, add(CFA_XSP16, literal(-8)))
        CFI V7 load(1, XDATA, add(CFA_XSP16, literal(-9)))
        CFI V6 load(1, XDATA, add(CFA_XSP16, literal(-10)))
        CFI V5 load(1, XDATA, add(CFA_XSP16, literal(-11)))
        CFI V4 load(1, XDATA, add(CFA_XSP16, literal(-12)))
        CFI V3 load(1, XDATA, add(CFA_XSP16, literal(-13)))
        CFI V2 load(1, XDATA, add(CFA_XSP16, literal(-14)))
        CFI V1 load(1, XDATA, add(CFA_XSP16, literal(-15)))
        CFI V0 load(1, XDATA, add(CFA_XSP16, literal(-16)))
        CFI VB load(1, XDATA, add(CFA_XSP16, literal(-17)))
        CFI R6 load(1, XDATA, add(CFA_XSP16, literal(-18)))
        CFI CFA_SP SP+0
        CFI CFA_XSP16 add(XSP16, 18)
        ; Saved register size: 18
        ; Auto size: 10
        MOV     A,#-0xa
        LCALL   ?ALLOC_XSTACK8
        CFI CFA_XSP16 add(XSP16, 28)
        MOV     ?V0 + 2,R1
        MOV     ?V0 + 4,R2
        MOV     ?V0 + 5,R3
        MOV     ?V0 + 0,R4
        MOV     ?V0 + 1,R5
        MOV     A,#0x1c
        LCALL   ?XSTACK_DISP0_8
        LCALL   ?Subroutine18 & 0xFFFF
//  696   uint16 sz = OSAL_NV_ITEM_SIZE( len );
??CrossCallReturnLabel_15:
        CLR     C
        MOV     A,R4
        SUBB    A,#-0xc
        MOV     A,R5
        SUBB    A,#-0x1
        JC      ??initItem_0
        MOV     DPL,?XSP + 0
        MOV     DPH,?XSP + 1
        MOV     A,#-0x4
        MOVX    @DPTR,A
        INC     DPTR
        MOV     A,#-0x1
        SJMP    ??initItem_1
??initItem_0:
        LCALL   ?Subroutine34 & 0xFFFF
??CrossCallReturnLabel_49:
        ADD     A,#0x8
        MOV     R0,A
        MOV     A,R1
        ADDC    A,#0x0
        MOV     R1,A
        MOV     DPL,?XSP + 0
        MOV     DPH,?XSP + 1
        MOV     A,R0
        MOVX    @DPTR,A
        INC     DPTR
        MOV     A,R1
??initItem_1:
        MOVX    @DPTR,A
//  697   uint8 rtrn = OSAL_NV_PAGE_NULL;
        MOV     R7,#0x0
//  698   uint8 cnt = OSAL_NV_PAGES_USED;
        MOV     R4,#0x6
//  699   uint8 pg = pgRes+1;  // Set to 1 after the reserve page to even wear across all available pages.
        MOV     DPTR,#pgRes
        MOVX    A,@DPTR
        INC     A
        MOV     R6,A
//  700 
//  701   do {
//  702     if (pg >= OSAL_NV_PAGE_BEG+OSAL_NV_PAGES_USED)
??initItem_2:
        MOV     A,R6
        CLR     C
        SUBB    A,#0x7f
        JC      ??initItem_3
//  703     {
//  704       pg = OSAL_NV_PAGE_BEG;
        MOV     R6,#0x79
//  705     }
//  706     if ( pg != pgRes )
??initItem_3:
        MOV     DPTR,#pgRes
        MOVX    A,@DPTR
        XRL     A,R6
        JZ      ??initItem_4
//  707     {
//  708       uint8 idx = pg - OSAL_NV_PAGE_BEG;
        MOV     A,#-0x79
        ADD     A,R6
//  709       if ( sz <= (OSAL_NV_PAGE_SIZE - pgOff[idx] + pgLost[idx]) )
        CLR     C
        RLC     A
        MOV     R0,A
        CLR     A
        RLC     A
        MOV     R1,A
        MOV     A,#pgOff & 0xff
        ADD     A,R0
        MOV     DPL,A
        MOV     A,#(pgOff >> 8) & 0xff
        LCALL   ?Subroutine17 & 0xFFFF
//  710       {
//  711         break;
//  712       }
//  713     }
??CrossCallReturnLabel_123:
        CLR     A
        CLR     C
        SUBB    A,R2
        MOV     R2,A
        MOV     A,#0x8
        SUBB    A,R3
        MOV     R3,A
        LCALL   ?Subroutine32 & 0xFFFF
??CrossCallReturnLabel_46:
        MOVX    A,@DPTR
        ADD     A,R2
        MOV     R2,A
        INC     DPTR
        MOVX    A,@DPTR
        ADDC    A,R3
        LCALL   ?Subroutine23 & 0xFFFF
??CrossCallReturnLabel_25:
        JNC     ??initItem_5
//  714     pg++;
??initItem_4:
        INC     R6
//  715   } while (--cnt);
        DEC     R4
        MOV     A,R4
        JNZ     ??initItem_2
        LJMP    ??initItem_6 & 0xFFFF
//  716 
//  717   if (cnt)
??initItem_5:
        MOV     A,R4
        JNZ     $+5
        LJMP    ??initItem_6 & 0xFFFF
//  718   {
//  719     // Item fits if an old page is compacted.
//  720     if ( sz > (OSAL_NV_PAGE_SIZE - pgOff[pg - OSAL_NV_PAGE_BEG]) )
        LCALL   ?Subroutine29 & 0xFFFF
??CrossCallReturnLabel_78:
        LCALL   ?Subroutine26 & 0xFFFF
??CrossCallReturnLabel_29:
        MOV     R2,A
        MOV     A,#0x8
        SUBB    A,R1
        LCALL   ?Subroutine23 & 0xFFFF
??CrossCallReturnLabel_26:
        JC      $+5
        LJMP    ??initItem_7 & 0xFFFF
//  721     {
//  722       osalNvPgHdr_t pgHdr;
//  723 
//  724       /* Prevent excessive re-writes to page header caused by numerous, rapid, & successive
//  725        * OSAL_Nv interruptions caused by resets.
//  726        */
//  727       HalFlashRead(pg, OSAL_NV_PAGE_HDR_OFFSET, (uint8 *)(&pgHdr), OSAL_NV_PAGE_HDR_SIZE);
        ; Setup parameters for call to function HalFlashRead
        MOV     ?V0 + 8,#0x8
        MOV     ?V0 + 9,R7
        MOV     R0,#?V0 + 8
        LCALL   ?PUSH_XSTACK_I_TWO
        CFI CFA_XSP16 add(XSP16, 30)
        MOV     A,#0x4
        LCALL   ?XSTACK_DISP0_8
        MOV     R4,DPL
        MOV     R5,DPH
        MOV     R2,#0x0
        MOV     R3,#0x0
        MOV     A,R6
        MOV     R1,A
        LCALL   ??Subroutine53_0 & 0xFFFF
??CrossCallReturnLabel_98:
        LCALL   ?DEALLOC_XSTACK8
        CFI CFA_XSP16 add(XSP16, 28)
//  728       if ( pgHdr.xfer == OSAL_NV_ERASED_ID )
        MOV     A,#0x6
        LCALL   ?XSTACK_DISP0_8
        MOVX    A,@DPTR
        CPL     A
        JNZ     ??initItem_8
        INC     DPTR
        MOVX    A,@DPTR
        CPL     A
??initItem_8:
        JNZ     ??initItem_9
//  729       {
//  730         // Mark the old page as being in process of compaction.
//  731         sz = OSAL_NV_ZEROED_ID;
        LCALL   ?Subroutine9 & 0xFFFF
//  732         writeWordH( pg, OSAL_NV_PG_XFER, (uint8*)(&sz) );
//  733       }
??CrossCallReturnLabel_83:
        MOV     R2,#0x4
        MOV     R3,A
        MOV     A,R6
        MOV     R1,A
        LCALL   ??writeWordH?relay
//  734 
//  735       /* First the old page is compacted, then the new item will be the last one written to what
//  736        * had been the reserved page.
//  737        */
//  738       if (compactPage( pg, id ))
??initItem_9:
        ; Setup parameters for call to function compactPage
        MOV     R2,?V0 + 4
        MOV     R3,?V0 + 5
        MOV     A,R6
        MOV     R1,A
        LCALL   ??compactPage?relay
        MOV     A,R1
        JZ      ??initItem_6
//  739       {
//  740         if ( writeItem( pgRes, id, len, buf, flag ) )
        ; Setup parameters for call to function writeItem
        MOV     A,?V0 + 2
        MOV     ?V0 + 3,A
        MOV     R0,#?V0 + 3
        LCALL   ?PUSH_XSTACK_I_ONE
        CFI CFA_XSP16 add(XSP16, 29)
        MOV     R0,#?V0 + 6
        LCALL   ?PUSH_XSTACK_I_TWO
        CFI CFA_XSP16 add(XSP16, 31)
        MOV     R4,?V0 + 0
        MOV     R5,?V0 + 1
        MOV     R2,?V0 + 4
        MOV     R3,?V0 + 5
        MOV     DPTR,#pgRes
        MOVX    A,@DPTR
        MOV     R1,A
        LCALL   ??writeItem?relay
        MOV     A,#0x3
        LCALL   ?DEALLOC_XSTACK8
        CFI CFA_XSP16 add(XSP16, 28)
        MOV     A,R1
        JZ      ??initItem_10
//  741         {
//  742           rtrn = pgRes;
        MOV     DPTR,#pgRes
        MOVX    A,@DPTR
        MOV     R7,A
//  743         }
//  744 
//  745         if ( flag == FALSE )
??initItem_10:
        MOV     A,?V0 + 2
        JNZ     ??initItem_11
//  746         {
//  747           /* Overload 'buf' as an OUT parameter to pass back to the calling function
//  748            * the old page to be cleaned up.
//  749            */
//  750           *(uint8 *)buf = pg;
        MOV     A,R6
        MOV     DPL,?V0 + 6
        MOV     DPH,?V0 + 7
??initItem_12:
        MOVX    @DPTR,A
        SJMP    ??initItem_6
//  751         }
//  752         else
//  753         {
//  754           /* Safe to do the compacted page cleanup even if writeItem() above failed because the
//  755            * item does not yet exist since this call with flag==TRUE is from osal_nv_item_init().
//  756            */
//  757           COMPACT_PAGE_CLEANUP( pg );
??initItem_11:
        ; Setup parameters for call to function setPageUse
        LCALL   ?Subroutine28 & 0xFFFF
??CrossCallReturnLabel_39:
        ; Setup parameters for call to function erasePage
        MOV     A,R6
        MOV     R1,A
        LCALL   ??erasePage?relay
        MOV     A,R6
        MOV     DPTR,#pgRes
        SJMP    ??initItem_12
//  758         }
//  759       }
//  760     }
//  761     else
//  762     {
//  763       if ( writeItem( pg, id, len, buf, flag ) )
??initItem_7:
        ; Setup parameters for call to function writeItem
        MOV     A,?V0 + 2
        MOV     ?V0 + 3,A
        MOV     R0,#?V0 + 3
        LCALL   ?PUSH_XSTACK_I_ONE
        CFI CFA_XSP16 add(XSP16, 29)
        MOV     R0,#?V0 + 6
        LCALL   ?PUSH_XSTACK_I_TWO
        CFI CFA_XSP16 add(XSP16, 31)
        MOV     R4,?V0 + 0
        MOV     R2,?V0 + 4
        MOV     R3,?V0 + 5
        MOV     A,R6
        MOV     R1,A
        LCALL   ??writeItem?relay
        MOV     A,#0x3
        LCALL   ?DEALLOC_XSTACK8
        CFI CFA_XSP16 add(XSP16, 28)
        MOV     A,R1
        JZ      ??initItem_6
//  764       {
//  765         rtrn = pg;
        MOV     A,R6
        MOV     R7,A
//  766       }
//  767     }
//  768   }
//  769 
//  770   return rtrn;
??initItem_6:
        MOV     A,R7
        MOV     R1,A
        MOV     A,#0xa
        LJMP    ??Subroutine47_0 & 0xFFFF
        CFI EndBlock cfiBlock51
//  771 }

        RSEG BANKED_CODE:CODE:NOROOT(0)
?Subroutine32:
        CFI Block cfiCond52 Using cfiCommon0
        CFI NoFunction
        CFI Conditional ??CrossCallReturnLabel_45
        CFI R6 load(1, XDATA, add(CFA_XSP16, literal(-12)))
        CFI VB load(1, XDATA, add(CFA_XSP16, literal(-11)))
        CFI V0 load(1, XDATA, add(CFA_XSP16, literal(-10)))
        CFI V1 load(1, XDATA, add(CFA_XSP16, literal(-9)))
        CFI V2 load(1, XDATA, add(CFA_XSP16, literal(-8)))
        CFI V3 load(1, XDATA, add(CFA_XSP16, literal(-7)))
        CFI R7 load(1, XDATA, add(CFA_XSP16, literal(-6)))
        CFI ?RET_LOW load(1, XDATA, add(CFA_XSP16, literal(-5)))
        CFI ?RET_HIGH load(1, XDATA, add(CFA_XSP16, literal(-4)))
        CFI ?BRET_EXT load(1, XDATA, add(CFA_XSP16, literal(-3)))
        CFI DPL0 load(1, XDATA, add(CFA_XSP16, literal(-2)))
        CFI DPH0 load(1, XDATA, add(CFA_XSP16, literal(-1)))
        CFI CFA_SP SP+0
        CFI CFA_XSP16 add(XSP16, 20)
        CFI Block cfiCond53 Using cfiCommon0
        CFI (cfiCond53) NoFunction
        CFI (cfiCond53) Conditional ??CrossCallReturnLabel_46
        CFI (cfiCond53) R6 load(1, XDATA, add(CFA_XSP16, literal(-18)))
        CFI (cfiCond53) VB load(1, XDATA, add(CFA_XSP16, literal(-17)))
        CFI (cfiCond53) V0 load(1, XDATA, add(CFA_XSP16, literal(-16)))
        CFI (cfiCond53) V1 load(1, XDATA, add(CFA_XSP16, literal(-15)))
        CFI (cfiCond53) V2 load(1, XDATA, add(CFA_XSP16, literal(-14)))
        CFI (cfiCond53) V3 load(1, XDATA, add(CFA_XSP16, literal(-13)))
        CFI (cfiCond53) V4 load(1, XDATA, add(CFA_XSP16, literal(-12)))
        CFI (cfiCond53) V5 load(1, XDATA, add(CFA_XSP16, literal(-11)))
        CFI (cfiCond53) V6 load(1, XDATA, add(CFA_XSP16, literal(-10)))
        CFI (cfiCond53) V7 load(1, XDATA, add(CFA_XSP16, literal(-9)))
        CFI (cfiCond53) V8 load(1, XDATA, add(CFA_XSP16, literal(-8)))
        CFI (cfiCond53) V9 load(1, XDATA, add(CFA_XSP16, literal(-7)))
        CFI (cfiCond53) R7 load(1, XDATA, add(CFA_XSP16, literal(-6)))
        CFI (cfiCond53) ?RET_LOW load(1, XDATA, add(CFA_XSP16, literal(-5)))
        CFI (cfiCond53) ?RET_HIGH load(1, XDATA, add(CFA_XSP16, literal(-4)))
        CFI (cfiCond53) ?BRET_EXT load(1, XDATA, add(CFA_XSP16, literal(-3)))
        CFI (cfiCond53) DPL0 load(1, XDATA, add(CFA_XSP16, literal(-2)))
        CFI (cfiCond53) DPH0 load(1, XDATA, add(CFA_XSP16, literal(-1)))
        CFI (cfiCond53) CFA_SP SP+0
        CFI (cfiCond53) CFA_XSP16 add(XSP16, 28)
        CFI Block cfiPicker54 Using cfiCommon1
        CFI (cfiPicker54) NoFunction
        CFI (cfiPicker54) Picker
        MOV     A,#pgLost & 0xff
        ADD     A,R0
        MOV     DPL,A
        MOV     A,#(pgLost >> 8) & 0xff
        ADDC    A,R1
        MOV     DPH,A
        RET
        CFI EndBlock cfiCond52
        CFI EndBlock cfiCond53
        CFI EndBlock cfiPicker54

        RSEG BANKED_CODE:CODE:NOROOT(0)
?Subroutine28:
        CFI Block cfiCond55 Using cfiCommon0
        CFI NoFunction
        CFI Conditional ??CrossCallReturnLabel_38
        CFI R6 load(1, XDATA, add(CFA_XSP16, literal(-18)))
        CFI VB load(1, XDATA, add(CFA_XSP16, literal(-17)))
        CFI V0 load(1, XDATA, add(CFA_XSP16, literal(-16)))
        CFI V1 load(1, XDATA, add(CFA_XSP16, literal(-15)))
        CFI V2 load(1, XDATA, add(CFA_XSP16, literal(-14)))
        CFI V3 load(1, XDATA, add(CFA_XSP16, literal(-13)))
        CFI V4 load(1, XDATA, add(CFA_XSP16, literal(-12)))
        CFI V5 load(1, XDATA, add(CFA_XSP16, literal(-11)))
        CFI V6 load(1, XDATA, add(CFA_XSP16, literal(-10)))
        CFI V7 load(1, XDATA, add(CFA_XSP16, literal(-9)))
        CFI V8 load(1, XDATA, add(CFA_XSP16, literal(-8)))
        CFI V9 load(1, XDATA, add(CFA_XSP16, literal(-7)))
        CFI R7 load(1, XDATA, add(CFA_XSP16, literal(-6)))
        CFI ?RET_LOW load(1, XDATA, add(CFA_XSP16, literal(-5)))
        CFI ?RET_HIGH load(1, XDATA, add(CFA_XSP16, literal(-4)))
        CFI ?BRET_EXT load(1, XDATA, add(CFA_XSP16, literal(-3)))
        CFI DPL0 load(1, XDATA, add(CFA_XSP16, literal(-2)))
        CFI DPH0 load(1, XDATA, add(CFA_XSP16, literal(-1)))
        CFI CFA_SP SP+0
        CFI CFA_XSP16 add(XSP16, 27)
        CFI Block cfiCond56 Using cfiCommon0
        CFI (cfiCond56) NoFunction
        CFI (cfiCond56) Conditional ??CrossCallReturnLabel_39
        CFI (cfiCond56) R6 load(1, XDATA, add(CFA_XSP16, literal(-18)))
        CFI (cfiCond56) VB load(1, XDATA, add(CFA_XSP16, literal(-17)))
        CFI (cfiCond56) V0 load(1, XDATA, add(CFA_XSP16, literal(-16)))
        CFI (cfiCond56) V1 load(1, XDATA, add(CFA_XSP16, literal(-15)))
        CFI (cfiCond56) V2 load(1, XDATA, add(CFA_XSP16, literal(-14)))
        CFI (cfiCond56) V3 load(1, XDATA, add(CFA_XSP16, literal(-13)))
        CFI (cfiCond56) V4 load(1, XDATA, add(CFA_XSP16, literal(-12)))
        CFI (cfiCond56) V5 load(1, XDATA, add(CFA_XSP16, literal(-11)))
        CFI (cfiCond56) V6 load(1, XDATA, add(CFA_XSP16, literal(-10)))
        CFI (cfiCond56) V7 load(1, XDATA, add(CFA_XSP16, literal(-9)))
        CFI (cfiCond56) V8 load(1, XDATA, add(CFA_XSP16, literal(-8)))
        CFI (cfiCond56) V9 load(1, XDATA, add(CFA_XSP16, literal(-7)))
        CFI (cfiCond56) R7 load(1, XDATA, add(CFA_XSP16, literal(-6)))
        CFI (cfiCond56) ?RET_LOW load(1, XDATA, add(CFA_XSP16, literal(-5)))
        CFI (cfiCond56) ?RET_HIGH load(1, XDATA, add(CFA_XSP16, literal(-4)))
        CFI (cfiCond56) ?BRET_EXT load(1, XDATA, add(CFA_XSP16, literal(-3)))
        CFI (cfiCond56) DPL0 load(1, XDATA, add(CFA_XSP16, literal(-2)))
        CFI (cfiCond56) DPH0 load(1, XDATA, add(CFA_XSP16, literal(-1)))
        CFI (cfiCond56) CFA_SP SP+0
        CFI (cfiCond56) CFA_XSP16 add(XSP16, 28)
        CFI Block cfiCond57 Using cfiCommon0
        CFI (cfiCond57) NoFunction
        CFI (cfiCond57) Conditional ??CrossCallReturnLabel_40
        CFI (cfiCond57) R6 load(1, XDATA, add(CFA_XSP16, literal(-24)))
        CFI (cfiCond57) VB load(1, XDATA, add(CFA_XSP16, literal(-23)))
        CFI (cfiCond57) V0 load(1, XDATA, add(CFA_XSP16, literal(-22)))
        CFI (cfiCond57) V1 load(1, XDATA, add(CFA_XSP16, literal(-21)))
        CFI (cfiCond57) V2 load(1, XDATA, add(CFA_XSP16, literal(-20)))
        CFI (cfiCond57) V3 load(1, XDATA, add(CFA_XSP16, literal(-19)))
        CFI (cfiCond57) V4 load(1, XDATA, add(CFA_XSP16, literal(-18)))
        CFI (cfiCond57) V5 load(1, XDATA, add(CFA_XSP16, literal(-17)))
        CFI (cfiCond57) V6 load(1, XDATA, add(CFA_XSP16, literal(-16)))
        CFI (cfiCond57) V7 load(1, XDATA, add(CFA_XSP16, literal(-15)))
        CFI (cfiCond57) V8 load(1, XDATA, add(CFA_XSP16, literal(-14)))
        CFI (cfiCond57) V9 load(1, XDATA, add(CFA_XSP16, literal(-13)))
        CFI (cfiCond57) V10 load(1, XDATA, add(CFA_XSP16, literal(-12)))
        CFI (cfiCond57) V11 load(1, XDATA, add(CFA_XSP16, literal(-11)))
        CFI (cfiCond57) V12 load(1, XDATA, add(CFA_XSP16, literal(-10)))
        CFI (cfiCond57) V13 load(1, XDATA, add(CFA_XSP16, literal(-9)))
        CFI (cfiCond57) V14 load(1, XDATA, add(CFA_XSP16, literal(-8)))
        CFI (cfiCond57) V15 load(1, XDATA, add(CFA_XSP16, literal(-7)))
        CFI (cfiCond57) R7 load(1, XDATA, add(CFA_XSP16, literal(-6)))
        CFI (cfiCond57) ?RET_LOW load(1, XDATA, add(CFA_XSP16, literal(-5)))
        CFI (cfiCond57) ?RET_HIGH load(1, XDATA, add(CFA_XSP16, literal(-4)))
        CFI (cfiCond57) ?BRET_EXT load(1, XDATA, add(CFA_XSP16, literal(-3)))
        CFI (cfiCond57) DPL0 load(1, XDATA, add(CFA_XSP16, literal(-2)))
        CFI (cfiCond57) DPH0 load(1, XDATA, add(CFA_XSP16, literal(-1)))
        CFI (cfiCond57) CFA_SP SP+0
        CFI (cfiCond57) CFA_XSP16 add(XSP16, 35)
        CFI Block cfiPicker58 Using cfiCommon1
        CFI (cfiPicker58) NoFunction
        CFI (cfiPicker58) Picker
        MOV     R2,#0x1
        MOV     DPTR,#pgRes
        MOVX    A,@DPTR
        MOV     R1,A
        LCALL   ??setPageUse?relay
        RET
        CFI EndBlock cfiCond55
        CFI EndBlock cfiCond56
        CFI EndBlock cfiCond57
        CFI EndBlock cfiPicker58

        RSEG BANKED_CODE:CODE:NOROOT(0)
?Subroutine23:
        CFI Block cfiCond59 Using cfiCommon0
        CFI NoFunction
        CFI Conditional ??CrossCallReturnLabel_25
        CFI R6 load(1, XDATA, add(CFA_XSP16, literal(-18)))
        CFI VB load(1, XDATA, add(CFA_XSP16, literal(-17)))
        CFI V0 load(1, XDATA, add(CFA_XSP16, literal(-16)))
        CFI V1 load(1, XDATA, add(CFA_XSP16, literal(-15)))
        CFI V2 load(1, XDATA, add(CFA_XSP16, literal(-14)))
        CFI V3 load(1, XDATA, add(CFA_XSP16, literal(-13)))
        CFI V4 load(1, XDATA, add(CFA_XSP16, literal(-12)))
        CFI V5 load(1, XDATA, add(CFA_XSP16, literal(-11)))
        CFI V6 load(1, XDATA, add(CFA_XSP16, literal(-10)))
        CFI V7 load(1, XDATA, add(CFA_XSP16, literal(-9)))
        CFI V8 load(1, XDATA, add(CFA_XSP16, literal(-8)))
        CFI V9 load(1, XDATA, add(CFA_XSP16, literal(-7)))
        CFI R7 load(1, XDATA, add(CFA_XSP16, literal(-6)))
        CFI ?RET_LOW load(1, XDATA, add(CFA_XSP16, literal(-5)))
        CFI ?RET_HIGH load(1, XDATA, add(CFA_XSP16, literal(-4)))
        CFI ?BRET_EXT load(1, XDATA, add(CFA_XSP16, literal(-3)))
        CFI DPL0 load(1, XDATA, add(CFA_XSP16, literal(-2)))
        CFI DPH0 load(1, XDATA, add(CFA_XSP16, literal(-1)))
        CFI CFA_SP SP+0
        CFI CFA_XSP16 add(XSP16, 28)
        CFI Block cfiCond60 Using cfiCommon0
        CFI (cfiCond60) NoFunction
        CFI (cfiCond60) Conditional ??CrossCallReturnLabel_26
        CFI (cfiCond60) R6 load(1, XDATA, add(CFA_XSP16, literal(-18)))
        CFI (cfiCond60) VB load(1, XDATA, add(CFA_XSP16, literal(-17)))
        CFI (cfiCond60) V0 load(1, XDATA, add(CFA_XSP16, literal(-16)))
        CFI (cfiCond60) V1 load(1, XDATA, add(CFA_XSP16, literal(-15)))
        CFI (cfiCond60) V2 load(1, XDATA, add(CFA_XSP16, literal(-14)))
        CFI (cfiCond60) V3 load(1, XDATA, add(CFA_XSP16, literal(-13)))
        CFI (cfiCond60) V4 load(1, XDATA, add(CFA_XSP16, literal(-12)))
        CFI (cfiCond60) V5 load(1, XDATA, add(CFA_XSP16, literal(-11)))
        CFI (cfiCond60) V6 load(1, XDATA, add(CFA_XSP16, literal(-10)))
        CFI (cfiCond60) V7 load(1, XDATA, add(CFA_XSP16, literal(-9)))
        CFI (cfiCond60) V8 load(1, XDATA, add(CFA_XSP16, literal(-8)))
        CFI (cfiCond60) V9 load(1, XDATA, add(CFA_XSP16, literal(-7)))
        CFI (cfiCond60) R7 load(1, XDATA, add(CFA_XSP16, literal(-6)))
        CFI (cfiCond60) ?RET_LOW load(1, XDATA, add(CFA_XSP16, literal(-5)))
        CFI (cfiCond60) ?RET_HIGH load(1, XDATA, add(CFA_XSP16, literal(-4)))
        CFI (cfiCond60) ?BRET_EXT load(1, XDATA, add(CFA_XSP16, literal(-3)))
        CFI (cfiCond60) DPL0 load(1, XDATA, add(CFA_XSP16, literal(-2)))
        CFI (cfiCond60) DPH0 load(1, XDATA, add(CFA_XSP16, literal(-1)))
        CFI (cfiCond60) CFA_SP SP+0
        CFI (cfiCond60) CFA_XSP16 add(XSP16, 28)
        CFI Block cfiPicker61 Using cfiCommon1
        CFI (cfiPicker61) NoFunction
        CFI (cfiPicker61) Picker
        MOV     R3,A
        MOV     DPL,?XSP + 0
        MOV     DPH,?XSP + 1
        MOVX    A,@DPTR
        MOV     R0,A
        INC     DPTR
        MOVX    A,@DPTR
        MOV     R1,A
        CLR     C
        MOV     A,R2
        SUBB    A,R0
        MOV     A,R3
        SUBB    A,R1
        RET
        CFI EndBlock cfiCond59
        CFI EndBlock cfiCond60
        CFI EndBlock cfiPicker61

        RSEG BANKED_CODE:CODE:NOROOT(0)
?Subroutine18:
        CFI Block cfiCond62 Using cfiCommon0
        CFI NoFunction
        CFI Conditional ??CrossCallReturnLabel_14
        CFI R6 load(1, XDATA, add(CFA_XSP16, literal(-18)))
        CFI VB load(1, XDATA, add(CFA_XSP16, literal(-17)))
        CFI V0 load(1, XDATA, add(CFA_XSP16, literal(-16)))
        CFI V1 load(1, XDATA, add(CFA_XSP16, literal(-15)))
        CFI V2 load(1, XDATA, add(CFA_XSP16, literal(-14)))
        CFI V3 load(1, XDATA, add(CFA_XSP16, literal(-13)))
        CFI V4 load(1, XDATA, add(CFA_XSP16, literal(-12)))
        CFI V5 load(1, XDATA, add(CFA_XSP16, literal(-11)))
        CFI V6 load(1, XDATA, add(CFA_XSP16, literal(-10)))
        CFI V7 load(1, XDATA, add(CFA_XSP16, literal(-9)))
        CFI V8 load(1, XDATA, add(CFA_XSP16, literal(-8)))
        CFI V9 load(1, XDATA, add(CFA_XSP16, literal(-7)))
        CFI R7 load(1, XDATA, add(CFA_XSP16, literal(-6)))
        CFI ?RET_LOW load(1, XDATA, add(CFA_XSP16, literal(-5)))
        CFI ?RET_HIGH load(1, XDATA, add(CFA_XSP16, literal(-4)))
        CFI ?BRET_EXT load(1, XDATA, add(CFA_XSP16, literal(-3)))
        CFI DPL0 load(1, XDATA, add(CFA_XSP16, literal(-2)))
        CFI DPH0 load(1, XDATA, add(CFA_XSP16, literal(-1)))
        CFI CFA_SP SP+0
        CFI CFA_XSP16 add(XSP16, 27)
        CFI Block cfiCond63 Using cfiCommon0
        CFI (cfiCond63) NoFunction
        CFI (cfiCond63) Conditional ??CrossCallReturnLabel_15
        CFI (cfiCond63) R6 load(1, XDATA, add(CFA_XSP16, literal(-18)))
        CFI (cfiCond63) VB load(1, XDATA, add(CFA_XSP16, literal(-17)))
        CFI (cfiCond63) V0 load(1, XDATA, add(CFA_XSP16, literal(-16)))
        CFI (cfiCond63) V1 load(1, XDATA, add(CFA_XSP16, literal(-15)))
        CFI (cfiCond63) V2 load(1, XDATA, add(CFA_XSP16, literal(-14)))
        CFI (cfiCond63) V3 load(1, XDATA, add(CFA_XSP16, literal(-13)))
        CFI (cfiCond63) V4 load(1, XDATA, add(CFA_XSP16, literal(-12)))
        CFI (cfiCond63) V5 load(1, XDATA, add(CFA_XSP16, literal(-11)))
        CFI (cfiCond63) V6 load(1, XDATA, add(CFA_XSP16, literal(-10)))
        CFI (cfiCond63) V7 load(1, XDATA, add(CFA_XSP16, literal(-9)))
        CFI (cfiCond63) V8 load(1, XDATA, add(CFA_XSP16, literal(-8)))
        CFI (cfiCond63) V9 load(1, XDATA, add(CFA_XSP16, literal(-7)))
        CFI (cfiCond63) R7 load(1, XDATA, add(CFA_XSP16, literal(-6)))
        CFI (cfiCond63) ?RET_LOW load(1, XDATA, add(CFA_XSP16, literal(-5)))
        CFI (cfiCond63) ?RET_HIGH load(1, XDATA, add(CFA_XSP16, literal(-4)))
        CFI (cfiCond63) ?BRET_EXT load(1, XDATA, add(CFA_XSP16, literal(-3)))
        CFI (cfiCond63) DPL0 load(1, XDATA, add(CFA_XSP16, literal(-2)))
        CFI (cfiCond63) DPH0 load(1, XDATA, add(CFA_XSP16, literal(-1)))
        CFI (cfiCond63) CFA_SP SP+0
        CFI (cfiCond63) CFA_XSP16 add(XSP16, 28)
        CFI Block cfiCond64 Using cfiCommon0
        CFI (cfiCond64) NoFunction
        CFI (cfiCond64) Conditional ??CrossCallReturnLabel_16
        CFI (cfiCond64) R6 load(1, XDATA, add(CFA_XSP16, literal(-24)))
        CFI (cfiCond64) VB load(1, XDATA, add(CFA_XSP16, literal(-23)))
        CFI (cfiCond64) V0 load(1, XDATA, add(CFA_XSP16, literal(-22)))
        CFI (cfiCond64) V1 load(1, XDATA, add(CFA_XSP16, literal(-21)))
        CFI (cfiCond64) V2 load(1, XDATA, add(CFA_XSP16, literal(-20)))
        CFI (cfiCond64) V3 load(1, XDATA, add(CFA_XSP16, literal(-19)))
        CFI (cfiCond64) V4 load(1, XDATA, add(CFA_XSP16, literal(-18)))
        CFI (cfiCond64) V5 load(1, XDATA, add(CFA_XSP16, literal(-17)))
        CFI (cfiCond64) V6 load(1, XDATA, add(CFA_XSP16, literal(-16)))
        CFI (cfiCond64) V7 load(1, XDATA, add(CFA_XSP16, literal(-15)))
        CFI (cfiCond64) V8 load(1, XDATA, add(CFA_XSP16, literal(-14)))
        CFI (cfiCond64) V9 load(1, XDATA, add(CFA_XSP16, literal(-13)))
        CFI (cfiCond64) V10 load(1, XDATA, add(CFA_XSP16, literal(-12)))
        CFI (cfiCond64) V11 load(1, XDATA, add(CFA_XSP16, literal(-11)))
        CFI (cfiCond64) V12 load(1, XDATA, add(CFA_XSP16, literal(-10)))
        CFI (cfiCond64) V13 load(1, XDATA, add(CFA_XSP16, literal(-9)))
        CFI (cfiCond64) V14 load(1, XDATA, add(CFA_XSP16, literal(-8)))
        CFI (cfiCond64) V15 load(1, XDATA, add(CFA_XSP16, literal(-7)))
        CFI (cfiCond64) R7 load(1, XDATA, add(CFA_XSP16, literal(-6)))
        CFI (cfiCond64) ?RET_LOW load(1, XDATA, add(CFA_XSP16, literal(-5)))
        CFI (cfiCond64) ?RET_HIGH load(1, XDATA, add(CFA_XSP16, literal(-4)))
        CFI (cfiCond64) ?BRET_EXT load(1, XDATA, add(CFA_XSP16, literal(-3)))
        CFI (cfiCond64) DPL0 load(1, XDATA, add(CFA_XSP16, literal(-2)))
        CFI (cfiCond64) DPH0 load(1, XDATA, add(CFA_XSP16, literal(-1)))
        CFI (cfiCond64) CFA_SP SP+0
        CFI (cfiCond64) CFA_XSP16 add(XSP16, 35)
        CFI Block cfiPicker65 Using cfiCommon1
        CFI (cfiPicker65) NoFunction
        CFI (cfiPicker65) Picker
        MOVX    A,@DPTR
        MOV     ?V0 + 6,A
        INC     DPTR
        MOVX    A,@DPTR
        MOV     ?V0 + 7,A
        RET
        CFI EndBlock cfiCond62
        CFI EndBlock cfiCond63
        CFI EndBlock cfiCond64
        CFI EndBlock cfiPicker65

        RSEG BANKED_CODE:CODE:NOROOT(0)
?Subroutine9:
        CFI Block cfiCond66 Using cfiCommon0
        CFI NoFunction
        CFI Conditional ??CrossCallReturnLabel_83
        CFI R6 load(1, XDATA, add(CFA_XSP16, literal(-18)))
        CFI VB load(1, XDATA, add(CFA_XSP16, literal(-17)))
        CFI V0 load(1, XDATA, add(CFA_XSP16, literal(-16)))
        CFI V1 load(1, XDATA, add(CFA_XSP16, literal(-15)))
        CFI V2 load(1, XDATA, add(CFA_XSP16, literal(-14)))
        CFI V3 load(1, XDATA, add(CFA_XSP16, literal(-13)))
        CFI V4 load(1, XDATA, add(CFA_XSP16, literal(-12)))
        CFI V5 load(1, XDATA, add(CFA_XSP16, literal(-11)))
        CFI V6 load(1, XDATA, add(CFA_XSP16, literal(-10)))
        CFI V7 load(1, XDATA, add(CFA_XSP16, literal(-9)))
        CFI V8 load(1, XDATA, add(CFA_XSP16, literal(-8)))
        CFI V9 load(1, XDATA, add(CFA_XSP16, literal(-7)))
        CFI R7 load(1, XDATA, add(CFA_XSP16, literal(-6)))
        CFI ?RET_LOW load(1, XDATA, add(CFA_XSP16, literal(-5)))
        CFI ?RET_HIGH load(1, XDATA, add(CFA_XSP16, literal(-4)))
        CFI ?BRET_EXT load(1, XDATA, add(CFA_XSP16, literal(-3)))
        CFI DPL0 load(1, XDATA, add(CFA_XSP16, literal(-2)))
        CFI DPH0 load(1, XDATA, add(CFA_XSP16, literal(-1)))
        CFI CFA_SP SP+0
        CFI CFA_XSP16 add(XSP16, 28)
        CFI Block cfiCond67 Using cfiCommon0
        CFI (cfiCond67) NoFunction
        CFI (cfiCond67) Conditional ??CrossCallReturnLabel_84
        CFI (cfiCond67) R6 load(1, XDATA, add(CFA_XSP16, literal(-14)))
        CFI (cfiCond67) VB load(1, XDATA, add(CFA_XSP16, literal(-13)))
        CFI (cfiCond67) V0 load(1, XDATA, add(CFA_XSP16, literal(-12)))
        CFI (cfiCond67) V1 load(1, XDATA, add(CFA_XSP16, literal(-11)))
        CFI (cfiCond67) V2 load(1, XDATA, add(CFA_XSP16, literal(-10)))
        CFI (cfiCond67) V3 load(1, XDATA, add(CFA_XSP16, literal(-9)))
        CFI (cfiCond67) V4 load(1, XDATA, add(CFA_XSP16, literal(-8)))
        CFI (cfiCond67) V5 load(1, XDATA, add(CFA_XSP16, literal(-7)))
        CFI (cfiCond67) R7 load(1, XDATA, add(CFA_XSP16, literal(-6)))
        CFI (cfiCond67) ?RET_LOW load(1, XDATA, add(CFA_XSP16, literal(-5)))
        CFI (cfiCond67) ?RET_HIGH load(1, XDATA, add(CFA_XSP16, literal(-4)))
        CFI (cfiCond67) ?BRET_EXT load(1, XDATA, add(CFA_XSP16, literal(-3)))
        CFI (cfiCond67) DPL0 load(1, XDATA, add(CFA_XSP16, literal(-2)))
        CFI (cfiCond67) DPH0 load(1, XDATA, add(CFA_XSP16, literal(-1)))
        CFI (cfiCond67) CFA_SP SP+0
        CFI (cfiCond67) CFA_XSP16 add(XSP16, 22)
        CFI Block cfiPicker68 Using cfiCommon1
        CFI (cfiPicker68) NoFunction
        CFI (cfiPicker68) Picker
        MOV     DPL,?XSP + 0
        MOV     DPH,?XSP + 1
        CLR     A
        CFI EndBlock cfiCond66
        CFI EndBlock cfiCond67
        CFI EndBlock cfiPicker68
        REQUIRE ??Subroutine50_0
        ; // Fall through to label ??Subroutine50_0

        RSEG BANKED_CODE:CODE:NOROOT(0)
??Subroutine50_0:
        CFI Block cfiCond69 Using cfiCommon0
        CFI NoFunction
        CFI Conditional ??CrossCallReturnLabel_85
        CFI R6 load(1, XDATA, add(CFA_XSP16, literal(-9)))
        CFI VB load(1, XDATA, add(CFA_XSP16, literal(-8)))
        CFI V0 load(1, XDATA, add(CFA_XSP16, literal(-7)))
        CFI R7 load(1, XDATA, add(CFA_XSP16, literal(-6)))
        CFI ?RET_LOW load(1, XDATA, add(CFA_XSP16, literal(-5)))
        CFI ?RET_HIGH load(1, XDATA, add(CFA_XSP16, literal(-4)))
        CFI ?BRET_EXT load(1, XDATA, add(CFA_XSP16, literal(-3)))
        CFI DPL0 load(1, XDATA, add(CFA_XSP16, literal(-2)))
        CFI DPH0 load(1, XDATA, add(CFA_XSP16, literal(-1)))
        CFI CFA_SP SP+0
        CFI CFA_XSP16 add(XSP16, 17)
        CFI Block cfiCond70 Using cfiCommon0
        CFI (cfiCond70) NoFunction
        CFI (cfiCond70) Conditional ??CrossCallReturnLabel_83
        CFI (cfiCond70) R6 load(1, XDATA, add(CFA_XSP16, literal(-18)))
        CFI (cfiCond70) VB load(1, XDATA, add(CFA_XSP16, literal(-17)))
        CFI (cfiCond70) V0 load(1, XDATA, add(CFA_XSP16, literal(-16)))
        CFI (cfiCond70) V1 load(1, XDATA, add(CFA_XSP16, literal(-15)))
        CFI (cfiCond70) V2 load(1, XDATA, add(CFA_XSP16, literal(-14)))
        CFI (cfiCond70) V3 load(1, XDATA, add(CFA_XSP16, literal(-13)))
        CFI (cfiCond70) V4 load(1, XDATA, add(CFA_XSP16, literal(-12)))
        CFI (cfiCond70) V5 load(1, XDATA, add(CFA_XSP16, literal(-11)))
        CFI (cfiCond70) V6 load(1, XDATA, add(CFA_XSP16, literal(-10)))
        CFI (cfiCond70) V7 load(1, XDATA, add(CFA_XSP16, literal(-9)))
        CFI (cfiCond70) V8 load(1, XDATA, add(CFA_XSP16, literal(-8)))
        CFI (cfiCond70) V9 load(1, XDATA, add(CFA_XSP16, literal(-7)))
        CFI (cfiCond70) R7 load(1, XDATA, add(CFA_XSP16, literal(-6)))
        CFI (cfiCond70) ?RET_LOW load(1, XDATA, add(CFA_XSP16, literal(-5)))
        CFI (cfiCond70) ?RET_HIGH load(1, XDATA, add(CFA_XSP16, literal(-4)))
        CFI (cfiCond70) ?BRET_EXT load(1, XDATA, add(CFA_XSP16, literal(-3)))
        CFI (cfiCond70) DPL0 load(1, XDATA, add(CFA_XSP16, literal(-2)))
        CFI (cfiCond70) DPH0 load(1, XDATA, add(CFA_XSP16, literal(-1)))
        CFI (cfiCond70) CFA_SP SP+0
        CFI (cfiCond70) CFA_XSP16 add(XSP16, 28)
        CFI Block cfiCond71 Using cfiCommon0
        CFI (cfiCond71) NoFunction
        CFI (cfiCond71) Conditional ??CrossCallReturnLabel_84
        CFI (cfiCond71) R6 load(1, XDATA, add(CFA_XSP16, literal(-14)))
        CFI (cfiCond71) VB load(1, XDATA, add(CFA_XSP16, literal(-13)))
        CFI (cfiCond71) V0 load(1, XDATA, add(CFA_XSP16, literal(-12)))
        CFI (cfiCond71) V1 load(1, XDATA, add(CFA_XSP16, literal(-11)))
        CFI (cfiCond71) V2 load(1, XDATA, add(CFA_XSP16, literal(-10)))
        CFI (cfiCond71) V3 load(1, XDATA, add(CFA_XSP16, literal(-9)))
        CFI (cfiCond71) V4 load(1, XDATA, add(CFA_XSP16, literal(-8)))
        CFI (cfiCond71) V5 load(1, XDATA, add(CFA_XSP16, literal(-7)))
        CFI (cfiCond71) R7 load(1, XDATA, add(CFA_XSP16, literal(-6)))
        CFI (cfiCond71) ?RET_LOW load(1, XDATA, add(CFA_XSP16, literal(-5)))
        CFI (cfiCond71) ?RET_HIGH load(1, XDATA, add(CFA_XSP16, literal(-4)))
        CFI (cfiCond71) ?BRET_EXT load(1, XDATA, add(CFA_XSP16, literal(-3)))
        CFI (cfiCond71) DPL0 load(1, XDATA, add(CFA_XSP16, literal(-2)))
        CFI (cfiCond71) DPH0 load(1, XDATA, add(CFA_XSP16, literal(-1)))
        CFI (cfiCond71) CFA_SP SP+0
        CFI (cfiCond71) CFA_XSP16 add(XSP16, 22)
        CFI Block cfiPicker72 Using cfiCommon1
        CFI (cfiPicker72) NoFunction
        CFI (cfiPicker72) Picker
        MOVX    @DPTR,A
        INC     DPTR
        LCALL   ?Subroutine42 & 0xFFFF
??CrossCallReturnLabel_86:
        RET
        CFI EndBlock cfiCond69
        CFI EndBlock cfiCond70
        CFI EndBlock cfiCond71
        CFI EndBlock cfiPicker72
//  772 
//  773 /*********************************************************************
//  774  * @fn      setItem
//  775  *
//  776  * @brief   Set an item Id or status to mark its state.
//  777  *
//  778  * @param   pg - Valid NV page.
//  779  * @param   offset - Valid offset into the page of the item data - the header
//  780  *                   offset is calculated from this.
//  781  * @param   stat - Valid enum value for the item status.
//  782  *
//  783  * @return  none
//  784  */

        RSEG BANKED_CODE:CODE:NOROOT(0)
//  785 static void setItem( uint8 pg, uint16 offset, eNvHdrEnum stat )
setItem:
        CFI Block cfiBlock73 Using cfiCommon0
        CFI Function setItem
        CODE
//  786 {
        FUNCALL setItem, HalFlashRead
        LOCFRAME ISTACK, 0, STACK
        LOCFRAME PSTACK, 0, STACK
        LOCFRAME XSTACK, 24, STACK
        LOCFRAME IOVERLAY, 0, STATIC
        LOCFRAME DOVERLAY, 0, STATIC
        ARGFRAME ISTACK, 0, STACK
        ARGFRAME PSTACK, 0, STACK
        ARGFRAME XSTACK, 24, STACK
        ARGFRAME IOVERLAY, 0, STATIC
        ARGFRAME DOVERLAY, 0, STATIC
        FUNCALL setItem, writeWord
        LOCFRAME ISTACK, 0, STACK
        LOCFRAME PSTACK, 0, STACK
        LOCFRAME XSTACK, 22, STACK
        LOCFRAME IOVERLAY, 0, STATIC
        LOCFRAME DOVERLAY, 0, STATIC
        ARGFRAME ISTACK, 0, STACK
        ARGFRAME PSTACK, 0, STACK
        ARGFRAME XSTACK, 22, STACK
        ARGFRAME IOVERLAY, 0, STATIC
        ARGFRAME DOVERLAY, 0, STATIC
        FUNCALL setItem, writeWord
        LOCFRAME ISTACK, 0, STACK
        LOCFRAME PSTACK, 0, STACK
        LOCFRAME XSTACK, 22, STACK
        LOCFRAME IOVERLAY, 0, STATIC
        LOCFRAME DOVERLAY, 0, STATIC
        ARGFRAME ISTACK, 0, STACK
        ARGFRAME PSTACK, 0, STACK
        ARGFRAME XSTACK, 22, STACK
        ARGFRAME IOVERLAY, 0, STATIC
        ARGFRAME DOVERLAY, 0, STATIC
        MOV     A,#-0xe
        LCALL   ?BANKED_ENTER_XDATA
        CFI DPH0 load(1, XDATA, add(CFA_XSP16, literal(-1)))
        CFI DPL0 load(1, XDATA, add(CFA_XSP16, literal(-2)))
        CFI ?BRET_EXT load(1, XDATA, add(CFA_XSP16, literal(-3)))
        CFI ?RET_HIGH load(1, XDATA, add(CFA_XSP16, literal(-4)))
        CFI ?RET_LOW load(1, XDATA, add(CFA_XSP16, literal(-5)))
        CFI R7 load(1, XDATA, add(CFA_XSP16, literal(-6)))
        CFI V5 load(1, XDATA, add(CFA_XSP16, literal(-7)))
        CFI V4 load(1, XDATA, add(CFA_XSP16, literal(-8)))
        CFI V3 load(1, XDATA, add(CFA_XSP16, literal(-9)))
        CFI V2 load(1, XDATA, add(CFA_XSP16, literal(-10)))
        CFI V1 load(1, XDATA, add(CFA_XSP16, literal(-11)))
        CFI V0 load(1, XDATA, add(CFA_XSP16, literal(-12)))
        CFI VB load(1, XDATA, add(CFA_XSP16, literal(-13)))
        CFI R6 load(1, XDATA, add(CFA_XSP16, literal(-14)))
        CFI CFA_SP SP+0
        CFI CFA_XSP16 add(XSP16, 14)
        ; Saved register size: 14
        ; Auto size: 8
        MOV     A,#-0x8
        LCALL   ?ALLOC_XSTACK8
        CFI CFA_XSP16 add(XSP16, 22)
        MOV     ?V0 + 1,R1
        MOV     ?V0 + 0,R4
//  787   osalNvHdr_t hdr;
//  788 
//  789   offset -= OSAL_NV_HDR_SIZE;
        MOV     A,R2
        ADD     A,#-0x8
        MOV     ?V0 + 2,A
        MOV     A,R3
        ADDC    A,#-0x1
        MOV     ?V0 + 3,A
//  790   HalFlashRead(pg, offset, (uint8 *)(&hdr), OSAL_NV_HDR_SIZE);
        ; Setup parameters for call to function HalFlashRead
        MOV     ?V0 + 4,#0x8
        MOV     ?V0 + 5,#0x0
        MOV     R0,#?V0 + 4
        LCALL   ?PUSH_XSTACK_I_TWO
        CFI CFA_XSP16 add(XSP16, 24)
        MOV     A,#0x2
        LCALL   ?XSTACK_DISP0_8
        MOV     R4,DPL
        MOV     R5,DPH
        MOV     R2,?V0 + 2
        MOV     R3,?V0 + 3
        LCALL   ??Subroutine53_0 & 0xFFFF
??CrossCallReturnLabel_99:
        LCALL   ?DEALLOC_XSTACK8
        CFI CFA_XSP16 add(XSP16, 22)
//  791 
//  792   if ( stat == eNvXfer )
        MOV     A,?V0 + 0
        JNZ     ??setItem_0
//  793   {
//  794     hdr.stat = OSAL_NV_ACTIVE;
        MOV     A,#0x6
        LCALL   ?XSTACK_DISP0_8
        CLR     A
        MOVX    @DPTR,A
        INC     DPTR
        MOVX    @DPTR,A
//  795     writeWord( pg, offset+OSAL_NV_HDR_CHK, (uint8*)(&(hdr.chk)) );
        ; Setup parameters for call to function writeWord
        MOV     A,#0x4
        LCALL   ?XSTACK_DISP0_8
        MOV     R4,DPL
        MOV     R5,DPH
        MOV     A,?V0 + 2
        ADD     A,#0x4
        MOV     R2,A
        MOV     A,?V0 + 3
        ADDC    A,#0x0
        MOV     R3,A
        MOV     R1,?V0 + 1
        LCALL   ??writeWord?relay
        SJMP    ??CrossCallReturnLabel_89
//  796   }
//  797   else // if ( stat == eNvZero )
//  798   {
//  799     uint16 sz = ((hdr.len + (OSAL_NV_WORD_SIZE-1)) / OSAL_NV_WORD_SIZE) * OSAL_NV_WORD_SIZE +
//  800                                                                           OSAL_NV_HDR_SIZE;
??setItem_0:
        MOV     A,#0x2
        LCALL   ?XSTACK_DISP0_8
        MOVX    A,@DPTR
        ADD     A,#0x3
        MOV     R0,A
        INC     DPTR
        MOVX    A,@DPTR
        LCALL   ??Subroutine56_0 & 0xFFFF
//  801     hdr.id = 0;
??CrossCallReturnLabel_111:
        LCALL   ?Subroutine9 & 0xFFFF
//  802     writeWord( pg, offset, (uint8 *)(&hdr) );
??CrossCallReturnLabel_84:
        MOV     R2,?V0 + 2
        MOV     R3,?V0 + 3
        MOV     R1,?V0 + 1
        LCALL   ??writeWord?relay
//  803     pgLost[pg-OSAL_NV_PAGE_BEG] += sz;
        MOV     A,?V0 + 1
        CLR     C
        RLC     A
        MOV     R0,A
        CLR     A
        RLC     A
        MOV     R1,A
        MOV     A,#(pgLost + 14) & 0xff
        ADD     A,R0
        MOV     DPL,A
        MOV     A,#((pgLost - 242) >> 8) & 0xff
        ADDC    A,R1
        LCALL   ?Subroutine21 & 0xFFFF
//  804   }
//  805 }
??CrossCallReturnLabel_89:
        MOV     A,#0x8
        LCALL   ?DEALLOC_XSTACK8
        CFI EndBlock cfiBlock73
        REQUIRE ?Subroutine3
        ; // Fall through to label ?Subroutine3

        RSEG BANKED_CODE:CODE:NOROOT(0)
?Subroutine3:
        CFI Block cfiBlock74 Using cfiCommon0
        CFI NoFunction
        CFI CFA_SP SP+0
        CFI CFA_XSP16 add(XSP16, 14)
        CFI VB load(1, XDATA, add(CFA_XSP16, literal(-13)))
        CFI DPL0 load(1, XDATA, add(CFA_XSP16, literal(-2)))
        CFI DPH0 load(1, XDATA, add(CFA_XSP16, literal(-1)))
        CFI R6 load(1, XDATA, add(CFA_XSP16, literal(-14)))
        CFI R7 load(1, XDATA, add(CFA_XSP16, literal(-6)))
        CFI V0 load(1, XDATA, add(CFA_XSP16, literal(-12)))
        CFI V1 load(1, XDATA, add(CFA_XSP16, literal(-11)))
        CFI V2 load(1, XDATA, add(CFA_XSP16, literal(-10)))
        CFI V3 load(1, XDATA, add(CFA_XSP16, literal(-9)))
        CFI V4 load(1, XDATA, add(CFA_XSP16, literal(-8)))
        CFI V5 load(1, XDATA, add(CFA_XSP16, literal(-7)))
        CFI ?BRET_EXT load(1, XDATA, add(CFA_XSP16, literal(-3)))
        CFI ?RET_HIGH load(1, XDATA, add(CFA_XSP16, literal(-4)))
        CFI ?RET_LOW load(1, XDATA, add(CFA_XSP16, literal(-5)))
        MOV     R7,#0x6
        LJMP    ?BANKED_LEAVE_XDATA
        CFI EndBlock cfiBlock74

        RSEG BANKED_CODE:CODE:NOROOT(0)
?Subroutine21:
        CFI Block cfiCond75 Using cfiCommon0
        CFI NoFunction
        CFI Conditional ??CrossCallReturnLabel_89
        CFI R6 load(1, XDATA, add(CFA_XSP16, literal(-14)))
        CFI VB load(1, XDATA, add(CFA_XSP16, literal(-13)))
        CFI V0 load(1, XDATA, add(CFA_XSP16, literal(-12)))
        CFI V1 load(1, XDATA, add(CFA_XSP16, literal(-11)))
        CFI V2 load(1, XDATA, add(CFA_XSP16, literal(-10)))
        CFI V3 load(1, XDATA, add(CFA_XSP16, literal(-9)))
        CFI V4 load(1, XDATA, add(CFA_XSP16, literal(-8)))
        CFI V5 load(1, XDATA, add(CFA_XSP16, literal(-7)))
        CFI R7 load(1, XDATA, add(CFA_XSP16, literal(-6)))
        CFI ?RET_LOW load(1, XDATA, add(CFA_XSP16, literal(-5)))
        CFI ?RET_HIGH load(1, XDATA, add(CFA_XSP16, literal(-4)))
        CFI ?BRET_EXT load(1, XDATA, add(CFA_XSP16, literal(-3)))
        CFI DPL0 load(1, XDATA, add(CFA_XSP16, literal(-2)))
        CFI DPH0 load(1, XDATA, add(CFA_XSP16, literal(-1)))
        CFI CFA_SP SP+0
        CFI CFA_XSP16 add(XSP16, 22)
        CFI Block cfiCond76 Using cfiCommon0
        CFI (cfiCond76) NoFunction
        CFI (cfiCond76) Conditional ??CrossCallReturnLabel_90
        CFI (cfiCond76) R6 load(1, XDATA, add(CFA_XSP16, literal(-24)))
        CFI (cfiCond76) VB load(1, XDATA, add(CFA_XSP16, literal(-23)))
        CFI (cfiCond76) V0 load(1, XDATA, add(CFA_XSP16, literal(-22)))
        CFI (cfiCond76) V1 load(1, XDATA, add(CFA_XSP16, literal(-21)))
        CFI (cfiCond76) V2 load(1, XDATA, add(CFA_XSP16, literal(-20)))
        CFI (cfiCond76) V3 load(1, XDATA, add(CFA_XSP16, literal(-19)))
        CFI (cfiCond76) V4 load(1, XDATA, add(CFA_XSP16, literal(-18)))
        CFI (cfiCond76) V5 load(1, XDATA, add(CFA_XSP16, literal(-17)))
        CFI (cfiCond76) V6 load(1, XDATA, add(CFA_XSP16, literal(-16)))
        CFI (cfiCond76) V7 load(1, XDATA, add(CFA_XSP16, literal(-15)))
        CFI (cfiCond76) V8 load(1, XDATA, add(CFA_XSP16, literal(-14)))
        CFI (cfiCond76) V9 load(1, XDATA, add(CFA_XSP16, literal(-13)))
        CFI (cfiCond76) V10 load(1, XDATA, add(CFA_XSP16, literal(-12)))
        CFI (cfiCond76) V11 load(1, XDATA, add(CFA_XSP16, literal(-11)))
        CFI (cfiCond76) V12 load(1, XDATA, add(CFA_XSP16, literal(-10)))
        CFI (cfiCond76) V13 load(1, XDATA, add(CFA_XSP16, literal(-9)))
        CFI (cfiCond76) V14 load(1, XDATA, add(CFA_XSP16, literal(-8)))
        CFI (cfiCond76) V15 load(1, XDATA, add(CFA_XSP16, literal(-7)))
        CFI (cfiCond76) R7 load(1, XDATA, add(CFA_XSP16, literal(-6)))
        CFI (cfiCond76) ?RET_LOW load(1, XDATA, add(CFA_XSP16, literal(-5)))
        CFI (cfiCond76) ?RET_HIGH load(1, XDATA, add(CFA_XSP16, literal(-4)))
        CFI (cfiCond76) ?BRET_EXT load(1, XDATA, add(CFA_XSP16, literal(-3)))
        CFI (cfiCond76) DPL0 load(1, XDATA, add(CFA_XSP16, literal(-2)))
        CFI (cfiCond76) DPH0 load(1, XDATA, add(CFA_XSP16, literal(-1)))
        CFI (cfiCond76) CFA_SP SP+0
        CFI (cfiCond76) CFA_XSP16 add(XSP16, 32)
        CFI Block cfiPicker77 Using cfiCommon1
        CFI (cfiPicker77) NoFunction
        CFI (cfiPicker77) Picker
        MOV     DPH,A
        CFI EndBlock cfiCond75
        CFI EndBlock cfiCond76
        CFI EndBlock cfiPicker77
        REQUIRE ??Subroutine51_0
        ; // Fall through to label ??Subroutine51_0

        RSEG BANKED_CODE:CODE:NOROOT(0)
??Subroutine51_0:
        CFI Block cfiCond78 Using cfiCommon0
        CFI NoFunction
        CFI Conditional ??CrossCallReturnLabel_88
        CFI R6 load(1, XDATA, add(CFA_XSP16, literal(-24)))
        CFI VB load(1, XDATA, add(CFA_XSP16, literal(-23)))
        CFI V0 load(1, XDATA, add(CFA_XSP16, literal(-22)))
        CFI V1 load(1, XDATA, add(CFA_XSP16, literal(-21)))
        CFI V2 load(1, XDATA, add(CFA_XSP16, literal(-20)))
        CFI V3 load(1, XDATA, add(CFA_XSP16, literal(-19)))
        CFI V4 load(1, XDATA, add(CFA_XSP16, literal(-18)))
        CFI V5 load(1, XDATA, add(CFA_XSP16, literal(-17)))
        CFI V6 load(1, XDATA, add(CFA_XSP16, literal(-16)))
        CFI V7 load(1, XDATA, add(CFA_XSP16, literal(-15)))
        CFI V8 load(1, XDATA, add(CFA_XSP16, literal(-14)))
        CFI V9 load(1, XDATA, add(CFA_XSP16, literal(-13)))
        CFI V10 load(1, XDATA, add(CFA_XSP16, literal(-12)))
        CFI V11 load(1, XDATA, add(CFA_XSP16, literal(-11)))
        CFI V12 load(1, XDATA, add(CFA_XSP16, literal(-10)))
        CFI V13 load(1, XDATA, add(CFA_XSP16, literal(-9)))
        CFI V14 load(1, XDATA, add(CFA_XSP16, literal(-8)))
        CFI V15 load(1, XDATA, add(CFA_XSP16, literal(-7)))
        CFI R7 load(1, XDATA, add(CFA_XSP16, literal(-6)))
        CFI ?RET_LOW load(1, XDATA, add(CFA_XSP16, literal(-5)))
        CFI ?RET_HIGH load(1, XDATA, add(CFA_XSP16, literal(-4)))
        CFI ?BRET_EXT load(1, XDATA, add(CFA_XSP16, literal(-3)))
        CFI DPL0 load(1, XDATA, add(CFA_XSP16, literal(-2)))
        CFI DPH0 load(1, XDATA, add(CFA_XSP16, literal(-1)))
        CFI CFA_SP SP+0
        CFI CFA_XSP16 add(XSP16, 32)
        CFI Block cfiCond79 Using cfiCommon0
        CFI (cfiCond79) NoFunction
        CFI (cfiCond79) Conditional ??CrossCallReturnLabel_89
        CFI (cfiCond79) R6 load(1, XDATA, add(CFA_XSP16, literal(-14)))
        CFI (cfiCond79) VB load(1, XDATA, add(CFA_XSP16, literal(-13)))
        CFI (cfiCond79) V0 load(1, XDATA, add(CFA_XSP16, literal(-12)))
        CFI (cfiCond79) V1 load(1, XDATA, add(CFA_XSP16, literal(-11)))
        CFI (cfiCond79) V2 load(1, XDATA, add(CFA_XSP16, literal(-10)))
        CFI (cfiCond79) V3 load(1, XDATA, add(CFA_XSP16, literal(-9)))
        CFI (cfiCond79) V4 load(1, XDATA, add(CFA_XSP16, literal(-8)))
        CFI (cfiCond79) V5 load(1, XDATA, add(CFA_XSP16, literal(-7)))
        CFI (cfiCond79) R7 load(1, XDATA, add(CFA_XSP16, literal(-6)))
        CFI (cfiCond79) ?RET_LOW load(1, XDATA, add(CFA_XSP16, literal(-5)))
        CFI (cfiCond79) ?RET_HIGH load(1, XDATA, add(CFA_XSP16, literal(-4)))
        CFI (cfiCond79) ?BRET_EXT load(1, XDATA, add(CFA_XSP16, literal(-3)))
        CFI (cfiCond79) DPL0 load(1, XDATA, add(CFA_XSP16, literal(-2)))
        CFI (cfiCond79) DPH0 load(1, XDATA, add(CFA_XSP16, literal(-1)))
        CFI (cfiCond79) CFA_SP SP+0
        CFI (cfiCond79) CFA_XSP16 add(XSP16, 22)
        CFI Block cfiCond80 Using cfiCommon0
        CFI (cfiCond80) NoFunction
        CFI (cfiCond80) Conditional ??CrossCallReturnLabel_90
        CFI (cfiCond80) R6 load(1, XDATA, add(CFA_XSP16, literal(-24)))
        CFI (cfiCond80) VB load(1, XDATA, add(CFA_XSP16, literal(-23)))
        CFI (cfiCond80) V0 load(1, XDATA, add(CFA_XSP16, literal(-22)))
        CFI (cfiCond80) V1 load(1, XDATA, add(CFA_XSP16, literal(-21)))
        CFI (cfiCond80) V2 load(1, XDATA, add(CFA_XSP16, literal(-20)))
        CFI (cfiCond80) V3 load(1, XDATA, add(CFA_XSP16, literal(-19)))
        CFI (cfiCond80) V4 load(1, XDATA, add(CFA_XSP16, literal(-18)))
        CFI (cfiCond80) V5 load(1, XDATA, add(CFA_XSP16, literal(-17)))
        CFI (cfiCond80) V6 load(1, XDATA, add(CFA_XSP16, literal(-16)))
        CFI (cfiCond80) V7 load(1, XDATA, add(CFA_XSP16, literal(-15)))
        CFI (cfiCond80) V8 load(1, XDATA, add(CFA_XSP16, literal(-14)))
        CFI (cfiCond80) V9 load(1, XDATA, add(CFA_XSP16, literal(-13)))
        CFI (cfiCond80) V10 load(1, XDATA, add(CFA_XSP16, literal(-12)))
        CFI (cfiCond80) V11 load(1, XDATA, add(CFA_XSP16, literal(-11)))
        CFI (cfiCond80) V12 load(1, XDATA, add(CFA_XSP16, literal(-10)))
        CFI (cfiCond80) V13 load(1, XDATA, add(CFA_XSP16, literal(-9)))
        CFI (cfiCond80) V14 load(1, XDATA, add(CFA_XSP16, literal(-8)))
        CFI (cfiCond80) V15 load(1, XDATA, add(CFA_XSP16, literal(-7)))
        CFI (cfiCond80) R7 load(1, XDATA, add(CFA_XSP16, literal(-6)))
        CFI (cfiCond80) ?RET_LOW load(1, XDATA, add(CFA_XSP16, literal(-5)))
        CFI (cfiCond80) ?RET_HIGH load(1, XDATA, add(CFA_XSP16, literal(-4)))
        CFI (cfiCond80) ?BRET_EXT load(1, XDATA, add(CFA_XSP16, literal(-3)))
        CFI (cfiCond80) DPL0 load(1, XDATA, add(CFA_XSP16, literal(-2)))
        CFI (cfiCond80) DPH0 load(1, XDATA, add(CFA_XSP16, literal(-1)))
        CFI (cfiCond80) CFA_SP SP+0
        CFI (cfiCond80) CFA_XSP16 add(XSP16, 32)
        CFI Block cfiPicker81 Using cfiCommon1
        CFI (cfiPicker81) NoFunction
        CFI (cfiPicker81) Picker
        MOVX    A,@DPTR
        ADD     A,R6
        MOVX    @DPTR,A
        INC     DPTR
        MOVX    A,@DPTR
        ADDC    A,R7
        MOVX    @DPTR,A
        RET
        CFI EndBlock cfiCond78
        CFI EndBlock cfiCond79
        CFI EndBlock cfiCond80
        CFI EndBlock cfiPicker81
//  806 
//  807 /*********************************************************************
//  808  * @fn      setChk
//  809  *
//  810  * @brief   Set the item header checksum given the data buffer offset.
//  811  *
//  812  * @param   pg - Valid NV page.
//  813  * @param   offset - Valid offset into the page of the item data - the header
//  814  *                   offset is calculated from this.
//  815  * @param   chk - The checksum to set.
//  816  *
//  817  * @return  The checksum read back.
//  818  */

        RSEG BANKED_CODE:CODE:NOROOT(0)
//  819 static uint16 setChk( uint8 pg, uint16 offset, uint16 chk )
setChk:
        CFI Block cfiBlock82 Using cfiCommon0
        CFI Function setChk
        CODE
//  820 {
        FUNCALL setChk, writeWordH
        LOCFRAME ISTACK, 0, STACK
        LOCFRAME PSTACK, 0, STACK
        LOCFRAME XSTACK, 14, STACK
        LOCFRAME IOVERLAY, 0, STATIC
        LOCFRAME DOVERLAY, 0, STATIC
        ARGFRAME ISTACK, 0, STACK
        ARGFRAME PSTACK, 0, STACK
        ARGFRAME XSTACK, 14, STACK
        ARGFRAME IOVERLAY, 0, STATIC
        ARGFRAME DOVERLAY, 0, STATIC
        FUNCALL setChk, HalFlashRead
        LOCFRAME ISTACK, 0, STACK
        LOCFRAME PSTACK, 0, STACK
        LOCFRAME XSTACK, 16, STACK
        LOCFRAME IOVERLAY, 0, STATIC
        LOCFRAME DOVERLAY, 0, STATIC
        ARGFRAME ISTACK, 0, STACK
        ARGFRAME PSTACK, 0, STACK
        ARGFRAME XSTACK, 16, STACK
        ARGFRAME IOVERLAY, 0, STATIC
        ARGFRAME DOVERLAY, 0, STATIC
        MOV     A,#-0xc
        LCALL   ?BANKED_ENTER_XDATA
        CFI DPH0 load(1, XDATA, add(CFA_XSP16, literal(-1)))
        CFI DPL0 load(1, XDATA, add(CFA_XSP16, literal(-2)))
        CFI ?BRET_EXT load(1, XDATA, add(CFA_XSP16, literal(-3)))
        CFI ?RET_HIGH load(1, XDATA, add(CFA_XSP16, literal(-4)))
        CFI ?RET_LOW load(1, XDATA, add(CFA_XSP16, literal(-5)))
        CFI R7 load(1, XDATA, add(CFA_XSP16, literal(-6)))
        CFI V3 load(1, XDATA, add(CFA_XSP16, literal(-7)))
        CFI V2 load(1, XDATA, add(CFA_XSP16, literal(-8)))
        CFI V1 load(1, XDATA, add(CFA_XSP16, literal(-9)))
        CFI V0 load(1, XDATA, add(CFA_XSP16, literal(-10)))
        CFI VB load(1, XDATA, add(CFA_XSP16, literal(-11)))
        CFI R6 load(1, XDATA, add(CFA_XSP16, literal(-12)))
        CFI CFA_SP SP+0
        CFI CFA_XSP16 add(XSP16, 12)
        ; Saved register size: 12
        ; Auto size: 2
        MOV     A,#-0x2
        LCALL   ?ALLOC_XSTACK8
        CFI CFA_XSP16 add(XSP16, 14)
        MOV     DPL,?XSP + 0
        MOV     DPH,?XSP + 1
        MOV     A,R4
        MOVX    @DPTR,A
        INC     DPTR
        MOV     A,R5
        MOVX    @DPTR,A
        MOV     ?V0 + 0,R1
        MOV     A,R2
        MOV     R6,A
        MOV     A,R3
        MOV     R7,A
//  821   offset -= OSAL_NV_WORD_SIZE;
        MOV     A,R6
        ADD     A,#-0x4
        MOV     R6,A
        MOV     A,R7
        ADDC    A,#-0x1
        MOV     R7,A
//  822   writeWordH( pg, offset, (uint8 *)&chk );
        ; Setup parameters for call to function writeWordH
        MOV     DPL,?XSP + 0
        MOV     DPH,?XSP + 1
        MOV     R4,DPL
        MOV     R5,DPH
        MOV     A,R6
        MOV     R2,A
        MOV     A,R7
        MOV     R3,A
        LCALL   ??writeWordH?relay
//  823   HalFlashRead( pg, offset, (uint8 *)(&chk), sizeof( chk ) );
        ; Setup parameters for call to function HalFlashRead
        MOV     ?V0 + 2,#0x2
        MOV     ?V0 + 3,#0x0
        MOV     R0,#?V0 + 2
        LCALL   ?PUSH_XSTACK_I_TWO
        CFI CFA_XSP16 add(XSP16, 16)
        MOV     A,#0x2
        LCALL   ?XSTACK_DISP0_8
        MOV     R4,DPL
        MOV     R5,DPH
        MOV     A,R6
        MOV     R2,A
        MOV     A,R7
        MOV     R3,A
        MOV     R1,?V0 + 0
        LCALL   ??Subroutine53_0 & 0xFFFF
??CrossCallReturnLabel_100:
        LCALL   ?DEALLOC_XSTACK8
        CFI CFA_XSP16 add(XSP16, 14)
//  824 
//  825   return chk;
        MOV     DPL,?XSP + 0
        MOV     DPH,?XSP + 1
        LCALL   ??Subroutine57_0 & 0xFFFF
        CFI EndBlock cfiBlock82
??CrossCallReturnLabel_118:
        REQUIRE ?Subroutine7
        ; // Fall through to label ?Subroutine7
//  826 }

        RSEG BANKED_CODE:CODE:NOROOT(0)
?Subroutine7:
        CFI Block cfiBlock83 Using cfiCommon0
        CFI NoFunction
        CFI CFA_SP SP+0
        CFI CFA_XSP16 add(XSP16, 14)
        CFI VB load(1, XDATA, add(CFA_XSP16, literal(-11)))
        CFI DPL0 load(1, XDATA, add(CFA_XSP16, literal(-2)))
        CFI DPH0 load(1, XDATA, add(CFA_XSP16, literal(-1)))
        CFI R6 load(1, XDATA, add(CFA_XSP16, literal(-12)))
        CFI R7 load(1, XDATA, add(CFA_XSP16, literal(-6)))
        CFI V0 load(1, XDATA, add(CFA_XSP16, literal(-10)))
        CFI V1 load(1, XDATA, add(CFA_XSP16, literal(-9)))
        CFI V2 load(1, XDATA, add(CFA_XSP16, literal(-8)))
        CFI V3 load(1, XDATA, add(CFA_XSP16, literal(-7)))
        CFI ?BRET_EXT load(1, XDATA, add(CFA_XSP16, literal(-3)))
        CFI ?RET_HIGH load(1, XDATA, add(CFA_XSP16, literal(-4)))
        CFI ?RET_LOW load(1, XDATA, add(CFA_XSP16, literal(-5)))
        MOV     A,#0x2
        LJMP    ??Subroutine54_0 & 0xFFFF
        CFI EndBlock cfiBlock83
//  827 
//  828 /*********************************************************************
//  829  * @fn      calcChkB
//  830  *
//  831  * @brief   Calculates the data checksum over the 'buf' parameter.
//  832  *
//  833  * @param   len - Byte count of the data to be checksummed.
//  834  * @param   buf - Data buffer to be checksummed.
//  835  *
//  836  * @return  Calculated checksum of the data bytes.
//  837  */
//  838 static uint16 calcChkB( uint16 len, uint8 *buf )
//  839 {
//  840   uint8 fill = len % OSAL_NV_WORD_SIZE;
//  841   uint16 chk;
//  842 
//  843   if ( !buf )
//  844   {
//  845     chk = len * OSAL_NV_ERASED;
//  846   }
//  847   else
//  848   {
//  849     chk = 0;
//  850     while ( len-- )
//  851     {
//  852       chk += *buf++;
//  853     }
//  854   }
//  855 
//  856   // calcChkF() will calculate over OSAL_NV_WORD_SIZE alignment.
//  857   if ( fill )
//  858   {
//  859     chk += (OSAL_NV_WORD_SIZE - fill) * OSAL_NV_ERASED;
//  860   }
//  861 
//  862   return chk;
//  863 }
//  864 
//  865 /*********************************************************************
//  866  * @fn      calcChkF
//  867  *
//  868  * @brief   Calculates the data checksum by reading the data bytes from NV.
//  869  *
//  870  * @param   pg - A valid NV Flash page.
//  871  * @param   offset - A valid offset into the page.
//  872  * @param   len - Byte count of the data to be checksummed.
//  873  *
//  874  * @return  Calculated checksum of the data bytes.
//  875  */

        RSEG BANKED_CODE:CODE:NOROOT(0)
//  876 static uint16 calcChkF( uint8 pg, uint16 offset, uint16 len )
calcChkF:
        CFI Block cfiBlock84 Using cfiCommon0
        CFI Function calcChkF
        CODE
//  877 {
        FUNCALL calcChkF, HalFlashRead
        LOCFRAME ISTACK, 0, STACK
        LOCFRAME PSTACK, 0, STACK
        LOCFRAME XSTACK, 22, STACK
        LOCFRAME IOVERLAY, 0, STATIC
        LOCFRAME DOVERLAY, 0, STATIC
        ARGFRAME ISTACK, 0, STACK
        ARGFRAME PSTACK, 0, STACK
        ARGFRAME XSTACK, 22, STACK
        ARGFRAME IOVERLAY, 0, STATIC
        ARGFRAME DOVERLAY, 0, STATIC
        MOV     A,#-0x10
        LCALL   ?BANKED_ENTER_XDATA
        CFI DPH0 load(1, XDATA, add(CFA_XSP16, literal(-1)))
        CFI DPL0 load(1, XDATA, add(CFA_XSP16, literal(-2)))
        CFI ?BRET_EXT load(1, XDATA, add(CFA_XSP16, literal(-3)))
        CFI ?RET_HIGH load(1, XDATA, add(CFA_XSP16, literal(-4)))
        CFI ?RET_LOW load(1, XDATA, add(CFA_XSP16, literal(-5)))
        CFI R7 load(1, XDATA, add(CFA_XSP16, literal(-6)))
        CFI V7 load(1, XDATA, add(CFA_XSP16, literal(-7)))
        CFI V6 load(1, XDATA, add(CFA_XSP16, literal(-8)))
        CFI V5 load(1, XDATA, add(CFA_XSP16, literal(-9)))
        CFI V4 load(1, XDATA, add(CFA_XSP16, literal(-10)))
        CFI V3 load(1, XDATA, add(CFA_XSP16, literal(-11)))
        CFI V2 load(1, XDATA, add(CFA_XSP16, literal(-12)))
        CFI V1 load(1, XDATA, add(CFA_XSP16, literal(-13)))
        CFI V0 load(1, XDATA, add(CFA_XSP16, literal(-14)))
        CFI VB load(1, XDATA, add(CFA_XSP16, literal(-15)))
        CFI R6 load(1, XDATA, add(CFA_XSP16, literal(-16)))
        CFI CFA_SP SP+0
        CFI CFA_XSP16 add(XSP16, 16)
        ; Saved register size: 16
        ; Auto size: 4
        MOV     A,#-0x4
        LCALL   ?ALLOC_XSTACK8
        CFI CFA_XSP16 add(XSP16, 20)
        MOV     ?V0 + 4,R1
        MOV     ?V0 + 2,R2
        MOV     ?V0 + 3,R3
        MOV     A,R4
        MOV     R6,A
        MOV     A,R5
        MOV     R7,A
//  878   uint16 chk = 0;
        MOV     ?V0 + 0,#0x0
        MOV     ?V0 + 1,#0x0
//  879 
//  880   len = (len + (OSAL_NV_WORD_SIZE-1)) / OSAL_NV_WORD_SIZE;
        MOV     A,R6
        ADD     A,#0x3
        MOV     ?V0 + 6,A
        MOV     A,R7
        ADDC    A,#0x0
        MOV     ?V0 + 7,A
        MOV     A,#0x2
        MOV     R0,#?V0 + 6
        LCALL   ?US_SHR
        MOV     R6,?V0 + 6
        MOV     R7,?V0 + 7
//  881 
//  882   while ( len-- )
??calcChkF_0:
        LCALL   ?Subroutine39 & 0xFFFF
??CrossCallReturnLabel_58:
        JZ      ??calcChkF_1
//  883   {
//  884     uint8 cnt, tmp[OSAL_NV_WORD_SIZE];
//  885 
//  886     HalFlashRead(pg, offset, tmp, OSAL_NV_WORD_SIZE);
        ; Setup parameters for call to function HalFlashRead
        MOV     ?V0 + 6,#0x4
        MOV     ?V0 + 7,#0x0
        MOV     R0,#?V0 + 6
        LCALL   ?PUSH_XSTACK_I_TWO
        CFI CFA_XSP16 add(XSP16, 22)
        MOV     A,#0x2
        LCALL   ?XSTACK_DISP0_8
        MOV     R4,DPL
        MOV     R5,DPH
        MOV     R2,?V0 + 2
        MOV     R3,?V0 + 3
        MOV     R1,?V0 + 4
        LCALL   ??Subroutine53_0 & 0xFFFF
??CrossCallReturnLabel_101:
        LCALL   ?DEALLOC_XSTACK8
        CFI CFA_XSP16 add(XSP16, 20)
//  887     offset += OSAL_NV_WORD_SIZE;
        MOV     A,?V0 + 2
        ADD     A,#0x4
        MOV     ?V0 + 2,A
        MOV     A,?V0 + 3
        ADDC    A,#0x0
        MOV     ?V0 + 3,A
//  888 
//  889     for ( cnt = 0; cnt < OSAL_NV_WORD_SIZE; cnt++ )
        MOV     R0,#0x0
//  890     {
//  891       chk += tmp[cnt];
??calcChkF_2:
        MOV     ?V0 + 6,R0
        LCALL   ?Subroutine41 & 0xFFFF
//  892     }
??CrossCallReturnLabel_64:
        MOVX    A,@DPTR
        MOV     R2,A
        MOV     A,?V0 + 0
        ADD     A,R2
        MOV     ?V0 + 0,A
        MOV     A,?V0 + 1
        ADDC    A,#0x0
        MOV     ?V0 + 1,A
        INC     R0
        MOV     A,R0
        CLR     C
        SUBB    A,#0x4
        JNC     ??calcChkF_0
        SJMP    ??calcChkF_2
//  893   }
//  894 
//  895   return chk;
??calcChkF_1:
        MOV     R2,?V0 + 0
        MOV     R3,?V0 + 1
        MOV     A,#0x4
        LCALL   ?DEALLOC_XSTACK8
        CFI EndBlock cfiBlock84
        REQUIRE ?Subroutine4
        ; // Fall through to label ?Subroutine4
//  896 }

        RSEG BANKED_CODE:CODE:NOROOT(0)
?Subroutine4:
        CFI Block cfiBlock85 Using cfiCommon0
        CFI NoFunction
        CFI CFA_SP SP+0
        CFI CFA_XSP16 add(XSP16, 16)
        CFI VB load(1, XDATA, add(CFA_XSP16, literal(-15)))
        CFI DPL0 load(1, XDATA, add(CFA_XSP16, literal(-2)))
        CFI DPH0 load(1, XDATA, add(CFA_XSP16, literal(-1)))
        CFI R6 load(1, XDATA, add(CFA_XSP16, literal(-16)))
        CFI R7 load(1, XDATA, add(CFA_XSP16, literal(-6)))
        CFI V0 load(1, XDATA, add(CFA_XSP16, literal(-14)))
        CFI V1 load(1, XDATA, add(CFA_XSP16, literal(-13)))
        CFI V2 load(1, XDATA, add(CFA_XSP16, literal(-12)))
        CFI V3 load(1, XDATA, add(CFA_XSP16, literal(-11)))
        CFI V4 load(1, XDATA, add(CFA_XSP16, literal(-10)))
        CFI V5 load(1, XDATA, add(CFA_XSP16, literal(-9)))
        CFI V6 load(1, XDATA, add(CFA_XSP16, literal(-8)))
        CFI V7 load(1, XDATA, add(CFA_XSP16, literal(-7)))
        CFI ?BRET_EXT load(1, XDATA, add(CFA_XSP16, literal(-3)))
        CFI ?RET_HIGH load(1, XDATA, add(CFA_XSP16, literal(-4)))
        CFI ?RET_LOW load(1, XDATA, add(CFA_XSP16, literal(-5)))
        MOV     R7,#0x8
        LJMP    ?BANKED_LEAVE_XDATA
        CFI EndBlock cfiBlock85

        RSEG BANKED_CODE:CODE:NOROOT(0)
?Subroutine8:
        CFI Block cfiCond86 Using cfiCommon0
        CFI NoFunction
        CFI Conditional ??CrossCallReturnLabel_91
        CFI R6 load(1, XDATA, add(CFA_XSP16, literal(-18)))
        CFI VB load(1, XDATA, add(CFA_XSP16, literal(-17)))
        CFI V0 load(1, XDATA, add(CFA_XSP16, literal(-16)))
        CFI V1 load(1, XDATA, add(CFA_XSP16, literal(-15)))
        CFI V2 load(1, XDATA, add(CFA_XSP16, literal(-14)))
        CFI V3 load(1, XDATA, add(CFA_XSP16, literal(-13)))
        CFI V4 load(1, XDATA, add(CFA_XSP16, literal(-12)))
        CFI V5 load(1, XDATA, add(CFA_XSP16, literal(-11)))
        CFI V6 load(1, XDATA, add(CFA_XSP16, literal(-10)))
        CFI V7 load(1, XDATA, add(CFA_XSP16, literal(-9)))
        CFI V8 load(1, XDATA, add(CFA_XSP16, literal(-8)))
        CFI V9 load(1, XDATA, add(CFA_XSP16, literal(-7)))
        CFI R7 load(1, XDATA, add(CFA_XSP16, literal(-6)))
        CFI ?RET_LOW load(1, XDATA, add(CFA_XSP16, literal(-5)))
        CFI ?RET_HIGH load(1, XDATA, add(CFA_XSP16, literal(-4)))
        CFI ?BRET_EXT load(1, XDATA, add(CFA_XSP16, literal(-3)))
        CFI DPL0 load(1, XDATA, add(CFA_XSP16, literal(-2)))
        CFI DPH0 load(1, XDATA, add(CFA_XSP16, literal(-1)))
        CFI CFA_SP SP+0
        CFI CFA_XSP16 add(XSP16, 24)
        CFI Block cfiCond87 Using cfiCommon0
        CFI (cfiCond87) NoFunction
        CFI (cfiCond87) Conditional ??CrossCallReturnLabel_92
        CFI (cfiCond87) R6 load(1, XDATA, add(CFA_XSP16, literal(-18)))
        CFI (cfiCond87) VB load(1, XDATA, add(CFA_XSP16, literal(-17)))
        CFI (cfiCond87) V0 load(1, XDATA, add(CFA_XSP16, literal(-16)))
        CFI (cfiCond87) V1 load(1, XDATA, add(CFA_XSP16, literal(-15)))
        CFI (cfiCond87) V2 load(1, XDATA, add(CFA_XSP16, literal(-14)))
        CFI (cfiCond87) V3 load(1, XDATA, add(CFA_XSP16, literal(-13)))
        CFI (cfiCond87) V4 load(1, XDATA, add(CFA_XSP16, literal(-12)))
        CFI (cfiCond87) V5 load(1, XDATA, add(CFA_XSP16, literal(-11)))
        CFI (cfiCond87) V6 load(1, XDATA, add(CFA_XSP16, literal(-10)))
        CFI (cfiCond87) V7 load(1, XDATA, add(CFA_XSP16, literal(-9)))
        CFI (cfiCond87) V8 load(1, XDATA, add(CFA_XSP16, literal(-8)))
        CFI (cfiCond87) V9 load(1, XDATA, add(CFA_XSP16, literal(-7)))
        CFI (cfiCond87) R7 load(1, XDATA, add(CFA_XSP16, literal(-6)))
        CFI (cfiCond87) ?RET_LOW load(1, XDATA, add(CFA_XSP16, literal(-5)))
        CFI (cfiCond87) ?RET_HIGH load(1, XDATA, add(CFA_XSP16, literal(-4)))
        CFI (cfiCond87) ?BRET_EXT load(1, XDATA, add(CFA_XSP16, literal(-3)))
        CFI (cfiCond87) DPL0 load(1, XDATA, add(CFA_XSP16, literal(-2)))
        CFI (cfiCond87) DPH0 load(1, XDATA, add(CFA_XSP16, literal(-1)))
        CFI (cfiCond87) CFA_SP SP+0
        CFI (cfiCond87) CFA_XSP16 add(XSP16, 24)
        CFI Block cfiPicker88 Using cfiCommon1
        CFI (cfiPicker88) NoFunction
        CFI (cfiPicker88) Picker
        MOV     A,DPL
        ADD     A,?V0 + 8
        MOV     R4,A
        MOV     A,DPH
        ADDC    A,#0x0
        MOV     R5,A
        CFI EndBlock cfiCond86
        CFI EndBlock cfiCond87
        CFI EndBlock cfiPicker88
        REQUIRE ??Subroutine52_0
        ; // Fall through to label ??Subroutine52_0

        RSEG BANKED_CODE:CODE:NOROOT(0)
??Subroutine52_0:
        CFI Block cfiCond89 Using cfiCommon0
        CFI NoFunction
        CFI Conditional ??CrossCallReturnLabel_93
        CFI R6 load(1, XDATA, add(CFA_XSP16, literal(-18)))
        CFI VB load(1, XDATA, add(CFA_XSP16, literal(-17)))
        CFI V0 load(1, XDATA, add(CFA_XSP16, literal(-16)))
        CFI V1 load(1, XDATA, add(CFA_XSP16, literal(-15)))
        CFI V2 load(1, XDATA, add(CFA_XSP16, literal(-14)))
        CFI V3 load(1, XDATA, add(CFA_XSP16, literal(-13)))
        CFI V4 load(1, XDATA, add(CFA_XSP16, literal(-12)))
        CFI V5 load(1, XDATA, add(CFA_XSP16, literal(-11)))
        CFI V6 load(1, XDATA, add(CFA_XSP16, literal(-10)))
        CFI V7 load(1, XDATA, add(CFA_XSP16, literal(-9)))
        CFI V8 load(1, XDATA, add(CFA_XSP16, literal(-8)))
        CFI V9 load(1, XDATA, add(CFA_XSP16, literal(-7)))
        CFI R7 load(1, XDATA, add(CFA_XSP16, literal(-6)))
        CFI ?RET_LOW load(1, XDATA, add(CFA_XSP16, literal(-5)))
        CFI ?RET_HIGH load(1, XDATA, add(CFA_XSP16, literal(-4)))
        CFI ?BRET_EXT load(1, XDATA, add(CFA_XSP16, literal(-3)))
        CFI DPL0 load(1, XDATA, add(CFA_XSP16, literal(-2)))
        CFI DPH0 load(1, XDATA, add(CFA_XSP16, literal(-1)))
        CFI CFA_SP SP+0
        CFI CFA_XSP16 add(XSP16, 24)
        CFI Block cfiCond90 Using cfiCommon0
        CFI (cfiCond90) NoFunction
        CFI (cfiCond90) Conditional ??CrossCallReturnLabel_91
        CFI (cfiCond90) R6 load(1, XDATA, add(CFA_XSP16, literal(-18)))
        CFI (cfiCond90) VB load(1, XDATA, add(CFA_XSP16, literal(-17)))
        CFI (cfiCond90) V0 load(1, XDATA, add(CFA_XSP16, literal(-16)))
        CFI (cfiCond90) V1 load(1, XDATA, add(CFA_XSP16, literal(-15)))
        CFI (cfiCond90) V2 load(1, XDATA, add(CFA_XSP16, literal(-14)))
        CFI (cfiCond90) V3 load(1, XDATA, add(CFA_XSP16, literal(-13)))
        CFI (cfiCond90) V4 load(1, XDATA, add(CFA_XSP16, literal(-12)))
        CFI (cfiCond90) V5 load(1, XDATA, add(CFA_XSP16, literal(-11)))
        CFI (cfiCond90) V6 load(1, XDATA, add(CFA_XSP16, literal(-10)))
        CFI (cfiCond90) V7 load(1, XDATA, add(CFA_XSP16, literal(-9)))
        CFI (cfiCond90) V8 load(1, XDATA, add(CFA_XSP16, literal(-8)))
        CFI (cfiCond90) V9 load(1, XDATA, add(CFA_XSP16, literal(-7)))
        CFI (cfiCond90) R7 load(1, XDATA, add(CFA_XSP16, literal(-6)))
        CFI (cfiCond90) ?RET_LOW load(1, XDATA, add(CFA_XSP16, literal(-5)))
        CFI (cfiCond90) ?RET_HIGH load(1, XDATA, add(CFA_XSP16, literal(-4)))
        CFI (cfiCond90) ?BRET_EXT load(1, XDATA, add(CFA_XSP16, literal(-3)))
        CFI (cfiCond90) DPL0 load(1, XDATA, add(CFA_XSP16, literal(-2)))
        CFI (cfiCond90) DPH0 load(1, XDATA, add(CFA_XSP16, literal(-1)))
        CFI (cfiCond90) CFA_SP SP+0
        CFI (cfiCond90) CFA_XSP16 add(XSP16, 24)
        CFI Block cfiCond91 Using cfiCommon0
        CFI (cfiCond91) NoFunction
        CFI (cfiCond91) Conditional ??CrossCallReturnLabel_92
        CFI (cfiCond91) R6 load(1, XDATA, add(CFA_XSP16, literal(-18)))
        CFI (cfiCond91) VB load(1, XDATA, add(CFA_XSP16, literal(-17)))
        CFI (cfiCond91) V0 load(1, XDATA, add(CFA_XSP16, literal(-16)))
        CFI (cfiCond91) V1 load(1, XDATA, add(CFA_XSP16, literal(-15)))
        CFI (cfiCond91) V2 load(1, XDATA, add(CFA_XSP16, literal(-14)))
        CFI (cfiCond91) V3 load(1, XDATA, add(CFA_XSP16, literal(-13)))
        CFI (cfiCond91) V4 load(1, XDATA, add(CFA_XSP16, literal(-12)))
        CFI (cfiCond91) V5 load(1, XDATA, add(CFA_XSP16, literal(-11)))
        CFI (cfiCond91) V6 load(1, XDATA, add(CFA_XSP16, literal(-10)))
        CFI (cfiCond91) V7 load(1, XDATA, add(CFA_XSP16, literal(-9)))
        CFI (cfiCond91) V8 load(1, XDATA, add(CFA_XSP16, literal(-8)))
        CFI (cfiCond91) V9 load(1, XDATA, add(CFA_XSP16, literal(-7)))
        CFI (cfiCond91) R7 load(1, XDATA, add(CFA_XSP16, literal(-6)))
        CFI (cfiCond91) ?RET_LOW load(1, XDATA, add(CFA_XSP16, literal(-5)))
        CFI (cfiCond91) ?RET_HIGH load(1, XDATA, add(CFA_XSP16, literal(-4)))
        CFI (cfiCond91) ?BRET_EXT load(1, XDATA, add(CFA_XSP16, literal(-3)))
        CFI (cfiCond91) DPL0 load(1, XDATA, add(CFA_XSP16, literal(-2)))
        CFI (cfiCond91) DPH0 load(1, XDATA, add(CFA_XSP16, literal(-1)))
        CFI (cfiCond91) CFA_SP SP+0
        CFI (cfiCond91) CFA_XSP16 add(XSP16, 24)
        CFI Block cfiPicker92 Using cfiCommon1
        CFI (cfiPicker92) NoFunction
        CFI (cfiPicker92) Picker
        MOV     R2,?V0 + 4
        MOV     R3,?V0 + 5
        MOV     R1,?V0 + 6
        CFI EndBlock cfiCond89
        CFI EndBlock cfiCond90
        CFI EndBlock cfiCond91
        CFI EndBlock cfiPicker92
        REQUIRE ??Subroutine53_0
        ; // Fall through to label ??Subroutine53_0

        RSEG BANKED_CODE:CODE:NOROOT(0)
??Subroutine53_0:
        CFI Block cfiCond93 Using cfiCommon0
        CFI NoFunction
        CFI Conditional ??CrossCallReturnLabel_94
        CFI R6 load(1, XDATA, add(CFA_XSP16, literal(-12)))
        CFI VB load(1, XDATA, add(CFA_XSP16, literal(-11)))
        CFI V0 load(1, XDATA, add(CFA_XSP16, literal(-10)))
        CFI V1 load(1, XDATA, add(CFA_XSP16, literal(-9)))
        CFI V2 load(1, XDATA, add(CFA_XSP16, literal(-8)))
        CFI V3 load(1, XDATA, add(CFA_XSP16, literal(-7)))
        CFI R7 load(1, XDATA, add(CFA_XSP16, literal(-6)))
        CFI ?RET_LOW load(1, XDATA, add(CFA_XSP16, literal(-5)))
        CFI ?RET_HIGH load(1, XDATA, add(CFA_XSP16, literal(-4)))
        CFI ?BRET_EXT load(1, XDATA, add(CFA_XSP16, literal(-3)))
        CFI DPL0 load(1, XDATA, add(CFA_XSP16, literal(-2)))
        CFI DPH0 load(1, XDATA, add(CFA_XSP16, literal(-1)))
        CFI CFA_SP SP+0
        CFI CFA_XSP16 add(XSP16, 22)
        CFI Block cfiCond94 Using cfiCommon0
        CFI (cfiCond94) NoFunction
        CFI (cfiCond94) Conditional ??CrossCallReturnLabel_95
        CFI (cfiCond94) R6 load(1, XDATA, add(CFA_XSP16, literal(-18)))
        CFI (cfiCond94) VB load(1, XDATA, add(CFA_XSP16, literal(-17)))
        CFI (cfiCond94) V0 load(1, XDATA, add(CFA_XSP16, literal(-16)))
        CFI (cfiCond94) V1 load(1, XDATA, add(CFA_XSP16, literal(-15)))
        CFI (cfiCond94) V2 load(1, XDATA, add(CFA_XSP16, literal(-14)))
        CFI (cfiCond94) V3 load(1, XDATA, add(CFA_XSP16, literal(-13)))
        CFI (cfiCond94) V4 load(1, XDATA, add(CFA_XSP16, literal(-12)))
        CFI (cfiCond94) V5 load(1, XDATA, add(CFA_XSP16, literal(-11)))
        CFI (cfiCond94) V6 load(1, XDATA, add(CFA_XSP16, literal(-10)))
        CFI (cfiCond94) V7 load(1, XDATA, add(CFA_XSP16, literal(-9)))
        CFI (cfiCond94) V8 load(1, XDATA, add(CFA_XSP16, literal(-8)))
        CFI (cfiCond94) V9 load(1, XDATA, add(CFA_XSP16, literal(-7)))
        CFI (cfiCond94) R7 load(1, XDATA, add(CFA_XSP16, literal(-6)))
        CFI (cfiCond94) ?RET_LOW load(1, XDATA, add(CFA_XSP16, literal(-5)))
        CFI (cfiCond94) ?RET_HIGH load(1, XDATA, add(CFA_XSP16, literal(-4)))
        CFI (cfiCond94) ?BRET_EXT load(1, XDATA, add(CFA_XSP16, literal(-3)))
        CFI (cfiCond94) DPL0 load(1, XDATA, add(CFA_XSP16, literal(-2)))
        CFI (cfiCond94) DPH0 load(1, XDATA, add(CFA_XSP16, literal(-1)))
        CFI (cfiCond94) CFA_SP SP+0
        CFI (cfiCond94) CFA_XSP16 add(XSP16, 28)
        CFI Block cfiCond95 Using cfiCommon0
        CFI (cfiCond95) NoFunction
        CFI (cfiCond95) Conditional ??CrossCallReturnLabel_96
        CFI (cfiCond95) R6 load(1, XDATA, add(CFA_XSP16, literal(-18)))
        CFI (cfiCond95) VB load(1, XDATA, add(CFA_XSP16, literal(-17)))
        CFI (cfiCond95) V0 load(1, XDATA, add(CFA_XSP16, literal(-16)))
        CFI (cfiCond95) V1 load(1, XDATA, add(CFA_XSP16, literal(-15)))
        CFI (cfiCond95) V2 load(1, XDATA, add(CFA_XSP16, literal(-14)))
        CFI (cfiCond95) V3 load(1, XDATA, add(CFA_XSP16, literal(-13)))
        CFI (cfiCond95) V4 load(1, XDATA, add(CFA_XSP16, literal(-12)))
        CFI (cfiCond95) V5 load(1, XDATA, add(CFA_XSP16, literal(-11)))
        CFI (cfiCond95) V6 load(1, XDATA, add(CFA_XSP16, literal(-10)))
        CFI (cfiCond95) V7 load(1, XDATA, add(CFA_XSP16, literal(-9)))
        CFI (cfiCond95) V8 load(1, XDATA, add(CFA_XSP16, literal(-8)))
        CFI (cfiCond95) V9 load(1, XDATA, add(CFA_XSP16, literal(-7)))
        CFI (cfiCond95) R7 load(1, XDATA, add(CFA_XSP16, literal(-6)))
        CFI (cfiCond95) ?RET_LOW load(1, XDATA, add(CFA_XSP16, literal(-5)))
        CFI (cfiCond95) ?RET_HIGH load(1, XDATA, add(CFA_XSP16, literal(-4)))
        CFI (cfiCond95) ?BRET_EXT load(1, XDATA, add(CFA_XSP16, literal(-3)))
        CFI (cfiCond95) DPL0 load(1, XDATA, add(CFA_XSP16, literal(-2)))
        CFI (cfiCond95) DPH0 load(1, XDATA, add(CFA_XSP16, literal(-1)))
        CFI (cfiCond95) CFA_SP SP+0
        CFI (cfiCond95) CFA_XSP16 add(XSP16, 29)
        CFI Block cfiCond96 Using cfiCommon0
        CFI (cfiCond96) NoFunction
        CFI (cfiCond96) Conditional ??CrossCallReturnLabel_97
        CFI (cfiCond96) R6 load(1, XDATA, add(CFA_XSP16, literal(-18)))
        CFI (cfiCond96) VB load(1, XDATA, add(CFA_XSP16, literal(-17)))
        CFI (cfiCond96) V0 load(1, XDATA, add(CFA_XSP16, literal(-16)))
        CFI (cfiCond96) V1 load(1, XDATA, add(CFA_XSP16, literal(-15)))
        CFI (cfiCond96) V2 load(1, XDATA, add(CFA_XSP16, literal(-14)))
        CFI (cfiCond96) V3 load(1, XDATA, add(CFA_XSP16, literal(-13)))
        CFI (cfiCond96) V4 load(1, XDATA, add(CFA_XSP16, literal(-12)))
        CFI (cfiCond96) V5 load(1, XDATA, add(CFA_XSP16, literal(-11)))
        CFI (cfiCond96) V6 load(1, XDATA, add(CFA_XSP16, literal(-10)))
        CFI (cfiCond96) V7 load(1, XDATA, add(CFA_XSP16, literal(-9)))
        CFI (cfiCond96) V8 load(1, XDATA, add(CFA_XSP16, literal(-8)))
        CFI (cfiCond96) V9 load(1, XDATA, add(CFA_XSP16, literal(-7)))
        CFI (cfiCond96) R7 load(1, XDATA, add(CFA_XSP16, literal(-6)))
        CFI (cfiCond96) ?RET_LOW load(1, XDATA, add(CFA_XSP16, literal(-5)))
        CFI (cfiCond96) ?RET_HIGH load(1, XDATA, add(CFA_XSP16, literal(-4)))
        CFI (cfiCond96) ?BRET_EXT load(1, XDATA, add(CFA_XSP16, literal(-3)))
        CFI (cfiCond96) DPL0 load(1, XDATA, add(CFA_XSP16, literal(-2)))
        CFI (cfiCond96) DPH0 load(1, XDATA, add(CFA_XSP16, literal(-1)))
        CFI (cfiCond96) CFA_SP SP+0
        CFI (cfiCond96) CFA_XSP16 add(XSP16, 29)
        CFI Block cfiCond97 Using cfiCommon0
        CFI (cfiCond97) NoFunction
        CFI (cfiCond97) Conditional ??CrossCallReturnLabel_98
        CFI (cfiCond97) R6 load(1, XDATA, add(CFA_XSP16, literal(-18)))
        CFI (cfiCond97) VB load(1, XDATA, add(CFA_XSP16, literal(-17)))
        CFI (cfiCond97) V0 load(1, XDATA, add(CFA_XSP16, literal(-16)))
        CFI (cfiCond97) V1 load(1, XDATA, add(CFA_XSP16, literal(-15)))
        CFI (cfiCond97) V2 load(1, XDATA, add(CFA_XSP16, literal(-14)))
        CFI (cfiCond97) V3 load(1, XDATA, add(CFA_XSP16, literal(-13)))
        CFI (cfiCond97) V4 load(1, XDATA, add(CFA_XSP16, literal(-12)))
        CFI (cfiCond97) V5 load(1, XDATA, add(CFA_XSP16, literal(-11)))
        CFI (cfiCond97) V6 load(1, XDATA, add(CFA_XSP16, literal(-10)))
        CFI (cfiCond97) V7 load(1, XDATA, add(CFA_XSP16, literal(-9)))
        CFI (cfiCond97) V8 load(1, XDATA, add(CFA_XSP16, literal(-8)))
        CFI (cfiCond97) V9 load(1, XDATA, add(CFA_XSP16, literal(-7)))
        CFI (cfiCond97) R7 load(1, XDATA, add(CFA_XSP16, literal(-6)))
        CFI (cfiCond97) ?RET_LOW load(1, XDATA, add(CFA_XSP16, literal(-5)))
        CFI (cfiCond97) ?RET_HIGH load(1, XDATA, add(CFA_XSP16, literal(-4)))
        CFI (cfiCond97) ?BRET_EXT load(1, XDATA, add(CFA_XSP16, literal(-3)))
        CFI (cfiCond97) DPL0 load(1, XDATA, add(CFA_XSP16, literal(-2)))
        CFI (cfiCond97) DPH0 load(1, XDATA, add(CFA_XSP16, literal(-1)))
        CFI (cfiCond97) CFA_SP SP+0
        CFI (cfiCond97) CFA_XSP16 add(XSP16, 30)
        CFI Block cfiCond98 Using cfiCommon0
        CFI (cfiCond98) NoFunction
        CFI (cfiCond98) Conditional ??CrossCallReturnLabel_99
        CFI (cfiCond98) R6 load(1, XDATA, add(CFA_XSP16, literal(-14)))
        CFI (cfiCond98) VB load(1, XDATA, add(CFA_XSP16, literal(-13)))
        CFI (cfiCond98) V0 load(1, XDATA, add(CFA_XSP16, literal(-12)))
        CFI (cfiCond98) V1 load(1, XDATA, add(CFA_XSP16, literal(-11)))
        CFI (cfiCond98) V2 load(1, XDATA, add(CFA_XSP16, literal(-10)))
        CFI (cfiCond98) V3 load(1, XDATA, add(CFA_XSP16, literal(-9)))
        CFI (cfiCond98) V4 load(1, XDATA, add(CFA_XSP16, literal(-8)))
        CFI (cfiCond98) V5 load(1, XDATA, add(CFA_XSP16, literal(-7)))
        CFI (cfiCond98) R7 load(1, XDATA, add(CFA_XSP16, literal(-6)))
        CFI (cfiCond98) ?RET_LOW load(1, XDATA, add(CFA_XSP16, literal(-5)))
        CFI (cfiCond98) ?RET_HIGH load(1, XDATA, add(CFA_XSP16, literal(-4)))
        CFI (cfiCond98) ?BRET_EXT load(1, XDATA, add(CFA_XSP16, literal(-3)))
        CFI (cfiCond98) DPL0 load(1, XDATA, add(CFA_XSP16, literal(-2)))
        CFI (cfiCond98) DPH0 load(1, XDATA, add(CFA_XSP16, literal(-1)))
        CFI (cfiCond98) CFA_SP SP+0
        CFI (cfiCond98) CFA_XSP16 add(XSP16, 24)
        CFI Block cfiCond99 Using cfiCommon0
        CFI (cfiCond99) NoFunction
        CFI (cfiCond99) Conditional ??CrossCallReturnLabel_100
        CFI (cfiCond99) R6 load(1, XDATA, add(CFA_XSP16, literal(-12)))
        CFI (cfiCond99) VB load(1, XDATA, add(CFA_XSP16, literal(-11)))
        CFI (cfiCond99) V0 load(1, XDATA, add(CFA_XSP16, literal(-10)))
        CFI (cfiCond99) V1 load(1, XDATA, add(CFA_XSP16, literal(-9)))
        CFI (cfiCond99) V2 load(1, XDATA, add(CFA_XSP16, literal(-8)))
        CFI (cfiCond99) V3 load(1, XDATA, add(CFA_XSP16, literal(-7)))
        CFI (cfiCond99) R7 load(1, XDATA, add(CFA_XSP16, literal(-6)))
        CFI (cfiCond99) ?RET_LOW load(1, XDATA, add(CFA_XSP16, literal(-5)))
        CFI (cfiCond99) ?RET_HIGH load(1, XDATA, add(CFA_XSP16, literal(-4)))
        CFI (cfiCond99) ?BRET_EXT load(1, XDATA, add(CFA_XSP16, literal(-3)))
        CFI (cfiCond99) DPL0 load(1, XDATA, add(CFA_XSP16, literal(-2)))
        CFI (cfiCond99) DPH0 load(1, XDATA, add(CFA_XSP16, literal(-1)))
        CFI (cfiCond99) CFA_SP SP+0
        CFI (cfiCond99) CFA_XSP16 add(XSP16, 16)
        CFI Block cfiCond100 Using cfiCommon0
        CFI (cfiCond100) NoFunction
        CFI (cfiCond100) Conditional ??CrossCallReturnLabel_101
        CFI (cfiCond100) R6 load(1, XDATA, add(CFA_XSP16, literal(-16)))
        CFI (cfiCond100) VB load(1, XDATA, add(CFA_XSP16, literal(-15)))
        CFI (cfiCond100) V0 load(1, XDATA, add(CFA_XSP16, literal(-14)))
        CFI (cfiCond100) V1 load(1, XDATA, add(CFA_XSP16, literal(-13)))
        CFI (cfiCond100) V2 load(1, XDATA, add(CFA_XSP16, literal(-12)))
        CFI (cfiCond100) V3 load(1, XDATA, add(CFA_XSP16, literal(-11)))
        CFI (cfiCond100) V4 load(1, XDATA, add(CFA_XSP16, literal(-10)))
        CFI (cfiCond100) V5 load(1, XDATA, add(CFA_XSP16, literal(-9)))
        CFI (cfiCond100) V6 load(1, XDATA, add(CFA_XSP16, literal(-8)))
        CFI (cfiCond100) V7 load(1, XDATA, add(CFA_XSP16, literal(-7)))
        CFI (cfiCond100) R7 load(1, XDATA, add(CFA_XSP16, literal(-6)))
        CFI (cfiCond100) ?RET_LOW load(1, XDATA, add(CFA_XSP16, literal(-5)))
        CFI (cfiCond100) ?RET_HIGH load(1, XDATA, add(CFA_XSP16, literal(-4)))
        CFI (cfiCond100) ?BRET_EXT load(1, XDATA, add(CFA_XSP16, literal(-3)))
        CFI (cfiCond100) DPL0 load(1, XDATA, add(CFA_XSP16, literal(-2)))
        CFI (cfiCond100) DPH0 load(1, XDATA, add(CFA_XSP16, literal(-1)))
        CFI (cfiCond100) CFA_SP SP+0
        CFI (cfiCond100) CFA_XSP16 add(XSP16, 22)
        CFI Block cfiCond101 Using cfiCommon0
        CFI (cfiCond101) NoFunction
        CFI (cfiCond101) Conditional ??CrossCallReturnLabel_102
        CFI (cfiCond101) R6 load(1, XDATA, add(CFA_XSP16, literal(-18)))
        CFI (cfiCond101) VB load(1, XDATA, add(CFA_XSP16, literal(-17)))
        CFI (cfiCond101) V0 load(1, XDATA, add(CFA_XSP16, literal(-16)))
        CFI (cfiCond101) V1 load(1, XDATA, add(CFA_XSP16, literal(-15)))
        CFI (cfiCond101) V2 load(1, XDATA, add(CFA_XSP16, literal(-14)))
        CFI (cfiCond101) V3 load(1, XDATA, add(CFA_XSP16, literal(-13)))
        CFI (cfiCond101) V4 load(1, XDATA, add(CFA_XSP16, literal(-12)))
        CFI (cfiCond101) V5 load(1, XDATA, add(CFA_XSP16, literal(-11)))
        CFI (cfiCond101) V6 load(1, XDATA, add(CFA_XSP16, literal(-10)))
        CFI (cfiCond101) V7 load(1, XDATA, add(CFA_XSP16, literal(-9)))
        CFI (cfiCond101) V8 load(1, XDATA, add(CFA_XSP16, literal(-8)))
        CFI (cfiCond101) V9 load(1, XDATA, add(CFA_XSP16, literal(-7)))
        CFI (cfiCond101) R7 load(1, XDATA, add(CFA_XSP16, literal(-6)))
        CFI (cfiCond101) ?RET_LOW load(1, XDATA, add(CFA_XSP16, literal(-5)))
        CFI (cfiCond101) ?RET_HIGH load(1, XDATA, add(CFA_XSP16, literal(-4)))
        CFI (cfiCond101) ?BRET_EXT load(1, XDATA, add(CFA_XSP16, literal(-3)))
        CFI (cfiCond101) DPL0 load(1, XDATA, add(CFA_XSP16, literal(-2)))
        CFI (cfiCond101) DPH0 load(1, XDATA, add(CFA_XSP16, literal(-1)))
        CFI (cfiCond101) CFA_SP SP+0
        CFI (cfiCond101) CFA_XSP16 add(XSP16, 24)
        CFI Block cfiCond102 Using cfiCommon0
        CFI (cfiCond102) NoFunction
        CFI (cfiCond102) Conditional ??CrossCallReturnLabel_103
        CFI (cfiCond102) R6 load(1, XDATA, add(CFA_XSP16, literal(-18)))
        CFI (cfiCond102) VB load(1, XDATA, add(CFA_XSP16, literal(-17)))
        CFI (cfiCond102) V0 load(1, XDATA, add(CFA_XSP16, literal(-16)))
        CFI (cfiCond102) V1 load(1, XDATA, add(CFA_XSP16, literal(-15)))
        CFI (cfiCond102) V2 load(1, XDATA, add(CFA_XSP16, literal(-14)))
        CFI (cfiCond102) V3 load(1, XDATA, add(CFA_XSP16, literal(-13)))
        CFI (cfiCond102) V4 load(1, XDATA, add(CFA_XSP16, literal(-12)))
        CFI (cfiCond102) V5 load(1, XDATA, add(CFA_XSP16, literal(-11)))
        CFI (cfiCond102) V6 load(1, XDATA, add(CFA_XSP16, literal(-10)))
        CFI (cfiCond102) V7 load(1, XDATA, add(CFA_XSP16, literal(-9)))
        CFI (cfiCond102) V8 load(1, XDATA, add(CFA_XSP16, literal(-8)))
        CFI (cfiCond102) V9 load(1, XDATA, add(CFA_XSP16, literal(-7)))
        CFI (cfiCond102) R7 load(1, XDATA, add(CFA_XSP16, literal(-6)))
        CFI (cfiCond102) ?RET_LOW load(1, XDATA, add(CFA_XSP16, literal(-5)))
        CFI (cfiCond102) ?RET_HIGH load(1, XDATA, add(CFA_XSP16, literal(-4)))
        CFI (cfiCond102) ?BRET_EXT load(1, XDATA, add(CFA_XSP16, literal(-3)))
        CFI (cfiCond102) DPL0 load(1, XDATA, add(CFA_XSP16, literal(-2)))
        CFI (cfiCond102) DPH0 load(1, XDATA, add(CFA_XSP16, literal(-1)))
        CFI (cfiCond102) CFA_SP SP+0
        CFI (cfiCond102) CFA_XSP16 add(XSP16, 24)
        CFI Block cfiCond103 Using cfiCommon0
        CFI (cfiCond103) NoFunction
        CFI (cfiCond103) Conditional ??CrossCallReturnLabel_104
        CFI (cfiCond103) R6 load(1, XDATA, add(CFA_XSP16, literal(-18)))
        CFI (cfiCond103) VB load(1, XDATA, add(CFA_XSP16, literal(-17)))
        CFI (cfiCond103) V0 load(1, XDATA, add(CFA_XSP16, literal(-16)))
        CFI (cfiCond103) V1 load(1, XDATA, add(CFA_XSP16, literal(-15)))
        CFI (cfiCond103) V2 load(1, XDATA, add(CFA_XSP16, literal(-14)))
        CFI (cfiCond103) V3 load(1, XDATA, add(CFA_XSP16, literal(-13)))
        CFI (cfiCond103) V4 load(1, XDATA, add(CFA_XSP16, literal(-12)))
        CFI (cfiCond103) V5 load(1, XDATA, add(CFA_XSP16, literal(-11)))
        CFI (cfiCond103) V6 load(1, XDATA, add(CFA_XSP16, literal(-10)))
        CFI (cfiCond103) V7 load(1, XDATA, add(CFA_XSP16, literal(-9)))
        CFI (cfiCond103) V8 load(1, XDATA, add(CFA_XSP16, literal(-8)))
        CFI (cfiCond103) V9 load(1, XDATA, add(CFA_XSP16, literal(-7)))
        CFI (cfiCond103) R7 load(1, XDATA, add(CFA_XSP16, literal(-6)))
        CFI (cfiCond103) ?RET_LOW load(1, XDATA, add(CFA_XSP16, literal(-5)))
        CFI (cfiCond103) ?RET_HIGH load(1, XDATA, add(CFA_XSP16, literal(-4)))
        CFI (cfiCond103) ?BRET_EXT load(1, XDATA, add(CFA_XSP16, literal(-3)))
        CFI (cfiCond103) DPL0 load(1, XDATA, add(CFA_XSP16, literal(-2)))
        CFI (cfiCond103) DPH0 load(1, XDATA, add(CFA_XSP16, literal(-1)))
        CFI (cfiCond103) CFA_SP SP+0
        CFI (cfiCond103) CFA_XSP16 add(XSP16, 24)
        CFI Block cfiCond104 Using cfiCommon0
        CFI (cfiCond104) NoFunction
        CFI (cfiCond104) Conditional ??CrossCallReturnLabel_105
        CFI (cfiCond104) R6 load(1, XDATA, add(CFA_XSP16, literal(-18)))
        CFI (cfiCond104) VB load(1, XDATA, add(CFA_XSP16, literal(-17)))
        CFI (cfiCond104) V0 load(1, XDATA, add(CFA_XSP16, literal(-16)))
        CFI (cfiCond104) V1 load(1, XDATA, add(CFA_XSP16, literal(-15)))
        CFI (cfiCond104) V2 load(1, XDATA, add(CFA_XSP16, literal(-14)))
        CFI (cfiCond104) V3 load(1, XDATA, add(CFA_XSP16, literal(-13)))
        CFI (cfiCond104) V4 load(1, XDATA, add(CFA_XSP16, literal(-12)))
        CFI (cfiCond104) V5 load(1, XDATA, add(CFA_XSP16, literal(-11)))
        CFI (cfiCond104) V6 load(1, XDATA, add(CFA_XSP16, literal(-10)))
        CFI (cfiCond104) V7 load(1, XDATA, add(CFA_XSP16, literal(-9)))
        CFI (cfiCond104) V8 load(1, XDATA, add(CFA_XSP16, literal(-8)))
        CFI (cfiCond104) V9 load(1, XDATA, add(CFA_XSP16, literal(-7)))
        CFI (cfiCond104) R7 load(1, XDATA, add(CFA_XSP16, literal(-6)))
        CFI (cfiCond104) ?RET_LOW load(1, XDATA, add(CFA_XSP16, literal(-5)))
        CFI (cfiCond104) ?RET_HIGH load(1, XDATA, add(CFA_XSP16, literal(-4)))
        CFI (cfiCond104) ?BRET_EXT load(1, XDATA, add(CFA_XSP16, literal(-3)))
        CFI (cfiCond104) DPL0 load(1, XDATA, add(CFA_XSP16, literal(-2)))
        CFI (cfiCond104) DPH0 load(1, XDATA, add(CFA_XSP16, literal(-1)))
        CFI (cfiCond104) CFA_SP SP+0
        CFI (cfiCond104) CFA_XSP16 add(XSP16, 24)
        CFI Block cfiCond105 Using cfiCommon0
        CFI (cfiCond105) NoFunction
        CFI (cfiCond105) Conditional ??CrossCallReturnLabel_106
        CFI (cfiCond105) R6 load(1, XDATA, add(CFA_XSP16, literal(-24)))
        CFI (cfiCond105) VB load(1, XDATA, add(CFA_XSP16, literal(-23)))
        CFI (cfiCond105) V0 load(1, XDATA, add(CFA_XSP16, literal(-22)))
        CFI (cfiCond105) V1 load(1, XDATA, add(CFA_XSP16, literal(-21)))
        CFI (cfiCond105) V2 load(1, XDATA, add(CFA_XSP16, literal(-20)))
        CFI (cfiCond105) V3 load(1, XDATA, add(CFA_XSP16, literal(-19)))
        CFI (cfiCond105) V4 load(1, XDATA, add(CFA_XSP16, literal(-18)))
        CFI (cfiCond105) V5 load(1, XDATA, add(CFA_XSP16, literal(-17)))
        CFI (cfiCond105) V6 load(1, XDATA, add(CFA_XSP16, literal(-16)))
        CFI (cfiCond105) V7 load(1, XDATA, add(CFA_XSP16, literal(-15)))
        CFI (cfiCond105) V8 load(1, XDATA, add(CFA_XSP16, literal(-14)))
        CFI (cfiCond105) V9 load(1, XDATA, add(CFA_XSP16, literal(-13)))
        CFI (cfiCond105) V10 load(1, XDATA, add(CFA_XSP16, literal(-12)))
        CFI (cfiCond105) V11 load(1, XDATA, add(CFA_XSP16, literal(-11)))
        CFI (cfiCond105) V12 load(1, XDATA, add(CFA_XSP16, literal(-10)))
        CFI (cfiCond105) V13 load(1, XDATA, add(CFA_XSP16, literal(-9)))
        CFI (cfiCond105) V14 load(1, XDATA, add(CFA_XSP16, literal(-8)))
        CFI (cfiCond105) V15 load(1, XDATA, add(CFA_XSP16, literal(-7)))
        CFI (cfiCond105) R7 load(1, XDATA, add(CFA_XSP16, literal(-6)))
        CFI (cfiCond105) ?RET_LOW load(1, XDATA, add(CFA_XSP16, literal(-5)))
        CFI (cfiCond105) ?RET_HIGH load(1, XDATA, add(CFA_XSP16, literal(-4)))
        CFI (cfiCond105) ?BRET_EXT load(1, XDATA, add(CFA_XSP16, literal(-3)))
        CFI (cfiCond105) DPL0 load(1, XDATA, add(CFA_XSP16, literal(-2)))
        CFI (cfiCond105) DPH0 load(1, XDATA, add(CFA_XSP16, literal(-1)))
        CFI (cfiCond105) CFA_SP SP+0
        CFI (cfiCond105) CFA_XSP16 add(XSP16, 34)
        CFI Block cfiCond106 Using cfiCommon0
        CFI (cfiCond106) NoFunction
        CFI (cfiCond106) Conditional ??CrossCallReturnLabel_107
        CFI (cfiCond106) R6 load(1, XDATA, add(CFA_XSP16, literal(-12)))
        CFI (cfiCond106) VB load(1, XDATA, add(CFA_XSP16, literal(-11)))
        CFI (cfiCond106) V0 load(1, XDATA, add(CFA_XSP16, literal(-10)))
        CFI (cfiCond106) V1 load(1, XDATA, add(CFA_XSP16, literal(-9)))
        CFI (cfiCond106) V2 load(1, XDATA, add(CFA_XSP16, literal(-8)))
        CFI (cfiCond106) V3 load(1, XDATA, add(CFA_XSP16, literal(-7)))
        CFI (cfiCond106) R7 load(1, XDATA, add(CFA_XSP16, literal(-6)))
        CFI (cfiCond106) ?RET_LOW load(1, XDATA, add(CFA_XSP16, literal(-5)))
        CFI (cfiCond106) ?RET_HIGH load(1, XDATA, add(CFA_XSP16, literal(-4)))
        CFI (cfiCond106) ?BRET_EXT load(1, XDATA, add(CFA_XSP16, literal(-3)))
        CFI (cfiCond106) DPL0 load(1, XDATA, add(CFA_XSP16, literal(-2)))
        CFI (cfiCond106) DPH0 load(1, XDATA, add(CFA_XSP16, literal(-1)))
        CFI (cfiCond106) CFA_SP SP+0
        CFI (cfiCond106) CFA_XSP16 add(XSP16, 22)
        CFI Block cfiCond107 Using cfiCommon0
        CFI (cfiCond107) NoFunction
        CFI (cfiCond107) Conditional ??CrossCallReturnLabel_108
        CFI (cfiCond107) R6 load(1, XDATA, add(CFA_XSP16, literal(-24)))
        CFI (cfiCond107) VB load(1, XDATA, add(CFA_XSP16, literal(-23)))
        CFI (cfiCond107) V0 load(1, XDATA, add(CFA_XSP16, literal(-22)))
        CFI (cfiCond107) V1 load(1, XDATA, add(CFA_XSP16, literal(-21)))
        CFI (cfiCond107) V2 load(1, XDATA, add(CFA_XSP16, literal(-20)))
        CFI (cfiCond107) V3 load(1, XDATA, add(CFA_XSP16, literal(-19)))
        CFI (cfiCond107) V4 load(1, XDATA, add(CFA_XSP16, literal(-18)))
        CFI (cfiCond107) V5 load(1, XDATA, add(CFA_XSP16, literal(-17)))
        CFI (cfiCond107) V6 load(1, XDATA, add(CFA_XSP16, literal(-16)))
        CFI (cfiCond107) V7 load(1, XDATA, add(CFA_XSP16, literal(-15)))
        CFI (cfiCond107) V8 load(1, XDATA, add(CFA_XSP16, literal(-14)))
        CFI (cfiCond107) V9 load(1, XDATA, add(CFA_XSP16, literal(-13)))
        CFI (cfiCond107) V10 load(1, XDATA, add(CFA_XSP16, literal(-12)))
        CFI (cfiCond107) V11 load(1, XDATA, add(CFA_XSP16, literal(-11)))
        CFI (cfiCond107) V12 load(1, XDATA, add(CFA_XSP16, literal(-10)))
        CFI (cfiCond107) V13 load(1, XDATA, add(CFA_XSP16, literal(-9)))
        CFI (cfiCond107) V14 load(1, XDATA, add(CFA_XSP16, literal(-8)))
        CFI (cfiCond107) V15 load(1, XDATA, add(CFA_XSP16, literal(-7)))
        CFI (cfiCond107) R7 load(1, XDATA, add(CFA_XSP16, literal(-6)))
        CFI (cfiCond107) ?RET_LOW load(1, XDATA, add(CFA_XSP16, literal(-5)))
        CFI (cfiCond107) ?RET_HIGH load(1, XDATA, add(CFA_XSP16, literal(-4)))
        CFI (cfiCond107) ?BRET_EXT load(1, XDATA, add(CFA_XSP16, literal(-3)))
        CFI (cfiCond107) DPL0 load(1, XDATA, add(CFA_XSP16, literal(-2)))
        CFI (cfiCond107) DPH0 load(1, XDATA, add(CFA_XSP16, literal(-1)))
        CFI (cfiCond107) CFA_SP SP+0
        CFI (cfiCond107) CFA_XSP16 add(XSP16, 37)
        CFI Block cfiCond108 Using cfiCommon0
        CFI (cfiCond108) NoFunction
        CFI (cfiCond108) Conditional ??CrossCallReturnLabel_109
        CFI (cfiCond108) R6 load(1, XDATA, add(CFA_XSP16, literal(-24)))
        CFI (cfiCond108) VB load(1, XDATA, add(CFA_XSP16, literal(-23)))
        CFI (cfiCond108) V0 load(1, XDATA, add(CFA_XSP16, literal(-22)))
        CFI (cfiCond108) V1 load(1, XDATA, add(CFA_XSP16, literal(-21)))
        CFI (cfiCond108) V2 load(1, XDATA, add(CFA_XSP16, literal(-20)))
        CFI (cfiCond108) V3 load(1, XDATA, add(CFA_XSP16, literal(-19)))
        CFI (cfiCond108) V4 load(1, XDATA, add(CFA_XSP16, literal(-18)))
        CFI (cfiCond108) V5 load(1, XDATA, add(CFA_XSP16, literal(-17)))
        CFI (cfiCond108) V6 load(1, XDATA, add(CFA_XSP16, literal(-16)))
        CFI (cfiCond108) V7 load(1, XDATA, add(CFA_XSP16, literal(-15)))
        CFI (cfiCond108) V8 load(1, XDATA, add(CFA_XSP16, literal(-14)))
        CFI (cfiCond108) V9 load(1, XDATA, add(CFA_XSP16, literal(-13)))
        CFI (cfiCond108) V10 load(1, XDATA, add(CFA_XSP16, literal(-12)))
        CFI (cfiCond108) V11 load(1, XDATA, add(CFA_XSP16, literal(-11)))
        CFI (cfiCond108) V12 load(1, XDATA, add(CFA_XSP16, literal(-10)))
        CFI (cfiCond108) V13 load(1, XDATA, add(CFA_XSP16, literal(-9)))
        CFI (cfiCond108) V14 load(1, XDATA, add(CFA_XSP16, literal(-8)))
        CFI (cfiCond108) V15 load(1, XDATA, add(CFA_XSP16, literal(-7)))
        CFI (cfiCond108) R7 load(1, XDATA, add(CFA_XSP16, literal(-6)))
        CFI (cfiCond108) ?RET_LOW load(1, XDATA, add(CFA_XSP16, literal(-5)))
        CFI (cfiCond108) ?RET_HIGH load(1, XDATA, add(CFA_XSP16, literal(-4)))
        CFI (cfiCond108) ?BRET_EXT load(1, XDATA, add(CFA_XSP16, literal(-3)))
        CFI (cfiCond108) DPL0 load(1, XDATA, add(CFA_XSP16, literal(-2)))
        CFI (cfiCond108) DPH0 load(1, XDATA, add(CFA_XSP16, literal(-1)))
        CFI (cfiCond108) CFA_SP SP+0
        CFI (cfiCond108) CFA_XSP16 add(XSP16, 37)
        CFI Block cfiCond109 Using cfiCommon0
        CFI (cfiCond109) NoFunction
        CFI (cfiCond109) Conditional ??CrossCallReturnLabel_110
        CFI (cfiCond109) R6 load(1, XDATA, add(CFA_XSP16, literal(-16)))
        CFI (cfiCond109) VB load(1, XDATA, add(CFA_XSP16, literal(-15)))
        CFI (cfiCond109) V0 load(1, XDATA, add(CFA_XSP16, literal(-14)))
        CFI (cfiCond109) V1 load(1, XDATA, add(CFA_XSP16, literal(-13)))
        CFI (cfiCond109) V2 load(1, XDATA, add(CFA_XSP16, literal(-12)))
        CFI (cfiCond109) V3 load(1, XDATA, add(CFA_XSP16, literal(-11)))
        CFI (cfiCond109) V4 load(1, XDATA, add(CFA_XSP16, literal(-10)))
        CFI (cfiCond109) V5 load(1, XDATA, add(CFA_XSP16, literal(-9)))
        CFI (cfiCond109) V6 load(1, XDATA, add(CFA_XSP16, literal(-8)))
        CFI (cfiCond109) V7 load(1, XDATA, add(CFA_XSP16, literal(-7)))
        CFI (cfiCond109) R7 load(1, XDATA, add(CFA_XSP16, literal(-6)))
        CFI (cfiCond109) ?RET_LOW load(1, XDATA, add(CFA_XSP16, literal(-5)))
        CFI (cfiCond109) ?RET_HIGH load(1, XDATA, add(CFA_XSP16, literal(-4)))
        CFI (cfiCond109) ?BRET_EXT load(1, XDATA, add(CFA_XSP16, literal(-3)))
        CFI (cfiCond109) DPL0 load(1, XDATA, add(CFA_XSP16, literal(-2)))
        CFI (cfiCond109) DPH0 load(1, XDATA, add(CFA_XSP16, literal(-1)))
        CFI (cfiCond109) CFA_SP SP+0
        CFI (cfiCond109) CFA_XSP16 add(XSP16, 18)
        CFI Block cfiCond110 Using cfiCommon0
        CFI (cfiCond110) NoFunction
        CFI (cfiCond110) Conditional ??CrossCallReturnLabel_93
        CFI (cfiCond110) R6 load(1, XDATA, add(CFA_XSP16, literal(-18)))
        CFI (cfiCond110) VB load(1, XDATA, add(CFA_XSP16, literal(-17)))
        CFI (cfiCond110) V0 load(1, XDATA, add(CFA_XSP16, literal(-16)))
        CFI (cfiCond110) V1 load(1, XDATA, add(CFA_XSP16, literal(-15)))
        CFI (cfiCond110) V2 load(1, XDATA, add(CFA_XSP16, literal(-14)))
        CFI (cfiCond110) V3 load(1, XDATA, add(CFA_XSP16, literal(-13)))
        CFI (cfiCond110) V4 load(1, XDATA, add(CFA_XSP16, literal(-12)))
        CFI (cfiCond110) V5 load(1, XDATA, add(CFA_XSP16, literal(-11)))
        CFI (cfiCond110) V6 load(1, XDATA, add(CFA_XSP16, literal(-10)))
        CFI (cfiCond110) V7 load(1, XDATA, add(CFA_XSP16, literal(-9)))
        CFI (cfiCond110) V8 load(1, XDATA, add(CFA_XSP16, literal(-8)))
        CFI (cfiCond110) V9 load(1, XDATA, add(CFA_XSP16, literal(-7)))
        CFI (cfiCond110) R7 load(1, XDATA, add(CFA_XSP16, literal(-6)))
        CFI (cfiCond110) ?RET_LOW load(1, XDATA, add(CFA_XSP16, literal(-5)))
        CFI (cfiCond110) ?RET_HIGH load(1, XDATA, add(CFA_XSP16, literal(-4)))
        CFI (cfiCond110) ?BRET_EXT load(1, XDATA, add(CFA_XSP16, literal(-3)))
        CFI (cfiCond110) DPL0 load(1, XDATA, add(CFA_XSP16, literal(-2)))
        CFI (cfiCond110) DPH0 load(1, XDATA, add(CFA_XSP16, literal(-1)))
        CFI (cfiCond110) CFA_SP SP+0
