###############################################################################
#                                                                             #
# IAR C/C++ Compiler V8.10.1.10194/W32 for 8051         13/Jul/2015  14:03:56 #
# Copyright 2004-2011 IAR Systems AB.                                         #
#                                                                             #
#    Core               =  plain                                              #
#    Code model         =  banked                                             #
#    Data model         =  large                                              #
#    Calling convention =  xdata reentrant                                    #
#    Constant location  =  data_rom                                           #
#    Dptr setup         =  1,16                                               #
#    Source file        =  C:\Texas Instruments\ZStack-CC2530-2.5.1a\Projects #
#                          \zstack\Utilities\Transmit\Source\TransmitApp.c    #
#    Command line       =  -f "C:\Texas Instruments\ZStack-CC2530-2.5.1a\Proj #
#                          ects\zstack\Utilities\Transmit\CC2530DB\..\..\..\T #
#                          ools\CC2530DB\f8wCoord.cfg" (-DCPU32MHZ            #
#                          -DROOT=__near_func -DMAC_CFG_APP_PENDING_QUEUE=TRU #
#                          E -DMAC_CFG_TX_DATA_MAX=5 -DMAC_CFG_TX_MAX=8       #
#                          -DMAC_CFG_RX_MAX=5 -DZDO_COORDINATOR -DRTR_NWK)    #
#                          -f "C:\Texas Instruments\ZStack-CC2530-2.5.1a\Proj #
#                          ects\zstack\Utilities\Transmit\CC2530DB\..\..\..\T #
#                          ools\CC2530DB\f8wConfig.cfg" (-DZIGBEEPRO          #
#                          -DSECURE=0 -DZG_SECURE_DYNAMIC=0 -DREFLECTOR       #
#                          -DDEFAULT_CHANLIST=0x00000800                      #
#                          -DZDAPP_CONFIG_PAN_ID=0xFFFF                       #
#                          -DNWK_START_DELAY=100 -DEXTENDED_JOINING_RANDOM_MA #
#                          SK=0x007F -DBEACON_REQUEST_DELAY=100               #
#                          -DBEACON_REQ_DELAY_MASK=0x00FF                     #
#                          -DLINK_STATUS_JITTER_MASK=0x007F                   #
#                          -DROUTE_EXPIRY_TIME=30 -DAPSC_ACK_WAIT_DURATION_PO #
#                          LLED=3000 -DNWK_INDIRECT_MSG_TIMEOUT=7             #
#                          -DMAX_RREQ_ENTRIES=8 -DAPSC_MAX_FRAME_RETRIES=3    #
#                          -DNWK_MAX_DATA_RETRIES=2                           #
#                          -DMAX_POLL_FAILURE_RETRIES=2 -DMAX_BCAST=9         #
#                          -DAPS_MAX_GROUPS=16 -DMAX_RTG_ENTRIES=40           #
#                          -DNWK_MAX_BINDING_ENTRIES=4                        #
#                          -DMAX_BINDING_CLUSTER_IDS=4 "-DDEFAULT_KEY={0x01,  #
#                          0x03, 0x05, 0x07, 0x09, 0x0B, 0x0D, 0x0F, 0x00,    #
#                          0x02, 0x04, 0x06, 0x08, 0x0A, 0x0C, 0x0D}"         #
#                          -DMAC_MAX_FRAME_SIZE=116                           #
#                          -DZDNWKMGR_MIN_TRANSMISSIONS=20 "-DCONST=const     #
#                          __code" -DGENERIC=__generic                        #
#                          -DRFD_RCVC_ALWAYS_ON=FALSE -DPOLL_RATE=500         #
#                          -DQUEUED_POLL_RATE=30 -DRESPONSE_POLL_RATE=100)    #
#                          -DREJOIN_POLL_RATE=440 "C:\Texas                   #
#                          Instruments\ZStack-CC2530-2.5.1a\Projects\zstack\U #
#                          tilities\Transmit\Source\TransmitApp.c" -D         #
#                          MT_TASK -D ZTOOL_P1 -D MT_SYS_FUNC -D MT_ZDO_FUNC  #
#                          -D LCD_SUPPORTED=DEBUG -D                          #
#                          ZDNWKMGR_MIN_TRANSMISSIONS=0 -lC "C:\Texas         #
#                          Instruments\ZStack-CC2530-2.5.1a\Projects\zstack\U #
#                          tilities\Transmit\CC2530DB\CoordinatorEB\List\"    #
#                          -lA "C:\Texas Instruments\ZStack-CC2530-2.5.1a\Pro #
#                          jects\zstack\Utilities\Transmit\CC2530DB\Coordinat #
#                          orEB\List\" --diag_suppress Pe001,Pa010 -o         #
#                          "C:\Texas Instruments\ZStack-CC2530-2.5.1a\Project #
#                          s\zstack\Utilities\Transmit\CC2530DB\CoordinatorEB #
#                          \Obj\" -e --no_code_motion --debug --core=plain    #
#                          --dptr=16,1 --data_model=large                     #
#                          --code_model=banked --calling_convention=xdata_ree #
#                          ntrant --place_constants=data_rom                  #
#                          --nr_virtual_regs 16 -I "C:\Texas                  #
#                          Instruments\ZStack-CC2530-2.5.1a\Projects\zstack\U #
#                          tilities\Transmit\CC2530DB\" -I "C:\Texas          #
#                          Instruments\ZStack-CC2530-2.5.1a\Projects\zstack\U #
#                          tilities\Transmit\CC2530DB\..\Source\" -I          #
#                          "C:\Texas Instruments\ZStack-CC2530-2.5.1a\Project #
#                          s\zstack\Utilities\Transmit\CC2530DB\..\..\..\ZMai #
#                          n\TI2530DB\" -I "C:\Texas                          #
#                          Instruments\ZStack-CC2530-2.5.1a\Projects\zstack\U #
#                          tilities\Transmit\CC2530DB\..\..\..\..\..\Componen #
#                          ts\hal\include\" -I "C:\Texas                      #
#                          Instruments\ZStack-CC2530-2.5.1a\Projects\zstack\U #
#                          tilities\Transmit\CC2530DB\..\..\..\..\..\Componen #
#                          ts\hal\target\CC2530EB\" -I "C:\Texas              #
#                          Instruments\ZStack-CC2530-2.5.1a\Projects\zstack\U #
#                          tilities\Transmit\CC2530DB\..\..\..\..\..\Componen #
#                          ts\mac\include\" -I "C:\Texas                      #
#                          Instruments\ZStack-CC2530-2.5.1a\Projects\zstack\U #
#                          tilities\Transmit\CC2530DB\..\..\..\..\..\Componen #
#                          ts\mac\high_level\" -I "C:\Texas                   #
#                          Instruments\ZStack-CC2530-2.5.1a\Projects\zstack\U #
#                          tilities\Transmit\CC2530DB\..\..\..\..\..\Componen #
#                          ts\mac\low_level\srf04\" -I "C:\Texas              #
#                          Instruments\ZStack-CC2530-2.5.1a\Projects\zstack\U #
#                          tilities\Transmit\CC2530DB\..\..\..\..\..\Componen #
#                          ts\mac\low_level\srf04\single_chip\" -I "C:\Texas  #
#                          Instruments\ZStack-CC2530-2.5.1a\Projects\zstack\U #
#                          tilities\Transmit\CC2530DB\..\..\..\..\..\Componen #
#                          ts\mt\" -I "C:\Texas Instruments\ZStack-CC2530-2.5 #
#                          .1a\Projects\zstack\Utilities\Transmit\CC2530DB\.. #
#                          \..\..\..\..\Components\osal\include\" -I          #
#                          "C:\Texas Instruments\ZStack-CC2530-2.5.1a\Project #
#                          s\zstack\Utilities\Transmit\CC2530DB\..\..\..\..\. #
#                          .\Components\services\saddr\" -I "C:\Texas         #
#                          Instruments\ZStack-CC2530-2.5.1a\Projects\zstack\U #
#                          tilities\Transmit\CC2530DB\..\..\..\..\..\Componen #
#                          ts\services\sdata\" -I "C:\Texas                   #
#                          Instruments\ZStack-CC2530-2.5.1a\Projects\zstack\U #
#                          tilities\Transmit\CC2530DB\..\..\..\..\..\Componen #
#                          ts\stack\af\" -I "C:\Texas                         #
#                          Instruments\ZStack-CC2530-2.5.1a\Projects\zstack\U #
#                          tilities\Transmit\CC2530DB\..\..\..\..\..\Componen #
#                          ts\stack\nwk\" -I "C:\Texas                        #
#                          Instruments\ZStack-CC2530-2.5.1a\Projects\zstack\U #
#                          tilities\Transmit\CC2530DB\..\..\..\..\..\Componen #
#                          ts\stack\sapi\" -I "C:\Texas                       #
#                          Instruments\ZStack-CC2530-2.5.1a\Projects\zstack\U #
#                          tilities\Transmit\CC2530DB\..\..\..\..\..\Componen #
#                          ts\stack\sec\" -I "C:\Texas                        #
#                          Instruments\ZStack-CC2530-2.5.1a\Projects\zstack\U #
#                          tilities\Transmit\CC2530DB\..\..\..\..\..\Componen #
#                          ts\stack\sys\" -I "C:\Texas                        #
#                          Instruments\ZStack-CC2530-2.5.1a\Projects\zstack\U #
#                          tilities\Transmit\CC2530DB\..\..\..\..\..\Componen #
#                          ts\stack\zdo\" -I "C:\Texas                        #
#                          Instruments\ZStack-CC2530-2.5.1a\Projects\zstack\U #
#                          tilities\Transmit\CC2530DB\..\..\..\..\..\Componen #
#                          ts\zmac\" -I "C:\Texas Instruments\ZStack-CC2530-2 #
#                          .5.1a\Projects\zstack\Utilities\Transmit\CC2530DB\ #
#                          ..\..\..\..\..\Components\zmac\f8w\" -Ohz          #
#                          --require_prototypes                               #
#    List file          =  C:\Texas Instruments\ZStack-CC2530-2.5.1a\Projects #
#                          \zstack\Utilities\Transmit\CC2530DB\CoordinatorEB\ #
#                          List\TransmitApp.lst                               #
#    Object file        =  C:\Texas Instruments\ZStack-CC2530-2.5.1a\Projects #
#                          \zstack\Utilities\Transmit\CC2530DB\CoordinatorEB\ #
#                          Obj\TransmitApp.r51                                #
#                                                                             #
#                                                                             #
###############################################################################

C:\Texas Instruments\ZStack-CC2530-2.5.1a\Projects\zstack\Utilities\Transmit\Source\TransmitApp.c
      1          /**************************************************************************************************
      2            Filename:       TransmitApp.c
      3            Revised:        $Date: 2012-03-05 09:54:49 -0800 (Mon, 05 Mar 2012) $
      4            Revision:       $Revision: 29619 $
      5          
      6            Description:    Transmit Application (no Profile).
      7          
      8          
      9            Copyright 2004-2012 Texas Instruments Incorporated. All rights reserved.
     10          
     11            IMPORTANT: Your use of this Software is limited to those specific rights
     12            granted under the terms of a software license agreement between the user
     13            who downloaded the software, his/her employer (which must be your employer)
     14            and Texas Instruments Incorporated (the "License"). You may not use this
     15            Software unless you agree to abide by the terms of the License. The License
     16            limits your use, and you acknowledge, that the Software may not be modified,
     17            copied or distributed unless embedded on a Texas Instruments microcontroller
     18            or used solely and exclusively in conjunction with a Texas Instruments radio
     19            frequency transceiver, which is integrated into your product. Other than for
     20            the foregoing purpose, you may not use, reproduce, copy, prepare derivative
     21            works of, modify, distribute, perform, display or sell this Software and/or
     22            its documentation for any purpose.
     23          
     24            YOU FURTHER ACKNOWLEDGE AND AGREE THAT THE SOFTWARE AND DOCUMENTATION ARE
     25            PROVIDED “AS IS?WITHOUT WARRANTY OF ANY KIND, EITHER EXPRESS OR IMPLIED,
     26            INCLUDING WITHOUT LIMITATION, ANY WARRANTY OF MERCHANTABILITY, TITLE,
     27            NON-INFRINGEMENT AND FITNESS FOR A PARTICULAR PURPOSE. IN NO EVENT SHALL
     28            TEXAS INSTRUMENTS OR ITS LICENSORS BE LIABLE OR OBLIGATED UNDER CONTRACT,
     29            NEGLIGENCE, STRICT LIABILITY, CONTRIBUTION, BREACH OF WARRANTY, OR OTHER
     30            LEGAL EQUITABLE THEORY ANY DIRECT OR INDIRECT DAMAGES OR EXPENSES
     31            INCLUDING BUT NOT LIMITED TO ANY INCIDENTAL, SPECIAL, INDIRECT, PUNITIVE
     32            OR CONSEQUENTIAL DAMAGES, LOST PROFITS OR LOST DATA, COST OF PROCUREMENT
     33            OF SUBSTITUTE GOODS, TECHNOLOGY, SERVICES, OR ANY CLAIMS BY THIRD PARTIES
     34            (INCLUDING BUT NOT LIMITED TO ANY DEFENSE THEREOF), OR OTHER SIMILAR COSTS.
     35          
     36            Should you have any questions regarding your right to use this Software,
     37            contact Texas Instruments Incorporated at www.TI.com.
     38          **************************************************************************************************/
     39          
     40          /*********************************************************************
     41            This application will send a data packet to another
     42            tranmitApp device as fast as it can.  The receiving
     43            transmitApp device will calculate the following transmit
     44            rate statistics:
     45              - Number bytes in the last second
     46              - Number of seconds running
     47              - Average number of bytes per second
     48              - Number of packets received.
     49          
     50            The application will send one message and as soon as it
     51            receives the confirmation for that message it will send
     52            the next message.
     53          
     54            If you would like a delay between messages
     55            define TRANSMITAPP_DELAY_SEND and set the delay amount
     56            in TRANSMITAPP_SEND_DELAY.
     57          
     58            TransmitApp_MaxDataLength defines the message size
     59          
     60            Set TRANSMITAPP_TX_OPTIONS to AF_MSG_ACK_REQUEST to send
     61            the message expecting an APS ACK, this will decrease your
     62            throughput.  Set TRANSMITAPP_TX_OPTIONS to 0 for no
     63            APS ACK.
     64          
     65            This applications doesn't have a profile, so it handles
     66            everything directly - itself.
     67          
     68            Key control:
     69              SW1:  Starts and stops the transmitting
     70              SW2:  initiates end device binding
     71              SW3:  Resets the display totals
     72              SW4:  initiates a match description request
     73          
     74            Notes:
     75          
     76              This application was intended to be used to test the maximum
     77              throughput between 2 devices in a network - between routers
     78              coordinators.
     79          
     80              Although not recommended, it can be used between
     81              an end device and a router (or coordinator), but you must
     82              enable the delay feature (TRANSMITAPP_DELAY_SEND and
     83              TRANSMITAPP_SEND_DELAY).  If you don't include the delay, the
     84              end device can't receive messages because it will stop polling.
     85              Also, the delay must be greater than RESPONSE_POLL_RATE (default 100 MSec).
     86          *********************************************************************/
     87          
     88          /*********************************************************************
     89           * INCLUDES
     90           */
     91          #include "OSAL.h"
     92          #include "AF.h"
     93          #include "ZDObject.h"
     94          #include "ZDProfile.h"
     95          
     96          #include "TransmitApp.h"
     97          #include "OnBoard.h"
     98          
     99          #include "DebugTrace.h"
    100          
    101          /* HAL */
    102          #include "hal_lcd.h"
    103          #include "hal_led.h"
    104          #include "hal_key.h"
    105          #include "hal_uart.h"
    106          
    107          /*********************************************************************
    108           * MACROS
    109           */
    110          
    111          /*********************************************************************
    112           * CONSTANTS
    113           */
    114          //#define TRANSMITAPP_RANDOM_LEN
    115          
    116          #define TRANSMITAPP_STATE_WAITING 0
    117          #define TRANSMITAPP_STATE_SENDING 1
    118          
    119          #if !defined ( RTR_NWK )
    120            // Use these 2 lines to add a delay between each packet sent
    121            //  - default for end devices
    122            #define TRANSMITAPP_DELAY_SEND
    123            #define TRANSMITAPP_SEND_DELAY    (RESPONSE_POLL_RATE * 2)  // in MSecs
    124          #endif
    125          
    126          // Send with or without APS ACKs
    127          //#define TRANSMITAPP_TX_OPTIONS    (AF_DISCV_ROUTE | AF_ACK_REQUEST)
    128          #define TRANSMITAPP_TX_OPTIONS    AF_DISCV_ROUTE
    129          
    130          #define TRANSMITAPP_INITIAL_MSG_COUNT  2
    131          
    132          #define TRANSMITAPP_TRANSMIT_TIME   4  // 4 MS
    133          #define TRANSMITAPP_DISPLAY_TIMER   (2 * 1000)
    134          
    135          #if defined ( TRANSMITAPP_FRAGMENTED )
    136          #define TRANSMITAPP_MAX_DATA_LEN    225
    137          #else
    138          #define TRANSMITAPP_MAX_DATA_LEN    102
    139          #endif
    140          
    141          /*********************************************************************
    142           * TYPEDEFS
    143           */
    144          
    145          /*********************************************************************
    146           * GLOBAL VARIABLES
    147           */
    148          
    149          // This is the buffer that is sent out as data.

   \                                 In  segment XDATA_Z, align 1, keep-with-next
    150          byte TransmitApp_Msg[ TRANSMITAPP_MAX_DATA_LEN ];
   \                     TransmitApp_Msg:
   \   000000                DS 102
   \   000066                REQUIRE __INIT_XDATA_Z
    151          
    152          // This is the Cluster ID List and should be filled with Application
    153          // specific cluster IDs.

   \                                 In  segment XDATA_ROM_C, align 1
    154          const cId_t TransmitApp_ClusterList[TRANSMITAPP_MAX_CLUSTERS] =
   \                     TransmitApp_ClusterList:
   \   000000   0100         DW 1
    155          {
    156            TRANSMITAPP_CLUSTERID_TESTMSG  // MSG Cluster ID
    157          };
    158          

   \                                 In  segment XDATA_ROM_C, align 1
    159          const SimpleDescriptionFormat_t TransmitApp_SimpleDesc =
   \                     TransmitApp_SimpleDesc:
   \   000000   01           DB 1
   \   000001   050F         DW 3845
   \   000003   0100         DW 1
   \   000005   00           DB 0
   \   000006   01           DB 1
   \   000007   ....         DW TransmitApp_ClusterList
   \   000009   01           DB 1
   \   00000A   ....         DW TransmitApp_ClusterList
    160          {
    161            TRANSMITAPP_ENDPOINT,              //  int    Endpoint;
    162            TRANSMITAPP_PROFID,                //  uint16 AppProfId[2];
    163            TRANSMITAPP_DEVICEID,              //  uint16 AppDeviceId[2];
    164            TRANSMITAPP_DEVICE_VERSION,        //  int    AppDevVer:4;
    165            TRANSMITAPP_FLAGS,                 //  int    AppFlags:4;
    166            TRANSMITAPP_MAX_CLUSTERS,          //  byte   AppNumInClusters;
    167            (cId_t *)TransmitApp_ClusterList,  //  byte   *pAppInClusterList;
    168            TRANSMITAPP_MAX_CLUSTERS,          //  byte   AppNumInClusters;
    169            (cId_t *)TransmitApp_ClusterList   //  byte   *pAppInClusterList;
    170          };
    171          
    172          // This is the Endpoint/Interface description.  It is defined here, but
    173          // filled-in in TransmitApp_Init().  Another way to go would be to fill
    174          // in the structure here and make it a "const" (in code space).  The
    175          // way it's defined in this sample app it is define in RAM.

   \                                 In  segment XDATA_Z, align 1, keep-with-next
    176          endPointDesc_t TransmitApp_epDesc;
   \                     TransmitApp_epDesc:
   \   000000                DS 6
   \   000006                REQUIRE __INIT_XDATA_Z
    177          
    178          /*********************************************************************
    179           * EXTERNAL VARIABLES
    180           */
    181          
    182          /*********************************************************************
    183           * EXTERNAL FUNCTIONS
    184           */
    185          
    186          /*********************************************************************
    187           * LOCAL VARIABLES
    188           */
    189          
    190          // Task ID for event processing - received when TransmitApp_Init() is called.

   \                                 In  segment XDATA_Z, align 1, keep-with-next
    191          byte TransmitApp_TaskID;
   \                     TransmitApp_TaskID:
   \   000000                DS 1
   \   000001                REQUIRE __INIT_XDATA_Z
    192          

   \                                 In  segment XDATA_Z, align 1, keep-with-next
    193          devStates_t TransmitApp_NwkState;
   \                     TransmitApp_NwkState:
   \   000000                DS 1
   \   000001                REQUIRE __INIT_XDATA_Z
    194          

   \                                 In  segment XDATA_Z, align 1, keep-with-next
    195          static byte TransmitApp_TransID;  // This is the unique message ID (counter)
   \                     TransmitApp_TransID:
   \   000000                DS 1
   \   000001                REQUIRE __INIT_XDATA_Z
    196          

   \                                 In  segment XDATA_Z, align 1, keep-with-next
    197          afAddrType_t TransmitApp_DstAddr;
   \                     TransmitApp_DstAddr:
   \   000000                DS 12
   \   00000C                REQUIRE __INIT_XDATA_Z
    198          

   \                                 In  segment XDATA_Z, align 1, keep-with-next
    199          byte TransmitApp_State;
   \                     TransmitApp_State:
   \   000000                DS 1
   \   000001                REQUIRE __INIT_XDATA_Z
    200          
    201          // Shadow of the OSAL system clock used for calculating actual time expired.

   \                                 In  segment XDATA_Z, align 1, keep-with-next
    202          static uint32 clkShdw;
   \                     clkShdw:
   \   000000                DS 4
   \   000004                REQUIRE __INIT_XDATA_Z
    203          // Running total count of test messages recv/sent since beginning current run.

   \                                 In  segment XDATA_Z, align 1, keep-with-next
    204          static uint32 rxTotal, txTotal;
   \                     rxTotal:
   \   000000                DS 4
   \   000004                REQUIRE __INIT_XDATA_Z

   \                                 In  segment XDATA_Z, align 1, keep-with-next
   \                     txTotal:
   \   000000                DS 4
   \   000004                REQUIRE __INIT_XDATA_Z
    205          // Running count of test messages recv/sent since last display / update - 1 Hz.

   \                                 In  segment XDATA_Z, align 1, keep-with-next
    206          static uint32 rxAccum, txAccum;
   \                     rxAccum:
   \   000000                DS 4
   \   000004                REQUIRE __INIT_XDATA_Z

   \                                 In  segment XDATA_Z, align 1, keep-with-next
   \                     txAccum:
   \   000000                DS 4
   \   000004                REQUIRE __INIT_XDATA_Z
    207          

   \                                 In  segment XDATA_Z, align 1, keep-with-next
    208          static byte timerOn;
   \                     timerOn:
   \   000000                DS 1
   \   000001                REQUIRE __INIT_XDATA_Z
    209          

   \                                 In  segment XDATA_Z, align 1, keep-with-next
    210          static byte timesToSend;
   \                     timesToSend:
   \   000000                DS 1
   \   000001                REQUIRE __INIT_XDATA_Z
    211          

   \                                 In  segment XDATA_Z, align 1, keep-with-next
    212          uint16 pktCounter;
   \                     pktCounter:
   \   000000                DS 2
   \   000002                REQUIRE __INIT_XDATA_Z
    213          
    214          // Max Data Request Length

   \                                 In  segment XDATA_Z, align 1, keep-with-next
    215          uint16 TransmitApp_MaxDataLength;
   \                     TransmitApp_MaxDataLength:
   \   000000                DS 2
   \   000002                REQUIRE __INIT_XDATA_Z
    216          
    217          /*********************************************************************
    218           * LOCAL FUNCTIONS
    219           */
    220          void TransmitApp_ProcessZDOMsgs( zdoIncomingMsg_t *inMsg );
    221          void TransmitApp_HandleKeys( byte shift, byte keys );
    222          void TransmitApp_MessageMSGCB( afIncomingMSGPacket_t *pckt );
    223          void TransmitApp_SendTheMessage( void );
    224          void TransmitApp_ChangeState( void );
    225          
    226          /*********************************************************************
    227           * NETWORK LAYER CALLBACKS
    228           */
    229          
    230          /*********************************************************************
    231           * PUBLIC FUNCTIONS
    232           */
    233          void TransmitApp_DisplayResults( void );
    234          
    235          /*********************************************************************
    236           * @fn      TransmitApp_Init
    237           *
    238           * @brief   Initialization function for the Generic App Task.
    239           *          This is called during initialization and should contain
    240           *          any application specific initialization (ie. hardware
    241           *          initialization/setup, table initialization, power up
    242           *          notificaiton ... ).
    243           *
    244           * @param   task_id - the ID assigned by OSAL.  This ID should be
    245           *                    used to send messages and set timers.
    246           *
    247           * @return  none
    248           */

   \                                 In  segment BANKED_CODE, align 1, keep-with-next
    249          void TransmitApp_Init( byte task_id )
   \                     TransmitApp_Init:
    250          {
   \   000000   74F7         MOV     A,#-0x9
   \   000002   12....       LCALL   ?BANKED_ENTER_XDATA
   \   000005                ; Saved register size: 9
   \   000005                ; Auto size: 2
   \   000005   74FE         MOV     A,#-0x2
   \   000007   12....       LCALL   ?ALLOC_XSTACK8
   \   00000A   E9           MOV     A,R1
    251          #if !defined ( TRANSMITAPP_FRAGMENTED )
    252            afDataReqMTU_t mtu;
    253          #endif
    254            uint16 i;
    255          
    256            TransmitApp_TaskID = task_id;
   \   00000B   90....       MOV     DPTR,#TransmitApp_TaskID
   \   00000E   F0           MOVX    @DPTR,A
    257            TransmitApp_NwkState = DEV_INIT;
   \   00000F   90....       MOV     DPTR,#TransmitApp_NwkState
   \   000012   7401         MOV     A,#0x1
   \   000014   F0           MOVX    @DPTR,A
    258            TransmitApp_TransID = 0;
   \   000015   90....       MOV     DPTR,#TransmitApp_TransID
   \   000018   E4           CLR     A
   \   000019   F0           MOVX    @DPTR,A
    259          
    260            pktCounter = 0;
   \   00001A   90....       MOV     DPTR,#pktCounter
   \   00001D   F0           MOVX    @DPTR,A
   \   00001E   A3           INC     DPTR
   \   00001F   F0           MOVX    @DPTR,A
    261          
    262            TransmitApp_State = TRANSMITAPP_STATE_WAITING;
   \   000020   90....       MOV     DPTR,#TransmitApp_State
   \   000023   F0           MOVX    @DPTR,A
    263          
    264            // Device hardware initialization can be added here or in main() (Zmain.c).
    265            // If the hardware is application specific - add it here.
    266            // If the hardware is other parts of the device add it in main().
    267          
    268            TransmitApp_DstAddr.addrMode = (afAddrMode_t)AddrNotPresent;
   \   000024   90....       MOV     DPTR,#TransmitApp_DstAddr + 8
   \   000027   F0           MOVX    @DPTR,A
    269            TransmitApp_DstAddr.endPoint = 0;
   \   000028   A3           INC     DPTR
   \   000029   F0           MOVX    @DPTR,A
    270            TransmitApp_DstAddr.addr.shortAddr = 0;
   \   00002A   90....       MOV     DPTR,#TransmitApp_DstAddr
   \   00002D   F0           MOVX    @DPTR,A
   \   00002E   A3           INC     DPTR
   \   00002F   F0           MOVX    @DPTR,A
    271          
    272            // Fill out the endpoint description.
    273            TransmitApp_epDesc.endPoint = TRANSMITAPP_ENDPOINT;
   \   000030   90....       MOV     DPTR,#TransmitApp_epDesc
   \   000033   04           INC     A
   \   000034   F0           MOVX    @DPTR,A
    274            TransmitApp_epDesc.task_id = &TransmitApp_TaskID;
   \   000035   A3           INC     DPTR
   \   000036   74..         MOV     A,#TransmitApp_TaskID & 0xff
   \   000038   F0           MOVX    @DPTR,A
   \   000039   A3           INC     DPTR
   \   00003A   74..         MOV     A,#(TransmitApp_TaskID >> 8) & 0xff
   \   00003C   F0           MOVX    @DPTR,A
    275            TransmitApp_epDesc.simpleDesc
    276                      = (SimpleDescriptionFormat_t *)&TransmitApp_SimpleDesc;
   \   00003D   A3           INC     DPTR
   \   00003E   74..         MOV     A,#TransmitApp_SimpleDesc & 0xff
   \   000040   F0           MOVX    @DPTR,A
   \   000041   A3           INC     DPTR
   \   000042   74..         MOV     A,#(TransmitApp_SimpleDesc >> 8) & 0xff
   \   000044   F0           MOVX    @DPTR,A
    277            TransmitApp_epDesc.latencyReq = noLatencyReqs;
   \   000045   A3           INC     DPTR
   \   000046   E4           CLR     A
   \   000047   F0           MOVX    @DPTR,A
    278          
    279            // Register the endpoint/interface description with the AF
    280            afRegister( &TransmitApp_epDesc );
   \   000048                ; Setup parameters for call to function afRegister
   \   000048   7A..         MOV     R2,#TransmitApp_epDesc & 0xff
   \   00004A   7B..         MOV     R3,#(TransmitApp_epDesc >> 8) & 0xff
   \   00004C   12....       LCALL   ??afRegister?relay
    281          
    282            // Register for all key events - This app will handle all key events
    283            RegisterForKeys( TransmitApp_TaskID );
   \   00004F                ; Setup parameters for call to function RegisterForKeys
   \   00004F   90....       MOV     DPTR,#TransmitApp_TaskID
   \   000052   E0           MOVX    A,@DPTR
   \   000053   F9           MOV     R1,A
   \   000054   12....       LCALL   ??RegisterForKeys?relay
    284          
    285            // Update the display
    286          #if defined ( LCD_SUPPORTED )
    287            HalLcdWriteString( "TransmitApp", HAL_LCD_LINE_2 );
   \   000057                ; Setup parameters for call to function HalLcdWriteString
   \   000057   7902         MOV     R1,#0x2
   \   000059   7A..         MOV     R2,#`?<Constant "TransmitApp">` & 0xff
   \   00005B   7B..         MOV     R3,#(`?<Constant "TransmitApp">` >> 8) & 0xff
   \   00005D   12....       LCALL   ??HalLcdWriteString?relay
    288          #endif
    289          
    290            // Set the data length
    291          #if defined ( TRANSMITAPP_FRAGMENTED )
    292            TransmitApp_MaxDataLength = TRANSMITAPP_MAX_DATA_LEN;
    293          #else
    294            mtu.kvp        = FALSE;
   \   000060   85..82       MOV     DPL,?XSP + 0
   \   000063   85..83       MOV     DPH,?XSP + 1
   \   000066   E4           CLR     A
   \   000067   F0           MOVX    @DPTR,A
    295            mtu.aps.secure = FALSE;
   \   000068   04           INC     A
   \   000069   12....       LCALL   ?XSTACK_DISP0_8
   \   00006C   E4           CLR     A
   \   00006D   12....       LCALL   ?Subroutine3 & 0xFFFF
    296            TransmitApp_MaxDataLength = afDataReqMTU( &mtu );
   \                     ??CrossCallReturnLabel_4:
   \   000070   AA82         MOV     R2,DPL
   \   000072   AB83         MOV     R3,DPH
   \   000074   12....       LCALL   ??afDataReqMTU?relay
   \   000077   E9           MOV     A,R1
   \   000078   90....       MOV     DPTR,#TransmitApp_MaxDataLength
   \   00007B   F0           MOVX    @DPTR,A
   \   00007C   A3           INC     DPTR
   \   00007D   E4           CLR     A
   \   00007E   F0           MOVX    @DPTR,A
    297          #endif
    298          
    299            // Generate the data
    300            for (i=0; i<TransmitApp_MaxDataLength; i++)
   \   00007F   F8           MOV     R0,A
   \   000080   8012         SJMP    ??TransmitApp_Init_0
    301            {
    302              TransmitApp_Msg[i] = (uint8) i;
   \                     ??TransmitApp_Init_1:
   \   000082   74..         MOV     A,#TransmitApp_Msg & 0xff
   \   000084   28           ADD     A,R0
   \   000085   F582         MOV     DPL,A
   \   000087   74..         MOV     A,#(TransmitApp_Msg >> 8) & 0xff
   \   000089   39           ADDC    A,R1
   \   00008A   F583         MOV     DPH,A
   \   00008C   E8           MOV     A,R0
   \   00008D   F0           MOVX    @DPTR,A
    303            }
   \   00008E   2401         ADD     A,#0x1
   \   000090   08           INC     R0
   \   000091   E9           MOV     A,R1
   \   000092   3400         ADDC    A,#0x0
   \                     ??TransmitApp_Init_0:
   \   000094   F9           MOV     R1,A
   \   000095   90....       MOV     DPTR,#TransmitApp_MaxDataLength
   \   000098   12....       LCALL   ?Subroutine6 & 0xFFFF
   \                     ??CrossCallReturnLabel_11:
   \   00009B   40E5         JC      ??TransmitApp_Init_1
    304          
    305            ZDO_RegisterForZDOMsg( TransmitApp_TaskID, End_Device_Bind_rsp );
   \   00009D                ; Setup parameters for call to function ZDO_RegisterForZDOMsg
   \   00009D   7A20         MOV     R2,#0x20
   \   00009F   7B80         MOV     R3,#-0x80
   \   0000A1   90....       MOV     DPTR,#TransmitApp_TaskID
   \   0000A4   E0           MOVX    A,@DPTR
   \   0000A5   F9           MOV     R1,A
   \   0000A6   12....       LCALL   ??ZDO_RegisterForZDOMsg?relay
    306            ZDO_RegisterForZDOMsg( TransmitApp_TaskID, Match_Desc_rsp );
   \   0000A9                ; Setup parameters for call to function ZDO_RegisterForZDOMsg
   \   0000A9   7A06         MOV     R2,#0x6
   \   0000AB   7B80         MOV     R3,#-0x80
   \   0000AD   90....       MOV     DPTR,#TransmitApp_TaskID
   \   0000B0   E0           MOVX    A,@DPTR
   \   0000B1   F9           MOV     R1,A
   \   0000B2   12....       LCALL   ??ZDO_RegisterForZDOMsg?relay
    307          }
   \   0000B5   7402         MOV     A,#0x2
   \   0000B7   12....       LCALL   ?DEALLOC_XSTACK8
   \   0000BA   7F01         MOV     R7,#0x1
   \   0000BC   02....       LJMP    ?BANKED_LEAVE_XDATA

   \                                 In  segment BANKED_CODE, align 1, keep-with-next
   \                     ?Subroutine3:
   \   000000   F0           MOVX    @DPTR,A
   \   000001                ; Setup parameters for call to function afDataReqMTU
   \   000001   85..82       MOV     DPL,?XSP + 0
   \   000004   85..83       MOV     DPH,?XSP + 1
   \   000007   22           RET

   \                                 In  segment BANKED_CODE, align 1, keep-with-next
   \                     ?Subroutine6:
   \   000000   E0           MOVX    A,@DPTR
   \   000001   FA           MOV     R2,A
   \   000002   A3           INC     DPTR
   \   000003   E0           MOVX    A,@DPTR
   \   000004   FB           MOV     R3,A
   \   000005   C3           CLR     C
   \   000006   E8           MOV     A,R0
   \   000007   9A           SUBB    A,R2
   \   000008   E9           MOV     A,R1
   \   000009   9B           SUBB    A,R3
   \   00000A   22           RET
    308          
    309          /*********************************************************************
    310           * @fn      TransmitApp_ProcessEvent
    311           *
    312           * @brief   Generic Application Task event processor.  This function
    313           *          is called to process all events for the task.  Events
    314           *          include timers, messages and any other user defined events.
    315           *
    316           * @param   task_id  - The OSAL assigned task ID.
    317           * @param   events - events to process.  This is a bit map and can
    318           *                   contain more than one event.
    319           *
    320           * @return  none
    321           */

   \                                 In  segment BANKED_CODE, align 1, keep-with-next
    322          UINT16 TransmitApp_ProcessEvent( byte task_id, UINT16 events )
   \                     TransmitApp_ProcessEvent:
    323          {
   \   000000   74F0         MOV     A,#-0x10
   \   000002   12....       LCALL   ?BANKED_ENTER_XDATA
   \   000005                ; Saved register size: 16
   \   000005                ; Auto size: 0
   \   000005   EA           MOV     A,R2
   \   000006   FE           MOV     R6,A
   \   000007   EB           MOV     A,R3
   \   000008   FF           MOV     R7,A
    324            afIncomingMSGPacket_t *MSGpkt;
    325            afDataConfirm_t *afDataConfirm;
    326            (void)task_id;  // Intentionally unreferenced parameter
    327          
    328            // Data Confirmation message fields
    329            ZStatus_t sentStatus;
    330            byte sentEP;
    331          
    332            if ( events & SYS_EVENT_MSG )
   \   000009   5480         ANL     A,#0x80
   \   00000B   7003         JNZ     $+5
   \   00000D   02....       LJMP    ??TransmitApp_ProcessEvent_0 & 0xFFFF
    333            {
    334              MSGpkt = (afIncomingMSGPacket_t *)osal_msg_receive( TransmitApp_TaskID );
   \   000010                ; Setup parameters for call to function osal_msg_receive
   \   000010   800D         SJMP    ??TransmitApp_ProcessEvent_1
    335              while ( MSGpkt )
    336              {
    337                switch ( MSGpkt->hdr.event )
    338                {
    339                  case ZDO_CB_MSG:
    340                    TransmitApp_ProcessZDOMsgs( (zdoIncomingMsg_t *)MSGpkt );
    341                    break;
    342          
    343                  case KEY_CHANGE:
    344                    TransmitApp_HandleKeys( ((keyChange_t *)MSGpkt)->state, ((keyChange_t *)MSGpkt)->keys );
    345                    break;
    346          
    347                  case AF_DATA_CONFIRM_CMD:
    348                    // This message is received as a confirmation of a data packet sent.
    349                    // The status is of ZStatus_t type [defined in ZComDef.h]
    350                    // The message fields are defined in AF.h
    351                    afDataConfirm = (afDataConfirm_t *)MSGpkt;
    352                    sentEP = afDataConfirm->endpoint;
    353                    sentStatus = afDataConfirm->hdr.status;
    354          
    355                    if ( (ZSuccess == sentStatus) &&
    356                         (TransmitApp_epDesc.endPoint == sentEP) )
    357                    {
    358          #if !defined ( TRANSMITAPP_RANDOM_LEN )
    359                      txAccum += TransmitApp_MaxDataLength;
    360          #endif
    361                      if ( !timerOn )
    362                      {
    363                        osal_start_timerEx( TransmitApp_TaskID,TRANSMITAPP_RCVTIMER_EVT,
    364                                                               TRANSMITAPP_DISPLAY_TIMER);
    365                        clkShdw = osal_GetSystemClock();
    366                        timerOn = TRUE;
    367                      }
    368                    }
    369          
    370                    // Action taken when confirmation is received: Send the next message.
    371                    TransmitApp_SetSendEvt();
    372                    break;
    373          
    374                  case AF_INCOMING_MSG_CMD:
    375                    TransmitApp_MessageMSGCB( MSGpkt );
    376                    break;
    377          
    378                  case ZDO_STATE_CHANGE:
    379                    TransmitApp_NwkState = (devStates_t)(MSGpkt->hdr.status);
   \                     ??TransmitApp_ProcessEvent_2:
   \   000012   A3           INC     DPTR
   \   000013   E0           MOVX    A,@DPTR
   \   000014   90....       MOV     DPTR,#TransmitApp_NwkState
   \   000017   F0           MOVX    @DPTR,A
    380                    break;
    381          
    382                  default:
    383                    break;
    384                }
    385          
    386                // Release the memory
    387                osal_msg_deallocate( (uint8 *)MSGpkt );
   \                     ??TransmitApp_ProcessEvent_3:
   \   000018                ; Setup parameters for call to function osal_msg_deallocate
   \   000018   AA..         MOV     R2,?V0 + 0
   \   00001A   AB..         MOV     R3,?V0 + 1
   \   00001C   12....       LCALL   ??osal_msg_deallocate?relay
    388          
    389                // Next
    390                MSGpkt = (afIncomingMSGPacket_t *)osal_msg_receive( TransmitApp_TaskID );
   \   00001F                ; Setup parameters for call to function osal_msg_receive
   \                     ??TransmitApp_ProcessEvent_1:
   \   00001F   90....       MOV     DPTR,#TransmitApp_TaskID
   \   000022   E0           MOVX    A,@DPTR
   \   000023   F9           MOV     R1,A
   \   000024   12....       LCALL   ??osal_msg_receive?relay
   \   000027   8A..         MOV     ?V0 + 0,R2
   \   000029   8B..         MOV     ?V0 + 1,R3
   \   00002B   E5..         MOV     A,?V0 + 0
   \   00002D   45..         ORL     A,?V0 + 1
   \   00002F   7003         JNZ     $+5
   \   000031   02....       LJMP    ??TransmitApp_ProcessEvent_4 & 0xFFFF
   \   000034   85..82       MOV     DPL,?V0 + 0
   \   000037   85..83       MOV     DPH,?V0 + 1
   \   00003A   E0           MOVX    A,@DPTR
   \   00003B   24E6         ADD     A,#-0x1a
   \   00003D   6073         JZ      ??TransmitApp_ProcessEvent_5
   \   00003F   245A         ADD     A,#0x5a
   \   000041   6017         JZ      ??TransmitApp_ProcessEvent_6
   \   000043   24EF         ADD     A,#-0x11
   \   000045   60CB         JZ      ??TransmitApp_ProcessEvent_2
   \   000047   24FE         ADD     A,#-0x2
   \   000049   6006         JZ      ??TransmitApp_ProcessEvent_7
   \   00004B   24D6         ADD     A,#-0x2a
   \   00004D   601F         JZ      ??TransmitApp_ProcessEvent_8
   \   00004F   80C7         SJMP    ??TransmitApp_ProcessEvent_3
   \                     ??TransmitApp_ProcessEvent_7:
   \   000051                ; Setup parameters for call to function TransmitApp_ProcessZDOMsgs
   \   000051   AA..         MOV     R2,?V0 + 0
   \   000053   AB..         MOV     R3,?V0 + 1
   \   000055   12....       LCALL   ??TransmitApp_ProcessZDOMsgs?relay
   \   000058   80BE         SJMP    ??TransmitApp_ProcessEvent_3
   \                     ??TransmitApp_ProcessEvent_6:
   \   00005A                ; Setup parameters for call to function TransmitApp_HandleKeys
   \   00005A   A3           INC     DPTR
   \   00005B   A3           INC     DPTR
   \   00005C   A3           INC     DPTR
   \   00005D   E0           MOVX    A,@DPTR
   \   00005E   FA           MOV     R2,A
   \   00005F   85..82       MOV     DPL,?V0 + 0
   \   000062   85..83       MOV     DPH,?V0 + 1
   \   000065   A3           INC     DPTR
   \   000066   A3           INC     DPTR
   \   000067   E0           MOVX    A,@DPTR
   \   000068   F9           MOV     R1,A
   \   000069   12....       LCALL   ??TransmitApp_HandleKeys?relay
   \   00006C   80AA         SJMP    ??TransmitApp_ProcessEvent_3
   \                     ??TransmitApp_ProcessEvent_8:
   \   00006E   A3           INC     DPTR
   \   00006F   E0           MOVX    A,@DPTR
   \   000070   703A         JNZ     ??TransmitApp_ProcessEvent_9
   \   000072   90....       MOV     DPTR,#TransmitApp_epDesc
   \   000075   E0           MOVX    A,@DPTR
   \   000076   F8           MOV     R0,A
   \   000077   85..82       MOV     DPL,?V0 + 0
   \   00007A   85..83       MOV     DPH,?V0 + 1
   \   00007D   A3           INC     DPTR
   \   00007E   A3           INC     DPTR
   \   00007F   E0           MOVX    A,@DPTR
   \   000080   68           XRL     A,R0
   \   000081   7029         JNZ     ??TransmitApp_ProcessEvent_9
   \   000083   90....       MOV     DPTR,#TransmitApp_MaxDataLength
   \   000086   E0           MOVX    A,@DPTR
   \   000087   F5..         MOV     ?V0 + 4,A
   \   000089   A3           INC     DPTR
   \   00008A   E0           MOVX    A,@DPTR
   \   00008B   F5..         MOV     ?V0 + 5,A
   \   00008D   E4           CLR     A
   \   00008E   F5..         MOV     ?V0 + 6,A
   \   000090   F5..         MOV     ?V0 + 7,A
   \   000092   90....       MOV     DPTR,#txAccum
   \   000095   78..         MOV     R0,#?V0 + 4
   \   000097   12....       LCALL   ?L_ADD_TO_X
   \   00009A   90....       MOV     DPTR,#timerOn
   \   00009D   E0           MOVX    A,@DPTR
   \   00009E   700C         JNZ     ??TransmitApp_ProcessEvent_9
   \   0000A0                ; Setup parameters for call to function osal_start_timerEx
   \   0000A0   12....       LCALL   ?Subroutine4 & 0xFFFF
   \                     ??CrossCallReturnLabel_7:
   \   0000A3   12....       LCALL   ?XSTORE_R2345
   \   0000A6   90....       MOV     DPTR,#timerOn
   \   0000A9   7401         MOV     A,#0x1
   \   0000AB   F0           MOVX    @DPTR,A
   \                     ??TransmitApp_ProcessEvent_9:
   \   0000AC                ; Setup parameters for call to function TransmitApp_SetSendEvt
   \   0000AC   12....       LCALL   ??TransmitApp_SetSendEvt?relay
   \   0000AF   02....       LJMP    ??TransmitApp_ProcessEvent_3 & 0xFFFF
   \                     ??TransmitApp_ProcessEvent_5:
   \   0000B2                ; Setup parameters for call to function TransmitApp_MessageMSGCB
   \   0000B2   AA..         MOV     R2,?V0 + 0
   \   0000B4   AB..         MOV     R3,?V0 + 1
   \   0000B6   12....       LCALL   ??TransmitApp_MessageMSGCB?relay
   \   0000B9   02....       LJMP    ??TransmitApp_ProcessEvent_3 & 0xFFFF
    391              }
    392          
    393              // Squash compiler warnings until values are used.
    394              (void)sentStatus;
    395              (void)sentEP;
    396          
    397              // Return unprocessed events
    398              return (events ^ SYS_EVENT_MSG);
   \                     ??TransmitApp_ProcessEvent_4:
   \   0000BC   EE           MOV     A,R6
   \   0000BD   FA           MOV     R2,A
   \   0000BE   EF           MOV     A,R7
   \   0000BF   6480         XRL     A,#0x80
   \                     ??TransmitApp_ProcessEvent_10:
   \   0000C1   FB           MOV     R3,A
   \   0000C2   8037         SJMP    ??TransmitApp_ProcessEvent_11
    399            }
    400          
    401            // Send a message out
    402            if ( events & TRANSMITAPP_SEND_MSG_EVT )
   \                     ??TransmitApp_ProcessEvent_0:
   \   0000C4   EE           MOV     A,R6
   \   0000C5   A2E0         MOV     C,0xE0 /* A   */.0
   \   0000C7   5012         JNC     ??TransmitApp_ProcessEvent_12
    403            {
    404              if ( TransmitApp_State == TRANSMITAPP_STATE_SENDING )
   \   0000C9   90....       MOV     DPTR,#TransmitApp_State
   \   0000CC   E0           MOVX    A,@DPTR
   \   0000CD   6401         XRL     A,#0x1
   \   0000CF   7003         JNZ     ??TransmitApp_ProcessEvent_13
    405              {
    406                TransmitApp_SendTheMessage();
   \   0000D1                ; Setup parameters for call to function TransmitApp_SendTheMessage
   \   0000D1   12....       LCALL   ??TransmitApp_SendTheMessage?relay
    407              }
    408          
    409              // Return unprocessed events
    410              return (events ^ TRANSMITAPP_SEND_MSG_EVT);
   \                     ??TransmitApp_ProcessEvent_13:
   \   0000D4   EE           MOV     A,R6
   \   0000D5   6401         XRL     A,#0x1
   \                     ??TransmitApp_ProcessEvent_14:
   \   0000D7   FA           MOV     R2,A
   \   0000D8   EF           MOV     A,R7
   \   0000D9   80E6         SJMP    ??TransmitApp_ProcessEvent_10
    411            }
    412          
    413            // Timed wait from error
    414            if ( events & TRANSMITAPP_SEND_ERR_EVT )
   \                     ??TransmitApp_ProcessEvent_12:
   \   0000DB   5404         ANL     A,#0x4
   \   0000DD   6008         JZ      ??TransmitApp_ProcessEvent_15
    415            {
    416              TransmitApp_SetSendEvt();
   \   0000DF                ; Setup parameters for call to function TransmitApp_SetSendEvt
   \   0000DF   12....       LCALL   ??TransmitApp_SetSendEvt?relay
    417          
    418              // Return unprocessed events
    419              return (events ^ TRANSMITAPP_SEND_ERR_EVT);
   \   0000E2   EE           MOV     A,R6
   \   0000E3   6404         XRL     A,#0x4
   \   0000E5   80F0         SJMP    ??TransmitApp_ProcessEvent_14
    420            }
    421          
    422            // Receive timer
    423            if ( events & TRANSMITAPP_RCVTIMER_EVT )
   \                     ??TransmitApp_ProcessEvent_15:
   \   0000E7   EE           MOV     A,R6
   \   0000E8   5402         ANL     A,#0x2
   \   0000EA   600B         JZ      ??TransmitApp_ProcessEvent_16
    424            {
    425              // Setup to display the next result
    426              osal_start_timerEx( TransmitApp_TaskID, TRANSMITAPP_RCVTIMER_EVT,
    427                                                      TRANSMITAPP_DISPLAY_TIMER );
   \   0000EC                ; Setup parameters for call to function osal_start_timerEx
   \   0000EC   12....       LCALL   ?Subroutine10 & 0xFFFF
    428              TransmitApp_DisplayResults();
   \                     ??CrossCallReturnLabel_19:
   \   0000EF                ; Setup parameters for call to function TransmitApp_DisplayResults
   \   0000EF   12....       LCALL   ??TransmitApp_DisplayResults?relay
    429          
    430              return (events ^ TRANSMITAPP_RCVTIMER_EVT);
   \   0000F2   EE           MOV     A,R6
   \   0000F3   6402         XRL     A,#0x2
   \   0000F5   80E0         SJMP    ??TransmitApp_ProcessEvent_14
    431            }
    432          
    433            // Discard unknown events
    434            return 0;
   \                     ??TransmitApp_ProcessEvent_16:
   \   0000F7   7A00         MOV     R2,#0x0
   \   0000F9   7B00         MOV     R3,#0x0
   \                     ??TransmitApp_ProcessEvent_11:
   \   0000FB   7F08         MOV     R7,#0x8
   \   0000FD   02....       LJMP    ?BANKED_LEAVE_XDATA
    435          }

   \                                 In  segment BANKED_CODE, align 1, keep-with-next
   \                     ?Subroutine10:
   \   000000   7CD0         MOV     R4,#-0x30
   \   000002   7D07         MOV     R5,#0x7
   \   000004   7A02         MOV     R2,#0x2
   \   000006                REQUIRE ??Subroutine11_0
   \   000006                ; // Fall through to label ??Subroutine11_0

   \                                 In  segment BANKED_CODE, align 1, keep-with-next
   \                     ??Subroutine11_0:
   \   000000   7B00         MOV     R3,#0x0
   \   000002   90....       MOV     DPTR,#TransmitApp_TaskID
   \   000005   E0           MOVX    A,@DPTR
   \   000006   F9           MOV     R1,A
   \   000007   12....       LCALL   ??osal_start_timerEx?relay
   \   00000A   22           RET

   \                                 In  segment BANKED_CODE, align 1, keep-with-next
   \                     ?Subroutine4:
   \   000000   12....       LCALL   ?Subroutine10 & 0xFFFF
   \                     ??CrossCallReturnLabel_20:
   \   000003                ; Setup parameters for call to function osal_GetSystemClock
   \   000003                ; Setup parameters for call to function osal_GetSystemClock
   \   000003   12....       LCALL   ??osal_GetSystemClock?relay
   \   000006   90....       MOV     DPTR,#clkShdw
   \   000009   22           RET
    436          
    437          /*********************************************************************
    438           * Event Generation Functions
    439           */
    440          /*********************************************************************
    441           * @fn      TransmitApp_ProcessZDOMsgs()
    442           *
    443           * @brief   Process response messages
    444           *
    445           * @param   none
    446           *
    447           * @return  none
    448           */

   \                                 In  segment BANKED_CODE, align 1, keep-with-next
    449          void TransmitApp_ProcessZDOMsgs( zdoIncomingMsg_t *inMsg )
   \                     TransmitApp_ProcessZDOMsgs:
    450          {
   \   000000   74F6         MOV     A,#-0xa
   \   000002   12....       LCALL   ?BANKED_ENTER_XDATA
   \   000005                ; Saved register size: 10
   \   000005                ; Auto size: 0
    451            switch ( inMsg->clusterID )
   \   000005   EA           MOV     A,R2
   \   000006   240C         ADD     A,#0xc
   \   000008   F582         MOV     DPL,A
   \   00000A   EB           MOV     A,R3
   \   00000B   12....       LCALL   ?Subroutine5 & 0xFFFF
   \                     ??CrossCallReturnLabel_9:
   \   00000E   78..         MOV     R0,#?V0 + 0
   \   000010   12....       LCALL   ?US_SWITCH_SPARSE
   \                     `?<Jumptable for TransmitApp_ProcessZDOMsgs>_0`:
   \   000013   0000         DW        0
   \   000015   0200         DW        2
   \   000017   0680         DW        32774
   \   000019   ....         DW        ??TransmitApp_ProcessZDOMsgs_0
   \   00001B   2080         DW        32800
   \   00001D   ....         DW        ??TransmitApp_ProcessZDOMsgs_1
   \   00001F   ....         DW        ??TransmitApp_ProcessZDOMsgs_2
    452            {
    453              case End_Device_Bind_rsp:
    454                if ( ZDO_ParseBindRsp( inMsg ) == ZSuccess )
   \                     ??TransmitApp_ProcessZDOMsgs_1:
   \   000021   EA           MOV     A,R2
   \   000022   2413         ADD     A,#0x13
   \   000024   F582         MOV     DPL,A
   \   000026   EB           MOV     A,R3
   \   000027   12....       LCALL   ?Subroutine7 & 0xFFFF
   \                     ??CrossCallReturnLabel_13:
   \   00002A   F583         MOV     DPH,A
   \   00002C   8882         MOV     DPL,R0
   \   00002E   E0           MOVX    A,@DPTR
   \   00002F   7058         JNZ     ??TransmitApp_ProcessZDOMsgs_2
    455                {
    456                  // Light LED
    457                  HalLedSet( HAL_LED_4, HAL_LED_MODE_ON );
   \   000031                ; Setup parameters for call to function HalLedSet
   \   000031   7A01         MOV     R2,#0x1
   \   000033   7908         MOV     R1,#0x8
   \   000035   12....       LCALL   ??HalLedSet?relay
   \   000038   804F         SJMP    ??TransmitApp_ProcessZDOMsgs_2
    458                }
    459          #if defined(BLINK_LEDS)
    460                else
    461                {
    462                  // Flash LED to show failure
    463                  HalLedSet ( HAL_LED_4, HAL_LED_MODE_FLASH );
    464                }
    465          #endif
    466                break;
    467          
    468              case Match_Desc_rsp:
    469                {
    470                  ZDO_ActiveEndpointRsp_t *pRsp = ZDO_ParseEPListRsp( inMsg );
   \                     ??TransmitApp_ProcessZDOMsgs_0:
   \   00003A                ; Setup parameters for call to function ZDO_ParseEPListRsp
   \   00003A   12....       LCALL   ??ZDO_ParseEPListRsp?relay
   \   00003D   8A..         MOV     ?V0 + 0,R2
   \   00003F   8B..         MOV     ?V0 + 1,R3
   \   000041   AE..         MOV     R6,?V0 + 0
   \   000043   AF..         MOV     R7,?V0 + 1
    471                  if ( pRsp )
   \   000045   EE           MOV     A,R6
   \   000046   4F           ORL     A,R7
   \   000047   6040         JZ      ??TransmitApp_ProcessZDOMsgs_2
    472                  {
    473                    if ( pRsp->status == ZSuccess && pRsp->cnt )
   \   000049   8E82         MOV     DPL,R6
   \   00004B   8F83         MOV     DPH,R7
   \   00004D   E0           MOVX    A,@DPTR
   \   00004E   7032         JNZ     ??TransmitApp_ProcessZDOMsgs_3
   \   000050   A3           INC     DPTR
   \   000051   A3           INC     DPTR
   \   000052   A3           INC     DPTR
   \   000053   E0           MOVX    A,@DPTR
   \   000054   602C         JZ      ??TransmitApp_ProcessZDOMsgs_3
    474                    {
    475                      TransmitApp_DstAddr.addrMode = (afAddrMode_t)Addr16Bit;
   \   000056   90....       MOV     DPTR,#TransmitApp_DstAddr + 8
   \   000059   7402         MOV     A,#0x2
   \   00005B   F0           MOVX    @DPTR,A
    476                      TransmitApp_DstAddr.addr.shortAddr = pRsp->nwkAddr;
   \   00005C   8E82         MOV     DPL,R6
   \   00005E   8F83         MOV     DPH,R7
   \   000060   A3           INC     DPTR
   \   000061   E0           MOVX    A,@DPTR
   \   000062   F8           MOV     R0,A
   \   000063   A3           INC     DPTR
   \   000064   E0           MOVX    A,@DPTR
   \   000065   F9           MOV     R1,A
   \   000066   90....       MOV     DPTR,#TransmitApp_DstAddr
   \   000069   E8           MOV     A,R0
   \   00006A   F0           MOVX    @DPTR,A
   \   00006B   A3           INC     DPTR
   \   00006C   E9           MOV     A,R1
   \   00006D   F0           MOVX    @DPTR,A
    477                      // Take the first endpoint, Can be changed to search through endpoints
    478                      TransmitApp_DstAddr.endPoint = pRsp->epList[0];
   \   00006E   8E82         MOV     DPL,R6
   \   000070   8F83         MOV     DPH,R7
   \   000072   A3           INC     DPTR
   \   000073   A3           INC     DPTR
   \   000074   A3           INC     DPTR
   \   000075   A3           INC     DPTR
   \   000076   E0           MOVX    A,@DPTR
   \   000077   90....       MOV     DPTR,#TransmitApp_DstAddr + 9
   \   00007A   F0           MOVX    @DPTR,A
    479          
    480                      // Light LED
    481                      HalLedSet( HAL_LED_4, HAL_LED_MODE_ON );
   \   00007B                ; Setup parameters for call to function HalLedSet
   \   00007B   7A01         MOV     R2,#0x1
   \   00007D   7908         MOV     R1,#0x8
   \   00007F   12....       LCALL   ??HalLedSet?relay
    482                    }
    483                    osal_mem_free( pRsp );
   \                     ??TransmitApp_ProcessZDOMsgs_3:
   \   000082                ; Setup parameters for call to function osal_mem_free
   \   000082   EE           MOV     A,R6
   \   000083   FA           MOV     R2,A
   \   000084   EF           MOV     A,R7
   \   000085   FB           MOV     R3,A
   \   000086   12....       LCALL   ??osal_mem_free?relay
    484                  }
    485                }
    486                break;
    487            }
    488          }
   \                     ??TransmitApp_ProcessZDOMsgs_2:
   \   000089                REQUIRE ?Subroutine0
   \   000089                ; // Fall through to label ?Subroutine0

   \                                 In  segment BANKED_CODE, align 1, keep-with-next
   \                     ?Subroutine0:
   \   000000   7F02         MOV     R7,#0x2
   \   000002   02....       LJMP    ?BANKED_LEAVE_XDATA

   \                                 In  segment BANKED_CODE, align 1, keep-with-next
   \                     ?Subroutine7:
   \   000000   3400         ADDC    A,#0x0
   \   000002   F583         MOV     DPH,A
   \   000004   E0           MOVX    A,@DPTR
   \   000005   F8           MOV     R0,A
   \   000006   A3           INC     DPTR
   \   000007   E0           MOVX    A,@DPTR
   \   000008   22           RET

   \                                 In  segment BANKED_CODE, align 1, keep-with-next
   \                     ?Subroutine5:
   \   000000   3400         ADDC    A,#0x0
   \   000002   F583         MOV     DPH,A
   \   000004   E0           MOVX    A,@DPTR
   \   000005   F5..         MOV     ?V0 + 0,A
   \   000007   A3           INC     DPTR
   \   000008   E0           MOVX    A,@DPTR
   \   000009   F5..         MOV     ?V0 + 1,A
   \   00000B   22           RET
    489          
    490          /*********************************************************************
    491           * @fn      TransmitApp_HandleKeys
    492           *
    493           * @brief   Handles all key events for this device.
    494           *
    495           * @param   shift - true if in shift/alt.
    496           * @param   keys - bit field for key events. Valid entries:
    497           *                 EVAL_SW4
    498           *                 EVAL_SW3
    499           *                 EVAL_SW2
    500           *                 EVAL_SW1
    501           *
    502           * @return  none
    503           */

   \                                 In  segment BANKED_CODE, align 1, keep-with-next
    504          void TransmitApp_HandleKeys( byte shift, byte keys )
   \                     TransmitApp_HandleKeys:
    505          {
   \   000000   74F5         MOV     A,#-0xb
   \   000002   12....       LCALL   ?BANKED_ENTER_XDATA
   \   000005                ; Saved register size: 11
   \   000005                ; Auto size: 9
   \   000005   74F7         MOV     A,#-0x9
   \   000007   12....       LCALL   ?ALLOC_XSTACK8
   \   00000A   E9           MOV     A,R1
   \   00000B   FE           MOV     R6,A
   \   00000C   EA           MOV     A,R2
   \   00000D   FF           MOV     R7,A
    506            zAddrType_t dstAddr;
    507          
    508            // Shift is used to make each button/switch dual purpose.
    509            if ( shift )
   \   00000E   EE           MOV     A,R6
   \   00000F   6003         JZ      $+5
   \   000011   02....       LJMP    ??TransmitApp_HandleKeys_0 & 0xFFFF
    510            {
    511              if ( keys & HAL_KEY_SW_1 )
    512              {
    513              }
    514              if ( keys & HAL_KEY_SW_2 )
    515              {
    516              }
    517              if ( keys & HAL_KEY_SW_3 )
    518              {
    519              }
    520              if ( keys & HAL_KEY_SW_4 )
    521              {
    522              }
    523            }
    524            else
    525            {
    526              if ( keys & HAL_KEY_SW_1 )
   \   000014   EF           MOV     A,R7
   \   000015   A2E0         MOV     C,0xE0 /* A   */.0
   \   000017   5003         JNC     ??TransmitApp_HandleKeys_1
    527              {
    528                TransmitApp_ChangeState();
   \   000019                ; Setup parameters for call to function TransmitApp_ChangeState
   \   000019   12....       LCALL   ??TransmitApp_ChangeState?relay
    529              }
    530          
    531              if ( keys & HAL_KEY_SW_2 )
   \                     ??TransmitApp_HandleKeys_1:
   \   00001C   EF           MOV     A,R7
   \   00001D   A2E1         MOV     C,0xE0 /* A   */.1
   \   00001F   5069         JNC     ??TransmitApp_HandleKeys_2
    532              {
    533                HalLedSet ( HAL_LED_4, HAL_LED_MODE_OFF );
   \   000021                ; Setup parameters for call to function HalLedSet
   \   000021   7A00         MOV     R2,#0x0
   \   000023   7908         MOV     R1,#0x8
   \   000025   12....       LCALL   ??HalLedSet?relay
    534          
    535                // Initiate an End Device Bind Request for the mandatory endpoint
    536                dstAddr.addrMode = Addr16Bit;
   \   000028   7408         MOV     A,#0x8
   \   00002A   12....       LCALL   ?XSTACK_DISP0_8
   \   00002D   7402         MOV     A,#0x2
   \   00002F   12....       LCALL   ?Subroutine3 & 0xFFFF
    537                dstAddr.addr.shortAddr = 0x0000; // Coordinator
   \                     ??CrossCallReturnLabel_5:
   \   000032   E4           CLR     A
   \   000033   F0           MOVX    @DPTR,A
   \   000034   A3           INC     DPTR
   \   000035   F0           MOVX    @DPTR,A
    538                ZDP_EndDeviceBindReq( &dstAddr, NLME_GetShortAddr(),
    539                                      TransmitApp_epDesc.endPoint,
    540                                      TRANSMITAPP_PROFID,
    541                                      TRANSMITAPP_MAX_CLUSTERS, (cId_t *)TransmitApp_ClusterList,
    542                                      TRANSMITAPP_MAX_CLUSTERS, (cId_t *)TransmitApp_ClusterList,
    543                                      FALSE );
   \   000036                ; Setup parameters for call to function NLME_GetShortAddr
   \   000036   12....       LCALL   ??NLME_GetShortAddr?relay
   \   000039   8A..         MOV     ?V0 + 0,R2
   \   00003B   8B..         MOV     ?V0 + 1,R3
   \   00003D   AC..         MOV     R4,?V0 + 0
   \   00003F   AD..         MOV     R5,?V0 + 1
   \   000041   75....       MOV     ?V0 + 0,#TransmitApp_ClusterList & 0xff
   \   000044   75....       MOV     ?V0 + 1,#(TransmitApp_ClusterList >> 8) & 0xff
   \   000047                ; Setup parameters for call to function ZDP_EndDeviceBindReq
   \   000047   75..00       MOV     ?V0 + 2,#0x0
   \   00004A   78..         MOV     R0,#?V0 + 2
   \   00004C   12....       LCALL   ?PUSH_XSTACK_I_ONE
   \   00004F   78..         MOV     R0,#?V0 + 0
   \   000051   12....       LCALL   ?PUSH_XSTACK_I_TWO
   \   000054   75..01       MOV     ?V0 + 2,#0x1
   \   000057   78..         MOV     R0,#?V0 + 2
   \   000059   12....       LCALL   ?PUSH_XSTACK_I_ONE
   \   00005C   78..         MOV     R0,#?V0 + 0
   \   00005E   12....       LCALL   ?PUSH_XSTACK_I_TWO
   \   000061   75..01       MOV     ?V0 + 0,#0x1
   \   000064   78..         MOV     R0,#?V0 + 0
   \   000066   12....       LCALL   ?PUSH_XSTACK_I_ONE
   \   000069   75..05       MOV     ?V0 + 0,#0x5
   \   00006C   75..0F       MOV     ?V0 + 1,#0xf
   \   00006F   78..         MOV     R0,#?V0 + 0
   \   000071   12....       LCALL   ?PUSH_XSTACK_I_TWO
   \   000074   90....       MOV     DPTR,#TransmitApp_epDesc
   \   000077   E0           MOVX    A,@DPTR
   \   000078   F9           MOV     R1,A
   \   000079   7409         MOV     A,#0x9
   \   00007B   12....       LCALL   ?XSTACK_DISP0_8
   \   00007E   AA82         MOV     R2,DPL
   \   000080   AB83         MOV     R3,DPH
   \   000082   12....       LCALL   ??ZDP_EndDeviceBindReq?relay
   \   000085   7409         MOV     A,#0x9
   \   000087   12....       LCALL   ?DEALLOC_XSTACK8
    544              }
    545          
    546              if ( keys & HAL_KEY_SW_3 )
   \                     ??TransmitApp_HandleKeys_2:
   \   00008A   EF           MOV     A,R7
   \   00008B   A2E4         MOV     C,0xE0 /* A   */.4
   \   00008D   5033         JNC     ??TransmitApp_HandleKeys_3
    547              {
    548                rxTotal = txTotal = 0;
   \   00008F   90....       MOV     DPTR,#__Constant_0
   \   000092   12....       LCALL   ?XLOAD_R2345
   \   000095   90....       MOV     DPTR,#txTotal
   \   000098   12....       LCALL   ?XSTORE_R2345
   \   00009B   90....       MOV     DPTR,#__Constant_0
   \   00009E   12....       LCALL   ?XLOAD_R2345
   \   0000A1   90....       MOV     DPTR,#rxTotal
   \   0000A4   12....       LCALL   ?XSTORE_R2345
    549                rxAccum = txAccum = 0;
   \   0000A7   90....       MOV     DPTR,#__Constant_0
   \   0000AA   12....       LCALL   ?XLOAD_R2345
   \   0000AD   90....       MOV     DPTR,#txAccum
   \   0000B0   12....       LCALL   ?XSTORE_R2345
   \   0000B3   90....       MOV     DPTR,#__Constant_0
   \   0000B6   12....       LCALL   ?XLOAD_R2345
   \   0000B9   90....       MOV     DPTR,#rxAccum
   \   0000BC   12....       LCALL   ?XSTORE_R2345
    550                TransmitApp_DisplayResults();
   \   0000BF                ; Setup parameters for call to function TransmitApp_DisplayResults
   \   0000BF   12....       LCALL   ??TransmitApp_DisplayResults?relay
    551              }
    552          
    553              if ( keys & HAL_KEY_SW_4 )
   \                     ??TransmitApp_HandleKeys_3:
   \   0000C2   EF           MOV     A,R7
   \   0000C3   A2E3         MOV     C,0xE0 /* A   */.3
   \   0000C5   5058         JNC     ??TransmitApp_HandleKeys_0
    554              {
    555                HalLedSet ( HAL_LED_4, HAL_LED_MODE_OFF );
   \   0000C7                ; Setup parameters for call to function HalLedSet
   \   0000C7   7A00         MOV     R2,#0x0
   \   0000C9   7908         MOV     R1,#0x8
   \   0000CB   12....       LCALL   ??HalLedSet?relay
    556          
    557                // Initiate a Match Description Request (Service Discovery)
    558                dstAddr.addrMode = AddrBroadcast;
   \   0000CE   7408         MOV     A,#0x8
   \   0000D0   12....       LCALL   ?XSTACK_DISP0_8
   \   0000D3   740F         MOV     A,#0xf
   \   0000D5   12....       LCALL   ?Subroutine3 & 0xFFFF
    559                dstAddr.addr.shortAddr = NWK_BROADCAST_SHORTADDR;
   \                     ??CrossCallReturnLabel_6:
   \   0000D8   74FF         MOV     A,#-0x1
   \   0000DA   F0           MOVX    @DPTR,A
   \   0000DB   A3           INC     DPTR
   \   0000DC   F0           MOVX    @DPTR,A
    560                ZDP_MatchDescReq( &dstAddr, NWK_BROADCAST_SHORTADDR,
    561                                  TRANSMITAPP_PROFID,
    562                                  TRANSMITAPP_MAX_CLUSTERS, (cId_t *)TransmitApp_ClusterList,
    563                                  TRANSMITAPP_MAX_CLUSTERS, (cId_t *)TransmitApp_ClusterList,
    564                                  FALSE );
   \   0000DD   75....       MOV     ?V0 + 0,#TransmitApp_ClusterList & 0xff
   \   0000E0   75....       MOV     ?V0 + 1,#(TransmitApp_ClusterList >> 8) & 0xff
   \   0000E3                ; Setup parameters for call to function ZDP_MatchDescReq
   \   0000E3   75..00       MOV     ?V0 + 2,#0x0
   \   0000E6   78..         MOV     R0,#?V0 + 2
   \   0000E8   12....       LCALL   ?PUSH_XSTACK_I_ONE
   \   0000EB   78..         MOV     R0,#?V0 + 0
   \   0000ED   12....       LCALL   ?PUSH_XSTACK_I_TWO
   \   0000F0   75..01       MOV     ?V0 + 2,#0x1
   \   0000F3   78..         MOV     R0,#?V0 + 2
   \   0000F5   12....       LCALL   ?PUSH_XSTACK_I_ONE
   \   0000F8   78..         MOV     R0,#?V0 + 0
   \   0000FA   12....       LCALL   ?PUSH_XSTACK_I_TWO
   \   0000FD   75..05       MOV     ?V0 + 0,#0x5
   \   000100   75..0F       MOV     ?V0 + 1,#0xf
   \   000103   78..         MOV     R0,#?V0 + 0
   \   000105   12....       LCALL   ?PUSH_XSTACK_I_TWO
   \   000108   7901         MOV     R1,#0x1
   \   00010A   7CFF         MOV     R4,#-0x1
   \   00010C   7DFF         MOV     R5,#-0x1
   \   00010E   7408         MOV     A,#0x8
   \   000110   12....       LCALL   ?XSTACK_DISP0_8
   \   000113   AA82         MOV     R2,DPL
   \   000115   AB83         MOV     R3,DPH
   \   000117   12....       LCALL   ??ZDP_MatchDescReq?relay
   \   00011A   7408         MOV     A,#0x8
   \   00011C   12....       LCALL   ?DEALLOC_XSTACK8
    565              }
    566            }
    567          }
   \                     ??TransmitApp_HandleKeys_0:
   \   00011F   7409         MOV     A,#0x9
   \   000121   12....       LCALL   ?DEALLOC_XSTACK8
   \   000124   7F03         MOV     R7,#0x3
   \   000126   02....       LJMP    ?BANKED_LEAVE_XDATA
    568          
    569          /*********************************************************************
    570           * LOCAL FUNCTIONS
    571           */
    572          
    573          /*********************************************************************
    574           * @fn      TransmitApp_MessageMSGCB
    575           *
    576           * @brief   Data message processor callback.  This function processes
    577           *          any incoming data - probably from other devices.  So, based
    578           *          on cluster ID, perform the intended action.
    579           *
    580           * @param   none
    581           *
    582           * @return  none
    583           */

   \                                 In  segment BANKED_CODE, align 1, keep-with-next
    584          void TransmitApp_MessageMSGCB( afIncomingMSGPacket_t *pkt )
   \                     TransmitApp_MessageMSGCB:
    585          {
   \   000000   74F4         MOV     A,#-0xc
   \   000002   12....       LCALL   ?BANKED_ENTER_XDATA
   \   000005                ; Saved register size: 12
   \   000005                ; Auto size: 0
   \   000005   EA           MOV     A,R2
   \   000006   FE           MOV     R6,A
   \   000007   EB           MOV     A,R3
   \   000008   FF           MOV     R7,A
    586            uint16 i;
    587            uint8 error = FALSE;
   \   000009   7C00         MOV     R4,#0x0
    588          
    589            switch ( pkt->clusterId )
   \   00000B   8E82         MOV     DPL,R6
   \   00000D   8F83         MOV     DPH,R7
   \   00000F   A3           INC     DPTR
   \   000010   A3           INC     DPTR
   \   000011   A3           INC     DPTR
   \   000012   A3           INC     DPTR
   \   000013   E0           MOVX    A,@DPTR
   \   000014   6401         XRL     A,#0x1
   \   000016   7002         JNZ     ??TransmitApp_MessageMSGCB_0
   \   000018   A3           INC     DPTR
   \   000019   E0           MOVX    A,@DPTR
   \                     ??TransmitApp_MessageMSGCB_0:
   \   00001A   6003         JZ      $+5
   \   00001C   02....       LJMP    ??TransmitApp_MessageMSGCB_1 & 0xFFFF
    590            {
    591              case TRANSMITAPP_CLUSTERID_TESTMSG:
    592          #if !defined ( TRANSMITAPP_RANDOM_LEN )
    593                if (pkt->cmd.DataLength != TransmitApp_MaxDataLength)
   \   00001F   EE           MOV     A,R6
   \   000020   2420         ADD     A,#0x20
   \   000022   F582         MOV     DPL,A
   \   000024   EF           MOV     A,R7
   \   000025   12....       LCALL   ?Subroutine7 & 0xFFFF
   \                     ??CrossCallReturnLabel_14:
   \   000028   F9           MOV     R1,A
   \   000029   90....       MOV     DPTR,#TransmitApp_MaxDataLength
   \   00002C   E0           MOVX    A,@DPTR
   \   00002D   68           XRL     A,R0
   \   00002E   7003         JNZ     ??TransmitApp_MessageMSGCB_2
   \   000030   A3           INC     DPTR
   \   000031   E0           MOVX    A,@DPTR
   \   000032   69           XRL     A,R1
   \                     ??TransmitApp_MessageMSGCB_2:
   \   000033   6001         JZ      ??TransmitApp_MessageMSGCB_3
    594                {
    595                  error = TRUE;
   \   000035   0C           INC     R4
    596                }
    597          #endif
    598          
    599                for (i=4; i<pkt->cmd.DataLength; i++)
   \                     ??TransmitApp_MessageMSGCB_3:
   \   000036   7804         MOV     R0,#0x4
   \   000038   7900         MOV     R1,#0x0
   \   00003A   8027         SJMP    ??TransmitApp_MessageMSGCB_4
    600                {
    601                  if (pkt->cmd.Data[i] != i%256)
   \                     ??TransmitApp_MessageMSGCB_5:
   \   00003C   EE           MOV     A,R6
   \   00003D   2422         ADD     A,#0x22
   \   00003F   F582         MOV     DPL,A
   \   000041   EF           MOV     A,R7
   \   000042   12....       LCALL   ??Subroutine12_0 & 0xFFFF
   \                     ??CrossCallReturnLabel_22:
   \   000045   E0           MOVX    A,@DPTR
   \   000046   28           ADD     A,R0
   \   000047   FA           MOV     R2,A
   \   000048   A3           INC     DPTR
   \   000049   E0           MOVX    A,@DPTR
   \   00004A   39           ADDC    A,R1
   \   00004B   8A82         MOV     DPL,R2
   \   00004D   F583         MOV     DPH,A
   \   00004F   E0           MOVX    A,@DPTR
   \   000050   C0E0         PUSH    A
   \   000052   E8           MOV     A,R0
   \   000053   FA           MOV     R2,A
   \   000054   D0E0         POP     A
   \   000056   6A           XRL     A,R2
   \   000057   6002         JZ      ??TransmitApp_MessageMSGCB_6
    602                    error = TRUE;
   \   000059   7C01         MOV     R4,#0x1
    603                }
   \                     ??TransmitApp_MessageMSGCB_6:
   \   00005B   E8           MOV     A,R0
   \   00005C   2401         ADD     A,#0x1
   \   00005E   08           INC     R0
   \   00005F   E9           MOV     A,R1
   \   000060   3400         ADDC    A,#0x0
   \   000062   F9           MOV     R1,A
   \                     ??TransmitApp_MessageMSGCB_4:
   \   000063   EE           MOV     A,R6
   \   000064   2420         ADD     A,#0x20
   \   000066   F582         MOV     DPL,A
   \   000068   EF           MOV     A,R7
   \   000069   12....       LCALL   ??Subroutine12_0 & 0xFFFF
   \                     ??CrossCallReturnLabel_23:
   \   00006C   12....       LCALL   ?Subroutine6 & 0xFFFF
   \                     ??CrossCallReturnLabel_12:
   \   00006F   40CB         JC      ??TransmitApp_MessageMSGCB_5
    604          
    605                if (error)
   \   000071   EC           MOV     A,R4
   \   000072   A2E0         MOV     C,0xE0 /* A   */.0
   \   000074   5009         JNC     ??TransmitApp_MessageMSGCB_7
    606                {
    607                  // Display error LED
    608                  HalLedSet(HAL_LED_1, HAL_LED_MODE_ON);
   \   000076                ; Setup parameters for call to function HalLedSet
   \   000076   7A01         MOV     R2,#0x1
   \   000078   7901         MOV     R1,#0x1
   \   00007A   12....       LCALL   ??HalLedSet?relay
   \   00007D   8028         SJMP    ??TransmitApp_MessageMSGCB_1
    609                }
    610                else
    611                {
    612                  if ( !timerOn )
   \                     ??TransmitApp_MessageMSGCB_7:
   \   00007F   90....       MOV     DPTR,#timerOn
   \   000082   E0           MOVX    A,@DPTR
   \   000083   700C         JNZ     ??TransmitApp_MessageMSGCB_8
    613                  {
    614                    osal_start_timerEx( TransmitApp_TaskID, TRANSMITAPP_RCVTIMER_EVT,
    615                                                            TRANSMITAPP_DISPLAY_TIMER );
   \   000085                ; Setup parameters for call to function osal_start_timerEx
   \   000085   12....       LCALL   ?Subroutine4 & 0xFFFF
    616                    clkShdw = osal_GetSystemClock();
   \                     ??CrossCallReturnLabel_8:
   \   000088   12....       LCALL   ?XSTORE_R2345
    617                    timerOn = TRUE;
   \   00008B   90....       MOV     DPTR,#timerOn
   \   00008E   7401         MOV     A,#0x1
   \   000090   F0           MOVX    @DPTR,A
    618                  }
    619                  rxAccum += pkt->cmd.DataLength;
   \                     ??TransmitApp_MessageMSGCB_8:
   \   000091   EE           MOV     A,R6
   \   000092   2420         ADD     A,#0x20
   \   000094   F582         MOV     DPL,A
   \   000096   EF           MOV     A,R7
   \   000097   12....       LCALL   ?Subroutine5 & 0xFFFF
    620                }
    621                break;
    622          
    623              // Could receive control messages in the future.
    624              default:
    625                break;
    626            }
   \                     ??CrossCallReturnLabel_10:
   \   00009A   E4           CLR     A
   \   00009B   F5..         MOV     ?V0 + 2,A
   \   00009D   F5..         MOV     ?V0 + 3,A
   \   00009F   90....       MOV     DPTR,#rxAccum
   \   0000A2   78..         MOV     R0,#?V0 + 0
   \   0000A4   12....       LCALL   ?L_ADD_TO_X
    627          }
   \                     ??TransmitApp_MessageMSGCB_1:
   \   0000A7   7F04         MOV     R7,#0x4
   \   0000A9   02....       LJMP    ?BANKED_LEAVE_XDATA

   \                                 In  segment BANKED_CODE, align 1, keep-with-next
   \                     ??Subroutine12_0:
   \   000000   3400         ADDC    A,#0x0
   \   000002   F583         MOV     DPH,A
   \   000004   22           RET
    628          
    629          /*********************************************************************
    630           * @fn      TransmitApp_SendTheMessage
    631           *
    632           * @brief   Send "the" message.
    633           *
    634           * @param   none
    635           *
    636           * @return  none
    637           */

   \                                 In  segment BANKED_CODE, align 1, keep-with-next
    638          void TransmitApp_SendTheMessage( void )
   \                     TransmitApp_SendTheMessage:
    639          {
   \   000000   74F6         MOV     A,#-0xa
   \   000002   12....       LCALL   ?BANKED_ENTER_XDATA
   \   000005                ; Saved register size: 10
   \   000005                ; Auto size: 0
    640            uint16 len;
    641            uint8 tmp;
    642          
    643            do {
    644              // put the sequence number in the message
    645              tmp = HI_UINT8( TransmitApp_TransID );
   \                     ??TransmitApp_SendTheMessage_0:
   \   000005   90....       MOV     DPTR,#TransmitApp_TransID
   \   000008   E0           MOVX    A,@DPTR
   \   000009   C4           SWAP    A
   \   00000A   540F         ANL     A,#0xf
   \   00000C   FA           MOV     R2,A
    646              tmp += (tmp <= 9) ? ('0') : ('A' - 0x0A);
   \   00000D   C3           CLR     C
   \   00000E   940A         SUBB    A,#0xa
   \   000010   5004         JNC     ??TransmitApp_SendTheMessage_1
   \   000012   7830         MOV     R0,#0x30
   \   000014   8002         SJMP    ??TransmitApp_SendTheMessage_2
   \                     ??TransmitApp_SendTheMessage_1:
   \   000016   7837         MOV     R0,#0x37
    647              TransmitApp_Msg[2] = tmp;
   \                     ??TransmitApp_SendTheMessage_2:
   \   000018   E8           MOV     A,R0
   \   000019   2A           ADD     A,R2
   \   00001A   90....       MOV     DPTR,#TransmitApp_Msg + 2
   \   00001D   F0           MOVX    @DPTR,A
    648              tmp = LO_UINT8( TransmitApp_TransID );
   \   00001E   90....       MOV     DPTR,#TransmitApp_TransID
   \   000021   E0           MOVX    A,@DPTR
   \   000022   540F         ANL     A,#0xf
   \   000024   FA           MOV     R2,A
    649              tmp += (tmp <= 9) ? ('0') : ('A' - 0x0A);
   \   000025   C3           CLR     C
   \   000026   940A         SUBB    A,#0xa
   \   000028   5004         JNC     ??TransmitApp_SendTheMessage_3
   \   00002A   7830         MOV     R0,#0x30
   \   00002C   8002         SJMP    ??TransmitApp_SendTheMessage_4
   \                     ??TransmitApp_SendTheMessage_3:
   \   00002E   7837         MOV     R0,#0x37
    650              TransmitApp_Msg[3] = tmp;
   \                     ??TransmitApp_SendTheMessage_4:
   \   000030   E8           MOV     A,R0
   \   000031   2A           ADD     A,R2
   \   000032   90....       MOV     DPTR,#TransmitApp_Msg + 3
   \   000035   F0           MOVX    @DPTR,A
    651          
    652              len = TransmitApp_MaxDataLength;
    653          
    654          #if defined ( TRANSMITAPP_RANDOM_LEN )
    655              len = (uint8)(osal_rand() & 0x7F);
    656              if( len > TransmitApp_MaxDataLength || len == 0 )
    657                len = TransmitApp_MaxDataLength;
    658              else if ( len < 4 )
    659                len = 4;
    660          #endif
    661          	
    662              tmp = AF_DataRequest( &TransmitApp_DstAddr, &TransmitApp_epDesc,
    663                                     TRANSMITAPP_CLUSTERID_TESTMSG,
    664                                     len, TransmitApp_Msg,
    665                                    &TransmitApp_TransID,
    666                                     TRANSMITAPP_TX_OPTIONS,
    667                                     AF_DEFAULT_RADIUS );
   \   000036                ; Setup parameters for call to function AF_DataRequest
   \   000036   75..1E       MOV     ?V0 + 0,#0x1e
   \   000039   78..         MOV     R0,#?V0 + 0
   \   00003B   12....       LCALL   ?PUSH_XSTACK_I_ONE
   \   00003E   75....       MOV     ?V0 + 0,#TransmitApp_TransID & 0xff
   \   000041   75....       MOV     ?V0 + 1,#(TransmitApp_TransID >> 8) & 0xff
   \   000044   78..         MOV     R0,#?V0 + 0
   \   000046   12....       LCALL   ?PUSH_XSTACK_I_TWO
   \   000049   75....       MOV     ?V0 + 0,#TransmitApp_Msg & 0xff
   \   00004C   75....       MOV     ?V0 + 1,#(TransmitApp_Msg >> 8) & 0xff
   \   00004F   78..         MOV     R0,#?V0 + 0
   \   000051   12....       LCALL   ?PUSH_XSTACK_I_TWO
   \   000054   90....       MOV     DPTR,#TransmitApp_MaxDataLength
   \   000057   12....       LCALL   ?PUSH_XSTACK8_X_TWO
   \   00005A   75..01       MOV     ?V0 + 0,#0x1
   \   00005D   75..00       MOV     ?V0 + 1,#0x0
   \   000060   78..         MOV     R0,#?V0 + 0
   \   000062   12....       LCALL   ?PUSH_XSTACK_I_TWO
   \   000065   7920         MOV     R1,#0x20
   \   000067   7C..         MOV     R4,#TransmitApp_epDesc & 0xff
   \   000069   7D..         MOV     R5,#(TransmitApp_epDesc >> 8) & 0xff
   \   00006B   7A..         MOV     R2,#TransmitApp_DstAddr & 0xff
   \   00006D   7B..         MOV     R3,#(TransmitApp_DstAddr >> 8) & 0xff
   \   00006F   12....       LCALL   ??AF_DataRequest?relay
   \   000072   7409         MOV     A,#0x9
   \   000074   12....       LCALL   ?DEALLOC_XSTACK8
   \   000077   E9           MOV     A,R1
   \   000078   FA           MOV     R2,A
    668          
    669          #if defined ( TRANSMITAPP_RANDOM_LEN )
    670              if ( tmp == afStatus_SUCCESS )
    671              {
    672                txAccum += len;
    673              }
    674          #endif
    675          
    676              if ( timesToSend )
   \   000079   90....       MOV     DPTR,#timesToSend
   \   00007C   E0           MOVX    A,@DPTR
   \   00007D   600A         JZ      ??TransmitApp_SendTheMessage_5
    677              {
    678                timesToSend--;
    679              }
    680            } while ( (timesToSend != 0) && (afStatus_SUCCESS == tmp) );
   \   00007F   14           DEC     A
   \   000080   F0           MOVX    @DPTR,A
   \   000081   6006         JZ      ??TransmitApp_SendTheMessage_5
   \   000083   EA           MOV     A,R2
   \   000084   7003         JNZ     $+5
   \   000086   02....       LJMP    ??TransmitApp_SendTheMessage_0 & 0xFFFF
    681          
    682            if ( afStatus_SUCCESS == tmp )
   \                     ??TransmitApp_SendTheMessage_5:
   \   000089   EA           MOV     A,R2
   \   00008A   700E         JNZ     ??TransmitApp_SendTheMessage_6
    683            {
    684              pktCounter++;
   \   00008C   90....       MOV     DPTR,#pktCounter
   \   00008F   E0           MOVX    A,@DPTR
   \   000090   2401         ADD     A,#0x1
   \   000092   F0           MOVX    @DPTR,A
   \   000093   A3           INC     DPTR
   \   000094   E0           MOVX    A,@DPTR
   \   000095   3400         ADDC    A,#0x0
   \   000097   F0           MOVX    @DPTR,A
   \   000098   8009         SJMP    ??CrossCallReturnLabel_21
    685            }
    686            else
    687            {
    688              // Error, so wait (10 mSec) and try again.
    689              osal_start_timerEx( TransmitApp_TaskID, TRANSMITAPP_SEND_ERR_EVT, 10 );
   \                     ??TransmitApp_SendTheMessage_6:
   \   00009A                ; Setup parameters for call to function osal_start_timerEx
   \   00009A   7C0A         MOV     R4,#0xa
   \   00009C   7D00         MOV     R5,#0x0
   \   00009E   7A04         MOV     R2,#0x4
   \   0000A0   12....       LCALL   ??Subroutine11_0 & 0xFFFF
    690            }
    691          }
   \                     ??CrossCallReturnLabel_21:
   \   0000A3   02....       LJMP    ?Subroutine0 & 0xFFFF
    692          
    693          /*********************************************************************
    694           * @fn      TransmitApp_ChangeState
    695           *
    696           * @brief   Toggle the Sending/Waiting state flag
    697           *
    698           * @param   none
    699           *
    700           * @return  none
    701           */

   \                                 In  segment BANKED_CODE, align 1, keep-with-next
    702          void TransmitApp_ChangeState( void )
   \                     TransmitApp_ChangeState:
    703          {
   \   000000   C082         PUSH    DPL
   \   000002   C083         PUSH    DPH
   \   000004                ; Saved register size: 2
   \   000004                ; Auto size: 0
    704            if ( TransmitApp_State == TRANSMITAPP_STATE_WAITING )
   \   000004   90....       MOV     DPTR,#TransmitApp_State
   \   000007   E0           MOVX    A,@DPTR
   \   000008   700D         JNZ     ??TransmitApp_ChangeState_0
    705            {
    706              TransmitApp_State = TRANSMITAPP_STATE_SENDING;
   \   00000A   7401         MOV     A,#0x1
   \   00000C   F0           MOVX    @DPTR,A
    707              TransmitApp_SetSendEvt();
   \   00000D                ; Setup parameters for call to function TransmitApp_SetSendEvt
   \   00000D   12....       LCALL   ??TransmitApp_SetSendEvt?relay
    708              timesToSend = TRANSMITAPP_INITIAL_MSG_COUNT;
   \   000010   90....       MOV     DPTR,#timesToSend
   \   000013   7402         MOV     A,#0x2
   \   000015   8001         SJMP    ??TransmitApp_ChangeState_1
    709            }
    710            else
    711            {
    712              TransmitApp_State = TRANSMITAPP_STATE_WAITING;
   \                     ??TransmitApp_ChangeState_0:
   \   000017   E4           CLR     A
   \                     ??TransmitApp_ChangeState_1:
   \   000018   F0           MOVX    @DPTR,A
    713            }
    714          }
   \   000019                REQUIRE ?Subroutine1
   \   000019                ; // Fall through to label ?Subroutine1

   \                                 In  segment BANKED_CODE, align 1, keep-with-next
   \                     ?Subroutine1:
   \   000000   D083         POP     DPH
   \   000002   D082         POP     DPL
   \   000004   02....       LJMP    ?BRET
    715          
    716          /*********************************************************************
    717           * @fn      TransmitApp_SetSendEvt
    718           *
    719           * @brief   Set the event flag
    720           *
    721           * @param   none
    722           *
    723           * @return  none
    724           */

   \                                 In  segment BANKED_CODE, align 1, keep-with-next
    725          void TransmitApp_SetSendEvt( void )
   \                     TransmitApp_SetSendEvt:
    726          {
   \   000000   C082         PUSH    DPL
   \   000002   C083         PUSH    DPH
   \   000004                ; Saved register size: 2
   \   000004                ; Auto size: 0
    727          #if defined( TRANSMITAPP_DELAY_SEND )
    728            // Adds a delay to sending the data
    729            osal_start_timerEx( TransmitApp_TaskID,
    730                              TRANSMITAPP_SEND_MSG_EVT, TRANSMITAPP_SEND_DELAY );
    731          #else
    732            // No Delay - just send the data
    733            osal_set_event( TransmitApp_TaskID, TRANSMITAPP_SEND_MSG_EVT );
   \   000004                ; Setup parameters for call to function osal_set_event
   \   000004   7A01         MOV     R2,#0x1
   \   000006   7B00         MOV     R3,#0x0
   \   000008   90....       MOV     DPTR,#TransmitApp_TaskID
   \   00000B   E0           MOVX    A,@DPTR
   \   00000C   F9           MOV     R1,A
   \   00000D   12....       LCALL   ??osal_set_event?relay
    734          #endif
    735          }
   \   000010   80..         SJMP    ?Subroutine1
    736          
    737          /*********************************************************************
    738           * @fn      TransmitApp_DisplayResults
    739           *
    740           * @brief   Display the results and clear the accumulators
    741           *
    742           * @param   none
    743           *
    744           * @return  none
    745           */

   \                                 In  segment BANKED_CODE, align 1, keep-with-next
    746          void TransmitApp_DisplayResults( void )
   \                     TransmitApp_DisplayResults:
    747          {
   \   000000   74E8         MOV     A,#-0x18
   \   000002   12....       LCALL   ?BANKED_ENTER_XDATA
   \   000005                ; Saved register size: 24
   \   000005                ; Auto size: 21
   \   000005   74EB         MOV     A,#-0x15
   \   000007   12....       LCALL   ?ALLOC_XSTACK8
    748          #ifdef LCD_SUPPORTED
    749            #define LCD_W  16
    750            uint32 rxShdw, txShdw, tmp;
    751            byte lcd_buf[LCD_W+1];
    752            byte idx;
    753          #endif
    754          
    755            // The OSAL timers are not real-time, so calculate the actual time expired.
    756            uint32 msecs = osal_GetSystemClock() - clkShdw;
   \   00000A                ; Setup parameters for call to function osal_GetSystemClock
   \   00000A   12....       LCALL   ??osal_GetSystemClock?relay
   \   00000D   8A..         MOV     ?V0 + 0,R2
   \   00000F   8B..         MOV     ?V0 + 1,R3
   \   000011   8C..         MOV     ?V0 + 2,R4
   \   000013   8D..         MOV     ?V0 + 3,R5
   \   000015   90....       MOV     DPTR,#clkShdw
   \   000018   78..         MOV     R0,#?V0 + 0
   \   00001A   12....       LCALL   ?L_SUB_X
   \   00001D   85..82       MOV     DPL,?XSP + 0
   \   000020   85..83       MOV     DPH,?XSP + 1
   \   000023   78..         MOV     R0,#?V0 + 0
   \   000025   12....       LCALL   ?L_MOV_TO_X
    757            clkShdw = osal_GetSystemClock();
   \   000028                ; Setup parameters for call to function osal_GetSystemClock
   \   000028   12....       LCALL   ??osal_GetSystemClock?relay
   \   00002B   90....       MOV     DPTR,#clkShdw
   \   00002E   12....       LCALL   ?XSTORE_R2345
    758          
    759            rxTotal += rxAccum;
   \   000031   90....       MOV     DPTR,#rxAccum
   \   000034   78..         MOV     R0,#?V0 + 0
   \   000036   12....       LCALL   ?L_MOV_X
   \   000039   90....       MOV     DPTR,#rxTotal
   \   00003C   78..         MOV     R0,#?V0 + 0
   \   00003E   12....       LCALL   ?L_ADD_TO_X
    760            txTotal += txAccum;
   \   000041   90....       MOV     DPTR,#txAccum
   \   000044   78..         MOV     R0,#?V0 + 0
   \   000046   12....       LCALL   ?L_MOV_X
   \   000049   90....       MOV     DPTR,#txTotal
   \   00004C   78..         MOV     R0,#?V0 + 0
   \   00004E   12....       LCALL   ?L_ADD_TO_X
    761          
    762          #if defined ( LCD_SUPPORTED )
    763            rxShdw = (rxAccum * 1000 + msecs/2) / msecs;
   \   000051   85..82       MOV     DPL,?XSP + 0
   \   000054   85..83       MOV     DPH,?XSP + 1
   \   000057   78..         MOV     R0,#?V0 + 8
   \   000059   12....       LCALL   ?L_MOV_X
   \   00005C   7401         MOV     A,#0x1
   \   00005E   78..         MOV     R0,#?V0 + 8
   \   000060   12....       LCALL   ?UL_SHR
   \   000063   90....       MOV     DPTR,#rxAccum
   \   000066   78..         MOV     R0,#?V0 + 0
   \   000068   12....       LCALL   ?L_MOV_X
   \   00006B   90....       MOV     DPTR,#__Constant_3e8
   \   00006E   78..         MOV     R0,#?V0 + 4
   \   000070   12....       LCALL   ?L_MOV_X
   \   000073   78..         MOV     R0,#?V0 + 0
   \   000075   79..         MOV     R1,#?V0 + 4
   \   000077   12....       LCALL   ?L_MUL
   \   00007A   78..         MOV     R0,#?V0 + 0
   \   00007C   79..         MOV     R1,#?V0 + 8
   \   00007E   12....       LCALL   ?L_ADD
   \   000081   85..82       MOV     DPL,?XSP + 0
   \   000084   85..83       MOV     DPH,?XSP + 1
   \   000087   78..         MOV     R0,#?V0 + 4
   \   000089   12....       LCALL   ?L_MOV_X
   \   00008C   78..         MOV     R0,#?V0 + 0
   \   00008E   79..         MOV     R1,#?V0 + 4
   \   000090   12....       LCALL   ?UL_DIV_MOD
    764            txShdw = (txAccum * 1000 + msecs/2) / msecs;
   \   000093   90....       MOV     DPTR,#txAccum
   \   000096   78..         MOV     R0,#?V0 + 4
   \   000098   12....       LCALL   ?L_MOV_X
   \   00009B   90....       MOV     DPTR,#__Constant_3e8
   \   00009E   78..         MOV     R0,#?V0 + 12
   \   0000A0   12....       LCALL   ?L_MOV_X
   \   0000A3   78..         MOV     R0,#?V0 + 4
   \   0000A5   79..         MOV     R1,#?V0 + 12
   \   0000A7   12....       LCALL   ?L_MUL
   \   0000AA   78..         MOV     R0,#?V0 + 4
   \   0000AC   79..         MOV     R1,#?V0 + 8
   \   0000AE   12....       LCALL   ?L_ADD
   \   0000B1   85..82       MOV     DPL,?XSP + 0
   \   0000B4   85..83       MOV     DPH,?XSP + 1
   \   0000B7   78..         MOV     R0,#?V0 + 8
   \   0000B9   12....       LCALL   ?L_MOV_X
   \   0000BC   78..         MOV     R0,#?V0 + 4
   \   0000BE   79..         MOV     R1,#?V0 + 8
   \   0000C0   12....       LCALL   ?UL_DIV_MOD
    765          
    766            osal_memset( lcd_buf, ' ', LCD_W );
   \   0000C3                ; Setup parameters for call to function osal_memset
   \   0000C3   7C10         MOV     R4,#0x10
   \   0000C5   7D00         MOV     R5,#0x0
   \   0000C7   7920         MOV     R1,#0x20
   \   0000C9   7404         MOV     A,#0x4
   \   0000CB   12....       LCALL   ?XSTACK_DISP0_8
   \   0000CE   AA82         MOV     R2,DPL
   \   0000D0   AB83         MOV     R3,DPH
   \   0000D2   12....       LCALL   ??osal_memset?relay
    767            lcd_buf[LCD_W] = NULL;
   \   0000D5   7414         MOV     A,#0x14
   \   0000D7   12....       LCALL   ?XSTACK_DISP0_8
   \   0000DA   E4           CLR     A
   \   0000DB   F0           MOVX    @DPTR,A
    768          
    769            idx = 4;
   \   0000DC   7A04         MOV     R2,#0x4
    770            tmp = (rxShdw >= 100000) ? 99999 : rxShdw;
   \   0000DE   90....       MOV     DPTR,#__Constant_186a0
   \   0000E1   78..         MOV     R0,#?V0 + 0
   \   0000E3   12....       LCALL   ?UL_GE_X
   \   0000E6   500A         JNC     ??TransmitApp_DisplayResults_0
   \   0000E8   90....       MOV     DPTR,#__Constant_1869f
   \   0000EB   78..         MOV     R0,#?V0 + 8
   \   0000ED   12....       LCALL   ?L_MOV_X
   \   0000F0   800C         SJMP    ??TransmitApp_DisplayResults_1
   \                     ??TransmitApp_DisplayResults_0:
   \   0000F2   85....       MOV     ?V0 + 8,?V0 + 0
   \   0000F5   85....       MOV     ?V0 + 9,?V0 + 1
   \   0000F8   85....       MOV     ?V0 + 10,?V0 + 2
   \   0000FB   85....       MOV     ?V0 + 11,?V0 + 3
    771            do
    772            {
    773              lcd_buf[idx--] = (uint8) ('0' + (tmp % 10));
   \                     ??TransmitApp_DisplayResults_1:
   \   0000FE   85....       MOV     ?V0 + 0,?V0 + 8
   \   000101   85....       MOV     ?V0 + 1,?V0 + 9
   \   000104   85....       MOV     ?V0 + 2,?V0 + 10
   \   000107   85....       MOV     ?V0 + 3,?V0 + 11
   \   00010A   90....       MOV     DPTR,#__Constant_a
   \   00010D   78..         MOV     R0,#?V0 + 12
   \   00010F   12....       LCALL   ?L_MOV_X
   \   000112   78..         MOV     R0,#?V0 + 0
   \   000114   79..         MOV     R1,#?V0 + 12
   \   000116   12....       LCALL   ?UL_DIV_MOD
   \   000119   E5..         MOV     A,?V0 + 12
   \   00011B   2430         ADD     A,#0x30
   \   00011D   C0E0         PUSH    A
   \   00011F   8A..         MOV     ?V0 + 0,R2
   \   000121   7404         MOV     A,#0x4
   \   000123   12....       LCALL   ?XSTACK_DISP0_8
   \   000126   12....       LCALL   ?Subroutine8 & 0xFFFF
    774              tmp /= 10;
    775            } while ( tmp );
   \                     ??CrossCallReturnLabel_24:
   \   000129   D0E0         POP     A
   \   00012B   12....       LCALL   ?Subroutine2 & 0xFFFF
   \                     ??CrossCallReturnLabel_0:
   \   00012E   12....       LCALL   ?L_MOV_X
   \   000131   78..         MOV     R0,#?V0 + 8
   \   000133   79..         MOV     R1,#?V0 + 0
   \   000135   12....       LCALL   ?UL_DIV_MOD
   \   000138   12....       LCALL   ?Subroutine9 & 0xFFFF
   \                     ??CrossCallReturnLabel_15:
   \   00013B   70C1         JNZ     ??TransmitApp_DisplayResults_1
    776          
    777            idx = LCD_W-1;
   \   00013D   7A0F         MOV     R2,#0xf
    778            tmp = rxTotal;
   \   00013F   90....       MOV     DPTR,#rxTotal
   \   000142   78..         MOV     R0,#?V0 + 8
   \   000144   12....       LCALL   ?L_MOV_X
    779            do
    780            {
    781              lcd_buf[idx--] = (uint8) ('0' + (tmp % 10));
   \                     ??TransmitApp_DisplayResults_2:
   \   000147   85....       MOV     ?V0 + 0,?V0 + 8
   \   00014A   85....       MOV     ?V0 + 1,?V0 + 9
   \   00014D   85....       MOV     ?V0 + 2,?V0 + 10
   \   000150   85....       MOV     ?V0 + 3,?V0 + 11
   \   000153   90....       MOV     DPTR,#__Constant_a
   \   000156   78..         MOV     R0,#?V0 + 12
   \   000158   12....       LCALL   ?L_MOV_X
   \   00015B   78..         MOV     R0,#?V0 + 0
   \   00015D   79..         MOV     R1,#?V0 + 12
   \   00015F   12....       LCALL   ?UL_DIV_MOD
   \   000162   E5..         MOV     A,?V0 + 12
   \   000164   2430         ADD     A,#0x30
   \   000166   C0E0         PUSH    A
   \   000168   8A..         MOV     ?V0 + 0,R2
   \   00016A   7404         MOV     A,#0x4
   \   00016C   12....       LCALL   ?XSTACK_DISP0_8
   \   00016F   12....       LCALL   ?Subroutine8 & 0xFFFF
    782              tmp /= 10;
    783            } while ( tmp );
   \                     ??CrossCallReturnLabel_25:
   \   000172   D0E0         POP     A
   \   000174   12....       LCALL   ?Subroutine2 & 0xFFFF
   \                     ??CrossCallReturnLabel_1:
   \   000177   12....       LCALL   ?L_MOV_X
   \   00017A   78..         MOV     R0,#?V0 + 8
   \   00017C   79..         MOV     R1,#?V0 + 0
   \   00017E   12....       LCALL   ?UL_DIV_MOD
   \   000181   12....       LCALL   ?Subroutine9 & 0xFFFF
   \                     ??CrossCallReturnLabel_16:
   \   000184   70C1         JNZ     ??TransmitApp_DisplayResults_2
    784          
    785            HalLcdWriteString( (char*)lcd_buf, HAL_LCD_LINE_1 );
   \   000186                ; Setup parameters for call to function HalLcdWriteString
   \   000186   7901         MOV     R1,#0x1
   \   000188   7404         MOV     A,#0x4
   \   00018A   12....       LCALL   ?XSTACK_DISP0_8
   \   00018D   AA82         MOV     R2,DPL
   \   00018F   AB83         MOV     R3,DPH
   \   000191   12....       LCALL   ??HalLcdWriteString?relay
    786            osal_memset( lcd_buf, ' ', LCD_W );
   \   000194                ; Setup parameters for call to function osal_memset
   \   000194   7C10         MOV     R4,#0x10
   \   000196   7D00         MOV     R5,#0x0
   \   000198   7920         MOV     R1,#0x20
   \   00019A   7404         MOV     A,#0x4
   \   00019C   12....       LCALL   ?XSTACK_DISP0_8
   \   00019F   AA82         MOV     R2,DPL
   \   0001A1   AB83         MOV     R3,DPH
   \   0001A3   12....       LCALL   ??osal_memset?relay
    787          
    788            idx = 4;
   \   0001A6   7A04         MOV     R2,#0x4
    789            tmp = (txShdw >= 100000) ? 99999 : txShdw;
   \   0001A8   90....       MOV     DPTR,#__Constant_186a0
   \   0001AB   78..         MOV     R0,#?V0 + 4
   \   0001AD   12....       LCALL   ?UL_GE_X
   \   0001B0   500A         JNC     ??TransmitApp_DisplayResults_3
   \   0001B2   90....       MOV     DPTR,#__Constant_1869f
   \   0001B5   78..         MOV     R0,#?V0 + 8
   \   0001B7   12....       LCALL   ?L_MOV_X
   \   0001BA   800C         SJMP    ??TransmitApp_DisplayResults_4
   \                     ??TransmitApp_DisplayResults_3:
   \   0001BC   85....       MOV     ?V0 + 8,?V0 + 4
   \   0001BF   85....       MOV     ?V0 + 9,?V0 + 5
   \   0001C2   85....       MOV     ?V0 + 10,?V0 + 6
   \   0001C5   85....       MOV     ?V0 + 11,?V0 + 7
    790            do
    791            {
    792              lcd_buf[idx--] = (uint8) ('0' + (tmp % 10));
   \                     ??TransmitApp_DisplayResults_4:
   \   0001C8   85....       MOV     ?V0 + 4,?V0 + 8
   \   0001CB   85....       MOV     ?V0 + 5,?V0 + 9
   \   0001CE   85....       MOV     ?V0 + 6,?V0 + 10
   \   0001D1   85....       MOV     ?V0 + 7,?V0 + 11
   \   0001D4   90....       MOV     DPTR,#__Constant_a
   \   0001D7   78..         MOV     R0,#?V0 + 0
   \   0001D9   12....       LCALL   ?L_MOV_X
   \   0001DC   78..         MOV     R0,#?V0 + 4
   \   0001DE   79..         MOV     R1,#?V0 + 0
   \   0001E0   12....       LCALL   ?UL_DIV_MOD
   \   0001E3   E5..         MOV     A,?V0 + 0
   \   0001E5   2430         ADD     A,#0x30
   \   0001E7   C0E0         PUSH    A
   \   0001E9   8A..         MOV     ?V0 + 0,R2
   \   0001EB   7404         MOV     A,#0x4
   \   0001ED   12....       LCALL   ?XSTACK_DISP0_8
   \   0001F0   12....       LCALL   ?Subroutine8 & 0xFFFF
    793              tmp /= 10;
    794            } while ( tmp );
   \                     ??CrossCallReturnLabel_26:
   \   0001F3   D0E0         POP     A
   \   0001F5   12....       LCALL   ?Subroutine2 & 0xFFFF
   \                     ??CrossCallReturnLabel_2:
   \   0001F8   12....       LCALL   ?L_MOV_X
   \   0001FB   78..         MOV     R0,#?V0 + 8
   \   0001FD   79..         MOV     R1,#?V0 + 0
   \   0001FF   12....       LCALL   ?UL_DIV_MOD
   \   000202   12....       LCALL   ?Subroutine9 & 0xFFFF
   \                     ??CrossCallReturnLabel_17:
   \   000205   70C1         JNZ     ??TransmitApp_DisplayResults_4
    795          
    796            idx = LCD_W-1;
   \   000207   7A0F         MOV     R2,#0xf
    797            tmp = txTotal;
   \   000209   90....       MOV     DPTR,#txTotal
   \   00020C   78..         MOV     R0,#?V0 + 8
   \   00020E   12....       LCALL   ?L_MOV_X
    798            do
    799            {
    800              lcd_buf[idx--] = (uint8) ('0' + (tmp % 10));
   \                     ??TransmitApp_DisplayResults_5:
   \   000211   85....       MOV     ?V0 + 4,?V0 + 8
   \   000214   85....       MOV     ?V0 + 5,?V0 + 9
   \   000217   85....       MOV     ?V0 + 6,?V0 + 10
   \   00021A   85....       MOV     ?V0 + 7,?V0 + 11
   \   00021D   90....       MOV     DPTR,#__Constant_a
   \   000220   78..         MOV     R0,#?V0 + 0
   \   000222   12....       LCALL   ?L_MOV_X
   \   000225   78..         MOV     R0,#?V0 + 4
   \   000227   79..         MOV     R1,#?V0 + 0
   \   000229   12....       LCALL   ?UL_DIV_MOD
   \   00022C   E5..         MOV     A,?V0 + 0
   \   00022E   2430         ADD     A,#0x30
   \   000230   C0E0         PUSH    A
   \   000232   8A..         MOV     ?V0 + 0,R2
   \   000234   7404         MOV     A,#0x4
   \   000236   12....       LCALL   ?XSTACK_DISP0_8
   \   000239   12....       LCALL   ?Subroutine8 & 0xFFFF
    801              tmp /= 10;
    802            } while ( tmp );
   \                     ??CrossCallReturnLabel_27:
   \   00023C   D0E0         POP     A
   \   00023E   12....       LCALL   ?Subroutine2 & 0xFFFF
   \                     ??CrossCallReturnLabel_3:
   \   000241   12....       LCALL   ?L_MOV_X
   \   000244   78..         MOV     R0,#?V0 + 8
   \   000246   79..         MOV     R1,#?V0 + 0
   \   000248   12....       LCALL   ?UL_DIV_MOD
   \   00024B   12....       LCALL   ?Subroutine9 & 0xFFFF
   \                     ??CrossCallReturnLabel_18:
   \   00024E   70C1         JNZ     ??TransmitApp_DisplayResults_5
    803          
    804            HalLcdWriteString( (char*)lcd_buf, HAL_LCD_LINE_2 );
   \   000250                ; Setup parameters for call to function HalLcdWriteString
   \   000250   7902         MOV     R1,#0x2
   \   000252   7404         MOV     A,#0x4
   \   000254   12....       LCALL   ?XSTACK_DISP0_8
   \   000257   AA82         MOV     R2,DPL
   \   000259   AB83         MOV     R3,DPH
   \   00025B   12....       LCALL   ??HalLcdWriteString?relay
    805          
    806          #elif defined( MT_TASK )
    807            DEBUG_INFO( COMPID_APP, SEVERITY_INFORMATION, 3,
    808                        rxAccum, (uint16)msecs, (uint16)rxTotal );
    809          #else
    810            (void)msecs;  // Not used when no output
    811          #endif
    812          
    813            if ( (rxAccum == 0) && (txAccum == 0) )
   \   00025E   90....       MOV     DPTR,#rxAccum
   \   000261   78..         MOV     R0,#?V0 + 0
   \   000263   12....       LCALL   ?L_MOV_X
   \   000266   E5..         MOV     A,?V0 + 0
   \   000268   45..         ORL     A,?V0 + 1
   \   00026A   45..         ORL     A,?V0 + 2
   \   00026C   45..         ORL     A,?V0 + 3
   \   00026E   7023         JNZ     ??TransmitApp_DisplayResults_6
   \   000270   90....       MOV     DPTR,#txAccum
   \   000273   78..         MOV     R0,#?V0 + 0
   \   000275   12....       LCALL   ?L_MOV_X
   \   000278   E5..         MOV     A,?V0 + 0
   \   00027A   45..         ORL     A,?V0 + 1
   \   00027C   45..         ORL     A,?V0 + 2
   \   00027E   45..         ORL     A,?V0 + 3
   \   000280   7011         JNZ     ??TransmitApp_DisplayResults_6
    814            {
    815              osal_stop_timerEx( TransmitApp_TaskID, TRANSMITAPP_RCVTIMER_EVT );
   \   000282                ; Setup parameters for call to function osal_stop_timerEx
   \   000282   7A02         MOV     R2,#0x2
   \   000284   7B00         MOV     R3,#0x0
   \   000286   90....       MOV     DPTR,#TransmitApp_TaskID
   \   000289   E0           MOVX    A,@DPTR
   \   00028A   F9           MOV     R1,A
   \   00028B   12....       LCALL   ??osal_stop_timerEx?relay
    816              timerOn = FALSE;
   \   00028E   90....       MOV     DPTR,#timerOn
   \   000291   E4           CLR     A
   \   000292   F0           MOVX    @DPTR,A
    817            }
    818          
    819            rxAccum = txAccum = 0;
   \                     ??TransmitApp_DisplayResults_6:
   \   000293   90....       MOV     DPTR,#__Constant_0
   \   000296   12....       LCALL   ?XLOAD_R2345
   \   000299   90....       MOV     DPTR,#txAccum
   \   00029C   12....       LCALL   ?XSTORE_R2345
   \   00029F   90....       MOV     DPTR,#__Constant_0
   \   0002A2   12....       LCALL   ?XLOAD_R2345
   \   0002A5   90....       MOV     DPTR,#rxAccum
   \   0002A8   12....       LCALL   ?XSTORE_R2345
    820          }
   \   0002AB   7415         MOV     A,#0x15
   \   0002AD   12....       LCALL   ?DEALLOC_XSTACK8
   \   0002B0   7F10         MOV     R7,#0x10
   \   0002B2   02....       LJMP    ?BANKED_LEAVE_XDATA

   \                                 In  segment BANKED_CODE, align 1, keep-with-next
   \                     ?Subroutine9:
   \   000000   E5..         MOV     A,?V0 + 8
   \   000002   45..         ORL     A,?V0 + 9
   \   000004   45..         ORL     A,?V0 + 10
   \   000006   45..         ORL     A,?V0 + 11
   \   000008   22           RET

   \                                 In  segment BANKED_CODE, align 1, keep-with-next
   \                     ?Subroutine8:
   \   000000   E582         MOV     A,DPL
   \   000002   25..         ADD     A,?V0 + 0
   \   000004   F582         MOV     DPL,A
   \   000006   E583         MOV     A,DPH
   \   000008                REQUIRE ??Subroutine12_0
   \   000008                ; // Fall through to label ??Subroutine12_0

   \                                 In  segment BANKED_CODE, align 1, keep-with-next
   \                     ?Subroutine2:
   \   000000   F0           MOVX    @DPTR,A
   \   000001   1A           DEC     R2
   \   000002   90....       MOV     DPTR,#__Constant_a
   \   000005   78..         MOV     R0,#?V0 + 0
   \   000007   22           RET

   \                                 In  segment BANK_RELAYS, align 1
   \                     ??TransmitApp_Init?relay:
   \   000000   12....       LCALL   ?BDISPATCH
   \   000003   ......       DC24    TransmitApp_Init

   \                                 In  segment BANK_RELAYS, align 1
   \                     ??TransmitApp_ProcessEvent?relay:
   \   000000   12....       LCALL   ?BDISPATCH
   \   000003   ......       DC24    TransmitApp_ProcessEvent

   \                                 In  segment BANK_RELAYS, align 1
   \                     ??TransmitApp_ProcessZDOMsgs?relay:
   \   000000   12....       LCALL   ?BDISPATCH
   \   000003   ......       DC24    TransmitApp_ProcessZDOMsgs

   \                                 In  segment BANK_RELAYS, align 1
   \                     ??TransmitApp_HandleKeys?relay:
   \   000000   12....       LCALL   ?BDISPATCH
   \   000003   ......       DC24    TransmitApp_HandleKeys

   \                                 In  segment BANK_RELAYS, align 1
   \                     ??TransmitApp_MessageMSGCB?relay:
   \   000000   12....       LCALL   ?BDISPATCH
   \   000003   ......       DC24    TransmitApp_MessageMSGCB

   \                                 In  segment BANK_RELAYS, align 1
   \                     ??TransmitApp_SendTheMessage?relay:
   \   000000   12....       LCALL   ?BDISPATCH
   \   000003   ......       DC24    TransmitApp_SendTheMessage

   \                                 In  segment BANK_RELAYS, align 1
   \                     ??TransmitApp_ChangeState?relay:
   \   000000   12....       LCALL   ?BDISPATCH
   \   000003   ......       DC24    TransmitApp_ChangeState

   \                                 In  segment BANK_RELAYS, align 1
   \                     ??TransmitApp_SetSendEvt?relay:
   \   000000   12....       LCALL   ?BDISPATCH
   \   000003   ......       DC24    TransmitApp_SetSendEvt

   \                                 In  segment BANK_RELAYS, align 1
   \                     ??TransmitApp_DisplayResults?relay:
   \   000000   12....       LCALL   ?BDISPATCH
   \   000003   ......       DC24    TransmitApp_DisplayResults

   \                                 In  segment XDATA_ROM_C, align 1
   \                     `?<Constant "TransmitApp">`:
   \   000000   5472616E     DB "TransmitApp"
   \            736D6974
   \            41707000

   \                                 In  segment XDATA_ROM_C, align 1
   \                     __Constant_0:
   \   000000   00000000     DD 0

   \                                 In  segment XDATA_ROM_C, align 1
   \                     __Constant_3e8:
   \   000000   E8030000     DD 1000

   \                                 In  segment XDATA_ROM_C, align 1
   \                     __Constant_186a0:
   \   000000   A0860100     DD 100000

   \                                 In  segment XDATA_ROM_C, align 1
   \                     __Constant_1869f:
   \   000000   9F860100     DD 99999

   \                                 In  segment XDATA_ROM_C, align 1
   \                     __Constant_a:
   \   000000   0A000000     DD 10
    821          
    822          /*********************************************************************
    823          *********************************************************************/

   Maximum stack usage in bytes:

     Function                       ISTACK PSTACK XSTACK
     --------                       ------ ------ ------
     TransmitApp_ChangeState            2      0     20
       -> TransmitApp_SetSendEvt        4      0      0
     TransmitApp_DisplayResults         1      0     65
       -> osal_GetSystemClock           0      0     90
       -> osal_GetSystemClock           0      0     90
       -> osal_memset                   0      0     90
       -> HalLcdWriteString             0      0     90
       -> osal_memset                   0      0     90
       -> HalLcdWriteString             0      0     90
       -> osal_stop_timerEx             0      0     90
     TransmitApp_HandleKeys             0      0     45
       -> TransmitApp_ChangeState       0      0     40
       -> HalLedSet                     0      0     40
       -> NLME_GetShortAddr             0      0     40
       -> ZDP_EndDeviceBindReq          0      0     58
       -> TransmitApp_DisplayResults
                                        0      0     40
       -> HalLedSet                     0      0     40
       -> ZDP_MatchDescReq              0      0     56
     TransmitApp_Init                   1      0     11
       -> afRegister                    0      0     22
       -> RegisterForKeys               0      0     22
       -> HalLcdWriteString             0      0     22
       -> afDataReqMTU                  0      0     22
       -> ZDO_RegisterForZDOMsg         0      0     22
       -> ZDO_RegisterForZDOMsg         0      0     22
     TransmitApp_MessageMSGCB           1      0     28
       -> HalLedSet                     0      0     24
       -> osal_start_timerEx            0      0     24
       -> osal_GetSystemClock           0      0     24
     TransmitApp_ProcessEvent           0      0     16
       -> osal_msg_receive              0      0     32
       -> osal_msg_deallocate           0      0     32
       -> osal_msg_receive              0      0     32
       -> TransmitApp_ProcessZDOMsgs
                                        0      0     32
       -> TransmitApp_HandleKeys        0      0     32
       -> osal_start_timerEx            0      0     32
       -> osal_GetSystemClock           0      0     32
       -> TransmitApp_SetSendEvt        0      0     32
       -> TransmitApp_MessageMSGCB      0      0     32
       -> TransmitApp_SendTheMessage
                                        0      0     32
       -> TransmitApp_SetSendEvt        0      0     32
       -> osal_start_timerEx            0      0     32
       -> TransmitApp_DisplayResults
                                        0      0     32
     TransmitApp_ProcessZDOMsgs         0      0     26
       -> HalLedSet                     0      0     20
       -> ZDO_ParseEPListRsp            0      0     20
       -> HalLedSet                     0      0     20
       -> osal_mem_free                 0      0     20
     TransmitApp_SendTheMessage         0      0     35
       -> AF_DataRequest                0      0     38
       -> osal_start_timerEx            0      0     20
     TransmitApp_SetSendEvt             2      0     16
       -> osal_set_event                4      0      0


   Segment part sizes:

     Function/Label                     Bytes
     --------------                     -----
     TransmitApp_Msg                     102
     TransmitApp_ClusterList               2
     TransmitApp_SimpleDesc               12
     TransmitApp_epDesc                    6
     TransmitApp_TaskID                    1
     TransmitApp_NwkState                  1
     TransmitApp_TransID                   1
     TransmitApp_DstAddr                  12
     TransmitApp_State                     1
     clkShdw                               4
     rxTotal                               4
     txTotal                               4
     rxAccum                               4
     txAccum                               4
     timerOn                               1
     timesToSend                           1
     pktCounter                            2
     TransmitApp_MaxDataLength             2
     TransmitApp_Init                    191
     ?Subroutine3                          8
     ?Subroutine6                         11
     TransmitApp_ProcessEvent            256
     ?Subroutine10                         6
     ??Subroutine11_0                     11
     ?Subroutine4                         10
     TransmitApp_ProcessZDOMsgs          137
     ?Subroutine0                          5
     ?Subroutine7                          9
     ?Subroutine5                         12
     TransmitApp_HandleKeys              297
     TransmitApp_MessageMSGCB            172
     ??Subroutine12_0                      5
     TransmitApp_SendTheMessage          166
     TransmitApp_ChangeState              25
     ?Subroutine1                          7
     TransmitApp_SetSendEvt               18
     TransmitApp_DisplayResults          693
     ?Subroutine9                          9
     ?Subroutine8                          8
     ?Subroutine2                          8
     ??TransmitApp_Init?relay              6
     ??TransmitApp_ProcessEvent?relay      6
     ??TransmitApp_ProcessZDOMsgs?relay    6
     ??TransmitApp_HandleKeys?relay        6
     ??TransmitApp_MessageMSGCB?relay      6
     ??TransmitApp_SendTheMessage?relay    6
     ??TransmitApp_ChangeState?relay       6
     ??TransmitApp_SetSendEvt?relay        6
     ??TransmitApp_DisplayResults?relay    6
     ?<Constant "TransmitApp">            12
     __Constant_0                          4
     __Constant_3e8                        4
     __Constant_186a0                      4
     __Constant_1869f                      4
     __Constant_a                          4

 
 2 064 bytes in segment BANKED_CODE
    54 bytes in segment BANK_RELAYS
    46 bytes in segment XDATA_ROM_C
   150 bytes in segment XDATA_Z
 
 2 118 bytes of CODE  memory
    26 bytes of CONST memory (+ 20 bytes shared)
   150 bytes of XDATA memory

Errors: none
Warnings: none
