///////////////////////////////////////////////////////////////////////////////
//                                                                            /
// IAR C/C++ Compiler V8.10.1.10194/W32 for 8051        13/Jul/2015  17:23:42 /
// Copyright 2004-2011 IAR Systems AB.                                        /
//                                                                            /
//    Core               =  plain                                             /
//    Code model         =  banked                                            /
//    Data model         =  large                                             /
//    Calling convention =  xdata reentrant                                   /
//    Constant location  =  data_rom                                          /
//    Dptr setup         =  1,16                                              /
//    Source file        =  C:\Texas Instruments\ZStack-CC2530-2.5.1a\Compone /
//                          nts\stack\af\AF.c                                 /
//    Command line       =  -f "C:\Texas Instruments\ZStack-CC2530-2.5.1a\Pro /
//                          jects\zstack\Samples\WirelessMonitorSystem\CC2530 /
//                          DB\..\..\..\Tools\CC2530DB\f8wEndev.cfg"          /
//                          (-DCPU32MHZ -DROOT=__near_func                    /
//                          -DMAC_CFG_TX_DATA_MAX=3 -DMAC_CFG_TX_MAX=6        /
//                          -DMAC_CFG_RX_MAX=3) -f "C:\Texas                  /
//                          Instruments\ZStack-CC2530-2.5.1a\Projects\zstack\ /
//                          Samples\WirelessMonitorSystem\CC2530DB\..\..\..\T /
//                          ools\CC2530DB\f8wConfig.cfg" (-DZIGBEEPRO         /
//                          -DSECURE=0 -DZG_SECURE_DYNAMIC=0 -DREFLECTOR      /
//                          -DDEFAULT_CHANLIST=0x00000800                     /
//                          -DZDAPP_CONFIG_PAN_ID=0xFFFF                      /
//                          -DNWK_START_DELAY=100 -DEXTENDED_JOINING_RANDOM_M /
//                          ASK=0x007F -DBEACON_REQUEST_DELAY=100             /
//                          -DBEACON_REQ_DELAY_MASK=0x00FF                    /
//                          -DLINK_STATUS_JITTER_MASK=0x007F                  /
//                          -DROUTE_EXPIRY_TIME=30 -DAPSC_ACK_WAIT_DURATION_P /
//                          OLLED=3000 -DNWK_INDIRECT_MSG_TIMEOUT=7           /
//                          -DMAX_RREQ_ENTRIES=8 -DAPSC_MAX_FRAME_RETRIES=3   /
//                          -DNWK_MAX_DATA_RETRIES=2                          /
//                          -DMAX_POLL_FAILURE_RETRIES=2 -DMAX_BCAST=9        /
//                          -DAPS_MAX_GROUPS=16 -DMAX_RTG_ENTRIES=40          /
//                          -DNWK_MAX_BINDING_ENTRIES=4                       /
//                          -DMAX_BINDING_CLUSTER_IDS=4                       /
//                          "-DDEFAULT_KEY={0x01, 0x03, 0x05, 0x07, 0x09,     /
//                          0x0B, 0x0D, 0x0F, 0x00, 0x02, 0x04, 0x06, 0x08,   /
//                          0x0A, 0x0C, 0x0D}" -DMAC_MAX_FRAME_SIZE=116       /
//                          -DZDNWKMGR_MIN_TRANSMISSIONS=20 "-DCONST=const    /
//                          __code" -DGENERIC=__generic                       /
//                          -DRFD_RCVC_ALWAYS_ON=FALSE -DPOLL_RATE=500        /
//                          -DQUEUED_POLL_RATE=30 -DRESPONSE_POLL_RATE=100)   /
//                          -DREJOIN_POLL_RATE=440 "C:\Texas                  /
//                          Instruments\ZStack-CC2530-2.5.1a\Components\stack /
//                          \af\AF.c" -D HAL_UART -lC "C:\Texas               /
//                          Instruments\ZStack-CC2530-2.5.1a\Projects\zstack\ /
//                          Samples\WirelessMonitorSystem\CC2530DB\Camera\Lis /
//                          t\" -lA "C:\Texas Instruments\ZStack-CC2530-2.5.1 /
//                          a\Projects\zstack\Samples\WirelessMonitorSystem\C /
//                          C2530DB\Camera\List\" --diag_suppress             /
//                          Pe001,Pa010 -o "C:\Texas                          /
//                          Instruments\ZStack-CC2530-2.5.1a\Projects\zstack\ /
//                          Samples\WirelessMonitorSystem\CC2530DB\Camera\Obj /
//                          \" -e --no_cse --no_unroll --no_inline            /
//                          --no_code_motion --no_tbaa --debug --core=plain   /
//                          --dptr=16,1 --data_model=large                    /
//                          --code_model=banked --calling_convention=xdata_re /
//                          entrant --place_constants=data_rom                /
//                          --nr_virtual_regs 16 -I "C:\Texas                 /
//                          Instruments\ZStack-CC2530-2.5.1a\Projects\zstack\ /
//                          Samples\WirelessMonitorSystem\CC2530DB\" -I       /
//                          "C:\Texas Instruments\ZStack-CC2530-2.5.1a\Projec /
//                          ts\zstack\Samples\WirelessMonitorSystem\CC2530DB\ /
//                          ..\Source\" -I "C:\Texas                          /
//                          Instruments\ZStack-CC2530-2.5.1a\Projects\zstack\ /
//                          Samples\WirelessMonitorSystem\CC2530DB\..\..\..\Z /
//                          Main\TI2530DB\" -I "C:\Texas                      /
//                          Instruments\ZStack-CC2530-2.5.1a\Projects\zstack\ /
//                          Samples\WirelessMonitorSystem\CC2530DB\..\..\..\. /
//                          .\..\Components\hal\include\" -I "C:\Texas        /
//                          Instruments\ZStack-CC2530-2.5.1a\Projects\zstack\ /
//                          Samples\WirelessMonitorSystem\CC2530DB\..\..\..\. /
//                          .\..\Components\hal\target\CC2530EB\" -I          /
//                          "C:\Texas Instruments\ZStack-CC2530-2.5.1a\Projec /
//                          ts\zstack\Samples\WirelessMonitorSystem\CC2530DB\ /
//                          ..\..\..\..\..\Components\mac\include\" -I        /
//                          "C:\Texas Instruments\ZStack-CC2530-2.5.1a\Projec /
//                          ts\zstack\Samples\WirelessMonitorSystem\CC2530DB\ /
//                          ..\..\..\..\..\Components\mac\high_level\" -I     /
//                          "C:\Texas Instruments\ZStack-CC2530-2.5.1a\Projec /
//                          ts\zstack\Samples\WirelessMonitorSystem\CC2530DB\ /
//                          ..\..\..\..\..\Components\mac\low_level\srf04\"   /
//                          -I "C:\Texas Instruments\ZStack-CC2530-2.5.1a\Pro /
//                          jects\zstack\Samples\WirelessMonitorSystem\CC2530 /
//                          DB\..\..\..\..\..\Components\mac\low_level\srf04\ /
//                          single_chip\" -I "C:\Texas                        /
//                          Instruments\ZStack-CC2530-2.5.1a\Projects\zstack\ /
//                          Samples\WirelessMonitorSystem\CC2530DB\..\..\..\. /
//                          .\..\Components\mt\" -I "C:\Texas                 /
//                          Instruments\ZStack-CC2530-2.5.1a\Projects\zstack\ /
//                          Samples\WirelessMonitorSystem\CC2530DB\..\..\..\. /
//                          .\..\Components\osal\include\" -I "C:\Texas       /
//                          Instruments\ZStack-CC2530-2.5.1a\Projects\zstack\ /
//                          Samples\WirelessMonitorSystem\CC2530DB\..\..\..\. /
//                          .\..\Components\services\saddr\" -I "C:\Texas     /
//                          Instruments\ZStack-CC2530-2.5.1a\Projects\zstack\ /
//                          Samples\WirelessMonitorSystem\CC2530DB\..\..\..\. /
//                          .\..\Components\services\sdata\" -I "C:\Texas     /
//                          Instruments\ZStack-CC2530-2.5.1a\Projects\zstack\ /
//                          Samples\WirelessMonitorSystem\CC2530DB\..\..\..\. /
//                          .\..\Components\stack\af\" -I "C:\Texas           /
//                          Instruments\ZStack-CC2530-2.5.1a\Projects\zstack\ /
//                          Samples\WirelessMonitorSystem\CC2530DB\..\..\..\. /
//                          .\..\Components\stack\nwk\" -I "C:\Texas          /
//                          Instruments\ZStack-CC2530-2.5.1a\Projects\zstack\ /
//                          Samples\WirelessMonitorSystem\CC2530DB\..\..\..\. /
//                          .\..\Components\stack\sapi\" -I "C:\Texas         /
//                          Instruments\ZStack-CC2530-2.5.1a\Projects\zstack\ /
//                          Samples\WirelessMonitorSystem\CC2530DB\..\..\..\. /
//                          .\..\Components\stack\sec\" -I "C:\Texas          /
//                          Instruments\ZStack-CC2530-2.5.1a\Projects\zstack\ /
//                          Samples\WirelessMonitorSystem\CC2530DB\..\..\..\. /
//                          .\..\Components\stack\sys\" -I "C:\Texas          /
//                          Instruments\ZStack-CC2530-2.5.1a\Projects\zstack\ /
//                          Samples\WirelessMonitorSystem\CC2530DB\..\..\..\. /
//                          .\..\Components\stack\zdo\" -I "C:\Texas          /
//                          Instruments\ZStack-CC2530-2.5.1a\Projects\zstack\ /
//                          Samples\WirelessMonitorSystem\CC2530DB\..\..\..\. /
//                          .\..\Components\zmac\" -I "C:\Texas               /
//                          Instruments\ZStack-CC2530-2.5.1a\Projects\zstack\ /
//                          Samples\WirelessMonitorSystem\CC2530DB\..\..\..\. /
//                          .\..\Components\zmac\f8w\" -On                    /
//                          --require_prototypes                              /
//    List file          =  C:\Texas Instruments\ZStack-CC2530-2.5.1a\Project /
//                          s\zstack\Samples\WirelessMonitorSystem\CC2530DB\C /
//                          amera\List\AF.s51                                 /
//                                                                            /
//                                                                            /
///////////////////////////////////////////////////////////////////////////////

        NAME AF

        RTMODEL "__SystemLibrary", "CLib"
        RTMODEL "__calling_convention", "xdata_reentrant"
        RTMODEL "__code_model", "banked"
        RTMODEL "__core", "plain"
        RTMODEL "__data_model", "large"
        RTMODEL "__dptr_size", "16"
        RTMODEL "__extended_stack", "disabled"
        RTMODEL "__location_for_constants", "data"
        RTMODEL "__number_of_dptrs", "1"
        RTMODEL "__rt_version", "1"

        RSEG DOVERLAY:DATA:NOROOT(0)
        RSEG IOVERLAY:IDATA:NOROOT(0)
        RSEG ISTACK:IDATA:NOROOT(0)
        RSEG PSTACK:XDATA:NOROOT(0)
        RSEG XSTACK:XDATA:NOROOT(0)

        EXTERN ?ALLOC_XSTACK8
        EXTERN ?BANKED_ENTER_XDATA
        EXTERN ?BANKED_LEAVE_XDATA
        EXTERN ?BDISPATCH
        EXTERN ?BRET
        EXTERN ?CALL_IND
        EXTERN ?DEALLOC_XSTACK8
        EXTERN ?L_MOV_TO_X
        EXTERN ?L_MOV_X
        EXTERN ?PUSH_XSTACK8_X_TWO
        EXTERN ?PUSH_XSTACK_I_FOUR
        EXTERN ?PUSH_XSTACK_I_ONE
        EXTERN ?PUSH_XSTACK_I_THREE
        EXTERN ?PUSH_XSTACK_I_TWO
        EXTERN ?V0
        EXTERN ?XSP
        EXTERN ?XSTACK_DISP0_8
        EXTERN __INIT_XDATA_I
        EXTERN __INIT_XDATA_Z

        PUBLIC ??AF_DataRequest?relay
        FUNCTION ??AF_DataRequest?relay,0203H
        PUBLIC ??AF_DataRequestSrcRtg?relay
        FUNCTION ??AF_DataRequestSrcRtg?relay,0203H
        PUBLIC ??afAPSF_ConfigGet?relay
        FUNCTION ??afAPSF_ConfigGet?relay,0203H
        PUBLIC ??afAPSF_ConfigSet?relay
        FUNCTION ??afAPSF_ConfigSet?relay,0203H
        FUNCTION ??afBuildMSGIncoming?relay,0203H
        PUBLIC ??afCopyAddress?relay
        FUNCTION ??afCopyAddress?relay,0203H
        PUBLIC ??afDataConfirm?relay
        FUNCTION ??afDataConfirm?relay,0203H
        PUBLIC ??afDataReqMTU?relay
        FUNCTION ??afDataReqMTU?relay,0203H
        PUBLIC ??afDelete?relay
        FUNCTION ??afDelete?relay,0203H
        PUBLIC ??afEndPoints?relay
        FUNCTION ??afEndPoints?relay,0203H
        PUBLIC ??afFindEndPointDesc?relay
        FUNCTION ??afFindEndPointDesc?relay,0203H
        FUNCTION ??afFindEndPointDescList?relay,0203H
        PUBLIC ??afFindSimpleDesc?relay
        FUNCTION ??afFindSimpleDesc?relay,0203H
        FUNCTION ??afGetDescCB?relay,0203H
        PUBLIC ??afGetMatch?relay
        FUNCTION ??afGetMatch?relay,0203H
        PUBLIC ??afIncomingData?relay
        FUNCTION ??afIncomingData?relay,0203H
        PUBLIC ??afNumEndPoints?relay
        FUNCTION ??afNumEndPoints?relay,0203H
        PUBLIC ??afRegister?relay
        FUNCTION ??afRegister?relay,0203H
        PUBLIC ??afRegisterExtended?relay
        FUNCTION ??afRegisterExtended?relay,0203H
        PUBLIC ??afSetMatch?relay
        FUNCTION ??afSetMatch?relay,0203H
        PUBLIC AF_DataRequest
        FUNCTION AF_DataRequest,021203H
        ARGFRAME XSTACK, 33, STACK
        ARGFRAME IOVERLAY, 0, STATIC
        ARGFRAME DOVERLAY, 0, STATIC
        LOCFRAME ISTACK, 2, STACK
        LOCFRAME XSTACK, 56, STACK
        PUBLIC AF_DataRequestDiscoverRoute
        PUBLIC AF_DataRequestSrcRtg
        FUNCTION AF_DataRequestSrcRtg,021203H
        ARGFRAME XSTACK, 12, STACK
        LOCFRAME XSTACK, 33, STACK
        PUBLIC afAPSF_ConfigGet
        FUNCTION afAPSF_ConfigGet,021203H
        ARGFRAME XSTACK, 0, STACK
        LOCFRAME XSTACK, 18, STACK
        PUBLIC afAPSF_ConfigSet
        FUNCTION afAPSF_ConfigSet,021203H
        ARGFRAME XSTACK, 0, STACK
        LOCFRAME XSTACK, 18, STACK
        FUNCTION afBuildMSGIncoming,021203H
        ARGFRAME XSTACK, 40, STACK
        ARGFRAME IOVERLAY, 0, STATIC
        ARGFRAME DOVERLAY, 0, STATIC
        LOCFRAME ISTACK, 1, STACK
        LOCFRAME XSTACK, 29, STACK
        PUBLIC afCopyAddress
        FUNCTION afCopyAddress,021203H
        ARGFRAME XSTACK, 26, STACK
        ARGFRAME IOVERLAY, 0, STATIC
        ARGFRAME DOVERLAY, 0, STATIC
        LOCFRAME ISTACK, 1, STACK
        LOCFRAME XSTACK, 12, STACK
        PUBLIC afDataConfirm
        FUNCTION afDataConfirm,021203H
        ARGFRAME XSTACK, 56, STACK
        ARGFRAME IOVERLAY, 0, STATIC
        ARGFRAME DOVERLAY, 0, STATIC
        LOCFRAME ISTACK, 1, STACK
        LOCFRAME XSTACK, 16, STACK
        PUBLIC afDataReqMTU
        FUNCTION afDataReqMTU,021203H
        ARGFRAME XSTACK, 56, STACK
        ARGFRAME IOVERLAY, 0, STATIC
        ARGFRAME DOVERLAY, 0, STATIC
        LOCFRAME XSTACK, 10, STACK
        PUBLIC afDelete
        FUNCTION afDelete,021203H
        ARGFRAME XSTACK, 0, STACK
        LOCFRAME XSTACK, 11, STACK
        PUBLIC afEndPoints
        FUNCTION afEndPoints,0203H
        ARGFRAME XSTACK, 0, STACK
        LOCFRAME ISTACK, 1, STACK
        LOCFRAME XSTACK, 9, STACK
        PUBLIC afFindEndPointDesc
        FUNCTION afFindEndPointDesc,021203H
        ARGFRAME XSTACK, 29, STACK
        ARGFRAME IOVERLAY, 0, STATIC
        ARGFRAME DOVERLAY, 0, STATIC
        LOCFRAME XSTACK, 12, STACK
        FUNCTION afFindEndPointDescList,0203H
        ARGFRAME XSTACK, 29, STACK
        ARGFRAME IOVERLAY, 0, STATIC
        ARGFRAME DOVERLAY, 0, STATIC
        LOCFRAME ISTACK, 2, STACK
        PUBLIC afFindSimpleDesc
        FUNCTION afFindSimpleDesc,021203H
        ARGFRAME XSTACK, 0, STACK
        LOCFRAME XSTACK, 14, STACK
        FUNCTION afGetDescCB,0203H
        ARGFRAME XSTACK, 56, STACK
        ARGFRAME IOVERLAY, 0, STATIC
        ARGFRAME DOVERLAY, 0, STATIC
        LOCFRAME ISTACK, 2, STACK
        PUBLIC afGetMatch
        FUNCTION afGetMatch,021203H
        ARGFRAME XSTACK, 0, STACK
        LOCFRAME XSTACK, 12, STACK
        PUBLIC afIncomingData
        FUNCTION afIncomingData,021203H
        ARGFRAME XSTACK, 9, STACK
        LOCFRAME ISTACK, 1, STACK
        LOCFRAME XSTACK, 40, STACK
        PUBLIC afNumEndPoints
        FUNCTION afNumEndPoints,0203H
        ARGFRAME XSTACK, 0, STACK
        LOCFRAME ISTACK, 2, STACK
        PUBLIC afRegister
        FUNCTION afRegister,021203H
        ARGFRAME XSTACK, 0, STACK
        LOCFRAME XSTACK, 10, STACK
        PUBLIC afRegisterExtended
        FUNCTION afRegisterExtended,021203H
        ARGFRAME XSTACK, 10, STACK
        ARGFRAME IOVERLAY, 0, STATIC
        ARGFRAME DOVERLAY, 0, STATIC
        LOCFRAME XSTACK, 12, STACK
        PUBLIC afSetMatch
        FUNCTION afSetMatch,021203H
        ARGFRAME XSTACK, 0, STACK
        LOCFRAME XSTACK, 12, STACK
        PUBLIC epList
        
        CFI Names cfiNames0
        CFI StackFrame CFA_SP SP IDATA
        CFI StackFrame CFA_PSP16 PSP16 XDATA
        CFI StackFrame CFA_XSP16 XSP16 XDATA
        CFI StaticOverlayFrame CFA_IOVERLAY IOVERLAY
        CFI StaticOverlayFrame CFA_DOVERLAY DOVERLAY
        CFI Resource `PSW.CY`:1, `B.BR0`:1, `B.BR1`:1, `B.BR2`:1, `B.BR3`:1
        CFI Resource `B.BR4`:1, `B.BR5`:1, `B.BR6`:1, `B.BR7`:1, `VB.BR8`:1
        CFI Resource `VB.BR9`:1, `VB.BR10`:1, `VB.BR11`:1, `VB.BR12`:1
        CFI Resource `VB.BR13`:1, `VB.BR14`:1, `VB.BR15`:1, VB:8, B:8, A:8
        CFI Resource PSW:8, DPL0:8, DPH0:8, R0:8, R1:8, R2:8, R3:8, R4:8, R5:8
        CFI Resource R6:8, R7:8, V0:8, V1:8, V2:8, V3:8, V4:8, V5:8, V6:8, V7:8
        CFI Resource V8:8, V9:8, V10:8, V11:8, V12:8, V13:8, V14:8, V15:8, SP:8
        CFI Resource PSPH:8, PSPL:8, PSP16:16, XSPH:8, XSPL:8, XSP16:16
        CFI VirtualResource ?RET:24
        CFI Resource ?BRET_EXT:8
        CFI VirtualResource ?RET_HIGH:8, ?RET_LOW:8
        CFI ResourceParts PSP16 PSPH, PSPL
        CFI ResourceParts XSP16 XSPH, XSPL
        CFI ResourceParts ?RET ?BRET_EXT, ?RET_HIGH, ?RET_LOW
        CFI EndNames cfiNames0
        
        CFI Common cfiCommon0 Using cfiNames0
        CFI CodeAlign 1
        CFI DataAlign -1
        CFI ReturnAddress ?RET CODE
        CFI CFA_DOVERLAY Used
        CFI CFA_IOVERLAY Used
        CFI CFA_SP SP+-3
        CFI CFA_PSP16 PSP16+0
        CFI CFA_XSP16 XSP16+0
        CFI `PSW.CY` SameValue
        CFI `B.BR0` SameValue
        CFI `B.BR1` SameValue
        CFI `B.BR2` SameValue
        CFI `B.BR3` SameValue
        CFI `B.BR4` SameValue
        CFI `B.BR5` SameValue
        CFI `B.BR6` SameValue
        CFI `B.BR7` SameValue
        CFI `VB.BR8` SameValue
        CFI `VB.BR9` SameValue
        CFI `VB.BR10` SameValue
        CFI `VB.BR11` SameValue
        CFI `VB.BR12` SameValue
        CFI `VB.BR13` SameValue
        CFI `VB.BR14` SameValue
        CFI `VB.BR15` SameValue
        CFI VB SameValue
        CFI B Undefined
        CFI A Undefined
        CFI PSW SameValue
        CFI DPL0 SameValue
        CFI DPH0 SameValue
        CFI R0 Undefined
        CFI R1 Undefined
        CFI R2 Undefined
        CFI R3 Undefined
        CFI R4 Undefined
        CFI R5 Undefined
        CFI R6 SameValue
        CFI R7 SameValue
        CFI V0 SameValue
        CFI V1 SameValue
        CFI V2 SameValue
        CFI V3 SameValue
        CFI V4 SameValue
        CFI V5 SameValue
        CFI V6 SameValue
        CFI V7 SameValue
        CFI V8 SameValue
        CFI V9 SameValue
        CFI V10 SameValue
        CFI V11 SameValue
        CFI V12 SameValue
        CFI V13 SameValue
        CFI V14 SameValue
        CFI V15 SameValue
        CFI PSPH Undefined
        CFI PSPL Undefined
        CFI XSPH Undefined
        CFI XSPL Undefined
        CFI ?RET Concat
        CFI ?BRET_EXT Frame(CFA_SP, 3)
        CFI ?RET_HIGH Frame(CFA_SP, 2)
        CFI ?RET_LOW Frame(CFA_SP, 1)
        CFI EndCommon cfiCommon0
        
osal_mem_alloc      SYMBOL "osal_mem_alloc"
osal_mem_free       SYMBOL "osal_mem_free"
osal_msg_allocate   SYMBOL "osal_msg_allocate"
osal_msg_send       SYMBOL "osal_msg_send"
aps_FindGroupForEndpoint SYMBOL "aps_FindGroupForEndpoint"
osal_memcpy         SYMBOL "osal_memcpy"
NLME_GetShortAddr   SYMBOL "NLME_GetShortAddr"
RTG_CheckRtStatus   SYMBOL "RTG_CheckRtStatus"
NLME_IsAddressBroadcast SYMBOL "NLME_IsAddressBroadcast"
sAddrExtCpy         SYMBOL "sAddrExtCpy"
APSDE_DataReq       SYMBOL "APSDE_DataReq"
RTG_AddSrcRtgEntry_Guaranteed SYMBOL "RTG_AddSrcRtgEntry_Guaranteed"
APSDE_DataReqMTU    SYMBOL "APSDE_DataReqMTU"
??APSDE_DataReq?relay SYMBOL "?relay", APSDE_DataReq
??APSDE_DataReqMTU?relay SYMBOL "?relay", APSDE_DataReqMTU
??NLME_GetShortAddr?relay SYMBOL "?relay", NLME_GetShortAddr
??NLME_IsAddressBroadcast?relay SYMBOL "?relay", NLME_IsAddressBroadcast
??RTG_AddSrcRtgEntry_Guaranteed?relay SYMBOL "?relay", RTG_AddSrcRtgEntry_Guaranteed
??RTG_CheckRtStatus?relay SYMBOL "?relay", RTG_CheckRtStatus
??aps_FindGroupForEndpoint?relay SYMBOL "?relay", aps_FindGroupForEndpoint
??osal_mem_alloc?relay SYMBOL "?relay", osal_mem_alloc
??osal_mem_free?relay SYMBOL "?relay", osal_mem_free
??osal_memcpy?relay SYMBOL "?relay", osal_memcpy
??osal_msg_allocate?relay SYMBOL "?relay", osal_msg_allocate
??osal_msg_send?relay SYMBOL "?relay", osal_msg_send
??sAddrExtCpy?relay SYMBOL "?relay", sAddrExtCpy
AF_DataRequest      SYMBOL "AF_DataRequest"
??AF_DataRequest?relay SYMBOL "?relay", AF_DataRequest
AF_DataRequestSrcRtg SYMBOL "AF_DataRequestSrcRtg"
??AF_DataRequestSrcRtg?relay SYMBOL "?relay", AF_DataRequestSrcRtg
afAPSF_ConfigGet    SYMBOL "afAPSF_ConfigGet"
??afAPSF_ConfigGet?relay SYMBOL "?relay", afAPSF_ConfigGet
afAPSF_ConfigSet    SYMBOL "afAPSF_ConfigSet"
??afAPSF_ConfigSet?relay SYMBOL "?relay", afAPSF_ConfigSet
afCopyAddress       SYMBOL "afCopyAddress"
??afCopyAddress?relay SYMBOL "?relay", afCopyAddress
afDataConfirm       SYMBOL "afDataConfirm"
??afDataConfirm?relay SYMBOL "?relay", afDataConfirm
afDataReqMTU        SYMBOL "afDataReqMTU"
??afDataReqMTU?relay SYMBOL "?relay", afDataReqMTU
afDelete            SYMBOL "afDelete"
??afDelete?relay    SYMBOL "?relay", afDelete
afEndPoints         SYMBOL "afEndPoints"
??afEndPoints?relay SYMBOL "?relay", afEndPoints
afFindEndPointDesc  SYMBOL "afFindEndPointDesc"
??afFindEndPointDesc?relay SYMBOL "?relay", afFindEndPointDesc
afFindSimpleDesc    SYMBOL "afFindSimpleDesc"
??afFindSimpleDesc?relay SYMBOL "?relay", afFindSimpleDesc
afGetMatch          SYMBOL "afGetMatch"
??afGetMatch?relay  SYMBOL "?relay", afGetMatch
afIncomingData      SYMBOL "afIncomingData"
??afIncomingData?relay SYMBOL "?relay", afIncomingData
afNumEndPoints      SYMBOL "afNumEndPoints"
??afNumEndPoints?relay SYMBOL "?relay", afNumEndPoints
afRegister          SYMBOL "afRegister"
??afRegister?relay  SYMBOL "?relay", afRegister
afRegisterExtended  SYMBOL "afRegisterExtended"
??afRegisterExtended?relay SYMBOL "?relay", afRegisterExtended
afSetMatch          SYMBOL "afSetMatch"
??afSetMatch?relay  SYMBOL "?relay", afSetMatch

        EXTERN osal_mem_alloc
        FUNCTION osal_mem_alloc,0202H
        ARGFRAME ISTACK, 0, STACK
        ARGFRAME PSTACK, 0, STACK
        ARGFRAME XSTACK, 12, STACK
        ARGFRAME IOVERLAY, 0, STATIC
        ARGFRAME DOVERLAY, 0, STATIC
        EXTERN osal_mem_free
        FUNCTION osal_mem_free,0202H
        ARGFRAME ISTACK, 0, STACK
        ARGFRAME PSTACK, 0, STACK
        ARGFRAME XSTACK, 56, STACK
        ARGFRAME IOVERLAY, 0, STATIC
        ARGFRAME DOVERLAY, 0, STATIC
        EXTERN osal_msg_allocate
        FUNCTION osal_msg_allocate,0202H
        ARGFRAME ISTACK, 0, STACK
        ARGFRAME PSTACK, 0, STACK
        ARGFRAME XSTACK, 26, STACK
        ARGFRAME IOVERLAY, 0, STATIC
        ARGFRAME DOVERLAY, 0, STATIC
        EXTERN osal_msg_send
        FUNCTION osal_msg_send,0202H
        ARGFRAME ISTACK, 0, STACK
        ARGFRAME PSTACK, 0, STACK
        ARGFRAME XSTACK, 26, STACK
        ARGFRAME IOVERLAY, 0, STATIC
        ARGFRAME DOVERLAY, 0, STATIC
        EXTERN aps_FindGroupForEndpoint
        FUNCTION aps_FindGroupForEndpoint,0202H
        ARGFRAME ISTACK, 0, STACK
        ARGFRAME PSTACK, 0, STACK
        ARGFRAME XSTACK, 29, STACK
        ARGFRAME IOVERLAY, 0, STATIC
        ARGFRAME DOVERLAY, 0, STATIC
        EXTERN osal_memcpy
        FUNCTION osal_memcpy,0202H
        ARGFRAME ISTACK, 0, STACK
        ARGFRAME PSTACK, 0, STACK
        ARGFRAME XSTACK, 29, STACK
        ARGFRAME IOVERLAY, 0, STATIC
        ARGFRAME DOVERLAY, 0, STATIC
        EXTERN NLME_GetShortAddr
        FUNCTION NLME_GetShortAddr,0202H
        ARGFRAME ISTACK, 2, STACK
        ARGFRAME PSTACK, 0, STACK
        ARGFRAME XSTACK, 56, STACK
        ARGFRAME IOVERLAY, 0, STATIC
        ARGFRAME DOVERLAY, 0, STATIC
        EXTERN RTG_CheckRtStatus
        FUNCTION RTG_CheckRtStatus,0202H
        ARGFRAME ISTACK, 0, STACK
        ARGFRAME PSTACK, 0, STACK
        ARGFRAME XSTACK, 56, STACK
        ARGFRAME IOVERLAY, 0, STATIC
        ARGFRAME DOVERLAY, 0, STATIC
        EXTERN NLME_IsAddressBroadcast
        FUNCTION NLME_IsAddressBroadcast,0202H
        ARGFRAME ISTACK, 0, STACK
        ARGFRAME PSTACK, 0, STACK
        ARGFRAME XSTACK, 56, STACK
        ARGFRAME IOVERLAY, 0, STATIC
        ARGFRAME DOVERLAY, 0, STATIC
        EXTERN sAddrExtCpy
        FUNCTION sAddrExtCpy,0202H
        ARGFRAME ISTACK, 0, STACK
        ARGFRAME PSTACK, 0, STACK
        ARGFRAME XSTACK, 56, STACK
        ARGFRAME IOVERLAY, 0, STATIC
        ARGFRAME DOVERLAY, 0, STATIC
        EXTERN APSDE_DataReq
        FUNCTION APSDE_DataReq,0202H
        ARGFRAME ISTACK, 0, STACK
        ARGFRAME PSTACK, 0, STACK
        ARGFRAME XSTACK, 56, STACK
        ARGFRAME IOVERLAY, 0, STATIC
        ARGFRAME DOVERLAY, 0, STATIC
        EXTERN RTG_AddSrcRtgEntry_Guaranteed
        FUNCTION RTG_AddSrcRtgEntry_Guaranteed,0202H
        ARGFRAME ISTACK, 0, STACK
        ARGFRAME PSTACK, 0, STACK
        ARGFRAME XSTACK, 24, STACK
        ARGFRAME IOVERLAY, 0, STATIC
        ARGFRAME DOVERLAY, 0, STATIC
        EXTERN APSDE_DataReqMTU
        FUNCTION APSDE_DataReqMTU,0202H
        ARGFRAME ISTACK, 0, STACK
        ARGFRAME PSTACK, 0, STACK
        ARGFRAME XSTACK, 10, STACK
        ARGFRAME IOVERLAY, 0, STATIC
        ARGFRAME DOVERLAY, 0, STATIC
        EXTERN ??APSDE_DataReq?relay
        FUNCTION ??APSDE_DataReq?relay,00H
        EXTERN ??APSDE_DataReqMTU?relay
        FUNCTION ??APSDE_DataReqMTU?relay,00H
        EXTERN ??NLME_GetShortAddr?relay
        FUNCTION ??NLME_GetShortAddr?relay,00H
        EXTERN ??NLME_IsAddressBroadcast?relay
        FUNCTION ??NLME_IsAddressBroadcast?relay,00H
        EXTERN ??RTG_AddSrcRtgEntry_Guaranteed?relay
        FUNCTION ??RTG_AddSrcRtgEntry_Guaranteed?relay,00H
        EXTERN ??RTG_CheckRtStatus?relay
        FUNCTION ??RTG_CheckRtStatus?relay,00H
        EXTERN ??aps_FindGroupForEndpoint?relay
        FUNCTION ??aps_FindGroupForEndpoint?relay,00H
        EXTERN ??osal_mem_alloc?relay
        FUNCTION ??osal_mem_alloc?relay,00H
        EXTERN ??osal_mem_free?relay
        FUNCTION ??osal_mem_free?relay,00H
        EXTERN ??osal_memcpy?relay
        FUNCTION ??osal_memcpy?relay,00H
        EXTERN ??osal_msg_allocate?relay
        FUNCTION ??osal_msg_allocate?relay,00H
        EXTERN ??osal_msg_send?relay
        FUNCTION ??osal_msg_send?relay,00H
        EXTERN ??sAddrExtCpy?relay
        FUNCTION ??sAddrExtCpy?relay,00H
        EXTERN apsfSendFragmented

// C:\Texas Instruments\ZStack-CC2530-2.5.1a\Components\stack\af\AF.c
//    1 /**************************************************************************************************
//    2   Filename:       AF.c
//    3   Revised:        $Date: 2011-11-18 16:03:29 -0800 (Fri, 18 Nov 2011) $
//    4   Revision:       $Revision: 28423 $
//    5 
//    6   Description:    Application Framework - Device Description helper functions
//    7 
//    8 
//    9   Copyright 2004-2011 Texas Instruments Incorporated. All rights reserved.
//   10 
//   11   IMPORTANT: Your use of this Software is limited to those specific rights
//   12   granted under the terms of a software license agreement between the user
//   13   who downloaded the software, his/her employer (which must be your employer)
//   14   and Texas Instruments Incorporated (the "License").  You may not use this
//   15   Software unless you agree to abide by the terms of the License. The License
//   16   limits your use, and you acknowledge, that the Software may not be modified,
//   17   copied or distributed unless embedded on a Texas Instruments microcontroller
//   18   or used solely and exclusively in conjunction with a Texas Instruments radio
//   19   frequency transceiver, which is integrated into your product.  Other than for
//   20   the foregoing purpose, you may not use, reproduce, copy, prepare derivative
//   21   works of, modify, distribute, perform, display or sell this Software and/or
//   22   its documentation for any purpose.
//   23 
//   24   YOU FURTHER ACKNOWLEDGE AND AGREE THAT THE SOFTWARE AND DOCUMENTATION ARE
//   25   PROVIDED “AS IS” WITHOUT WARRANTY OF ANY KIND, EITHER EXPRESS OR IMPLIED,
//   26   INCLUDING WITHOUT LIMITATION, ANY WARRANTY OF MERCHANTABILITY, TITLE,
//   27   NON-INFRINGEMENT AND FITNESS FOR A PARTICULAR PURPOSE. IN NO EVENT SHALL
//   28   TEXAS INSTRUMENTS OR ITS LICENSORS BE LIABLE OR OBLIGATED UNDER CONTRACT,
//   29   NEGLIGENCE, STRICT LIABILITY, CONTRIBUTION, BREACH OF WARRANTY, OR OTHER
//   30   LEGAL EQUITABLE THEORY ANY DIRECT OR INDIRECT DAMAGES OR EXPENSES
//   31   INCLUDING BUT NOT LIMITED TO ANY INCIDENTAL, SPECIAL, INDIRECT, PUNITIVE
//   32   OR CONSEQUENTIAL DAMAGES, LOST PROFITS OR LOST DATA, COST OF PROCUREMENT
//   33   OF SUBSTITUTE GOODS, TECHNOLOGY, SERVICES, OR ANY CLAIMS BY THIRD PARTIES
//   34   (INCLUDING BUT NOT LIMITED TO ANY DEFENSE THEREOF), OR OTHER SIMILAR COSTS.
//   35 
//   36   Should you have any questions regarding your right to use this Software,
//   37   contact Texas Instruments Incorporated at www.TI.com.
//   38 **************************************************************************************************/
//   39 
//   40 /*********************************************************************
//   41  * INCLUDES
//   42  */
//   43 
//   44 #include "OSAL.h"
//   45 #include "AF.h"
//   46 #include "nwk_globals.h"
//   47 #include "nwk_util.h"
//   48 #include "aps_groups.h"
//   49 #include "ZDProfile.h"
//   50 #include "aps_frag.h"
//   51 #include "rtg.h"
//   52 
//   53 #if defined ( MT_AF_CB_FUNC )
//   54   #include "MT_AF.h"
//   55 #endif
//   56 
//   57 #if defined ( INTER_PAN )
//   58   #include "stub_aps.h"
//   59 #endif
//   60 
//   61 /*********************************************************************
//   62  * MACROS
//   63  */
//   64 
//   65 /*********************************************************************
//   66  * @fn      afSend
//   67  *
//   68  * @brief   Helper macro for V1 API to invoke V2 API.
//   69  *
//   70  * input parameters
//   71  *
//   72  * @param  *dstAddr - Full ZB destination address: Nwk Addr + End Point.
//   73  * @param   srcEP - Origination (i.e. respond to or ack to) End Point.
//   74  * @param   cID - A valid cluster ID as specified by the Profile.
//   75  * @param   len - Number of bytes of data pointed to by next param.
//   76  * @param  *buf - A pointer to the data bytes to send.
//   77  * @param   options - Valid bit mask of AF Tx Options as defined in AF.h.
//   78  * @param  *transID - A pointer to a byte which can be modified and which will
//   79  *                    be used as the transaction sequence number of the msg.
//   80  *
//   81  * output parameters
//   82  *
//   83  * @param  *transID - Incremented by one if the return value is success.
//   84  *
//   85  * @return  afStatus_t - See previous definition of afStatus_... types.
//   86  */
//   87 #define afSend( dstAddr, srcEP, cID, len, buf, transID, options, radius ) \ 
//   88         AF_DataRequest( (dstAddr), afFindEndPointDesc( (srcEP) ), \ 
//   89                           (cID), (len), (buf), (transID), (options), (radius) )
//   90 
//   91 /*********************************************************************
//   92  * GLOBAL VARIABLES
//   93  */
//   94 

        RSEG XDATA_Z:XDATA:NOROOT(0)
        DATA16
//   95 epList_t *epList;
epList:
        DS 2
        REQUIRE __INIT_XDATA_Z
//   96 
//   97 /*********************************************************************
//   98  * LOCAL FUNCTIONS
//   99  */
//  100 
//  101 static void afBuildMSGIncoming( aps_FrameFormat_t *aff, endPointDesc_t *epDesc,
//  102                 zAddrType_t *SrcAddress, uint16 SrcPanId, NLDE_Signal_t *sig,
//  103                 uint8 nwkSeqNum, uint8 SecurityUse, uint32 timestamp );
//  104 
//  105 static epList_t *afFindEndPointDescList( uint8 EndPoint );
//  106 
//  107 static pDescCB afGetDescCB( endPointDesc_t *epDesc );
//  108 
//  109 /*********************************************************************
//  110  * PUBLIC FUNCTIONS
//  111  */
//  112 
//  113 /*********************************************************************
//  114  * @fn      afInit
//  115  *
//  116  * @brief   Initialization function for the AF.
//  117  *
//  118  * @param   none
//  119  *
//  120  * @return  none
//  121 void afInit( void )
//  122 {
//  123 }
//  124  */
//  125 
//  126 /*********************************************************************
//  127  * @fn      afRegisterExtended
//  128  *
//  129  * @brief   Register an Application's EndPoint description.
//  130  *
//  131  * @param   epDesc - pointer to the Application's endpoint descriptor.
//  132  * @param   descFn - pointer to descriptor callback function
//  133  *
//  134  * NOTE:  The memory that epDesc is pointing to must exist after this call.
//  135  *
//  136  * @return  Pointer to epList_t on success, NULL otherwise.
//  137  */

        RSEG BANKED_CODE:CODE:NOROOT(0)
//  138 epList_t *afRegisterExtended( endPointDesc_t *epDesc, pDescCB descFn )
afRegisterExtended:
        CFI Block cfiBlock0 Using cfiCommon0
        CFI Function afRegisterExtended
        CODE
//  139 {
        FUNCALL afRegisterExtended, osal_mem_alloc
        LOCFRAME ISTACK, 0, STACK
        LOCFRAME PSTACK, 0, STACK
        LOCFRAME XSTACK, 12, STACK
        LOCFRAME IOVERLAY, 0, STATIC
        LOCFRAME DOVERLAY, 0, STATIC
        ARGFRAME ISTACK, 0, STACK
        ARGFRAME PSTACK, 0, STACK
        ARGFRAME XSTACK, 12, STACK
        ARGFRAME IOVERLAY, 0, STATIC
        ARGFRAME DOVERLAY, 0, STATIC
        MOV     A,#-0xc
        LCALL   ?BANKED_ENTER_XDATA
        CFI DPH0 load(1, XDATA, add(CFA_XSP16, literal(-1)))
        CFI DPL0 load(1, XDATA, add(CFA_XSP16, literal(-2)))
        CFI ?BRET_EXT load(1, XDATA, add(CFA_XSP16, literal(-3)))
        CFI ?RET_HIGH load(1, XDATA, add(CFA_XSP16, literal(-4)))
        CFI ?RET_LOW load(1, XDATA, add(CFA_XSP16, literal(-5)))
        CFI R7 load(1, XDATA, add(CFA_XSP16, literal(-6)))
        CFI V3 load(1, XDATA, add(CFA_XSP16, literal(-7)))
        CFI V2 load(1, XDATA, add(CFA_XSP16, literal(-8)))
        CFI V1 load(1, XDATA, add(CFA_XSP16, literal(-9)))
        CFI V0 load(1, XDATA, add(CFA_XSP16, literal(-10)))
        CFI VB load(1, XDATA, add(CFA_XSP16, literal(-11)))
        CFI R6 load(1, XDATA, add(CFA_XSP16, literal(-12)))
        CFI CFA_SP SP+0
        CFI CFA_XSP16 add(XSP16, 12)
        ; Saved register size: 12
        ; Auto size: 0
        MOV     ?V0 + 0,R2
        MOV     ?V0 + 1,R3
        MOV     A,R4
        MOV     R6,A
        MOV     A,R5
        MOV     R7,A
//  140   epList_t *ep = osal_mem_alloc(sizeof(epList_t));
        ; Setup parameters for call to function osal_mem_alloc
        MOV     R2,#0x9
        MOV     R3,#0x0
        LCALL   ??osal_mem_alloc?relay
        MOV     ?V0 + 2,R2
        MOV     ?V0 + 3,R3
        MOV     R2,?V0 + 2
        MOV     R3,?V0 + 3
//  141 
//  142   if (ep != NULL)
        MOV     A,R2
        ORL     A,R3
        JZ      ??afRegisterExtended_0
//  143   {
//  144     ep->nextDesc = epList;
        MOV     DPTR,#epList
        MOVX    A,@DPTR
        MOV     R0,A
        INC     DPTR
        MOVX    A,@DPTR
        MOV     R1,A
        MOV     DPL,R2
        MOV     DPH,R3
        MOV     A,R0
        MOVX    @DPTR,A
        INC     DPTR
        MOV     A,R1
        MOVX    @DPTR,A
//  145     epList = ep;
        MOV     DPTR,#epList
        MOV     A,R2
        MOVX    @DPTR,A
        INC     DPTR
        MOV     A,R3
        MOVX    @DPTR,A
//  146     ep->epDesc = epDesc;
        MOV     DPL,R2
        MOV     DPH,R3
        INC     DPTR
        INC     DPTR
        MOV     A,?V0 + 0
        MOVX    @DPTR,A
        INC     DPTR
        MOV     A,?V0 + 1
        MOVX    @DPTR,A
//  147     ep->pfnDescCB = descFn;
        MOV     DPL,R2
        MOV     DPH,R3
        INC     DPTR
        INC     DPTR
        INC     DPTR
        INC     DPTR
        MOV     A,R6
        MOVX    @DPTR,A
        INC     DPTR
        MOV     A,R7
        MOVX    @DPTR,A
//  148     ep->apsfCfg.frameDelay = APSF_DEFAULT_INTERFRAME_DELAY;
        MOV     DPL,R2
        MOV     DPH,R3
        INC     DPTR
        INC     DPTR
        INC     DPTR
        INC     DPTR
        INC     DPTR
        INC     DPTR
        MOV     A,#0x32
        MOVX    @DPTR,A
//  149     ep->apsfCfg.windowSize = APSF_DEFAULT_WINDOW_SIZE;
        MOV     DPL,R2
        MOV     DPH,R3
        INC     DPTR
        INC     DPTR
        INC     DPTR
        INC     DPTR
        INC     DPTR
        INC     DPTR
        INC     DPTR
        MOV     A,#0x1
        MOVX    @DPTR,A
//  150     ep->flags = eEP_AllowMatch;  // Default to allow Match Descriptor.
        MOV     DPL,R2
        MOV     DPH,R3
        INC     DPTR
        INC     DPTR
        INC     DPTR
        INC     DPTR
        INC     DPTR
        INC     DPTR
        INC     DPTR
        INC     DPTR
        MOV     A,#0x1
        MOVX    @DPTR,A
//  151   }
//  152 
//  153   return ep;
??afRegisterExtended_0:
        MOV     R7,#0x4
        LJMP    ?BANKED_LEAVE_XDATA
        CFI EndBlock cfiBlock0
//  154 }
//  155 
//  156 /*********************************************************************
//  157  * @fn      afRegister
//  158  *
//  159  * @brief   Register an Application's EndPoint description.
//  160  *
//  161  * @param   epDesc - pointer to the Application's endpoint descriptor.
//  162  *
//  163  * NOTE:  The memory that epDesc is pointing to must exist after this call.
//  164  *
//  165  * @return  afStatus_SUCCESS - Registered
//  166  *          afStatus_MEM_FAIL - not enough memory to add descriptor
//  167  *          afStatus_INVALID_PARAMETER - duplicate endpoint
//  168  */

        RSEG BANKED_CODE:CODE:NOROOT(0)
//  169 afStatus_t afRegister( endPointDesc_t *epDesc )
afRegister:
        CFI Block cfiBlock1 Using cfiCommon0
        CFI Function afRegister
        CODE
//  170 {
        FUNCALL afRegister, afFindEndPointDescList
        LOCFRAME ISTACK, 0, STACK
        LOCFRAME PSTACK, 0, STACK
        LOCFRAME XSTACK, 10, STACK
        LOCFRAME IOVERLAY, 0, STATIC
        LOCFRAME DOVERLAY, 0, STATIC
        ARGFRAME ISTACK, 0, STACK
        ARGFRAME PSTACK, 0, STACK
        ARGFRAME XSTACK, 10, STACK
        ARGFRAME IOVERLAY, 0, STATIC
        ARGFRAME DOVERLAY, 0, STATIC
        FUNCALL afRegister, afRegisterExtended
        LOCFRAME ISTACK, 0, STACK
        LOCFRAME PSTACK, 0, STACK
        LOCFRAME XSTACK, 10, STACK
        LOCFRAME IOVERLAY, 0, STATIC
        LOCFRAME DOVERLAY, 0, STATIC
        ARGFRAME ISTACK, 0, STACK
        ARGFRAME PSTACK, 0, STACK
        ARGFRAME XSTACK, 10, STACK
        ARGFRAME IOVERLAY, 0, STATIC
        ARGFRAME DOVERLAY, 0, STATIC
        MOV     A,#-0xa
        LCALL   ?BANKED_ENTER_XDATA
        CFI DPH0 load(1, XDATA, add(CFA_XSP16, literal(-1)))
        CFI DPL0 load(1, XDATA, add(CFA_XSP16, literal(-2)))
        CFI ?BRET_EXT load(1, XDATA, add(CFA_XSP16, literal(-3)))
        CFI ?RET_HIGH load(1, XDATA, add(CFA_XSP16, literal(-4)))
        CFI ?RET_LOW load(1, XDATA, add(CFA_XSP16, literal(-5)))
        CFI R7 load(1, XDATA, add(CFA_XSP16, literal(-6)))
        CFI V1 load(1, XDATA, add(CFA_XSP16, literal(-7)))
        CFI V0 load(1, XDATA, add(CFA_XSP16, literal(-8)))
        CFI VB load(1, XDATA, add(CFA_XSP16, literal(-9)))
        CFI R6 load(1, XDATA, add(CFA_XSP16, literal(-10)))
        CFI CFA_SP SP+0
        CFI CFA_XSP16 add(XSP16, 10)
        ; Saved register size: 10
        ; Auto size: 0
        MOV     A,R2
        MOV     R6,A
        MOV     A,R3
        MOV     R7,A
//  171   if (afFindEndPointDescList(epDesc->endPoint))  // Look for duplicate endpoint.
        ; Setup parameters for call to function afFindEndPointDescList
        MOV     DPL,R6
        MOV     DPH,R7
        MOVX    A,@DPTR
        MOV     R1,A
        LCALL   ??afFindEndPointDescList?relay
        MOV     ?V0 + 0,R2
        MOV     ?V0 + 1,R3
        MOV     A,?V0 + 0
        ORL     A,?V0 + 1
        JZ      ??afRegister_0
//  172   {
//  173     return afStatus_INVALID_PARAMETER;
        MOV     R1,#0x2
        SJMP    ??afRegister_1
//  174   }
//  175 
//  176   return ((NULL == afRegisterExtended(epDesc, NULL)) ? afStatus_MEM_FAIL : afStatus_SUCCESS);
??afRegister_0:
        ; Setup parameters for call to function afRegisterExtended
        MOV     R4,#0x0
        MOV     R5,#0x0
        MOV     A,R6
        MOV     R2,A
        MOV     A,R7
        MOV     R3,A
        LCALL   ??afRegisterExtended?relay
        MOV     ?V0 + 0,R2
        MOV     ?V0 + 1,R3
        MOV     A,?V0 + 0
        ORL     A,?V0 + 1
        JNZ     ??afRegister_2
        MOV     R1,#0x10
        SJMP    ??afRegister_1
??afRegister_2:
        MOV     R1,#0x0
??afRegister_1:
        MOV     R7,#0x2
        LJMP    ?BANKED_LEAVE_XDATA
        CFI EndBlock cfiBlock1
//  177 }
//  178 
//  179 /*********************************************************************
//  180  * @fn      afDelete
//  181  *
//  182  * @brief   Delete an Application's EndPoint descriptor and frees the memory
//  183  *
//  184  * @param   EndPoint - Application Endpoint to delete
//  185  *
//  186  * @return  afStatus_SUCCESS - endpoint deleted
//  187  *          afStatus_INVALID_PARAMETER - endpoint not found
//  188  *          afStatus_FAILED - endpoint list empty
//  189  */

        RSEG BANKED_CODE:CODE:NOROOT(0)
//  190 afStatus_t afDelete( uint8 EndPoint )
afDelete:
        CFI Block cfiBlock2 Using cfiCommon0
        CFI Function afDelete
        CODE
//  191 {
        FUNCALL afDelete, osal_mem_free
        LOCFRAME ISTACK, 0, STACK
        LOCFRAME PSTACK, 0, STACK
        LOCFRAME XSTACK, 11, STACK
        LOCFRAME IOVERLAY, 0, STATIC
        LOCFRAME DOVERLAY, 0, STATIC
        ARGFRAME ISTACK, 0, STACK
        ARGFRAME PSTACK, 0, STACK
        ARGFRAME XSTACK, 11, STACK
        ARGFRAME IOVERLAY, 0, STATIC
        ARGFRAME DOVERLAY, 0, STATIC
        FUNCALL afDelete, osal_mem_free
        LOCFRAME ISTACK, 0, STACK
        LOCFRAME PSTACK, 0, STACK
        LOCFRAME XSTACK, 11, STACK
        LOCFRAME IOVERLAY, 0, STATIC
        LOCFRAME DOVERLAY, 0, STATIC
        ARGFRAME ISTACK, 0, STACK
        ARGFRAME PSTACK, 0, STACK
        ARGFRAME XSTACK, 11, STACK
        ARGFRAME IOVERLAY, 0, STATIC
        ARGFRAME DOVERLAY, 0, STATIC
        MOV     A,#-0xb
        LCALL   ?BANKED_ENTER_XDATA
        CFI DPH0 load(1, XDATA, add(CFA_XSP16, literal(-1)))
        CFI DPL0 load(1, XDATA, add(CFA_XSP16, literal(-2)))
        CFI ?BRET_EXT load(1, XDATA, add(CFA_XSP16, literal(-3)))
        CFI ?RET_HIGH load(1, XDATA, add(CFA_XSP16, literal(-4)))
        CFI ?RET_LOW load(1, XDATA, add(CFA_XSP16, literal(-5)))
        CFI R7 load(1, XDATA, add(CFA_XSP16, literal(-6)))
        CFI V2 load(1, XDATA, add(CFA_XSP16, literal(-7)))
        CFI V1 load(1, XDATA, add(CFA_XSP16, literal(-8)))
        CFI V0 load(1, XDATA, add(CFA_XSP16, literal(-9)))
        CFI VB load(1, XDATA, add(CFA_XSP16, literal(-10)))
        CFI R6 load(1, XDATA, add(CFA_XSP16, literal(-11)))
        CFI CFA_SP SP+0
        CFI CFA_XSP16 add(XSP16, 11)
        ; Saved register size: 11
        ; Auto size: 0
        MOV     ?V0 + 2,R1
//  192   epList_t *epCurrent;
//  193   epList_t *epPrevious;
//  194 
//  195   if (epList != NULL)
        MOV     DPTR,#epList
        MOVX    A,@DPTR
        MOV     R0,A
        INC     DPTR
        MOVX    A,@DPTR
        MOV     R1,A
        MOV     A,R0
        ORL     A,R1
        JNZ     $+5
        LJMP    ??afDelete_0 & 0xFFFF
//  196   {
//  197     epPrevious = epCurrent = epList;
        MOV     DPTR,#epList
        MOVX    A,@DPTR
        MOV     R0,A
        INC     DPTR
        MOVX    A,@DPTR
        MOV     R1,A
        MOV     A,R0
        MOV     R6,A
        MOV     A,R1
        MOV     R7,A
        MOV     ?V0 + 0,R0
        MOV     ?V0 + 1,R1
//  198 
//  199     // first element of the list matches
//  200     if (epCurrent->epDesc->endPoint == EndPoint)
        MOV     DPL,R6
        MOV     DPH,R7
        INC     DPTR
        INC     DPTR
        MOVX    A,@DPTR
        MOV     R0,A
        INC     DPTR
        MOVX    A,@DPTR
        MOV     DPH,A
        MOV     DPL,R0
        MOVX    A,@DPTR
        XRL     A,?V0 + 2
        JNZ     ??afDelete_1
//  201     {
//  202       epList = epCurrent->nextDesc;
        MOV     DPL,R6
        MOV     DPH,R7
        MOVX    A,@DPTR
        MOV     R0,A
        INC     DPTR
        MOVX    A,@DPTR
        MOV     R1,A
        MOV     DPTR,#epList
        MOV     A,R0
        MOVX    @DPTR,A
        INC     DPTR
        MOV     A,R1
        MOVX    @DPTR,A
//  203       osal_mem_free(epCurrent);
        ; Setup parameters for call to function osal_mem_free
        MOV     A,R6
        MOV     R2,A
        MOV     A,R7
        MOV     R3,A
        LCALL   ??osal_mem_free?relay
//  204 
//  205       return (afStatus_SUCCESS);
        MOV     R1,#0x0
        SJMP    ??afDelete_2
//  206     }
//  207     else
//  208     {
//  209       // search the list
//  210       for (epCurrent = epPrevious->nextDesc; epCurrent != NULL; epPrevious = epCurrent)
??afDelete_1:
        MOV     DPL,?V0 + 0
        MOV     DPH,?V0 + 1
        MOVX    A,@DPTR
        MOV     R0,A
        INC     DPTR
        MOVX    A,@DPTR
        MOV     R1,A
        MOV     A,R0
        MOV     R6,A
        MOV     A,R1
        MOV     R7,A
??afDelete_3:
        MOV     A,R6
        ORL     A,R7
        JZ      ??afDelete_4
//  211       {
//  212         if (epCurrent->epDesc->endPoint == EndPoint)
        MOV     DPL,R6
        MOV     DPH,R7
        INC     DPTR
        INC     DPTR
        MOVX    A,@DPTR
        MOV     R0,A
        INC     DPTR
        MOVX    A,@DPTR
        MOV     DPH,A
        MOV     DPL,R0
        MOVX    A,@DPTR
        XRL     A,?V0 + 2
        JNZ     ??afDelete_5
//  213         {
//  214           epPrevious->nextDesc = epCurrent->nextDesc;
        MOV     DPL,R6
        MOV     DPH,R7
        MOVX    A,@DPTR
        MOV     R0,A
        INC     DPTR
        MOVX    A,@DPTR
        MOV     R1,A
        MOV     DPL,?V0 + 0
        MOV     DPH,?V0 + 1
        MOV     A,R0
        MOVX    @DPTR,A
        INC     DPTR
        MOV     A,R1
        MOVX    @DPTR,A
//  215           osal_mem_free(epCurrent);
        ; Setup parameters for call to function osal_mem_free
        MOV     A,R6
        MOV     R2,A
        MOV     A,R7
        MOV     R3,A
        LCALL   ??osal_mem_free?relay
//  216 
//  217           // delete the entry and free the memory
//  218           return (afStatus_SUCCESS);
        MOV     R1,#0x0
        SJMP    ??afDelete_2
//  219         }
//  220       }
??afDelete_5:
        MOV     ?V0 + 0,R6
        MOV     ?V0 + 1,R7
        SJMP    ??afDelete_3
//  221     }
//  222 
//  223     // no endpoint found
//  224     return (afStatus_INVALID_PARAMETER);
??afDelete_4:
        MOV     R1,#0x2
        SJMP    ??afDelete_2
//  225   }
//  226   else
//  227   {
//  228     // epList is empty
//  229     return (afStatus_FAILED);
??afDelete_0:
        MOV     R1,#0x1
??afDelete_2:
        MOV     R7,#0x3
        LJMP    ?BANKED_LEAVE_XDATA
        CFI EndBlock cfiBlock2
//  230   }
//  231 }
//  232 
//  233 /*********************************************************************
//  234  * @fn          afDataConfirm
//  235  *
//  236  * @brief       This function will generate the Data Confirm back to
//  237  *              the application.
//  238  *
//  239  * @param       endPoint - confirm end point
//  240  * @param       transID - transaction ID from APSDE_DATA_REQUEST
//  241  * @param       status - status of APSDE_DATA_REQUEST
//  242  *
//  243  * @return      none
//  244  */

        RSEG BANKED_CODE:CODE:NOROOT(0)
//  245 void afDataConfirm( uint8 endPoint, uint8 transID, ZStatus_t status )
afDataConfirm:
        CFI Block cfiBlock3 Using cfiCommon0
        CFI Function afDataConfirm
        CODE
//  246 {
        FUNCALL afDataConfirm, afFindEndPointDesc
        LOCFRAME ISTACK, 0, STACK
        LOCFRAME PSTACK, 0, STACK
        LOCFRAME XSTACK, 16, STACK
        LOCFRAME IOVERLAY, 0, STATIC
        LOCFRAME DOVERLAY, 0, STATIC
        ARGFRAME ISTACK, 0, STACK
        ARGFRAME PSTACK, 0, STACK
        ARGFRAME XSTACK, 16, STACK
        ARGFRAME IOVERLAY, 0, STATIC
        ARGFRAME DOVERLAY, 0, STATIC
        FUNCALL afDataConfirm, osal_msg_allocate
        LOCFRAME ISTACK, 0, STACK
        LOCFRAME PSTACK, 0, STACK
        LOCFRAME XSTACK, 16, STACK
        LOCFRAME IOVERLAY, 0, STATIC
        LOCFRAME DOVERLAY, 0, STATIC
        ARGFRAME ISTACK, 0, STACK
        ARGFRAME PSTACK, 0, STACK
        ARGFRAME XSTACK, 16, STACK
        ARGFRAME IOVERLAY, 0, STATIC
        ARGFRAME DOVERLAY, 0, STATIC
        FUNCALL afDataConfirm, osal_msg_send
        LOCFRAME ISTACK, 0, STACK
        LOCFRAME PSTACK, 0, STACK
        LOCFRAME XSTACK, 16, STACK
        LOCFRAME IOVERLAY, 0, STATIC
        LOCFRAME DOVERLAY, 0, STATIC
        ARGFRAME ISTACK, 0, STACK
        ARGFRAME PSTACK, 0, STACK
        ARGFRAME XSTACK, 16, STACK
        ARGFRAME IOVERLAY, 0, STATIC
        ARGFRAME DOVERLAY, 0, STATIC
        MOV     A,#-0x10
        LCALL   ?BANKED_ENTER_XDATA
        CFI DPH0 load(1, XDATA, add(CFA_XSP16, literal(-1)))
        CFI DPL0 load(1, XDATA, add(CFA_XSP16, literal(-2)))
        CFI ?BRET_EXT load(1, XDATA, add(CFA_XSP16, literal(-3)))
        CFI ?RET_HIGH load(1, XDATA, add(CFA_XSP16, literal(-4)))
        CFI ?RET_LOW load(1, XDATA, add(CFA_XSP16, literal(-5)))
        CFI R7 load(1, XDATA, add(CFA_XSP16, literal(-6)))
        CFI V7 load(1, XDATA, add(CFA_XSP16, literal(-7)))
        CFI V6 load(1, XDATA, add(CFA_XSP16, literal(-8)))
        CFI V5 load(1, XDATA, add(CFA_XSP16, literal(-9)))
        CFI V4 load(1, XDATA, add(CFA_XSP16, literal(-10)))
        CFI V3 load(1, XDATA, add(CFA_XSP16, literal(-11)))
        CFI V2 load(1, XDATA, add(CFA_XSP16, literal(-12)))
        CFI V1 load(1, XDATA, add(CFA_XSP16, literal(-13)))
        CFI V0 load(1, XDATA, add(CFA_XSP16, literal(-14)))
        CFI VB load(1, XDATA, add(CFA_XSP16, literal(-15)))
        CFI R6 load(1, XDATA, add(CFA_XSP16, literal(-16)))
        CFI CFA_SP SP+0
        CFI CFA_XSP16 add(XSP16, 16)
        ; Saved register size: 16
        ; Auto size: 0
        MOV     ?V0 + 2,R1
        MOV     ?V0 + 3,R2
        MOV     ?V0 + 4,R3
//  247   endPointDesc_t *epDesc;
//  248   afDataConfirm_t *msgPtr;
//  249 
//  250   // Find the endpoint description
//  251   epDesc = afFindEndPointDesc( endPoint );
        ; Setup parameters for call to function afFindEndPointDesc
        MOV     R1,?V0 + 2
        LCALL   ??afFindEndPointDesc?relay
        MOV     ?V0 + 6,R2
        MOV     ?V0 + 7,R3
        MOV     ?V0 + 0,?V0 + 6
        MOV     ?V0 + 1,?V0 + 7
//  252   if ( epDesc == NULL )
        MOV     A,?V0 + 0
        ORL     A,?V0 + 1
        JZ      ??afDataConfirm_0
//  253     return;
//  254 
//  255   // Determine the incoming command type
//  256   msgPtr = (afDataConfirm_t *)osal_msg_allocate( sizeof(afDataConfirm_t) );
        ; Setup parameters for call to function osal_msg_allocate
        MOV     R2,#0x4
        MOV     R3,#0x0
        LCALL   ??osal_msg_allocate?relay
        MOV     ?V0 + 6,R2
        MOV     ?V0 + 7,R3
        MOV     R6,?V0 + 6
        MOV     R7,?V0 + 7
//  257   if ( msgPtr )
        MOV     A,R6
        ORL     A,R7
        JZ      ??afDataConfirm_0
//  258   {
//  259     // Build the Data Confirm message
//  260     msgPtr->hdr.event = AF_DATA_CONFIRM_CMD;
        MOV     DPL,R6
        MOV     DPH,R7
        MOV     A,#-0x3
        MOVX    @DPTR,A
//  261     msgPtr->hdr.status = status;
        MOV     A,?V0 + 4
        MOV     DPL,R6
        MOV     DPH,R7
        INC     DPTR
        MOV     A,?V0 + 4
        MOVX    @DPTR,A
//  262     msgPtr->endpoint = endPoint;
        MOV     A,?V0 + 2
        MOV     DPL,R6
        MOV     DPH,R7
        INC     DPTR
        INC     DPTR
        MOV     A,?V0 + 2
        MOVX    @DPTR,A
//  263     msgPtr->transID = transID;
        MOV     A,?V0 + 3
        MOV     DPL,R6
        MOV     DPH,R7
        INC     DPTR
        INC     DPTR
        INC     DPTR
        MOV     A,?V0 + 3
        MOVX    @DPTR,A
//  264 
//  265 #if defined ( MT_AF_CB_FUNC )
//  266     /* If MT has subscribed for this callback, don't send as a message. */
//  267     if ( AFCB_CHECK(CB_ID_AF_DATA_CNF,*(epDesc->task_id)) )
//  268     {
//  269       /* Send callback if it's subscribed */
//  270       MT_AfDataConfirm ((void *)msgPtr);
//  271       /* Release the memory. */
//  272       osal_msg_deallocate( (void *)msgPtr );
//  273     }
//  274     else
//  275 #endif
//  276     {
//  277       /* send message through task message */
//  278       osal_msg_send( *(epDesc->task_id), (uint8 *)msgPtr );
        ; Setup parameters for call to function osal_msg_send
        MOV     A,R6
        MOV     R2,A
        MOV     A,R7
        MOV     R3,A
        MOV     DPL,?V0 + 0
        MOV     DPH,?V0 + 1
        INC     DPTR
        MOVX    A,@DPTR
        MOV     R0,A
        INC     DPTR
        MOVX    A,@DPTR
        MOV     DPH,A
        MOV     DPL,R0
        MOVX    A,@DPTR
        MOV     R1,A
        LCALL   ??osal_msg_send?relay
        MOV     A,R1
//  279     }
//  280   }
//  281 }
??afDataConfirm_0:
        MOV     R7,#0x8
        LJMP    ?BANKED_LEAVE_XDATA
        CFI EndBlock cfiBlock3
//  282 
//  283 /*********************************************************************
//  284  * @fn          afIncomingData
//  285  *
//  286  * @brief       Transfer a data PDU (ASDU) from the APS sub-layer to the AF.
//  287  *
//  288  * @param       aff  - pointer to APS frame format
//  289  * @param       SrcAddress  - Source address
//  290  * @param       SrcPanId  - Source PAN ID
//  291  * @param       sig - incoming message's link quality
//  292  * @param       nwkSeqNum - incoming network sequence number (from nwk header frame)
//  293  * @param       SecurityUse - Security enable/disable
//  294  * @param       timestamp - the MAC Timer2 timestamp at Rx.
//  295  *
//  296  * @return      none
//  297  */

        RSEG BANKED_CODE:CODE:NOROOT(0)
//  298 void afIncomingData( aps_FrameFormat_t *aff, zAddrType_t *SrcAddress, uint16 SrcPanId,
afIncomingData:
        CFI Block cfiBlock4 Using cfiCommon0
        CFI Function afIncomingData
        CODE
//  299                      NLDE_Signal_t *sig, uint8 nwkSeqNum, uint8 SecurityUse, uint32 timestamp )
//  300 {
        FUNCALL afIncomingData, aps_FindGroupForEndpoint
        LOCFRAME ISTACK, 0, STACK
        LOCFRAME PSTACK, 0, STACK
        LOCFRAME XSTACK, 29, STACK
        LOCFRAME IOVERLAY, 0, STATIC
        LOCFRAME DOVERLAY, 0, STATIC
        ARGFRAME ISTACK, 0, STACK
        ARGFRAME PSTACK, 0, STACK
        ARGFRAME XSTACK, 29, STACK
        ARGFRAME IOVERLAY, 0, STATIC
        ARGFRAME DOVERLAY, 0, STATIC
        FUNCALL afIncomingData, afFindEndPointDesc
        LOCFRAME ISTACK, 0, STACK
        LOCFRAME PSTACK, 0, STACK
        LOCFRAME XSTACK, 29, STACK
        LOCFRAME IOVERLAY, 0, STATIC
        LOCFRAME DOVERLAY, 0, STATIC
        ARGFRAME ISTACK, 0, STACK
        ARGFRAME PSTACK, 0, STACK
        ARGFRAME XSTACK, 29, STACK
        ARGFRAME IOVERLAY, 0, STATIC
        ARGFRAME DOVERLAY, 0, STATIC
        FUNCALL afIncomingData, afFindEndPointDescList
        LOCFRAME ISTACK, 0, STACK
        LOCFRAME PSTACK, 0, STACK
        LOCFRAME XSTACK, 29, STACK
        LOCFRAME IOVERLAY, 0, STATIC
        LOCFRAME DOVERLAY, 0, STATIC
        ARGFRAME ISTACK, 0, STACK
        ARGFRAME PSTACK, 0, STACK
        ARGFRAME XSTACK, 29, STACK
        ARGFRAME IOVERLAY, 0, STATIC
        ARGFRAME DOVERLAY, 0, STATIC
        FUNCALL afIncomingData, afFindEndPointDesc
        LOCFRAME ISTACK, 0, STACK
        LOCFRAME PSTACK, 0, STACK
        LOCFRAME XSTACK, 29, STACK
        LOCFRAME IOVERLAY, 0, STATIC
        LOCFRAME DOVERLAY, 0, STATIC
        ARGFRAME ISTACK, 0, STACK
        ARGFRAME PSTACK, 0, STACK
        ARGFRAME XSTACK, 29, STACK
        ARGFRAME IOVERLAY, 0, STATIC
        ARGFRAME DOVERLAY, 0, STATIC
        FUNCALL afIncomingData, afFindEndPointDescList
        LOCFRAME ISTACK, 0, STACK
        LOCFRAME PSTACK, 0, STACK
        LOCFRAME XSTACK, 29, STACK
        LOCFRAME IOVERLAY, 0, STATIC
        LOCFRAME DOVERLAY, 0, STATIC
        ARGFRAME ISTACK, 0, STACK
        ARGFRAME PSTACK, 0, STACK
        ARGFRAME XSTACK, 29, STACK
        ARGFRAME IOVERLAY, 0, STATIC
        ARGFRAME DOVERLAY, 0, STATIC
        FUNCALL afIncomingData, osal_mem_free
        LOCFRAME ISTACK, 0, STACK
        LOCFRAME PSTACK, 0, STACK
        LOCFRAME XSTACK, 29, STACK
        LOCFRAME IOVERLAY, 0, STATIC
        LOCFRAME DOVERLAY, 0, STATIC
        ARGFRAME ISTACK, 0, STACK
        ARGFRAME PSTACK, 0, STACK
        ARGFRAME XSTACK, 29, STACK
        ARGFRAME IOVERLAY, 0, STATIC
        ARGFRAME DOVERLAY, 0, STATIC
        FUNCALL afIncomingData, afBuildMSGIncoming
        LOCFRAME ISTACK, 0, STACK
        LOCFRAME PSTACK, 0, STACK
        LOCFRAME XSTACK, 40, STACK
        LOCFRAME IOVERLAY, 0, STATIC
        LOCFRAME DOVERLAY, 0, STATIC
        ARGFRAME ISTACK, 0, STACK
        ARGFRAME PSTACK, 0, STACK
        ARGFRAME XSTACK, 40, STACK
        ARGFRAME IOVERLAY, 0, STATIC
        ARGFRAME DOVERLAY, 0, STATIC
        FUNCALL afIncomingData, aps_FindGroupForEndpoint
        LOCFRAME ISTACK, 0, STACK
        LOCFRAME PSTACK, 0, STACK
        LOCFRAME XSTACK, 29, STACK
        LOCFRAME IOVERLAY, 0, STATIC
        LOCFRAME DOVERLAY, 0, STATIC
        ARGFRAME ISTACK, 0, STACK
        ARGFRAME PSTACK, 0, STACK
        ARGFRAME XSTACK, 29, STACK
        ARGFRAME IOVERLAY, 0, STATIC
        ARGFRAME DOVERLAY, 0, STATIC
        FUNCALL afIncomingData, afFindEndPointDesc
        LOCFRAME ISTACK, 0, STACK
        LOCFRAME PSTACK, 0, STACK
        LOCFRAME XSTACK, 29, STACK
        LOCFRAME IOVERLAY, 0, STATIC
        LOCFRAME DOVERLAY, 0, STATIC
        ARGFRAME ISTACK, 0, STACK
        ARGFRAME PSTACK, 0, STACK
        ARGFRAME XSTACK, 29, STACK
        ARGFRAME IOVERLAY, 0, STATIC
        ARGFRAME DOVERLAY, 0, STATIC
        FUNCALL afIncomingData, afFindEndPointDescList
        LOCFRAME ISTACK, 0, STACK
        LOCFRAME PSTACK, 0, STACK
        LOCFRAME XSTACK, 29, STACK
        LOCFRAME IOVERLAY, 0, STATIC
        LOCFRAME DOVERLAY, 0, STATIC
        ARGFRAME ISTACK, 0, STACK
        ARGFRAME PSTACK, 0, STACK
        ARGFRAME XSTACK, 29, STACK
        ARGFRAME IOVERLAY, 0, STATIC
        ARGFRAME DOVERLAY, 0, STATIC
        MOV     A,#-0x18
        LCALL   ?BANKED_ENTER_XDATA
        CFI DPH0 load(1, XDATA, add(CFA_XSP16, literal(-1)))
        CFI DPL0 load(1, XDATA, add(CFA_XSP16, literal(-2)))
        CFI ?BRET_EXT load(1, XDATA, add(CFA_XSP16, literal(-3)))
        CFI ?RET_HIGH load(1, XDATA, add(CFA_XSP16, literal(-4)))
        CFI ?RET_LOW load(1, XDATA, add(CFA_XSP16, literal(-5)))
        CFI R7 load(1, XDATA, add(CFA_XSP16, literal(-6)))
        CFI V15 load(1, XDATA, add(CFA_XSP16, literal(-7)))
        CFI V14 load(1, XDATA, add(CFA_XSP16, literal(-8)))
        CFI V13 load(1, XDATA, add(CFA_XSP16, literal(-9)))
        CFI V12 load(1, XDATA, add(CFA_XSP16, literal(-10)))
        CFI V11 load(1, XDATA, add(CFA_XSP16, literal(-11)))
        CFI V10 load(1, XDATA, add(CFA_XSP16, literal(-12)))
        CFI V9 load(1, XDATA, add(CFA_XSP16, literal(-13)))
        CFI V8 load(1, XDATA, add(CFA_XSP16, literal(-14)))
        CFI V7 load(1, XDATA, add(CFA_XSP16, literal(-15)))
        CFI V6 load(1, XDATA, add(CFA_XSP16, literal(-16)))
        CFI V5 load(1, XDATA, add(CFA_XSP16, literal(-17)))
        CFI V4 load(1, XDATA, add(CFA_XSP16, literal(-18)))
        CFI V3 load(1, XDATA, add(CFA_XSP16, literal(-19)))
        CFI V2 load(1, XDATA, add(CFA_XSP16, literal(-20)))
        CFI V1 load(1, XDATA, add(CFA_XSP16, literal(-21)))
        CFI V0 load(1, XDATA, add(CFA_XSP16, literal(-22)))
        CFI VB load(1, XDATA, add(CFA_XSP16, literal(-23)))
        CFI R6 load(1, XDATA, add(CFA_XSP16, literal(-24)))
        CFI CFA_SP SP+0
        CFI CFA_XSP16 add(XSP16, 24)
        ; Saved register size: 24
        ; Auto size: 5
        MOV     A,#-0x5
        LCALL   ?ALLOC_XSTACK8
        CFI CFA_XSP16 add(XSP16, 29)
        MOV     A,#0x3
        LCALL   ?XSTACK_DISP0_8
        MOV     A,R4
        MOVX    @DPTR,A
        INC     DPTR
        MOV     A,R5
        MOVX    @DPTR,A
        MOV     A,R1
        PUSH    A
        CFI CFA_SP SP+-1
        MOV     A,#0x2
        LCALL   ?XSTACK_DISP0_8
        POP     A
        CFI CFA_SP SP+0
        MOVX    @DPTR,A
        MOV     ?V0 + 2,R2
        MOV     ?V0 + 3,R3
        MOV     A,#0x1d
        LCALL   ?XSTACK_DISP0_8
        MOVX    A,@DPTR
        MOV     ?V0 + 10,A
        INC     DPTR
        MOVX    A,@DPTR
        MOV     ?V0 + 11,A
        MOV     A,#0x22
        LCALL   ?XSTACK_DISP0_8
        MOV     R0,#?V0 + 4
        LCALL   ?L_MOV_X
//  301   endPointDesc_t *epDesc = NULL;
        MOV     R6,#0x0
        MOV     R7,#0x0
//  302   epList_t *pList = epList;
        MOV     DPTR,#epList
        MOVX    A,@DPTR
        MOV     ?V0 + 0,A
        INC     DPTR
        MOVX    A,@DPTR
        MOV     ?V0 + 1,A
//  303 #if !defined ( APS_NO_GROUPS )
//  304   uint8 grpEp = APS_GROUPS_EP_NOT_FOUND;
        MOV     ?V0 + 8,#-0x2
//  305 #endif
//  306 
//  307   if ( ((aff->FrmCtrl & APS_DELIVERYMODE_MASK) == APS_FC_DM_GROUP) )
        MOV     DPL,?V0 + 2
        MOV     DPH,?V0 + 3
        MOVX    A,@DPTR
        ANL     A,#0xc
        XRL     A,#0xc
        JNZ     ??afIncomingData_0
//  308   {
//  309 #if !defined ( APS_NO_GROUPS )
//  310     // Find the first endpoint for this group
//  311     grpEp = aps_FindGroupForEndpoint( aff->GroupID, APS_GROUPS_FIND_FIRST );
        ; Setup parameters for call to function aps_FindGroupForEndpoint
        MOV     R1,#-0x2
        MOV     DPL,?V0 + 2
        MOV     DPH,?V0 + 3
        INC     DPTR
        INC     DPTR
        INC     DPTR
        INC     DPTR
        MOVX    A,@DPTR
        MOV     R2,A
        INC     DPTR
        MOVX    A,@DPTR
        MOV     R3,A
        LCALL   ??aps_FindGroupForEndpoint?relay
        MOV     A,R1
        MOV     ?V0 + 8,A
//  312     if ( grpEp == APS_GROUPS_EP_NOT_FOUND )
        MOV     A,#-0x2
        XRL     A,?V0 + 8
        JNZ     $+5
        LJMP    ??afIncomingData_1 & 0xFFFF
//  313       return;   // No endpoint found
//  314 
//  315     epDesc = afFindEndPointDesc( grpEp );
        ; Setup parameters for call to function afFindEndPointDesc
        MOV     R1,?V0 + 8
        LCALL   ??afFindEndPointDesc?relay
        MOV     ?V0 + 12,R2
        MOV     ?V0 + 13,R3
        MOV     R6,?V0 + 12
        MOV     R7,?V0 + 13
//  316     if ( epDesc == NULL )
        MOV     A,R6
        ORL     A,R7
        JNZ     $+5
        LJMP    ??afIncomingData_1 & 0xFFFF
//  317       return;   // Endpoint descriptor not found
//  318 
//  319     pList = afFindEndPointDescList( epDesc->endPoint );
        ; Setup parameters for call to function afFindEndPointDescList
        MOV     DPL,R6
        MOV     DPH,R7
        MOVX    A,@DPTR
        MOV     R1,A
        LCALL   ??afFindEndPointDescList?relay
        MOV     ?V0 + 12,R2
        MOV     ?V0 + 13,R3
        MOV     ?V0 + 0,?V0 + 12
        MOV     ?V0 + 1,?V0 + 13
        SJMP    ??afIncomingData_2
//  320 #else
//  321     return; // Not supported
//  322 #endif
//  323   }
//  324   else if ( aff->DstEndPoint == AF_BROADCAST_ENDPOINT )
??afIncomingData_0:
        MOV     DPL,?V0 + 2
        MOV     DPH,?V0 + 3
        INC     DPTR
        INC     DPTR
        MOVX    A,@DPTR
        XRL     A,#0xff
        JNZ     ??afIncomingData_3
//  325   {
//  326     // Set the list
//  327     if ( pList != NULL )
        MOV     A,?V0 + 0
        ORL     A,?V0 + 1
        JZ      ??afIncomingData_2
//  328     {
//  329       epDesc = pList->epDesc;
        MOV     DPL,?V0 + 0
        MOV     DPH,?V0 + 1
        INC     DPTR
        INC     DPTR
        MOVX    A,@DPTR
        MOV     R0,A
        INC     DPTR
        MOVX    A,@DPTR
        MOV     R1,A
        MOV     A,R0
        MOV     R6,A
        MOV     A,R1
        MOV     R7,A
        SJMP    ??afIncomingData_2
//  330     }
//  331   }
//  332   else if ( (epDesc = afFindEndPointDesc( aff->DstEndPoint )) )
??afIncomingData_3:
        ; Setup parameters for call to function afFindEndPointDesc
        MOV     DPL,?V0 + 2
        MOV     DPH,?V0 + 3
        INC     DPTR
        INC     DPTR
        MOVX    A,@DPTR
        MOV     R1,A
        LCALL   ??afFindEndPointDesc?relay
        MOV     ?V0 + 12,R2
        MOV     ?V0 + 13,R3
        MOV     R0,?V0 + 12
        MOV     R1,?V0 + 13
        MOV     A,R0
        MOV     R6,A
        MOV     A,R1
        MOV     R7,A
        MOV     A,R0
        ORL     A,R1
        JZ      ??afIncomingData_2
//  333   {
//  334     pList = afFindEndPointDescList( epDesc->endPoint );
        ; Setup parameters for call to function afFindEndPointDescList
        MOV     DPL,R6
        MOV     DPH,R7
        MOVX    A,@DPTR
        MOV     R1,A
        LCALL   ??afFindEndPointDescList?relay
        MOV     ?V0 + 12,R2
        MOV     ?V0 + 13,R3
        MOV     ?V0 + 0,?V0 + 12
        MOV     ?V0 + 1,?V0 + 13
//  335   }
//  336 
//  337   while ( epDesc )
??afIncomingData_2:
        MOV     A,R6
        ORL     A,R7
        JNZ     $+5
        LJMP    ??afIncomingData_1 & 0xFFFF
//  338   {
//  339     uint16 epProfileID = 0xFFFF;  // Invalid Profile ID
        MOV     DPL,?XSP + 0
        MOV     DPH,?XSP + 1
        MOV     A,#-0x1
        MOVX    @DPTR,A
        INC     DPTR
        MOV     A,#-0x1
        MOVX    @DPTR,A
//  340 
//  341     if ( pList->pfnDescCB )
        MOV     DPL,?V0 + 0
        MOV     DPH,?V0 + 1
        INC     DPTR
        INC     DPTR
        INC     DPTR
        INC     DPTR
        MOVX    A,@DPTR
        MOV     R0,A
        INC     DPTR
        MOVX    A,@DPTR
        MOV     R1,A
        MOV     A,R0
        ORL     A,R1
        JZ      ??afIncomingData_4
//  342     {
//  343       uint16 *pID = (uint16 *)(pList->pfnDescCB(
//  344                                  AF_DESCRIPTOR_PROFILE_ID, epDesc->endPoint ));
        ; Setup parameters for indirect call
        MOV     DPL,R6
        MOV     DPH,R7
        MOVX    A,@DPTR
        MOV     R2,A
        MOV     R1,#0x2
        MOV     DPL,?V0 + 0
        MOV     DPH,?V0 + 1
        INC     DPTR
        INC     DPTR
        INC     DPTR
        INC     DPTR
        MOVX    A,@DPTR
        MOV     R0,A
        INC     DPTR
        MOVX    A,@DPTR
        MOV     DPH,A
        MOV     DPL,R0
        LCALL   ?CALL_IND
        MOV     ?V0 + 12,R2
        MOV     ?V0 + 13,R3
        MOV     ?V0 + 14,?V0 + 12
        MOV     ?V0 + 15,?V0 + 13
//  345       if ( pID )
        MOV     A,?V0 + 14
        ORL     A,?V0 + 15
        JZ      ??afIncomingData_5
//  346       {
//  347         epProfileID = *pID;
        MOV     DPL,?V0 + 14
        MOV     DPH,?V0 + 15
        MOVX    A,@DPTR
        MOV     R0,A
        INC     DPTR
        MOVX    A,@DPTR
        MOV     R1,A
        MOV     DPL,?XSP + 0
        MOV     DPH,?XSP + 1
        MOV     A,R0
        MOVX    @DPTR,A
        INC     DPTR
        MOV     A,R1
        MOVX    @DPTR,A
//  348         osal_mem_free( pID );
        ; Setup parameters for call to function osal_mem_free
        MOV     R2,?V0 + 14
        MOV     R3,?V0 + 15
        LCALL   ??osal_mem_free?relay
        SJMP    ??afIncomingData_5
//  349       }
//  350     }
//  351     else if ( epDesc->simpleDesc )
??afIncomingData_4:
        MOV     DPL,R6
        MOV     DPH,R7
        INC     DPTR
        INC     DPTR
        INC     DPTR
        MOVX    A,@DPTR
        MOV     R0,A
        INC     DPTR
        MOVX    A,@DPTR
        MOV     R1,A
        MOV     A,R0
        ORL     A,R1
        JZ      ??afIncomingData_5
//  352     {
//  353       epProfileID = epDesc->simpleDesc->AppProfId;
        MOV     DPL,R6
        MOV     DPH,R7
        INC     DPTR
        INC     DPTR
        INC     DPTR
        MOVX    A,@DPTR
        MOV     R0,A
        INC     DPTR
        MOVX    A,@DPTR
        MOV     DPH,A
        MOV     DPL,R0
        INC     DPTR
        MOVX    A,@DPTR
        MOV     R0,A
        INC     DPTR
        MOVX    A,@DPTR
        MOV     R1,A
        MOV     DPL,?XSP + 0
        MOV     DPH,?XSP + 1
        MOV     A,R0
        MOVX    @DPTR,A
        INC     DPTR
        MOV     A,R1
        MOVX    @DPTR,A
//  354     }
//  355 
//  356     if ( (aff->ProfileID == epProfileID) ||
//  357          ((epDesc->endPoint == ZDO_EP) && (aff->ProfileID == ZDO_PROFILE_ID)) )
??afIncomingData_5:
        MOV     DPL,?V0 + 2
        MOV     DPH,?V0 + 3
        INC     DPTR
        INC     DPTR
        INC     DPTR
        INC     DPTR
        INC     DPTR
        INC     DPTR
        INC     DPTR
        INC     DPTR
        MOVX    A,@DPTR
        MOV     R0,A
        INC     DPTR
        MOVX    A,@DPTR
        MOV     R1,A
        MOV     DPL,?XSP + 0
        MOV     DPH,?XSP + 1
        MOVX    A,@DPTR
        XRL     A,R0
        JNZ     ??afIncomingData_6
        INC     DPTR
        MOVX    A,@DPTR
        XRL     A,R1
??afIncomingData_6:
        JZ      ??afIncomingData_7
        MOV     DPL,R6
        MOV     DPH,R7
        MOVX    A,@DPTR
        JNZ     ??afIncomingData_8
        MOV     DPL,?V0 + 2
        MOV     DPH,?V0 + 3
        INC     DPTR
        INC     DPTR
        INC     DPTR
        INC     DPTR
        INC     DPTR
        INC     DPTR
        INC     DPTR
        INC     DPTR
        MOVX    A,@DPTR
        MOV     R0,A
        INC     DPTR
        MOVX    A,@DPTR
        MOV     R1,A
        MOV     A,R0
        ORL     A,R1
        JNZ     ??afIncomingData_8
//  358     {
//  359       {
//  360         // Save original endpoint
//  361         uint8 endpoint = aff->DstEndPoint;
??afIncomingData_7:
        MOV     DPL,?V0 + 2
        MOV     DPH,?V0 + 3
        INC     DPTR
        INC     DPTR
        MOVX    A,@DPTR
        MOV     ?V0 + 9,A
//  362 
//  363         // overwrite with descriptor's endpoint
//  364         aff->DstEndPoint = epDesc->endPoint;
        MOV     DPL,R6
        MOV     DPH,R7
        MOVX    A,@DPTR
        MOV     DPL,?V0 + 2
        MOV     DPH,?V0 + 3
        INC     DPTR
        INC     DPTR
        MOVX    @DPTR,A
//  365 
//  366         afBuildMSGIncoming( aff, epDesc, SrcAddress, SrcPanId, sig,
//  367                            nwkSeqNum, SecurityUse, timestamp );
        ; Setup parameters for call to function afBuildMSGIncoming
        MOV     R0,#?V0 + 4
        LCALL   ?PUSH_XSTACK_I_FOUR
        CFI CFA_XSP16 add(XSP16, 33)
        MOV     A,#0x25
        LCALL   ?XSTACK_DISP0_8
        MOVX    A,@DPTR
        MOV     ?V0 + 12,A
        MOV     R0,#?V0 + 12
        LCALL   ?PUSH_XSTACK_I_ONE
        CFI CFA_XSP16 add(XSP16, 34)
        MOV     A,#0x24
        LCALL   ?XSTACK_DISP0_8
        LCALL   ?PUSH_XSTACK8_X_TWO
        CFI CFA_XSP16 add(XSP16, 36)
        MOV     R0,#?V0 + 10
        LCALL   ?PUSH_XSTACK_I_TWO
        CFI CFA_XSP16 add(XSP16, 38)
        MOV     A,#0xc
        LCALL   ?XSTACK_DISP0_8
        LCALL   ?PUSH_XSTACK8_X_TWO
        CFI CFA_XSP16 add(XSP16, 40)
        MOV     A,#0xd
        LCALL   ?XSTACK_DISP0_8
        MOVX    A,@DPTR
        MOV     R1,A
        MOV     A,R6
        MOV     R4,A
        MOV     A,R7
        MOV     R5,A
        MOV     R2,?V0 + 2
        MOV     R3,?V0 + 3
        LCALL   ??afBuildMSGIncoming?relay
        MOV     A,#0xb
        LCALL   ?DEALLOC_XSTACK8
        CFI CFA_XSP16 add(XSP16, 29)
//  368 
//  369         // Restore with original endpoint
//  370         aff->DstEndPoint = endpoint;
        MOV     A,?V0 + 9
        MOV     DPL,?V0 + 2
        MOV     DPH,?V0 + 3
        INC     DPTR
        INC     DPTR
        MOV     A,?V0 + 9
        MOVX    @DPTR,A
//  371       }
//  372     }
//  373 
//  374     if ( ((aff->FrmCtrl & APS_DELIVERYMODE_MASK) == APS_FC_DM_GROUP) )
??afIncomingData_8:
        MOV     DPL,?V0 + 2
        MOV     DPH,?V0 + 3
        MOVX    A,@DPTR
        ANL     A,#0xc
        XRL     A,#0xc
        JNZ     ??afIncomingData_9
//  375     {
//  376 #if !defined ( APS_NO_GROUPS )
//  377       // Find the next endpoint for this group
//  378       grpEp = aps_FindGroupForEndpoint( aff->GroupID, grpEp );
        ; Setup parameters for call to function aps_FindGroupForEndpoint
        MOV     R1,?V0 + 8
        MOV     DPL,?V0 + 2
        MOV     DPH,?V0 + 3
        INC     DPTR
        INC     DPTR
        INC     DPTR
        INC     DPTR
        MOVX    A,@DPTR
        MOV     R2,A
        INC     DPTR
        MOVX    A,@DPTR
        MOV     R3,A
        LCALL   ??aps_FindGroupForEndpoint?relay
        MOV     A,R1
        MOV     ?V0 + 8,A
//  379       if ( grpEp == APS_GROUPS_EP_NOT_FOUND )
        MOV     A,#-0x2
        XRL     A,?V0 + 8
        JZ      ??afIncomingData_1
//  380         return;   // No endpoint found
//  381 
//  382       epDesc = afFindEndPointDesc( grpEp );
        ; Setup parameters for call to function afFindEndPointDesc
        MOV     R1,?V0 + 8
        LCALL   ??afFindEndPointDesc?relay
        MOV     ?V0 + 12,R2
        MOV     ?V0 + 13,R3
        MOV     R6,?V0 + 12
        MOV     R7,?V0 + 13
//  383       if ( epDesc == NULL )
        MOV     A,R6
        ORL     A,R7
        JZ      ??afIncomingData_1
//  384         return;   // Endpoint descriptor not found
//  385 
//  386       pList = afFindEndPointDescList( epDesc->endPoint );
        ; Setup parameters for call to function afFindEndPointDescList
        MOV     DPL,R6
        MOV     DPH,R7
        MOVX    A,@DPTR
        MOV     R1,A
        LCALL   ??afFindEndPointDescList?relay
        MOV     ?V0 + 12,R2
        MOV     ?V0 + 13,R3
        MOV     ?V0 + 0,?V0 + 12
        MOV     ?V0 + 1,?V0 + 13
        LJMP    ??afIncomingData_2 & 0xFFFF
//  387 #else
//  388       return;
//  389 #endif
//  390     }
//  391     else if ( aff->DstEndPoint == AF_BROADCAST_ENDPOINT )
??afIncomingData_9:
        MOV     DPL,?V0 + 2
        MOV     DPH,?V0 + 3
        INC     DPTR
        INC     DPTR
        MOVX    A,@DPTR
        XRL     A,#0xff
        JNZ     ??afIncomingData_10
//  392     {
//  393       pList = pList->nextDesc;
        MOV     DPL,?V0 + 0
        MOV     DPH,?V0 + 1
        MOVX    A,@DPTR
        MOV     ?V0 + 0,A
        INC     DPTR
        MOVX    A,@DPTR
        MOV     ?V0 + 1,A
//  394       if ( pList )
        MOV     A,?V0 + 0
        ORL     A,?V0 + 1
        JZ      ??afIncomingData_11
//  395         epDesc = pList->epDesc;
        MOV     DPL,?V0 + 0
        MOV     DPH,?V0 + 1
        INC     DPTR
        INC     DPTR
        MOVX    A,@DPTR
        MOV     R0,A
        INC     DPTR
        MOVX    A,@DPTR
        MOV     R1,A
        MOV     A,R0
        MOV     R6,A
        MOV     A,R1
        MOV     R7,A
        LJMP    ??afIncomingData_2 & 0xFFFF
//  396       else
//  397         epDesc = NULL;
??afIncomingData_11:
        MOV     R6,#0x0
        MOV     R7,#0x0
        LJMP    ??afIncomingData_2 & 0xFFFF
//  398     }
//  399     else
//  400       epDesc = NULL;
??afIncomingData_10:
        MOV     R6,#0x0
        MOV     R7,#0x0
        LJMP    ??afIncomingData_2 & 0xFFFF
//  401   }
//  402 }
??afIncomingData_1:
        MOV     A,#0x5
        LCALL   ?DEALLOC_XSTACK8
        CFI CFA_XSP16 add(XSP16, 24)
        MOV     R7,#0x10
        LJMP    ?BANKED_LEAVE_XDATA
        CFI EndBlock cfiBlock4
//  403 
//  404 /*********************************************************************
//  405  * @fn          afBuildMSGIncoming
//  406  *
//  407  * @brief       Build the message for the app
//  408  *
//  409  * @param
//  410  *
//  411  * @return      pointer to next in data buffer
//  412  */

        RSEG BANKED_CODE:CODE:NOROOT(0)
//  413 static void afBuildMSGIncoming( aps_FrameFormat_t *aff, endPointDesc_t *epDesc,
afBuildMSGIncoming:
        CFI Block cfiBlock5 Using cfiCommon0
        CFI Function afBuildMSGIncoming
        CODE
//  414                  zAddrType_t *SrcAddress, uint16 SrcPanId, NLDE_Signal_t *sig,
//  415                  uint8 nwkSeqNum, uint8 SecurityUse, uint32 timestamp )
//  416 {
        FUNCALL afBuildMSGIncoming, osal_msg_allocate
        LOCFRAME ISTACK, 0, STACK
        LOCFRAME PSTACK, 0, STACK
        LOCFRAME XSTACK, 26, STACK
        LOCFRAME IOVERLAY, 0, STATIC
        LOCFRAME DOVERLAY, 0, STATIC
        ARGFRAME ISTACK, 0, STACK
        ARGFRAME PSTACK, 0, STACK
        ARGFRAME XSTACK, 26, STACK
        ARGFRAME IOVERLAY, 0, STATIC
        ARGFRAME DOVERLAY, 0, STATIC
        FUNCALL afBuildMSGIncoming, afCopyAddress
        LOCFRAME ISTACK, 0, STACK
        LOCFRAME PSTACK, 0, STACK
        LOCFRAME XSTACK, 26, STACK
        LOCFRAME IOVERLAY, 0, STATIC
        LOCFRAME DOVERLAY, 0, STATIC
        ARGFRAME ISTACK, 0, STACK
        ARGFRAME PSTACK, 0, STACK
        ARGFRAME XSTACK, 26, STACK
        ARGFRAME IOVERLAY, 0, STATIC
        ARGFRAME DOVERLAY, 0, STATIC
        FUNCALL afBuildMSGIncoming, osal_memcpy
        LOCFRAME ISTACK, 0, STACK
        LOCFRAME PSTACK, 0, STACK
        LOCFRAME XSTACK, 29, STACK
        LOCFRAME IOVERLAY, 0, STATIC
        LOCFRAME DOVERLAY, 0, STATIC
        ARGFRAME ISTACK, 0, STACK
        ARGFRAME PSTACK, 0, STACK
        ARGFRAME XSTACK, 29, STACK
        ARGFRAME IOVERLAY, 0, STATIC
        ARGFRAME DOVERLAY, 0, STATIC
        FUNCALL afBuildMSGIncoming, osal_msg_send
        LOCFRAME ISTACK, 0, STACK
        LOCFRAME PSTACK, 0, STACK
        LOCFRAME XSTACK, 26, STACK
        LOCFRAME IOVERLAY, 0, STATIC
        LOCFRAME DOVERLAY, 0, STATIC
        ARGFRAME ISTACK, 0, STACK
        ARGFRAME PSTACK, 0, STACK
        ARGFRAME XSTACK, 26, STACK
        ARGFRAME IOVERLAY, 0, STATIC
        ARGFRAME DOVERLAY, 0, STATIC
        MOV     A,#-0x18
        LCALL   ?BANKED_ENTER_XDATA
        CFI DPH0 load(1, XDATA, add(CFA_XSP16, literal(-1)))
        CFI DPL0 load(1, XDATA, add(CFA_XSP16, literal(-2)))
        CFI ?BRET_EXT load(1, XDATA, add(CFA_XSP16, literal(-3)))
        CFI ?RET_HIGH load(1, XDATA, add(CFA_XSP16, literal(-4)))
        CFI ?RET_LOW load(1, XDATA, add(CFA_XSP16, literal(-5)))
        CFI R7 load(1, XDATA, add(CFA_XSP16, literal(-6)))
        CFI V15 load(1, XDATA, add(CFA_XSP16, literal(-7)))
        CFI V14 load(1, XDATA, add(CFA_XSP16, literal(-8)))
        CFI V13 load(1, XDATA, add(CFA_XSP16, literal(-9)))
        CFI V12 load(1, XDATA, add(CFA_XSP16, literal(-10)))
        CFI V11 load(1, XDATA, add(CFA_XSP16, literal(-11)))
        CFI V10 load(1, XDATA, add(CFA_XSP16, literal(-12)))
        CFI V9 load(1, XDATA, add(CFA_XSP16, literal(-13)))
        CFI V8 load(1, XDATA, add(CFA_XSP16, literal(-14)))
        CFI V7 load(1, XDATA, add(CFA_XSP16, literal(-15)))
        CFI V6 load(1, XDATA, add(CFA_XSP16, literal(-16)))
        CFI V5 load(1, XDATA, add(CFA_XSP16, literal(-17)))
        CFI V4 load(1, XDATA, add(CFA_XSP16, literal(-18)))
        CFI V3 load(1, XDATA, add(CFA_XSP16, literal(-19)))
        CFI V2 load(1, XDATA, add(CFA_XSP16, literal(-20)))
        CFI V1 load(1, XDATA, add(CFA_XSP16, literal(-21)))
        CFI V0 load(1, XDATA, add(CFA_XSP16, literal(-22)))
        CFI VB load(1, XDATA, add(CFA_XSP16, literal(-23)))
        CFI R6 load(1, XDATA, add(CFA_XSP16, literal(-24)))
        CFI CFA_SP SP+0
        CFI CFA_XSP16 add(XSP16, 24)
        ; Saved register size: 24
        ; Auto size: 2
        MOV     A,#-0x2
        LCALL   ?ALLOC_XSTACK8
        CFI CFA_XSP16 add(XSP16, 26)
        MOV     ?V0 + 0,R2
        MOV     ?V0 + 1,R3
        MOV     ?V0 + 12,R4
        MOV     ?V0 + 13,R5
        MOV     ?V0 + 15,R1
        MOV     A,#0x1e
        LCALL   ?XSTACK_DISP0_8
        MOVX    A,@DPTR
        MOV     ?V0 + 2,A
        INC     DPTR
        MOVX    A,@DPTR
        MOV     ?V0 + 3,A
        MOV     A,#0x20
        LCALL   ?XSTACK_DISP0_8
        MOVX    A,@DPTR
        MOV     ?V0 + 14,A
        MOV     A,#0x21
        LCALL   ?XSTACK_DISP0_8
        MOV     R0,#?V0 + 4
        LCALL   ?L_MOV_X
//  417   afIncomingMSGPacket_t *MSGpkt;
//  418   const uint8 len = sizeof( afIncomingMSGPacket_t ) + aff->asduLength;
        MOV     A,?V0 + 0
        ADD     A,#0x10
        MOV     DPL,A
        MOV     A,?V0 + 1
        ADDC    A,#0x0
        MOV     DPH,A
        MOVX    A,@DPTR
        ADD     A,#0x24
        MOV     ?V0 + 11,A
//  419   uint8 *asdu = aff->asdu;
        MOV     A,?V0 + 0
        ADD     A,#0xe
        MOV     DPL,A
        MOV     A,?V0 + 1
        ADDC    A,#0x0
        MOV     DPH,A
        MOVX    A,@DPTR
        MOV     R0,A
        INC     DPTR
        MOVX    A,@DPTR
        MOV     R1,A
        MOV     DPL,?XSP + 0
        MOV     DPH,?XSP + 1
        MOV     A,R0
        MOVX    @DPTR,A
        INC     DPTR
        MOV     A,R1
        MOVX    @DPTR,A
//  420   MSGpkt = (afIncomingMSGPacket_t *)osal_msg_allocate( len );
        ; Setup parameters for call to function osal_msg_allocate
        MOV     ?V0 + 8,?V0 + 11
        MOV     ?V0 + 9,#0x0
        MOV     R2,?V0 + 8
        MOV     R3,?V0 + 9
        LCALL   ??osal_msg_allocate?relay
        MOV     ?V0 + 8,R2
        MOV     ?V0 + 9,R3
        MOV     R6,?V0 + 8
        MOV     R7,?V0 + 9
//  421 
//  422   if ( MSGpkt == NULL )
        MOV     A,R6
        ORL     A,R7
        JNZ     $+5
        LJMP    ??afBuildMSGIncoming_0 & 0xFFFF
//  423   {
//  424     return;
//  425   }
//  426 
//  427   MSGpkt->hdr.event = AF_INCOMING_MSG_CMD;
        MOV     DPL,R6
        MOV     DPH,R7
        MOV     A,#0x1a
        MOVX    @DPTR,A
//  428   MSGpkt->groupId = aff->GroupID;
        MOV     DPL,?V0 + 0
        MOV     DPH,?V0 + 1
        INC     DPTR
        INC     DPTR
        INC     DPTR
        INC     DPTR
        MOVX    A,@DPTR
        MOV     R0,A
        INC     DPTR
        MOVX    A,@DPTR
        MOV     R1,A
        MOV     DPL,R6
        MOV     DPH,R7
        INC     DPTR
        INC     DPTR
        MOV     A,R0
        MOVX    @DPTR,A
        INC     DPTR
        MOV     A,R1
        MOVX    @DPTR,A
//  429   MSGpkt->clusterId = aff->ClusterID;
        MOV     DPL,?V0 + 0
        MOV     DPH,?V0 + 1
        INC     DPTR
        INC     DPTR
        INC     DPTR
        INC     DPTR
        INC     DPTR
        INC     DPTR
        MOVX    A,@DPTR
        MOV     R0,A
        INC     DPTR
        MOVX    A,@DPTR
        MOV     R1,A
        MOV     DPL,R6
        MOV     DPH,R7
        INC     DPTR
        INC     DPTR
        INC     DPTR
        INC     DPTR
        MOV     A,R0
        MOVX    @DPTR,A
        INC     DPTR
        MOV     A,R1
        MOVX    @DPTR,A
//  430   afCopyAddress( &MSGpkt->srcAddr, SrcAddress );
        ; Setup parameters for call to function afCopyAddress
        MOV     A,#0x1a
        LCALL   ?XSTACK_DISP0_8
        MOVX    A,@DPTR
        MOV     R4,A
        INC     DPTR
        MOVX    A,@DPTR
        MOV     R5,A
        MOV     A,R6
        ADD     A,#0x6
        MOV     R2,A
        MOV     A,R7
        ADDC    A,#0x0
        MOV     R3,A
        LCALL   ??afCopyAddress?relay
//  431   MSGpkt->srcAddr.endPoint = aff->SrcEndPoint;
        MOV     DPL,?V0 + 0
        MOV     DPH,?V0 + 1
        INC     DPTR
        INC     DPTR
        INC     DPTR
        MOVX    A,@DPTR
        PUSH    A
        CFI CFA_SP SP+-1
        MOV     A,R6
        ADD     A,#0xf
        MOV     DPL,A
        MOV     A,R7
        ADDC    A,#0x0
        MOV     DPH,A
        POP     A
        CFI CFA_SP SP+0
        MOVX    @DPTR,A
//  432   MSGpkt->endPoint = epDesc->endPoint;
        MOV     DPL,?V0 + 12
        MOV     DPH,?V0 + 13
        MOVX    A,@DPTR
        PUSH    A
        CFI CFA_SP SP+-1
        MOV     A,R6
        ADD     A,#0x14
        MOV     DPL,A
        MOV     A,R7
        ADDC    A,#0x0
        MOV     DPH,A
        POP     A
        CFI CFA_SP SP+0
        MOVX    @DPTR,A
//  433   MSGpkt->wasBroadcast = aff->wasBroadcast;
        MOV     A,?V0 + 0
        ADD     A,#0xc
        MOV     DPL,A
        MOV     A,?V0 + 1
        ADDC    A,#0x0
        MOV     DPH,A
        MOVX    A,@DPTR
        PUSH    A
        CFI CFA_SP SP+-1
        MOV     A,R6
        ADD     A,#0x15
        MOV     DPL,A
        MOV     A,R7
        ADDC    A,#0x0
        MOV     DPH,A
        POP     A
        CFI CFA_SP SP+0
        MOVX    @DPTR,A
//  434   MSGpkt->LinkQuality = sig->LinkQuality;
        MOV     DPL,?V0 + 2
        MOV     DPH,?V0 + 3
        MOVX    A,@DPTR
        PUSH    A
        CFI CFA_SP SP+-1
        MOV     A,R6
        ADD     A,#0x16
        MOV     DPL,A
        MOV     A,R7
        ADDC    A,#0x0
        MOV     DPH,A
        POP     A
        CFI CFA_SP SP+0
        MOVX    @DPTR,A
//  435   MSGpkt->correlation = sig->correlation;
        MOV     DPL,?V0 + 2
        MOV     DPH,?V0 + 3
        INC     DPTR
        MOVX    A,@DPTR
        PUSH    A
        CFI CFA_SP SP+-1
        MOV     A,R6
        ADD     A,#0x17
        MOV     DPL,A
        MOV     A,R7
        ADDC    A,#0x0
        MOV     DPH,A
        POP     A
        CFI CFA_SP SP+0
        MOVX    @DPTR,A
//  436   MSGpkt->rssi = sig->rssi;
        MOV     DPL,?V0 + 2
        MOV     DPH,?V0 + 3
        INC     DPTR
        INC     DPTR
        MOVX    A,@DPTR
        PUSH    A
        CFI CFA_SP SP+-1
        MOV     A,R6
        ADD     A,#0x18
        MOV     DPL,A
        MOV     A,R7
        ADDC    A,#0x0
        MOV     DPH,A
        POP     A
        CFI CFA_SP SP+0
        MOVX    @DPTR,A
//  437   MSGpkt->SecurityUse = SecurityUse;
        MOV     A,?V0 + 14
        MOV     A,R6
        ADD     A,#0x19
        MOV     DPL,A
        MOV     A,R7
        ADDC    A,#0x0
        MOV     DPH,A
        MOV     A,?V0 + 14
        MOVX    @DPTR,A
//  438   MSGpkt->timestamp = timestamp;
        MOV     A,R6
        ADD     A,#0x1a
        MOV     DPL,A
        MOV     A,R7
        ADDC    A,#0x0
        MOV     DPH,A
        MOV     R0,#?V0 + 4
        LCALL   ?L_MOV_TO_X
//  439   MSGpkt->nwkSeqNum = nwkSeqNum;
        MOV     A,?V0 + 15
        MOV     A,R6
        ADD     A,#0x1e
        MOV     DPL,A
        MOV     A,R7
        ADDC    A,#0x0
        MOV     DPH,A
        MOV     A,?V0 + 15
        MOVX    @DPTR,A
//  440   MSGpkt->macDestAddr = aff->macDestAddr;
        MOV     DPL,?V0 + 0
        MOV     DPH,?V0 + 1
        INC     DPTR
        INC     DPTR
        INC     DPTR
        INC     DPTR
        INC     DPTR
        INC     DPTR
        INC     DPTR
        INC     DPTR
        INC     DPTR
        INC     DPTR
        MOVX    A,@DPTR
        MOV     R0,A
        INC     DPTR
        MOVX    A,@DPTR
        MOV     R1,A
        MOV     A,R6
        ADD     A,#0x12
        MOV     DPL,A
        MOV     A,R7
        ADDC    A,#0x0
        MOV     DPH,A
        MOV     A,R0
        MOVX    @DPTR,A
        INC     DPTR
        MOV     A,R1
        MOVX    @DPTR,A
//  441   MSGpkt->srcAddr.panId = SrcPanId;
        MOV     A,#0x1c
        LCALL   ?XSTACK_DISP0_8
        MOVX    A,@DPTR
        MOV     R0,A
        INC     DPTR
        MOVX    A,@DPTR
        MOV     R1,A
        MOV     A,R6
        ADD     A,#0x10
        MOV     DPL,A
        MOV     A,R7
        ADDC    A,#0x0
        MOV     DPH,A
        MOV     A,R0
        MOVX    @DPTR,A
        INC     DPTR
        MOV     A,R1
        MOVX    @DPTR,A
//  442   MSGpkt->cmd.TransSeqNumber = 0;
        MOV     A,R6
        ADD     A,#0x1f
        MOV     DPL,A
        MOV     A,R7
        ADDC    A,#0x0
        MOV     DPH,A
        MOV     A,#0x0
        MOVX    @DPTR,A
//  443   MSGpkt->cmd.DataLength = aff->asduLength;
        MOV     A,?V0 + 0
        ADD     A,#0x10
        MOV     DPL,A
        MOV     A,?V0 + 1
        ADDC    A,#0x0
        MOV     DPH,A
        MOVX    A,@DPTR
        MOV     R0,A
        MOV     R1,#0x0
        MOV     A,R6
        ADD     A,#0x20
        MOV     DPL,A
        MOV     A,R7
        ADDC    A,#0x0
        MOV     DPH,A
        MOV     A,R0
        MOVX    @DPTR,A
        INC     DPTR
        MOV     A,R1
        MOVX    @DPTR,A
//  444 
//  445   if ( MSGpkt->cmd.DataLength )
        MOV     A,R6
        ADD     A,#0x20
        MOV     DPL,A
        MOV     A,R7
        ADDC    A,#0x0
        MOV     DPH,A
        MOVX    A,@DPTR
        MOV     R0,A
        INC     DPTR
        MOVX    A,@DPTR
        MOV     R1,A
        MOV     A,R0
        ORL     A,R1
        JZ      ??afBuildMSGIncoming_1
//  446   {
//  447     MSGpkt->cmd.Data = (uint8 *)(MSGpkt + 1);
        MOV     A,R6
        ADD     A,#0x24
        MOV     R0,A
        MOV     A,R7
        ADDC    A,#0x0
        MOV     R1,A
        MOV     A,R6
        ADD     A,#0x22
        MOV     DPL,A
        MOV     A,R7
        ADDC    A,#0x0
        MOV     DPH,A
        MOV     A,R0
        MOVX    @DPTR,A
        INC     DPTR
        MOV     A,R1
        MOVX    @DPTR,A
//  448     osal_memcpy( MSGpkt->cmd.Data, asdu, MSGpkt->cmd.DataLength );
        ; Setup parameters for call to function osal_memcpy
        MOV     DPL,?XSP + 0
        MOV     DPH,?XSP + 1
        MOVX    A,@DPTR
        MOV     ?V0 + 8,A
        INC     DPTR
        MOVX    A,@DPTR
        MOV     ?V0 + 9,A
        MOV     ?V0 + 10,#0x0
        MOV     R0,#?V0 + 8
        LCALL   ?PUSH_XSTACK_I_THREE
        CFI CFA_XSP16 add(XSP16, 29)
        MOV     A,R6
        ADD     A,#0x20
        MOV     DPL,A
        MOV     A,R7
        ADDC    A,#0x0
        MOV     DPH,A
        MOVX    A,@DPTR
        MOV     R4,A
        INC     DPTR
        MOVX    A,@DPTR
        MOV     R5,A
        MOV     A,R6
        ADD     A,#0x22
        MOV     DPL,A
        MOV     A,R7
        ADDC    A,#0x0
        MOV     DPH,A
        MOVX    A,@DPTR
        MOV     R2,A
        INC     DPTR
        MOVX    A,@DPTR
        MOV     R3,A
        LCALL   ??osal_memcpy?relay
        MOV     A,#0x3
        LCALL   ?DEALLOC_XSTACK8
        CFI CFA_XSP16 add(XSP16, 26)
        SJMP    ??afBuildMSGIncoming_2
//  449   }
//  450   else
//  451   {
//  452     MSGpkt->cmd.Data = NULL;
??afBuildMSGIncoming_1:
        MOV     A,R6
        ADD     A,#0x22
        MOV     DPL,A
        MOV     A,R7
        ADDC    A,#0x0
        MOV     DPH,A
        MOV     A,#0x0
        MOVX    @DPTR,A
        INC     DPTR
        MOV     A,#0x0
        MOVX    @DPTR,A
//  453   }
//  454 
//  455 #if defined ( MT_AF_CB_FUNC )
//  456   // If ZDO or SAPI have registered for this endpoint, dont intercept it here
//  457   if (AFCB_CHECK(CB_ID_AF_DATA_IND, *(epDesc->task_id)))
//  458   {
//  459     MT_AfIncomingMsg( (void *)MSGpkt );
//  460     // Release the memory.
//  461     osal_msg_deallocate( (void *)MSGpkt );
//  462   }
//  463   else
//  464 #endif
//  465   {
//  466     // Send message through task message.
//  467     osal_msg_send( *(epDesc->task_id), (uint8 *)MSGpkt );
??afBuildMSGIncoming_2:
        ; Setup parameters for call to function osal_msg_send
        MOV     A,R6
        MOV     R2,A
        MOV     A,R7
        MOV     R3,A
        MOV     DPL,?V0 + 12
        MOV     DPH,?V0 + 13
        INC     DPTR
        MOVX    A,@DPTR
        MOV     R0,A
        INC     DPTR
        MOVX    A,@DPTR
        MOV     DPH,A
        MOV     DPL,R0
        MOVX    A,@DPTR
        MOV     R1,A
        LCALL   ??osal_msg_send?relay
        MOV     A,R1
//  468   }
//  469 }
??afBuildMSGIncoming_0:
        MOV     A,#0x2
        LCALL   ?DEALLOC_XSTACK8
        CFI CFA_XSP16 add(XSP16, 24)
        MOV     R7,#0x10
        LJMP    ?BANKED_LEAVE_XDATA
        CFI EndBlock cfiBlock5
//  470 
//  471 /*********************************************************************
//  472  * @fn      AF_DataRequest
//  473  *
//  474  * @brief   Common functionality for invoking APSDE_DataReq() for both
//  475  *          SendMulti and MSG-Send.
//  476  *
//  477  * input parameters
//  478  *
//  479  * @param  *dstAddr - Full ZB destination address: Nwk Addr + End Point.
//  480  * @param  *srcEP - Origination (i.e. respond to or ack to) End Point Descr.
//  481  * @param   cID - A valid cluster ID as specified by the Profile.
//  482  * @param   len - Number of bytes of data pointed to by next param.
//  483  * @param  *buf - A pointer to the data bytes to send.
//  484  * @param  *transID - A pointer to a byte which can be modified and which will
//  485  *                    be used as the transaction sequence number of the msg.
//  486  * @param   options - Valid bit mask of Tx options.
//  487  * @param   radius - Normally set to AF_DEFAULT_RADIUS.
//  488  *
//  489  * output parameters
//  490  *
//  491  * @param  *transID - Incremented by one if the return value is success.
//  492  *
//  493  * @return  afStatus_t - See previous definition of afStatus_... types.
//  494  */

        RSEG XDATA_I:XDATA:NOROOT(0)
//  495 uint8 AF_DataRequestDiscoverRoute = TRUE;
AF_DataRequestDiscoverRoute:
        DATA8
        DS 1
        REQUIRE `?<Initializer for AF_DataRequestDiscoverRoute>`
        REQUIRE __INIT_XDATA_I

        RSEG BANKED_CODE:CODE:NOROOT(0)
//  496 afStatus_t AF_DataRequest( afAddrType_t *dstAddr, endPointDesc_t *srcEP,
AF_DataRequest:
        CFI Block cfiBlock6 Using cfiCommon0
        CFI Function AF_DataRequest
        CODE
//  497                            uint16 cID, uint16 len, uint8 *buf, uint8 *transID,
//  498                            uint8 options, uint8 radius )
//  499 {
        FUNCALL AF_DataRequest, NLME_GetShortAddr
        LOCFRAME ISTACK, 2, STACK
        LOCFRAME PSTACK, 0, STACK
        LOCFRAME XSTACK, 56, STACK
        LOCFRAME IOVERLAY, 0, STATIC
        LOCFRAME DOVERLAY, 0, STATIC
        ARGFRAME ISTACK, 2, STACK
        ARGFRAME PSTACK, 0, STACK
        ARGFRAME XSTACK, 56, STACK
        ARGFRAME IOVERLAY, 0, STATIC
        ARGFRAME DOVERLAY, 0, STATIC
        FUNCALL AF_DataRequest, RTG_CheckRtStatus
        LOCFRAME ISTACK, 0, STACK
        LOCFRAME PSTACK, 0, STACK
        LOCFRAME XSTACK, 56, STACK
        LOCFRAME IOVERLAY, 0, STATIC
        LOCFRAME DOVERLAY, 0, STATIC
        ARGFRAME ISTACK, 0, STACK
        ARGFRAME PSTACK, 0, STACK
        ARGFRAME XSTACK, 56, STACK
        ARGFRAME IOVERLAY, 0, STATIC
        ARGFRAME DOVERLAY, 0, STATIC
        FUNCALL AF_DataRequest, NLME_IsAddressBroadcast
        LOCFRAME ISTACK, 0, STACK
        LOCFRAME PSTACK, 0, STACK
        LOCFRAME XSTACK, 56, STACK
        LOCFRAME IOVERLAY, 0, STATIC
        LOCFRAME DOVERLAY, 0, STATIC
        ARGFRAME ISTACK, 0, STACK
        ARGFRAME PSTACK, 0, STACK
        ARGFRAME XSTACK, 56, STACK
        ARGFRAME IOVERLAY, 0, STATIC
        ARGFRAME DOVERLAY, 0, STATIC
        FUNCALL AF_DataRequest, sAddrExtCpy
        LOCFRAME ISTACK, 0, STACK
        LOCFRAME PSTACK, 0, STACK
        LOCFRAME XSTACK, 56, STACK
        LOCFRAME IOVERLAY, 0, STATIC
        LOCFRAME DOVERLAY, 0, STATIC
        ARGFRAME ISTACK, 0, STACK
        ARGFRAME PSTACK, 0, STACK
        ARGFRAME XSTACK, 56, STACK
        ARGFRAME IOVERLAY, 0, STATIC
        ARGFRAME DOVERLAY, 0, STATIC
        FUNCALL AF_DataRequest, afGetDescCB
        LOCFRAME ISTACK, 0, STACK
        LOCFRAME PSTACK, 0, STACK
        LOCFRAME XSTACK, 56, STACK
        LOCFRAME IOVERLAY, 0, STATIC
        LOCFRAME DOVERLAY, 0, STATIC
        ARGFRAME ISTACK, 0, STACK
        ARGFRAME PSTACK, 0, STACK
        ARGFRAME XSTACK, 56, STACK
        ARGFRAME IOVERLAY, 0, STATIC
        ARGFRAME DOVERLAY, 0, STATIC
        FUNCALL AF_DataRequest, osal_mem_free
        LOCFRAME ISTACK, 0, STACK
        LOCFRAME PSTACK, 0, STACK
        LOCFRAME XSTACK, 56, STACK
        LOCFRAME IOVERLAY, 0, STATIC
        LOCFRAME DOVERLAY, 0, STATIC
        ARGFRAME ISTACK, 0, STACK
        ARGFRAME PSTACK, 0, STACK
        ARGFRAME XSTACK, 56, STACK
        ARGFRAME IOVERLAY, 0, STATIC
        ARGFRAME DOVERLAY, 0, STATIC
        FUNCALL AF_DataRequest, afDataReqMTU
        LOCFRAME ISTACK, 0, STACK
        LOCFRAME PSTACK, 0, STACK
        LOCFRAME XSTACK, 56, STACK
        LOCFRAME IOVERLAY, 0, STATIC
        LOCFRAME DOVERLAY, 0, STATIC
        ARGFRAME ISTACK, 0, STACK
        ARGFRAME PSTACK, 0, STACK
        ARGFRAME XSTACK, 56, STACK
        ARGFRAME IOVERLAY, 0, STATIC
        ARGFRAME DOVERLAY, 0, STATIC
        FUNCALL AF_DataRequest, APSDE_DataReq
        LOCFRAME ISTACK, 0, STACK
        LOCFRAME PSTACK, 0, STACK
        LOCFRAME XSTACK, 56, STACK
        LOCFRAME IOVERLAY, 0, STATIC
        LOCFRAME DOVERLAY, 0, STATIC
        ARGFRAME ISTACK, 0, STACK
        ARGFRAME PSTACK, 0, STACK
        ARGFRAME XSTACK, 56, STACK
        ARGFRAME IOVERLAY, 0, STATIC
        ARGFRAME DOVERLAY, 0, STATIC
        FUNCALL AF_DataRequest, NLME_GetShortAddr
        LOCFRAME ISTACK, 0, STACK
        LOCFRAME PSTACK, 0, STACK
        LOCFRAME XSTACK, 56, STACK
        LOCFRAME IOVERLAY, 0, STATIC
        LOCFRAME DOVERLAY, 0, STATIC
        ARGFRAME ISTACK, 0, STACK
        ARGFRAME PSTACK, 0, STACK
        ARGFRAME XSTACK, 56, STACK
        ARGFRAME IOVERLAY, 0, STATIC
        ARGFRAME DOVERLAY, 0, STATIC
        FUNCALL AF_DataRequest, afDataConfirm
        LOCFRAME ISTACK, 0, STACK
        LOCFRAME PSTACK, 0, STACK
        LOCFRAME XSTACK, 56, STACK
        LOCFRAME IOVERLAY, 0, STATIC
        LOCFRAME DOVERLAY, 0, STATIC
        ARGFRAME ISTACK, 0, STACK
        ARGFRAME PSTACK, 0, STACK
        ARGFRAME XSTACK, 56, STACK
        ARGFRAME IOVERLAY, 0, STATIC
        ARGFRAME DOVERLAY, 0, STATIC
        MOV     A,#-0x18
        LCALL   ?BANKED_ENTER_XDATA
        CFI DPH0 load(1, XDATA, add(CFA_XSP16, literal(-1)))
        CFI DPL0 load(1, XDATA, add(CFA_XSP16, literal(-2)))
        CFI ?BRET_EXT load(1, XDATA, add(CFA_XSP16, literal(-3)))
        CFI ?RET_HIGH load(1, XDATA, add(CFA_XSP16, literal(-4)))
        CFI ?RET_LOW load(1, XDATA, add(CFA_XSP16, literal(-5)))
        CFI R7 load(1, XDATA, add(CFA_XSP16, literal(-6)))
        CFI V15 load(1, XDATA, add(CFA_XSP16, literal(-7)))
        CFI V14 load(1, XDATA, add(CFA_XSP16, literal(-8)))
        CFI V13 load(1, XDATA, add(CFA_XSP16, literal(-9)))
        CFI V12 load(1, XDATA, add(CFA_XSP16, literal(-10)))
        CFI V11 load(1, XDATA, add(CFA_XSP16, literal(-11)))
        CFI V10 load(1, XDATA, add(CFA_XSP16, literal(-12)))
        CFI V9 load(1, XDATA, add(CFA_XSP16, literal(-13)))
        CFI V8 load(1, XDATA, add(CFA_XSP16, literal(-14)))
        CFI V7 load(1, XDATA, add(CFA_XSP16, literal(-15)))
        CFI V6 load(1, XDATA, add(CFA_XSP16, literal(-16)))
        CFI V5 load(1, XDATA, add(CFA_XSP16, literal(-17)))
        CFI V4 load(1, XDATA, add(CFA_XSP16, literal(-18)))
        CFI V3 load(1, XDATA, add(CFA_XSP16, literal(-19)))
        CFI V2 load(1, XDATA, add(CFA_XSP16, literal(-20)))
        CFI V1 load(1, XDATA, add(CFA_XSP16, literal(-21)))
        CFI V0 load(1, XDATA, add(CFA_XSP16, literal(-22)))
        CFI VB load(1, XDATA, add(CFA_XSP16, literal(-23)))
        CFI R6 load(1, XDATA, add(CFA_XSP16, literal(-24)))
        CFI CFA_SP SP+0
        CFI CFA_XSP16 add(XSP16, 24)
        ; Saved register size: 24
        ; Auto size: 32
        MOV     A,#-0x20
        LCALL   ?ALLOC_XSTACK8
        CFI CFA_XSP16 add(XSP16, 56)
        MOV     A,R2
        MOV     R6,A
        MOV     A,R3
        MOV     R7,A
        MOV     ?V0 + 2,R4
        MOV     ?V0 + 3,R5
        MOV     ?V0 + 1,R1
        MOV     A,#0x38
        LCALL   ?XSTACK_DISP0_8
        MOVX    A,@DPTR
        MOV     ?V0 + 14,A
        INC     DPTR
        MOVX    A,@DPTR
        MOV     ?V0 + 15,A
        MOV     A,#0x3a
        LCALL   ?XSTACK_DISP0_8
        MOVX    A,@DPTR
        MOV     ?V0 + 12,A
        INC     DPTR
        MOVX    A,@DPTR
        MOV     ?V0 + 13,A
        MOV     A,#0x3e
        LCALL   ?XSTACK_DISP0_8
        MOVX    A,@DPTR
        MOV     ?V0 + 8,A
        INC     DPTR
        MOVX    A,@DPTR
        MOV     ?V0 + 9,A
        MOV     A,#0x40
        LCALL   ?XSTACK_DISP0_8
        MOVX    A,@DPTR
        MOV     ?V0 + 4,A
//  500   pDescCB pfnDescCB;
//  501   ZStatus_t stat;
//  502   APSDE_DataReq_t req;
//  503   afDataReqMTU_t mtu;
//  504 
//  505   // Verify source end point
//  506   if ( srcEP == NULL )
        MOV     A,?V0 + 2
        ORL     A,?V0 + 3
        JNZ     ??AF_DataRequest_0
//  507   {
//  508     return afStatus_INVALID_PARAMETER;
        MOV     R1,#0x2
        LJMP    ??AF_DataRequest_1 & 0xFFFF
//  509   }
//  510 
//  511 #if !defined( REFLECTOR )
//  512   if ( dstAddr->addrMode == afAddrNotPresent )
//  513   {
//  514     return afStatus_INVALID_PARAMETER;
//  515   }
//  516 #endif
//  517 
//  518   // Check if route is available before sending data
//  519   if ( options & AF_LIMIT_CONCENTRATOR  )
??AF_DataRequest_0:
        MOV     A,?V0 + 1
        MOV     C,0xE0 /* A   */.3
        JNC     ??AF_DataRequest_2
//  520   {
//  521     if ( dstAddr->addrMode != afAddr16Bit )
        MOV     DPL,R6
        MOV     DPH,R7
        INC     DPTR
        INC     DPTR
        INC     DPTR
        INC     DPTR
        INC     DPTR
        INC     DPTR
        INC     DPTR
        INC     DPTR
        MOVX    A,@DPTR
        XRL     A,#0x2
        JZ      ??AF_DataRequest_3
//  522     {
//  523       return ( afStatus_INVALID_PARAMETER );
        MOV     R1,#0x2
        LJMP    ??AF_DataRequest_1 & 0xFFFF
//  524     }
//  525 
//  526     // First, make sure the destination is not its self, then check for an existing route.
//  527     if ( (dstAddr->addr.shortAddr != NLME_GetShortAddr())
//  528         && (RTG_CheckRtStatus( dstAddr->addr.shortAddr, RT_ACTIVE, (MTO_ROUTE | NO_ROUTE_CACHE) ) != RTG_SUCCESS) )
??AF_DataRequest_3:
        MOV     DPL,R6
        MOV     DPH,R7
        PUSH    DPL
        CFI CFA_SP SP+-1
        PUSH    DPH
        CFI CFA_SP SP+-2
        ; Setup parameters for call to function NLME_GetShortAddr
        LCALL   ??NLME_GetShortAddr?relay
        MOV     ?V0 + 6,R2
        MOV     ?V0 + 7,R3
        POP     DPH
        CFI CFA_SP SP+-1
        POP     DPL
        CFI CFA_SP SP+0
        MOVX    A,@DPTR
        XRL     A,?V0 + 6
        JNZ     ??AF_DataRequest_4
        INC     DPTR
        MOVX    A,@DPTR
        XRL     A,?V0 + 7
??AF_DataRequest_4:
        JZ      ??AF_DataRequest_2
        ; Setup parameters for call to function RTG_CheckRtStatus
        MOV     R4,#0x3
        MOV     R1,#0x1
        MOV     DPL,R6
        MOV     DPH,R7
        MOVX    A,@DPTR
        MOV     R2,A
        INC     DPTR
        MOVX    A,@DPTR
        MOV     R3,A
        LCALL   ??RTG_CheckRtStatus?relay
        MOV     A,R1
        JZ      ??AF_DataRequest_2
//  529     {
//  530       // A valid route to a concentrator wasn't found
//  531       return ( afStatus_NO_ROUTE );
        MOV     R1,#-0x33
        LJMP    ??AF_DataRequest_1 & 0xFFFF
//  532     }
//  533   }
//  534 
//  535   // Validate broadcasting
//  536   if ( ( dstAddr->addrMode == afAddr16Bit     ) ||
//  537        ( dstAddr->addrMode == afAddrBroadcast )    )
??AF_DataRequest_2:
        MOV     DPL,R6
        MOV     DPH,R7
        INC     DPTR
        INC     DPTR
        INC     DPTR
        INC     DPTR
        INC     DPTR
        INC     DPTR
        INC     DPTR
        INC     DPTR
        MOVX    A,@DPTR
        XRL     A,#0x2
        JZ      ??AF_DataRequest_5
        MOV     DPL,R6
        MOV     DPH,R7
        INC     DPTR
        INC     DPTR
        INC     DPTR
        INC     DPTR
        INC     DPTR
        INC     DPTR
        INC     DPTR
        INC     DPTR
        MOVX    A,@DPTR
        XRL     A,#0xf
        JNZ     ??AF_DataRequest_6
//  538   {
//  539     // Check for valid broadcast values
//  540     if( ADDR_NOT_BCAST != NLME_IsAddressBroadcast( dstAddr->addr.shortAddr )  )
??AF_DataRequest_5:
        ; Setup parameters for call to function NLME_IsAddressBroadcast
        MOV     DPL,R6
        MOV     DPH,R7
        MOVX    A,@DPTR
        MOV     R2,A
        INC     DPTR
        MOVX    A,@DPTR
        MOV     R3,A
        LCALL   ??NLME_IsAddressBroadcast?relay
        MOV     A,R1
        JZ      ??AF_DataRequest_7
//  541     {
//  542       // Force mode to broadcast
//  543       dstAddr->addrMode = afAddrBroadcast;
        MOV     DPL,R6
        MOV     DPH,R7
        INC     DPTR
        INC     DPTR
        INC     DPTR
        INC     DPTR
        INC     DPTR
        INC     DPTR
        INC     DPTR
        INC     DPTR
        MOV     A,#0xf
        MOVX    @DPTR,A
        SJMP    ??AF_DataRequest_8
//  544     }
//  545     else
//  546     {
//  547       // Address is not a valid broadcast type
//  548       if ( dstAddr->addrMode == afAddrBroadcast )
??AF_DataRequest_7:
        MOV     DPL,R6
        MOV     DPH,R7
        INC     DPTR
        INC     DPTR
        INC     DPTR
        INC     DPTR
        INC     DPTR
        INC     DPTR
        INC     DPTR
        INC     DPTR
        MOVX    A,@DPTR
        XRL     A,#0xf
        JNZ     ??AF_DataRequest_8
//  549       {
//  550         return afStatus_INVALID_PARAMETER;
        MOV     R1,#0x2
        LJMP    ??AF_DataRequest_1 & 0xFFFF
//  551       }
//  552     }
//  553   }
//  554   else if ( dstAddr->addrMode != afAddr64Bit &&
//  555             dstAddr->addrMode != afAddrGroup &&
//  556             dstAddr->addrMode != afAddrNotPresent )
??AF_DataRequest_6:
        MOV     DPL,R6
        MOV     DPH,R7
        INC     DPTR
        INC     DPTR
        INC     DPTR
        INC     DPTR
        INC     DPTR
        INC     DPTR
        INC     DPTR
        INC     DPTR
        MOVX    A,@DPTR
        XRL     A,#0x3
        JZ      ??AF_DataRequest_8
        MOV     DPL,R6
        MOV     DPH,R7
        INC     DPTR
        INC     DPTR
        INC     DPTR
        INC     DPTR
        INC     DPTR
        INC     DPTR
        INC     DPTR
        INC     DPTR
        MOVX    A,@DPTR
        XRL     A,#0x1
        JZ      ??AF_DataRequest_8
        MOV     DPL,R6
        MOV     DPH,R7
        INC     DPTR
        INC     DPTR
        INC     DPTR
        INC     DPTR
        INC     DPTR
        INC     DPTR
        INC     DPTR
        INC     DPTR
        MOVX    A,@DPTR
        JZ      ??AF_DataRequest_8
//  557   {
//  558     return afStatus_INVALID_PARAMETER;
        MOV     R1,#0x2
        LJMP    ??AF_DataRequest_1 & 0xFFFF
//  559   }
//  560 
//  561   // Set destination address
//  562   req.dstAddr.addrMode = dstAddr->addrMode;
??AF_DataRequest_8:
        MOV     DPL,R6
        MOV     DPH,R7
        INC     DPTR
        INC     DPTR
        INC     DPTR
        INC     DPTR
        INC     DPTR
        INC     DPTR
        INC     DPTR
        INC     DPTR
        MOVX    A,@DPTR
        PUSH    A
        CFI CFA_SP SP+-1
        MOV     A,#0xc
        LCALL   ?XSTACK_DISP0_8
        POP     A
        CFI CFA_SP SP+0
        MOVX    @DPTR,A
//  563   if ( dstAddr->addrMode == afAddr64Bit )
        MOV     DPL,R6
        MOV     DPH,R7
        INC     DPTR
        INC     DPTR
        INC     DPTR
        INC     DPTR
        INC     DPTR
        INC     DPTR
        INC     DPTR
        INC     DPTR
        MOVX    A,@DPTR
        XRL     A,#0x3
        JNZ     ??AF_DataRequest_9
//  564     osal_cpyExtAddr( req.dstAddr.addr.extAddr, dstAddr->addr.extAddr );
        ; Setup parameters for call to function sAddrExtCpy
        MOV     A,R6
        MOV     R4,A
        MOV     A,R7
        MOV     R5,A
        MOV     A,#0x4
        LCALL   ?XSTACK_DISP0_8
        MOV     R2,DPL
        MOV     R3,DPH
        LCALL   ??sAddrExtCpy?relay
        SJMP    ??AF_DataRequest_10
//  565   else
//  566     req.dstAddr.addr.shortAddr = dstAddr->addr.shortAddr;
??AF_DataRequest_9:
        MOV     DPL,R6
        MOV     DPH,R7
        MOVX    A,@DPTR
        MOV     R0,A
        INC     DPTR
        MOVX    A,@DPTR
        MOV     R1,A
        MOV     A,#0x4
        LCALL   ?XSTACK_DISP0_8
        MOV     A,R0
        MOVX    @DPTR,A
        INC     DPTR
        MOV     A,R1
        MOVX    @DPTR,A
//  567 
//  568   req.profileID = ZDO_PROFILE_ID;
??AF_DataRequest_10:
        MOV     A,#0x13
        LCALL   ?XSTACK_DISP0_8
        MOV     A,#0x0
        MOVX    @DPTR,A
        INC     DPTR
        MOV     A,#0x0
        MOVX    @DPTR,A
//  569 
//  570   if ( (pfnDescCB = afGetDescCB( srcEP )) )
        ; Setup parameters for call to function afGetDescCB
        MOV     R2,?V0 + 2
        MOV     R3,?V0 + 3
        LCALL   ??afGetDescCB?relay
        MOV     ?V0 + 6,R2
        MOV     ?V0 + 7,R3
        MOV     R0,?V0 + 6
        MOV     R1,?V0 + 7
        MOV     A,#0x2
        LCALL   ?XSTACK_DISP0_8
        MOV     A,R0
        MOVX    @DPTR,A
        INC     DPTR
        MOV     A,R1
        MOVX    @DPTR,A
        MOV     A,R0
        ORL     A,R1
        JZ      ??AF_DataRequest_11
//  571   {
//  572     uint16 *pID = (uint16 *)(pfnDescCB(
//  573                                  AF_DESCRIPTOR_PROFILE_ID, srcEP->endPoint ));
        ; Setup parameters for indirect call
        MOV     DPL,?V0 + 2
        MOV     DPH,?V0 + 3
        MOVX    A,@DPTR
        MOV     R2,A
        MOV     R1,#0x2
        MOV     A,#0x2
        LCALL   ?XSTACK_DISP0_8
        MOVX    A,@DPTR
        MOV     R0,A
        INC     DPTR
        MOVX    A,@DPTR
        MOV     DPH,A
        MOV     DPL,R0
        LCALL   ?CALL_IND
        MOV     ?V0 + 10,R2
        MOV     ?V0 + 11,R3
        MOV     ?V0 + 6,?V0 + 10
        MOV     ?V0 + 7,?V0 + 11
//  574     if ( pID )
        MOV     A,?V0 + 6
        ORL     A,?V0 + 7
        JZ      ??AF_DataRequest_12
//  575     {
//  576       req.profileID = *pID;
        MOV     DPL,?V0 + 6
        MOV     DPH,?V0 + 7
        MOVX    A,@DPTR
        MOV     R0,A
        INC     DPTR
        MOVX    A,@DPTR
        MOV     R1,A
        MOV     A,#0x13
        LCALL   ?XSTACK_DISP0_8
        MOV     A,R0
        MOVX    @DPTR,A
        INC     DPTR
        MOV     A,R1
        MOVX    @DPTR,A
//  577       osal_mem_free( pID );
        ; Setup parameters for call to function osal_mem_free
        MOV     R2,?V0 + 6
        MOV     R3,?V0 + 7
        LCALL   ??osal_mem_free?relay
        SJMP    ??AF_DataRequest_12
//  578     }
//  579   }
//  580   else if ( srcEP->simpleDesc )
??AF_DataRequest_11:
        MOV     DPL,?V0 + 2
        MOV     DPH,?V0 + 3
        INC     DPTR
        INC     DPTR
        INC     DPTR
        MOVX    A,@DPTR
        MOV     R0,A
        INC     DPTR
        MOVX    A,@DPTR
        MOV     R1,A
        MOV     A,R0
        ORL     A,R1
        JZ      ??AF_DataRequest_12
//  581   {
//  582     req.profileID = srcEP->simpleDesc->AppProfId;
        MOV     DPL,?V0 + 2
        MOV     DPH,?V0 + 3
        INC     DPTR
        INC     DPTR
        INC     DPTR
        MOVX    A,@DPTR
        MOV     R0,A
        INC     DPTR
        MOVX    A,@DPTR
        MOV     DPH,A
        MOV     DPL,R0
        INC     DPTR
        MOVX    A,@DPTR
        MOV     R0,A
        INC     DPTR
        MOVX    A,@DPTR
        MOV     R1,A
        MOV     A,#0x13
        LCALL   ?XSTACK_DISP0_8
        MOV     A,R0
        MOVX    @DPTR,A
        INC     DPTR
        MOV     A,R1
        MOVX    @DPTR,A
//  583   }
//  584 
//  585   req.txOptions = 0;
??AF_DataRequest_12:
        MOV     A,#0x19
        LCALL   ?XSTACK_DISP0_8
        MOV     A,#0x0
        MOVX    @DPTR,A
        INC     DPTR
        MOV     A,#0x0
        MOVX    @DPTR,A
//  586 
//  587   if ( ( options & AF_ACK_REQUEST              ) &&
//  588        ( req.dstAddr.addrMode != AddrBroadcast ) &&
//  589        ( req.dstAddr.addrMode != AddrGroup     )    )
        MOV     A,?V0 + 1
        MOV     C,0xE0 /* A   */.4
        JNC     ??AF_DataRequest_13
        MOV     A,#0xc
        LCALL   ?XSTACK_DISP0_8
        MOVX    A,@DPTR
        XRL     A,#0xf
        JZ      ??AF_DataRequest_13
        MOV     A,#0xc
        LCALL   ?XSTACK_DISP0_8
        MOVX    A,@DPTR
        XRL     A,#0x1
        JZ      ??AF_DataRequest_13
//  590   {
//  591     req.txOptions |=  APS_TX_OPTIONS_ACK;
        MOV     A,#0x19
        LCALL   ?XSTACK_DISP0_8
        MOVX    A,@DPTR
        ORL     A,#0x4
        MOVX    @DPTR,A
        INC     DPTR
        MOVX    A,@DPTR
        ORL     A,#0x0
        MOVX    @DPTR,A
//  592   }
//  593 
//  594   if ( options & AF_SKIP_ROUTING )
??AF_DataRequest_13:
        MOV     A,?V0 + 1
        MOV     C,0xE0 /* A   */.7
        JNC     ??AF_DataRequest_14
//  595   {
//  596     req.txOptions |=  APS_TX_OPTIONS_SKIP_ROUTING;
        MOV     A,#0x19
        LCALL   ?XSTACK_DISP0_8
        MOVX    A,@DPTR
        ORL     A,#0x10
        MOVX    @DPTR,A
        INC     DPTR
        MOVX    A,@DPTR
        ORL     A,#0x0
        MOVX    @DPTR,A
//  597   }
//  598 
//  599   if ( options & AF_EN_SECURITY )
??AF_DataRequest_14:
        MOV     A,?V0 + 1
        MOV     C,0xE0 /* A   */.6
        JNC     ??AF_DataRequest_15
//  600   {
//  601     req.txOptions |= APS_TX_OPTIONS_SECURITY_ENABLE;
        MOV     A,#0x19
        LCALL   ?XSTACK_DISP0_8
        MOVX    A,@DPTR
        ORL     A,#0x1
        MOVX    @DPTR,A
        INC     DPTR
        MOVX    A,@DPTR
        ORL     A,#0x0
        MOVX    @DPTR,A
//  602     mtu.aps.secure = TRUE;
        MOV     A,#0x1
        LCALL   ?XSTACK_DISP0_8
        MOV     A,#0x1
        MOVX    @DPTR,A
        SJMP    ??AF_DataRequest_16
//  603   }
//  604   else
//  605   {
//  606     mtu.aps.secure = FALSE;
??AF_DataRequest_15:
        MOV     A,#0x1
        LCALL   ?XSTACK_DISP0_8
        MOV     A,#0x0
        MOVX    @DPTR,A
//  607   }
//  608 
//  609   if ( options & AF_PREPROCESS )
??AF_DataRequest_16:
        MOV     A,?V0 + 1
        MOV     C,0xE0 /* A   */.2
        JNC     ??AF_DataRequest_17
//  610   {
//  611     req.txOptions |=  APS_TX_OPTIONS_PREPROCESS;
        MOV     A,#0x19
        LCALL   ?XSTACK_DISP0_8
        MOVX    A,@DPTR
        ORL     A,#0x40
        MOVX    @DPTR,A
        INC     DPTR
        MOVX    A,@DPTR
        ORL     A,#0x0
        MOVX    @DPTR,A
//  612   }
//  613 
//  614   mtu.kvp = FALSE;
??AF_DataRequest_17:
        MOV     DPL,?XSP + 0
        MOV     DPH,?XSP + 1
        MOV     A,#0x0
        MOVX    @DPTR,A
//  615 
//  616   req.transID       = *transID;
        MOV     DPL,?V0 + 8
        MOV     DPH,?V0 + 9
        MOVX    A,@DPTR
        PUSH    A
        CFI CFA_SP SP+-1
        MOV     A,#0x1b
        LCALL   ?XSTACK_DISP0_8
        POP     A
        CFI CFA_SP SP+0
        MOVX    @DPTR,A
//  617   req.srcEP         = srcEP->endPoint;
        MOV     DPL,?V0 + 2
        MOV     DPH,?V0 + 3
        MOVX    A,@DPTR
        PUSH    A
        CFI CFA_SP SP+-1
        MOV     A,#0xd
        LCALL   ?XSTACK_DISP0_8
        POP     A
        CFI CFA_SP SP+0
        MOVX    @DPTR,A
//  618   req.dstEP         = dstAddr->endPoint;
        MOV     DPL,R6
        MOV     DPH,R7
        INC     DPTR
        INC     DPTR
        INC     DPTR
        INC     DPTR
        INC     DPTR
        INC     DPTR
        INC     DPTR
        INC     DPTR
        INC     DPTR
        MOVX    A,@DPTR
        PUSH    A
        CFI CFA_SP SP+-1
        MOV     A,#0xe
        LCALL   ?XSTACK_DISP0_8
        POP     A
        CFI CFA_SP SP+0
        MOVX    @DPTR,A
//  619   req.clusterID     = cID;
        MOV     A,#0x11
        LCALL   ?XSTACK_DISP0_8
        MOV     A,?V0 + 14
        MOVX    @DPTR,A
        INC     DPTR
        MOV     A,?V0 + 15
        MOVX    @DPTR,A
//  620   req.asduLen       = len;
        MOV     A,#0x15
        LCALL   ?XSTACK_DISP0_8
        MOV     A,?V0 + 12
        MOVX    @DPTR,A
        INC     DPTR
        MOV     A,?V0 + 13
        MOVX    @DPTR,A
//  621   req.asdu          = buf;
        MOV     A,#0x3c
        LCALL   ?XSTACK_DISP0_8
        MOVX    A,@DPTR
        MOV     R0,A
        INC     DPTR
        MOVX    A,@DPTR
        MOV     R1,A
        MOV     A,#0x17
        LCALL   ?XSTACK_DISP0_8
        MOV     A,R0
        MOVX    @DPTR,A
        INC     DPTR
        MOV     A,R1
        MOVX    @DPTR,A
//  622   req.discoverRoute = AF_DataRequestDiscoverRoute;//(uint8)((options & AF_DISCV_ROUTE) ? 1 : 0);
        MOV     DPTR,#AF_DataRequestDiscoverRoute
        MOVX    A,@DPTR
        PUSH    A
        CFI CFA_SP SP+-1
        MOV     A,#0x1c
        LCALL   ?XSTACK_DISP0_8
        POP     A
        CFI CFA_SP SP+0
        MOVX    @DPTR,A
//  623   req.radiusCounter = radius;
        MOV     A,?V0 + 4
        MOV     A,#0x1d
        LCALL   ?XSTACK_DISP0_8
        MOV     A,?V0 + 4
        MOVX    @DPTR,A
//  624 #if defined ( INTER_PAN )
//  625   req.dstPanId      = dstAddr->panId;
//  626 
//  627   if ( StubAPS_InterPan( dstAddr->panId, dstAddr->endPoint ) )
//  628   {
//  629     if ( len > INTERP_DataReqMTU() )
//  630     {
//  631       stat = afStatus_INVALID_PARAMETER;
//  632     }
//  633     else
//  634     {
//  635       stat = INTERP_DataReq( &req );
//  636     }
//  637   }
//  638   else
//  639 #endif // INTER_PAN
//  640   {
//  641     if (len > afDataReqMTU( &mtu ) )
        ; Setup parameters for call to function afDataReqMTU
        MOV     DPL,?XSP + 0
        MOV     DPH,?XSP + 1
        MOV     R2,DPL
        MOV     R3,DPH
        LCALL   ??afDataReqMTU?relay
        MOV     A,R1
        MOV     R0,A
        MOV     R1,#0x0
        CLR     C
        SUBB    A,?V0 + 12
        MOV     A,R1
        SUBB    A,?V0 + 13
        JNC     ??AF_DataRequest_18
//  642     {
//  643       if (apsfSendFragmented)
        MOV     DPTR,#apsfSendFragmented
        MOVX    A,@DPTR
        MOV     R0,A
        INC     DPTR
        MOVX    A,@DPTR
        MOV     R1,A
        MOV     A,R0
        ORL     A,R1
        JZ      ??AF_DataRequest_19
//  644       {
//  645         stat = (*apsfSendFragmented)( &req );
        ; Setup parameters for indirect call
        MOV     A,#0x4
        LCALL   ?XSTACK_DISP0_8
        MOV     R2,DPL
        MOV     R3,DPH
        MOV     DPTR,#apsfSendFragmented
        MOVX    A,@DPTR
        MOV     R0,A
        INC     DPTR
        MOVX    A,@DPTR
        MOV     DPH,A
        MOV     DPL,R0
        LCALL   ?CALL_IND
        MOV     A,R1
        MOV     ?V0 + 0,A
        SJMP    ??AF_DataRequest_20
//  646       }
//  647       else
//  648       {
//  649         stat = afStatus_INVALID_PARAMETER;
??AF_DataRequest_19:
        MOV     ?V0 + 0,#0x2
        SJMP    ??AF_DataRequest_20
//  650       }
//  651     }
//  652     else
//  653     {
//  654       stat = APSDE_DataReq( &req );
??AF_DataRequest_18:
        ; Setup parameters for call to function APSDE_DataReq
        MOV     A,#0x4
        LCALL   ?XSTACK_DISP0_8
        MOV     R2,DPL
        MOV     R3,DPH
        LCALL   ??APSDE_DataReq?relay
        MOV     A,R1
        MOV     ?V0 + 0,A
//  655     }
//  656   }
//  657 
//  658   /*
//  659    * If this is an EndPoint-to-EndPoint message on the same device, it will not
//  660    * get added to the NWK databufs. So it will not go OTA and it will not get
//  661    * a MACCB_DATA_CONFIRM_CMD callback. Thus it is necessary to generate the
//  662    * AF_DATA_CONFIRM_CMD here. Note that APSDE_DataConfirm() only generates one
//  663    * message with the first in line TransSeqNumber, even on a multi message.
//  664    * Also note that a reflected msg will not have its confirmation generated
//  665    * here.
//  666    */
//  667   if ( (req.dstAddr.addrMode == Addr16Bit) &&
//  668        (req.dstAddr.addr.shortAddr == NLME_GetShortAddr()) )
??AF_DataRequest_20:
        MOV     A,#0xc
        LCALL   ?XSTACK_DISP0_8
        MOVX    A,@DPTR
        XRL     A,#0x2
        JNZ     ??AF_DataRequest_21
        ; Setup parameters for call to function NLME_GetShortAddr
        LCALL   ??NLME_GetShortAddr?relay
        MOV     ?V0 + 6,R2
        MOV     ?V0 + 7,R3
        MOV     R0,?V0 + 6
        MOV     R1,?V0 + 7
        MOV     A,#0x4
        LCALL   ?XSTACK_DISP0_8
        MOVX    A,@DPTR
        XRL     A,R0
        JNZ     ??AF_DataRequest_22
        INC     DPTR
        MOVX    A,@DPTR
        XRL     A,R1
??AF_DataRequest_22:
        JNZ     ??AF_DataRequest_21
//  669   {
//  670     afDataConfirm( srcEP->endPoint, *transID, stat );
        ; Setup parameters for call to function afDataConfirm
        MOV     R3,?V0 + 0
        MOV     DPL,?V0 + 8
        MOV     DPH,?V0 + 9
        MOVX    A,@DPTR
        MOV     R2,A
        MOV     DPL,?V0 + 2
        MOV     DPH,?V0 + 3
        MOVX    A,@DPTR
        MOV     R1,A
        LCALL   ??afDataConfirm?relay
//  671   }
//  672 
//  673   if ( stat == afStatus_SUCCESS )
??AF_DataRequest_21:
        MOV     A,?V0 + 0
        JNZ     ??AF_DataRequest_23
//  674   {
//  675     (*transID)++;
        MOV     DPL,?V0 + 8
        MOV     DPH,?V0 + 9
        MOVX    A,@DPTR
        ADD     A,#0x1
        MOVX    @DPTR,A
//  676   }
//  677 
//  678   return (afStatus_t)stat;
??AF_DataRequest_23:
        MOV     R1,?V0 + 0
??AF_DataRequest_1:
        MOV     A,#0x20
        LCALL   ?DEALLOC_XSTACK8
        CFI CFA_XSP16 add(XSP16, 24)
        MOV     R7,#0x10
        LJMP    ?BANKED_LEAVE_XDATA
        CFI EndBlock cfiBlock6
//  679 }
//  680 
//  681 #if defined ( ZIGBEE_SOURCE_ROUTING )
//  682 /*********************************************************************
//  683  * @fn      AF_DataRequestSrcRtg
//  684  *
//  685  * @brief   Common functionality for invoking APSDE_DataReq() for both
//  686  *          SendMulti and MSG-Send.
//  687  *
//  688  * input parameters
//  689  *
//  690  * @param  *dstAddr - Full ZB destination address: Nwk Addr + End Point.
//  691  * @param  *srcEP - Origination (i.e. respond to or ack to) End Point Descr.
//  692  * @param   cID - A valid cluster ID as specified by the Profile.
//  693  * @param   len - Number of bytes of data pointed to by next param.
//  694  * @param  *buf - A pointer to the data bytes to send.
//  695  * @param  *transID - A pointer to a byte which can be modified and which will
//  696  *                    be used as the transaction sequence number of the msg.
//  697  * @param   options - Valid bit mask of Tx options.
//  698  * @param   radius - Normally set to AF_DEFAULT_RADIUS.
//  699  * @param   relayCnt - Number of devices in the relay list
//  700  * @param   pRelayList - Pointer to the relay list
//  701  *
//  702  * output parameters
//  703  *
//  704  * @param  *transID - Incremented by one if the return value is success.
//  705  *
//  706  * @return  afStatus_t - See previous definition of afStatus_... types.
//  707  */
//  708 

        RSEG BANKED_CODE:CODE:NOROOT(0)
//  709 afStatus_t AF_DataRequestSrcRtg( afAddrType_t *dstAddr, endPointDesc_t *srcEP,
AF_DataRequestSrcRtg:
        CFI Block cfiBlock7 Using cfiCommon0
        CFI Function AF_DataRequestSrcRtg
        CODE
//  710                            uint16 cID, uint16 len, uint8 *buf, uint8 *transID,
//  711                            uint8 options, uint8 radius, uint8 relayCnt, uint16* pRelayList )
//  712 {
        FUNCALL AF_DataRequestSrcRtg, RTG_AddSrcRtgEntry_Guaranteed
        LOCFRAME ISTACK, 0, STACK
        LOCFRAME PSTACK, 0, STACK
        LOCFRAME XSTACK, 24, STACK
        LOCFRAME IOVERLAY, 0, STATIC
        LOCFRAME DOVERLAY, 0, STATIC
        ARGFRAME ISTACK, 0, STACK
        ARGFRAME PSTACK, 0, STACK
        ARGFRAME XSTACK, 24, STACK
        ARGFRAME IOVERLAY, 0, STATIC
        ARGFRAME DOVERLAY, 0, STATIC
        FUNCALL AF_DataRequestSrcRtg, AF_DataRequest
        LOCFRAME ISTACK, 0, STACK
        LOCFRAME PSTACK, 0, STACK
        LOCFRAME XSTACK, 33, STACK
        LOCFRAME IOVERLAY, 0, STATIC
        LOCFRAME DOVERLAY, 0, STATIC
        ARGFRAME ISTACK, 0, STACK
        ARGFRAME PSTACK, 0, STACK
        ARGFRAME XSTACK, 33, STACK
        ARGFRAME IOVERLAY, 0, STATIC
        ARGFRAME DOVERLAY, 0, STATIC
        MOV     A,#-0x18
        LCALL   ?BANKED_ENTER_XDATA
        CFI DPH0 load(1, XDATA, add(CFA_XSP16, literal(-1)))
        CFI DPL0 load(1, XDATA, add(CFA_XSP16, literal(-2)))
        CFI ?BRET_EXT load(1, XDATA, add(CFA_XSP16, literal(-3)))
        CFI ?RET_HIGH load(1, XDATA, add(CFA_XSP16, literal(-4)))
        CFI ?RET_LOW load(1, XDATA, add(CFA_XSP16, literal(-5)))
        CFI R7 load(1, XDATA, add(CFA_XSP16, literal(-6)))
        CFI V15 load(1, XDATA, add(CFA_XSP16, literal(-7)))
        CFI V14 load(1, XDATA, add(CFA_XSP16, literal(-8)))
        CFI V13 load(1, XDATA, add(CFA_XSP16, literal(-9)))
        CFI V12 load(1, XDATA, add(CFA_XSP16, literal(-10)))
        CFI V11 load(1, XDATA, add(CFA_XSP16, literal(-11)))
        CFI V10 load(1, XDATA, add(CFA_XSP16, literal(-12)))
        CFI V9 load(1, XDATA, add(CFA_XSP16, literal(-13)))
        CFI V8 load(1, XDATA, add(CFA_XSP16, literal(-14)))
        CFI V7 load(1, XDATA, add(CFA_XSP16, literal(-15)))
        CFI V6 load(1, XDATA, add(CFA_XSP16, literal(-16)))
        CFI V5 load(1, XDATA, add(CFA_XSP16, literal(-17)))
        CFI V4 load(1, XDATA, add(CFA_XSP16, literal(-18)))
        CFI V3 load(1, XDATA, add(CFA_XSP16, literal(-19)))
        CFI V2 load(1, XDATA, add(CFA_XSP16, literal(-20)))
        CFI V1 load(1, XDATA, add(CFA_XSP16, literal(-21)))
        CFI V0 load(1, XDATA, add(CFA_XSP16, literal(-22)))
        CFI VB load(1, XDATA, add(CFA_XSP16, literal(-23)))
        CFI R6 load(1, XDATA, add(CFA_XSP16, literal(-24)))
        CFI CFA_SP SP+0
        CFI CFA_XSP16 add(XSP16, 24)
        ; Saved register size: 24
        ; Auto size: 0
        MOV     ?V0 + 6,R2
        MOV     ?V0 + 7,R3
        MOV     ?V0 + 10,R4
        MOV     ?V0 + 11,R5
        MOV     ?V0 + 5,R1
        MOV     A,#0x18
        LCALL   ?XSTACK_DISP0_8
        MOVX    A,@DPTR
        MOV     ?V0 + 0,A
        INC     DPTR
        MOVX    A,@DPTR
        MOV     ?V0 + 1,A
        MOV     A,#0x1a
        LCALL   ?XSTACK_DISP0_8
        MOVX    A,@DPTR
        MOV     R6,A
        INC     DPTR
        MOVX    A,@DPTR
        MOV     R7,A
        MOV     A,#0x1c
        LCALL   ?XSTACK_DISP0_8
        MOVX    A,@DPTR
        MOV     ?V0 + 14,A
        INC     DPTR
        MOVX    A,@DPTR
        MOV     ?V0 + 15,A
        MOV     A,#0x1e
        LCALL   ?XSTACK_DISP0_8
        MOVX    A,@DPTR
        MOV     ?V0 + 12,A
        INC     DPTR
        MOVX    A,@DPTR
        MOV     ?V0 + 13,A
        MOV     A,#0x20
        LCALL   ?XSTACK_DISP0_8
        MOVX    A,@DPTR
        MOV     ?V0 + 4,A
        MOV     A,#0x21
        LCALL   ?XSTACK_DISP0_8
        MOVX    A,@DPTR
        MOV     ?V0 + 2,A
//  713   uint8 status;
//  714 
//  715   /* Add the source route to the source routing table */
//  716   status = RTG_AddSrcRtgEntry_Guaranteed( dstAddr->addr.shortAddr, relayCnt,
//  717                                          pRelayList );
        ; Setup parameters for call to function RTG_AddSrcRtgEntry_Guaranteed
        MOV     A,#0x22
        LCALL   ?XSTACK_DISP0_8
        MOVX    A,@DPTR
        MOV     R4,A
        INC     DPTR
        MOVX    A,@DPTR
        MOV     R5,A
        MOV     R1,?V0 + 2
        MOV     DPL,?V0 + 6
        MOV     DPH,?V0 + 7
        MOVX    A,@DPTR
        MOV     R2,A
        INC     DPTR
        MOVX    A,@DPTR
        MOV     R3,A
        LCALL   ??RTG_AddSrcRtgEntry_Guaranteed?relay
        MOV     A,R1
        MOV     ?V0 + 3,A
//  718 
//  719   if( status == RTG_SUCCESS)
        MOV     A,?V0 + 3
        JNZ     ??AF_DataRequestSrcRtg_0
//  720   {
//  721     /* Call AF_DataRequest to send the data */
//  722     status = AF_DataRequest( dstAddr, srcEP, cID, len, buf, transID, options, radius );
        ; Setup parameters for call to function AF_DataRequest
        MOV     A,?V0 + 4
        MOV     ?V0 + 8,A
        MOV     R0,#?V0 + 8
        LCALL   ?PUSH_XSTACK_I_ONE
        CFI CFA_XSP16 add(XSP16, 25)
        MOV     ?V0 + 8,?V0 + 12
        MOV     ?V0 + 9,?V0 + 13
        MOV     R0,#?V0 + 8
        LCALL   ?PUSH_XSTACK_I_TWO
        CFI CFA_XSP16 add(XSP16, 27)
        MOV     ?V0 + 8,?V0 + 14
        MOV     ?V0 + 9,?V0 + 15
        MOV     R0,#?V0 + 8
        LCALL   ?PUSH_XSTACK_I_TWO
        CFI CFA_XSP16 add(XSP16, 29)
        MOV     ?V0 + 8,R6
        MOV     ?V0 + 9,R7
        MOV     R0,#?V0 + 8
        LCALL   ?PUSH_XSTACK_I_TWO
        CFI CFA_XSP16 add(XSP16, 31)
        MOV     R0,#?V0 + 0
        LCALL   ?PUSH_XSTACK_I_TWO
        CFI CFA_XSP16 add(XSP16, 33)
        MOV     R1,?V0 + 5
        MOV     R4,?V0 + 10
        MOV     R5,?V0 + 11
        MOV     R2,?V0 + 6
        MOV     R3,?V0 + 7
        LCALL   ??AF_DataRequest?relay
        MOV     A,#0x9
        LCALL   ?DEALLOC_XSTACK8
        CFI CFA_XSP16 add(XSP16, 24)
        MOV     A,R1
        MOV     ?V0 + 3,A
        SJMP    ??AF_DataRequestSrcRtg_1
//  723   }
//  724   else if( status == RTG_INVALID_PATH )
??AF_DataRequestSrcRtg_0:
        MOV     A,#0x5
        XRL     A,?V0 + 3
        JNZ     ??AF_DataRequestSrcRtg_2
//  725   {
//  726     /* The source route relay count is exceeding the network limit */
//  727     status = afStatus_INVALID_PARAMETER;
        MOV     ?V0 + 3,#0x2
        SJMP    ??AF_DataRequestSrcRtg_1
//  728   }
//  729   else
//  730   {
//  731     /* The guaranteed adding entry fails due to memory failure */
//  732     status = afStatus_MEM_FAIL;
??AF_DataRequestSrcRtg_2:
        MOV     ?V0 + 3,#0x10
//  733   }
//  734   return status;
??AF_DataRequestSrcRtg_1:
        MOV     R1,?V0 + 3
        MOV     R7,#0x10
        LJMP    ?BANKED_LEAVE_XDATA
        CFI EndBlock cfiBlock7
//  735 }
//  736 
//  737 #endif
//  738 
//  739 /*********************************************************************
//  740  * @fn      afFindEndPointDescList
//  741  *
//  742  * @brief   Find the endpoint description entry from the endpoint
//  743  *          number.
//  744  *
//  745  * @param   EndPoint - Application Endpoint to look for
//  746  *
//  747  * @return  the address to the endpoint/interface description entry
//  748  */

        RSEG BANKED_CODE:CODE:NOROOT(0)
//  749 static epList_t *afFindEndPointDescList( uint8 EndPoint )
afFindEndPointDescList:
        CFI Block cfiBlock8 Using cfiCommon0
        CFI Function afFindEndPointDescList
        CODE
//  750 {
        PUSH    DPL
        CFI DPL0 Frame(CFA_SP, 4)
        CFI CFA_SP SP+-4
        PUSH    DPH
        CFI DPH0 Frame(CFA_SP, 5)
        CFI CFA_SP SP+-5
        ; Saved register size: 2
        ; Auto size: 0
//  751   epList_t *epSearch;
//  752 
//  753   for (epSearch = epList; epSearch != NULL; epSearch = epSearch->nextDesc)
        MOV     DPTR,#epList
        MOVX    A,@DPTR
        MOV     R4,A
        INC     DPTR
        MOVX    A,@DPTR
        MOV     R5,A
        MOV     A,R4
        MOV     R2,A
        MOV     A,R5
        MOV     R3,A
??afFindEndPointDescList_0:
        MOV     A,R2
        ORL     A,R3
        JZ      ??afFindEndPointDescList_1
//  754   {
//  755     if (epSearch->epDesc->endPoint == EndPoint)
        MOV     DPL,R2
        MOV     DPH,R3
        INC     DPTR
        INC     DPTR
        MOVX    A,@DPTR
        MOV     R0,A
        INC     DPTR
        MOVX    A,@DPTR
        MOV     DPH,A
        MOV     DPL,R0
        MOVX    A,@DPTR
        XRL     A,R1
        JZ      ??afFindEndPointDescList_1
//  756     {
//  757       break;
//  758     }
//  759   }
        MOV     DPL,R2
        MOV     DPH,R3
        MOVX    A,@DPTR
        MOV     R2,A
        INC     DPTR
        MOVX    A,@DPTR
        MOV     R3,A
        SJMP    ??afFindEndPointDescList_0
//  760 
//  761   return epSearch;
??afFindEndPointDescList_1:
        POP     DPH
        CFI DPH0 SameValue
        CFI CFA_SP SP+-4
        POP     DPL
        CFI DPL0 SameValue
        CFI CFA_SP SP+-3
        LJMP    ?BRET
        CFI EndBlock cfiBlock8
//  762 }
//  763 
//  764 /*********************************************************************
//  765  * @fn      afFindEndPointDesc
//  766  *
//  767  * @brief   Find the endpoint description entry from the endpoint
//  768  *          number.
//  769  *
//  770  * @param   EndPoint - Application Endpoint to look for
//  771  *
//  772  * @return  the address to the endpoint/interface description entry
//  773  */

        RSEG BANKED_CODE:CODE:NOROOT(0)
//  774 endPointDesc_t *afFindEndPointDesc( uint8 EndPoint )
afFindEndPointDesc:
        CFI Block cfiBlock9 Using cfiCommon0
        CFI Function afFindEndPointDesc
        CODE
//  775 {
        FUNCALL afFindEndPointDesc, afFindEndPointDescList
        LOCFRAME ISTACK, 0, STACK
        LOCFRAME PSTACK, 0, STACK
        LOCFRAME XSTACK, 12, STACK
        LOCFRAME IOVERLAY, 0, STATIC
        LOCFRAME DOVERLAY, 0, STATIC
        ARGFRAME ISTACK, 0, STACK
        ARGFRAME PSTACK, 0, STACK
        ARGFRAME XSTACK, 12, STACK
        ARGFRAME IOVERLAY, 0, STATIC
        ARGFRAME DOVERLAY, 0, STATIC
        MOV     A,#-0xc
        LCALL   ?BANKED_ENTER_XDATA
        CFI DPH0 load(1, XDATA, add(CFA_XSP16, literal(-1)))
        CFI DPL0 load(1, XDATA, add(CFA_XSP16, literal(-2)))
        CFI ?BRET_EXT load(1, XDATA, add(CFA_XSP16, literal(-3)))
        CFI ?RET_HIGH load(1, XDATA, add(CFA_XSP16, literal(-4)))
        CFI ?RET_LOW load(1, XDATA, add(CFA_XSP16, literal(-5)))
        CFI R7 load(1, XDATA, add(CFA_XSP16, literal(-6)))
        CFI V3 load(1, XDATA, add(CFA_XSP16, literal(-7)))
        CFI V2 load(1, XDATA, add(CFA_XSP16, literal(-8)))
        CFI V1 load(1, XDATA, add(CFA_XSP16, literal(-9)))
        CFI V0 load(1, XDATA, add(CFA_XSP16, literal(-10)))
        CFI VB load(1, XDATA, add(CFA_XSP16, literal(-11)))
        CFI R6 load(1, XDATA, add(CFA_XSP16, literal(-12)))
        CFI CFA_SP SP+0
        CFI CFA_XSP16 add(XSP16, 12)
        ; Saved register size: 12
        ; Auto size: 0
        MOV     ?V0 + 0,R1
//  776   epList_t *epSearch;
//  777 
//  778   // Look for the endpoint
//  779   epSearch = afFindEndPointDescList( EndPoint );
        ; Setup parameters for call to function afFindEndPointDescList
        MOV     R1,?V0 + 0
        LCALL   ??afFindEndPointDescList?relay
        MOV     ?V0 + 2,R2
        MOV     ?V0 + 3,R3
        MOV     R6,?V0 + 2
        MOV     R7,?V0 + 3
//  780 
//  781   if ( epSearch )
        MOV     A,R6
        ORL     A,R7
        JZ      ??afFindEndPointDesc_0
//  782     return ( epSearch->epDesc );
        MOV     DPL,R6
        MOV     DPH,R7
        INC     DPTR
        INC     DPTR
        MOVX    A,@DPTR
        MOV     R2,A
        INC     DPTR
        MOVX    A,@DPTR
        MOV     R3,A
        SJMP    ??afFindEndPointDesc_1
//  783   else
//  784     return ( (endPointDesc_t *)NULL );
??afFindEndPointDesc_0:
        MOV     R2,#0x0
        MOV     R3,#0x0
??afFindEndPointDesc_1:
        MOV     R7,#0x4
        LJMP    ?BANKED_LEAVE_XDATA
        CFI EndBlock cfiBlock9
//  785 }
//  786 
//  787 /*********************************************************************
//  788  * @fn      afFindSimpleDesc
//  789  *
//  790  * @brief   Find the Simple Descriptor from the endpoint number.
//  791  *
//  792  * @param   EP - Application Endpoint to look for.
//  793  *
//  794  * @return  Non-zero to indicate that the descriptor memory must be freed.
//  795  */

        RSEG BANKED_CODE:CODE:NOROOT(0)
//  796 uint8 afFindSimpleDesc( SimpleDescriptionFormat_t **ppDesc, uint8 EP )
afFindSimpleDesc:
        CFI Block cfiBlock10 Using cfiCommon0
        CFI Function afFindSimpleDesc
        CODE
//  797 {
        FUNCALL afFindSimpleDesc, afFindEndPointDescList
        LOCFRAME ISTACK, 0, STACK
        LOCFRAME PSTACK, 0, STACK
        LOCFRAME XSTACK, 14, STACK
        LOCFRAME IOVERLAY, 0, STATIC
        LOCFRAME DOVERLAY, 0, STATIC
        ARGFRAME ISTACK, 0, STACK
        ARGFRAME PSTACK, 0, STACK
        ARGFRAME XSTACK, 14, STACK
        ARGFRAME IOVERLAY, 0, STATIC
        ARGFRAME DOVERLAY, 0, STATIC
        MOV     A,#-0xe
        LCALL   ?BANKED_ENTER_XDATA
        CFI DPH0 load(1, XDATA, add(CFA_XSP16, literal(-1)))
        CFI DPL0 load(1, XDATA, add(CFA_XSP16, literal(-2)))
        CFI ?BRET_EXT load(1, XDATA, add(CFA_XSP16, literal(-3)))
        CFI ?RET_HIGH load(1, XDATA, add(CFA_XSP16, literal(-4)))
        CFI ?RET_LOW load(1, XDATA, add(CFA_XSP16, literal(-5)))
        CFI R7 load(1, XDATA, add(CFA_XSP16, literal(-6)))
        CFI V5 load(1, XDATA, add(CFA_XSP16, literal(-7)))
        CFI V4 load(1, XDATA, add(CFA_XSP16, literal(-8)))
        CFI V3 load(1, XDATA, add(CFA_XSP16, literal(-9)))
        CFI V2 load(1, XDATA, add(CFA_XSP16, literal(-10)))
        CFI V1 load(1, XDATA, add(CFA_XSP16, literal(-11)))
        CFI V0 load(1, XDATA, add(CFA_XSP16, literal(-12)))
        CFI VB load(1, XDATA, add(CFA_XSP16, literal(-13)))
        CFI R6 load(1, XDATA, add(CFA_XSP16, literal(-14)))
        CFI CFA_SP SP+0
        CFI CFA_XSP16 add(XSP16, 14)
        ; Saved register size: 14
        ; Auto size: 0
        MOV     A,R2
        MOV     R6,A
        MOV     A,R3
        MOV     R7,A
        MOV     ?V0 + 0,R1
//  798   epList_t *epItem = afFindEndPointDescList( EP );
        ; Setup parameters for call to function afFindEndPointDescList
        MOV     R1,?V0 + 0
        LCALL   ??afFindEndPointDescList?relay
        MOV     ?V0 + 4,R2
        MOV     ?V0 + 5,R3
        MOV     ?V0 + 2,?V0 + 4
        MOV     ?V0 + 3,?V0 + 5
//  799   uint8 rtrn = FALSE;
        MOV     ?V0 + 1,#0x0
//  800 
//  801   if ( epItem )
        MOV     A,?V0 + 2
        ORL     A,?V0 + 3
        JZ      ??afFindSimpleDesc_0
//  802   {
//  803     if ( epItem->pfnDescCB )
        MOV     DPL,?V0 + 2
        MOV     DPH,?V0 + 3
        INC     DPTR
        INC     DPTR
        INC     DPTR
        INC     DPTR
        MOVX    A,@DPTR
        MOV     R0,A
        INC     DPTR
        MOVX    A,@DPTR
        MOV     R1,A
        MOV     A,R0
        ORL     A,R1
        JZ      ??afFindSimpleDesc_1
//  804     {
//  805       *ppDesc = epItem->pfnDescCB( AF_DESCRIPTOR_SIMPLE, EP );
        ; Setup parameters for indirect call
        MOV     R2,?V0 + 0
        MOV     R1,#0x1
        MOV     DPL,?V0 + 2
        MOV     DPH,?V0 + 3
        INC     DPTR
        INC     DPTR
        INC     DPTR
        INC     DPTR
        MOVX    A,@DPTR
        MOV     R0,A
        INC     DPTR
        MOVX    A,@DPTR
        MOV     DPH,A
        MOV     DPL,R0
        LCALL   ?CALL_IND
        MOV     DPL,R6
        MOV     DPH,R7
        MOV     A,R2
        MOVX    @DPTR,A
        INC     DPTR
        MOV     A,R3
        MOVX    @DPTR,A
//  806       rtrn = TRUE;
        MOV     ?V0 + 1,#0x1
        SJMP    ??afFindSimpleDesc_2
//  807     }
//  808     else
//  809     {
//  810       *ppDesc = epItem->epDesc->simpleDesc;
??afFindSimpleDesc_1:
        MOV     DPL,?V0 + 2
        MOV     DPH,?V0 + 3
        INC     DPTR
        INC     DPTR
        MOVX    A,@DPTR
        MOV     R0,A
        INC     DPTR
        MOVX    A,@DPTR
        MOV     DPH,A
        MOV     DPL,R0
        INC     DPTR
        INC     DPTR
        INC     DPTR
        MOVX    A,@DPTR
        MOV     R0,A
        INC     DPTR
        MOVX    A,@DPTR
        MOV     R1,A
        MOV     DPL,R6
        MOV     DPH,R7
        MOV     A,R0
        MOVX    @DPTR,A
        INC     DPTR
        MOV     A,R1
        MOVX    @DPTR,A
        SJMP    ??afFindSimpleDesc_2
//  811     }
//  812   }
//  813   else
//  814   {
//  815     *ppDesc = NULL;
??afFindSimpleDesc_0:
        MOV     DPL,R6
        MOV     DPH,R7
        MOV     A,#0x0
        MOVX    @DPTR,A
        INC     DPTR
        MOV     A,#0x0
        MOVX    @DPTR,A
//  816   }
//  817 
//  818   return rtrn;
??afFindSimpleDesc_2:
        MOV     R1,?V0 + 1
        MOV     R7,#0x6
        LJMP    ?BANKED_LEAVE_XDATA
        CFI EndBlock cfiBlock10
//  819 }
//  820 
//  821 /*********************************************************************
//  822  * @fn      afGetDescCB
//  823  *
//  824  * @brief   Get the Descriptor callback function.
//  825  *
//  826  * @param   epDesc - pointer to the endpoint descriptor
//  827  *
//  828  * @return  function pointer or NULL
//  829  */

        RSEG BANKED_CODE:CODE:NOROOT(0)
//  830 static pDescCB afGetDescCB( endPointDesc_t *epDesc )
afGetDescCB:
        CFI Block cfiBlock11 Using cfiCommon0
        CFI Function afGetDescCB
        CODE
//  831 {
        PUSH    DPL
        CFI DPL0 Frame(CFA_SP, 4)
        CFI CFA_SP SP+-4
        PUSH    DPH
        CFI DPH0 Frame(CFA_SP, 5)
        CFI CFA_SP SP+-5
        ; Saved register size: 2
        ; Auto size: 0
        MOV     A,R2
        MOV     R0,A
        MOV     A,R3
        MOV     R1,A
//  832   epList_t *epSearch;
//  833 
//  834   // Start at the beginning
//  835   epSearch = epList;
        MOV     DPTR,#epList
        MOVX    A,@DPTR
        MOV     R2,A
        INC     DPTR
        MOVX    A,@DPTR
        MOV     R3,A
        MOV     A,R2
        MOV     R4,A
        MOV     A,R3
        MOV     R5,A
//  836 
//  837   // Look through the list until the end
//  838   while ( epSearch )
??afGetDescCB_0:
        MOV     A,R4
        ORL     A,R5
        JZ      ??afGetDescCB_1
//  839   {
//  840     // Is there a match?
//  841     if ( epSearch->epDesc == epDesc )
        MOV     DPL,R4
        MOV     DPH,R5
        INC     DPTR
        INC     DPTR
        MOVX    A,@DPTR
        MOV     R2,A
        INC     DPTR
        MOVX    A,@DPTR
        MOV     R3,A
        MOV     A,R0
        XRL     A,R2
        JNZ     ??afGetDescCB_2
        MOV     A,R1
        XRL     A,R3
??afGetDescCB_2:
        JNZ     ??afGetDescCB_3
//  842     {
//  843       return ( epSearch->pfnDescCB );
        MOV     DPL,R4
        MOV     DPH,R5
        INC     DPTR
        INC     DPTR
        INC     DPTR
        INC     DPTR
        MOVX    A,@DPTR
        MOV     R2,A
        INC     DPTR
        MOVX    A,@DPTR
        MOV     R3,A
        SJMP    ??afGetDescCB_4
//  844     }
//  845     else
//  846       epSearch = epSearch->nextDesc;  // Next entry
??afGetDescCB_3:
        MOV     DPL,R4
        MOV     DPH,R5
        MOVX    A,@DPTR
        MOV     R2,A
        INC     DPTR
        MOVX    A,@DPTR
        MOV     R3,A
        MOV     A,R2
        MOV     R4,A
        MOV     A,R3
        MOV     R5,A
        SJMP    ??afGetDescCB_0
//  847   }
//  848 
//  849   return ( (pDescCB)NULL );
??afGetDescCB_1:
        MOV     R2,#0x0
        MOV     R3,#0x0
??afGetDescCB_4:
        POP     DPH
        CFI DPH0 SameValue
        CFI CFA_SP SP+-4
        POP     DPL
        CFI DPL0 SameValue
        CFI CFA_SP SP+-3
        LJMP    ?BRET
        CFI EndBlock cfiBlock11
//  850 }
//  851 
//  852 /*********************************************************************
//  853  * @fn      afDataReqMTU
//  854  *
//  855  * @brief   Get the Data Request MTU(Max Transport Unit).
//  856  *
//  857  * @param   fields - afDataReqMTU_t
//  858  *
//  859  * @return  uint8(MTU)
//  860  */

        RSEG BANKED_CODE:CODE:NOROOT(0)
//  861 uint8 afDataReqMTU( afDataReqMTU_t* fields )
afDataReqMTU:
        CFI Block cfiBlock12 Using cfiCommon0
        CFI Function afDataReqMTU
        CODE
//  862 {
        FUNCALL afDataReqMTU, APSDE_DataReqMTU
        LOCFRAME ISTACK, 0, STACK
        LOCFRAME PSTACK, 0, STACK
        LOCFRAME XSTACK, 10, STACK
        LOCFRAME IOVERLAY, 0, STATIC
        LOCFRAME DOVERLAY, 0, STATIC
        ARGFRAME ISTACK, 0, STACK
        ARGFRAME PSTACK, 0, STACK
        ARGFRAME XSTACK, 10, STACK
        ARGFRAME IOVERLAY, 0, STATIC
        ARGFRAME DOVERLAY, 0, STATIC
        MOV     A,#-0xa
        LCALL   ?BANKED_ENTER_XDATA
        CFI DPH0 load(1, XDATA, add(CFA_XSP16, literal(-1)))
        CFI DPL0 load(1, XDATA, add(CFA_XSP16, literal(-2)))
        CFI ?BRET_EXT load(1, XDATA, add(CFA_XSP16, literal(-3)))
        CFI ?RET_HIGH load(1, XDATA, add(CFA_XSP16, literal(-4)))
        CFI ?RET_LOW load(1, XDATA, add(CFA_XSP16, literal(-5)))
        CFI R7 load(1, XDATA, add(CFA_XSP16, literal(-6)))
        CFI V1 load(1, XDATA, add(CFA_XSP16, literal(-7)))
        CFI V0 load(1, XDATA, add(CFA_XSP16, literal(-8)))
        CFI VB load(1, XDATA, add(CFA_XSP16, literal(-9)))
        CFI R6 load(1, XDATA, add(CFA_XSP16, literal(-10)))
        CFI CFA_SP SP+0
        CFI CFA_XSP16 add(XSP16, 10)
        ; Saved register size: 10
        ; Auto size: 0
        MOV     A,R2
        MOV     R6,A
        MOV     A,R3
        MOV     R7,A
//  863   uint8 len;
//  864   uint8 hdr;
//  865 
//  866   if ( fields->kvp == TRUE )
        MOV     DPL,R6
        MOV     DPH,R7
        MOVX    A,@DPTR
        XRL     A,#0x1
        JNZ     ??afDataReqMTU_0
//  867   {
//  868     hdr = AF_HDR_KVP_MAX_LEN;
        MOV     ?V0 + 1,#0x8
        SJMP    ??afDataReqMTU_1
//  869   }
//  870   else
//  871   {
//  872     hdr = AF_HDR_V1_1_MAX_LEN;
??afDataReqMTU_0:
        MOV     ?V0 + 1,#0x0
//  873   }
//  874 
//  875   len = (uint8)(APSDE_DataReqMTU(&fields->aps) - hdr);
??afDataReqMTU_1:
        ; Setup parameters for call to function APSDE_DataReqMTU
        MOV     DPL,R6
        MOV     DPH,R7
        INC     DPTR
        MOV     R2,DPL
        MOV     R3,DPH
        LCALL   ??APSDE_DataReqMTU?relay
        MOV     A,R1
        CLR     C
        SUBB    A,?V0 + 1
        MOV     ?V0 + 0,A
//  876 
//  877   return len;
        MOV     R1,?V0 + 0
        MOV     R7,#0x2
        LJMP    ?BANKED_LEAVE_XDATA
        CFI EndBlock cfiBlock12
//  878 }
//  879 
//  880 /*********************************************************************
//  881  * @fn      afGetMatch
//  882  *
//  883  * @brief   Set the allow response flag.
//  884  *
//  885  * @param   ep - Application Endpoint to look for
//  886  * @param   action - true - allow response, false - no response
//  887  *
//  888  * @return  TRUE allow responses, FALSE no response
//  889  */

        RSEG BANKED_CODE:CODE:NOROOT(0)
//  890 uint8 afGetMatch( uint8 ep )
afGetMatch:
        CFI Block cfiBlock13 Using cfiCommon0
        CFI Function afGetMatch
        CODE
//  891 {
        FUNCALL afGetMatch, afFindEndPointDescList
        LOCFRAME ISTACK, 0, STACK
        LOCFRAME PSTACK, 0, STACK
        LOCFRAME XSTACK, 12, STACK
        LOCFRAME IOVERLAY, 0, STATIC
        LOCFRAME DOVERLAY, 0, STATIC
        ARGFRAME ISTACK, 0, STACK
        ARGFRAME PSTACK, 0, STACK
        ARGFRAME XSTACK, 12, STACK
        ARGFRAME IOVERLAY, 0, STATIC
        ARGFRAME DOVERLAY, 0, STATIC
        MOV     A,#-0xc
        LCALL   ?BANKED_ENTER_XDATA
        CFI DPH0 load(1, XDATA, add(CFA_XSP16, literal(-1)))
        CFI DPL0 load(1, XDATA, add(CFA_XSP16, literal(-2)))
        CFI ?BRET_EXT load(1, XDATA, add(CFA_XSP16, literal(-3)))
        CFI ?RET_HIGH load(1, XDATA, add(CFA_XSP16, literal(-4)))
        CFI ?RET_LOW load(1, XDATA, add(CFA_XSP16, literal(-5)))
        CFI R7 load(1, XDATA, add(CFA_XSP16, literal(-6)))
        CFI V3 load(1, XDATA, add(CFA_XSP16, literal(-7)))
        CFI V2 load(1, XDATA, add(CFA_XSP16, literal(-8)))
        CFI V1 load(1, XDATA, add(CFA_XSP16, literal(-9)))
        CFI V0 load(1, XDATA, add(CFA_XSP16, literal(-10)))
        CFI VB load(1, XDATA, add(CFA_XSP16, literal(-11)))
        CFI R6 load(1, XDATA, add(CFA_XSP16, literal(-12)))
        CFI CFA_SP SP+0
        CFI CFA_XSP16 add(XSP16, 12)
        ; Saved register size: 12
        ; Auto size: 0
        MOV     ?V0 + 0,R1
//  892   epList_t *epSearch;
//  893 
//  894   // Look for the endpoint
//  895   epSearch = afFindEndPointDescList( ep );
        ; Setup parameters for call to function afFindEndPointDescList
        MOV     R1,?V0 + 0
        LCALL   ??afFindEndPointDescList?relay
        MOV     ?V0 + 2,R2
        MOV     ?V0 + 3,R3
        MOV     R6,?V0 + 2
        MOV     R7,?V0 + 3
//  896 
//  897   if ( epSearch )
        MOV     A,R6
        ORL     A,R7
        JZ      ??afGetMatch_0
//  898   {
//  899     if ( epSearch->flags & eEP_AllowMatch )
        MOV     DPL,R6
        MOV     DPH,R7
        INC     DPTR
        INC     DPTR
        INC     DPTR
        INC     DPTR
        INC     DPTR
        INC     DPTR
        INC     DPTR
        INC     DPTR
        MOVX    A,@DPTR
        MOV     C,0xE0 /* A   */.0
        JNC     ??afGetMatch_1
//  900       return ( TRUE );
        MOV     R1,#0x1
        SJMP    ??afGetMatch_2
//  901     else
//  902       return ( FALSE );
??afGetMatch_1:
        MOV     R1,#0x0
        SJMP    ??afGetMatch_2
//  903   }
//  904   else
//  905     return ( FALSE );
??afGetMatch_0:
        MOV     R1,#0x0
??afGetMatch_2:
        MOV     R7,#0x4
        LJMP    ?BANKED_LEAVE_XDATA
        CFI EndBlock cfiBlock13
//  906 }
//  907 
//  908 /*********************************************************************
//  909  * @fn      afSetMatch
//  910  *
//  911  * @brief   Set the allow response flag.
//  912  *
//  913  * @param   ep - Application Endpoint to look for
//  914  * @param   action - true - allow response, false - no response
//  915  *
//  916  * @return  TRUE if success, FALSE if endpoint not found
//  917  */

        RSEG BANKED_CODE:CODE:NOROOT(0)
//  918 uint8 afSetMatch( uint8 ep, uint8 action )
afSetMatch:
        CFI Block cfiBlock14 Using cfiCommon0
        CFI Function afSetMatch
        CODE
//  919 {
        FUNCALL afSetMatch, afFindEndPointDescList
        LOCFRAME ISTACK, 0, STACK
        LOCFRAME PSTACK, 0, STACK
        LOCFRAME XSTACK, 12, STACK
        LOCFRAME IOVERLAY, 0, STATIC
        LOCFRAME DOVERLAY, 0, STATIC
        ARGFRAME ISTACK, 0, STACK
        ARGFRAME PSTACK, 0, STACK
        ARGFRAME XSTACK, 12, STACK
        ARGFRAME IOVERLAY, 0, STATIC
        ARGFRAME DOVERLAY, 0, STATIC
        MOV     A,#-0xc
        LCALL   ?BANKED_ENTER_XDATA
        CFI DPH0 load(1, XDATA, add(CFA_XSP16, literal(-1)))
        CFI DPL0 load(1, XDATA, add(CFA_XSP16, literal(-2)))
        CFI ?BRET_EXT load(1, XDATA, add(CFA_XSP16, literal(-3)))
        CFI ?RET_HIGH load(1, XDATA, add(CFA_XSP16, literal(-4)))
        CFI ?RET_LOW load(1, XDATA, add(CFA_XSP16, literal(-5)))
        CFI R7 load(1, XDATA, add(CFA_XSP16, literal(-6)))
        CFI V3 load(1, XDATA, add(CFA_XSP16, literal(-7)))
        CFI V2 load(1, XDATA, add(CFA_XSP16, literal(-8)))
        CFI V1 load(1, XDATA, add(CFA_XSP16, literal(-9)))
        CFI V0 load(1, XDATA, add(CFA_XSP16, literal(-10)))
        CFI VB load(1, XDATA, add(CFA_XSP16, literal(-11)))
        CFI R6 load(1, XDATA, add(CFA_XSP16, literal(-12)))
        CFI CFA_SP SP+0
        CFI CFA_XSP16 add(XSP16, 12)
        ; Saved register size: 12
        ; Auto size: 0
        MOV     ?V0 + 0,R1
        MOV     ?V0 + 1,R2
//  920   epList_t *epSearch;
//  921 
//  922   // Look for the endpoint
//  923   epSearch = afFindEndPointDescList( ep );
        ; Setup parameters for call to function afFindEndPointDescList
        MOV     R1,?V0 + 0
        LCALL   ??afFindEndPointDescList?relay
        MOV     ?V0 + 2,R2
        MOV     ?V0 + 3,R3
        MOV     R6,?V0 + 2
        MOV     R7,?V0 + 3
//  924 
//  925   if ( epSearch )
        MOV     A,R6
        ORL     A,R7
        JZ      ??afSetMatch_0
//  926   {
//  927     if ( action )
        MOV     A,?V0 + 1
        JZ      ??afSetMatch_1
//  928     {
//  929       epSearch->flags |= eEP_AllowMatch;
        MOV     DPL,R6
        MOV     DPH,R7
        INC     DPTR
        INC     DPTR
        INC     DPTR
        INC     DPTR
        INC     DPTR
        INC     DPTR
        INC     DPTR
        INC     DPTR
        MOVX    A,@DPTR
        SETB    0xE0 /* A   */.0
        MOVX    @DPTR,A
        SJMP    ??afSetMatch_2
//  930     }
//  931     else
//  932     {
//  933       epSearch->flags &= (eEP_AllowMatch ^ 0xFFFF);
??afSetMatch_1:
        MOV     DPL,R6
        MOV     DPH,R7
        INC     DPTR
        INC     DPTR
        INC     DPTR
        INC     DPTR
        INC     DPTR
        INC     DPTR
        INC     DPTR
        INC     DPTR
        MOVX    A,@DPTR
        CLR     0xE0 /* A   */.0
        MOVX    @DPTR,A
//  934     }
//  935     return ( TRUE );
??afSetMatch_2:
        MOV     R1,#0x1
        SJMP    ??afSetMatch_3
//  936   }
//  937   else
//  938     return ( FALSE );
??afSetMatch_0:
        MOV     R1,#0x0
??afSetMatch_3:
        MOV     R7,#0x4
        LJMP    ?BANKED_LEAVE_XDATA
        CFI EndBlock cfiBlock14
//  939 }
//  940 
//  941 /*********************************************************************
//  942  * @fn      afNumEndPoints
//  943  *
//  944  * @brief   Returns the number of endpoints defined (including 0)
//  945  *
//  946  * @param   none
//  947  *
//  948  * @return  number of endpoints
//  949  */

        RSEG BANKED_CODE:CODE:NOROOT(0)
//  950 uint8 afNumEndPoints( void )
afNumEndPoints:
        CFI Block cfiBlock15 Using cfiCommon0
        CFI Function afNumEndPoints
        CODE
//  951 {
        PUSH    DPL
        CFI DPL0 Frame(CFA_SP, 4)
        CFI CFA_SP SP+-4
        PUSH    DPH
        CFI DPH0 Frame(CFA_SP, 5)
        CFI CFA_SP SP+-5
        ; Saved register size: 2
        ; Auto size: 0
//  952   epList_t *epSearch;
//  953   uint8 endpoints;
//  954 
//  955   // Start at the beginning
//  956   epSearch = epList;
        MOV     DPTR,#epList
        MOVX    A,@DPTR
        MOV     R4,A
        INC     DPTR
        MOVX    A,@DPTR
        MOV     R5,A
        MOV     A,R4
        MOV     R2,A
        MOV     A,R5
        MOV     R3,A
//  957   endpoints = 0;
        MOV     R1,#0x0
//  958 
//  959   while ( epSearch )
??afNumEndPoints_0:
        MOV     A,R2
        ORL     A,R3
        JZ      ??afNumEndPoints_1
//  960   {
//  961     endpoints++;
        INC     R1
//  962     epSearch = epSearch->nextDesc;
        MOV     DPL,R2
        MOV     DPH,R3
        MOVX    A,@DPTR
        MOV     R2,A
        INC     DPTR
        MOVX    A,@DPTR
        MOV     R3,A
        SJMP    ??afNumEndPoints_0
//  963   }
//  964 
//  965   return ( endpoints );
??afNumEndPoints_1:
        POP     DPH
        CFI DPH0 SameValue
        CFI CFA_SP SP+-4
        POP     DPL
        CFI DPL0 SameValue
        CFI CFA_SP SP+-3
        LJMP    ?BRET
        CFI EndBlock cfiBlock15
//  966 }
//  967 
//  968 /*********************************************************************
//  969  * @fn      afEndPoints
//  970  *
//  971  * @brief   Fills in the passed in buffer with the endpoint (numbers).
//  972  *          Use afNumEndPoints to find out how big a buffer to supply.
//  973  *
//  974  * @param   epBuf - pointer to mem used
//  975  *
//  976  * @return  void
//  977  */

        RSEG BANKED_CODE:CODE:NOROOT(0)
//  978 void afEndPoints( uint8 *epBuf, uint8 skipZDO )
afEndPoints:
        CFI Block cfiBlock16 Using cfiCommon0
        CFI Function afEndPoints
        CODE
//  979 {
        MOV     A,#-0x9
        LCALL   ?BANKED_ENTER_XDATA
        CFI DPH0 load(1, XDATA, add(CFA_XSP16, literal(-1)))
        CFI DPL0 load(1, XDATA, add(CFA_XSP16, literal(-2)))
        CFI ?BRET_EXT load(1, XDATA, add(CFA_XSP16, literal(-3)))
        CFI ?RET_HIGH load(1, XDATA, add(CFA_XSP16, literal(-4)))
        CFI ?RET_LOW load(1, XDATA, add(CFA_XSP16, literal(-5)))
        CFI R7 load(1, XDATA, add(CFA_XSP16, literal(-6)))
        CFI V0 load(1, XDATA, add(CFA_XSP16, literal(-7)))
        CFI VB load(1, XDATA, add(CFA_XSP16, literal(-8)))
        CFI R6 load(1, XDATA, add(CFA_XSP16, literal(-9)))
        CFI CFA_SP SP+0
        CFI CFA_XSP16 add(XSP16, 9)
        ; Saved register size: 9
        ; Auto size: 0
//  980   epList_t *epSearch;
//  981   uint8 endPoint;
//  982 
//  983   // Start at the beginning
//  984   epSearch = epList;
        MOV     DPTR,#epList
        MOVX    A,@DPTR
        MOV     R6,A
        INC     DPTR
        MOVX    A,@DPTR
        MOV     R7,A
        MOV     A,R6
        MOV     R4,A
        MOV     A,R7
        MOV     R5,A
//  985 
//  986   while ( epSearch )
??afEndPoints_0:
        MOV     A,R4
        ORL     A,R5
        JZ      ??afEndPoints_1
//  987   {
//  988     endPoint = epSearch->epDesc->endPoint;
        MOV     DPL,R4
        MOV     DPH,R5
        INC     DPTR
        INC     DPTR
        MOVX    A,@DPTR
        MOV     R6,A
        INC     DPTR
        MOVX    A,@DPTR
        MOV     DPH,A
        MOV     DPL,R6
        MOVX    A,@DPTR
        MOV     R0,A
//  989 
//  990     if ( !skipZDO || endPoint != 0 )
        MOV     A,R1
        JZ      ??afEndPoints_2
        MOV     A,R0
        JZ      ??afEndPoints_3
//  991       *epBuf++ = endPoint;
??afEndPoints_2:
        MOV     A,R0
        MOV     DPL,R2
        MOV     DPH,R3
        MOVX    @DPTR,A
        MOV     DPL,R2
        MOV     DPH,R3
        INC     DPTR
        MOV     R2,DPL
        MOV     R3,DPH
//  992 
//  993     epSearch = epSearch->nextDesc;
??afEndPoints_3:
        MOV     DPL,R4
        MOV     DPH,R5
        MOVX    A,@DPTR
        MOV     R4,A
        INC     DPTR
        MOVX    A,@DPTR
        MOV     R5,A
        SJMP    ??afEndPoints_0
//  994   }
//  995 }
??afEndPoints_1:
        MOV     R7,#0x1
        LJMP    ?BANKED_LEAVE_XDATA
        CFI EndBlock cfiBlock16
//  996 
//  997 /*********************************************************************
//  998  * @fn      afCopyAddress
//  999  *
// 1000  * @brief   Fills in the passed in afAddrType_t parameter with the corresponding information
// 1001  *          from the zAddrType_t parameter.
// 1002  *
// 1003  * @param   epBuf - pointer to mem used
// 1004  *
// 1005  * @return  void
// 1006  */

        RSEG BANKED_CODE:CODE:NOROOT(0)
// 1007 void afCopyAddress( afAddrType_t *afAddr, zAddrType_t *zAddr )
afCopyAddress:
        CFI Block cfiBlock17 Using cfiCommon0
        CFI Function afCopyAddress
        CODE
// 1008 {
        FUNCALL afCopyAddress, sAddrExtCpy
        LOCFRAME ISTACK, 0, STACK
        LOCFRAME PSTACK, 0, STACK
        LOCFRAME XSTACK, 12, STACK
        LOCFRAME IOVERLAY, 0, STATIC
        LOCFRAME DOVERLAY, 0, STATIC
        ARGFRAME ISTACK, 0, STACK
        ARGFRAME PSTACK, 0, STACK
        ARGFRAME XSTACK, 12, STACK
        ARGFRAME IOVERLAY, 0, STATIC
        ARGFRAME DOVERLAY, 0, STATIC
        MOV     A,#-0xc
        LCALL   ?BANKED_ENTER_XDATA
        CFI DPH0 load(1, XDATA, add(CFA_XSP16, literal(-1)))
        CFI DPL0 load(1, XDATA, add(CFA_XSP16, literal(-2)))
        CFI ?BRET_EXT load(1, XDATA, add(CFA_XSP16, literal(-3)))
        CFI ?RET_HIGH load(1, XDATA, add(CFA_XSP16, literal(-4)))
        CFI ?RET_LOW load(1, XDATA, add(CFA_XSP16, literal(-5)))
        CFI R7 load(1, XDATA, add(CFA_XSP16, literal(-6)))
        CFI V3 load(1, XDATA, add(CFA_XSP16, literal(-7)))
        CFI V2 load(1, XDATA, add(CFA_XSP16, literal(-8)))
        CFI V1 load(1, XDATA, add(CFA_XSP16, literal(-9)))
        CFI V0 load(1, XDATA, add(CFA_XSP16, literal(-10)))
        CFI VB load(1, XDATA, add(CFA_XSP16, literal(-11)))
        CFI R6 load(1, XDATA, add(CFA_XSP16, literal(-12)))
        CFI CFA_SP SP+0
        CFI CFA_XSP16 add(XSP16, 12)
        ; Saved register size: 12
        ; Auto size: 0
        MOV     A,R2
        MOV     R6,A
        MOV     A,R3
        MOV     R7,A
        MOV     ?V0 + 0,R4
        MOV     ?V0 + 1,R5
// 1009   afAddr->addrMode = (afAddrMode_t)zAddr->addrMode;
        MOV     DPL,?V0 + 0
        MOV     DPH,?V0 + 1
        INC     DPTR
        INC     DPTR
        INC     DPTR
        INC     DPTR
        INC     DPTR
        INC     DPTR
        INC     DPTR
        INC     DPTR
        MOVX    A,@DPTR
        MOV     DPL,R6
        MOV     DPH,R7
        INC     DPTR
        INC     DPTR
        INC     DPTR
        INC     DPTR
        INC     DPTR
        INC     DPTR
        INC     DPTR
        INC     DPTR
        MOVX    @DPTR,A
// 1010   if ( zAddr->addrMode == Addr64Bit )
        MOV     DPL,?V0 + 0
        MOV     DPH,?V0 + 1
        INC     DPTR
        INC     DPTR
        INC     DPTR
        INC     DPTR
        INC     DPTR
        INC     DPTR
        INC     DPTR
        INC     DPTR
        MOVX    A,@DPTR
        XRL     A,#0x3
        JNZ     ??afCopyAddress_0
// 1011   {
// 1012     (void)osal_cpyExtAddr( afAddr->addr.extAddr, zAddr->addr.extAddr );
        ; Setup parameters for call to function sAddrExtCpy
        MOV     R4,?V0 + 0
        MOV     R5,?V0 + 1
        MOV     A,R6
        MOV     R2,A
        MOV     A,R7
        MOV     R3,A
        LCALL   ??sAddrExtCpy?relay
        MOV     ?V0 + 2,R2
        MOV     ?V0 + 3,R3
        MOV     DPL,?V0 + 2
        MOV     DPH,?V0 + 3
        SJMP    ??afCopyAddress_1
// 1013   }
// 1014   else
// 1015   {
// 1016     afAddr->addr.shortAddr = zAddr->addr.shortAddr;
??afCopyAddress_0:
        MOV     DPL,?V0 + 0
        MOV     DPH,?V0 + 1
        MOVX    A,@DPTR
        MOV     R0,A
        INC     DPTR
        MOVX    A,@DPTR
        MOV     R1,A
        MOV     DPL,R6
        MOV     DPH,R7
        MOV     A,R0
        MOVX    @DPTR,A
        INC     DPTR
        MOV     A,R1
        MOVX    @DPTR,A
// 1017   }
// 1018 
// 1019   // Since zAddrType_t has no INTER-PAN information, set the panId member to zero.
// 1020   afAddr->panId = 0;
??afCopyAddress_1:
        MOV     DPL,R6
        MOV     DPH,R7
        INC     DPTR
        INC     DPTR
        INC     DPTR
        INC     DPTR
        INC     DPTR
        INC     DPTR
        INC     DPTR
        INC     DPTR
        INC     DPTR
        INC     DPTR
        MOV     A,#0x0
        MOVX    @DPTR,A
        INC     DPTR
        MOV     A,#0x0
        MOVX    @DPTR,A
// 1021 }
        MOV     R7,#0x4
        LJMP    ?BANKED_LEAVE_XDATA
        CFI EndBlock cfiBlock17
// 1022 
// 1023 /**************************************************************************************************
// 1024  * @fn          afAPSF_ConfigGet
// 1025  *
// 1026  * @brief       This function ascertains the fragmentation configuration that corresponds to
// 1027  *              the specified EndPoint.
// 1028  *
// 1029  * input parameters
// 1030  *
// 1031  * @param       endPoint - The source EP of a Tx or destination EP of a Rx fragmented message.
// 1032  *
// 1033  * output parameters
// 1034  *
// 1035  * @param       pCfg - A pointer to an APSF configuration structure to fill with values.
// 1036  *
// 1037  * @return      None.
// 1038  */

        RSEG BANKED_CODE:CODE:NOROOT(0)
// 1039 void afAPSF_ConfigGet(uint8 endPoint, afAPSF_Config_t *pCfg)
afAPSF_ConfigGet:
        CFI Block cfiBlock18 Using cfiCommon0
        CFI Function afAPSF_ConfigGet
        CODE
// 1040 {
        FUNCALL afAPSF_ConfigGet, afFindEndPointDescList
        LOCFRAME ISTACK, 0, STACK
        LOCFRAME PSTACK, 0, STACK
        LOCFRAME XSTACK, 15, STACK
        LOCFRAME IOVERLAY, 0, STATIC
        LOCFRAME DOVERLAY, 0, STATIC
        ARGFRAME ISTACK, 0, STACK
        ARGFRAME PSTACK, 0, STACK
        ARGFRAME XSTACK, 15, STACK
        ARGFRAME IOVERLAY, 0, STATIC
        ARGFRAME DOVERLAY, 0, STATIC
        FUNCALL afAPSF_ConfigGet, osal_memcpy
        LOCFRAME ISTACK, 0, STACK
        LOCFRAME PSTACK, 0, STACK
        LOCFRAME XSTACK, 18, STACK
        LOCFRAME IOVERLAY, 0, STATIC
        LOCFRAME DOVERLAY, 0, STATIC
        ARGFRAME ISTACK, 0, STACK
        ARGFRAME PSTACK, 0, STACK
        ARGFRAME XSTACK, 18, STACK
        ARGFRAME IOVERLAY, 0, STATIC
        ARGFRAME DOVERLAY, 0, STATIC
        MOV     A,#-0xf
        LCALL   ?BANKED_ENTER_XDATA
        CFI DPH0 load(1, XDATA, add(CFA_XSP16, literal(-1)))
        CFI DPL0 load(1, XDATA, add(CFA_XSP16, literal(-2)))
        CFI ?BRET_EXT load(1, XDATA, add(CFA_XSP16, literal(-3)))
        CFI ?RET_HIGH load(1, XDATA, add(CFA_XSP16, literal(-4)))
        CFI ?RET_LOW load(1, XDATA, add(CFA_XSP16, literal(-5)))
        CFI R7 load(1, XDATA, add(CFA_XSP16, literal(-6)))
        CFI V6 load(1, XDATA, add(CFA_XSP16, literal(-7)))
        CFI V5 load(1, XDATA, add(CFA_XSP16, literal(-8)))
        CFI V4 load(1, XDATA, add(CFA_XSP16, literal(-9)))
        CFI V3 load(1, XDATA, add(CFA_XSP16, literal(-10)))
        CFI V2 load(1, XDATA, add(CFA_XSP16, literal(-11)))
        CFI V1 load(1, XDATA, add(CFA_XSP16, literal(-12)))
        CFI V0 load(1, XDATA, add(CFA_XSP16, literal(-13)))
        CFI VB load(1, XDATA, add(CFA_XSP16, literal(-14)))
        CFI R6 load(1, XDATA, add(CFA_XSP16, literal(-15)))
        CFI CFA_SP SP+0
        CFI CFA_XSP16 add(XSP16, 15)
        ; Saved register size: 15
        ; Auto size: 0
        MOV     ?V0 + 2,R1
        MOV     A,R2
        MOV     R6,A
        MOV     A,R3
        MOV     R7,A
// 1041   epList_t *pList = afFindEndPointDescList(endPoint);
        ; Setup parameters for call to function afFindEndPointDescList
        MOV     R1,?V0 + 2
        LCALL   ??afFindEndPointDescList?relay
        MOV     ?V0 + 4,R2
        MOV     ?V0 + 5,R3
        MOV     ?V0 + 0,?V0 + 4
        MOV     ?V0 + 1,?V0 + 5
// 1042 
// 1043   if (pList == NULL)
        MOV     A,?V0 + 0
        ORL     A,?V0 + 1
        JNZ     ??afAPSF_ConfigGet_0
// 1044   {
// 1045     pCfg->frameDelay = APSF_DEFAULT_INTERFRAME_DELAY;
        MOV     DPL,R6
        MOV     DPH,R7
        MOV     A,#0x32
        MOVX    @DPTR,A
// 1046     pCfg->windowSize = APSF_DEFAULT_WINDOW_SIZE;
        MOV     DPL,R6
        MOV     DPH,R7
        INC     DPTR
        MOV     A,#0x1
        MOVX    @DPTR,A
        SJMP    ??afAPSF_ConfigGet_1
// 1047   }
// 1048   else
// 1049   {
// 1050     (void)osal_memcpy(pCfg, &pList->apsfCfg, sizeof(afAPSF_Config_t));
??afAPSF_ConfigGet_0:
        ; Setup parameters for call to function osal_memcpy
        MOV     A,?V0 + 0
        ADD     A,#0x6
        MOV     ?V0 + 4,A
        MOV     A,?V0 + 1
        ADDC    A,#0x0
        MOV     ?V0 + 5,A
        MOV     ?V0 + 6,#0x0
        MOV     R0,#?V0 + 4
        LCALL   ?PUSH_XSTACK_I_THREE
        CFI CFA_XSP16 add(XSP16, 18)
        MOV     R4,#0x2
        MOV     R5,#0x0
        MOV     A,R6
        MOV     R2,A
        MOV     A,R7
        MOV     R3,A
        LCALL   ??osal_memcpy?relay
        MOV     A,#0x3
        LCALL   ?DEALLOC_XSTACK8
        CFI CFA_XSP16 add(XSP16, 15)
        MOV     ?V0 + 4,R2
        MOV     ?V0 + 5,R3
        MOV     DPL,?V0 + 4
        MOV     DPH,?V0 + 5
// 1051   }
// 1052 }
??afAPSF_ConfigGet_1:
        MOV     R7,#0x7
        LJMP    ?BANKED_LEAVE_XDATA
        CFI EndBlock cfiBlock18
// 1053 
// 1054 /**************************************************************************************************
// 1055  * @fn          afAPSF_ConfigSet
// 1056  *
// 1057  * @brief       This function attempts to set the fragmentation configuration that corresponds to
// 1058  *              the specified EndPoint.
// 1059  *
// 1060  * input parameters
// 1061  *
// 1062  * @param       endPoint - The specific EndPoint for which to set the fragmentation configuration.
// 1063  * @param       pCfg - A pointer to an APSF configuration structure to fill with values.
// 1064  *
// 1065  * output parameters
// 1066  *
// 1067  * None.
// 1068  *
// 1069  * @return      afStatus_SUCCESS for success.
// 1070  *              afStatus_INVALID_PARAMETER if the specified EndPoint is not registered.
// 1071  */

        RSEG BANKED_CODE:CODE:NOROOT(0)
// 1072 afStatus_t afAPSF_ConfigSet(uint8 endPoint, afAPSF_Config_t *pCfg)
afAPSF_ConfigSet:
        CFI Block cfiBlock19 Using cfiCommon0
        CFI Function afAPSF_ConfigSet
        CODE
// 1073 {
        FUNCALL afAPSF_ConfigSet, afFindEndPointDescList
        LOCFRAME ISTACK, 0, STACK
        LOCFRAME PSTACK, 0, STACK
        LOCFRAME XSTACK, 15, STACK
        LOCFRAME IOVERLAY, 0, STATIC
        LOCFRAME DOVERLAY, 0, STATIC
        ARGFRAME ISTACK, 0, STACK
        ARGFRAME PSTACK, 0, STACK
        ARGFRAME XSTACK, 15, STACK
        ARGFRAME IOVERLAY, 0, STATIC
        ARGFRAME DOVERLAY, 0, STATIC
        FUNCALL afAPSF_ConfigSet, osal_memcpy
        LOCFRAME ISTACK, 0, STACK
        LOCFRAME PSTACK, 0, STACK
        LOCFRAME XSTACK, 18, STACK
        LOCFRAME IOVERLAY, 0, STATIC
        LOCFRAME DOVERLAY, 0, STATIC
        ARGFRAME ISTACK, 0, STACK
        ARGFRAME PSTACK, 0, STACK
        ARGFRAME XSTACK, 18, STACK
        ARGFRAME IOVERLAY, 0, STATIC
        ARGFRAME DOVERLAY, 0, STATIC
        MOV     A,#-0xf
        LCALL   ?BANKED_ENTER_XDATA
        CFI DPH0 load(1, XDATA, add(CFA_XSP16, literal(-1)))
        CFI DPL0 load(1, XDATA, add(CFA_XSP16, literal(-2)))
        CFI ?BRET_EXT load(1, XDATA, add(CFA_XSP16, literal(-3)))
        CFI ?RET_HIGH load(1, XDATA, add(CFA_XSP16, literal(-4)))
        CFI ?RET_LOW load(1, XDATA, add(CFA_XSP16, literal(-5)))
        CFI R7 load(1, XDATA, add(CFA_XSP16, literal(-6)))
        CFI V6 load(1, XDATA, add(CFA_XSP16, literal(-7)))
        CFI V5 load(1, XDATA, add(CFA_XSP16, literal(-8)))
        CFI V4 load(1, XDATA, add(CFA_XSP16, literal(-9)))
        CFI V3 load(1, XDATA, add(CFA_XSP16, literal(-10)))
        CFI V2 load(1, XDATA, add(CFA_XSP16, literal(-11)))
        CFI V1 load(1, XDATA, add(CFA_XSP16, literal(-12)))
        CFI V0 load(1, XDATA, add(CFA_XSP16, literal(-13)))
        CFI VB load(1, XDATA, add(CFA_XSP16, literal(-14)))
        CFI R6 load(1, XDATA, add(CFA_XSP16, literal(-15)))
        CFI CFA_SP SP+0
        CFI CFA_XSP16 add(XSP16, 15)
        ; Saved register size: 15
        ; Auto size: 0
        MOV     ?V0 + 2,R1
        MOV     A,R2
        MOV     R6,A
        MOV     A,R3
        MOV     R7,A
// 1074   epList_t *pList = afFindEndPointDescList(endPoint);
        ; Setup parameters for call to function afFindEndPointDescList
        MOV     R1,?V0 + 2
        LCALL   ??afFindEndPointDescList?relay
        MOV     ?V0 + 4,R2
        MOV     ?V0 + 5,R3
        MOV     ?V0 + 0,?V0 + 4
        MOV     ?V0 + 1,?V0 + 5
// 1075 
// 1076   if (pList == NULL)
        MOV     A,?V0 + 0
        ORL     A,?V0 + 1
        JNZ     ??afAPSF_ConfigSet_0
// 1077   {
// 1078     return afStatus_INVALID_PARAMETER;
        MOV     R1,#0x2
        SJMP    ??afAPSF_ConfigSet_1
// 1079   }
// 1080 
// 1081   (void)osal_memcpy(&pList->apsfCfg, pCfg, sizeof(afAPSF_Config_t));
??afAPSF_ConfigSet_0:
        ; Setup parameters for call to function osal_memcpy
        MOV     ?V0 + 4,R6
        MOV     ?V0 + 5,R7
        MOV     ?V0 + 6,#0x0
        MOV     R0,#?V0 + 4
        LCALL   ?PUSH_XSTACK_I_THREE
        CFI CFA_XSP16 add(XSP16, 18)
        MOV     R4,#0x2
        MOV     R5,#0x0
        MOV     A,?V0 + 0
        ADD     A,#0x6
        MOV     R2,A
        MOV     A,?V0 + 1
        ADDC    A,#0x0
        MOV     R3,A
        LCALL   ??osal_memcpy?relay
        MOV     A,#0x3
        LCALL   ?DEALLOC_XSTACK8
        CFI CFA_XSP16 add(XSP16, 15)
        MOV     ?V0 + 4,R2
        MOV     ?V0 + 5,R3
        MOV     DPL,?V0 + 4
        MOV     DPH,?V0 + 5
// 1082   return afStatus_SUCCESS;
        MOV     R1,#0x0
??afAPSF_ConfigSet_1:
        MOV     R7,#0x7
        LJMP    ?BANKED_LEAVE_XDATA
        CFI EndBlock cfiBlock19
// 1083 }

        RSEG XDATA_ID:CODE:NOROOT(0)
`?<Initializer for AF_DataRequestDiscoverRoute>`:
        DATA8
        DB 1

        RSEG BANK_RELAYS:CODE:REORDER:NOROOT(0)
??afRegisterExtended?relay:
        LCALL   ?BDISPATCH
        DATA
        DC24    afRegisterExtended

        RSEG BANK_RELAYS:CODE:REORDER:NOROOT(0)
??afRegister?relay:
        LCALL   ?BDISPATCH
        DATA
        DC24    afRegister

        RSEG BANK_RELAYS:CODE:REORDER:NOROOT(0)
??afDelete?relay:
        LCALL   ?BDISPATCH
        DATA
        DC24    afDelete

        RSEG BANK_RELAYS:CODE:REORDER:NOROOT(0)
??afDataConfirm?relay:
        LCALL   ?BDISPATCH
        DATA
        DC24    afDataConfirm

        RSEG BANK_RELAYS:CODE:REORDER:NOROOT(0)
??afIncomingData?relay:
        LCALL   ?BDISPATCH
        DATA
        DC24    afIncomingData

        RSEG BANK_RELAYS:CODE:REORDER:NOROOT(0)
??afBuildMSGIncoming?relay:
        LCALL   ?BDISPATCH
        DATA
        DC24    afBuildMSGIncoming

        RSEG BANK_RELAYS:CODE:REORDER:NOROOT(0)
??AF_DataRequest?relay:
        LCALL   ?BDISPATCH
        DATA
        DC24    AF_DataRequest

        RSEG BANK_RELAYS:CODE:REORDER:NOROOT(0)
??AF_DataRequestSrcRtg?relay:
        LCALL   ?BDISPATCH
        DATA
        DC24    AF_DataRequestSrcRtg

        RSEG BANK_RELAYS:CODE:REORDER:NOROOT(0)
??afFindEndPointDescList?relay:
        LCALL   ?BDISPATCH
        DATA
        DC24    afFindEndPointDescList

        RSEG BANK_RELAYS:CODE:REORDER:NOROOT(0)
??afFindEndPointDesc?relay:
        LCALL   ?BDISPATCH
        DATA
        DC24    afFindEndPointDesc

        RSEG BANK_RELAYS:CODE:REORDER:NOROOT(0)
??afFindSimpleDesc?relay:
        LCALL   ?BDISPATCH
        DATA
        DC24    afFindSimpleDesc

        RSEG BANK_RELAYS:CODE:REORDER:NOROOT(0)
??afGetDescCB?relay:
        LCALL   ?BDISPATCH
        DATA
        DC24    afGetDescCB

        RSEG BANK_RELAYS:CODE:REORDER:NOROOT(0)
??afDataReqMTU?relay:
        LCALL   ?BDISPATCH
        DATA
        DC24    afDataReqMTU

        RSEG BANK_RELAYS:CODE:REORDER:NOROOT(0)
??afGetMatch?relay:
        LCALL   ?BDISPATCH
        DATA
        DC24    afGetMatch

        RSEG BANK_RELAYS:CODE:REORDER:NOROOT(0)
??afSetMatch?relay:
        LCALL   ?BDISPATCH
        DATA
        DC24    afSetMatch

        RSEG BANK_RELAYS:CODE:REORDER:NOROOT(0)
??afNumEndPoints?relay:
        LCALL   ?BDISPATCH
        DATA
        DC24    afNumEndPoints

        RSEG BANK_RELAYS:CODE:REORDER:NOROOT(0)
??afEndPoints?relay:
        LCALL   ?BDISPATCH
        DATA
        DC24    afEndPoints

        RSEG BANK_RELAYS:CODE:REORDER:NOROOT(0)
??afCopyAddress?relay:
        LCALL   ?BDISPATCH
        DATA
        DC24    afCopyAddress

        RSEG BANK_RELAYS:CODE:REORDER:NOROOT(0)
??afAPSF_ConfigGet?relay:
        LCALL   ?BDISPATCH
        DATA
        DC24    afAPSF_ConfigGet

        RSEG BANK_RELAYS:CODE:REORDER:NOROOT(0)
??afAPSF_ConfigSet?relay:
        LCALL   ?BDISPATCH
        DATA
        DC24    afAPSF_ConfigSet

        END
// 1084 
// 1085 /**************************************************************************************************
// 1086 */
// 
// 3 988 bytes in segment BANKED_CODE
//   120 bytes in segment BANK_RELAYS
//     1 byte  in segment XDATA_I
//     1 byte  in segment XDATA_ID
//     2 bytes in segment XDATA_Z
// 
// 4 109 bytes of CODE  memory
//     3 bytes of XDATA memory
//
//Errors: none
//Warnings: none
