###############################################################################
#                                                                             #
# IAR C/C++ Compiler V8.10.1.10194/W32 for 8051         13/Jul/2015  17:23:45 #
# Copyright 2004-2011 IAR Systems AB.                                         #
#                                                                             #
#    Core               =  plain                                              #
#    Code model         =  banked                                             #
#    Data model         =  large                                              #
#    Calling convention =  xdata reentrant                                    #
#    Constant location  =  data_rom                                           #
#    Dptr setup         =  1,16                                               #
#    Source file        =  C:\Texas Instruments\ZStack-CC2530-2.5.1a\Componen #
#                          ts\mac\low_level\srf04\mac_autopend.c              #
#    Command line       =  -f "C:\Texas Instruments\ZStack-CC2530-2.5.1a\Proj #
#                          ects\zstack\Samples\WirelessMonitorSystem\CC2530DB #
#                          \..\..\..\Tools\CC2530DB\f8wEndev.cfg"             #
#                          (-DCPU32MHZ -DROOT=__near_func                     #
#                          -DMAC_CFG_TX_DATA_MAX=3 -DMAC_CFG_TX_MAX=6         #
#                          -DMAC_CFG_RX_MAX=3) -f "C:\Texas                   #
#                          Instruments\ZStack-CC2530-2.5.1a\Projects\zstack\S #
#                          amples\WirelessMonitorSystem\CC2530DB\..\..\..\Too #
#                          ls\CC2530DB\f8wConfig.cfg" (-DZIGBEEPRO            #
#                          -DSECURE=0 -DZG_SECURE_DYNAMIC=0 -DREFLECTOR       #
#                          -DDEFAULT_CHANLIST=0x00000800                      #
#                          -DZDAPP_CONFIG_PAN_ID=0xFFFF                       #
#                          -DNWK_START_DELAY=100 -DEXTENDED_JOINING_RANDOM_MA #
#                          SK=0x007F -DBEACON_REQUEST_DELAY=100               #
#                          -DBEACON_REQ_DELAY_MASK=0x00FF                     #
#                          -DLINK_STATUS_JITTER_MASK=0x007F                   #
#                          -DROUTE_EXPIRY_TIME=30 -DAPSC_ACK_WAIT_DURATION_PO #
#                          LLED=3000 -DNWK_INDIRECT_MSG_TIMEOUT=7             #
#                          -DMAX_RREQ_ENTRIES=8 -DAPSC_MAX_FRAME_RETRIES=3    #
#                          -DNWK_MAX_DATA_RETRIES=2                           #
#                          -DMAX_POLL_FAILURE_RETRIES=2 -DMAX_BCAST=9         #
#                          -DAPS_MAX_GROUPS=16 -DMAX_RTG_ENTRIES=40           #
#                          -DNWK_MAX_BINDING_ENTRIES=4                        #
#                          -DMAX_BINDING_CLUSTER_IDS=4 "-DDEFAULT_KEY={0x01,  #
#                          0x03, 0x05, 0x07, 0x09, 0x0B, 0x0D, 0x0F, 0x00,    #
#                          0x02, 0x04, 0x06, 0x08, 0x0A, 0x0C, 0x0D}"         #
#                          -DMAC_MAX_FRAME_SIZE=116                           #
#                          -DZDNWKMGR_MIN_TRANSMISSIONS=20 "-DCONST=const     #
#                          __code" -DGENERIC=__generic                        #
#                          -DRFD_RCVC_ALWAYS_ON=FALSE -DPOLL_RATE=500         #
#                          -DQUEUED_POLL_RATE=30 -DRESPONSE_POLL_RATE=100)    #
#                          -DREJOIN_POLL_RATE=440 "C:\Texas                   #
#                          Instruments\ZStack-CC2530-2.5.1a\Components\mac\lo #
#                          w_level\srf04\mac_autopend.c" -D HAL_UART -lC      #
#                          "C:\Texas Instruments\ZStack-CC2530-2.5.1a\Project #
#                          s\zstack\Samples\WirelessMonitorSystem\CC2530DB\Ca #
#                          mera\List\" -lA "C:\Texas                          #
#                          Instruments\ZStack-CC2530-2.5.1a\Projects\zstack\S #
#                          amples\WirelessMonitorSystem\CC2530DB\Camera\List\ #
#                          " --diag_suppress Pe001,Pa010 -o "C:\Texas         #
#                          Instruments\ZStack-CC2530-2.5.1a\Projects\zstack\S #
#                          amples\WirelessMonitorSystem\CC2530DB\Camera\Obj\" #
#                           -e --no_cse --no_unroll --no_inline               #
#                          --no_code_motion --no_tbaa --debug --core=plain    #
#                          --dptr=16,1 --data_model=large                     #
#                          --code_model=banked --calling_convention=xdata_ree #
#                          ntrant --place_constants=data_rom                  #
#                          --nr_virtual_regs 16 -I "C:\Texas                  #
#                          Instruments\ZStack-CC2530-2.5.1a\Projects\zstack\S #
#                          amples\WirelessMonitorSystem\CC2530DB\" -I         #
#                          "C:\Texas Instruments\ZStack-CC2530-2.5.1a\Project #
#                          s\zstack\Samples\WirelessMonitorSystem\CC2530DB\.. #
#                          \Source\" -I "C:\Texas Instruments\ZStack-CC2530-2 #
#                          .5.1a\Projects\zstack\Samples\WirelessMonitorSyste #
#                          m\CC2530DB\..\..\..\ZMain\TI2530DB\" -I "C:\Texas  #
#                          Instruments\ZStack-CC2530-2.5.1a\Projects\zstack\S #
#                          amples\WirelessMonitorSystem\CC2530DB\..\..\..\..\ #
#                          ..\Components\hal\include\" -I "C:\Texas           #
#                          Instruments\ZStack-CC2530-2.5.1a\Projects\zstack\S #
#                          amples\WirelessMonitorSystem\CC2530DB\..\..\..\..\ #
#                          ..\Components\hal\target\CC2530EB\" -I "C:\Texas   #
#                          Instruments\ZStack-CC2530-2.5.1a\Projects\zstack\S #
#                          amples\WirelessMonitorSystem\CC2530DB\..\..\..\..\ #
#                          ..\Components\mac\include\" -I "C:\Texas           #
#                          Instruments\ZStack-CC2530-2.5.1a\Projects\zstack\S #
#                          amples\WirelessMonitorSystem\CC2530DB\..\..\..\..\ #
#                          ..\Components\mac\high_level\" -I "C:\Texas        #
#                          Instruments\ZStack-CC2530-2.5.1a\Projects\zstack\S #
#                          amples\WirelessMonitorSystem\CC2530DB\..\..\..\..\ #
#                          ..\Components\mac\low_level\srf04\" -I "C:\Texas   #
#                          Instruments\ZStack-CC2530-2.5.1a\Projects\zstack\S #
#                          amples\WirelessMonitorSystem\CC2530DB\..\..\..\..\ #
#                          ..\Components\mac\low_level\srf04\single_chip\"    #
#                          -I "C:\Texas Instruments\ZStack-CC2530-2.5.1a\Proj #
#                          ects\zstack\Samples\WirelessMonitorSystem\CC2530DB #
#                          \..\..\..\..\..\Components\mt\" -I "C:\Texas       #
#                          Instruments\ZStack-CC2530-2.5.1a\Projects\zstack\S #
#                          amples\WirelessMonitorSystem\CC2530DB\..\..\..\..\ #
#                          ..\Components\osal\include\" -I "C:\Texas          #
#                          Instruments\ZStack-CC2530-2.5.1a\Projects\zstack\S #
#                          amples\WirelessMonitorSystem\CC2530DB\..\..\..\..\ #
#                          ..\Components\services\saddr\" -I "C:\Texas        #
#                          Instruments\ZStack-CC2530-2.5.1a\Projects\zstack\S #
#                          amples\WirelessMonitorSystem\CC2530DB\..\..\..\..\ #
#                          ..\Components\services\sdata\" -I "C:\Texas        #
#                          Instruments\ZStack-CC2530-2.5.1a\Projects\zstack\S #
#                          amples\WirelessMonitorSystem\CC2530DB\..\..\..\..\ #
#                          ..\Components\stack\af\" -I "C:\Texas              #
#                          Instruments\ZStack-CC2530-2.5.1a\Projects\zstack\S #
#                          amples\WirelessMonitorSystem\CC2530DB\..\..\..\..\ #
#                          ..\Components\stack\nwk\" -I "C:\Texas             #
#                          Instruments\ZStack-CC2530-2.5.1a\Projects\zstack\S #
#                          amples\WirelessMonitorSystem\CC2530DB\..\..\..\..\ #
#                          ..\Components\stack\sapi\" -I "C:\Texas            #
#                          Instruments\ZStack-CC2530-2.5.1a\Projects\zstack\S #
#                          amples\WirelessMonitorSystem\CC2530DB\..\..\..\..\ #
#                          ..\Components\stack\sec\" -I "C:\Texas             #
#                          Instruments\ZStack-CC2530-2.5.1a\Projects\zstack\S #
#                          amples\WirelessMonitorSystem\CC2530DB\..\..\..\..\ #
#                          ..\Components\stack\sys\" -I "C:\Texas             #
#                          Instruments\ZStack-CC2530-2.5.1a\Projects\zstack\S #
#                          amples\WirelessMonitorSystem\CC2530DB\..\..\..\..\ #
#                          ..\Components\stack\zdo\" -I "C:\Texas             #
#                          Instruments\ZStack-CC2530-2.5.1a\Projects\zstack\S #
#                          amples\WirelessMonitorSystem\CC2530DB\..\..\..\..\ #
#                          ..\Components\zmac\" -I "C:\Texas                  #
#                          Instruments\ZStack-CC2530-2.5.1a\Projects\zstack\S #
#                          amples\WirelessMonitorSystem\CC2530DB\..\..\..\..\ #
#                          ..\Components\zmac\f8w\" -On --require_prototypes  #
#    List file          =  C:\Texas Instruments\ZStack-CC2530-2.5.1a\Projects #
#                          \zstack\Samples\WirelessMonitorSystem\CC2530DB\Cam #
#                          era\List\mac_autopend.lst                          #
#    Object file        =  C:\Texas Instruments\ZStack-CC2530-2.5.1a\Projects #
#                          \zstack\Samples\WirelessMonitorSystem\CC2530DB\Cam #
#                          era\Obj\mac_autopend.r51                           #
#                                                                             #
#                                                                             #
###############################################################################

C:\Texas Instruments\ZStack-CC2530-2.5.1a\Components\mac\low_level\srf04\mac_autopend.c
      1          /**************************************************************************************************
      2            Filename:       mac_autopend.c
      3            Revised:        $Date: 2009-08-28 09:29:33 -0700 (Fri, 28 Aug 2009) $
      4            Revision:       $Revision: 20674 $
      5          
      6            Description:    This file implements the TIMAC Autopend feature.
      7          
      8          
      9            Copyright 2006-2009 Texas Instruments Incorporated. All rights reserved.
     10          
     11            IMPORTANT: Your use of this Software is limited to those specific rights
     12            granted under the terms of a software license agreement between the user
     13            who downloaded the software, his/her employer (which must be your employer)
     14            and Texas Instruments Incorporated (the "License").  You may not use this
     15            Software unless you agree to abide by the terms of the License. The License
     16            limits your use, and you acknowledge, that the Software may not be modified,
     17            copied or distributed unless embedded on a Texas Instruments microcontroller
     18            or used solely and exclusively in conjunction with a Texas Instruments radio
     19            frequency transceiver, which is integrated into your product.  Other than for
     20            the foregoing purpose, you may not use, reproduce, copy, prepare derivative
     21            works of, modify, distribute, perform, display or sell this Software and/or
     22            its documentation for any purpose.
     23          
     24            YOU FURTHER ACKNOWLEDGE AND AGREE THAT THE SOFTWARE AND DOCUMENTATION ARE
     25            PROVIDED “AS IS” WITHOUT WARRANTY OF ANY KIND, EITHER EXPRESS OR IMPLIED,
     26            INCLUDING WITHOUT LIMITATION, ANY WARRANTY OF MERCHANTABILITY, TITLE,
     27            NON-INFRINGEMENT AND FITNESS FOR A PARTICULAR PURPOSE. IN NO EVENT SHALL
     28            TEXAS INSTRUMENTS OR ITS LICENSORS BE LIABLE OR OBLIGATED UNDER CONTRACT,
     29            NEGLIGENCE, STRICT LIABILITY, CONTRIBUTION, BREACH OF WARRANTY, OR OTHER
     30            LEGAL EQUITABLE THEORY ANY DIRECT OR INDIRECT DAMAGES OR EXPENSES
     31            INCLUDING BUT NOT LIMITED TO ANY INCIDENTAL, SPECIAL, INDIRECT, PUNITIVE
     32            OR CONSEQUENTIAL DAMAGES, LOST PROFITS OR LOST DATA, COST OF PROCUREMENT
     33            OF SUBSTITUTE GOODS, TECHNOLOGY, SERVICES, OR ANY CLAIMS BY THIRD PARTIES
     34            (INCLUDING BUT NOT LIMITED TO ANY DEFENSE THEREOF), OR OTHER SIMILAR COSTS.
     35          
     36            Should you have any questions regarding your right to use this Software,
     37            contact Texas Instruments Incorporated at www.TI.com.
     38          **************************************************************************************************/
     39          
     40          /* low-level */
     41          #include "mac_api.h"
     42          #include "mac_radio_defs.h"
     43          
     44          /* osal */
     45          #include "OSAL.h"
     46          #include "saddr.h"
     47          #include "ZComDef.h"
     48          
     49          #include "mac_autopend.h"
     50          
     51          /* ------------------------------------------------------------------------------------------------
     52           *                                           Defines
     53           * ------------------------------------------------------------------------------------------------
     54           */
     55          #define MAC_SRCMATCH_INVALID_INDEX           0xFF
     56          
     57          #define MAC_SRCMATCH_SHORT_ENTRY_SIZE        4
     58          #define MAC_SRCMATCH_EXT_ENTRY_SIZE          Z_EXTADDR_LEN
     59          
     60          #define MAC_SRCMATCH_SHORT_MAX_NUM_ENTRIES   24
     61          #define MAC_SRCMATCH_EXT_MAX_NUM_ENTRIES     12
     62          
     63          #define MAC_SRCMATCH_ENABLE_BITMAP_LEN       3
     64                    
     65          /* ------------------------------------------------------------------------------------------------
     66           *                                      Global Variables
     67           * ------------------------------------------------------------------------------------------------
     68           */

   \                                 In  segment XDATA_Z, align 1, keep-with-next
     69          bool macSrcMatchIsEnabled = FALSE; 
   \                     macSrcMatchIsEnabled:
   \   000000                DS 1
   \   000001                REQUIRE __INIT_XDATA_Z
     70          
     71          /* ------------------------------------------------------------------------------------------------
     72           *                                         Local Variables
     73           * ------------------------------------------------------------------------------------------------
     74           */
     75          
     76          /* 
     77           The following local Varables are only set in MAC_SrcMatchEnable()  
     78           They are read only to the rest of the module.
     79           */

   \                                 In  segment XDATA_Z, align 1, keep-with-next
     80          uint8 macSrcMatchMaxNumEntries = 0;   
   \                     macSrcMatchMaxNumEntries:
   \   000000                DS 1
   \   000001                REQUIRE __INIT_XDATA_Z

   \                                 In  segment XDATA_I, align 1, keep-with-next
     81          uint8 macSrcMatchAddrMode = SADDR_MODE_SHORT;  
   \                     macSrcMatchAddrMode:
   \   000000                DS 1
   \   000001                REQUIRE `?<Initializer for macSrcMatchAddrMode>`
   \   000001                REQUIRE __INIT_XDATA_I

   \                                 In  segment XDATA_Z, align 1, keep-with-next
     82          bool macSrcMatchIsAckAllPending = FALSE;
   \                     macSrcMatchIsAckAllPending:
   \   000000                DS 1
   \   000001                REQUIRE __INIT_XDATA_Z
     83          
     84          /* ------------------------------------------------------------------------------------------------
     85           *                                         Local Functions
     86           * ------------------------------------------------------------------------------------------------
     87           */
     88          static uint8 macSrcMatchFindEmptyEntry( void );
     89          static uint8 macSrcMatchCheckSrcAddr ( sAddr_t *addr, uint16 panID  );
     90          static void macSrcMatchSetPendEnBit( uint8 index );
     91          static void macSrcMatchSetEnableBit( uint8 index, bool option );
     92          static bool macSrcMatchCheckEnableBit( uint8 index );
     93          static uint24 macSrcMatchGetEnableBit( void );
     94          static uint24 macSrcMatchGetPendEnBit( void );
     95          
     96          /*********************************************************************
     97           * @fn          MAC_SrcMatchEnable
     98           *
     99           * @brief      Enabled AUTOPEND and source address matching. If number of source
    100           *             address table entries asked for is more than the hardware
    101           *             supports. It will allocate maximum number of entries and return 
    102           *             MAC_INVALID_PARAMETER. This function shall be not be called from 
    103           *             ISR. It is not thread safe.
    104           *
    105           * @param      addressType - address type that the application uses
    106           *                           SADDR_MODE_SHORT or SADDR_MODE_EXT
    107           * @param      num - number of source address table entries to be used
    108           *
    109           * @return     MAC_SUCCESS or MAC_INVALID_PARAMETER
    110           */

   \                                 In  segment BANKED_CODE, align 1, keep-with-next
    111          uint8 MAC_SrcMatchEnable ( uint8 addrType, uint8 num  )
   \                     MAC_SrcMatchEnable:
    112          {
   \   000000   C082         PUSH    DPL
   \   000002   C083         PUSH    DPH
   \   000004                ; Saved register size: 2
   \   000004                ; Auto size: 0
   \   000004   E9           MOV     A,R1
   \   000005   FB           MOV     R3,A
    113            uint8 rtn;
    114            uint8 maxNum;
    115              
    116            /* Verify the address type */
    117            if( addrType != SADDR_MODE_SHORT && addrType != SADDR_MODE_EXT )
   \   000006   7402         MOV     A,#0x2
   \   000008   6B           XRL     A,R3
   \   000009   6009         JZ      ??MAC_SrcMatchEnable_0
   \   00000B   7403         MOV     A,#0x3
   \   00000D   6B           XRL     A,R3
   \   00000E   6004         JZ      ??MAC_SrcMatchEnable_0
    118            {
    119              return MAC_INVALID_PARAMETER;
   \   000010   79E8         MOV     R1,#-0x18
   \   000012   804D         SJMP    ??MAC_SrcMatchEnable_1
    120            }
    121            
    122            maxNum = ( addrType == SADDR_MODE_SHORT ) ? 
    123                     MAC_SRCMATCH_SHORT_MAX_NUM_ENTRIES : MAC_SRCMATCH_EXT_MAX_NUM_ENTRIES;
   \                     ??MAC_SrcMatchEnable_0:
   \   000014   7402         MOV     A,#0x2
   \   000016   6B           XRL     A,R3
   \   000017   7004         JNZ     ??MAC_SrcMatchEnable_2
   \   000019   7418         MOV     A,#0x18
   \   00001B   8002         SJMP    ??MAC_SrcMatchEnable_3
   \                     ??MAC_SrcMatchEnable_2:
   \   00001D   740C         MOV     A,#0xc
   \                     ??MAC_SrcMatchEnable_3:
   \   00001F   FC           MOV     R4,A
    124                     
    125            if( num > maxNum )
   \   000020   EC           MOV     A,R4
   \   000021   C3           CLR     C
   \   000022   9A           SUBB    A,R2
   \   000023   5006         JNC     ??MAC_SrcMatchEnable_4
    126            {
    127              rtn = MAC_INVALID_PARAMETER;
   \   000025   78E8         MOV     R0,#-0x18
    128              num = maxNum;
   \   000027   EC           MOV     A,R4
   \   000028   FA           MOV     R2,A
   \   000029   8002         SJMP    ??MAC_SrcMatchEnable_5
    129            }
    130            else
    131            {
    132              rtn = MAC_SUCCESS;
   \                     ??MAC_SrcMatchEnable_4:
   \   00002B   7800         MOV     R0,#0x0
    133            }
    134              
    135            /* Turn on Frame Filter (TIMAC enables frame filter by default), TBD */
    136            MAC_RADIO_TURN_ON_RX_FRAME_FILTERING();
   \                     ??MAC_SrcMatchEnable_5:
   \   00002D   906180       MOV     DPTR,#0x6180
   \   000030   7400         MOV     A,#0x0
   \   000032   F0           MOVX    @DPTR,A
   \   000033   906180       MOV     DPTR,#0x6180
   \   000036   E0           MOVX    A,@DPTR
   \   000037   4405         ORL     A,#0x5
   \   000039   F0           MOVX    @DPTR,A
    137            
    138            /* Turn on Auto ACK (TIMAC turn on Auto ACK by default), TBD */
    139            MAC_RADIO_TURN_ON_AUTO_ACK();
   \   00003A   906189       MOV     DPTR,#0x6189
   \   00003D   E0           MOVX    A,@DPTR
   \   00003E   D2E5         SETB    0xE0 /* A   */.5
   \   000040   F0           MOVX    @DPTR,A
    140            
    141            /* Turn on Autopend: set SRCMATCH.AUTOPEND and SRCMATCH.SRC_MATCH_EN */
    142            MAC_RADIO_TURN_ON_SRC_MATCH();
   \   000041   906182       MOV     DPTR,#0x6182
   \   000044   E0           MOVX    A,@DPTR
   \   000045   D2E0         SETB    0xE0 /* A   */.0
   \   000047   F0           MOVX    @DPTR,A
    143           
    144            /* Set SRCMATCH.AUTOPEND */
    145            MAC_RADIO_TURN_ON_AUTOPEND();
   \   000048   906182       MOV     DPTR,#0x6182
   \   00004B   E0           MOVX    A,@DPTR
   \   00004C   D2E1         SETB    0xE0 /* A   */.1
   \   00004E   F0           MOVX    @DPTR,A
    146            
    147            /* Configure all the globals */
    148            macSrcMatchIsEnabled = TRUE;
   \   00004F   90....       MOV     DPTR,#macSrcMatchIsEnabled
   \   000052   7401         MOV     A,#0x1
   \   000054   F0           MOVX    @DPTR,A
    149            macSrcMatchMaxNumEntries = num;
   \   000055   EA           MOV     A,R2
   \   000056   90....       MOV     DPTR,#macSrcMatchMaxNumEntries
   \   000059   F0           MOVX    @DPTR,A
    150            macSrcMatchAddrMode = addrType;           
   \   00005A   EB           MOV     A,R3
   \   00005B   90....       MOV     DPTR,#macSrcMatchAddrMode
   \   00005E   F0           MOVX    @DPTR,A
    151          
    152            return rtn;
   \   00005F   E8           MOV     A,R0
   \   000060   F9           MOV     R1,A
   \                     ??MAC_SrcMatchEnable_1:
   \   000061   D083         POP     DPH
   \   000063   D082         POP     DPL
   \   000065   02....       LJMP    ?BRET
    153          }
    154          
    155          /*********************************************************************
    156           * @fn          MAC_SrcMatchAddEntry
    157           *
    158           * @brief       Add a short or extended address to source address table. This 
    159           *              function shall be not be called from ISR. It is not thread safe.
    160           *
    161           * @param       addr - a pointer to sAddr_t which contains addrMode 
    162           *                     and a union of a short 16-bit MAC address or an extended 
    163           *                     64-bit MAC address to be added to the source address table. 
    164           * @param       panID - the device PAN ID. It is only used when the addr is 
    165           *                      using short address 
    166          
    167           * @return      MAC_SUCCESS or MAC_NO_RESOURCES (source address table full) 
    168           *              or MAC_DUPLICATED_ENTRY (the entry added is duplicated),
    169           *              or MAC_INVALID_PARAMETER if the input parameters are invalid.
    170           */

   \                                 In  segment BANKED_CODE, align 1, keep-with-next
    171          uint8 MAC_SrcMatchAddEntry ( sAddr_t *addr, uint16 panID )
   \                     MAC_SrcMatchAddEntry:
    172          {
   \   000000   74F5         MOV     A,#-0xb
   \   000002   12....       LCALL   ?BANKED_ENTER_XDATA
   \   000005                ; Saved register size: 11
   \   000005                ; Auto size: 4
   \   000005   74FC         MOV     A,#-0x4
   \   000007   12....       LCALL   ?ALLOC_XSTACK8
   \   00000A   8A..         MOV     ?V0 + 0,R2
   \   00000C   8B..         MOV     ?V0 + 1,R3
   \   00000E   EC           MOV     A,R4
   \   00000F   FE           MOV     R6,A
   \   000010   ED           MOV     A,R5
   \   000011   FF           MOV     R7,A
    173            uint8 index;
    174            uint8 entry[MAC_SRCMATCH_SHORT_ENTRY_SIZE];
    175            
    176            /* Check if the input parameters are valid */
    177            if ( addr == NULL || addr->addrMode != macSrcMatchAddrMode )
   \   000012   E5..         MOV     A,?V0 + 0
   \   000014   45..         ORL     A,?V0 + 1
   \   000016   6017         JZ      ??MAC_SrcMatchAddEntry_0
   \   000018   85..82       MOV     DPL,?V0 + 0
   \   00001B   85..83       MOV     DPH,?V0 + 1
   \   00001E   A3           INC     DPTR
   \   00001F   A3           INC     DPTR
   \   000020   A3           INC     DPTR
   \   000021   A3           INC     DPTR
   \   000022   A3           INC     DPTR
   \   000023   A3           INC     DPTR
   \   000024   A3           INC     DPTR
   \   000025   A3           INC     DPTR
   \   000026   E0           MOVX    A,@DPTR
   \   000027   F8           MOV     R0,A
   \   000028   90....       MOV     DPTR,#macSrcMatchAddrMode
   \   00002B   E0           MOVX    A,@DPTR
   \   00002C   68           XRL     A,R0
   \   00002D   6005         JZ      ??MAC_SrcMatchAddEntry_1
    178            {
    179              return MAC_INVALID_PARAMETER;  
   \                     ??MAC_SrcMatchAddEntry_0:
   \   00002F   79E8         MOV     R1,#-0x18
   \   000031   02....       LJMP    ??MAC_SrcMatchAddEntry_2 & 0xFFFF
    180            }
    181            
    182            /* Check if the entry already exists. Do not add duplicated entry */
    183            if ( macSrcMatchCheckSrcAddr( addr, panID ) != MAC_SRCMATCH_INVALID_INDEX )
   \                     ??MAC_SrcMatchAddEntry_1:
   \   000034                ; Setup parameters for call to function macSrcMatchCheckSrcAddr
   \   000034   EE           MOV     A,R6
   \   000035   FC           MOV     R4,A
   \   000036   EF           MOV     A,R7
   \   000037   FD           MOV     R5,A
   \   000038   AA..         MOV     R2,?V0 + 0
   \   00003A   AB..         MOV     R3,?V0 + 1
   \   00003C   12....       LCALL   ??macSrcMatchCheckSrcAddr?relay
   \   00003F   E9           MOV     A,R1
   \   000040   64FF         XRL     A,#0xff
   \   000042   6005         JZ      ??MAC_SrcMatchAddEntry_3
    184            {
    185              return MAC_DUPLICATED_ENTRY; 
   \   000044   791E         MOV     R1,#0x1e
   \   000046   02....       LJMP    ??MAC_SrcMatchAddEntry_2 & 0xFFFF
    186            }
    187            
    188            /* If not duplicated, write to the radio RAM and enable the control bit */
    189            
    190            /* Find the first empty entry */
    191            index = macSrcMatchFindEmptyEntry();
   \                     ??MAC_SrcMatchAddEntry_3:
   \   000049                ; Setup parameters for call to function macSrcMatchFindEmptyEntry
   \   000049   12....       LCALL   ??macSrcMatchFindEmptyEntry?relay
   \   00004C   E9           MOV     A,R1
   \   00004D   F5..         MOV     ?V0 + 2,A
    192            if ( index == macSrcMatchMaxNumEntries )
   \   00004F   90....       MOV     DPTR,#macSrcMatchMaxNumEntries
   \   000052   E0           MOVX    A,@DPTR
   \   000053   65..         XRL     A,?V0 + 2
   \   000055   7005         JNZ     ??MAC_SrcMatchAddEntry_4
    193            {
    194              return MAC_NO_RESOURCES;   /* Table is full */
   \   000057   791A         MOV     R1,#0x1a
   \   000059   02....       LJMP    ??MAC_SrcMatchAddEntry_2 & 0xFFFF
    195            }
    196            
    197            if ( macSrcMatchAddrMode == SADDR_MODE_SHORT )
   \                     ??MAC_SrcMatchAddEntry_4:
   \   00005C   90....       MOV     DPTR,#macSrcMatchAddrMode
   \   00005F   E0           MOVX    A,@DPTR
   \   000060   6402         XRL     A,#0x2
   \   000062   707B         JNZ     ??MAC_SrcMatchAddEntry_5
    198            {
    199              /* Write the PanID and short address */
    200              entry[0] = LO_UINT16( panID );  /* Little Endian for the radio RAM */
   \   000064   EE           MOV     A,R6
   \   000065   85..82       MOV     DPL,?XSP + 0
   \   000068   85..83       MOV     DPH,?XSP + 1
   \   00006B   F0           MOVX    @DPTR,A
    201              entry[1] = HI_UINT16( panID );
   \   00006C   EE           MOV     A,R6
   \   00006D   F8           MOV     R0,A
   \   00006E   EF           MOV     A,R7
   \   00006F   F9           MOV     R1,A
   \   000070   E4           CLR     A
   \   000071   E9           MOV     A,R1
   \   000072   F8           MOV     R0,A
   \   000073   C0E0         PUSH    A
   \   000075   7401         MOV     A,#0x1
   \   000077   12....       LCALL   ?XSTACK_DISP0_8
   \   00007A   D0E0         POP     A
   \   00007C   F0           MOVX    @DPTR,A
    202              entry[2] = LO_UINT16( addr->addr.shortAddr );
   \   00007D   85..82       MOV     DPL,?V0 + 0
   \   000080   85..83       MOV     DPH,?V0 + 1
   \   000083   E0           MOVX    A,@DPTR
   \   000084   F8           MOV     R0,A
   \   000085   A3           INC     DPTR
   \   000086   E0           MOVX    A,@DPTR
   \   000087   F9           MOV     R1,A
   \   000088   E8           MOV     A,R0
   \   000089   C0E0         PUSH    A
   \   00008B   7402         MOV     A,#0x2
   \   00008D   12....       LCALL   ?XSTACK_DISP0_8
   \   000090   D0E0         POP     A
   \   000092   F0           MOVX    @DPTR,A
    203              entry[3] = HI_UINT16( addr->addr.shortAddr );
   \   000093   85..82       MOV     DPL,?V0 + 0
   \   000096   85..83       MOV     DPH,?V0 + 1
   \   000099   E0           MOVX    A,@DPTR
   \   00009A   F8           MOV     R0,A
   \   00009B   A3           INC     DPTR
   \   00009C   E0           MOVX    A,@DPTR
   \   00009D   F9           MOV     R1,A
   \   00009E   E4           CLR     A
   \   00009F   E9           MOV     A,R1
   \   0000A0   F8           MOV     R0,A
   \   0000A1   C0E0         PUSH    A
   \   0000A3   7403         MOV     A,#0x3
   \   0000A5   12....       LCALL   ?XSTACK_DISP0_8
   \   0000A8   D0E0         POP     A
   \   0000AA   F0           MOVX    @DPTR,A
    204              MAC_RADIO_SRC_MATCH_TABLE_WRITE( ( index * MAC_SRCMATCH_SHORT_ENTRY_SIZE ), 
    205                             entry, MAC_SRCMATCH_SHORT_ENTRY_SIZE );
   \   0000AB                ; Setup parameters for call to function macMemWriteRam
   \   0000AB   7904         MOV     R1,#0x4
   \   0000AD   85..82       MOV     DPL,?XSP + 0
   \   0000B0   85..83       MOV     DPH,?XSP + 1
   \   0000B3   AC82         MOV     R4,DPL
   \   0000B5   AD83         MOV     R5,DPH
   \   0000B7   E5..         MOV     A,?V0 + 2
   \   0000B9   AA..         MOV     R2,?V0 + 2
   \   0000BB   7B00         MOV     R3,#0x0
   \   0000BD   EA           MOV     A,R2
   \   0000BE   75F004       MOV     B,#0x4
   \   0000C1   A4           MUL     AB
   \   0000C2   CA           XCH     A,R2
   \   0000C3   A8F0         MOV     R0,B
   \   0000C5   75F000       MOV     B,#0x0
   \   0000C8   A4           MUL     AB
   \   0000C9   28           ADD     A,R0
   \   0000CA   F8           MOV     R0,A
   \   0000CB   75F004       MOV     B,#0x4
   \   0000CE   EB           MOV     A,R3
   \   0000CF   A4           MUL     AB
   \   0000D0   28           ADD     A,R0
   \   0000D1   FB           MOV     R3,A
   \   0000D2   7400         MOV     A,#0x0
   \   0000D4   2A           ADD     A,R2
   \   0000D5   FA           MOV     R2,A
   \   0000D6   7461         MOV     A,#0x61
   \   0000D8   3B           ADDC    A,R3
   \   0000D9   FB           MOV     R3,A
   \   0000DA   12....       LCALL   ??macMemWriteRam?relay
   \   0000DD   802C         SJMP    ??MAC_SrcMatchAddEntry_6
    206            }
    207            else
    208            {
    209              /* Write the extended address */
    210              MAC_RADIO_SRC_MATCH_TABLE_WRITE( ( index * MAC_SRCMATCH_EXT_ENTRY_SIZE ), 
    211                             addr->addr.extAddr, MAC_SRCMATCH_EXT_ENTRY_SIZE ); 
   \                     ??MAC_SrcMatchAddEntry_5:
   \   0000DF                ; Setup parameters for call to function macMemWriteRam
   \   0000DF   7908         MOV     R1,#0x8
   \   0000E1   AC..         MOV     R4,?V0 + 0
   \   0000E3   AD..         MOV     R5,?V0 + 1
   \   0000E5   E5..         MOV     A,?V0 + 2
   \   0000E7   AA..         MOV     R2,?V0 + 2
   \   0000E9   7B00         MOV     R3,#0x0
   \   0000EB   EA           MOV     A,R2
   \   0000EC   75F008       MOV     B,#0x8
   \   0000EF   A4           MUL     AB
   \   0000F0   CA           XCH     A,R2
   \   0000F1   A8F0         MOV     R0,B
   \   0000F3   75F000       MOV     B,#0x0
   \   0000F6   A4           MUL     AB
   \   0000F7   28           ADD     A,R0
   \   0000F8   F8           MOV     R0,A
   \   0000F9   75F008       MOV     B,#0x8
   \   0000FC   EB           MOV     A,R3
   \   0000FD   A4           MUL     AB
   \   0000FE   28           ADD     A,R0
   \   0000FF   FB           MOV     R3,A
   \   000100   7400         MOV     A,#0x0
   \   000102   2A           ADD     A,R2
   \   000103   FA           MOV     R2,A
   \   000104   7461         MOV     A,#0x61
   \   000106   3B           ADDC    A,R3
   \   000107   FB           MOV     R3,A
   \   000108   12....       LCALL   ??macMemWriteRam?relay
    212            }
    213            
    214            /* Set the Autopend enable bits */
    215            macSrcMatchSetPendEnBit( index );
   \                     ??MAC_SrcMatchAddEntry_6:
   \   00010B                ; Setup parameters for call to function macSrcMatchSetPendEnBit
   \   00010B   A9..         MOV     R1,?V0 + 2
   \   00010D   12....       LCALL   ??macSrcMatchSetPendEnBit?relay
    216            
    217            /* Set the Src Match enable bits */
    218            macSrcMatchSetEnableBit( index, TRUE );
   \   000110                ; Setup parameters for call to function macSrcMatchSetEnableBit
   \   000110   7A01         MOV     R2,#0x1
   \   000112   A9..         MOV     R1,?V0 + 2
   \   000114   12....       LCALL   ??macSrcMatchSetEnableBit?relay
    219            
    220            return MAC_SUCCESS;
   \   000117   7900         MOV     R1,#0x0
   \                     ??MAC_SrcMatchAddEntry_2:
   \   000119   7404         MOV     A,#0x4
   \   00011B   12....       LCALL   ?DEALLOC_XSTACK8
   \   00011E   7F03         MOV     R7,#0x3
   \   000120   02....       LJMP    ?BANKED_LEAVE_XDATA
    221          }
    222          
    223          /*********************************************************************
    224           * @fn         MAC_SrcMatchDeleteEntry
    225           *
    226           * @brief      Delete a short or extended address from source address table. 
    227           *             This function shall be not be called from ISR. It is not thread safe.
    228           *
    229           * @param      addr - a pointer to sAddr_t which contains addrMode 
    230           *                    and a union of a short 16-bit MAC address or an extended 
    231           *                    64-bit MAC address to be deleted from the source address table. 
    232           * @param      panID - the device PAN ID. It is only used when the addr is 
    233           *                     using short address  
    234           *
    235           * @return     MAC_SUCCESS or MAC_INVALID_PARAMETER (address to be deleted 
    236           *                  cannot be found in the source address table).
    237           */

   \                                 In  segment BANKED_CODE, align 1, keep-with-next
    238          uint8 MAC_SrcMatchDeleteEntry ( sAddr_t *addr, uint16 panID  )
   \                     MAC_SrcMatchDeleteEntry:
    239          {
   \   000000   74F5         MOV     A,#-0xb
   \   000002   12....       LCALL   ?BANKED_ENTER_XDATA
   \   000005                ; Saved register size: 11
   \   000005                ; Auto size: 0
   \   000005   EA           MOV     A,R2
   \   000006   FE           MOV     R6,A
   \   000007   EB           MOV     A,R3
   \   000008   FF           MOV     R7,A
   \   000009   8C..         MOV     ?V0 + 0,R4
   \   00000B   8D..         MOV     ?V0 + 1,R5
    240            uint8 index;
    241            
    242            if ( addr == NULL || addr->addrMode != macSrcMatchAddrMode )
   \   00000D   EE           MOV     A,R6
   \   00000E   4F           ORL     A,R7
   \   00000F   6015         JZ      ??MAC_SrcMatchDeleteEntry_0
   \   000011   8E82         MOV     DPL,R6
   \   000013   8F83         MOV     DPH,R7
   \   000015   A3           INC     DPTR
   \   000016   A3           INC     DPTR
   \   000017   A3           INC     DPTR
   \   000018   A3           INC     DPTR
   \   000019   A3           INC     DPTR
   \   00001A   A3           INC     DPTR
   \   00001B   A3           INC     DPTR
   \   00001C   A3           INC     DPTR
   \   00001D   E0           MOVX    A,@DPTR
   \   00001E   F8           MOV     R0,A
   \   00001F   90....       MOV     DPTR,#macSrcMatchAddrMode
   \   000022   E0           MOVX    A,@DPTR
   \   000023   68           XRL     A,R0
   \   000024   6004         JZ      ??MAC_SrcMatchDeleteEntry_1
    243            {
    244              return MAC_INVALID_PARAMETER;  
   \                     ??MAC_SrcMatchDeleteEntry_0:
   \   000026   79E8         MOV     R1,#-0x18
   \   000028   8021         SJMP    ??MAC_SrcMatchDeleteEntry_2
    245            }
    246            
    247            /* Look up the source address table and find the entry. */
    248            index = macSrcMatchCheckSrcAddr( addr, panID );
   \                     ??MAC_SrcMatchDeleteEntry_1:
   \   00002A                ; Setup parameters for call to function macSrcMatchCheckSrcAddr
   \   00002A   AC..         MOV     R4,?V0 + 0
   \   00002C   AD..         MOV     R5,?V0 + 1
   \   00002E   EE           MOV     A,R6
   \   00002F   FA           MOV     R2,A
   \   000030   EF           MOV     A,R7
   \   000031   FB           MOV     R3,A
   \   000032   12....       LCALL   ??macSrcMatchCheckSrcAddr?relay
   \   000035   E9           MOV     A,R1
   \   000036   F5..         MOV     ?V0 + 2,A
    249          
    250            if( index == MAC_SRCMATCH_INVALID_INDEX )
   \   000038   74FF         MOV     A,#-0x1
   \   00003A   65..         XRL     A,?V0 + 2
   \   00003C   7004         JNZ     ??MAC_SrcMatchDeleteEntry_3
    251            {
    252              return MAC_INVALID_PARAMETER; 
   \   00003E   79E8         MOV     R1,#-0x18
   \   000040   8009         SJMP    ??MAC_SrcMatchDeleteEntry_2
    253            }
    254            
    255            /* Clear Src Match enable bits */
    256            macSrcMatchSetEnableBit( index, FALSE );
   \                     ??MAC_SrcMatchDeleteEntry_3:
   \   000042                ; Setup parameters for call to function macSrcMatchSetEnableBit
   \   000042   7A00         MOV     R2,#0x0
   \   000044   A9..         MOV     R1,?V0 + 2
   \   000046   12....       LCALL   ??macSrcMatchSetEnableBit?relay
    257          
    258            return MAC_SUCCESS;
   \   000049   7900         MOV     R1,#0x0
   \                     ??MAC_SrcMatchDeleteEntry_2:
   \   00004B   7F03         MOV     R7,#0x3
   \   00004D   02....       LJMP    ?BANKED_LEAVE_XDATA
    259          }
    260                            
    261          /*********************************************************************
    262           * @fn          MAC_SrcMatchAckAllPending
    263           *
    264           * @brief       Enabled/disable acknowledging all packets with pending bit set
    265           *              The application normally enables it when adding new entries to 
    266           *              the source address table fails due to the table is full, or 
    267           *              disables it when more entries are deleted and the table has
    268           *              empty slots.
    269           *
    270           * @param       option - TRUE (acknowledging all packets with pending field set)
    271           *                       FALSE (acknowledging all packets with pending field cleared) 
    272           *
    273           * @return      none
    274           */

   \                                 In  segment BANKED_CODE, align 1, keep-with-next
    275          void MAC_SrcMatchAckAllPending ( uint8 option  ) 
   \                     MAC_SrcMatchAckAllPending:
    276          {
   \   000000   C082         PUSH    DPL
   \   000002   C083         PUSH    DPH
   \   000004                ; Saved register size: 2
   \   000004                ; Auto size: 0
    277            if( option == TRUE )
   \   000004   7401         MOV     A,#0x1
   \   000006   69           XRL     A,R1
   \   000007   700F         JNZ     ??MAC_SrcMatchAckAllPending_0
    278            {
    279              macSrcMatchIsAckAllPending = TRUE;
   \   000009   90....       MOV     DPTR,#macSrcMatchIsAckAllPending
   \   00000C   7401         MOV     A,#0x1
   \   00000E   F0           MOVX    @DPTR,A
    280              
    281              /* Set the PENDING_OR register */
    282              MAC_RADIO_TURN_ON_PENDING_OR();
   \   00000F   90618A       MOV     DPTR,#0x618a
   \   000012   E0           MOVX    A,@DPTR
   \   000013   D2E2         SETB    0xE0 /* A   */.2
   \   000015   F0           MOVX    @DPTR,A
   \   000016   800D         SJMP    ??MAC_SrcMatchAckAllPending_1
    283            }
    284            else
    285            {
    286              macSrcMatchIsAckAllPending = FALSE;
   \                     ??MAC_SrcMatchAckAllPending_0:
   \   000018   90....       MOV     DPTR,#macSrcMatchIsAckAllPending
   \   00001B   7400         MOV     A,#0x0
   \   00001D   F0           MOVX    @DPTR,A
    287              
    288              /* Clear the PENDING_OR register */
    289              MAC_RADIO_TURN_OFF_PENDING_OR();
   \   00001E   90618A       MOV     DPTR,#0x618a
   \   000021   E0           MOVX    A,@DPTR
   \   000022   C2E2         CLR     0xE0 /* A   */.2
   \   000024   F0           MOVX    @DPTR,A
    290            }
    291          }
   \                     ??MAC_SrcMatchAckAllPending_1:
   \   000025   D083         POP     DPH
   \   000027   D082         POP     DPL
   \   000029   02....       LJMP    ?BRET
    292          
    293          /*********************************************************************
    294           * @fn          MAC_SrcMatchCheckAllPending
    295           *
    296           * @brief       Check if acknowledging all packets with pending bit set
    297           *              is enabled. 
    298           *
    299           * @param       none 
    300           *
    301           * @return      MAC_AUTOACK_PENDING_ALL_ON or MAC_AUTOACK_PENDING_ALL_OFF
    302           */

   \                                 In  segment BANKED_CODE, align 1, keep-with-next
    303          uint8 MAC_SrcMatchCheckAllPending ( void )
   \                     MAC_SrcMatchCheckAllPending:
    304          {
   \   000000   C082         PUSH    DPL
   \   000002   C083         PUSH    DPH
   \   000004                ; Saved register size: 2
   \   000004                ; Auto size: 0
    305            if( macSrcMatchIsAckAllPending == TRUE )
   \   000004   90....       MOV     DPTR,#macSrcMatchIsAckAllPending
   \   000007   E0           MOVX    A,@DPTR
   \   000008   6401         XRL     A,#0x1
   \   00000A   7004         JNZ     ??MAC_SrcMatchCheckAllPending_0
    306            {
    307              return MAC_AUTOACK_PENDING_ALL_ON; 
   \   00000C   79FE         MOV     R1,#-0x2
   \   00000E   8002         SJMP    ??MAC_SrcMatchCheckAllPending_1
    308            }
    309            
    310            return MAC_AUTOACK_PENDING_ALL_OFF;
   \                     ??MAC_SrcMatchCheckAllPending_0:
   \   000010   79FF         MOV     R1,#-0x1
   \                     ??MAC_SrcMatchCheckAllPending_1:
   \   000012   D083         POP     DPH
   \   000014   D082         POP     DPL
   \   000016   02....       LJMP    ?BRET
    311          }
    312          
    313          /*********************************************************************
    314           * @fn          MAC_SrcMatchCheckResult
    315           *
    316           * @brief       Check the result of source matching
    317           *
    318           * @param       index - index of the entry in the source address table
    319           *
    320           * @return      TRUE or FALSE
    321           */

   \                                 In  segment BANKED_CODE, align 1, keep-with-next
    322          MAC_INTERNAL_API bool MAC_SrcMatchCheckResult( void )
   \                     MAC_SrcMatchCheckResult:
    323          {
   \   000000   C082         PUSH    DPL
   \   000002   C083         PUSH    DPH
   \   000004                ; Saved register size: 2
   \   000004                ; Auto size: 0
    324            uint8 resIndex;
    325            
    326            if ( macSrcMatchIsAckAllPending )
   \   000004   90....       MOV     DPTR,#macSrcMatchIsAckAllPending
   \   000007   E0           MOVX    A,@DPTR
   \   000008   6004         JZ      ??MAC_SrcMatchCheckResult_0
    327            {
    328              return (TRUE);
   \   00000A   7901         MOV     R1,#0x1
   \   00000C   8009         SJMP    ??MAC_SrcMatchCheckResult_1
    329            }
    330            
    331            MAC_RADIO_SRC_MATCH_RESINDEX( resIndex );
   \                     ??MAC_SrcMatchCheckResult_0:
   \   00000E   906163       MOV     DPTR,#0x6163
   \   000011   E0           MOVX    A,@DPTR
   \   000012   F8           MOV     R0,A
    332            
    333            return ( resIndex & AUTOPEND_RES );
   \   000013   7440         MOV     A,#0x40
   \   000015   58           ANL     A,R0
   \   000016   F9           MOV     R1,A
   \                     ??MAC_SrcMatchCheckResult_1:
   \   000017   D083         POP     DPH
   \   000019   D082         POP     DPL
   \   00001B   02....       LJMP    ?BRET
    334          }
    335          
    336          /*********************************************************************
    337           * @fn          macSrcMatchFindEmptyEntry
    338           *
    339           * @brief       return index of the first empty entry found
    340           *
    341           * @param       none
    342           *
    343           * @return      uint8 - return index of the first empty entry found
    344           */

   \                                 In  segment BANKED_CODE, align 1, keep-with-next
    345          static uint8 macSrcMatchFindEmptyEntry( void )
   \                     macSrcMatchFindEmptyEntry:
    346          {
   \   000000   74EC         MOV     A,#-0x14
   \   000002   12....       LCALL   ?BANKED_ENTER_XDATA
   \   000005                ; Saved register size: 20
   \   000005                ; Auto size: 0
    347            uint8  index;
    348            uint24 enable;
    349               
    350            enable = MAC_RADIO_SRC_MATCH_GET_EN();
   \   000005                ; Setup parameters for call to function macSrcMatchGetEnableBit
   \   000005   12....       LCALL   ??macSrcMatchGetEnableBit?relay
   \   000008   8A..         MOV     ?V0 + 0,R2
   \   00000A   8B..         MOV     ?V0 + 1,R3
   \   00000C   8C..         MOV     ?V0 + 2,R4
   \   00000E   8D..         MOV     ?V0 + 3,R5
   \   000010   85....       MOV     ?V0 + 4,?V0 + 0
   \   000013   85....       MOV     ?V0 + 5,?V0 + 1
   \   000016   85....       MOV     ?V0 + 6,?V0 + 2
   \   000019   85....       MOV     ?V0 + 7,?V0 + 3
    351                  
    352            if( macSrcMatchAddrMode == SADDR_MODE_SHORT )
   \   00001C   90....       MOV     DPTR,#macSrcMatchAddrMode
   \   00001F   E0           MOVX    A,@DPTR
   \   000020   6402         XRL     A,#0x2
   \   000022   7042         JNZ     ??macSrcMatchFindEmptyEntry_0
    353            {
    354              for( index = 0; index < macSrcMatchMaxNumEntries; index++ )
   \   000024   7E00         MOV     R6,#0x0
   \                     ??macSrcMatchFindEmptyEntry_1:
   \   000026   90....       MOV     DPTR,#macSrcMatchMaxNumEntries
   \   000029   E0           MOVX    A,@DPTR
   \   00002A   F8           MOV     R0,A
   \   00002B   EE           MOV     A,R6
   \   00002C   C3           CLR     C
   \   00002D   98           SUBB    A,R0
   \   00002E   507C         JNC     ??macSrcMatchFindEmptyEntry_2
    355              {  
    356                if( ( enable & ( (uint24)0x01 << index ) ) == 0 )
   \   000030   85....       MOV     ?V0 + 0,?V0 + 4
   \   000033   85....       MOV     ?V0 + 1,?V0 + 5
   \   000036   85....       MOV     ?V0 + 2,?V0 + 6
   \   000039   85....       MOV     ?V0 + 3,?V0 + 7
   \   00003C   75..01       MOV     ?V0 + 8,#0x1
   \   00003F   75..00       MOV     ?V0 + 9,#0x0
   \   000042   75..00       MOV     ?V0 + 10,#0x0
   \   000045   75..00       MOV     ?V0 + 11,#0x0
   \   000048   EE           MOV     A,R6
   \   000049   78..         MOV     R0,#?V0 + 8
   \   00004B   12....       LCALL   ?L_SHL
   \   00004E   78..         MOV     R0,#?V0 + 0
   \   000050   79..         MOV     R1,#?V0 + 8
   \   000052   12....       LCALL   ?L_AND
   \   000055   E5..         MOV     A,?V0 + 0
   \   000057   45..         ORL     A,?V0 + 1
   \   000059   45..         ORL     A,?V0 + 2
   \   00005B   45..         ORL     A,?V0 + 3
   \   00005D   7004         JNZ     ??macSrcMatchFindEmptyEntry_3
    357                {
    358                  return index;
   \   00005F   EE           MOV     A,R6
   \   000060   F9           MOV     R1,A
   \   000061   804B         SJMP    ??macSrcMatchFindEmptyEntry_4
    359                }
    360              }
   \                     ??macSrcMatchFindEmptyEntry_3:
   \   000063   0E           INC     R6
   \   000064   80C0         SJMP    ??macSrcMatchFindEmptyEntry_1
    361            }
    362            else
    363            {
    364              for( index = 0; index < macSrcMatchMaxNumEntries; index++ )
   \                     ??macSrcMatchFindEmptyEntry_0:
   \   000066   7E00         MOV     R6,#0x0
   \                     ??macSrcMatchFindEmptyEntry_5:
   \   000068   90....       MOV     DPTR,#macSrcMatchMaxNumEntries
   \   00006B   E0           MOVX    A,@DPTR
   \   00006C   F8           MOV     R0,A
   \   00006D   EE           MOV     A,R6
   \   00006E   C3           CLR     C
   \   00006F   98           SUBB    A,R0
   \   000070   503A         JNC     ??macSrcMatchFindEmptyEntry_2
    365              {  
    366                if( ( enable & ( (uint24)0x01 << ( index * 2 ) ) ) == 0 )
   \   000072   85....       MOV     ?V0 + 0,?V0 + 4
   \   000075   85....       MOV     ?V0 + 1,?V0 + 5
   \   000078   85....       MOV     ?V0 + 2,?V0 + 6
   \   00007B   85....       MOV     ?V0 + 3,?V0 + 7
   \   00007E   75..01       MOV     ?V0 + 8,#0x1
   \   000081   75..00       MOV     ?V0 + 9,#0x0
   \   000084   75..00       MOV     ?V0 + 10,#0x0
   \   000087   75..00       MOV     ?V0 + 11,#0x0
   \   00008A   75F002       MOV     B,#0x2
   \   00008D   EE           MOV     A,R6
   \   00008E   A4           MUL     AB
   \   00008F   78..         MOV     R0,#?V0 + 8
   \   000091   12....       LCALL   ?L_SHL
   \   000094   78..         MOV     R0,#?V0 + 0
   \   000096   79..         MOV     R1,#?V0 + 8
   \   000098   12....       LCALL   ?L_AND
   \   00009B   E5..         MOV     A,?V0 + 0
   \   00009D   45..         ORL     A,?V0 + 1
   \   00009F   45..         ORL     A,?V0 + 2
   \   0000A1   45..         ORL     A,?V0 + 3
   \   0000A3   7004         JNZ     ??macSrcMatchFindEmptyEntry_6
    367                {
    368                  return index;
   \   0000A5   EE           MOV     A,R6
   \   0000A6   F9           MOV     R1,A
   \   0000A7   8005         SJMP    ??macSrcMatchFindEmptyEntry_4
    369                }
    370              }
   \                     ??macSrcMatchFindEmptyEntry_6:
   \   0000A9   0E           INC     R6
   \   0000AA   80BC         SJMP    ??macSrcMatchFindEmptyEntry_5
    371            }
    372            
    373            /* 
    374             The value of index shall be macSrcMatchMaxNumEntries when it executes
    375             here. The table is full.
    376            */
    377            return index;
   \                     ??macSrcMatchFindEmptyEntry_2:
   \   0000AC   EE           MOV     A,R6
   \   0000AD   F9           MOV     R1,A
   \                     ??macSrcMatchFindEmptyEntry_4:
   \   0000AE   7F0C         MOV     R7,#0xc
   \   0000B0   02....       LJMP    ?BANKED_LEAVE_XDATA
    378          }
    379          
    380          /*********************************************************************
    381           * @fn         macSrcMatchCheckSrcAddr
    382           *
    383           * @brief      Check if a short or extended address is in the source address table.
    384           *             This function shall not be called from ISR. It is not thread safe.
    385           *
    386           * @param      addr - a pointer to sAddr_t which contains addrMode 
    387           *                    and a union of a short 16-bit MAC address or an extended 
    388           *                    64-bit MAC address to be checked in the source address table. 
    389           * @param      panID - the device PAN ID. It is only used when the addr is 
    390           *                     using short address 
    391          
    392           * @return     uint8 - index of the entry in the table. Return 
    393           *                     MAC_SRCMATCH_INVALID_INDEX (0xFF) if address not found.
    394           */

   \                                 In  segment BANKED_CODE, align 1, keep-with-next
    395          static uint8 macSrcMatchCheckSrcAddr ( sAddr_t *addr, uint16 panID  )
   \                     macSrcMatchCheckSrcAddr:
    396          {
   \   000000   74EE         MOV     A,#-0x12
   \   000002   12....       LCALL   ?BANKED_ENTER_XDATA
   \   000005                ; Saved register size: 18
   \   000005                ; Auto size: 12
   \   000005   74F4         MOV     A,#-0xc
   \   000007   12....       LCALL   ?ALLOC_XSTACK8
   \   00000A   8A..         MOV     ?V0 + 8,R2
   \   00000C   8B..         MOV     ?V0 + 9,R3
   \   00000E   EC           MOV     A,R4
   \   00000F   FE           MOV     R6,A
   \   000010   ED           MOV     A,R5
   \   000011   FF           MOV     R7,A
    397            uint8 index;     
    398            uint8 *pAddr;
    399            uint8 entrySize;
    400            uint8 entry[MAC_SRCMATCH_SHORT_ENTRY_SIZE];  
    401            uint8 ramEntry[MAC_SRCMATCH_EXT_ENTRY_SIZE];
    402                
    403            /*
    404             Currently, shadow memory is not supported to optimize SPI traffic.
    405            */
    406            
    407            if( macSrcMatchAddrMode == SADDR_MODE_SHORT )
   \   000012   90....       MOV     DPTR,#macSrcMatchAddrMode
   \   000015   E0           MOVX    A,@DPTR
   \   000016   6402         XRL     A,#0x2
   \   000018   7058         JNZ     ??macSrcMatchCheckSrcAddr_0
    408            {
    409              entry[0] = LO_UINT16( panID );  /* Little Endian for the radio RAM */
   \   00001A   EE           MOV     A,R6
   \   00001B   85..82       MOV     DPL,?XSP + 0
   \   00001E   85..83       MOV     DPH,?XSP + 1
   \   000021   F0           MOVX    @DPTR,A
    410              entry[1] = HI_UINT16( panID );
   \   000022   EE           MOV     A,R6
   \   000023   F8           MOV     R0,A
   \   000024   EF           MOV     A,R7
   \   000025   F9           MOV     R1,A
   \   000026   E4           CLR     A
   \   000027   E9           MOV     A,R1
   \   000028   F8           MOV     R0,A
   \   000029   C0E0         PUSH    A
   \   00002B   7401         MOV     A,#0x1
   \   00002D   12....       LCALL   ?XSTACK_DISP0_8
   \   000030   D0E0         POP     A
   \   000032   F0           MOVX    @DPTR,A
    411              entry[2] = LO_UINT16( addr->addr.shortAddr );
   \   000033   85..82       MOV     DPL,?V0 + 8
   \   000036   85..83       MOV     DPH,?V0 + 9
   \   000039   E0           MOVX    A,@DPTR
   \   00003A   F8           MOV     R0,A
   \   00003B   A3           INC     DPTR
   \   00003C   E0           MOVX    A,@DPTR
   \   00003D   F9           MOV     R1,A
   \   00003E   E8           MOV     A,R0
   \   00003F   C0E0         PUSH    A
   \   000041   7402         MOV     A,#0x2
   \   000043   12....       LCALL   ?XSTACK_DISP0_8
   \   000046   D0E0         POP     A
   \   000048   F0           MOVX    @DPTR,A
    412              entry[3] = HI_UINT16( addr->addr.shortAddr );
   \   000049   85..82       MOV     DPL,?V0 + 8
   \   00004C   85..83       MOV     DPH,?V0 + 9
   \   00004F   E0           MOVX    A,@DPTR
   \   000050   F8           MOV     R0,A
   \   000051   A3           INC     DPTR
   \   000052   E0           MOVX    A,@DPTR
   \   000053   F9           MOV     R1,A
   \   000054   E4           CLR     A
   \   000055   E9           MOV     A,R1
   \   000056   F8           MOV     R0,A
   \   000057   C0E0         PUSH    A
   \   000059   7403         MOV     A,#0x3
   \   00005B   12....       LCALL   ?XSTACK_DISP0_8
   \   00005E   D0E0         POP     A
   \   000060   F0           MOVX    @DPTR,A
    413              pAddr = entry;
   \   000061   85..82       MOV     DPL,?XSP + 0
   \   000064   85..83       MOV     DPH,?XSP + 1
   \   000067   8582..       MOV     ?V0 + 2,DPL
   \   00006A   8583..       MOV     ?V0 + 3,DPH
    414              entrySize = MAC_SRCMATCH_SHORT_ENTRY_SIZE;
   \   00006D   75..04       MOV     ?V0 + 0,#0x4
   \   000070   8009         SJMP    ??macSrcMatchCheckSrcAddr_1
    415            }
    416            else
    417            {
    418              pAddr = addr->addr.extAddr;
   \                     ??macSrcMatchCheckSrcAddr_0:
   \   000072   85....       MOV     ?V0 + 2,?V0 + 8
   \   000075   85....       MOV     ?V0 + 3,?V0 + 9
    419              entrySize = MAC_SRCMATCH_EXT_ENTRY_SIZE;
   \   000078   75..08       MOV     ?V0 + 0,#0x8
    420            }
    421            
    422            for( index = 0; index < macSrcMatchMaxNumEntries; index++ )
   \                     ??macSrcMatchCheckSrcAddr_1:
   \   00007B   75..00       MOV     ?V0 + 1,#0x0
   \                     ??macSrcMatchCheckSrcAddr_2:
   \   00007E   90....       MOV     DPTR,#macSrcMatchMaxNumEntries
   \   000081   E0           MOVX    A,@DPTR
   \   000082   F8           MOV     R0,A
   \   000083   E5..         MOV     A,?V0 + 1
   \   000085   C3           CLR     C
   \   000086   98           SUBB    A,R0
   \   000087   4003         JC      $+5
   \   000089   02....       LJMP    ??macSrcMatchCheckSrcAddr_3 & 0xFFFF
    423            {
    424              /* Check if the entry is enabled */
    425              if( macSrcMatchCheckEnableBit( index ) == FALSE )
   \   00008C                ; Setup parameters for call to function macSrcMatchCheckEnableBit
   \   00008C   A9..         MOV     R1,?V0 + 1
   \   00008E   12....       LCALL   ??macSrcMatchCheckEnableBit?relay
   \   000091   E9           MOV     A,R1
   \   000092   6074         JZ      ??macSrcMatchCheckSrcAddr_4
    426              {
    427                continue; 
    428              }
    429                
    430              /* Compare the short address and pan ID */
    431              MAC_RADIO_SRC_MATCH_TABLE_READ( ( index * entrySize ), ramEntry, entrySize );
   \   000094                ; Setup parameters for call to function macMemReadRam
   \   000094   A9..         MOV     R1,?V0 + 0
   \   000096   7404         MOV     A,#0x4
   \   000098   12....       LCALL   ?XSTACK_DISP0_8
   \   00009B   AC82         MOV     R4,DPL
   \   00009D   AD83         MOV     R5,DPH
   \   00009F   E5..         MOV     A,?V0 + 1
   \   0000A1   AA..         MOV     R2,?V0 + 1
   \   0000A3   7B00         MOV     R3,#0x0
   \   0000A5   85....       MOV     ?V0 + 4,?V0 + 0
   \   0000A8   75..00       MOV     ?V0 + 5,#0x0
   \   0000AB   EA           MOV     A,R2
   \   0000AC   85..F0       MOV     B,?V0 + 4
   \   0000AF   A4           MUL     AB
   \   0000B0   CA           XCH     A,R2
   \   0000B1   A8F0         MOV     R0,B
   \   0000B3   85..F0       MOV     B,?V0 + 5
   \   0000B6   A4           MUL     AB
   \   0000B7   28           ADD     A,R0
   \   0000B8   F8           MOV     R0,A
   \   0000B9   85..F0       MOV     B,?V0 + 4
   \   0000BC   EB           MOV     A,R3
   \   0000BD   A4           MUL     AB
   \   0000BE   28           ADD     A,R0
   \   0000BF   FB           MOV     R3,A
   \   0000C0   7400         MOV     A,#0x0
   \   0000C2   2A           ADD     A,R2
   \   0000C3   FA           MOV     R2,A
   \   0000C4   7461         MOV     A,#0x61
   \   0000C6   3B           ADDC    A,R3
   \   0000C7   FB           MOV     R3,A
   \   0000C8   12....       LCALL   ??macMemReadRam?relay
    432               
    433              if( osal_memcmp( pAddr, ramEntry, entrySize ) == TRUE )
   \   0000CB                ; Setup parameters for call to function osal_memcmp
   \   0000CB   7404         MOV     A,#0x4
   \   0000CD   12....       LCALL   ?XSTACK_DISP0_8
   \   0000D0   A982         MOV     R1,DPL
   \   0000D2   AA83         MOV     R2,DPH
   \   0000D4   7B00         MOV     R3,#0x0
   \   0000D6   89..         MOV     ?V0 + 4,R1
   \   0000D8   8A..         MOV     ?V0 + 5,R2
   \   0000DA   8B..         MOV     ?V0 + 6,R3
   \   0000DC   78..         MOV     R0,#?V0 + 4
   \   0000DE   12....       LCALL   ?PUSH_XSTACK_I_THREE
   \   0000E1   85....       MOV     ?V0 + 4,?V0 + 0
   \   0000E4   75..00       MOV     ?V0 + 5,#0x0
   \   0000E7   AC..         MOV     R4,?V0 + 4
   \   0000E9   AD..         MOV     R5,?V0 + 5
   \   0000EB   85..82       MOV     DPL,?V0 + 2
   \   0000EE   85..83       MOV     DPH,?V0 + 3
   \   0000F1   A982         MOV     R1,DPL
   \   0000F3   AA83         MOV     R2,DPH
   \   0000F5   7B00         MOV     R3,#0x0
   \   0000F7   12....       LCALL   ??osal_memcmp?relay
   \   0000FA   7403         MOV     A,#0x3
   \   0000FC   12....       LCALL   ?DEALLOC_XSTACK8
   \   0000FF   E9           MOV     A,R1
   \   000100   6401         XRL     A,#0x1
   \   000102   7004         JNZ     ??macSrcMatchCheckSrcAddr_4
    434              {
    435                /* Match found */
    436                return index;
   \   000104   A9..         MOV     R1,?V0 + 1
   \   000106   8007         SJMP    ??macSrcMatchCheckSrcAddr_5
    437              }
    438            }
   \                     ??macSrcMatchCheckSrcAddr_4:
   \   000108   05..         INC     ?V0 + 1
   \   00010A   02....       LJMP    ??macSrcMatchCheckSrcAddr_2 & 0xFFFF
    439            
    440            return MAC_SRCMATCH_INVALID_INDEX;
   \                     ??macSrcMatchCheckSrcAddr_3:
   \   00010D   79FF         MOV     R1,#-0x1
   \                     ??macSrcMatchCheckSrcAddr_5:
   \   00010F   740C         MOV     A,#0xc
   \   000111   12....       LCALL   ?DEALLOC_XSTACK8
   \   000114   7F0A         MOV     R7,#0xa
   \   000116   02....       LJMP    ?BANKED_LEAVE_XDATA
    441          }
    442          
    443          /*********************************************************************
    444           * @fn          macSrcMatchSetPendEnBit
    445           *
    446           * @brief       Set the enable bit in the source address table
    447           *
    448           * @param       index - index of the entry in the source address table
    449           *
    450           * @return      none
    451           */

   \                                 In  segment BANKED_CODE, align 1, keep-with-next
    452          static void macSrcMatchSetPendEnBit( uint8 index )
   \                     macSrcMatchSetPendEnBit:
    453          {
   \   000000   74F0         MOV     A,#-0x10
   \   000002   12....       LCALL   ?BANKED_ENTER_XDATA
   \   000005                ; Saved register size: 16
   \   000005                ; Auto size: 3
   \   000005   74FD         MOV     A,#-0x3
   \   000007   12....       LCALL   ?ALLOC_XSTACK8
   \   00000A   E9           MOV     A,R1
   \   00000B   FE           MOV     R6,A
    454            uint24 enable;
    455            uint8 buf[MAC_SRCMATCH_ENABLE_BITMAP_LEN];
    456                 
    457            enable = MAC_RADIO_SRC_MATCH_GET_PENDEN(); 
   \   00000C                ; Setup parameters for call to function macSrcMatchGetPendEnBit
   \   00000C   12....       LCALL   ??macSrcMatchGetPendEnBit?relay
   \   00000F   8A..         MOV     ?V0 + 4,R2
   \   000011   8B..         MOV     ?V0 + 5,R3
   \   000013   8C..         MOV     ?V0 + 6,R4
   \   000015   8D..         MOV     ?V0 + 7,R5
   \   000017   85....       MOV     ?V0 + 0,?V0 + 4
   \   00001A   85....       MOV     ?V0 + 1,?V0 + 5
   \   00001D   85....       MOV     ?V0 + 2,?V0 + 6
   \   000020   85....       MOV     ?V0 + 3,?V0 + 7
    458                
    459            if( macSrcMatchAddrMode == SADDR_MODE_SHORT )
   \   000023   90....       MOV     DPTR,#macSrcMatchAddrMode
   \   000026   E0           MOVX    A,@DPTR
   \   000027   6402         XRL     A,#0x2
   \   000029   7044         JNZ     ??macSrcMatchSetPendEnBit_0
    460            {
    461              enable |= ( (uint24)0x01 << index );
   \   00002B   75..01       MOV     ?V0 + 4,#0x1
   \   00002E   75..00       MOV     ?V0 + 5,#0x0
   \   000031   75..00       MOV     ?V0 + 6,#0x0
   \   000034   75..00       MOV     ?V0 + 7,#0x0
   \   000037   EE           MOV     A,R6
   \   000038   78..         MOV     R0,#?V0 + 4
   \   00003A   12....       LCALL   ?L_SHL
   \   00003D   78..         MOV     R0,#?V0 + 0
   \   00003F   79..         MOV     R1,#?V0 + 4
   \   000041   12....       LCALL   ?L_IOR
    462              osal_buffer_uint24( buf, enable );
   \   000044                ; Setup parameters for call to function osal_buffer_uint24
   \   000044   78..         MOV     R0,#?V0 + 0
   \   000046   12....       LCALL   ?PUSH_XSTACK_I_FOUR
   \   000049   7404         MOV     A,#0x4
   \   00004B   12....       LCALL   ?XSTACK_DISP0_8
   \   00004E   AA82         MOV     R2,DPL
   \   000050   AB83         MOV     R3,DPH
   \   000052   12....       LCALL   ??osal_buffer_uint24?relay
   \   000055   7404         MOV     A,#0x4
   \   000057   12....       LCALL   ?DEALLOC_XSTACK8
    463              MAC_RADIO_SRC_MATCH_SET_SHORTPENDEN( buf );
   \   00005A                ; Setup parameters for call to function macMemWriteRam
   \   00005A   7903         MOV     R1,#0x3
   \   00005C   85..82       MOV     DPL,?XSP + 0
   \   00005F   85..83       MOV     DPH,?XSP + 1
   \   000062   AC82         MOV     R4,DPL
   \   000064   AD83         MOV     R5,DPH
   \   000066   7A67         MOV     R2,#0x67
   \   000068   7B61         MOV     R3,#0x61
   \   00006A   12....       LCALL   ??macMemWriteRam?relay
   \   00006D   8046         SJMP    ??macSrcMatchSetPendEnBit_1
    464            }
    465            else
    466            {
    467              enable |= ( (uint24)0x01 << ( index * 2 ) );
   \                     ??macSrcMatchSetPendEnBit_0:
   \   00006F   75..01       MOV     ?V0 + 4,#0x1
   \   000072   75..00       MOV     ?V0 + 5,#0x0
   \   000075   75..00       MOV     ?V0 + 6,#0x0
   \   000078   75..00       MOV     ?V0 + 7,#0x0
   \   00007B   75F002       MOV     B,#0x2
   \   00007E   EE           MOV     A,R6
   \   00007F   A4           MUL     AB
   \   000080   78..         MOV     R0,#?V0 + 4
   \   000082   12....       LCALL   ?L_SHL
   \   000085   78..         MOV     R0,#?V0 + 0
   \   000087   79..         MOV     R1,#?V0 + 4
   \   000089   12....       LCALL   ?L_IOR
    468              osal_buffer_uint24( buf, enable );
   \   00008C                ; Setup parameters for call to function osal_buffer_uint24
   \   00008C   78..         MOV     R0,#?V0 + 0
   \   00008E   12....       LCALL   ?PUSH_XSTACK_I_FOUR
   \   000091   7404         MOV     A,#0x4
   \   000093   12....       LCALL   ?XSTACK_DISP0_8
   \   000096   AA82         MOV     R2,DPL
   \   000098   AB83         MOV     R3,DPH
   \   00009A   12....       LCALL   ??osal_buffer_uint24?relay
   \   00009D   7404         MOV     A,#0x4
   \   00009F   12....       LCALL   ?DEALLOC_XSTACK8
    469              MAC_RADIO_SRC_MATCH_SET_EXTPENDEN( buf );
   \   0000A2                ; Setup parameters for call to function macMemWriteRam
   \   0000A2   7903         MOV     R1,#0x3
   \   0000A4   85..82       MOV     DPL,?XSP + 0
   \   0000A7   85..83       MOV     DPH,?XSP + 1
   \   0000AA   AC82         MOV     R4,DPL
   \   0000AC   AD83         MOV     R5,DPH
   \   0000AE   7A64         MOV     R2,#0x64
   \   0000B0   7B61         MOV     R3,#0x61
   \   0000B2   12....       LCALL   ??macMemWriteRam?relay
    470            }
    471          }
   \                     ??macSrcMatchSetPendEnBit_1:
   \   0000B5   7403         MOV     A,#0x3
   \   0000B7   12....       LCALL   ?DEALLOC_XSTACK8
   \   0000BA   7F08         MOV     R7,#0x8
   \   0000BC   02....       LJMP    ?BANKED_LEAVE_XDATA
    472          
    473          /*********************************************************************
    474           * @fn          macSrcMatchSetEnableBit
    475           *
    476           * @brief       Set or clear the enable bit in the SRCMATCH EN register
    477           *
    478           * @param       index - index of the entry in the source address table
    479           * @param       option - true (set the enable bit), or false (clear the enable bit)
    480           *
    481           * @return      none
    482           */

   \                                 In  segment BANKED_CODE, align 1, keep-with-next
    483          static void macSrcMatchSetEnableBit( uint8 index, bool option )
   \                     macSrcMatchSetEnableBit:
    484          {
   \   000000   74F0         MOV     A,#-0x10
   \   000002   12....       LCALL   ?BANKED_ENTER_XDATA
   \   000005                ; Saved register size: 16
   \   000005                ; Auto size: 0
   \   000005   E9           MOV     A,R1
   \   000006   FE           MOV     R6,A
   \   000007   EA           MOV     A,R2
   \   000008   FF           MOV     R7,A
    485            uint24 enable;  
    486            
    487            enable = MAC_RADIO_SRC_MATCH_GET_EN(); 
   \   000009                ; Setup parameters for call to function macSrcMatchGetEnableBit
   \   000009   12....       LCALL   ??macSrcMatchGetEnableBit?relay
   \   00000C   8A..         MOV     ?V0 + 4,R2
   \   00000E   8B..         MOV     ?V0 + 5,R3
   \   000010   8C..         MOV     ?V0 + 6,R4
   \   000012   8D..         MOV     ?V0 + 7,R5
   \   000014   85....       MOV     ?V0 + 0,?V0 + 4
   \   000017   85....       MOV     ?V0 + 1,?V0 + 5
   \   00001A   85....       MOV     ?V0 + 2,?V0 + 6
   \   00001D   85....       MOV     ?V0 + 3,?V0 + 7
    488                
    489            if( option == TRUE )
   \   000020   7401         MOV     A,#0x1
   \   000022   6F           XRL     A,R7
   \   000023   7065         JNZ     ??macSrcMatchSetEnableBit_0
    490            {
    491              if( macSrcMatchAddrMode == SADDR_MODE_SHORT )
   \   000025   90....       MOV     DPTR,#macSrcMatchAddrMode
   \   000028   E0           MOVX    A,@DPTR
   \   000029   6402         XRL     A,#0x2
   \   00002B   702D         JNZ     ??macSrcMatchSetEnableBit_1
    492              {
    493                enable |= ( (uint24)0x01 << index );
   \   00002D   75..01       MOV     ?V0 + 4,#0x1
   \   000030   75..00       MOV     ?V0 + 5,#0x0
   \   000033   75..00       MOV     ?V0 + 6,#0x0
   \   000036   75..00       MOV     ?V0 + 7,#0x0
   \   000039   EE           MOV     A,R6
   \   00003A   78..         MOV     R0,#?V0 + 4
   \   00003C   12....       LCALL   ?L_SHL
   \   00003F   78..         MOV     R0,#?V0 + 0
   \   000041   79..         MOV     R1,#?V0 + 4
   \   000043   12....       LCALL   ?L_IOR
    494                MAC_RADIO_SRC_MATCH_SET_SHORTEN( enable );
   \   000046                ; Setup parameters for call to function osal_buffer_uint24
   \   000046   78..         MOV     R0,#?V0 + 0
   \   000048   12....       LCALL   ?PUSH_XSTACK_I_FOUR
   \   00004B   7A83         MOV     R2,#-0x7d
   \   00004D   7B61         MOV     R3,#0x61
   \   00004F   12....       LCALL   ??osal_buffer_uint24?relay
   \   000052   7404         MOV     A,#0x4
   \   000054   12....       LCALL   ?DEALLOC_XSTACK8
   \   000057   02....       LJMP    ??macSrcMatchSetEnableBit_2 & 0xFFFF
    495              }
    496              else
    497              {
    498                enable |= ( (uint24)0x01 << ( index * 2 ) );
   \                     ??macSrcMatchSetEnableBit_1:
   \   00005A   75..01       MOV     ?V0 + 4,#0x1
   \   00005D   75..00       MOV     ?V0 + 5,#0x0
   \   000060   75..00       MOV     ?V0 + 6,#0x0
   \   000063   75..00       MOV     ?V0 + 7,#0x0
   \   000066   75F002       MOV     B,#0x2
   \   000069   EE           MOV     A,R6
   \   00006A   A4           MUL     AB
   \   00006B   78..         MOV     R0,#?V0 + 4
   \   00006D   12....       LCALL   ?L_SHL
   \   000070   78..         MOV     R0,#?V0 + 0
   \   000072   79..         MOV     R1,#?V0 + 4
   \   000074   12....       LCALL   ?L_IOR
    499                MAC_RADIO_SRC_MATCH_SET_EXTEN( enable );
   \   000077                ; Setup parameters for call to function osal_buffer_uint24
   \   000077   78..         MOV     R0,#?V0 + 0
   \   000079   12....       LCALL   ?PUSH_XSTACK_I_FOUR
   \   00007C   7A86         MOV     R2,#-0x7a
   \   00007E   7B61         MOV     R3,#0x61
   \   000080   12....       LCALL   ??osal_buffer_uint24?relay
   \   000083   7404         MOV     A,#0x4
   \   000085   12....       LCALL   ?DEALLOC_XSTACK8
   \   000088   806C         SJMP    ??macSrcMatchSetEnableBit_2
    500              }
    501            }
    502            else
    503            {
    504              if( macSrcMatchAddrMode == SADDR_MODE_SHORT )
   \                     ??macSrcMatchSetEnableBit_0:
   \   00008A   90....       MOV     DPTR,#macSrcMatchAddrMode
   \   00008D   E0           MOVX    A,@DPTR
   \   00008E   6402         XRL     A,#0x2
   \   000090   7031         JNZ     ??macSrcMatchSetEnableBit_3
    505              {
    506                enable &= ~( (uint24)0x01 << index );
   \   000092   75..01       MOV     ?V0 + 4,#0x1
   \   000095   75..00       MOV     ?V0 + 5,#0x0
   \   000098   75..00       MOV     ?V0 + 6,#0x0
   \   00009B   75..00       MOV     ?V0 + 7,#0x0
   \   00009E   EE           MOV     A,R6
   \   00009F   78..         MOV     R0,#?V0 + 4
   \   0000A1   12....       LCALL   ?L_SHL
   \   0000A4   78..         MOV     R0,#?V0 + 4
   \   0000A6   12....       LCALL   ?L_NOT
   \   0000A9   78..         MOV     R0,#?V0 + 0
   \   0000AB   79..         MOV     R1,#?V0 + 4
   \   0000AD   12....       LCALL   ?L_AND
    507                MAC_RADIO_SRC_MATCH_SET_SHORTEN( enable );
   \   0000B0                ; Setup parameters for call to function osal_buffer_uint24
   \   0000B0   78..         MOV     R0,#?V0 + 0
   \   0000B2   12....       LCALL   ?PUSH_XSTACK_I_FOUR
   \   0000B5   7A83         MOV     R2,#-0x7d
   \   0000B7   7B61         MOV     R3,#0x61
   \   0000B9   12....       LCALL   ??osal_buffer_uint24?relay
   \   0000BC   7404         MOV     A,#0x4
   \   0000BE   12....       LCALL   ?DEALLOC_XSTACK8
   \   0000C1   8033         SJMP    ??macSrcMatchSetEnableBit_2
    508              }
    509              else
    510              {
    511                enable &= ~( (uint24)0x01 << ( index * 2 ) );
   \                     ??macSrcMatchSetEnableBit_3:
   \   0000C3   75..01       MOV     ?V0 + 4,#0x1
   \   0000C6   75..00       MOV     ?V0 + 5,#0x0
   \   0000C9   75..00       MOV     ?V0 + 6,#0x0
   \   0000CC   75..00       MOV     ?V0 + 7,#0x0
   \   0000CF   75F002       MOV     B,#0x2
   \   0000D2   EE           MOV     A,R6
   \   0000D3   A4           MUL     AB
   \   0000D4   78..         MOV     R0,#?V0 + 4
   \   0000D6   12....       LCALL   ?L_SHL
   \   0000D9   78..         MOV     R0,#?V0 + 4
   \   0000DB   12....       LCALL   ?L_NOT
   \   0000DE   78..         MOV     R0,#?V0 + 0
   \   0000E0   79..         MOV     R1,#?V0 + 4
   \   0000E2   12....       LCALL   ?L_AND
    512                MAC_RADIO_SRC_MATCH_SET_EXTEN( enable );
   \   0000E5                ; Setup parameters for call to function osal_buffer_uint24
   \   0000E5   78..         MOV     R0,#?V0 + 0
   \   0000E7   12....       LCALL   ?PUSH_XSTACK_I_FOUR
   \   0000EA   7A86         MOV     R2,#-0x7a
   \   0000EC   7B61         MOV     R3,#0x61
   \   0000EE   12....       LCALL   ??osal_buffer_uint24?relay
   \   0000F1   7404         MOV     A,#0x4
   \   0000F3   12....       LCALL   ?DEALLOC_XSTACK8
    513              }
    514            }
    515          }
   \                     ??macSrcMatchSetEnableBit_2:
   \   0000F6   7F08         MOV     R7,#0x8
   \   0000F8   02....       LJMP    ?BANKED_LEAVE_XDATA
    516          
    517          /*********************************************************************
    518           * @fn          macSrcMatchCheckEnableBit
    519           *
    520           * @brief       Check the enable bit in the source address table
    521           *
    522           * @param       index - index of the entry in the source address table
    523           *
    524           * @return      TRUE or FALSE
    525           */

   \                                 In  segment BANKED_CODE, align 1, keep-with-next
    526          static bool macSrcMatchCheckEnableBit( uint8 index )
   \                     macSrcMatchCheckEnableBit:
    527          {
   \   000000   74EC         MOV     A,#-0x14
   \   000002   12....       LCALL   ?BANKED_ENTER_XDATA
   \   000005                ; Saved register size: 20
   \   000005                ; Auto size: 0
   \   000005   E9           MOV     A,R1
   \   000006   FE           MOV     R6,A
    528            uint24 enable;
    529            
    530            if( macSrcMatchAddrMode == SADDR_MODE_EXT )
   \   000007   90....       MOV     DPTR,#macSrcMatchAddrMode
   \   00000A   E0           MOVX    A,@DPTR
   \   00000B   6403         XRL     A,#0x3
   \   00000D   7006         JNZ     ??macSrcMatchCheckEnableBit_0
    531            {
    532              index *= 2;
   \   00000F   75F002       MOV     B,#0x2
   \   000012   EE           MOV     A,R6
   \   000013   A4           MUL     AB
   \   000014   FE           MOV     R6,A
    533            }
    534            
    535            enable = MAC_RADIO_SRC_MATCH_GET_EN();
   \                     ??macSrcMatchCheckEnableBit_0:
   \   000015                ; Setup parameters for call to function macSrcMatchGetEnableBit
   \   000015   12....       LCALL   ??macSrcMatchGetEnableBit?relay
   \   000018   8A..         MOV     ?V0 + 0,R2
   \   00001A   8B..         MOV     ?V0 + 1,R3
   \   00001C   8C..         MOV     ?V0 + 2,R4
   \   00001E   8D..         MOV     ?V0 + 3,R5
   \   000020   85....       MOV     ?V0 + 4,?V0 + 0
   \   000023   85....       MOV     ?V0 + 5,?V0 + 1
   \   000026   85....       MOV     ?V0 + 6,?V0 + 2
   \   000029   85....       MOV     ?V0 + 7,?V0 + 3
    536               
    537            if( enable & ( (uint24)0x01 << index ) )
   \   00002C   85....       MOV     ?V0 + 0,?V0 + 4
   \   00002F   85....       MOV     ?V0 + 1,?V0 + 5
   \   000032   85....       MOV     ?V0 + 2,?V0 + 6
   \   000035   85....       MOV     ?V0 + 3,?V0 + 7
   \   000038   75..01       MOV     ?V0 + 8,#0x1
   \   00003B   75..00       MOV     ?V0 + 9,#0x0
   \   00003E   75..00       MOV     ?V0 + 10,#0x0
   \   000041   75..00       MOV     ?V0 + 11,#0x0
   \   000044   EE           MOV     A,R6
   \   000045   78..         MOV     R0,#?V0 + 8
   \   000047   12....       LCALL   ?L_SHL
   \   00004A   78..         MOV     R0,#?V0 + 0
   \   00004C   79..         MOV     R1,#?V0 + 8
   \   00004E   12....       LCALL   ?L_AND
   \   000051   E5..         MOV     A,?V0 + 0
   \   000053   45..         ORL     A,?V0 + 1
   \   000055   45..         ORL     A,?V0 + 2
   \   000057   45..         ORL     A,?V0 + 3
   \   000059   6004         JZ      ??macSrcMatchCheckEnableBit_1
    538            {
    539              return TRUE;
   \   00005B   7901         MOV     R1,#0x1
   \   00005D   8002         SJMP    ??macSrcMatchCheckEnableBit_2
    540            }
    541          
    542            return FALSE; 
   \                     ??macSrcMatchCheckEnableBit_1:
   \   00005F   7900         MOV     R1,#0x0
   \                     ??macSrcMatchCheckEnableBit_2:
   \   000061   7F0C         MOV     R7,#0xc
   \   000063   02....       LJMP    ?BANKED_LEAVE_XDATA
    543          }
    544           
    545          /*********************************************************************
    546           * @fn          macSrcMatchGetEnableBit
    547           *
    548           * @brief       Return the SRCMATCH enable bitmap
    549           *
    550           * @param       none
    551           *
    552           * @return      uint24 - 24 bits bitmap
    553           */

   \                                 In  segment BANKED_CODE, align 1, keep-with-next
    554          static uint24 macSrcMatchGetEnableBit( void )
   \                     macSrcMatchGetEnableBit:
    555          { 
   \   000000   C082         PUSH    DPL
   \   000002   C083         PUSH    DPH
   \   000004                ; Saved register size: 2
   \   000004                ; Auto size: 3
   \   000004   74FD         MOV     A,#-0x3
   \   000006   12....       LCALL   ?ALLOC_XSTACK8
    556            uint8 buf[MAC_SRCMATCH_ENABLE_BITMAP_LEN];
    557            
    558            if( macSrcMatchAddrMode == SADDR_MODE_SHORT )
   \   000009   90....       MOV     DPTR,#macSrcMatchAddrMode
   \   00000C   E0           MOVX    A,@DPTR
   \   00000D   6402         XRL     A,#0x2
   \   00000F   7015         JNZ     ??macSrcMatchGetEnableBit_0
    559            {
    560              MAC_RADIO_GET_SRC_SHORTEN( buf );
   \   000011                ; Setup parameters for call to function macMemReadRam
   \   000011   7903         MOV     R1,#0x3
   \   000013   85..82       MOV     DPL,?XSP + 0
   \   000016   85..83       MOV     DPH,?XSP + 1
   \   000019   AC82         MOV     R4,DPL
   \   00001B   AD83         MOV     R5,DPH
   \   00001D   7A83         MOV     R2,#-0x7d
   \   00001F   7B61         MOV     R3,#0x61
   \   000021   12....       LCALL   ??macMemReadRam?relay
   \   000024   8013         SJMP    ??macSrcMatchGetEnableBit_1
    561            }
    562            else
    563            {
    564              MAC_RADIO_GET_SRC_EXTEN( buf );
   \                     ??macSrcMatchGetEnableBit_0:
   \   000026                ; Setup parameters for call to function macMemReadRam
   \   000026   7903         MOV     R1,#0x3
   \   000028   85..82       MOV     DPL,?XSP + 0
   \   00002B   85..83       MOV     DPH,?XSP + 1
   \   00002E   AC82         MOV     R4,DPL
   \   000030   AD83         MOV     R5,DPH
   \   000032   7A86         MOV     R2,#-0x7a
   \   000034   7B61         MOV     R3,#0x61
   \   000036   12....       LCALL   ??macMemReadRam?relay
    565            }
    566            
    567            return osal_build_uint32( buf, MAC_SRCMATCH_ENABLE_BITMAP_LEN );
   \                     ??macSrcMatchGetEnableBit_1:
   \   000039                ; Setup parameters for call to function osal_build_uint32
   \   000039   7903         MOV     R1,#0x3
   \   00003B   85..82       MOV     DPL,?XSP + 0
   \   00003E   85..83       MOV     DPH,?XSP + 1
   \   000041   AA82         MOV     R2,DPL
   \   000043   AB83         MOV     R3,DPH
   \   000045   12....       LCALL   ??osal_build_uint32?relay
   \   000048   7403         MOV     A,#0x3
   \   00004A   12....       LCALL   ?DEALLOC_XSTACK8
   \   00004D   D083         POP     DPH
   \   00004F   D082         POP     DPL
   \   000051   02....       LJMP    ?BRET
    568          }
    569          
    570          /*********************************************************************
    571           * @fn          macSrcMatchGetPendEnBit
    572           *
    573           * @brief       Return the SRCMATCH Pend enable bitmap
    574           *
    575           * @param       none
    576           *
    577           * @return      uint24 - 24 bits bitmap
    578           */

   \                                 In  segment BANKED_CODE, align 1, keep-with-next
    579          static uint24 macSrcMatchGetPendEnBit( void )
   \                     macSrcMatchGetPendEnBit:
    580          {
   \   000000   C082         PUSH    DPL
   \   000002   C083         PUSH    DPH
   \   000004                ; Saved register size: 2
   \   000004                ; Auto size: 3
   \   000004   74FD         MOV     A,#-0x3
   \   000006   12....       LCALL   ?ALLOC_XSTACK8
    581            uint8 buf[MAC_SRCMATCH_ENABLE_BITMAP_LEN];
    582          
    583            if( macSrcMatchAddrMode == SADDR_MODE_SHORT )
   \   000009   90....       MOV     DPTR,#macSrcMatchAddrMode
   \   00000C   E0           MOVX    A,@DPTR
   \   00000D   6402         XRL     A,#0x2
   \   00000F   7015         JNZ     ??macSrcMatchGetPendEnBit_0
    584            {
    585              MAC_RADIO_GET_SRC_SHORTPENDEN( buf );
   \   000011                ; Setup parameters for call to function macMemReadRam
   \   000011   7903         MOV     R1,#0x3
   \   000013   85..82       MOV     DPL,?XSP + 0
   \   000016   85..83       MOV     DPH,?XSP + 1
   \   000019   AC82         MOV     R4,DPL
   \   00001B   AD83         MOV     R5,DPH
   \   00001D   7A67         MOV     R2,#0x67
   \   00001F   7B61         MOV     R3,#0x61
   \   000021   12....       LCALL   ??macMemReadRam?relay
   \   000024   8013         SJMP    ??macSrcMatchGetPendEnBit_1
    586            }
    587            else
    588            {
    589              MAC_RADIO_GET_SRC_EXTENPEND( buf );
   \                     ??macSrcMatchGetPendEnBit_0:
   \   000026                ; Setup parameters for call to function macMemReadRam
   \   000026   7903         MOV     R1,#0x3
   \   000028   85..82       MOV     DPL,?XSP + 0
   \   00002B   85..83       MOV     DPH,?XSP + 1
   \   00002E   AC82         MOV     R4,DPL
   \   000030   AD83         MOV     R5,DPH
   \   000032   7A64         MOV     R2,#0x64
   \   000034   7B61         MOV     R3,#0x61
   \   000036   12....       LCALL   ??macMemReadRam?relay
    590            }
    591            
    592            return osal_build_uint32( buf, MAC_SRCMATCH_ENABLE_BITMAP_LEN );
   \                     ??macSrcMatchGetPendEnBit_1:
   \   000039                ; Setup parameters for call to function osal_build_uint32
   \   000039   7903         MOV     R1,#0x3
   \   00003B   85..82       MOV     DPL,?XSP + 0
   \   00003E   85..83       MOV     DPH,?XSP + 1
   \   000041   AA82         MOV     R2,DPL
   \   000043   AB83         MOV     R3,DPH
   \   000045   12....       LCALL   ??osal_build_uint32?relay
   \   000048   7403         MOV     A,#0x3
   \   00004A   12....       LCALL   ?DEALLOC_XSTACK8
   \   00004D   D083         POP     DPH
   \   00004F   D082         POP     DPL
   \   000051   02....       LJMP    ?BRET
    593          }

   \                                 In  segment XDATA_ID, align 1, keep-with-next
   \                     `?<Initializer for macSrcMatchAddrMode>`:
   \   000000   02           DB 2

   \                                 In  segment BANK_RELAYS, align 1
   \                     ??MAC_SrcMatchEnable?relay:
   \   000000   12....       LCALL   ?BDISPATCH
   \   000003   ......       DC24    MAC_SrcMatchEnable

   \                                 In  segment BANK_RELAYS, align 1
   \                     ??MAC_SrcMatchAddEntry?relay:
   \   000000   12....       LCALL   ?BDISPATCH
   \   000003   ......       DC24    MAC_SrcMatchAddEntry

   \                                 In  segment BANK_RELAYS, align 1
   \                     ??MAC_SrcMatchDeleteEntry?relay:
   \   000000   12....       LCALL   ?BDISPATCH
   \   000003   ......       DC24    MAC_SrcMatchDeleteEntry

   \                                 In  segment BANK_RELAYS, align 1
   \                     ??MAC_SrcMatchAckAllPending?relay:
   \   000000   12....       LCALL   ?BDISPATCH
   \   000003   ......       DC24    MAC_SrcMatchAckAllPending

   \                                 In  segment BANK_RELAYS, align 1
   \                     ??MAC_SrcMatchCheckAllPending?relay:
   \   000000   12....       LCALL   ?BDISPATCH
   \   000003   ......       DC24    MAC_SrcMatchCheckAllPending

   \                                 In  segment BANK_RELAYS, align 1
   \                     ??MAC_SrcMatchCheckResult?relay:
   \   000000   12....       LCALL   ?BDISPATCH
   \   000003   ......       DC24    MAC_SrcMatchCheckResult

   \                                 In  segment BANK_RELAYS, align 1
   \                     ??macSrcMatchFindEmptyEntry?relay:
   \   000000   12....       LCALL   ?BDISPATCH
   \   000003   ......       DC24    macSrcMatchFindEmptyEntry

   \                                 In  segment BANK_RELAYS, align 1
   \                     ??macSrcMatchCheckSrcAddr?relay:
   \   000000   12....       LCALL   ?BDISPATCH
   \   000003   ......       DC24    macSrcMatchCheckSrcAddr

   \                                 In  segment BANK_RELAYS, align 1
   \                     ??macSrcMatchSetPendEnBit?relay:
   \   000000   12....       LCALL   ?BDISPATCH
   \   000003   ......       DC24    macSrcMatchSetPendEnBit

   \                                 In  segment BANK_RELAYS, align 1
   \                     ??macSrcMatchSetEnableBit?relay:
   \   000000   12....       LCALL   ?BDISPATCH
   \   000003   ......       DC24    macSrcMatchSetEnableBit

   \                                 In  segment BANK_RELAYS, align 1
   \                     ??macSrcMatchCheckEnableBit?relay:
   \   000000   12....       LCALL   ?BDISPATCH
   \   000003   ......       DC24    macSrcMatchCheckEnableBit

   \                                 In  segment BANK_RELAYS, align 1
   \                     ??macSrcMatchGetEnableBit?relay:
   \   000000   12....       LCALL   ?BDISPATCH
   \   000003   ......       DC24    macSrcMatchGetEnableBit

   \                                 In  segment BANK_RELAYS, align 1
   \                     ??macSrcMatchGetPendEnBit?relay:
   \   000000   12....       LCALL   ?BDISPATCH
   \   000003   ......       DC24    macSrcMatchGetPendEnBit
    594          
    595          

   Maximum stack usage in bytes:

     Function                       ISTACK PSTACK XSTACK
     --------                       ------ ------ ------
     MAC_SrcMatchAckAllPending          2      0      0
     MAC_SrcMatchAddEntry               1      0     15
       -> macSrcMatchCheckSrcAddr       0      0     30
       -> macSrcMatchFindEmptyEntry     0      0     30
       -> macMemWriteRam                0      0     30
       -> macMemWriteRam                0      0     30
       -> macSrcMatchSetPendEnBit       0      0     30
       -> macSrcMatchSetEnableBit       0      0     30
     MAC_SrcMatchCheckAllPending        2      0      0
     MAC_SrcMatchCheckResult            2      0      0
     MAC_SrcMatchDeleteEntry            0      0     11
       -> macSrcMatchCheckSrcAddr       0      0     22
       -> macSrcMatchSetEnableBit       0      0     22
     MAC_SrcMatchEnable                 2      0      0
     macSrcMatchCheckEnableBit          0      0     50
       -> macSrcMatchGetEnableBit       0      0     40
     macSrcMatchCheckSrcAddr            1      0     48
       -> macSrcMatchCheckEnableBit     0      0     60
       -> macMemReadRam                 0      0     60
       -> osal_memcmp                   0      0     66
     macSrcMatchFindEmptyEntry          0      0     35
       -> macSrcMatchGetEnableBit       0      0     40
     macSrcMatchGetEnableBit            2      0     23
       -> macMemReadRam                 4      0      6
       -> macMemReadRam                 4      0      6
       -> osal_build_uint32             4      0      6
     macSrcMatchGetPendEnBit            2      0     22
       -> macMemReadRam                 4      0      6
       -> macMemReadRam                 4      0      6
       -> osal_build_uint32             4      0      6
     macSrcMatchSetEnableBit            0      0     35
       -> macSrcMatchGetEnableBit       0      0     32
       -> osal_buffer_uint24            0      0     40
       -> osal_buffer_uint24            0      0     40
       -> osal_buffer_uint24            0      0     40
       -> osal_buffer_uint24            0      0     40
     macSrcMatchSetPendEnBit            0      0     38
       -> macSrcMatchGetPendEnBit       0      0     38
       -> osal_buffer_uint24            0      0     46
       -> macMemWriteRam                0      0     38
       -> osal_buffer_uint24            0      0     46
       -> macMemWriteRam                0      0     38


   Segment part sizes:

     Function/Label                         Bytes
     --------------                         -----
     macSrcMatchIsEnabled                      1
     macSrcMatchMaxNumEntries                  1
     macSrcMatchAddrMode                       1
     macSrcMatchIsAckAllPending                1
     MAC_SrcMatchEnable                      104
     MAC_SrcMatchAddEntry                    291
     MAC_SrcMatchDeleteEntry                  80
     MAC_SrcMatchAckAllPending                44
     MAC_SrcMatchCheckAllPending              25
     MAC_SrcMatchCheckResult                  30
     macSrcMatchFindEmptyEntry               179
     macSrcMatchCheckSrcAddr                 281
     macSrcMatchSetPendEnBit                 191
     macSrcMatchSetEnableBit                 251
     macSrcMatchCheckEnableBit               102
     macSrcMatchGetEnableBit                  84
     macSrcMatchGetPendEnBit                  84
     ?<Initializer for macSrcMatchAddrMode>    1
     ??MAC_SrcMatchEnable?relay                6
     ??MAC_SrcMatchAddEntry?relay              6
     ??MAC_SrcMatchDeleteEntry?relay           6
     ??MAC_SrcMatchAckAllPending?relay         6
     ??MAC_SrcMatchCheckAllPending?relay       6
     ??MAC_SrcMatchCheckResult?relay           6
     ??macSrcMatchFindEmptyEntry?relay         6
     ??macSrcMatchCheckSrcAddr?relay           6
     ??macSrcMatchSetPendEnBit?relay           6
     ??macSrcMatchSetEnableBit?relay           6
     ??macSrcMatchCheckEnableBit?relay         6
     ??macSrcMatchGetEnableBit?relay           6
     ??macSrcMatchGetPendEnBit?relay           6

 
 1 746 bytes in segment BANKED_CODE
    78 bytes in segment BANK_RELAYS
     1 byte  in segment XDATA_I
     1 byte  in segment XDATA_ID
     3 bytes in segment XDATA_Z
 
 1 825 bytes of CODE  memory
     4 bytes of XDATA memory

Errors: none
Warnings: none
