///////////////////////////////////////////////////////////////////////////////
//                                                                            /
// IAR C/C++ Compiler V8.10.1.10194/W32 for 8051        13/Jul/2015  17:23:54 /
// Copyright 2004-2011 IAR Systems AB.                                        /
//                                                                            /
//    Core               =  plain                                             /
//    Code model         =  banked                                            /
//    Data model         =  large                                             /
//    Calling convention =  xdata reentrant                                   /
//    Constant location  =  data_rom                                          /
//    Dptr setup         =  1,16                                              /
//    Source file        =  C:\Texas Instruments\ZStack-CC2530-2.5.1a\Compone /
//                          nts\stack\zdo\ZDObject.c                          /
//    Command line       =  -f "C:\Texas Instruments\ZStack-CC2530-2.5.1a\Pro /
//                          jects\zstack\Samples\WirelessMonitorSystem\CC2530 /
//                          DB\..\..\..\Tools\CC2530DB\f8wEndev.cfg"          /
//                          (-DCPU32MHZ -DROOT=__near_func                    /
//                          -DMAC_CFG_TX_DATA_MAX=3 -DMAC_CFG_TX_MAX=6        /
//                          -DMAC_CFG_RX_MAX=3) -f "C:\Texas                  /
//                          Instruments\ZStack-CC2530-2.5.1a\Projects\zstack\ /
//                          Samples\WirelessMonitorSystem\CC2530DB\..\..\..\T /
//                          ools\CC2530DB\f8wConfig.cfg" (-DZIGBEEPRO         /
//                          -DSECURE=0 -DZG_SECURE_DYNAMIC=0 -DREFLECTOR      /
//                          -DDEFAULT_CHANLIST=0x00000800                     /
//                          -DZDAPP_CONFIG_PAN_ID=0xFFFF                      /
//                          -DNWK_START_DELAY=100 -DEXTENDED_JOINING_RANDOM_M /
//                          ASK=0x007F -DBEACON_REQUEST_DELAY=100             /
//                          -DBEACON_REQ_DELAY_MASK=0x00FF                    /
//                          -DLINK_STATUS_JITTER_MASK=0x007F                  /
//                          -DROUTE_EXPIRY_TIME=30 -DAPSC_ACK_WAIT_DURATION_P /
//                          OLLED=3000 -DNWK_INDIRECT_MSG_TIMEOUT=7           /
//                          -DMAX_RREQ_ENTRIES=8 -DAPSC_MAX_FRAME_RETRIES=3   /
//                          -DNWK_MAX_DATA_RETRIES=2                          /
//                          -DMAX_POLL_FAILURE_RETRIES=2 -DMAX_BCAST=9        /
//                          -DAPS_MAX_GROUPS=16 -DMAX_RTG_ENTRIES=40          /
//                          -DNWK_MAX_BINDING_ENTRIES=4                       /
//                          -DMAX_BINDING_CLUSTER_IDS=4                       /
//                          "-DDEFAULT_KEY={0x01, 0x03, 0x05, 0x07, 0x09,     /
//                          0x0B, 0x0D, 0x0F, 0x00, 0x02, 0x04, 0x06, 0x08,   /
//                          0x0A, 0x0C, 0x0D}" -DMAC_MAX_FRAME_SIZE=116       /
//                          -DZDNWKMGR_MIN_TRANSMISSIONS=20 "-DCONST=const    /
//                          __code" -DGENERIC=__generic                       /
//                          -DRFD_RCVC_ALWAYS_ON=FALSE -DPOLL_RATE=500        /
//                          -DQUEUED_POLL_RATE=30 -DRESPONSE_POLL_RATE=100)   /
//                          -DREJOIN_POLL_RATE=440 "C:\Texas                  /
//                          Instruments\ZStack-CC2530-2.5.1a\Components\stack /
//                          \zdo\ZDObject.c" -D HAL_UART -lC "C:\Texas        /
//                          Instruments\ZStack-CC2530-2.5.1a\Projects\zstack\ /
//                          Samples\WirelessMonitorSystem\CC2530DB\Camera\Lis /
//                          t\" -lA "C:\Texas Instruments\ZStack-CC2530-2.5.1 /
//                          a\Projects\zstack\Samples\WirelessMonitorSystem\C /
//                          C2530DB\Camera\List\" --diag_suppress             /
//                          Pe001,Pa010 -o "C:\Texas                          /
//                          Instruments\ZStack-CC2530-2.5.1a\Projects\zstack\ /
//                          Samples\WirelessMonitorSystem\CC2530DB\Camera\Obj /
//                          \" -e --no_cse --no_unroll --no_inline            /
//                          --no_code_motion --no_tbaa --debug --core=plain   /
//                          --dptr=16,1 --data_model=large                    /
//                          --code_model=banked --calling_convention=xdata_re /
//                          entrant --place_constants=data_rom                /
//                          --nr_virtual_regs 16 -I "C:\Texas                 /
//                          Instruments\ZStack-CC2530-2.5.1a\Projects\zstack\ /
//                          Samples\WirelessMonitorSystem\CC2530DB\" -I       /
//                          "C:\Texas Instruments\ZStack-CC2530-2.5.1a\Projec /
//                          ts\zstack\Samples\WirelessMonitorSystem\CC2530DB\ /
//                          ..\Source\" -I "C:\Texas                          /
//                          Instruments\ZStack-CC2530-2.5.1a\Projects\zstack\ /
//                          Samples\WirelessMonitorSystem\CC2530DB\..\..\..\Z /
//                          Main\TI2530DB\" -I "C:\Texas                      /
//                          Instruments\ZStack-CC2530-2.5.1a\Projects\zstack\ /
//                          Samples\WirelessMonitorSystem\CC2530DB\..\..\..\. /
//                          .\..\Components\hal\include\" -I "C:\Texas        /
//                          Instruments\ZStack-CC2530-2.5.1a\Projects\zstack\ /
//                          Samples\WirelessMonitorSystem\CC2530DB\..\..\..\. /
//                          .\..\Components\hal\target\CC2530EB\" -I          /
//                          "C:\Texas Instruments\ZStack-CC2530-2.5.1a\Projec /
//                          ts\zstack\Samples\WirelessMonitorSystem\CC2530DB\ /
//                          ..\..\..\..\..\Components\mac\include\" -I        /
//                          "C:\Texas Instruments\ZStack-CC2530-2.5.1a\Projec /
//                          ts\zstack\Samples\WirelessMonitorSystem\CC2530DB\ /
//                          ..\..\..\..\..\Components\mac\high_level\" -I     /
//                          "C:\Texas Instruments\ZStack-CC2530-2.5.1a\Projec /
//                          ts\zstack\Samples\WirelessMonitorSystem\CC2530DB\ /
//                          ..\..\..\..\..\Components\mac\low_level\srf04\"   /
//                          -I "C:\Texas Instruments\ZStack-CC2530-2.5.1a\Pro /
//                          jects\zstack\Samples\WirelessMonitorSystem\CC2530 /
//                          DB\..\..\..\..\..\Components\mac\low_level\srf04\ /
//                          single_chip\" -I "C:\Texas                        /
//                          Instruments\ZStack-CC2530-2.5.1a\Projects\zstack\ /
//                          Samples\WirelessMonitorSystem\CC2530DB\..\..\..\. /
//                          .\..\Components\mt\" -I "C:\Texas                 /
//                          Instruments\ZStack-CC2530-2.5.1a\Projects\zstack\ /
//                          Samples\WirelessMonitorSystem\CC2530DB\..\..\..\. /
//                          .\..\Components\osal\include\" -I "C:\Texas       /
//                          Instruments\ZStack-CC2530-2.5.1a\Projects\zstack\ /
//                          Samples\WirelessMonitorSystem\CC2530DB\..\..\..\. /
//                          .\..\Components\services\saddr\" -I "C:\Texas     /
//                          Instruments\ZStack-CC2530-2.5.1a\Projects\zstack\ /
//                          Samples\WirelessMonitorSystem\CC2530DB\..\..\..\. /
//                          .\..\Components\services\sdata\" -I "C:\Texas     /
//                          Instruments\ZStack-CC2530-2.5.1a\Projects\zstack\ /
//                          Samples\WirelessMonitorSystem\CC2530DB\..\..\..\. /
//                          .\..\Components\stack\af\" -I "C:\Texas           /
//                          Instruments\ZStack-CC2530-2.5.1a\Projects\zstack\ /
//                          Samples\WirelessMonitorSystem\CC2530DB\..\..\..\. /
//                          .\..\Components\stack\nwk\" -I "C:\Texas          /
//                          Instruments\ZStack-CC2530-2.5.1a\Projects\zstack\ /
//                          Samples\WirelessMonitorSystem\CC2530DB\..\..\..\. /
//                          .\..\Components\stack\sapi\" -I "C:\Texas         /
//                          Instruments\ZStack-CC2530-2.5.1a\Projects\zstack\ /
//                          Samples\WirelessMonitorSystem\CC2530DB\..\..\..\. /
//                          .\..\Components\stack\sec\" -I "C:\Texas          /
//                          Instruments\ZStack-CC2530-2.5.1a\Projects\zstack\ /
//                          Samples\WirelessMonitorSystem\CC2530DB\..\..\..\. /
//                          .\..\Components\stack\sys\" -I "C:\Texas          /
//                          Instruments\ZStack-CC2530-2.5.1a\Projects\zstack\ /
//                          Samples\WirelessMonitorSystem\CC2530DB\..\..\..\. /
//                          .\..\Components\stack\zdo\" -I "C:\Texas          /
//                          Instruments\ZStack-CC2530-2.5.1a\Projects\zstack\ /
//                          Samples\WirelessMonitorSystem\CC2530DB\..\..\..\. /
//                          .\..\Components\zmac\" -I "C:\Texas               /
//                          Instruments\ZStack-CC2530-2.5.1a\Projects\zstack\ /
//                          Samples\WirelessMonitorSystem\CC2530DB\..\..\..\. /
//                          .\..\Components\zmac\f8w\" -On                    /
//                          --require_prototypes                              /
//    List file          =  C:\Texas Instruments\ZStack-CC2530-2.5.1a\Project /
//                          s\zstack\Samples\WirelessMonitorSystem\CC2530DB\C /
//                          amera\List\ZDObject.s51                           /
//                                                                            /
//                                                                            /
///////////////////////////////////////////////////////////////////////////////

        NAME ZDObject

        RTMODEL "__SystemLibrary", "CLib"
        RTMODEL "__calling_convention", "xdata_reentrant"
        RTMODEL "__code_model", "banked"
        RTMODEL "__core", "plain"
        RTMODEL "__data_model", "large"
        RTMODEL "__dptr_size", "16"
        RTMODEL "__extended_stack", "disabled"
        RTMODEL "__location_for_constants", "data"
        RTMODEL "__number_of_dptrs", "1"
        RTMODEL "__rt_version", "1"

        RSEG DOVERLAY:DATA:NOROOT(0)
        RSEG IOVERLAY:IDATA:NOROOT(0)
        RSEG ISTACK:IDATA:NOROOT(0)
        RSEG PSTACK:XDATA:NOROOT(0)
        RSEG XSTACK:XDATA:NOROOT(0)

        EXTERN ?ALLOC_XSTACK8
        EXTERN ?BANKED_ENTER_XDATA
        EXTERN ?BANKED_LEAVE_XDATA
        EXTERN ?BDISPATCH
        EXTERN ?BRET
        EXTERN ?CALL_IND
        EXTERN ?DEALLOC_XSTACK8
        EXTERN ?L_MOV_TO_X
        EXTERN ?L_MOV_X
        EXTERN ?PUSH_XSTACK8_X_TWO
        EXTERN ?PUSH_XSTACK_I_ONE
        EXTERN ?PUSH_XSTACK_I_THREE
        EXTERN ?PUSH_XSTACK_I_TWO
        EXTERN ?V0
        EXTERN ?XLOAD_R2345
        EXTERN ?XSP
        EXTERN ?XSTACK_DISP0_8
        EXTERN ?XSTORE_R2345
        EXTERN __INIT_XDATA_Z

        PUBLIC ??NLME_PermitJoiningTimeout?relay
        FUNCTION ??NLME_PermitJoiningTimeout?relay,0203H
        PUBLIC ??ZDMatchSendState?relay
        FUNCTION ??ZDMatchSendState?relay,0203H
        FUNCTION ??ZDODeviceSetup?relay,0203H
        PUBLIC ??ZDO_AnyClusterMatches?relay
        FUNCTION ??ZDO_AnyClusterMatches?relay,0203H
        PUBLIC ??ZDO_BuildSimpleDescBuf?relay
        FUNCTION ??ZDO_BuildSimpleDescBuf?relay,0203H
        FUNCTION ??ZDO_CompareClusterLists?relay,0203H
        PUBLIC ??ZDO_ConvertOTAClusters?relay
        FUNCTION ??ZDO_ConvertOTAClusters?relay,0203H
        FUNCTION ??ZDO_CopyMatchInfo?relay,0203H
        FUNCTION ??ZDO_EndDeviceBindMatchTimeoutCB?relay,0203H
        PUBLIC ??ZDO_EndDeviceTimeoutCB?relay
        FUNCTION ??ZDO_EndDeviceTimeoutCB?relay,0203H
        PUBLIC ??ZDO_Init?relay
        FUNCTION ??ZDO_Init?relay,0203H
        PUBLIC ??ZDO_MatchEndDeviceBind?relay
        FUNCTION ??ZDO_MatchEndDeviceBind?relay,0203H
        PUBLIC ??ZDO_ParseAddrRsp?relay
        FUNCTION ??ZDO_ParseAddrRsp?relay,0203H
        PUBLIC ??ZDO_ParseBindUnbindReq?relay
        FUNCTION ??ZDO_ParseBindUnbindReq?relay,0203H
        PUBLIC ??ZDO_ParseDeviceAnnce?relay
        FUNCTION ??ZDO_ParseDeviceAnnce?relay,0203H
        PUBLIC ??ZDO_ParseEPListRsp?relay
        FUNCTION ??ZDO_ParseEPListRsp?relay,0203H
        PUBLIC ??ZDO_ParseEndDeviceBindReq?relay
        FUNCTION ??ZDO_ParseEndDeviceBindReq?relay,0203H
        PUBLIC ??ZDO_ParseMgmNwkDiscRsp?relay
        FUNCTION ??ZDO_ParseMgmNwkDiscRsp?relay,0203H
        PUBLIC ??ZDO_ParseMgmtBindRsp?relay
        FUNCTION ??ZDO_ParseMgmtBindRsp?relay,0203H
        PUBLIC ??ZDO_ParseMgmtLqiRsp?relay
        FUNCTION ??ZDO_ParseMgmtLqiRsp?relay,0203H
        PUBLIC ??ZDO_ParseMgmtNwkUpdateNotify?relay
        FUNCTION ??ZDO_ParseMgmtNwkUpdateNotify?relay,0203H
        PUBLIC ??ZDO_ParseMgmtNwkUpdateReq?relay
        FUNCTION ??ZDO_ParseMgmtNwkUpdateReq?relay,0203H
        PUBLIC ??ZDO_ParseMgmtRtgRsp?relay
        FUNCTION ??ZDO_ParseMgmtRtgRsp?relay,0203H
        PUBLIC ??ZDO_ParseNodeDescRsp?relay
        FUNCTION ??ZDO_ParseNodeDescRsp?relay,0203H
        PUBLIC ??ZDO_ParsePowerDescRsp?relay
        FUNCTION ??ZDO_ParsePowerDescRsp?relay,0203H
        PUBLIC ??ZDO_ParseServerDiscRsp?relay
        FUNCTION ??ZDO_ParseServerDiscRsp?relay,0203H
        PUBLIC ??ZDO_ParseSimpleDescBuf?relay
        FUNCTION ??ZDO_ParseSimpleDescBuf?relay,0203H
        PUBLIC ??ZDO_ParseSimpleDescRsp?relay
        FUNCTION ??ZDO_ParseSimpleDescRsp?relay,0203H
        PUBLIC ??ZDO_ParseUserDescRsp?relay
        FUNCTION ??ZDO_ParseUserDescRsp?relay,0203H
        PUBLIC ??ZDO_ProcessActiveEPReq?relay
        FUNCTION ??ZDO_ProcessActiveEPReq?relay,0203H
        PUBLIC ??ZDO_ProcessBindUnbindReq?relay
        FUNCTION ??ZDO_ProcessBindUnbindReq?relay,0203H
        PUBLIC ??ZDO_ProcessDeviceAnnce?relay
        FUNCTION ??ZDO_ProcessDeviceAnnce?relay,0203H
        PUBLIC ??ZDO_ProcessMatchDescReq?relay
        FUNCTION ??ZDO_ProcessMatchDescReq?relay,0203H
        PUBLIC ??ZDO_ProcessMgmtBindReq?relay
        FUNCTION ??ZDO_ProcessMgmtBindReq?relay,0203H
        PUBLIC ??ZDO_ProcessMgmtDirectJoinReq?relay
        FUNCTION ??ZDO_ProcessMgmtDirectJoinReq?relay,0203H
        PUBLIC ??ZDO_ProcessMgmtLeaveReq?relay
        FUNCTION ??ZDO_ProcessMgmtLeaveReq?relay,0203H
        PUBLIC ??ZDO_ProcessMgmtLqiReq?relay
        FUNCTION ??ZDO_ProcessMgmtLqiReq?relay,0203H
        PUBLIC ??ZDO_ProcessMgmtNwkDiscReq?relay
        FUNCTION ??ZDO_ProcessMgmtNwkDiscReq?relay,0203H
        PUBLIC ??ZDO_ProcessMgmtPermitJoinReq?relay
        FUNCTION ??ZDO_ProcessMgmtPermitJoinReq?relay,0203H
        PUBLIC ??ZDO_ProcessMgmtRtgReq?relay
        FUNCTION ??ZDO_ProcessMgmtRtgReq?relay,0203H
        PUBLIC ??ZDO_ProcessNodeDescReq?relay
        FUNCTION ??ZDO_ProcessNodeDescReq?relay,0203H
        PUBLIC ??ZDO_ProcessPowerDescReq?relay
        FUNCTION ??ZDO_ProcessPowerDescReq?relay,0203H
        PUBLIC ??ZDO_ProcessServerDiscReq?relay
        FUNCTION ??ZDO_ProcessServerDiscReq?relay,0203H
        PUBLIC ??ZDO_ProcessSimpleDescReq?relay
        FUNCTION ??ZDO_ProcessSimpleDescReq?relay,0203H
        PUBLIC ??ZDO_ProcessUserDescReq?relay
        FUNCTION ??ZDO_ProcessUserDescReq?relay,0203H
        PUBLIC ??ZDO_ProcessUserDescSet?relay
        FUNCTION ??ZDO_ProcessUserDescSet?relay,0203H
        FUNCTION ??ZDO_RemoveEndDeviceBind?relay,0203H
        FUNCTION ??ZDO_RemoveMatchMemory?relay,0203H
        FUNCTION ??ZDO_SendEDBindRsp?relay,0203H
        PUBLIC ??ZDO_StartDevice?relay
        FUNCTION ??ZDO_StartDevice?relay,0203H
        PUBLIC ??ZDO_UpdateAddrManager?relay
        FUNCTION ??ZDO_UpdateAddrManager?relay,0203H
        PUBLIC ??ZDO_UpdateNwkStatus?relay
        FUNCTION ??ZDO_UpdateNwkStatus?relay,0203H
        FUNCTION ??zdoSendStateChangeMsg?relay,0203H
        PUBLIC NLME_PermitJoiningTimeout
        FUNCTION NLME_PermitJoiningTimeout,0203H
        ARGFRAME XSTACK, 0, STACK
        PUBLIC ZDMatchSendState
        FUNCTION ZDMatchSendState,021203H
        ARGFRAME XSTACK, 25, STACK
        ARGFRAME IOVERLAY, 0, STATIC
        ARGFRAME DOVERLAY, 0, STATIC
        LOCFRAME ISTACK, 1, STACK
        LOCFRAME XSTACK, 47, STACK
        FUNCTION ZDODeviceSetup,021203H
        ARGFRAME XSTACK, 0, STACK
        ARGFRAME IOVERLAY, 0, STATIC
        ARGFRAME DOVERLAY, 0, STATIC
        LOCFRAME ISTACK, 2, STACK
        PUBLIC ZDO_AnyClusterMatches
        FUNCTION ZDO_AnyClusterMatches,0203H
        ARGFRAME XSTACK, 36, STACK
        ARGFRAME IOVERLAY, 0, STATIC
        ARGFRAME DOVERLAY, 0, STATIC
        LOCFRAME XSTACK, 13, STACK
        PUBLIC ZDO_BuildSimpleDescBuf
        FUNCTION ZDO_BuildSimpleDescBuf,0203H
        ARGFRAME XSTACK, 0, STACK
        LOCFRAME ISTACK, 1, STACK
        LOCFRAME XSTACK, 10, STACK
        FUNCTION ZDO_CompareClusterLists,0203H
        ARGFRAME XSTACK, 29, STACK
        ARGFRAME IOVERLAY, 0, STATIC
        ARGFRAME DOVERLAY, 0, STATIC
        LOCFRAME XSTACK, 16, STACK
        PUBLIC ZDO_ConvertOTAClusters
        FUNCTION ZDO_ConvertOTAClusters,0203H
        ARGFRAME XSTACK, 34, STACK
        ARGFRAME IOVERLAY, 0, STATIC
        ARGFRAME DOVERLAY, 0, STATIC
        LOCFRAME XSTACK, 11, STACK
        FUNCTION ZDO_CopyMatchInfo,021203H
        ARGFRAME XSTACK, 25, STACK
        ARGFRAME IOVERLAY, 0, STATIC
        ARGFRAME DOVERLAY, 0, STATIC
        LOCFRAME XSTACK, 18, STACK
        FUNCTION ZDO_EndDeviceBindMatchTimeoutCB,021603H
        ARGFRAME XSTACK, 0, STACK
        LOCFRAME ISTACK, 2, STACK
        PUBLIC ZDO_EndDeviceTimeoutCB
        FUNCTION ZDO_EndDeviceTimeoutCB,021203H
        ARGFRAME XSTACK, 0, STACK
        LOCFRAME XSTACK, 9, STACK
        PUBLIC ZDO_Init
        FUNCTION ZDO_Init,021203H
        ARGFRAME XSTACK, 0, STACK
        LOCFRAME ISTACK, 2, STACK
        PUBLIC ZDO_MatchEndDeviceBind
        FUNCTION ZDO_MatchEndDeviceBind,021203H
        ARGFRAME XSTACK, 0, STACK
        LOCFRAME ISTACK, 1, STACK
        LOCFRAME XSTACK, 30, STACK
        PUBLIC ZDO_ParseAddrRsp
        FUNCTION ZDO_ParseAddrRsp,021203H
        ARGFRAME XSTACK, 0, STACK
        LOCFRAME ISTACK, 1, STACK
        LOCFRAME XSTACK, 16, STACK
        PUBLIC ZDO_ParseBindUnbindReq
        FUNCTION ZDO_ParseBindUnbindReq,021203H
        ARGFRAME XSTACK, 0, STACK
        LOCFRAME ISTACK, 1, STACK
        LOCFRAME XSTACK, 12, STACK
        PUBLIC ZDO_ParseDeviceAnnce
        FUNCTION ZDO_ParseDeviceAnnce,021203H
        ARGFRAME XSTACK, 44, STACK
        ARGFRAME IOVERLAY, 0, STATIC
        ARGFRAME DOVERLAY, 0, STATIC
        LOCFRAME ISTACK, 1, STACK
        LOCFRAME XSTACK, 12, STACK
        PUBLIC ZDO_ParseEPListRsp
        FUNCTION ZDO_ParseEPListRsp,021203H
        ARGFRAME XSTACK, 0, STACK
        LOCFRAME ISTACK, 1, STACK
        LOCFRAME XSTACK, 20, STACK
        PUBLIC ZDO_ParseEndDeviceBindReq
        FUNCTION ZDO_ParseEndDeviceBindReq,021203H
        ARGFRAME XSTACK, 0, STACK
        LOCFRAME ISTACK, 1, STACK
        LOCFRAME XSTACK, 14, STACK
        PUBLIC ZDO_ParseMgmNwkDiscRsp
        FUNCTION ZDO_ParseMgmNwkDiscRsp,021203H
        ARGFRAME XSTACK, 0, STACK
        LOCFRAME ISTACK, 1, STACK
        LOCFRAME XSTACK, 20, STACK
        PUBLIC ZDO_ParseMgmtBindRsp
        FUNCTION ZDO_ParseMgmtBindRsp,021203H
        ARGFRAME XSTACK, 0, STACK
        LOCFRAME ISTACK, 1, STACK
        LOCFRAME XSTACK, 22, STACK
        PUBLIC ZDO_ParseMgmtLqiRsp
        FUNCTION ZDO_ParseMgmtLqiRsp,021203H
        ARGFRAME XSTACK, 0, STACK
        LOCFRAME ISTACK, 1, STACK
        LOCFRAME XSTACK, 20, STACK
        PUBLIC ZDO_ParseMgmtNwkUpdateNotify
        FUNCTION ZDO_ParseMgmtNwkUpdateNotify,021203H
        ARGFRAME XSTACK, 0, STACK
        LOCFRAME ISTACK, 1, STACK
        LOCFRAME XSTACK, 29, STACK
        PUBLIC ZDO_ParseMgmtNwkUpdateReq
        FUNCTION ZDO_ParseMgmtNwkUpdateReq,021203H
        ARGFRAME XSTACK, 0, STACK
        LOCFRAME ISTACK, 1, STACK
        LOCFRAME XSTACK, 12, STACK
        PUBLIC ZDO_ParseMgmtRtgRsp
        FUNCTION ZDO_ParseMgmtRtgRsp,021203H
        ARGFRAME XSTACK, 0, STACK
        LOCFRAME ISTACK, 1, STACK
        LOCFRAME XSTACK, 18, STACK
        PUBLIC ZDO_ParseNodeDescRsp
        FUNCTION ZDO_ParseNodeDescRsp,0203H
        ARGFRAME XSTACK, 0, STACK
        LOCFRAME ISTACK, 2, STACK
        LOCFRAME XSTACK, 10, STACK
        PUBLIC ZDO_ParsePowerDescRsp
        FUNCTION ZDO_ParsePowerDescRsp,0203H
        ARGFRAME XSTACK, 0, STACK
        LOCFRAME ISTACK, 1, STACK
        LOCFRAME XSTACK, 10, STACK
        PUBLIC ZDO_ParseServerDiscRsp
        FUNCTION ZDO_ParseServerDiscRsp,0203H
        ARGFRAME XSTACK, 0, STACK
        LOCFRAME ISTACK, 1, STACK
        LOCFRAME XSTACK, 9, STACK
        PUBLIC ZDO_ParseSimpleDescBuf
        FUNCTION ZDO_ParseSimpleDescBuf,021203H
        ARGFRAME XSTACK, 12, STACK
        ARGFRAME IOVERLAY, 0, STATIC
        ARGFRAME DOVERLAY, 0, STATIC
        LOCFRAME ISTACK, 1, STACK
        LOCFRAME XSTACK, 14, STACK
        PUBLIC ZDO_ParseSimpleDescRsp
        FUNCTION ZDO_ParseSimpleDescRsp,021203H
        ARGFRAME XSTACK, 0, STACK
        LOCFRAME ISTACK, 1, STACK
        LOCFRAME XSTACK, 12, STACK
        PUBLIC ZDO_ParseUserDescRsp
        FUNCTION ZDO_ParseUserDescRsp,021203H
        ARGFRAME XSTACK, 0, STACK
        LOCFRAME ISTACK, 1, STACK
        LOCFRAME XSTACK, 19, STACK
        PUBLIC ZDO_ProcessActiveEPReq
        FUNCTION ZDO_ProcessActiveEPReq,021203H
        ARGFRAME XSTACK, 0, STACK
        LOCFRAME XSTACK, 21, STACK
        PUBLIC ZDO_ProcessBindUnbindReq
        FUNCTION ZDO_ProcessBindUnbindReq,021203H
        ARGFRAME XSTACK, 0, STACK
        LOCFRAME XSTACK, 29, STACK
        PUBLIC ZDO_ProcessDeviceAnnce
        FUNCTION ZDO_ProcessDeviceAnnce,021203H
        ARGFRAME XSTACK, 0, STACK
        LOCFRAME XSTACK, 44, STACK
        PUBLIC ZDO_ProcessMatchDescReq
        FUNCTION ZDO_ProcessMatchDescReq,021203H
        ARGFRAME XSTACK, 0, STACK
        LOCFRAME ISTACK, 1, STACK
        LOCFRAME XSTACK, 41, STACK
        PUBLIC ZDO_ProcessMgmtBindReq
        FUNCTION ZDO_ProcessMgmtBindReq,021203H
        ARGFRAME XSTACK, 0, STACK
        LOCFRAME XSTACK, 29, STACK
        PUBLIC ZDO_ProcessMgmtDirectJoinReq
        FUNCTION ZDO_ProcessMgmtDirectJoinReq,021203H
        ARGFRAME XSTACK, 0, STACK
        LOCFRAME ISTACK, 1, STACK
        LOCFRAME XSTACK, 19, STACK
        PUBLIC ZDO_ProcessMgmtLeaveReq
        FUNCTION ZDO_ProcessMgmtLeaveReq,021203H
        ARGFRAME XSTACK, 0, STACK
        LOCFRAME ISTACK, 1, STACK
        LOCFRAME XSTACK, 25, STACK
        PUBLIC ZDO_ProcessMgmtLqiReq
        FUNCTION ZDO_ProcessMgmtLqiReq,021203H
        ARGFRAME XSTACK, 0, STACK
        LOCFRAME ISTACK, 1, STACK
        LOCFRAME XSTACK, 64, STACK
        PUBLIC ZDO_ProcessMgmtNwkDiscReq
        FUNCTION ZDO_ProcessMgmtNwkDiscReq,021203H
        ARGFRAME XSTACK, 0, STACK
        LOCFRAME ISTACK, 1, STACK
        LOCFRAME XSTACK, 18, STACK
        PUBLIC ZDO_ProcessMgmtPermitJoinReq
        FUNCTION ZDO_ProcessMgmtPermitJoinReq,021203H
        ARGFRAME XSTACK, 0, STACK
        LOCFRAME ISTACK, 1, STACK
        LOCFRAME XSTACK, 18, STACK
        PUBLIC ZDO_ProcessMgmtRtgReq
        FUNCTION ZDO_ProcessMgmtRtgReq,021203H
        ARGFRAME XSTACK, 0, STACK
        LOCFRAME XSTACK, 26, STACK
        PUBLIC ZDO_ProcessNodeDescReq
        FUNCTION ZDO_ProcessNodeDescReq,021203H
        ARGFRAME XSTACK, 0, STACK
        LOCFRAME XSTACK, 18, STACK
        PUBLIC ZDO_ProcessPowerDescReq
        FUNCTION ZDO_ProcessPowerDescReq,021203H
        ARGFRAME XSTACK, 0, STACK
        LOCFRAME XSTACK, 18, STACK
        PUBLIC ZDO_ProcessServerDiscReq
        FUNCTION ZDO_ProcessServerDiscReq,021203H
        ARGFRAME XSTACK, 0, STACK
        LOCFRAME XSTACK, 16, STACK
        PUBLIC ZDO_ProcessSimpleDescReq
        FUNCTION ZDO_ProcessSimpleDescReq,021203H
        ARGFRAME XSTACK, 0, STACK
        LOCFRAME XSTACK, 15, STACK
        PUBLIC ZDO_ProcessUserDescReq
        FUNCTION ZDO_ProcessUserDescReq,021203H
        ARGFRAME XSTACK, 0, STACK
        LOCFRAME XSTACK, 33, STACK
        PUBLIC ZDO_ProcessUserDescSet
        FUNCTION ZDO_ProcessUserDescSet,021203H
        ARGFRAME XSTACK, 0, STACK
        LOCFRAME ISTACK, 1, STACK
        LOCFRAME XSTACK, 44, STACK
        FUNCTION ZDO_RemoveEndDeviceBind,021203H
        ARGFRAME XSTACK, 9, STACK
        ARGFRAME IOVERLAY, 0, STATIC
        ARGFRAME DOVERLAY, 0, STATIC
        LOCFRAME ISTACK, 2, STACK
        FUNCTION ZDO_RemoveMatchMemory,021203H
        ARGFRAME XSTACK, 39, STACK
        ARGFRAME IOVERLAY, 0, STATIC
        ARGFRAME DOVERLAY, 0, STATIC
        LOCFRAME ISTACK, 2, STACK
        FUNCTION ZDO_SendEDBindRsp,021203H
        ARGFRAME XSTACK, 9, STACK
        ARGFRAME IOVERLAY, 0, STATIC
        ARGFRAME DOVERLAY, 0, STATIC
        LOCFRAME ISTACK, 1, STACK
        LOCFRAME XSTACK, 18, STACK
        PUBLIC ZDO_StartDevice
        FUNCTION ZDO_StartDevice,021203H
        ARGFRAME XSTACK, 0, STACK
        LOCFRAME XSTACK, 22, STACK
        PUBLIC ZDO_UpdateAddrManager
        FUNCTION ZDO_UpdateAddrManager,021203H
        ARGFRAME XSTACK, 0, STACK
        LOCFRAME XSTACK, 23, STACK
        PUBLIC ZDO_UpdateNwkStatus
        FUNCTION ZDO_UpdateNwkStatus,021203H
        ARGFRAME XSTACK, 0, STACK
        LOCFRAME XSTACK, 12, STACK
        PUBWEAK __Constant_0
        PUBWEAK __Constant_7fff800
        PUBLIC apsChannelMask
        PUBLIC matchED
        FUNCTION zdoSendStateChangeMsg,021203H
        ARGFRAME XSTACK, 12, STACK
        ARGFRAME IOVERLAY, 0, STATIC
        ARGFRAME DOVERLAY, 0, STATIC
        LOCFRAME ISTACK, 1, STACK
        LOCFRAME XSTACK, 13, STACK
        
        CFI Names cfiNames0
        CFI StackFrame CFA_SP SP IDATA
        CFI StackFrame CFA_PSP16 PSP16 XDATA
        CFI StackFrame CFA_XSP16 XSP16 XDATA
        CFI StaticOverlayFrame CFA_IOVERLAY IOVERLAY
        CFI StaticOverlayFrame CFA_DOVERLAY DOVERLAY
        CFI Resource `PSW.CY`:1, `B.BR0`:1, `B.BR1`:1, `B.BR2`:1, `B.BR3`:1
        CFI Resource `B.BR4`:1, `B.BR5`:1, `B.BR6`:1, `B.BR7`:1, `VB.BR8`:1
        CFI Resource `VB.BR9`:1, `VB.BR10`:1, `VB.BR11`:1, `VB.BR12`:1
        CFI Resource `VB.BR13`:1, `VB.BR14`:1, `VB.BR15`:1, VB:8, B:8, A:8
        CFI Resource PSW:8, DPL0:8, DPH0:8, R0:8, R1:8, R2:8, R3:8, R4:8, R5:8
        CFI Resource R6:8, R7:8, V0:8, V1:8, V2:8, V3:8, V4:8, V5:8, V6:8, V7:8
        CFI Resource V8:8, V9:8, V10:8, V11:8, V12:8, V13:8, V14:8, V15:8, SP:8
        CFI Resource PSPH:8, PSPL:8, PSP16:16, XSPH:8, XSPL:8, XSP16:16
        CFI VirtualResource ?RET:24
        CFI Resource ?BRET_EXT:8
        CFI VirtualResource ?RET_HIGH:8, ?RET_LOW:8
        CFI ResourceParts PSP16 PSPH, PSPL
        CFI ResourceParts XSP16 XSPH, XSPL
        CFI ResourceParts ?RET ?BRET_EXT, ?RET_HIGH, ?RET_LOW
        CFI EndNames cfiNames0
        
        CFI Common cfiCommon0 Using cfiNames0
        CFI CodeAlign 1
        CFI DataAlign -1
        CFI ReturnAddress ?RET CODE
        CFI CFA_DOVERLAY Used
        CFI CFA_IOVERLAY Used
        CFI CFA_SP SP+-3
        CFI CFA_PSP16 PSP16+0
        CFI CFA_XSP16 XSP16+0
        CFI `PSW.CY` SameValue
        CFI `B.BR0` SameValue
        CFI `B.BR1` SameValue
        CFI `B.BR2` SameValue
        CFI `B.BR3` SameValue
        CFI `B.BR4` SameValue
        CFI `B.BR5` SameValue
        CFI `B.BR6` SameValue
        CFI `B.BR7` SameValue
        CFI `VB.BR8` SameValue
        CFI `VB.BR9` SameValue
        CFI `VB.BR10` SameValue
        CFI `VB.BR11` SameValue
        CFI `VB.BR12` SameValue
        CFI `VB.BR13` SameValue
        CFI `VB.BR14` SameValue
        CFI `VB.BR15` SameValue
        CFI VB SameValue
        CFI B Undefined
        CFI A Undefined
        CFI PSW SameValue
        CFI DPL0 SameValue
        CFI DPH0 SameValue
        CFI R0 Undefined
        CFI R1 Undefined
        CFI R2 Undefined
        CFI R3 Undefined
        CFI R4 Undefined
        CFI R5 Undefined
        CFI R6 SameValue
        CFI R7 SameValue
        CFI V0 SameValue
        CFI V1 SameValue
        CFI V2 SameValue
        CFI V3 SameValue
        CFI V4 SameValue
        CFI V5 SameValue
        CFI V6 SameValue
        CFI V7 SameValue
        CFI V8 SameValue
        CFI V9 SameValue
        CFI V10 SameValue
        CFI V11 SameValue
        CFI V12 SameValue
        CFI V13 SameValue
        CFI V14 SameValue
        CFI V15 SameValue
        CFI PSPH Undefined
        CFI PSPL Undefined
        CFI XSPH Undefined
        CFI XSPL Undefined
        CFI ?RET Concat
        CFI ?BRET_EXT Frame(CFA_SP, 3)
        CFI ?RET_HIGH Frame(CFA_SP, 2)
        CFI ?RET_LOW Frame(CFA_SP, 1)
        CFI EndCommon cfiCommon0
        
sAddrExtCpy         SYMBOL "sAddrExtCpy"
APS_ReflectorInit   SYMBOL "APS_ReflectorInit"
NLME_DeviceJoiningInit SYMBOL "NLME_DeviceJoiningInit"
NLME_NetworkDiscoveryRequest SYMBOL "NLME_NetworkDiscoveryRequest"
nwk_ScanJoiningOrphan SYMBOL "nwk_ScanJoiningOrphan"
NLME_OrphanJoinRequest SYMBOL "NLME_OrphanJoinRequest"
osal_start_timerEx  SYMBOL "osal_start_timerEx"
osal_msg_find       SYMBOL "osal_msg_find"
osal_msg_allocate   SYMBOL "osal_msg_allocate"
osal_set_event      SYMBOL "osal_set_event"
osal_msg_send       SYMBOL "osal_msg_send"
NLME_GetShortAddr   SYMBOL "NLME_GetShortAddr"
NLME_GetExtAddr     SYMBOL "NLME_GetExtAddr"
osal_mem_free       SYMBOL "osal_mem_free"
ZDP_SendData        SYMBOL "ZDP_SendData"
ZDP_NodeDescMsg     SYMBOL "ZDP_NodeDescMsg"
ZDP_GenericRsp      SYMBOL "ZDP_GenericRsp"
ZDP_PowerDescMsg    SYMBOL "ZDP_PowerDescMsg"
afFindSimpleDesc    SYMBOL "afFindSimpleDesc"
ZDP_SimpleDescMsg   SYMBOL "ZDP_SimpleDescMsg"
afNumEndPoints      SYMBOL "afNumEndPoints"
afEndPoints         SYMBOL "afEndPoints"
ZDP_EPRsp           SYMBOL "ZDP_EPRsp"
NLME_IsAddressBroadcast SYMBOL "NLME_IsAddressBroadcast"
osal_mem_alloc      SYMBOL "osal_mem_alloc"
osal_memcpy         SYMBOL "osal_memcpy"
sAddrExtCmp         SYMBOL "sAddrExtCmp"
APSME_BindRequest   SYMBOL "APSME_BindRequest"
ZDApp_NVUpdate      SYMBOL "ZDApp_NVUpdate"
APSME_LookupNwkAddr SYMBOL "APSME_LookupNwkAddr"
ZDP_NwkAddrReq      SYMBOL "ZDP_NwkAddrReq"
APSME_UnBindRequest SYMBOL "APSME_UnBindRequest"
AddrMgrExtAddrSet   SYMBOL "AddrMgrExtAddrSet"
AddrMgrEntryUpdate  SYMBOL "AddrMgrEntryUpdate"
ZDP_ServerDiscRsp   SYMBOL "ZDP_ServerDiscRsp"
NLME_GetRequest     SYMBOL "NLME_GetRequest"
AssocCount          SYMBOL "AssocCount"
AssocFindDevice     SYMBOL "AssocFindDevice"
AddrMgrEntryLookupNwk SYMBOL "AddrMgrEntryLookupNwk"
osal_memset         SYMBOL "osal_memset"
ZDP_MgmtLqiRsp      SYMBOL "ZDP_MgmtLqiRsp"
osal_build_uint32   SYMBOL "osal_build_uint32"
NLME_NwkDiscReq2    SYMBOL "NLME_NwkDiscReq2"
NLME_NwkDiscTerm    SYMBOL "NLME_NwkDiscTerm"
ZDP_MgmtRtgRsp      SYMBOL "ZDP_MgmtRtgRsp"
APSME_GetRequest    SYMBOL "APSME_GetRequest"
ZDP_MgmtBindRsp     SYMBOL "ZDP_MgmtBindRsp"
NLME_DirectJoinRequest SYMBOL "NLME_DirectJoinRequest"
AddrMgrExtAddrValid SYMBOL "AddrMgrExtAddrValid"
NLME_LeaveReq       SYMBOL "NLME_LeaveReq"
NLME_PermitJoiningRequest SYMBOL "NLME_PermitJoiningRequest"
osal_nv_read        SYMBOL "osal_nv_read"
ZDP_UserDescRsp     SYMBOL "ZDP_UserDescRsp"
osal_nv_write       SYMBOL "osal_nv_write"
nwkNeighborRemoveAllStranded SYMBOL "nwkNeighborRemoveAllStranded"
NLME_CheckNewAddrSet SYMBOL "NLME_CheckNewAddrSet"
NLME_GetCoordExtAddr SYMBOL "NLME_GetCoordExtAddr"
NLME_GetCoordShortAddr SYMBOL "NLME_GetCoordShortAddr"
ZMacSetReq          SYMBOL "ZMacSetReq"
nwkNeighborUpdateNwkAddr SYMBOL "nwkNeighborUpdateNwkAddr"
RTG_RemoveRtgEntry  SYMBOL "RTG_RemoveRtgEntry"
AddrMgrEntryLookupExt SYMBOL "AddrMgrEntryLookupExt"
APS_SetEndDeviceBindTimeout SYMBOL "APS_SetEndDeviceBindTimeout"
ZDP_BindUnbindReq   SYMBOL "ZDP_BindUnbindReq"
??APSME_BindRequest?relay SYMBOL "?relay", APSME_BindRequest
??APSME_GetRequest?relay SYMBOL "?relay", APSME_GetRequest
??APSME_LookupNwkAddr?relay SYMBOL "?relay", APSME_LookupNwkAddr
??APSME_UnBindRequest?relay SYMBOL "?relay", APSME_UnBindRequest
??APS_ReflectorInit?relay SYMBOL "?relay", APS_ReflectorInit
??APS_SetEndDeviceBindTimeout?relay SYMBOL "?relay", APS_SetEndDeviceBindTimeout
??AddrMgrEntryLookupExt?relay SYMBOL "?relay", AddrMgrEntryLookupExt
??AddrMgrEntryLookupNwk?relay SYMBOL "?relay", AddrMgrEntryLookupNwk
??AddrMgrEntryUpdate?relay SYMBOL "?relay", AddrMgrEntryUpdate
??AddrMgrExtAddrSet?relay SYMBOL "?relay", AddrMgrExtAddrSet
??AddrMgrExtAddrValid?relay SYMBOL "?relay", AddrMgrExtAddrValid
??AssocCount?relay  SYMBOL "?relay", AssocCount
??AssocFindDevice?relay SYMBOL "?relay", AssocFindDevice
??NLME_CheckNewAddrSet?relay SYMBOL "?relay", NLME_CheckNewAddrSet
??NLME_DeviceJoiningInit?relay SYMBOL "?relay", NLME_DeviceJoiningInit
??NLME_DirectJoinRequest?relay SYMBOL "?relay", NLME_DirectJoinRequest
??NLME_GetCoordExtAddr?relay SYMBOL "?relay", NLME_GetCoordExtAddr
??NLME_GetCoordShortAddr?relay SYMBOL "?relay", NLME_GetCoordShortAddr
??NLME_GetExtAddr?relay SYMBOL "?relay", NLME_GetExtAddr
??NLME_GetRequest?relay SYMBOL "?relay", NLME_GetRequest
??NLME_GetShortAddr?relay SYMBOL "?relay", NLME_GetShortAddr
??NLME_IsAddressBroadcast?relay SYMBOL "?relay", NLME_IsAddressBroadcast
??NLME_LeaveReq?relay SYMBOL "?relay", NLME_LeaveReq
??NLME_NetworkDiscoveryRequest?relay SYMBOL "?relay", NLME_NetworkDiscoveryRequest
??NLME_NwkDiscReq2?relay SYMBOL "?relay", NLME_NwkDiscReq2
??NLME_NwkDiscTerm?relay SYMBOL "?relay", NLME_NwkDiscTerm
??NLME_OrphanJoinRequest?relay SYMBOL "?relay", NLME_OrphanJoinRequest
??NLME_PermitJoiningRequest?relay SYMBOL "?relay", NLME_PermitJoiningRequest
??RTG_RemoveRtgEntry?relay SYMBOL "?relay", RTG_RemoveRtgEntry
??ZDApp_NVUpdate?relay SYMBOL "?relay", ZDApp_NVUpdate
??ZDP_BindUnbindReq?relay SYMBOL "?relay", ZDP_BindUnbindReq
??ZDP_EPRsp?relay   SYMBOL "?relay", ZDP_EPRsp
??ZDP_GenericRsp?relay SYMBOL "?relay", ZDP_GenericRsp
??ZDP_MgmtBindRsp?relay SYMBOL "?relay", ZDP_MgmtBindRsp
??ZDP_MgmtLqiRsp?relay SYMBOL "?relay", ZDP_MgmtLqiRsp
??ZDP_MgmtRtgRsp?relay SYMBOL "?relay", ZDP_MgmtRtgRsp
??ZDP_NodeDescMsg?relay SYMBOL "?relay", ZDP_NodeDescMsg
??ZDP_NwkAddrReq?relay SYMBOL "?relay", ZDP_NwkAddrReq
??ZDP_PowerDescMsg?relay SYMBOL "?relay", ZDP_PowerDescMsg
??ZDP_SendData?relay SYMBOL "?relay", ZDP_SendData
??ZDP_ServerDiscRsp?relay SYMBOL "?relay", ZDP_ServerDiscRsp
??ZDP_SimpleDescMsg?relay SYMBOL "?relay", ZDP_SimpleDescMsg
??ZDP_UserDescRsp?relay SYMBOL "?relay", ZDP_UserDescRsp
??ZMacSetReq?relay  SYMBOL "?relay", ZMacSetReq
??afEndPoints?relay SYMBOL "?relay", afEndPoints
??afFindSimpleDesc?relay SYMBOL "?relay", afFindSimpleDesc
??afNumEndPoints?relay SYMBOL "?relay", afNumEndPoints
??nwkNeighborRemoveAllStranded?relay SYMBOL "?relay", nwkNeighborRemoveAllStranded
??nwkNeighborUpdateNwkAddr?relay SYMBOL "?relay", nwkNeighborUpdateNwkAddr
??nwk_ScanJoiningOrphan?relay SYMBOL "?relay", nwk_ScanJoiningOrphan
??osal_build_uint32?relay SYMBOL "?relay", osal_build_uint32
??osal_mem_alloc?relay SYMBOL "?relay", osal_mem_alloc
??osal_mem_free?relay SYMBOL "?relay", osal_mem_free
??osal_memcpy?relay SYMBOL "?relay", osal_memcpy
??osal_memset?relay SYMBOL "?relay", osal_memset
??osal_msg_allocate?relay SYMBOL "?relay", osal_msg_allocate
??osal_msg_find?relay SYMBOL "?relay", osal_msg_find
??osal_msg_send?relay SYMBOL "?relay", osal_msg_send
??osal_nv_read?relay SYMBOL "?relay", osal_nv_read
??osal_nv_write?relay SYMBOL "?relay", osal_nv_write
??osal_set_event?relay SYMBOL "?relay", osal_set_event
??osal_start_timerEx?relay SYMBOL "?relay", osal_start_timerEx
??sAddrExtCmp?relay SYMBOL "?relay", sAddrExtCmp
??sAddrExtCpy?relay SYMBOL "?relay", sAddrExtCpy
NLME_PermitJoiningTimeout SYMBOL "NLME_PermitJoiningTimeout"
??NLME_PermitJoiningTimeout?relay SYMBOL "?relay", NLME_PermitJoiningTimeout
ZDMatchSendState    SYMBOL "ZDMatchSendState"
??ZDMatchSendState?relay SYMBOL "?relay", ZDMatchSendState
ZDO_AnyClusterMatches SYMBOL "ZDO_AnyClusterMatches"
??ZDO_AnyClusterMatches?relay SYMBOL "?relay", ZDO_AnyClusterMatches
ZDO_BuildSimpleDescBuf SYMBOL "ZDO_BuildSimpleDescBuf"
??ZDO_BuildSimpleDescBuf?relay SYMBOL "?relay", ZDO_BuildSimpleDescBuf
ZDO_ConvertOTAClusters SYMBOL "ZDO_ConvertOTAClusters"
??ZDO_ConvertOTAClusters?relay SYMBOL "?relay", ZDO_ConvertOTAClusters
ZDO_EndDeviceTimeoutCB SYMBOL "ZDO_EndDeviceTimeoutCB"
??ZDO_EndDeviceTimeoutCB?relay SYMBOL "?relay", ZDO_EndDeviceTimeoutCB
ZDO_Init            SYMBOL "ZDO_Init"
??ZDO_Init?relay    SYMBOL "?relay", ZDO_Init
ZDO_MatchEndDeviceBind SYMBOL "ZDO_MatchEndDeviceBind"
??ZDO_MatchEndDeviceBind?relay SYMBOL "?relay", ZDO_MatchEndDeviceBind
ZDO_ParseAddrRsp    SYMBOL "ZDO_ParseAddrRsp"
??ZDO_ParseAddrRsp?relay SYMBOL "?relay", ZDO_ParseAddrRsp
ZDO_ParseBindUnbindReq SYMBOL "ZDO_ParseBindUnbindReq"
??ZDO_ParseBindUnbindReq?relay SYMBOL "?relay", ZDO_ParseBindUnbindReq
ZDO_ParseDeviceAnnce SYMBOL "ZDO_ParseDeviceAnnce"
??ZDO_ParseDeviceAnnce?relay SYMBOL "?relay", ZDO_ParseDeviceAnnce
ZDO_ParseEPListRsp  SYMBOL "ZDO_ParseEPListRsp"
??ZDO_ParseEPListRsp?relay SYMBOL "?relay", ZDO_ParseEPListRsp
ZDO_ParseEndDeviceBindReq SYMBOL "ZDO_ParseEndDeviceBindReq"
??ZDO_ParseEndDeviceBindReq?relay SYMBOL "?relay", ZDO_ParseEndDeviceBindReq
ZDO_ParseMgmNwkDiscRsp SYMBOL "ZDO_ParseMgmNwkDiscRsp"
??ZDO_ParseMgmNwkDiscRsp?relay SYMBOL "?relay", ZDO_ParseMgmNwkDiscRsp
ZDO_ParseMgmtBindRsp SYMBOL "ZDO_ParseMgmtBindRsp"
??ZDO_ParseMgmtBindRsp?relay SYMBOL "?relay", ZDO_ParseMgmtBindRsp
ZDO_ParseMgmtLqiRsp SYMBOL "ZDO_ParseMgmtLqiRsp"
??ZDO_ParseMgmtLqiRsp?relay SYMBOL "?relay", ZDO_ParseMgmtLqiRsp
ZDO_ParseMgmtNwkUpdateNotify SYMBOL "ZDO_ParseMgmtNwkUpdateNotify"
??ZDO_ParseMgmtNwkUpdateNotify?relay SYMBOL "?relay", ZDO_ParseMgmtNwkUpdateNotify
ZDO_ParseMgmtNwkUpdateReq SYMBOL "ZDO_ParseMgmtNwkUpdateReq"
??ZDO_ParseMgmtNwkUpdateReq?relay SYMBOL "?relay", ZDO_ParseMgmtNwkUpdateReq
ZDO_ParseMgmtRtgRsp SYMBOL "ZDO_ParseMgmtRtgRsp"
??ZDO_ParseMgmtRtgRsp?relay SYMBOL "?relay", ZDO_ParseMgmtRtgRsp
ZDO_ParseNodeDescRsp SYMBOL "ZDO_ParseNodeDescRsp"
??ZDO_ParseNodeDescRsp?relay SYMBOL "?relay", ZDO_ParseNodeDescRsp
ZDO_ParsePowerDescRsp SYMBOL "ZDO_ParsePowerDescRsp"
??ZDO_ParsePowerDescRsp?relay SYMBOL "?relay", ZDO_ParsePowerDescRsp
ZDO_ParseServerDiscRsp SYMBOL "ZDO_ParseServerDiscRsp"
??ZDO_ParseServerDiscRsp?relay SYMBOL "?relay", ZDO_ParseServerDiscRsp
ZDO_ParseSimpleDescBuf SYMBOL "ZDO_ParseSimpleDescBuf"
??ZDO_ParseSimpleDescBuf?relay SYMBOL "?relay", ZDO_ParseSimpleDescBuf
ZDO_ParseSimpleDescRsp SYMBOL "ZDO_ParseSimpleDescRsp"
??ZDO_ParseSimpleDescRsp?relay SYMBOL "?relay", ZDO_ParseSimpleDescRsp
ZDO_ParseUserDescRsp SYMBOL "ZDO_ParseUserDescRsp"
??ZDO_ParseUserDescRsp?relay SYMBOL "?relay", ZDO_ParseUserDescRsp
ZDO_ProcessActiveEPReq SYMBOL "ZDO_ProcessActiveEPReq"
??ZDO_ProcessActiveEPReq?relay SYMBOL "?relay", ZDO_ProcessActiveEPReq
ZDO_ProcessBindUnbindReq SYMBOL "ZDO_ProcessBindUnbindReq"
??ZDO_ProcessBindUnbindReq?relay SYMBOL "?relay", ZDO_ProcessBindUnbindReq
ZDO_ProcessDeviceAnnce SYMBOL "ZDO_ProcessDeviceAnnce"
??ZDO_ProcessDeviceAnnce?relay SYMBOL "?relay", ZDO_ProcessDeviceAnnce
ZDO_ProcessMatchDescReq SYMBOL "ZDO_ProcessMatchDescReq"
??ZDO_ProcessMatchDescReq?relay SYMBOL "?relay", ZDO_ProcessMatchDescReq
ZDO_ProcessMgmtBindReq SYMBOL "ZDO_ProcessMgmtBindReq"
??ZDO_ProcessMgmtBindReq?relay SYMBOL "?relay", ZDO_ProcessMgmtBindReq
ZDO_ProcessMgmtDirectJoinReq SYMBOL "ZDO_ProcessMgmtDirectJoinReq"
??ZDO_ProcessMgmtDirectJoinReq?relay SYMBOL "?relay", ZDO_ProcessMgmtDirectJoinReq
ZDO_ProcessMgmtLeaveReq SYMBOL "ZDO_ProcessMgmtLeaveReq"
??ZDO_ProcessMgmtLeaveReq?relay SYMBOL "?relay", ZDO_ProcessMgmtLeaveReq
ZDO_ProcessMgmtLqiReq SYMBOL "ZDO_ProcessMgmtLqiReq"
??ZDO_ProcessMgmtLqiReq?relay SYMBOL "?relay", ZDO_ProcessMgmtLqiReq
ZDO_ProcessMgmtNwkDiscReq SYMBOL "ZDO_ProcessMgmtNwkDiscReq"
??ZDO_ProcessMgmtNwkDiscReq?relay SYMBOL "?relay", ZDO_ProcessMgmtNwkDiscReq
ZDO_ProcessMgmtPermitJoinReq SYMBOL "ZDO_ProcessMgmtPermitJoinReq"
??ZDO_ProcessMgmtPermitJoinReq?relay SYMBOL "?relay", ZDO_ProcessMgmtPermitJoinReq
ZDO_ProcessMgmtRtgReq SYMBOL "ZDO_ProcessMgmtRtgReq"
??ZDO_ProcessMgmtRtgReq?relay SYMBOL "?relay", ZDO_ProcessMgmtRtgReq
ZDO_ProcessNodeDescReq SYMBOL "ZDO_ProcessNodeDescReq"
??ZDO_ProcessNodeDescReq?relay SYMBOL "?relay", ZDO_ProcessNodeDescReq
ZDO_ProcessPowerDescReq SYMBOL "ZDO_ProcessPowerDescReq"
??ZDO_ProcessPowerDescReq?relay SYMBOL "?relay", ZDO_ProcessPowerDescReq
ZDO_ProcessServerDiscReq SYMBOL "ZDO_ProcessServerDiscReq"
??ZDO_ProcessServerDiscReq?relay SYMBOL "?relay", ZDO_ProcessServerDiscReq
ZDO_ProcessSimpleDescReq SYMBOL "ZDO_ProcessSimpleDescReq"
??ZDO_ProcessSimpleDescReq?relay SYMBOL "?relay", ZDO_ProcessSimpleDescReq
ZDO_ProcessUserDescReq SYMBOL "ZDO_ProcessUserDescReq"
??ZDO_ProcessUserDescReq?relay SYMBOL "?relay", ZDO_ProcessUserDescReq
ZDO_ProcessUserDescSet SYMBOL "ZDO_ProcessUserDescSet"
??ZDO_ProcessUserDescSet?relay SYMBOL "?relay", ZDO_ProcessUserDescSet
ZDO_StartDevice     SYMBOL "ZDO_StartDevice"
??ZDO_StartDevice?relay SYMBOL "?relay", ZDO_StartDevice
ZDO_UpdateAddrManager SYMBOL "ZDO_UpdateAddrManager"
??ZDO_UpdateAddrManager?relay SYMBOL "?relay", ZDO_UpdateAddrManager
ZDO_UpdateNwkStatus SYMBOL "ZDO_UpdateNwkStatus"
??ZDO_UpdateNwkStatus?relay SYMBOL "?relay", ZDO_UpdateNwkStatus

        EXTERN sAddrExtCpy
        FUNCTION sAddrExtCpy,0202H
        ARGFRAME ISTACK, 2, STACK
        ARGFRAME PSTACK, 0, STACK
        ARGFRAME XSTACK, 59, STACK
        ARGFRAME IOVERLAY, 0, STATIC
        ARGFRAME DOVERLAY, 0, STATIC
        EXTERN APS_ReflectorInit
        FUNCTION APS_ReflectorInit,0202H
        ARGFRAME ISTACK, 2, STACK
        ARGFRAME PSTACK, 0, STACK
        ARGFRAME XSTACK, 0, STACK
        ARGFRAME IOVERLAY, 0, STATIC
        ARGFRAME DOVERLAY, 0, STATIC
        EXTERN NLME_DeviceJoiningInit
        FUNCTION NLME_DeviceJoiningInit,0202H
        ARGFRAME ISTACK, 2, STACK
        ARGFRAME PSTACK, 0, STACK
        ARGFRAME XSTACK, 0, STACK
        ARGFRAME IOVERLAY, 0, STATIC
        ARGFRAME DOVERLAY, 0, STATIC
        EXTERN NLME_NetworkDiscoveryRequest
        FUNCTION NLME_NetworkDiscoveryRequest,0202H
        ARGFRAME ISTACK, 0, STACK
        ARGFRAME PSTACK, 0, STACK
        ARGFRAME XSTACK, 22, STACK
        ARGFRAME IOVERLAY, 0, STATIC
        ARGFRAME DOVERLAY, 0, STATIC
        EXTERN nwk_ScanJoiningOrphan
        FUNCTION nwk_ScanJoiningOrphan,0202H
        ARGFRAME ISTACK, 0, STACK
        ARGFRAME PSTACK, 0, STACK
        ARGFRAME XSTACK, 22, STACK
        ARGFRAME IOVERLAY, 0, STATIC
        ARGFRAME DOVERLAY, 0, STATIC
        EXTERN NLME_OrphanJoinRequest
        FUNCTION NLME_OrphanJoinRequest,0202H
        ARGFRAME ISTACK, 0, STACK
        ARGFRAME PSTACK, 0, STACK
        ARGFRAME XSTACK, 22, STACK
        ARGFRAME IOVERLAY, 0, STATIC
        ARGFRAME DOVERLAY, 0, STATIC
        EXTERN osal_start_timerEx
        FUNCTION osal_start_timerEx,0202H
        ARGFRAME ISTACK, 0, STACK
        ARGFRAME PSTACK, 0, STACK
        ARGFRAME XSTACK, 22, STACK
        ARGFRAME IOVERLAY, 0, STATIC
        ARGFRAME DOVERLAY, 0, STATIC
        EXTERN osal_msg_find
        FUNCTION osal_msg_find,0202H
        ARGFRAME ISTACK, 0, STACK
        ARGFRAME PSTACK, 0, STACK
        ARGFRAME XSTACK, 13, STACK
        ARGFRAME IOVERLAY, 0, STATIC
        ARGFRAME DOVERLAY, 0, STATIC
        EXTERN osal_msg_allocate
        FUNCTION osal_msg_allocate,0202H
        ARGFRAME ISTACK, 0, STACK
        ARGFRAME PSTACK, 0, STACK
        ARGFRAME XSTACK, 34, STACK
        ARGFRAME IOVERLAY, 0, STATIC
        ARGFRAME DOVERLAY, 0, STATIC
        EXTERN osal_set_event
        FUNCTION osal_set_event,0202H
        ARGFRAME ISTACK, 0, STACK
        ARGFRAME PSTACK, 0, STACK
        ARGFRAME XSTACK, 13, STACK
        ARGFRAME IOVERLAY, 0, STATIC
        ARGFRAME DOVERLAY, 0, STATIC
        EXTERN osal_msg_send
        FUNCTION osal_msg_send,0202H
        ARGFRAME ISTACK, 0, STACK
        ARGFRAME PSTACK, 0, STACK
        ARGFRAME XSTACK, 34, STACK
        ARGFRAME IOVERLAY, 0, STATIC
        ARGFRAME DOVERLAY, 0, STATIC
        EXTERN NLME_GetShortAddr
        FUNCTION NLME_GetShortAddr,0202H
        ARGFRAME ISTACK, 0, STACK
        ARGFRAME PSTACK, 0, STACK
        ARGFRAME XSTACK, 44, STACK
        ARGFRAME IOVERLAY, 0, STATIC
        ARGFRAME DOVERLAY, 0, STATIC
        EXTERN NLME_GetExtAddr
        FUNCTION NLME_GetExtAddr,0202H
        ARGFRAME ISTACK, 0, STACK
        ARGFRAME PSTACK, 0, STACK
        ARGFRAME XSTACK, 44, STACK
        ARGFRAME IOVERLAY, 0, STATIC
        ARGFRAME DOVERLAY, 0, STATIC
        EXTERN osal_mem_free
        FUNCTION osal_mem_free,0202H
        ARGFRAME ISTACK, 2, STACK
        ARGFRAME PSTACK, 0, STACK
        ARGFRAME XSTACK, 59, STACK
        ARGFRAME IOVERLAY, 0, STATIC
        ARGFRAME DOVERLAY, 0, STATIC
        EXTERN ZDP_SendData
        FUNCTION ZDP_SendData,0202H
        ARGFRAME ISTACK, 0, STACK
        ARGFRAME PSTACK, 0, STACK
        ARGFRAME XSTACK, 44, STACK
        ARGFRAME IOVERLAY, 0, STATIC
        ARGFRAME DOVERLAY, 0, STATIC
        EXTERN ZDP_NodeDescMsg
        FUNCTION ZDP_NodeDescMsg,0202H
        ARGFRAME ISTACK, 0, STACK
        ARGFRAME PSTACK, 0, STACK
        ARGFRAME XSTACK, 16, STACK
        ARGFRAME IOVERLAY, 0, STATIC
        ARGFRAME DOVERLAY, 0, STATIC
        EXTERN ZDP_GenericRsp
        FUNCTION ZDP_GenericRsp,0202H
        ARGFRAME ISTACK, 0, STACK
        ARGFRAME PSTACK, 0, STACK
        ARGFRAME XSTACK, 33, STACK
        ARGFRAME IOVERLAY, 0, STATIC
        ARGFRAME DOVERLAY, 0, STATIC
        EXTERN ZDP_PowerDescMsg
        FUNCTION ZDP_PowerDescMsg,0202H
        ARGFRAME ISTACK, 0, STACK
        ARGFRAME PSTACK, 0, STACK
        ARGFRAME XSTACK, 16, STACK
        ARGFRAME IOVERLAY, 0, STATIC
        ARGFRAME DOVERLAY, 0, STATIC
        EXTERN afFindSimpleDesc
        FUNCTION afFindSimpleDesc,0202H
        ARGFRAME ISTACK, 0, STACK
        ARGFRAME PSTACK, 0, STACK
        ARGFRAME XSTACK, 15, STACK
        ARGFRAME IOVERLAY, 0, STATIC
        ARGFRAME DOVERLAY, 0, STATIC
        EXTERN ZDP_SimpleDescMsg
        FUNCTION ZDP_SimpleDescMsg,0202H
        ARGFRAME ISTACK, 0, STACK
        ARGFRAME PSTACK, 0, STACK
        ARGFRAME XSTACK, 15, STACK
        ARGFRAME IOVERLAY, 0, STATIC
        ARGFRAME DOVERLAY, 0, STATIC
        EXTERN afNumEndPoints
        FUNCTION afNumEndPoints,0202H
        ARGFRAME ISTACK, 0, STACK
        ARGFRAME PSTACK, 0, STACK
        ARGFRAME XSTACK, 14, STACK
        ARGFRAME IOVERLAY, 0, STATIC
        ARGFRAME DOVERLAY, 0, STATIC
        EXTERN afEndPoints
        FUNCTION afEndPoints,0202H
        ARGFRAME ISTACK, 0, STACK
        ARGFRAME PSTACK, 0, STACK
        ARGFRAME XSTACK, 14, STACK
        ARGFRAME IOVERLAY, 0, STATIC
        ARGFRAME DOVERLAY, 0, STATIC
        EXTERN ZDP_EPRsp
        FUNCTION ZDP_EPRsp,0202H
        ARGFRAME ISTACK, 0, STACK
        ARGFRAME PSTACK, 0, STACK
        ARGFRAME XSTACK, 41, STACK
        ARGFRAME IOVERLAY, 0, STATIC
        ARGFRAME DOVERLAY, 0, STATIC
        EXTERN NLME_IsAddressBroadcast
        FUNCTION NLME_IsAddressBroadcast,0202H
        ARGFRAME ISTACK, 0, STACK
        ARGFRAME PSTACK, 0, STACK
        ARGFRAME XSTACK, 34, STACK
        ARGFRAME IOVERLAY, 0, STATIC
        ARGFRAME DOVERLAY, 0, STATIC
        EXTERN osal_mem_alloc
        FUNCTION osal_mem_alloc,0202H
        ARGFRAME ISTACK, 0, STACK
        ARGFRAME PSTACK, 0, STACK
        ARGFRAME XSTACK, 59, STACK
        ARGFRAME IOVERLAY, 0, STATIC
        ARGFRAME DOVERLAY, 0, STATIC
        EXTERN osal_memcpy
        FUNCTION osal_memcpy,0202H
        ARGFRAME ISTACK, 0, STACK
        ARGFRAME PSTACK, 0, STACK
        ARGFRAME XSTACK, 42, STACK
        ARGFRAME IOVERLAY, 0, STATIC
        ARGFRAME DOVERLAY, 0, STATIC
        EXTERN sAddrExtCmp
        FUNCTION sAddrExtCmp,0202H
        ARGFRAME ISTACK, 0, STACK
        ARGFRAME PSTACK, 0, STACK
        ARGFRAME XSTACK, 44, STACK
        ARGFRAME IOVERLAY, 0, STATIC
        ARGFRAME DOVERLAY, 0, STATIC
        EXTERN APSME_BindRequest
        FUNCTION APSME_BindRequest,0202H
        ARGFRAME ISTACK, 0, STACK
        ARGFRAME PSTACK, 0, STACK
        ARGFRAME XSTACK, 25, STACK
        ARGFRAME IOVERLAY, 0, STATIC
        ARGFRAME DOVERLAY, 0, STATIC
        EXTERN ZDApp_NVUpdate
        FUNCTION ZDApp_NVUpdate,0202H
        ARGFRAME ISTACK, 0, STACK
        ARGFRAME PSTACK, 0, STACK
        ARGFRAME XSTACK, 24, STACK
        ARGFRAME IOVERLAY, 0, STATIC
        ARGFRAME DOVERLAY, 0, STATIC
        EXTERN APSME_LookupNwkAddr
        FUNCTION APSME_LookupNwkAddr,0202H
        ARGFRAME ISTACK, 0, STACK
        ARGFRAME PSTACK, 0, STACK
        ARGFRAME XSTACK, 24, STACK
        ARGFRAME IOVERLAY, 0, STATIC
        ARGFRAME DOVERLAY, 0, STATIC
        EXTERN ZDP_NwkAddrReq
        FUNCTION ZDP_NwkAddrReq,0202H
        ARGFRAME ISTACK, 0, STACK
        ARGFRAME PSTACK, 0, STACK
        ARGFRAME XSTACK, 24, STACK
        ARGFRAME IOVERLAY, 0, STATIC
        ARGFRAME DOVERLAY, 0, STATIC
        EXTERN APSME_UnBindRequest
        FUNCTION APSME_UnBindRequest,0202H
        ARGFRAME ISTACK, 0, STACK
        ARGFRAME PSTACK, 0, STACK
        ARGFRAME XSTACK, 25, STACK
        ARGFRAME IOVERLAY, 0, STATIC
        ARGFRAME DOVERLAY, 0, STATIC
        EXTERN AddrMgrExtAddrSet
        FUNCTION AddrMgrExtAddrSet,0202H
        ARGFRAME ISTACK, 0, STACK
        ARGFRAME PSTACK, 0, STACK
        ARGFRAME XSTACK, 44, STACK
        ARGFRAME IOVERLAY, 0, STATIC
        ARGFRAME DOVERLAY, 0, STATIC
        EXTERN AddrMgrEntryUpdate
        FUNCTION AddrMgrEntryUpdate,0202H
        ARGFRAME ISTACK, 0, STACK
        ARGFRAME PSTACK, 0, STACK
        ARGFRAME XSTACK, 44, STACK
        ARGFRAME IOVERLAY, 0, STATIC
        ARGFRAME DOVERLAY, 0, STATIC
        EXTERN ZDP_ServerDiscRsp
        FUNCTION ZDP_ServerDiscRsp,0202H
        ARGFRAME ISTACK, 0, STACK
        ARGFRAME PSTACK, 0, STACK
        ARGFRAME XSTACK, 16, STACK
        ARGFRAME IOVERLAY, 0, STATIC
        ARGFRAME DOVERLAY, 0, STATIC
        EXTERN NLME_GetRequest
        FUNCTION NLME_GetRequest,0202H
        ARGFRAME ISTACK, 0, STACK
        ARGFRAME PSTACK, 0, STACK
        ARGFRAME XSTACK, 59, STACK
        ARGFRAME IOVERLAY, 0, STATIC
        ARGFRAME DOVERLAY, 0, STATIC
        EXTERN AssocCount
        FUNCTION AssocCount,0202H
        ARGFRAME ISTACK, 0, STACK
        ARGFRAME PSTACK, 0, STACK
        ARGFRAME XSTACK, 59, STACK
        ARGFRAME IOVERLAY, 0, STATIC
        ARGFRAME DOVERLAY, 0, STATIC
        EXTERN AssocFindDevice
        FUNCTION AssocFindDevice,0202H
        ARGFRAME ISTACK, 0, STACK
        ARGFRAME PSTACK, 0, STACK
        ARGFRAME XSTACK, 59, STACK
        ARGFRAME IOVERLAY, 0, STATIC
        ARGFRAME DOVERLAY, 0, STATIC
        EXTERN AddrMgrEntryLookupNwk
        FUNCTION AddrMgrEntryLookupNwk,0202H
        ARGFRAME ISTACK, 0, STACK
        ARGFRAME PSTACK, 0, STACK
        ARGFRAME XSTACK, 59, STACK
        ARGFRAME IOVERLAY, 0, STATIC
        ARGFRAME DOVERLAY, 0, STATIC
        EXTERN osal_memset
        FUNCTION osal_memset,0202H
        ARGFRAME ISTACK, 0, STACK
        ARGFRAME PSTACK, 0, STACK
        ARGFRAME XSTACK, 59, STACK
        ARGFRAME IOVERLAY, 0, STATIC
        ARGFRAME DOVERLAY, 0, STATIC
        EXTERN ZDP_MgmtLqiRsp
        FUNCTION ZDP_MgmtLqiRsp,0202H
        ARGFRAME ISTACK, 0, STACK
        ARGFRAME PSTACK, 0, STACK
        ARGFRAME XSTACK, 64, STACK
        ARGFRAME IOVERLAY, 0, STATIC
        ARGFRAME DOVERLAY, 0, STATIC
        EXTERN osal_build_uint32
        FUNCTION osal_build_uint32,0202H
        ARGFRAME ISTACK, 0, STACK
        ARGFRAME PSTACK, 0, STACK
        ARGFRAME XSTACK, 26, STACK
        ARGFRAME IOVERLAY, 0, STATIC
        ARGFRAME DOVERLAY, 0, STATIC
        EXTERN NLME_NwkDiscReq2
        FUNCTION NLME_NwkDiscReq2,0202H
        ARGFRAME ISTACK, 0, STACK
        ARGFRAME PSTACK, 0, STACK
        ARGFRAME XSTACK, 18, STACK
        ARGFRAME IOVERLAY, 0, STATIC
        ARGFRAME DOVERLAY, 0, STATIC
        EXTERN NLME_NwkDiscTerm
        FUNCTION NLME_NwkDiscTerm,0202H
        ARGFRAME ISTACK, 0, STACK
        ARGFRAME PSTACK, 0, STACK
        ARGFRAME XSTACK, 18, STACK
        ARGFRAME IOVERLAY, 0, STATIC
        ARGFRAME DOVERLAY, 0, STATIC
        EXTERN ZDP_MgmtRtgRsp
        FUNCTION ZDP_MgmtRtgRsp,0202H
        ARGFRAME ISTACK, 0, STACK
        ARGFRAME PSTACK, 0, STACK
        ARGFRAME XSTACK, 26, STACK
        ARGFRAME IOVERLAY, 0, STATIC
        ARGFRAME DOVERLAY, 0, STATIC
        EXTERN APSME_GetRequest
        FUNCTION APSME_GetRequest,0202H
        ARGFRAME ISTACK, 0, STACK
        ARGFRAME PSTACK, 0, STACK
        ARGFRAME XSTACK, 24, STACK
        ARGFRAME IOVERLAY, 0, STATIC
        ARGFRAME DOVERLAY, 0, STATIC
        EXTERN ZDP_MgmtBindRsp
        FUNCTION ZDP_MgmtBindRsp,0202H
        ARGFRAME ISTACK, 0, STACK
        ARGFRAME PSTACK, 0, STACK
        ARGFRAME XSTACK, 29, STACK
        ARGFRAME IOVERLAY, 0, STATIC
        ARGFRAME DOVERLAY, 0, STATIC
        EXTERN NLME_DirectJoinRequest
        FUNCTION NLME_DirectJoinRequest,0202H
        ARGFRAME ISTACK, 0, STACK
        ARGFRAME PSTACK, 0, STACK
        ARGFRAME XSTACK, 14, STACK
        ARGFRAME IOVERLAY, 0, STATIC
        ARGFRAME DOVERLAY, 0, STATIC
        EXTERN AddrMgrExtAddrValid
        FUNCTION AddrMgrExtAddrValid,0202H
        ARGFRAME ISTACK, 0, STACK
        ARGFRAME PSTACK, 0, STACK
        ARGFRAME XSTACK, 20, STACK
        ARGFRAME IOVERLAY, 0, STATIC
        ARGFRAME DOVERLAY, 0, STATIC
        EXTERN NLME_LeaveReq
        FUNCTION NLME_LeaveReq,0202H
        ARGFRAME ISTACK, 0, STACK
        ARGFRAME PSTACK, 0, STACK
        ARGFRAME XSTACK, 20, STACK
        ARGFRAME IOVERLAY, 0, STATIC
        ARGFRAME DOVERLAY, 0, STATIC
        EXTERN NLME_PermitJoiningRequest
        FUNCTION NLME_PermitJoiningRequest,0202H
        ARGFRAME ISTACK, 0, STACK
        ARGFRAME PSTACK, 0, STACK
        ARGFRAME XSTACK, 13, STACK
        ARGFRAME IOVERLAY, 0, STATIC
        ARGFRAME DOVERLAY, 0, STATIC
        EXTERN osal_nv_read
        FUNCTION osal_nv_read,0202H
        ARGFRAME ISTACK, 0, STACK
        ARGFRAME PSTACK, 0, STACK
        ARGFRAME XSTACK, 33, STACK
        ARGFRAME IOVERLAY, 0, STATIC
        ARGFRAME DOVERLAY, 0, STATIC
        EXTERN ZDP_UserDescRsp
        FUNCTION ZDP_UserDescRsp,0202H
        ARGFRAME ISTACK, 0, STACK
        ARGFRAME PSTACK, 0, STACK
        ARGFRAME XSTACK, 32, STACK
        ARGFRAME IOVERLAY, 0, STATIC
        ARGFRAME DOVERLAY, 0, STATIC
        EXTERN osal_nv_write
        FUNCTION osal_nv_write,0202H
        ARGFRAME ISTACK, 0, STACK
        ARGFRAME PSTACK, 0, STACK
        ARGFRAME XSTACK, 43, STACK
        ARGFRAME IOVERLAY, 0, STATIC
        ARGFRAME DOVERLAY, 0, STATIC
        EXTERN nwkNeighborRemoveAllStranded
        FUNCTION nwkNeighborRemoveAllStranded,0202H
        ARGFRAME ISTACK, 0, STACK
        ARGFRAME PSTACK, 0, STACK
        ARGFRAME XSTACK, 44, STACK
        ARGFRAME IOVERLAY, 0, STATIC
        ARGFRAME DOVERLAY, 0, STATIC
        EXTERN NLME_CheckNewAddrSet
        FUNCTION NLME_CheckNewAddrSet,0202H
        ARGFRAME ISTACK, 0, STACK
        ARGFRAME PSTACK, 0, STACK
        ARGFRAME XSTACK, 44, STACK
        ARGFRAME IOVERLAY, 0, STATIC
        ARGFRAME DOVERLAY, 0, STATIC
        EXTERN NLME_GetCoordExtAddr
        FUNCTION NLME_GetCoordExtAddr,0202H
        ARGFRAME ISTACK, 0, STACK
        ARGFRAME PSTACK, 0, STACK
        ARGFRAME XSTACK, 44, STACK
        ARGFRAME IOVERLAY, 0, STATIC
        ARGFRAME DOVERLAY, 0, STATIC
        EXTERN NLME_GetCoordShortAddr
        FUNCTION NLME_GetCoordShortAddr,0202H
        ARGFRAME ISTACK, 0, STACK
        ARGFRAME PSTACK, 0, STACK
        ARGFRAME XSTACK, 44, STACK
        ARGFRAME IOVERLAY, 0, STATIC
        ARGFRAME DOVERLAY, 0, STATIC
        EXTERN ZMacSetReq
        FUNCTION ZMacSetReq,0202H
        ARGFRAME ISTACK, 0, STACK
        ARGFRAME PSTACK, 0, STACK
        ARGFRAME XSTACK, 44, STACK
        ARGFRAME IOVERLAY, 0, STATIC
        ARGFRAME DOVERLAY, 0, STATIC
        EXTERN nwkNeighborUpdateNwkAddr
        FUNCTION nwkNeighborUpdateNwkAddr,0202H
        ARGFRAME ISTACK, 0, STACK
        ARGFRAME PSTACK, 0, STACK
        ARGFRAME XSTACK, 44, STACK
        ARGFRAME IOVERLAY, 0, STATIC
        ARGFRAME DOVERLAY, 0, STATIC
        EXTERN RTG_RemoveRtgEntry
        FUNCTION RTG_RemoveRtgEntry,0202H
        ARGFRAME ISTACK, 0, STACK
        ARGFRAME PSTACK, 0, STACK
        ARGFRAME XSTACK, 44, STACK
        ARGFRAME IOVERLAY, 0, STATIC
        ARGFRAME DOVERLAY, 0, STATIC
        EXTERN AddrMgrEntryLookupExt
        FUNCTION AddrMgrEntryLookupExt,0202H
        ARGFRAME ISTACK, 0, STACK
        ARGFRAME PSTACK, 0, STACK
        ARGFRAME XSTACK, 44, STACK
        ARGFRAME IOVERLAY, 0, STATIC
        ARGFRAME DOVERLAY, 0, STATIC
        EXTERN APS_SetEndDeviceBindTimeout
        FUNCTION APS_SetEndDeviceBindTimeout,0202H
        ARGFRAME ISTACK, 0, STACK
        ARGFRAME PSTACK, 0, STACK
        ARGFRAME XSTACK, 39, STACK
        ARGFRAME IOVERLAY, 0, STATIC
        ARGFRAME DOVERLAY, 0, STATIC
        EXTERN ZDP_BindUnbindReq
        FUNCTION ZDP_BindUnbindReq,0202H
        ARGFRAME ISTACK, 0, STACK
        ARGFRAME PSTACK, 0, STACK
        ARGFRAME XSTACK, 47, STACK
        ARGFRAME IOVERLAY, 0, STATIC
        ARGFRAME DOVERLAY, 0, STATIC
        EXTERN ??APSME_BindRequest?relay
        FUNCTION ??APSME_BindRequest?relay,00H
        EXTERN ??APSME_GetRequest?relay
        FUNCTION ??APSME_GetRequest?relay,00H
        EXTERN ??APSME_LookupNwkAddr?relay
        FUNCTION ??APSME_LookupNwkAddr?relay,00H
        EXTERN ??APSME_UnBindRequest?relay
        FUNCTION ??APSME_UnBindRequest?relay,00H
        EXTERN ??APS_ReflectorInit?relay
        FUNCTION ??APS_ReflectorInit?relay,00H
        EXTERN ??APS_SetEndDeviceBindTimeout?relay
        FUNCTION ??APS_SetEndDeviceBindTimeout?relay,00H
        EXTERN ??AddrMgrEntryLookupExt?relay
        FUNCTION ??AddrMgrEntryLookupExt?relay,00H
        EXTERN ??AddrMgrEntryLookupNwk?relay
        FUNCTION ??AddrMgrEntryLookupNwk?relay,00H
        EXTERN ??AddrMgrEntryUpdate?relay
        FUNCTION ??AddrMgrEntryUpdate?relay,00H
        EXTERN ??AddrMgrExtAddrSet?relay
        FUNCTION ??AddrMgrExtAddrSet?relay,00H
        EXTERN ??AddrMgrExtAddrValid?relay
        FUNCTION ??AddrMgrExtAddrValid?relay,00H
        EXTERN ??AssocCount?relay
        FUNCTION ??AssocCount?relay,00H
        EXTERN ??AssocFindDevice?relay
        FUNCTION ??AssocFindDevice?relay,00H
        EXTERN ??NLME_CheckNewAddrSet?relay
        FUNCTION ??NLME_CheckNewAddrSet?relay,00H
        EXTERN ??NLME_DeviceJoiningInit?relay
        FUNCTION ??NLME_DeviceJoiningInit?relay,00H
        EXTERN ??NLME_DirectJoinRequest?relay
        FUNCTION ??NLME_DirectJoinRequest?relay,00H
        EXTERN ??NLME_GetCoordExtAddr?relay
        FUNCTION ??NLME_GetCoordExtAddr?relay,00H
        EXTERN ??NLME_GetCoordShortAddr?relay
        FUNCTION ??NLME_GetCoordShortAddr?relay,00H
        EXTERN ??NLME_GetExtAddr?relay
        FUNCTION ??NLME_GetExtAddr?relay,00H
        EXTERN ??NLME_GetRequest?relay
        FUNCTION ??NLME_GetRequest?relay,00H
        EXTERN ??NLME_GetShortAddr?relay
        FUNCTION ??NLME_GetShortAddr?relay,00H
        EXTERN ??NLME_IsAddressBroadcast?relay
        FUNCTION ??NLME_IsAddressBroadcast?relay,00H
        EXTERN ??NLME_LeaveReq?relay
        FUNCTION ??NLME_LeaveReq?relay,00H
        EXTERN ??NLME_NetworkDiscoveryRequest?relay
        FUNCTION ??NLME_NetworkDiscoveryRequest?relay,00H
        EXTERN ??NLME_NwkDiscReq2?relay
        FUNCTION ??NLME_NwkDiscReq2?relay,00H
        EXTERN ??NLME_NwkDiscTerm?relay
        FUNCTION ??NLME_NwkDiscTerm?relay,00H
        EXTERN ??NLME_OrphanJoinRequest?relay
        FUNCTION ??NLME_OrphanJoinRequest?relay,00H
        EXTERN ??NLME_PermitJoiningRequest?relay
        FUNCTION ??NLME_PermitJoiningRequest?relay,00H
        EXTERN ??RTG_RemoveRtgEntry?relay
        FUNCTION ??RTG_RemoveRtgEntry?relay,00H
        EXTERN ??ZDApp_NVUpdate?relay
        FUNCTION ??ZDApp_NVUpdate?relay,00H
        EXTERN ??ZDP_BindUnbindReq?relay
        FUNCTION ??ZDP_BindUnbindReq?relay,00H
        EXTERN ??ZDP_EPRsp?relay
        FUNCTION ??ZDP_EPRsp?relay,00H
        EXTERN ??ZDP_GenericRsp?relay
        FUNCTION ??ZDP_GenericRsp?relay,00H
        EXTERN ??ZDP_MgmtBindRsp?relay
        FUNCTION ??ZDP_MgmtBindRsp?relay,00H
        EXTERN ??ZDP_MgmtLqiRsp?relay
        FUNCTION ??ZDP_MgmtLqiRsp?relay,00H
        EXTERN ??ZDP_MgmtRtgRsp?relay
        FUNCTION ??ZDP_MgmtRtgRsp?relay,00H
        EXTERN ??ZDP_NodeDescMsg?relay
        FUNCTION ??ZDP_NodeDescMsg?relay,00H
        EXTERN ??ZDP_NwkAddrReq?relay
        FUNCTION ??ZDP_NwkAddrReq?relay,00H
        EXTERN ??ZDP_PowerDescMsg?relay
        FUNCTION ??ZDP_PowerDescMsg?relay,00H
        EXTERN ??ZDP_SendData?relay
        FUNCTION ??ZDP_SendData?relay,00H
        EXTERN ??ZDP_ServerDiscRsp?relay
        FUNCTION ??ZDP_ServerDiscRsp?relay,00H
        EXTERN ??ZDP_SimpleDescMsg?relay
        FUNCTION ??ZDP_SimpleDescMsg?relay,00H
        EXTERN ??ZDP_UserDescRsp?relay
        FUNCTION ??ZDP_UserDescRsp?relay,00H
        EXTERN ??ZMacSetReq?relay
        FUNCTION ??ZMacSetReq?relay,00H
        EXTERN ??afEndPoints?relay
        FUNCTION ??afEndPoints?relay,00H
        EXTERN ??afFindSimpleDesc?relay
        FUNCTION ??afFindSimpleDesc?relay,00H
        EXTERN ??afNumEndPoints?relay
        FUNCTION ??afNumEndPoints?relay,00H
        EXTERN ??nwkNeighborRemoveAllStranded?relay
        FUNCTION ??nwkNeighborRemoveAllStranded?relay,00H
        EXTERN ??nwkNeighborUpdateNwkAddr?relay
        FUNCTION ??nwkNeighborUpdateNwkAddr?relay,00H
        EXTERN ??nwk_ScanJoiningOrphan?relay
        FUNCTION ??nwk_ScanJoiningOrphan?relay,00H
        EXTERN ??osal_build_uint32?relay
        FUNCTION ??osal_build_uint32?relay,00H
        EXTERN ??osal_mem_alloc?relay
        FUNCTION ??osal_mem_alloc?relay,00H
        EXTERN ??osal_mem_free?relay
        FUNCTION ??osal_mem_free?relay,00H
        EXTERN ??osal_memcpy?relay
        FUNCTION ??osal_memcpy?relay,00H
        EXTERN ??osal_memset?relay
        FUNCTION ??osal_memset?relay,00H
        EXTERN ??osal_msg_allocate?relay
        FUNCTION ??osal_msg_allocate?relay,00H
        EXTERN ??osal_msg_find?relay
        FUNCTION ??osal_msg_find?relay,00H
        EXTERN ??osal_msg_send?relay
        FUNCTION ??osal_msg_send?relay,00H
        EXTERN ??osal_nv_read?relay
        FUNCTION ??osal_nv_read?relay,00H
        EXTERN ??osal_nv_write?relay
        FUNCTION ??osal_nv_write?relay,00H
        EXTERN ??osal_set_event?relay
        FUNCTION ??osal_set_event?relay,00H
        EXTERN ??osal_start_timerEx?relay
        FUNCTION ??osal_start_timerEx?relay,00H
        EXTERN ??sAddrExtCmp?relay
        FUNCTION ??sAddrExtCmp?relay,00H
        EXTERN ??sAddrExtCpy?relay
        FUNCTION ??sAddrExtCpy?relay,00H
        EXTERN AIB_MaxBindingTime
        EXTERN AIB_apsUseExtendedPANID
        EXTERN ZDAppNwkAddr
        EXTERN ZDAppTaskID
        EXTERN ZDO_Config_Node_Descriptor
        EXTERN ZDO_Config_Power_Descriptor
        EXTERN ZDO_UseExtendedPANID
        EXTERN ZDP_TransID
        EXTERN _NIB
        EXTERN devState
        EXTERN epList
        EXTERN zdappMgmtNwkDiscReqInProgress
        EXTERN zdappMgmtNwkDiscRspAddr
        EXTERN zdappMgmtNwkDiscRspTransSeq
        EXTERN zdappMgmtNwkDiscStartIndex
        EXTERN zgDefaultChannelList
        EXTERN zgDefaultStartingScanDuration
        EXTERN zgDeviceLogicalType

// C:\Texas Instruments\ZStack-CC2530-2.5.1a\Components\stack\zdo\ZDObject.c
//    1 /**************************************************************************************************
//    2   Filename:       ZDObject.c
//    3   Revised:        $Date: 2011-07-13 10:55:53 -0700 (Wed, 13 Jul 2011) $
//    4   Revision:       $Revision: 26766 $
//    5 
//    6   Description:    This is the Zigbee Device Object.
//    7 
//    8 
//    9   Copyright 2004-2011 Texas Instruments Incorporated. All rights reserved.
//   10 
//   11   IMPORTANT: Your use of this Software is limited to those specific rights
//   12   granted under the terms of a software license agreement between the user
//   13   who downloaded the software, his/her employer (which must be your employer)
//   14   and Texas Instruments Incorporated (the "License"). You may not use this
//   15   Software unless you agree to abide by the terms of the License. The License
//   16   limits your use, and you acknowledge, that the Software may not be modified,
//   17   copied or distributed unless embedded on a Texas Instruments microcontroller
//   18   or used solely and exclusively in conjunction with a Texas Instruments radio
//   19   frequency transceiver, which is integrated into your product. Other than for
//   20   the foregoing purpose, you may not use, reproduce, copy, prepare derivative
//   21   works of, modify, distribute, perform, display or sell this Software and/or
//   22   its documentation for any purpose.
//   23 
//   24   YOU FURTHER ACKNOWLEDGE AND AGREE THAT THE SOFTWARE AND DOCUMENTATION ARE
//   25   PROVIDED AS IS WITHOUT WARRANTY OF ANY KIND, EITHER EXPRESS OR IMPLIED,
//   26   INCLUDING WITHOUT LIMITATION, ANY WARRANTY OF MERCHANTABILITY, TITLE,
//   27   NON-INFRINGEMENT AND FITNESS FOR A PARTICULAR PURPOSE. IN NO EVENT SHALL
//   28   TEXAS INSTRUMENTS OR ITS LICENSORS BE LIABLE OR OBLIGATED UNDER CONTRACT,
//   29   NEGLIGENCE, STRICT LIABILITY, CONTRIBUTION, BREACH OF WARRANTY, OR OTHER
//   30   LEGAL EQUITABLE THEORY ANY DIRECT OR INDIRECT DAMAGES OR EXPENSES
//   31   INCLUDING BUT NOT LIMITED TO ANY INCIDENTAL, SPECIAL, INDIRECT, PUNITIVE
//   32   OR CONSEQUENTIAL DAMAGES, LOST PROFITS OR LOST DATA, COST OF PROCUREMENT
//   33   OF SUBSTITUTE GOODS, TECHNOLOGY, SERVICES, OR ANY CLAIMS BY THIRD PARTIES
//   34   (INCLUDING BUT NOT LIMITED TO ANY DEFENSE THEREOF), OR OTHER SIMILAR COSTS.
//   35 
//   36   Should you have any questions regarding your right to use this Software,
//   37   contact Texas Instruments Incorporated at www.TI.com.
//   38 **************************************************************************************************/
//   39 
//   40 /*********************************************************************
//   41  * INCLUDES
//   42  */
//   43 #include "ZComdef.h"
//   44 #include "OSAL.h"
//   45 #include "OSAL_Nv.h"
//   46 #include "rtg.h"
//   47 #include "NLMEDE.h"
//   48 #include "nwk_globals.h"
//   49 #include "APS.h"
//   50 #include "APSMEDE.h"
//   51 #include "AssocList.h"
//   52 #include "BindingTable.h"
//   53 #include "AddrMgr.h"
//   54 #include "AF.h"
//   55 #include "ZDObject.h"
//   56 #include "ZDProfile.h"
//   57 #include "ZDConfig.h"
//   58 #include "ZDSecMgr.h"
//   59 #include "ZDApp.h"
//   60 #include "nwk_util.h"   // NLME_IsAddressBroadcast()
//   61 #include "ZGlobals.h"
//   62 #if defined MT_ZDO_CB_FUNC
//   63 #include "MT.h"
//   64 #endif
//   65 
//   66 #if defined( LCD_SUPPORTED )
//   67   #include "OnBoard.h"
//   68 #endif
//   69 
//   70 /* HAL */
//   71 #include "hal_lcd.h"
//   72 
//   73 /*********************************************************************
//   74  * MACROS
//   75  */
//   76 
//   77 /*********************************************************************
//   78  * CONSTANTS
//   79  */
//   80 // NLME Stub Implementations
//   81 #define ZDO_ProcessMgmtPermitJoinTimeout NLME_PermitJoiningTimeout
//   82 
//   83 // Status fields used by ZDO_ProcessMgmtRtgReq
//   84 #define ZDO_MGMT_RTG_ENTRY_ACTIVE             0x00
//   85 #define ZDO_MGMT_RTG_ENTRY_DISCOVERY_UNDERWAY 0x01
//   86 #define ZDO_MGMT_RTG_ENTRY_DISCOVERY_FAILED   0x02
//   87 #define ZDO_MGMT_RTG_ENTRY_INACTIVE           0x03
//   88 
//   89 /*********************************************************************
//   90  * TYPEDEFS
//   91  */
//   92 #if defined ( REFLECTOR )
//   93 typedef struct
//   94 {
//   95   byte SrcTransSeq;
//   96   zAddrType_t SrcAddr;
//   97   uint16 LocalCoordinator;
//   98   byte epIntf;
//   99   uint16 ProfileID;
//  100   byte numInClusters;
//  101   uint16 *inClusters;
//  102   byte numOutClusters;
//  103   uint16 *outClusters;
//  104   byte SecurityUse;
//  105   byte status;
//  106 } ZDO_EDBind_t;
//  107 #endif // defined ( REFLECTOR )
//  108 
//  109 enum
//  110 {
//  111   ZDMATCH_INIT,           // Initialized
//  112   ZDMATCH_WAIT_REQ,       // Received first request, waiting for second
//  113   ZDMATCH_SENDING_BINDS   // Received both requests, sending unbind/binds
//  114 };
//  115 
//  116 enum
//  117 {
//  118   ZDMATCH_SENDING_NOT,
//  119   ZDMATCH_SENDING_UNBIND,
//  120   ZDMATCH_SENDING_BIND
//  121 };
//  122 
//  123 /*********************************************************************
//  124  * GLOBAL VARIABLES
//  125  */
//  126 
//  127 /*********************************************************************
//  128  * EXTERNAL VARIABLES
//  129  */
//  130 
//  131 /*********************************************************************
//  132  * EXTERNAL FUNCTIONS
//  133  */
//  134 
//  135 /*********************************************************************
//  136  * LOCAL VARIABLES
//  137  */

        RSEG XDATA_Z:XDATA:NOROOT(0)
        DATA8
//  138 static uint16 ZDOBuildBuf[26];  // temp area to build data without allocation
ZDOBuildBuf:
        DS 52
        REQUIRE __INIT_XDATA_Z
//  139 
//  140 #if defined ( REFLECTOR )

        RSEG XDATA_Z:XDATA:NOROOT(0)
        DATA16
//  141 static ZDO_EDBind_t *ZDO_EDBind;     // Null when not used
ZDO_EDBind:
        DS 2
        REQUIRE __INIT_XDATA_Z
//  142 #endif
//  143 
//  144 #if defined ( MANAGED_SCAN )
//  145   uint32 managedScanNextChannel = 0;
//  146   uint32 managedScanChannelMask = 0;
//  147   uint8  managedScanTimesPerChannel = 0;
//  148 #endif
//  149 

        RSEG XDATA_Z:XDATA:NOROOT(0)
        DATA16
//  150 ZDMatchEndDeviceBind_t *matchED = (ZDMatchEndDeviceBind_t *)NULL;
matchED:
        DS 2
        REQUIRE __INIT_XDATA_Z
//  151 

        RSEG XDATA_Z:XDATA:NOROOT(0)
        DATA32
//  152 uint32 apsChannelMask = 0;
apsChannelMask:
        DS 4
        REQUIRE __INIT_XDATA_Z
//  153 
//  154 /*********************************************************************
//  155  * LOCAL FUNCTIONS
//  156  */
//  157 static void ZDODeviceSetup( void );
//  158 #if defined ( MANAGED_SCAN )
//  159   static void ZDOManagedScan_Next( void );
//  160 #endif
//  161 #if defined ( REFLECTOR )
//  162   static void ZDO_RemoveEndDeviceBind( void );
//  163   static void ZDO_SendEDBindRsp( byte TransSeq, zAddrType_t *dstAddr, byte Status, byte secUse );
//  164 #endif
//  165 static byte ZDO_CompareClusterLists( byte numList1, uint16 *list1,
//  166                                 byte numList2, uint16 *list2, uint16 *pMatches );
//  167 static void ZDO_RemoveMatchMemory( void );
//  168 static uint8 ZDO_CopyMatchInfo( ZDEndDeviceBind_t *destReq, ZDEndDeviceBind_t *srcReq );
//  169 static void ZDO_EndDeviceBindMatchTimeoutCB( void );
//  170 uint8 *ZDO_ConvertOTAClusters( uint8 cnt, uint8 *inBuf, uint16 *outList );
//  171 static void zdoSendStateChangeMsg(uint8 state, uint8 taskId);
//  172 
//  173 /*********************************************************************
//  174  * @fn          ZDO_Init
//  175  *
//  176  * @brief       ZDObject and ZDProfile initialization.
//  177  *
//  178  * @param       none
//  179  *
//  180  * @return      none
//  181  */

        RSEG BANKED_CODE:CODE:NOROOT(0)
//  182 void ZDO_Init( void )
ZDO_Init:
        CFI Block cfiBlock0 Using cfiCommon0
        CFI Function ZDO_Init
        CODE
//  183 {
        FUNCALL ZDO_Init, sAddrExtCpy
        LOCFRAME ISTACK, 2, STACK
        LOCFRAME PSTACK, 0, STACK
        LOCFRAME XSTACK, 0, STACK
        LOCFRAME IOVERLAY, 0, STATIC
        LOCFRAME DOVERLAY, 0, STATIC
        ARGFRAME ISTACK, 2, STACK
        ARGFRAME PSTACK, 0, STACK
        ARGFRAME XSTACK, 0, STACK
        ARGFRAME IOVERLAY, 0, STATIC
        ARGFRAME DOVERLAY, 0, STATIC
        FUNCALL ZDO_Init, ZDODeviceSetup
        LOCFRAME ISTACK, 2, STACK
        LOCFRAME PSTACK, 0, STACK
        LOCFRAME XSTACK, 0, STACK
        LOCFRAME IOVERLAY, 0, STATIC
        LOCFRAME DOVERLAY, 0, STATIC
        ARGFRAME ISTACK, 2, STACK
        ARGFRAME PSTACK, 0, STACK
        ARGFRAME XSTACK, 0, STACK
        ARGFRAME IOVERLAY, 0, STATIC
        ARGFRAME DOVERLAY, 0, STATIC
        PUSH    DPL
        CFI DPL0 Frame(CFA_SP, 4)
        CFI CFA_SP SP+-4
        PUSH    DPH
        CFI DPH0 Frame(CFA_SP, 5)
        CFI CFA_SP SP+-5
        ; Saved register size: 2
        ; Auto size: 0
//  184   // Initialize ZD items
//  185   #if defined ( REFLECTOR )
//  186   ZDO_EDBind = NULL;
        MOV     DPTR,#ZDO_EDBind
        MOV     A,#0x0
        MOVX    @DPTR,A
        INC     DPTR
        MOV     A,#0x0
        MOVX    @DPTR,A
//  187   #endif
//  188 
//  189   // Initialize default ZDO_UseExtendedPANID to the APS one.
//  190   osal_cpyExtAddr( ZDO_UseExtendedPANID, AIB_apsUseExtendedPANID );
        ; Setup parameters for call to function sAddrExtCpy
        MOV     R4,#AIB_apsUseExtendedPANID & 0xff
        MOV     R5,#(AIB_apsUseExtendedPANID >> 8) & 0xff
        MOV     R2,#ZDO_UseExtendedPANID & 0xff
        MOV     R3,#(ZDO_UseExtendedPANID >> 8) & 0xff
        LCALL   ??sAddrExtCpy?relay
//  191 
//  192   // Setup the device - type of device to create.
//  193   ZDODeviceSetup();
        ; Setup parameters for call to function ZDODeviceSetup
        LCALL   ??ZDODeviceSetup?relay
//  194 }
        POP     DPH
        CFI DPH0 SameValue
        CFI CFA_SP SP+-4
        POP     DPL
        CFI DPL0 SameValue
        CFI CFA_SP SP+-3
        LJMP    ?BRET
        CFI EndBlock cfiBlock0
//  195 
//  196 #if defined ( MANAGED_SCAN )
//  197 /*********************************************************************
//  198  * @fn      ZDOManagedScan_Next()
//  199  *
//  200  * @brief   Setup a managed scan.
//  201  *
//  202  * @param   none
//  203  *
//  204  * @return  none
//  205  */
//  206 static void ZDOManagedScan_Next( void )
//  207 {
//  208   // Is it the first time
//  209   if ( managedScanNextChannel == 0 && managedScanTimesPerChannel == 0 )
//  210   {
//  211     // Setup the defaults
//  212     managedScanNextChannel  = 1;
//  213 
//  214     while( managedScanNextChannel && (zgDefaultChannelList & managedScanNextChannel) == 0 )
//  215       managedScanNextChannel <<= 1;
//  216 
//  217     managedScanChannelMask = managedScanNextChannel;
//  218     managedScanTimesPerChannel = MANAGEDSCAN_TIMES_PRE_CHANNEL;
//  219   }
//  220   else
//  221   {
//  222     // Do we need to go to the next channel
//  223     if ( managedScanTimesPerChannel == 0 )
//  224     {
//  225       // Find next active channel
//  226       managedScanChannelMask  = managedScanNextChannel;
//  227       managedScanTimesPerChannel = MANAGEDSCAN_TIMES_PRE_CHANNEL;
//  228     }
//  229     else
//  230     {
//  231       managedScanTimesPerChannel--;
//  232 
//  233       if ( managedScanTimesPerChannel == 0 )
//  234       {
//  235         managedScanNextChannel  <<= 1;
//  236         while( managedScanNextChannel && (zgDefaultChannelList & managedScanNextChannel) == 0 )
//  237           managedScanNextChannel <<= 1;
//  238 
//  239         if ( managedScanNextChannel == 0 )
//  240           zdoDiscCounter  = NUM_DISC_ATTEMPTS + 1; // Stop
//  241       }
//  242     }
//  243   }
//  244 }
//  245 #endif // MANAGED_SCAN
//  246 
//  247 /*********************************************************************
//  248  * @fn      ZDODeviceSetup()
//  249  *
//  250  * @brief   Call set functions depending on the type of device compiled.
//  251  *
//  252  * @param   none
//  253  *
//  254  * @return  none
//  255  */

        RSEG BANKED_CODE:CODE:NOROOT(0)
//  256 static void ZDODeviceSetup( void )
ZDODeviceSetup:
        CFI Block cfiBlock1 Using cfiCommon0
        CFI Function ZDODeviceSetup
        CODE
//  257 {
        FUNCALL ZDODeviceSetup, APS_ReflectorInit
        LOCFRAME ISTACK, 2, STACK
        LOCFRAME PSTACK, 0, STACK
        LOCFRAME XSTACK, 0, STACK
        LOCFRAME IOVERLAY, 0, STATIC
        LOCFRAME DOVERLAY, 0, STATIC
        ARGFRAME ISTACK, 2, STACK
        ARGFRAME PSTACK, 0, STACK
        ARGFRAME XSTACK, 0, STACK
        ARGFRAME IOVERLAY, 0, STATIC
        ARGFRAME DOVERLAY, 0, STATIC
        FUNCALL ZDODeviceSetup, NLME_DeviceJoiningInit
        LOCFRAME ISTACK, 2, STACK
        LOCFRAME PSTACK, 0, STACK
        LOCFRAME XSTACK, 0, STACK
        LOCFRAME IOVERLAY, 0, STATIC
        LOCFRAME DOVERLAY, 0, STATIC
        ARGFRAME ISTACK, 2, STACK
        ARGFRAME PSTACK, 0, STACK
        ARGFRAME XSTACK, 0, STACK
        ARGFRAME IOVERLAY, 0, STATIC
        ARGFRAME DOVERLAY, 0, STATIC
        PUSH    DPL
        CFI DPL0 Frame(CFA_SP, 4)
        CFI CFA_SP SP+-4
        PUSH    DPH
        CFI DPH0 Frame(CFA_SP, 5)
        CFI CFA_SP SP+-5
        ; Saved register size: 2
        ; Auto size: 0
//  258   if ( ZG_BUILD_COORDINATOR_TYPE )
//  259   {
//  260     NLME_CoordinatorInit();
//  261   }
//  262 
//  263 #if defined ( REFLECTOR )
//  264   APS_ReflectorInit( (ZG_DEVICE_COORDINATOR_TYPE) ? APS_REFLECTOR_PUBLIC :  APS_REFLECTOR_PRIVATE );
        MOV     DPTR,#zgDeviceLogicalType
        MOVX    A,@DPTR
        JNZ     ??ZDODeviceSetup_0
        MOV     R1,#0x0
        SJMP    ??ZDODeviceSetup_1
??ZDODeviceSetup_0:
        MOV     R1,#0x1
??ZDODeviceSetup_1:
        ; Setup parameters for call to function APS_ReflectorInit
        LCALL   ??APS_ReflectorInit?relay
//  265 #endif
//  266 
//  267   if ( ZG_BUILD_JOINING_TYPE )
//  268   {
//  269     NLME_DeviceJoiningInit();
        ; Setup parameters for call to function NLME_DeviceJoiningInit
        LCALL   ??NLME_DeviceJoiningInit?relay
//  270   }
//  271 }
        POP     DPH
        CFI DPH0 SameValue
        CFI CFA_SP SP+-4
        POP     DPL
        CFI DPL0 SameValue
        CFI CFA_SP SP+-3
        LJMP    ?BRET
        CFI EndBlock cfiBlock1
//  272 
//  273 /*********************************************************************
//  274  * @fn          ZDO_StartDevice
//  275  *
//  276  * @brief       This function starts a device in a network.
//  277  *
//  278  * @param       logicalType     - Device type to start
//  279  *              startMode       - indicates mode of device startup
//  280  *              beaconOrder     - indicates time betwen beacons
//  281  *              superframeOrder - indicates length of active superframe
//  282  *
//  283  * @return      none
//  284  */

        RSEG BANKED_CODE:CODE:NOROOT(0)
//  285 void ZDO_StartDevice( byte logicalType, devStartModes_t startMode, byte beaconOrder, byte superframeOrder )
ZDO_StartDevice:
        CFI Block cfiBlock2 Using cfiCommon0
        CFI Function ZDO_StartDevice
        CODE
//  286 {
        FUNCALL ZDO_StartDevice, NLME_NetworkDiscoveryRequest
        LOCFRAME ISTACK, 0, STACK
        LOCFRAME PSTACK, 0, STACK
        LOCFRAME XSTACK, 22, STACK
        LOCFRAME IOVERLAY, 0, STATIC
        LOCFRAME DOVERLAY, 0, STATIC
        ARGFRAME ISTACK, 0, STACK
        ARGFRAME PSTACK, 0, STACK
        ARGFRAME XSTACK, 22, STACK
        ARGFRAME IOVERLAY, 0, STATIC
        ARGFRAME DOVERLAY, 0, STATIC
        FUNCALL ZDO_StartDevice, nwk_ScanJoiningOrphan
        LOCFRAME ISTACK, 0, STACK
        LOCFRAME PSTACK, 0, STACK
        LOCFRAME XSTACK, 22, STACK
        LOCFRAME IOVERLAY, 0, STATIC
        LOCFRAME DOVERLAY, 0, STATIC
        ARGFRAME ISTACK, 0, STACK
        ARGFRAME PSTACK, 0, STACK
        ARGFRAME XSTACK, 22, STACK
        ARGFRAME IOVERLAY, 0, STATIC
        ARGFRAME DOVERLAY, 0, STATIC
        FUNCALL ZDO_StartDevice, NLME_OrphanJoinRequest
        LOCFRAME ISTACK, 0, STACK
        LOCFRAME PSTACK, 0, STACK
        LOCFRAME XSTACK, 22, STACK
        LOCFRAME IOVERLAY, 0, STATIC
        LOCFRAME DOVERLAY, 0, STATIC
        ARGFRAME ISTACK, 0, STACK
        ARGFRAME PSTACK, 0, STACK
        ARGFRAME XSTACK, 22, STACK
        ARGFRAME IOVERLAY, 0, STATIC
        ARGFRAME DOVERLAY, 0, STATIC
        FUNCALL ZDO_StartDevice, osal_start_timerEx
        LOCFRAME ISTACK, 0, STACK
        LOCFRAME PSTACK, 0, STACK
        LOCFRAME XSTACK, 22, STACK
        LOCFRAME IOVERLAY, 0, STATIC
        LOCFRAME DOVERLAY, 0, STATIC
        ARGFRAME ISTACK, 0, STACK
        ARGFRAME PSTACK, 0, STACK
        ARGFRAME XSTACK, 22, STACK
        ARGFRAME IOVERLAY, 0, STATIC
        ARGFRAME DOVERLAY, 0, STATIC
        MOV     A,#-0xb
        LCALL   ?BANKED_ENTER_XDATA
        CFI DPH0 load(1, XDATA, add(CFA_XSP16, literal(-1)))
        CFI DPL0 load(1, XDATA, add(CFA_XSP16, literal(-2)))
        CFI ?BRET_EXT load(1, XDATA, add(CFA_XSP16, literal(-3)))
        CFI ?RET_HIGH load(1, XDATA, add(CFA_XSP16, literal(-4)))
        CFI ?RET_LOW load(1, XDATA, add(CFA_XSP16, literal(-5)))
        CFI R7 load(1, XDATA, add(CFA_XSP16, literal(-6)))
        CFI V2 load(1, XDATA, add(CFA_XSP16, literal(-7)))
        CFI V1 load(1, XDATA, add(CFA_XSP16, literal(-8)))
        CFI V0 load(1, XDATA, add(CFA_XSP16, literal(-9)))
        CFI VB load(1, XDATA, add(CFA_XSP16, literal(-10)))
        CFI R6 load(1, XDATA, add(CFA_XSP16, literal(-11)))
        CFI CFA_SP SP+0
        CFI CFA_XSP16 add(XSP16, 11)
        ; Saved register size: 11
        ; Auto size: 11
        MOV     A,#-0xb
        LCALL   ?ALLOC_XSTACK8
        CFI CFA_XSP16 add(XSP16, 22)
        MOV     A,R1
        MOV     R6,A
        MOV     A,R2
        MOV     R7,A
        MOV     ?V0 + 0,R3
        MOV     ?V0 + 1,R4
//  287   ZStatus_t ret;
//  288 #if defined ( ZIGBEE_FREQ_AGILITY )
//  289   static uint8 discRetries = 0;
//  290 #endif
//  291 #if defined ( ZIGBEE_COMMISSIONING )
//  292   static uint8 scanCnt = 0;
//  293 #endif
//  294 
//  295   ret = ZUnsupportedMode;
        MOV     ?V0 + 2,#0x12
//  296 
//  297   if ( ZG_BUILD_COORDINATOR_TYPE && logicalType == NODETYPE_COORDINATOR )
//  298   {
//  299     if ( startMode == MODE_HARD )
//  300     {
//  301       devState = DEV_COORD_STARTING;
//  302       ret = NLME_NetworkFormationRequest( zgConfigPANID, zgApsUseExtendedPANID, zgDefaultChannelList,
//  303                                           zgDefaultStartingScanDuration, beaconOrder,
//  304                                           superframeOrder, false );
//  305     }
//  306     else if ( startMode == MODE_RESUME )
//  307     {
//  308       // Just start the coordinator
//  309       devState = DEV_COORD_STARTING;
//  310       ret = NLME_StartRouterRequest( beaconOrder, beaconOrder, false );
//  311     }
//  312     else
//  313     {
//  314 #if defined( LCD_SUPPORTED )
//  315       HalLcdWriteScreen( "StartDevice ERR", "MODE unknown" );
//  316 #endif
//  317     }
//  318   }
//  319 
//  320   if ( ZG_BUILD_JOINING_TYPE && (logicalType == NODETYPE_ROUTER || logicalType == NODETYPE_DEVICE) )
        MOV     A,#0x1
        XRL     A,R6
        JZ      ??ZDO_StartDevice_0
        MOV     A,#0x2
        XRL     A,R6
        JZ      $+5
        LJMP    ??ZDO_StartDevice_1 & 0xFFFF
//  321   {
//  322     if ( (startMode == MODE_JOIN) || (startMode == MODE_REJOIN) )
??ZDO_StartDevice_0:
        MOV     A,R7
        JZ      ??ZDO_StartDevice_2
        MOV     A,#0x3
        XRL     A,R7
        JNZ     ??ZDO_StartDevice_3
//  323     {
//  324       devState = DEV_NWK_DISC;
??ZDO_StartDevice_2:
        MOV     DPTR,#devState
        MOV     A,#0x2
        MOVX    @DPTR,A
//  325 
//  326   #if defined( MANAGED_SCAN )
//  327       ZDOManagedScan_Next();
//  328       ret = NLME_NetworkDiscoveryRequest( managedScanChannelMask, BEACON_ORDER_15_MSEC );
//  329   #else
//  330       ret = NLME_NetworkDiscoveryRequest( zgDefaultChannelList, zgDefaultStartingScanDuration );
        ; Setup parameters for call to function NLME_NetworkDiscoveryRequest
        MOV     DPTR,#zgDefaultStartingScanDuration
        MOVX    A,@DPTR
        MOV     R1,A
        MOV     DPTR,#zgDefaultChannelList
        LCALL   ?XLOAD_R2345
        LCALL   ??NLME_NetworkDiscoveryRequest?relay
        MOV     A,R1
        MOV     ?V0 + 2,A
//  331     #if defined ( ZIGBEE_FREQ_AGILITY )
//  332       if ( !( ZDO_Config_Node_Descriptor.CapabilityFlags & CAPINFO_RCVR_ON_IDLE ) &&
//  333             ( ret == ZSuccess ) && ( ++discRetries == 4 ) )
//  334       {
//  335         // For devices with RxOnWhenIdle equals to FALSE, any network channel
//  336         // change will not be recieved. On these devices or routers that have
//  337         // lost the network, an active scan shall be conducted on the Default
//  338         // Channel list using the extended PANID to find the network. If the
//  339         // extended PANID isn't found using the Default Channel list, an scan
//  340         // should be completed using all channels.
//  341         zgDefaultChannelList = MAX_CHANNELS_24GHZ;
//  342       }
//  343     #endif // ZIGBEE_FREQ_AGILITY
//  344     #if defined ( ZIGBEE_COMMISSIONING )
//  345       if (startMode == MODE_REJOIN && scanCnt++ >= 5 )
        MOV     A,#0x3
        XRL     A,R7
        JNZ     ??ZDO_StartDevice_1
        MOV     DPTR,#??scanCnt
        MOVX    A,@DPTR
        MOV     R0,A
        MOV     A,#0x1
        ADD     A,R0
        MOV     DPTR,#??scanCnt
        MOVX    @DPTR,A
        MOV     A,R0
        CLR     C
        SUBB    A,#0x5
        JC      ??ZDO_StartDevice_1
//  346       {
//  347         // When ApsUseExtendedPanID is commissioned to a non zero value via
//  348         // application specific means, the device shall conduct an active scan
//  349         // on the Default Channel list and join the PAN with the same
//  350         // ExtendedPanID. If the PAN is not found, an scan should be completed
//  351         // on all channels.
//  352         // When devices rejoin the network and the PAN is not found from
//  353         zgDefaultChannelList = MAX_CHANNELS_24GHZ;
        MOV     DPTR,#__Constant_7fff800
        LCALL   ?XLOAD_R2345
        MOV     DPTR,#zgDefaultChannelList
        LCALL   ?XSTORE_R2345
        SJMP    ??ZDO_StartDevice_1
//  354       }
//  355     #endif // ZIGBEE_COMMISSIONING
//  356   #endif
//  357     }
//  358     else if ( startMode == MODE_RESUME )
??ZDO_StartDevice_3:
        MOV     A,#0x1
        XRL     A,R7
        JNZ     ??ZDO_StartDevice_1
//  359     {
//  360       if ( logicalType == NODETYPE_ROUTER )
        MOV     A,#0x1
        XRL     A,R6
        JNZ     ??ZDO_StartDevice_4
//  361       {
//  362         ZMacScanCnf_t scanCnf;
//  363         devState = DEV_NWK_ORPHAN;
        MOV     DPTR,#devState
        MOV     A,#0xa
        MOVX    @DPTR,A
//  364 
//  365         /* if router and nvram is available, fake successful orphan scan */
//  366         scanCnf.hdr.Status = ZSUCCESS;
        MOV     A,#0x1
        LCALL   ?XSTACK_DISP0_8
        MOV     A,#0x0
        MOVX    @DPTR,A
//  367         scanCnf.ScanType = ZMAC_ORPHAN_SCAN;
        MOV     A,#0x2
        LCALL   ?XSTACK_DISP0_8
        MOV     A,#0x3
        MOVX    @DPTR,A
//  368         scanCnf.UnscannedChannels = 0;
        MOV     DPTR,#__Constant_0
        LCALL   ?XLOAD_R2345
        MOV     A,#0x4
        LCALL   ?XSTACK_DISP0_8
        LCALL   ?XSTORE_R2345
//  369         scanCnf.ResultListSize = 0;
        MOV     A,#0x8
        LCALL   ?XSTACK_DISP0_8
        MOV     A,#0x0
        MOVX    @DPTR,A
//  370         nwk_ScanJoiningOrphan(&scanCnf);
        ; Setup parameters for call to function nwk_ScanJoiningOrphan
        MOV     DPL,?XSP + 0
        MOV     DPH,?XSP + 1
        MOV     R2,DPL
        MOV     R3,DPH
        LCALL   ??nwk_ScanJoiningOrphan?relay
//  371 
//  372         ret = ZSuccess;
        MOV     ?V0 + 2,#0x0
        SJMP    ??ZDO_StartDevice_1
//  373       }
//  374       else
//  375       {
//  376         devState = DEV_NWK_ORPHAN;
??ZDO_StartDevice_4:
        MOV     DPTR,#devState
        MOV     A,#0xa
        MOVX    @DPTR,A
//  377         ret = NLME_OrphanJoinRequest( zgDefaultChannelList,
//  378                                       zgDefaultStartingScanDuration );
        ; Setup parameters for call to function NLME_OrphanJoinRequest
        MOV     DPTR,#zgDefaultStartingScanDuration
        MOVX    A,@DPTR
        MOV     R1,A
        MOV     DPTR,#zgDefaultChannelList
        LCALL   ?XLOAD_R2345
        LCALL   ??NLME_OrphanJoinRequest?relay
        MOV     A,R1
        MOV     ?V0 + 2,A
//  379       }
//  380     }
//  381     else
//  382     {
//  383 #if defined( LCD_SUPPORTED )
//  384       HalLcdWriteScreen( "StartDevice ERR", "MODE unknown" );
//  385 #endif
//  386     }
//  387   }
//  388 
//  389   if ( ret != ZSuccess )
??ZDO_StartDevice_1:
        MOV     A,?V0 + 2
        JZ      ??ZDO_StartDevice_5
//  390   {
//  391     osal_start_timerEx(ZDAppTaskID, ZDO_NETWORK_INIT, NWK_RETRY_DELAY );
        ; Setup parameters for call to function osal_start_timerEx
        MOV     R4,#-0x18
        MOV     R5,#0x3
        MOV     R2,#0x1
        MOV     R3,#0x0
        MOV     DPTR,#ZDAppTaskID
        MOVX    A,@DPTR
        MOV     R1,A
        LCALL   ??osal_start_timerEx?relay
        MOV     A,R1
//  392   }
//  393 }
??ZDO_StartDevice_5:
        MOV     A,#0xb
        LCALL   ?DEALLOC_XSTACK8
        CFI CFA_XSP16 add(XSP16, 11)
        MOV     R7,#0x3
        LJMP    ?BANKED_LEAVE_XDATA
        CFI EndBlock cfiBlock2

        RSEG XDATA_Z:XDATA:NOROOT(0)
        DATA8
??scanCnt:
        DS 1
        REQUIRE __INIT_XDATA_Z
//  394 
//  395 /**************************************************************************************************
//  396  * @fn          zdoSendStateChangeMsg
//  397  *
//  398  * @brief       Helper function for ZDO_UpdateNwkStatus.
//  399  *
//  400  * input parameters
//  401  *
//  402  * @param       taskId - The OSAL task identifier to which to send the ZDO_STATE_CHANGE_EVT.
//  403  * @param       state - The current device state.
//  404  *
//  405  * output parameters
//  406  *
//  407  * None.
//  408  *
//  409  * @return      None.
//  410  **************************************************************************************************
//  411  */

        RSEG BANKED_CODE:CODE:NOROOT(0)
//  412 static void zdoSendStateChangeMsg(uint8 state, uint8 taskId)
zdoSendStateChangeMsg:
        CFI Block cfiBlock3 Using cfiCommon0
        CFI Function zdoSendStateChangeMsg
        CODE
//  413 {
        FUNCALL zdoSendStateChangeMsg, osal_msg_find
        LOCFRAME ISTACK, 0, STACK
        LOCFRAME PSTACK, 0, STACK
        LOCFRAME XSTACK, 13, STACK
        LOCFRAME IOVERLAY, 0, STATIC
        LOCFRAME DOVERLAY, 0, STATIC
        ARGFRAME ISTACK, 0, STACK
        ARGFRAME PSTACK, 0, STACK
        ARGFRAME XSTACK, 13, STACK
        ARGFRAME IOVERLAY, 0, STATIC
        ARGFRAME DOVERLAY, 0, STATIC
        FUNCALL zdoSendStateChangeMsg, osal_msg_allocate
        LOCFRAME ISTACK, 0, STACK
        LOCFRAME PSTACK, 0, STACK
        LOCFRAME XSTACK, 13, STACK
        LOCFRAME IOVERLAY, 0, STATIC
        LOCFRAME DOVERLAY, 0, STATIC
        ARGFRAME ISTACK, 0, STACK
        ARGFRAME PSTACK, 0, STACK
        ARGFRAME XSTACK, 13, STACK
        ARGFRAME IOVERLAY, 0, STATIC
        ARGFRAME DOVERLAY, 0, STATIC
        FUNCALL zdoSendStateChangeMsg, osal_set_event
        LOCFRAME ISTACK, 0, STACK
        LOCFRAME PSTACK, 0, STACK
        LOCFRAME XSTACK, 13, STACK
        LOCFRAME IOVERLAY, 0, STATIC
        LOCFRAME DOVERLAY, 0, STATIC
        ARGFRAME ISTACK, 0, STACK
        ARGFRAME PSTACK, 0, STACK
        ARGFRAME XSTACK, 13, STACK
        ARGFRAME IOVERLAY, 0, STATIC
        ARGFRAME DOVERLAY, 0, STATIC
        FUNCALL zdoSendStateChangeMsg, osal_msg_send
        LOCFRAME ISTACK, 0, STACK
        LOCFRAME PSTACK, 0, STACK
        LOCFRAME XSTACK, 13, STACK
        LOCFRAME IOVERLAY, 0, STATIC
        LOCFRAME DOVERLAY, 0, STATIC
        ARGFRAME ISTACK, 0, STACK
        ARGFRAME PSTACK, 0, STACK
        ARGFRAME XSTACK, 13, STACK
        ARGFRAME IOVERLAY, 0, STATIC
        ARGFRAME DOVERLAY, 0, STATIC
        MOV     A,#-0xc
        LCALL   ?BANKED_ENTER_XDATA
        CFI DPH0 load(1, XDATA, add(CFA_XSP16, literal(-1)))
        CFI DPL0 load(1, XDATA, add(CFA_XSP16, literal(-2)))
        CFI ?BRET_EXT load(1, XDATA, add(CFA_XSP16, literal(-3)))
        CFI ?RET_HIGH load(1, XDATA, add(CFA_XSP16, literal(-4)))
        CFI ?RET_LOW load(1, XDATA, add(CFA_XSP16, literal(-5)))
        CFI R7 load(1, XDATA, add(CFA_XSP16, literal(-6)))
        CFI V3 load(1, XDATA, add(CFA_XSP16, literal(-7)))
        CFI V2 load(1, XDATA, add(CFA_XSP16, literal(-8)))
        CFI V1 load(1, XDATA, add(CFA_XSP16, literal(-9)))
        CFI V0 load(1, XDATA, add(CFA_XSP16, literal(-10)))
        CFI VB load(1, XDATA, add(CFA_XSP16, literal(-11)))
        CFI R6 load(1, XDATA, add(CFA_XSP16, literal(-12)))
        CFI CFA_SP SP+0
        CFI CFA_XSP16 add(XSP16, 12)
        ; Saved register size: 12
        ; Auto size: 1
        MOV     A,#-0x1
        LCALL   ?ALLOC_XSTACK8
        CFI CFA_XSP16 add(XSP16, 13)
        MOV     ?V0 + 1,R1
        MOV     ?V0 + 0,R2
//  414   osal_event_hdr_t *pMsg = (osal_event_hdr_t *)osal_msg_find(taskId, ZDO_STATE_CHANGE);
        ; Setup parameters for call to function osal_msg_find
        MOV     R2,#-0x2f
        MOV     R1,?V0 + 0
        LCALL   ??osal_msg_find?relay
        MOV     ?V0 + 2,R2
        MOV     ?V0 + 3,R3
        MOV     R6,?V0 + 2
        MOV     R7,?V0 + 3
//  415 
//  416   if (NULL == pMsg)
        MOV     A,R6
        ORL     A,R7
        JNZ     ??zdoSendStateChangeMsg_0
//  417   {
//  418     if (NULL == (pMsg = (osal_event_hdr_t *)osal_msg_allocate(sizeof(osal_event_hdr_t))))
        ; Setup parameters for call to function osal_msg_allocate
        MOV     R2,#0x2
        MOV     R3,#0x0
        LCALL   ??osal_msg_allocate?relay
        MOV     ?V0 + 2,R2
        MOV     ?V0 + 3,R3
        MOV     R0,?V0 + 2
        MOV     R1,?V0 + 3
        MOV     A,R0
        MOV     R6,A
        MOV     A,R1
        MOV     R7,A
        MOV     A,R0
        ORL     A,R1
        JNZ     ??zdoSendStateChangeMsg_1
//  419     {
//  420       // Upon failure to notify any EndPoint of the state change, re-set the ZDO event to
//  421       // try again later when more Heap may be available.
//  422       osal_set_event(ZDAppTaskID, ZDO_STATE_CHANGE_EVT);
        ; Setup parameters for call to function osal_set_event
        MOV     R2,#0x10
        MOV     R3,#0x0
        MOV     DPTR,#ZDAppTaskID
        MOVX    A,@DPTR
        MOV     R1,A
        LCALL   ??osal_set_event?relay
        MOV     A,R1
        SJMP    ??zdoSendStateChangeMsg_2
//  423     }
//  424     else
//  425     {
//  426       pMsg->event = ZDO_STATE_CHANGE;
??zdoSendStateChangeMsg_1:
        MOV     DPL,R6
        MOV     DPH,R7
        MOV     A,#-0x2f
        MOVX    @DPTR,A
//  427       pMsg->status = state;
        MOV     A,?V0 + 1
        MOV     DPL,R6
        MOV     DPH,R7
        INC     DPTR
        MOV     A,?V0 + 1
        MOVX    @DPTR,A
//  428 
//  429       (void)osal_msg_send(taskId, (uint8 *)pMsg);
        ; Setup parameters for call to function osal_msg_send
        MOV     A,R6
        MOV     R2,A
        MOV     A,R7
        MOV     R3,A
        MOV     R1,?V0 + 0
        LCALL   ??osal_msg_send?relay
        MOV     A,R1
        MOV     DPL,?XSP + 0
        MOV     DPH,?XSP + 1
        MOVX    @DPTR,A
        SJMP    ??zdoSendStateChangeMsg_2
//  430     }
//  431   }
//  432   else
//  433   {
//  434     // Modify in place the status of an existing ZDO_STATE_CHANGE message to the EndPoint.
//  435     pMsg->status = state;
??zdoSendStateChangeMsg_0:
        MOV     A,?V0 + 1
        MOV     DPL,R6
        MOV     DPH,R7
        INC     DPTR
        MOV     A,?V0 + 1
        MOVX    @DPTR,A
//  436   }
//  437 }
??zdoSendStateChangeMsg_2:
        MOV     A,#0x1
        LCALL   ?DEALLOC_XSTACK8
        CFI CFA_XSP16 add(XSP16, 12)
        MOV     R7,#0x4
        LJMP    ?BANKED_LEAVE_XDATA
        CFI EndBlock cfiBlock3
//  438 
//  439 /**************************************************************************************************
//  440  * @fn          ZDO_UpdateNwkStatus
//  441  *
//  442  * @brief       This function sends a ZDO_STATE_CHANGE message to the task of every EndPoint
//  443  *              registered with AF (except, of course, the ZDO_EP). Even if a single task has more
//  444  *              than one registered EndPoint, it will only receive one notification per state
//  445  *              change. Although the device may go through a sequence of state changes, the
//  446  *              Application task may only receive notification of the final, steady-state state
//  447  *              because it has the lowest priority and never even runs to receive the intermediate
//  448  *              state change notifications.
//  449  *
//  450  * input parameters
//  451  *
//  452  * @param       state - The current device state.
//  453  *
//  454  * output parameters
//  455  *
//  456  * None.
//  457  *
//  458  * @return      None.
//  459  **************************************************************************************************
//  460  */

        RSEG BANKED_CODE:CODE:NOROOT(0)
//  461 void ZDO_UpdateNwkStatus(devStates_t state)
ZDO_UpdateNwkStatus:
        CFI Block cfiBlock4 Using cfiCommon0
        CFI Function ZDO_UpdateNwkStatus
        CODE
//  462 {
        FUNCALL ZDO_UpdateNwkStatus, zdoSendStateChangeMsg
        LOCFRAME ISTACK, 0, STACK
        LOCFRAME PSTACK, 0, STACK
        LOCFRAME XSTACK, 12, STACK
        LOCFRAME IOVERLAY, 0, STATIC
        LOCFRAME DOVERLAY, 0, STATIC
        ARGFRAME ISTACK, 0, STACK
        ARGFRAME PSTACK, 0, STACK
        ARGFRAME XSTACK, 12, STACK
        ARGFRAME IOVERLAY, 0, STATIC
        ARGFRAME DOVERLAY, 0, STATIC
        FUNCALL ZDO_UpdateNwkStatus, NLME_GetShortAddr
        LOCFRAME ISTACK, 0, STACK
        LOCFRAME PSTACK, 0, STACK
        LOCFRAME XSTACK, 12, STACK
        LOCFRAME IOVERLAY, 0, STATIC
        LOCFRAME DOVERLAY, 0, STATIC
        ARGFRAME ISTACK, 0, STACK
        ARGFRAME PSTACK, 0, STACK
        ARGFRAME XSTACK, 12, STACK
        ARGFRAME IOVERLAY, 0, STATIC
        ARGFRAME DOVERLAY, 0, STATIC
        FUNCALL ZDO_UpdateNwkStatus, NLME_GetExtAddr
        LOCFRAME ISTACK, 0, STACK
        LOCFRAME PSTACK, 0, STACK
        LOCFRAME XSTACK, 12, STACK
        LOCFRAME IOVERLAY, 0, STATIC
        LOCFRAME DOVERLAY, 0, STATIC
        ARGFRAME ISTACK, 0, STACK
        ARGFRAME PSTACK, 0, STACK
        ARGFRAME XSTACK, 12, STACK
        ARGFRAME IOVERLAY, 0, STATIC
        ARGFRAME DOVERLAY, 0, STATIC
        MOV     A,#-0xc
        LCALL   ?BANKED_ENTER_XDATA
        CFI DPH0 load(1, XDATA, add(CFA_XSP16, literal(-1)))
        CFI DPL0 load(1, XDATA, add(CFA_XSP16, literal(-2)))
        CFI ?BRET_EXT load(1, XDATA, add(CFA_XSP16, literal(-3)))
        CFI ?RET_HIGH load(1, XDATA, add(CFA_XSP16, literal(-4)))
        CFI ?RET_LOW load(1, XDATA, add(CFA_XSP16, literal(-5)))
        CFI R7 load(1, XDATA, add(CFA_XSP16, literal(-6)))
        CFI V3 load(1, XDATA, add(CFA_XSP16, literal(-7)))
        CFI V2 load(1, XDATA, add(CFA_XSP16, literal(-8)))
        CFI V1 load(1, XDATA, add(CFA_XSP16, literal(-9)))
        CFI V0 load(1, XDATA, add(CFA_XSP16, literal(-10)))
        CFI VB load(1, XDATA, add(CFA_XSP16, literal(-11)))
        CFI R6 load(1, XDATA, add(CFA_XSP16, literal(-12)))
        CFI CFA_SP SP+0
        CFI CFA_XSP16 add(XSP16, 12)
        ; Saved register size: 12
        ; Auto size: 0
        MOV     ?V0 + 0,R1
//  463   epList_t *pItem = epList;
        MOV     DPTR,#epList
        MOVX    A,@DPTR
        MOV     R6,A
        INC     DPTR
        MOVX    A,@DPTR
        MOV     R7,A
//  464 
//  465   while (pItem != NULL)
??ZDO_UpdateNwkStatus_0:
        MOV     A,R6
        ORL     A,R7
        JZ      ??ZDO_UpdateNwkStatus_1
//  466   {
//  467     if (pItem->epDesc->endPoint != ZDO_EP)
        MOV     DPL,R6
        MOV     DPH,R7
        INC     DPTR
        INC     DPTR
        MOVX    A,@DPTR
        MOV     R0,A
        INC     DPTR
        MOVX    A,@DPTR
        MOV     DPH,A
        MOV     DPL,R0
        MOVX    A,@DPTR
        JZ      ??ZDO_UpdateNwkStatus_2
//  468     {
//  469       zdoSendStateChangeMsg(state, *(pItem->epDesc->task_id));
        ; Setup parameters for call to function zdoSendStateChangeMsg
        MOV     DPL,R6
        MOV     DPH,R7
        INC     DPTR
        INC     DPTR
        MOVX    A,@DPTR
        MOV     R0,A
        INC     DPTR
        MOVX    A,@DPTR
        MOV     DPH,A
        MOV     DPL,R0
        INC     DPTR
        MOVX    A,@DPTR
        MOV     R0,A
        INC     DPTR
        MOVX    A,@DPTR
        MOV     DPH,A
        MOV     DPL,R0
        MOVX    A,@DPTR
        MOV     R2,A
        MOV     R1,?V0 + 0
        LCALL   ??zdoSendStateChangeMsg?relay
//  470     }
//  471 
//  472     pItem = pItem->nextDesc;
??ZDO_UpdateNwkStatus_2:
        MOV     DPL,R6
        MOV     DPH,R7
        MOVX    A,@DPTR
        MOV     R0,A
        INC     DPTR
        MOVX    A,@DPTR
        MOV     R1,A
        MOV     A,R0
        MOV     R6,A
        MOV     A,R1
        MOV     R7,A
        SJMP    ??ZDO_UpdateNwkStatus_0
//  473   }
//  474 #if defined MT_ZDO_CB_FUNC
//  475   zdoSendStateChangeMsg(state, MT_TaskID);
//  476 #endif
//  477 
//  478   ZDAppNwkAddr.addr.shortAddr = NLME_GetShortAddr();
??ZDO_UpdateNwkStatus_1:
        ; Setup parameters for call to function NLME_GetShortAddr
        LCALL   ??NLME_GetShortAddr?relay
        MOV     DPTR,#ZDAppNwkAddr
        MOV     A,R2
        MOVX    @DPTR,A
        INC     DPTR
        MOV     A,R3
        MOVX    @DPTR,A
//  479   (void)NLME_GetExtAddr();  // Load the saveExtAddr pointer.
        ; Setup parameters for call to function NLME_GetExtAddr
        LCALL   ??NLME_GetExtAddr?relay
        MOV     ?V0 + 2,R2
        MOV     ?V0 + 3,R3
        MOV     DPL,?V0 + 2
        MOV     DPH,?V0 + 3
//  480 }
        MOV     R7,#0x4
        LJMP    ?BANKED_LEAVE_XDATA
        CFI EndBlock cfiBlock4
//  481 
//  482 #if defined ( REFLECTOR )
//  483 /*********************************************************************
//  484  * @fn          ZDO_RemoveEndDeviceBind
//  485  *
//  486  * @brief       Remove the end device bind
//  487  *
//  488  * @param  none
//  489  *
//  490  * @return      none
//  491  */

        RSEG BANKED_CODE:CODE:NOROOT(0)
//  492 static void ZDO_RemoveEndDeviceBind( void )
ZDO_RemoveEndDeviceBind:
        CFI Block cfiBlock5 Using cfiCommon0
        CFI Function ZDO_RemoveEndDeviceBind
        CODE
//  493 {
        FUNCALL ZDO_RemoveEndDeviceBind, osal_mem_free
        LOCFRAME ISTACK, 2, STACK
        LOCFRAME PSTACK, 0, STACK
        LOCFRAME XSTACK, 0, STACK
        LOCFRAME IOVERLAY, 0, STATIC
        LOCFRAME DOVERLAY, 0, STATIC
        ARGFRAME ISTACK, 2, STACK
        ARGFRAME PSTACK, 0, STACK
        ARGFRAME XSTACK, 0, STACK
        ARGFRAME IOVERLAY, 0, STATIC
        ARGFRAME DOVERLAY, 0, STATIC
        FUNCALL ZDO_RemoveEndDeviceBind, osal_mem_free
        LOCFRAME ISTACK, 2, STACK
        LOCFRAME PSTACK, 0, STACK
        LOCFRAME XSTACK, 0, STACK
        LOCFRAME IOVERLAY, 0, STATIC
        LOCFRAME DOVERLAY, 0, STATIC
        ARGFRAME ISTACK, 2, STACK
        ARGFRAME PSTACK, 0, STACK
        ARGFRAME XSTACK, 0, STACK
        ARGFRAME IOVERLAY, 0, STATIC
        ARGFRAME DOVERLAY, 0, STATIC
        FUNCALL ZDO_RemoveEndDeviceBind, osal_mem_free
        LOCFRAME ISTACK, 2, STACK
        LOCFRAME PSTACK, 0, STACK
        LOCFRAME XSTACK, 0, STACK
        LOCFRAME IOVERLAY, 0, STATIC
        LOCFRAME DOVERLAY, 0, STATIC
        ARGFRAME ISTACK, 2, STACK
        ARGFRAME PSTACK, 0, STACK
        ARGFRAME XSTACK, 0, STACK
        ARGFRAME IOVERLAY, 0, STATIC
        ARGFRAME DOVERLAY, 0, STATIC
        PUSH    DPL
        CFI DPL0 Frame(CFA_SP, 4)
        CFI CFA_SP SP+-4
        PUSH    DPH
        CFI DPH0 Frame(CFA_SP, 5)
        CFI CFA_SP SP+-5
        ; Saved register size: 2
        ; Auto size: 0
//  494   if ( ZDO_EDBind != NULL )
        MOV     DPTR,#ZDO_EDBind
        MOVX    A,@DPTR
        MOV     R0,A
        INC     DPTR
        MOVX    A,@DPTR
        MOV     R1,A
        MOV     A,R0
        ORL     A,R1
        JZ      ??ZDO_RemoveEndDeviceBind_0
//  495   {
//  496     // Free the RAM
//  497     if ( ZDO_EDBind->inClusters != NULL )
        MOV     DPTR,#ZDO_EDBind
        MOVX    A,@DPTR
        ADD     A,#0x10
        MOV     R0,A
        INC     DPTR
        MOVX    A,@DPTR
        ADDC    A,#0x0
        MOV     R1,A
        MOV     DPL,R0
        MOV     DPH,R1
        MOVX    A,@DPTR
        MOV     R0,A
        INC     DPTR
        MOVX    A,@DPTR
        MOV     R1,A
        MOV     A,R0
        ORL     A,R1
        JZ      ??ZDO_RemoveEndDeviceBind_1
//  498     {
//  499       osal_mem_free( ZDO_EDBind->inClusters );
        ; Setup parameters for call to function osal_mem_free
        MOV     DPTR,#ZDO_EDBind
        MOVX    A,@DPTR
        ADD     A,#0x10
        MOV     R0,A
        INC     DPTR
        MOVX    A,@DPTR
        ADDC    A,#0x0
        MOV     R1,A
        MOV     DPL,R0
        MOV     DPH,R1
        MOVX    A,@DPTR
        MOV     R2,A
        INC     DPTR
        MOVX    A,@DPTR
        MOV     R3,A
        LCALL   ??osal_mem_free?relay
//  500     }
//  501     if ( ZDO_EDBind->outClusters != NULL )
??ZDO_RemoveEndDeviceBind_1:
        MOV     DPTR,#ZDO_EDBind
        MOVX    A,@DPTR
        ADD     A,#0x13
        MOV     R0,A
        INC     DPTR
        MOVX    A,@DPTR
        ADDC    A,#0x0
        MOV     R1,A
        MOV     DPL,R0
        MOV     DPH,R1
        MOVX    A,@DPTR
        MOV     R0,A
        INC     DPTR
        MOVX    A,@DPTR
        MOV     R1,A
        MOV     A,R0
        ORL     A,R1
        JZ      ??ZDO_RemoveEndDeviceBind_2
//  502     {
//  503       osal_mem_free( ZDO_EDBind->outClusters );
        ; Setup parameters for call to function osal_mem_free
        MOV     DPTR,#ZDO_EDBind
        MOVX    A,@DPTR
        ADD     A,#0x13
        MOV     R0,A
        INC     DPTR
        MOVX    A,@DPTR
        ADDC    A,#0x0
        MOV     R1,A
        MOV     DPL,R0
        MOV     DPH,R1
        MOVX    A,@DPTR
        MOV     R2,A
        INC     DPTR
        MOVX    A,@DPTR
        MOV     R3,A
        LCALL   ??osal_mem_free?relay
//  504     }
//  505     osal_mem_free( ZDO_EDBind );
??ZDO_RemoveEndDeviceBind_2:
        ; Setup parameters for call to function osal_mem_free
        MOV     DPTR,#ZDO_EDBind
        MOVX    A,@DPTR
        MOV     R2,A
        INC     DPTR
        MOVX    A,@DPTR
        MOV     R3,A
        LCALL   ??osal_mem_free?relay
//  506     ZDO_EDBind = NULL;
        MOV     DPTR,#ZDO_EDBind
        MOV     A,#0x0
        MOVX    @DPTR,A
        INC     DPTR
        MOV     A,#0x0
        MOVX    @DPTR,A
//  507   }
//  508 }
??ZDO_RemoveEndDeviceBind_0:
        POP     DPH
        CFI DPH0 SameValue
        CFI CFA_SP SP+-4
        POP     DPL
        CFI DPL0 SameValue
        CFI CFA_SP SP+-3
        LJMP    ?BRET
        CFI EndBlock cfiBlock5
//  509 #endif // REFLECTOR
//  510 
//  511 #if defined ( REFLECTOR )
//  512 /*********************************************************************
//  513  * @fn          ZDO_RemoveEndDeviceBind
//  514  *
//  515  * @brief       Remove the end device bind
//  516  *
//  517  * @param  none
//  518  *
//  519  * @return      none
//  520  */

        RSEG BANKED_CODE:CODE:NOROOT(0)
//  521 static void ZDO_SendEDBindRsp( byte TransSeq, zAddrType_t *dstAddr, byte Status, byte secUse )
ZDO_SendEDBindRsp:
        CFI Block cfiBlock6 Using cfiCommon0
        CFI Function ZDO_SendEDBindRsp
        CODE
//  522 {
        FUNCALL ZDO_SendEDBindRsp, ZDP_SendData
        LOCFRAME ISTACK, 0, STACK
        LOCFRAME PSTACK, 0, STACK
        LOCFRAME XSTACK, 18, STACK
        LOCFRAME IOVERLAY, 0, STATIC
        LOCFRAME DOVERLAY, 0, STATIC
        ARGFRAME ISTACK, 0, STACK
        ARGFRAME PSTACK, 0, STACK
        ARGFRAME XSTACK, 18, STACK
        ARGFRAME IOVERLAY, 0, STATIC
        ARGFRAME DOVERLAY, 0, STATIC
        MOV     A,#-0xb
        LCALL   ?BANKED_ENTER_XDATA
        CFI DPH0 load(1, XDATA, add(CFA_XSP16, literal(-1)))
        CFI DPL0 load(1, XDATA, add(CFA_XSP16, literal(-2)))
        CFI ?BRET_EXT load(1, XDATA, add(CFA_XSP16, literal(-3)))
        CFI ?RET_HIGH load(1, XDATA, add(CFA_XSP16, literal(-4)))
        CFI ?RET_LOW load(1, XDATA, add(CFA_XSP16, literal(-5)))
        CFI R7 load(1, XDATA, add(CFA_XSP16, literal(-6)))
        CFI V2 load(1, XDATA, add(CFA_XSP16, literal(-7)))
        CFI V1 load(1, XDATA, add(CFA_XSP16, literal(-8)))
        CFI V0 load(1, XDATA, add(CFA_XSP16, literal(-9)))
        CFI VB load(1, XDATA, add(CFA_XSP16, literal(-10)))
        CFI R6 load(1, XDATA, add(CFA_XSP16, literal(-11)))
        CFI CFA_SP SP+0
        CFI CFA_XSP16 add(XSP16, 11)
        ; Saved register size: 11
        ; Auto size: 2
        MOV     A,#-0x2
        LCALL   ?ALLOC_XSTACK8
        CFI CFA_XSP16 add(XSP16, 13)
        MOV     A,R1
        PUSH    A
        CFI CFA_SP SP+-1
        MOV     A,#0x1
        LCALL   ?XSTACK_DISP0_8
        POP     A
        CFI CFA_SP SP+0
        MOVX    @DPTR,A
        MOV     A,R4
        MOV     DPL,?XSP + 0
        MOV     DPH,?XSP + 1
        MOVX    @DPTR,A
        MOV     A,R2
        MOV     R6,A
        MOV     A,R3
        MOV     R7,A
        MOV     ?V0 + 2,R5
//  523   ZDP_EndDeviceBindRsp( TransSeq, dstAddr, Status, secUse );
        ; Setup parameters for call to function ZDP_SendData
        MOV     A,?V0 + 2
        MOV     ?V0 + 0,A
        MOV     R0,#?V0 + 0
        LCALL   ?PUSH_XSTACK_I_ONE
        CFI CFA_XSP16 add(XSP16, 14)
        MOV     A,#0x1
        LCALL   ?XSTACK_DISP0_8
        MOV     ?V0 + 0,DPL
        MOV     ?V0 + 1,DPH
        MOV     R0,#?V0 + 0
        LCALL   ?PUSH_XSTACK_I_TWO
        CFI CFA_XSP16 add(XSP16, 16)
        MOV     ?V0 + 0,#0x20
        MOV     ?V0 + 1,#-0x80
        MOV     R0,#?V0 + 0
        LCALL   ?PUSH_XSTACK_I_TWO
        CFI CFA_XSP16 add(XSP16, 18)
        MOV     R1,#0x1
        MOV     A,R6
        MOV     R4,A
        MOV     A,R7
        MOV     R5,A
        MOV     A,#0x6
        LCALL   ?XSTACK_DISP0_8
        MOV     R2,DPL
        MOV     R3,DPH
        LCALL   ??ZDP_SendData?relay
        MOV     A,#0x5
        LCALL   ?DEALLOC_XSTACK8
        CFI CFA_XSP16 add(XSP16, 13)
        MOV     A,R1
//  524 
//  525 #if defined( LCD_SUPPORTED )
//  526   HalLcdWriteString( "End Device Bind", HAL_LCD_LINE_1 );
//  527   if ( Status == ZDP_SUCCESS )
//  528   {
//  529     HalLcdWriteString( "Success Sent", HAL_LCD_LINE_2 );
//  530   }
//  531   else
//  532   {
//  533     HalLcdWriteString( "Timeout", HAL_LCD_LINE_2 );
//  534   }
//  535 #endif
//  536 
//  537 }
        MOV     A,#0x2
        LCALL   ?DEALLOC_XSTACK8
        CFI CFA_XSP16 add(XSP16, 11)
        MOV     R7,#0x3
        LJMP    ?BANKED_LEAVE_XDATA
        CFI EndBlock cfiBlock6
//  538 #endif // REFLECTOR
//  539 
//  540 /*********************************************************************
//  541  * @fn          ZDO_CompareClusterLists
//  542  *
//  543  * @brief       Compare one list to another list
//  544  *
//  545  * @param       numList1 - number of items in list 1
//  546  * @param       list1 - first list of cluster IDs
//  547  * @param       numList2 - number of items in list 2
//  548  * @param       list2 - second list of cluster IDs
//  549  * @param       pMatches - buffer to put matches
//  550  *
//  551  * @return      number of matches
//  552  */

        RSEG BANKED_CODE:CODE:NOROOT(0)
//  553 static byte ZDO_CompareClusterLists( byte numList1, uint16 *list1,
ZDO_CompareClusterLists:
        CFI Block cfiBlock7 Using cfiCommon0
        CFI Function ZDO_CompareClusterLists
        CODE
//  554                           byte numList2, uint16 *list2, uint16 *pMatches )
//  555 {
        MOV     A,#-0x10
        LCALL   ?BANKED_ENTER_XDATA
        CFI DPH0 load(1, XDATA, add(CFA_XSP16, literal(-1)))
        CFI DPL0 load(1, XDATA, add(CFA_XSP16, literal(-2)))
        CFI ?BRET_EXT load(1, XDATA, add(CFA_XSP16, literal(-3)))
        CFI ?RET_HIGH load(1, XDATA, add(CFA_XSP16, literal(-4)))
        CFI ?RET_LOW load(1, XDATA, add(CFA_XSP16, literal(-5)))
        CFI R7 load(1, XDATA, add(CFA_XSP16, literal(-6)))
        CFI V7 load(1, XDATA, add(CFA_XSP16, literal(-7)))
        CFI V6 load(1, XDATA, add(CFA_XSP16, literal(-8)))
        CFI V5 load(1, XDATA, add(CFA_XSP16, literal(-9)))
        CFI V4 load(1, XDATA, add(CFA_XSP16, literal(-10)))
        CFI V3 load(1, XDATA, add(CFA_XSP16, literal(-11)))
        CFI V2 load(1, XDATA, add(CFA_XSP16, literal(-12)))
        CFI V1 load(1, XDATA, add(CFA_XSP16, literal(-13)))
        CFI V0 load(1, XDATA, add(CFA_XSP16, literal(-14)))
        CFI VB load(1, XDATA, add(CFA_XSP16, literal(-15)))
        CFI R6 load(1, XDATA, add(CFA_XSP16, literal(-16)))
        CFI CFA_SP SP+0
        CFI CFA_XSP16 add(XSP16, 16)
        ; Saved register size: 16
        ; Auto size: 0
        MOV     ?V0 + 3,R1
        MOV     ?V0 + 2,R4
        MOV     A,#0x10
        LCALL   ?XSTACK_DISP0_8
        MOVX    A,@DPTR
        MOV     R0,A
        INC     DPTR
        MOVX    A,@DPTR
        MOV     R1,A
        MOV     A,R0
        MOV     R4,A
        MOV     A,R1
        MOV     R5,A
        MOV     A,#0x12
        LCALL   ?XSTACK_DISP0_8
        MOVX    A,@DPTR
        MOV     R0,A
        INC     DPTR
        MOVX    A,@DPTR
        MOV     R1,A
        MOV     A,R0
        MOV     R6,A
        MOV     A,R1
        MOV     R7,A
//  556   byte x, y;
//  557   uint16 z;
//  558   byte numMatches = 0;
        MOV     R1,#0x0
//  559 
//  560   // Check the first in against the seconds out
//  561   for ( x = 0; x < numList1; x++ )
        MOV     ?V0 + 7,#0x0
??ZDO_CompareClusterLists_0:
        MOV     A,?V0 + 7
        CLR     C
        SUBB    A,?V0 + 3
        JC      $+5
        LJMP    ??ZDO_CompareClusterLists_1 & 0xFFFF
//  562   {
//  563     for ( y = 0; y < numList2; y++ )
        MOV     ?V0 + 6,#0x0
??ZDO_CompareClusterLists_2:
        MOV     A,?V0 + 6
        CLR     C
        SUBB    A,?V0 + 2
        JC      $+5
        LJMP    ??ZDO_CompareClusterLists_3 & 0xFFFF
//  564     {
//  565       z = list2[y];
        MOV     A,?V0 + 6
        MOV     ?V0 + 0,A
        MOV     ?V0 + 1,#0x0
        MOV     A,?V0 + 0
        MOV     B,#0x2
        MUL     AB
        XCH     A,?V0 + 0
        MOV     R0,B
        MOV     B,#0x0
        MUL     AB
        ADD     A,R0
        MOV     R0,A
        MOV     B,#0x2
        MOV     A,?V0 + 1
        MUL     AB
        ADD     A,R0
        MOV     ?V0 + 1,A
        MOV     A,R4
        ADD     A,?V0 + 0
        MOV     DPL,A
        MOV     A,R5
        ADDC    A,?V0 + 1
        MOV     DPH,A
        MOVX    A,@DPTR
        MOV     ?V0 + 4,A
        INC     DPTR
        MOVX    A,@DPTR
        MOV     ?V0 + 5,A
//  566       if ( list1[x] == z )
        MOV     A,?V0 + 7
        MOV     ?V0 + 0,A
        MOV     ?V0 + 1,#0x0
        MOV     A,?V0 + 0
        MOV     B,#0x2
        MUL     AB
        XCH     A,?V0 + 0
        MOV     R0,B
        MOV     B,#0x0
        MUL     AB
        ADD     A,R0
        MOV     R0,A
        MOV     B,#0x2
        MOV     A,?V0 + 1
        MUL     AB
        ADD     A,R0
        MOV     ?V0 + 1,A
        MOV     A,R2
        ADD     A,?V0 + 0
        MOV     DPL,A
        MOV     A,R3
        ADDC    A,?V0 + 1
        MOV     DPH,A
        MOVX    A,@DPTR
        XRL     A,?V0 + 4
        JNZ     ??ZDO_CompareClusterLists_4
        INC     DPTR
        MOVX    A,@DPTR
        XRL     A,?V0 + 5
??ZDO_CompareClusterLists_4:
        JNZ     ??ZDO_CompareClusterLists_5
//  567       {
//  568         pMatches[numMatches++] = z;
        MOV     A,R1
        MOV     ?V0 + 0,A
        MOV     ?V0 + 1,#0x0
        MOV     A,?V0 + 0
        MOV     B,#0x2
        MUL     AB
        XCH     A,?V0 + 0
        MOV     R0,B
        MOV     B,#0x0
        MUL     AB
        ADD     A,R0
        MOV     R0,A
        MOV     B,#0x2
        MOV     A,?V0 + 1
        MUL     AB
        ADD     A,R0
        MOV     ?V0 + 1,A
        MOV     A,R6
        ADD     A,?V0 + 0
        MOV     DPL,A
        MOV     A,R7
        ADDC    A,?V0 + 1
        MOV     DPH,A
        MOV     A,?V0 + 4
        MOVX    @DPTR,A
        INC     DPTR
        MOV     A,?V0 + 5
        MOVX    @DPTR,A
        INC     R1
//  569       }
//  570     }
??ZDO_CompareClusterLists_5:
        INC     ?V0 + 6
        LJMP    ??ZDO_CompareClusterLists_2 & 0xFFFF
//  571   }
??ZDO_CompareClusterLists_3:
        INC     ?V0 + 7
        LJMP    ??ZDO_CompareClusterLists_0 & 0xFFFF
//  572 
//  573   return ( numMatches );
??ZDO_CompareClusterLists_1:
        MOV     R7,#0x8
        LJMP    ?BANKED_LEAVE_XDATA
        CFI EndBlock cfiBlock7
//  574 }
//  575 
//  576 /*********************************************************************
//  577  * Utility functions
//  578  */
//  579 
//  580 /*********************************************************************
//  581  * @fn          ZDO_CompareByteLists
//  582  *
//  583  * @brief       Compares two lists for matches.
//  584  *
//  585  * @param       ACnt  - number of entries in list A
//  586  * @param       AList  - List A
//  587  * @param       BCnt  - number of entries in list B
//  588  * @param       BList  - List B
//  589  *
//  590  * @return      true if a match is found
//  591  */

        RSEG BANKED_CODE:CODE:NOROOT(0)
//  592 byte ZDO_AnyClusterMatches( byte ACnt, uint16 *AList, byte BCnt, uint16 *BList )
ZDO_AnyClusterMatches:
        CFI Block cfiBlock8 Using cfiCommon0
        CFI Function ZDO_AnyClusterMatches
        CODE
//  593 {
        MOV     A,#-0xd
        LCALL   ?BANKED_ENTER_XDATA
        CFI DPH0 load(1, XDATA, add(CFA_XSP16, literal(-1)))
        CFI DPL0 load(1, XDATA, add(CFA_XSP16, literal(-2)))
        CFI ?BRET_EXT load(1, XDATA, add(CFA_XSP16, literal(-3)))
        CFI ?RET_HIGH load(1, XDATA, add(CFA_XSP16, literal(-4)))
        CFI ?RET_LOW load(1, XDATA, add(CFA_XSP16, literal(-5)))
        CFI R7 load(1, XDATA, add(CFA_XSP16, literal(-6)))
        CFI V4 load(1, XDATA, add(CFA_XSP16, literal(-7)))
        CFI V3 load(1, XDATA, add(CFA_XSP16, literal(-8)))
        CFI V2 load(1, XDATA, add(CFA_XSP16, literal(-9)))
        CFI V1 load(1, XDATA, add(CFA_XSP16, literal(-10)))
        CFI V0 load(1, XDATA, add(CFA_XSP16, literal(-11)))
        CFI VB load(1, XDATA, add(CFA_XSP16, literal(-12)))
        CFI R6 load(1, XDATA, add(CFA_XSP16, literal(-13)))
        CFI CFA_SP SP+0
        CFI CFA_XSP16 add(XSP16, 13)
        ; Saved register size: 13
        ; Auto size: 0
        MOV     ?V0 + 4,R1
        MOV     ?V0 + 0,R4
        MOV     A,#0xd
        LCALL   ?XSTACK_DISP0_8
        MOVX    A,@DPTR
        MOV     R0,A
        INC     DPTR
        MOVX    A,@DPTR
        MOV     R1,A
        MOV     A,R0
        MOV     R4,A
        MOV     A,R1
        MOV     R5,A
//  594   byte x, y;
//  595 
//  596   for ( x = 0; x < ACnt; x++ )
        MOV     ?V0 + 3,#0x0
??ZDO_AnyClusterMatches_0:
        MOV     A,?V0 + 3
        CLR     C
        SUBB    A,?V0 + 4
        JNC     ??ZDO_AnyClusterMatches_1
//  597   {
//  598     for ( y = 0; y < BCnt; y++ )
        MOV     ?V0 + 2,#0x0
??ZDO_AnyClusterMatches_2:
        MOV     A,?V0 + 2
        CLR     C
        SUBB    A,?V0 + 0
        JNC     ??ZDO_AnyClusterMatches_3
//  599     {
//  600       if ( AList[x] == BList[y] )
        MOV     A,?V0 + 3
        MOV     R0,?V0 + 3
        MOV     R1,#0x0
        MOV     A,R0
        MOV     B,#0x2
        MUL     AB
        XCH     A,R0
        MOV     R6,B
        MOV     B,#0x0
        MUL     AB
        ADD     A,R6
        MOV     R6,A
        MOV     B,#0x2
        MOV     A,R1
        MUL     AB
        ADD     A,R6
        MOV     R1,A
        MOV     A,R2
        ADD     A,R0
        MOV     DPL,A
        MOV     A,R3
        ADDC    A,R1
        MOV     DPH,A
        MOVX    A,@DPTR
        MOV     R0,A
        INC     DPTR
        MOVX    A,@DPTR
        MOV     R1,A
        MOV     A,?V0 + 2
        MOV     R6,?V0 + 2
        MOV     R7,#0x0
        MOV     A,R6
        MOV     B,#0x2
        MUL     AB
        XCH     A,R6
        MOV     ?V0 + 1,B
        MOV     B,#0x0
        MUL     AB
        ADD     A,?V0 + 1
        MOV     ?V0 + 1,A
        MOV     B,#0x2
        MOV     A,R7
        MUL     AB
        ADD     A,?V0 + 1
        MOV     R7,A
        MOV     A,R4
        ADD     A,R6
        MOV     DPL,A
        MOV     A,R5
        ADDC    A,R7
        MOV     DPH,A
        MOVX    A,@DPTR
        XRL     A,R0
        JNZ     ??ZDO_AnyClusterMatches_4
        INC     DPTR
        MOVX    A,@DPTR
        XRL     A,R1
??ZDO_AnyClusterMatches_4:
        JNZ     ??ZDO_AnyClusterMatches_5
//  601       {
//  602         return true;
        MOV     R1,#0x1
        SJMP    ??ZDO_AnyClusterMatches_6
//  603       }
//  604     }
??ZDO_AnyClusterMatches_5:
        INC     ?V0 + 2
        SJMP    ??ZDO_AnyClusterMatches_2
//  605   }
??ZDO_AnyClusterMatches_3:
        INC     ?V0 + 3
        SJMP    ??ZDO_AnyClusterMatches_0
//  606 
//  607   return false;
??ZDO_AnyClusterMatches_1:
        MOV     R1,#0x0
??ZDO_AnyClusterMatches_6:
        MOV     R7,#0x5
        LJMP    ?BANKED_LEAVE_XDATA
        CFI EndBlock cfiBlock8
//  608 }
//  609 
//  610 /*********************************************************************
//  611  * Callback functions from ZDProfile
//  612  */
//  613 
//  614 /*********************************************************************
//  615  * @fn          ZDO_ProcessNodeDescReq
//  616  *
//  617  * @brief       This function processes and responds to the
//  618  *              Node_Desc_req message.
//  619  *
//  620  * @param       inMsg - incoming message
//  621  *
//  622  * @return      none
//  623  */

        RSEG BANKED_CODE:CODE:NOROOT(0)
//  624 void ZDO_ProcessNodeDescReq( zdoIncomingMsg_t *inMsg )
ZDO_ProcessNodeDescReq:
        CFI Block cfiBlock9 Using cfiCommon0
        CFI Function ZDO_ProcessNodeDescReq
        CODE
//  625 {
        FUNCALL ZDO_ProcessNodeDescReq, ZDP_NodeDescMsg
        LOCFRAME ISTACK, 0, STACK
        LOCFRAME PSTACK, 0, STACK
        LOCFRAME XSTACK, 16, STACK
        LOCFRAME IOVERLAY, 0, STATIC
        LOCFRAME DOVERLAY, 0, STATIC
        ARGFRAME ISTACK, 0, STACK
        ARGFRAME PSTACK, 0, STACK
        ARGFRAME XSTACK, 16, STACK
        ARGFRAME IOVERLAY, 0, STATIC
        ARGFRAME DOVERLAY, 0, STATIC
        FUNCALL ZDO_ProcessNodeDescReq, ZDP_GenericRsp
        LOCFRAME ISTACK, 0, STACK
        LOCFRAME PSTACK, 0, STACK
        LOCFRAME XSTACK, 18, STACK
        LOCFRAME IOVERLAY, 0, STATIC
        LOCFRAME DOVERLAY, 0, STATIC
        ARGFRAME ISTACK, 0, STACK
        ARGFRAME PSTACK, 0, STACK
        ARGFRAME XSTACK, 18, STACK
        ARGFRAME IOVERLAY, 0, STATIC
        ARGFRAME DOVERLAY, 0, STATIC
        MOV     A,#-0xe
        LCALL   ?BANKED_ENTER_XDATA
        CFI DPH0 load(1, XDATA, add(CFA_XSP16, literal(-1)))
        CFI DPL0 load(1, XDATA, add(CFA_XSP16, literal(-2)))
        CFI ?BRET_EXT load(1, XDATA, add(CFA_XSP16, literal(-3)))
        CFI ?RET_HIGH load(1, XDATA, add(CFA_XSP16, literal(-4)))
        CFI ?RET_LOW load(1, XDATA, add(CFA_XSP16, literal(-5)))
        CFI R7 load(1, XDATA, add(CFA_XSP16, literal(-6)))
        CFI V5 load(1, XDATA, add(CFA_XSP16, literal(-7)))
        CFI V4 load(1, XDATA, add(CFA_XSP16, literal(-8)))
        CFI V3 load(1, XDATA, add(CFA_XSP16, literal(-9)))
        CFI V2 load(1, XDATA, add(CFA_XSP16, literal(-10)))
        CFI V1 load(1, XDATA, add(CFA_XSP16, literal(-11)))
        CFI V0 load(1, XDATA, add(CFA_XSP16, literal(-12)))
        CFI VB load(1, XDATA, add(CFA_XSP16, literal(-13)))
        CFI R6 load(1, XDATA, add(CFA_XSP16, literal(-14)))
        CFI CFA_SP SP+0
        CFI CFA_XSP16 add(XSP16, 14)
        ; Saved register size: 14
        ; Auto size: 0
        MOV     A,R2
        MOV     R6,A
        MOV     A,R3
        MOV     R7,A
//  626   uint16 aoi = BUILD_UINT16( inMsg->asdu[0], inMsg->asdu[1] );
        MOV     A,R6
        ADD     A,#0x13
        MOV     DPL,A
        MOV     A,R7
        ADDC    A,#0x0
        MOV     DPH,A
        MOVX    A,@DPTR
        MOV     R0,A
        INC     DPTR
        MOVX    A,@DPTR
        MOV     DPH,A
        MOV     DPL,R0
        MOVX    A,@DPTR
        MOV     R2,A
        MOV     R3,#0x0
        MOV     A,R6
        ADD     A,#0x13
        MOV     DPL,A
        MOV     A,R7
        ADDC    A,#0x0
        MOV     DPH,A
        MOVX    A,@DPTR
        MOV     R0,A
        INC     DPTR
        MOVX    A,@DPTR
        MOV     DPH,A
        MOV     DPL,R0
        INC     DPTR
        MOVX    A,@DPTR
        MOV     R0,A
        MOV     R1,#0x0
        CLR     A
        XCH     A,R0
        MOV     R1,A
        MOV     A,R2
        ADD     A,R0
        MOV     ?V0 + 0,A
        MOV     A,R3
        ADDC    A,R1
        MOV     ?V0 + 1,A
//  627   NodeDescriptorFormat_t *desc = NULL;
        MOV     ?V0 + 2,#0x0
        MOV     ?V0 + 3,#0x0
//  628 
//  629   if ( aoi == ZDAppNwkAddr.addr.shortAddr )
        MOV     DPTR,#ZDAppNwkAddr
        MOVX    A,@DPTR
        XRL     A,?V0 + 0
        JNZ     ??ZDO_ProcessNodeDescReq_0
        INC     DPTR
        MOVX    A,@DPTR
        XRL     A,?V0 + 1
??ZDO_ProcessNodeDescReq_0:
        JNZ     ??ZDO_ProcessNodeDescReq_1
//  630   {
//  631     desc = &ZDO_Config_Node_Descriptor;
        MOV     ?V0 + 2,#ZDO_Config_Node_Descriptor & 0xff
        MOV     ?V0 + 3,#(ZDO_Config_Node_Descriptor >> 8) & 0xff
//  632   }
//  633 
//  634   if ( desc != NULL )
??ZDO_ProcessNodeDescReq_1:
        MOV     A,?V0 + 2
        ORL     A,?V0 + 3
        JZ      ??ZDO_ProcessNodeDescReq_2
//  635   {
//  636     ZDP_NodeDescMsg( inMsg, aoi, desc );
        ; Setup parameters for call to function ZDP_NodeDescMsg
        MOV     R0,#?V0 + 2
        LCALL   ?PUSH_XSTACK_I_TWO
        CFI CFA_XSP16 add(XSP16, 16)
        MOV     R4,?V0 + 0
        MOV     R5,?V0 + 1
        MOV     A,R6
        MOV     R2,A
        MOV     A,R7
        MOV     R3,A
        LCALL   ??ZDP_NodeDescMsg?relay
        MOV     A,#0x2
        LCALL   ?DEALLOC_XSTACK8
        CFI CFA_XSP16 add(XSP16, 14)
        MOV     A,R1
        SJMP    ??ZDO_ProcessNodeDescReq_3
//  637   }
//  638   else
//  639   {
//  640     ZDP_GenericRsp( inMsg->TransSeq, &(inMsg->srcAddr),
//  641               ZDP_INVALID_REQTYPE, aoi, Node_Desc_rsp, inMsg->SecurityUse );
??ZDO_ProcessNodeDescReq_2:
        ; Setup parameters for call to function ZDP_GenericRsp
        MOV     ?V0 + 4,#0x2
        MOV     ?V0 + 5,#-0x80
        MOV     R0,#?V0 + 4
        LCALL   ?PUSH_XSTACK_I_TWO
        CFI CFA_XSP16 add(XSP16, 16)
        MOV     R0,#?V0 + 0
        LCALL   ?PUSH_XSTACK_I_TWO
        CFI CFA_XSP16 add(XSP16, 18)
        MOV     A,R6
        ADD     A,#0xe
        MOV     DPL,A
        MOV     A,R7
        ADDC    A,#0x0
        MOV     DPH,A
        MOVX    A,@DPTR
        MOV     R5,A
        MOV     R4,#-0x80
        MOV     A,R6
        ADD     A,#0x2
        MOV     R2,A
        MOV     A,R7
        ADDC    A,#0x0
        MOV     R3,A
        MOV     A,R6
        ADD     A,#0xf
        MOV     DPL,A
        MOV     A,R7
        ADDC    A,#0x0
        MOV     DPH,A
        MOVX    A,@DPTR
        MOV     R1,A
        LCALL   ??ZDP_GenericRsp?relay
        MOV     A,#0x4
        LCALL   ?DEALLOC_XSTACK8
        CFI CFA_XSP16 add(XSP16, 14)
        MOV     A,R1
//  642   }
//  643 }
??ZDO_ProcessNodeDescReq_3:
        MOV     R7,#0x6
        LJMP    ?BANKED_LEAVE_XDATA
        CFI EndBlock cfiBlock9
//  644 
//  645 /*********************************************************************
//  646  * @fn          ZDO_ProcessPowerDescReq
//  647  *
//  648  * @brief       This function processes and responds to the
//  649  *              Node_Power_req message.
//  650  *
//  651  * @param       inMsg  - incoming request
//  652  *
//  653  * @return      none
//  654  */

        RSEG BANKED_CODE:CODE:NOROOT(0)
//  655 void ZDO_ProcessPowerDescReq( zdoIncomingMsg_t *inMsg )
ZDO_ProcessPowerDescReq:
        CFI Block cfiBlock10 Using cfiCommon0
        CFI Function ZDO_ProcessPowerDescReq
        CODE
//  656 {
        FUNCALL ZDO_ProcessPowerDescReq, ZDP_PowerDescMsg
        LOCFRAME ISTACK, 0, STACK
        LOCFRAME PSTACK, 0, STACK
        LOCFRAME XSTACK, 16, STACK
        LOCFRAME IOVERLAY, 0, STATIC
        LOCFRAME DOVERLAY, 0, STATIC
        ARGFRAME ISTACK, 0, STACK
        ARGFRAME PSTACK, 0, STACK
        ARGFRAME XSTACK, 16, STACK
        ARGFRAME IOVERLAY, 0, STATIC
        ARGFRAME DOVERLAY, 0, STATIC
        FUNCALL ZDO_ProcessPowerDescReq, ZDP_GenericRsp
        LOCFRAME ISTACK, 0, STACK
        LOCFRAME PSTACK, 0, STACK
        LOCFRAME XSTACK, 18, STACK
        LOCFRAME IOVERLAY, 0, STATIC
        LOCFRAME DOVERLAY, 0, STATIC
        ARGFRAME ISTACK, 0, STACK
        ARGFRAME PSTACK, 0, STACK
        ARGFRAME XSTACK, 18, STACK
        ARGFRAME IOVERLAY, 0, STATIC
        ARGFRAME DOVERLAY, 0, STATIC
        MOV     A,#-0xe
        LCALL   ?BANKED_ENTER_XDATA
        CFI DPH0 load(1, XDATA, add(CFA_XSP16, literal(-1)))
        CFI DPL0 load(1, XDATA, add(CFA_XSP16, literal(-2)))
        CFI ?BRET_EXT load(1, XDATA, add(CFA_XSP16, literal(-3)))
        CFI ?RET_HIGH load(1, XDATA, add(CFA_XSP16, literal(-4)))
        CFI ?RET_LOW load(1, XDATA, add(CFA_XSP16, literal(-5)))
        CFI R7 load(1, XDATA, add(CFA_XSP16, literal(-6)))
        CFI V5 load(1, XDATA, add(CFA_XSP16, literal(-7)))
        CFI V4 load(1, XDATA, add(CFA_XSP16, literal(-8)))
        CFI V3 load(1, XDATA, add(CFA_XSP16, literal(-9)))
        CFI V2 load(1, XDATA, add(CFA_XSP16, literal(-10)))
        CFI V1 load(1, XDATA, add(CFA_XSP16, literal(-11)))
        CFI V0 load(1, XDATA, add(CFA_XSP16, literal(-12)))
        CFI VB load(1, XDATA, add(CFA_XSP16, literal(-13)))
        CFI R6 load(1, XDATA, add(CFA_XSP16, literal(-14)))
        CFI CFA_SP SP+0
        CFI CFA_XSP16 add(XSP16, 14)
        ; Saved register size: 14
        ; Auto size: 0
        MOV     A,R2
        MOV     R6,A
        MOV     A,R3
        MOV     R7,A
//  657   uint16 aoi = BUILD_UINT16( inMsg->asdu[0], inMsg->asdu[1] );
        MOV     A,R6
        ADD     A,#0x13
        MOV     DPL,A
        MOV     A,R7
        ADDC    A,#0x0
        MOV     DPH,A
        MOVX    A,@DPTR
        MOV     R0,A
        INC     DPTR
        MOVX    A,@DPTR
        MOV     DPH,A
        MOV     DPL,R0
        MOVX    A,@DPTR
        MOV     R2,A
        MOV     R3,#0x0
        MOV     A,R6
        ADD     A,#0x13
        MOV     DPL,A
        MOV     A,R7
        ADDC    A,#0x0
        MOV     DPH,A
        MOVX    A,@DPTR
        MOV     R0,A
        INC     DPTR
        MOVX    A,@DPTR
        MOV     DPH,A
        MOV     DPL,R0
        INC     DPTR
        MOVX    A,@DPTR
        MOV     R0,A
        MOV     R1,#0x0
        CLR     A
        XCH     A,R0
        MOV     R1,A
        MOV     A,R2
        ADD     A,R0
        MOV     ?V0 + 0,A
        MOV     A,R3
        ADDC    A,R1
        MOV     ?V0 + 1,A
//  658   NodePowerDescriptorFormat_t *desc = NULL;
        MOV     ?V0 + 2,#0x0
        MOV     ?V0 + 3,#0x0
//  659 
//  660   if ( aoi == ZDAppNwkAddr.addr.shortAddr )
        MOV     DPTR,#ZDAppNwkAddr
        MOVX    A,@DPTR
        XRL     A,?V0 + 0
        JNZ     ??ZDO_ProcessPowerDescReq_0
        INC     DPTR
        MOVX    A,@DPTR
        XRL     A,?V0 + 1
??ZDO_ProcessPowerDescReq_0:
        JNZ     ??ZDO_ProcessPowerDescReq_1
//  661   {
//  662     desc = &ZDO_Config_Power_Descriptor;
        MOV     ?V0 + 2,#ZDO_Config_Power_Descriptor & 0xff
        MOV     ?V0 + 3,#(ZDO_Config_Power_Descriptor >> 8) & 0xff
//  663   }
//  664 
//  665   if ( desc != NULL )
??ZDO_ProcessPowerDescReq_1:
        MOV     A,?V0 + 2
        ORL     A,?V0 + 3
        JZ      ??ZDO_ProcessPowerDescReq_2
//  666   {
//  667     ZDP_PowerDescMsg( inMsg, aoi, desc );
        ; Setup parameters for call to function ZDP_PowerDescMsg
        MOV     R0,#?V0 + 2
        LCALL   ?PUSH_XSTACK_I_TWO
        CFI CFA_XSP16 add(XSP16, 16)
        MOV     R4,?V0 + 0
        MOV     R5,?V0 + 1
        MOV     A,R6
        MOV     R2,A
        MOV     A,R7
        MOV     R3,A
        LCALL   ??ZDP_PowerDescMsg?relay
        MOV     A,#0x2
        LCALL   ?DEALLOC_XSTACK8
        CFI CFA_XSP16 add(XSP16, 14)
        MOV     A,R1
        SJMP    ??ZDO_ProcessPowerDescReq_3
//  668   }
//  669   else
//  670   {
//  671     ZDP_GenericRsp( inMsg->TransSeq, &(inMsg->srcAddr),
//  672               ZDP_INVALID_REQTYPE, aoi, Power_Desc_rsp, inMsg->SecurityUse );
??ZDO_ProcessPowerDescReq_2:
        ; Setup parameters for call to function ZDP_GenericRsp
        MOV     ?V0 + 4,#0x3
        MOV     ?V0 + 5,#-0x80
        MOV     R0,#?V0 + 4
        LCALL   ?PUSH_XSTACK_I_TWO
        CFI CFA_XSP16 add(XSP16, 16)
        MOV     R0,#?V0 + 0
        LCALL   ?PUSH_XSTACK_I_TWO
        CFI CFA_XSP16 add(XSP16, 18)
        MOV     A,R6
        ADD     A,#0xe
        MOV     DPL,A
        MOV     A,R7
        ADDC    A,#0x0
        MOV     DPH,A
        MOVX    A,@DPTR
        MOV     R5,A
        MOV     R4,#-0x80
        MOV     A,R6
        ADD     A,#0x2
        MOV     R2,A
        MOV     A,R7
        ADDC    A,#0x0
        MOV     R3,A
        MOV     A,R6
        ADD     A,#0xf
        MOV     DPL,A
        MOV     A,R7
        ADDC    A,#0x0
        MOV     DPH,A
        MOVX    A,@DPTR
        MOV     R1,A
        LCALL   ??ZDP_GenericRsp?relay
        MOV     A,#0x4
        LCALL   ?DEALLOC_XSTACK8
        CFI CFA_XSP16 add(XSP16, 14)
        MOV     A,R1
//  673   }
//  674 }
??ZDO_ProcessPowerDescReq_3:
        MOV     R7,#0x6
        LJMP    ?BANKED_LEAVE_XDATA
        CFI EndBlock cfiBlock10
//  675 
//  676 /*********************************************************************
//  677  * @fn          ZDO_ProcessSimpleDescReq
//  678  *
//  679  * @brief       This function processes and responds to the
//  680  *              Simple_Desc_req message.
//  681  *
//  682  * @param       inMsg - incoming message (request)
//  683  *
//  684  * @return      none
//  685  */

        RSEG BANKED_CODE:CODE:NOROOT(0)
//  686 void ZDO_ProcessSimpleDescReq( zdoIncomingMsg_t *inMsg )
ZDO_ProcessSimpleDescReq:
        CFI Block cfiBlock11 Using cfiCommon0
        CFI Function ZDO_ProcessSimpleDescReq
        CODE
//  687 {
        FUNCALL ZDO_ProcessSimpleDescReq, afFindSimpleDesc
        LOCFRAME ISTACK, 0, STACK
        LOCFRAME PSTACK, 0, STACK
        LOCFRAME XSTACK, 15, STACK
        LOCFRAME IOVERLAY, 0, STATIC
        LOCFRAME DOVERLAY, 0, STATIC
        ARGFRAME ISTACK, 0, STACK
        ARGFRAME PSTACK, 0, STACK
        ARGFRAME XSTACK, 15, STACK
        ARGFRAME IOVERLAY, 0, STATIC
        ARGFRAME DOVERLAY, 0, STATIC
        FUNCALL ZDO_ProcessSimpleDescReq, ZDP_SimpleDescMsg
        LOCFRAME ISTACK, 0, STACK
        LOCFRAME PSTACK, 0, STACK
        LOCFRAME XSTACK, 15, STACK
        LOCFRAME IOVERLAY, 0, STATIC
        LOCFRAME DOVERLAY, 0, STATIC
        ARGFRAME ISTACK, 0, STACK
        ARGFRAME PSTACK, 0, STACK
        ARGFRAME XSTACK, 15, STACK
        ARGFRAME IOVERLAY, 0, STATIC
        ARGFRAME DOVERLAY, 0, STATIC
        FUNCALL ZDO_ProcessSimpleDescReq, osal_mem_free
        LOCFRAME ISTACK, 0, STACK
        LOCFRAME PSTACK, 0, STACK
        LOCFRAME XSTACK, 15, STACK
        LOCFRAME IOVERLAY, 0, STATIC
        LOCFRAME DOVERLAY, 0, STATIC
        ARGFRAME ISTACK, 0, STACK
        ARGFRAME PSTACK, 0, STACK
        ARGFRAME XSTACK, 15, STACK
        ARGFRAME IOVERLAY, 0, STATIC
        ARGFRAME DOVERLAY, 0, STATIC
        MOV     A,#-0xd
        LCALL   ?BANKED_ENTER_XDATA
        CFI DPH0 load(1, XDATA, add(CFA_XSP16, literal(-1)))
        CFI DPL0 load(1, XDATA, add(CFA_XSP16, literal(-2)))
        CFI ?BRET_EXT load(1, XDATA, add(CFA_XSP16, literal(-3)))
        CFI ?RET_HIGH load(1, XDATA, add(CFA_XSP16, literal(-4)))
        CFI ?RET_LOW load(1, XDATA, add(CFA_XSP16, literal(-5)))
        CFI R7 load(1, XDATA, add(CFA_XSP16, literal(-6)))
        CFI V4 load(1, XDATA, add(CFA_XSP16, literal(-7)))
        CFI V3 load(1, XDATA, add(CFA_XSP16, literal(-8)))
        CFI V2 load(1, XDATA, add(CFA_XSP16, literal(-9)))
        CFI V1 load(1, XDATA, add(CFA_XSP16, literal(-10)))
        CFI V0 load(1, XDATA, add(CFA_XSP16, literal(-11)))
        CFI VB load(1, XDATA, add(CFA_XSP16, literal(-12)))
        CFI R6 load(1, XDATA, add(CFA_XSP16, literal(-13)))
        CFI CFA_SP SP+0
        CFI CFA_XSP16 add(XSP16, 13)
        ; Saved register size: 13
        ; Auto size: 2
        MOV     A,#-0x2
        LCALL   ?ALLOC_XSTACK8
        CFI CFA_XSP16 add(XSP16, 15)
        MOV     ?V0 + 0,R2
        MOV     ?V0 + 1,R3
//  688   SimpleDescriptionFormat_t *sDesc = NULL;
        MOV     DPL,?XSP + 0
        MOV     DPH,?XSP + 1
        MOV     A,#0x0
        MOVX    @DPTR,A
        INC     DPTR
        MOV     A,#0x0
        MOVX    @DPTR,A
//  689   uint16 aoi = BUILD_UINT16( inMsg->asdu[0], inMsg->asdu[1] );
        MOV     A,?V0 + 0
        ADD     A,#0x13
        MOV     DPL,A
        MOV     A,?V0 + 1
        ADDC    A,#0x0
        MOV     DPH,A
        MOVX    A,@DPTR
        MOV     R0,A
        INC     DPTR
        MOVX    A,@DPTR
        MOV     DPH,A
        MOV     DPL,R0
        MOVX    A,@DPTR
        MOV     R2,A
        MOV     R3,#0x0
        MOV     A,?V0 + 0
        ADD     A,#0x13
        MOV     DPL,A
        MOV     A,?V0 + 1
        ADDC    A,#0x0
        MOV     DPH,A
        MOVX    A,@DPTR
        MOV     R0,A
        INC     DPTR
        MOVX    A,@DPTR
        MOV     DPH,A
        MOV     DPL,R0
        INC     DPTR
        MOVX    A,@DPTR
        MOV     R0,A
        MOV     R1,#0x0
        CLR     A
        XCH     A,R0
        MOV     R1,A
        MOV     A,R2
        ADD     A,R0
        MOV     R6,A
        MOV     A,R3
        ADDC    A,R1
        MOV     R7,A
//  690   byte endPoint = inMsg->asdu[2];
        MOV     A,?V0 + 0
        ADD     A,#0x13
        MOV     DPL,A
        MOV     A,?V0 + 1
        ADDC    A,#0x0
        MOV     DPH,A
        MOVX    A,@DPTR
        MOV     R0,A
        INC     DPTR
        MOVX    A,@DPTR
        MOV     DPH,A
        MOV     DPL,R0
        INC     DPTR
        INC     DPTR
        MOVX    A,@DPTR
        MOV     ?V0 + 2,A
//  691   byte free = false;
        MOV     ?V0 + 3,#0x0
//  692   byte stat = ZDP_SUCCESS;
        MOV     ?V0 + 4,#0x0
//  693 
//  694   if ( (endPoint == ZDO_EP) || (endPoint > MAX_ENDPOINTS) )
        MOV     A,?V0 + 2
        JZ      ??ZDO_ProcessSimpleDescReq_0
        MOV     A,?V0 + 2
        CLR     C
        SUBB    A,#-0xf
        JC      ??ZDO_ProcessSimpleDescReq_1
//  695   {
//  696     stat = ZDP_INVALID_EP;
??ZDO_ProcessSimpleDescReq_0:
        MOV     ?V0 + 4,#-0x7e
        SJMP    ??ZDO_ProcessSimpleDescReq_2
//  697   }
//  698   else if ( aoi == ZDAppNwkAddr.addr.shortAddr )
??ZDO_ProcessSimpleDescReq_1:
        MOV     DPTR,#ZDAppNwkAddr
        MOVX    A,@DPTR
        XRL     A,R6
        JNZ     ??ZDO_ProcessSimpleDescReq_3
        INC     DPTR
        MOVX    A,@DPTR
        XRL     A,R7
??ZDO_ProcessSimpleDescReq_3:
        JNZ     ??ZDO_ProcessSimpleDescReq_4
//  699   {
//  700     free = afFindSimpleDesc( &sDesc, endPoint );
        ; Setup parameters for call to function afFindSimpleDesc
        MOV     R1,?V0 + 2
        MOV     DPL,?XSP + 0
        MOV     DPH,?XSP + 1
        MOV     R2,DPL
        MOV     R3,DPH
        LCALL   ??afFindSimpleDesc?relay
        MOV     A,R1
        MOV     ?V0 + 3,A
//  701     if ( sDesc == NULL )
        MOV     DPL,?XSP + 0
        MOV     DPH,?XSP + 1
        MOVX    A,@DPTR
        MOV     R0,A
        INC     DPTR
        MOVX    A,@DPTR
        MOV     R1,A
        MOV     A,R0
        ORL     A,R1
        JNZ     ??ZDO_ProcessSimpleDescReq_2
//  702     {
//  703       stat = ZDP_NOT_ACTIVE;
        MOV     ?V0 + 4,#-0x7d
        SJMP    ??ZDO_ProcessSimpleDescReq_2
//  704     }
//  705   }
//  706   else
//  707   {
//  708     if ( ZSTACK_ROUTER_BUILD )
//  709     {
//  710       stat = ZDP_DEVICE_NOT_FOUND;
//  711     }
//  712     else if ( ZSTACK_END_DEVICE_BUILD )
//  713     {
//  714       stat = ZDP_INVALID_REQTYPE;
??ZDO_ProcessSimpleDescReq_4:
        MOV     ?V0 + 4,#-0x80
//  715     }
//  716   }
//  717 
//  718   ZDP_SimpleDescMsg( inMsg, stat, sDesc );
??ZDO_ProcessSimpleDescReq_2:
        ; Setup parameters for call to function ZDP_SimpleDescMsg
        MOV     DPL,?XSP + 0
        MOV     DPH,?XSP + 1
        MOVX    A,@DPTR
        MOV     R4,A
        INC     DPTR
        MOVX    A,@DPTR
        MOV     R5,A
        MOV     R1,?V0 + 4
        MOV     R2,?V0 + 0
        MOV     R3,?V0 + 1
        LCALL   ??ZDP_SimpleDescMsg?relay
        MOV     A,R1
//  719 
//  720   if ( free && sDesc )
        MOV     A,?V0 + 3
        JZ      ??ZDO_ProcessSimpleDescReq_5
        MOV     DPL,?XSP + 0
        MOV     DPH,?XSP + 1
        MOVX    A,@DPTR
        MOV     R0,A
        INC     DPTR
        MOVX    A,@DPTR
        MOV     R1,A
        MOV     A,R0
        ORL     A,R1
        JZ      ??ZDO_ProcessSimpleDescReq_5
//  721   {
//  722     osal_mem_free( sDesc );
        ; Setup parameters for call to function osal_mem_free
        MOV     DPL,?XSP + 0
        MOV     DPH,?XSP + 1
        MOVX    A,@DPTR
        MOV     R2,A
        INC     DPTR
        MOVX    A,@DPTR
        MOV     R3,A
        LCALL   ??osal_mem_free?relay
//  723   }
//  724 }
??ZDO_ProcessSimpleDescReq_5:
        MOV     A,#0x2
        LCALL   ?DEALLOC_XSTACK8
        CFI CFA_XSP16 add(XSP16, 13)
        MOV     R7,#0x5
        LJMP    ?BANKED_LEAVE_XDATA
        CFI EndBlock cfiBlock11
//  725 
//  726 /*********************************************************************
//  727  * @fn          ZDO_ProcessActiveEPReq
//  728  *
//  729  * @brief       This function processes and responds to the
//  730  *              Active_EP_req message.
//  731  *
//  732  * @param       inMsg  - incoming message (request)
//  733  *
//  734  * @return      none
//  735  */

        RSEG BANKED_CODE:CODE:NOROOT(0)
//  736 void ZDO_ProcessActiveEPReq( zdoIncomingMsg_t *inMsg )
ZDO_ProcessActiveEPReq:
        CFI Block cfiBlock12 Using cfiCommon0
        CFI Function ZDO_ProcessActiveEPReq
        CODE
//  737 {
        FUNCALL ZDO_ProcessActiveEPReq, NLME_GetShortAddr
        LOCFRAME ISTACK, 0, STACK
        LOCFRAME PSTACK, 0, STACK
        LOCFRAME XSTACK, 14, STACK
        LOCFRAME IOVERLAY, 0, STATIC
        LOCFRAME DOVERLAY, 0, STATIC
        ARGFRAME ISTACK, 0, STACK
        ARGFRAME PSTACK, 0, STACK
        ARGFRAME XSTACK, 14, STACK
        ARGFRAME IOVERLAY, 0, STATIC
        ARGFRAME DOVERLAY, 0, STATIC
        FUNCALL ZDO_ProcessActiveEPReq, afNumEndPoints
        LOCFRAME ISTACK, 0, STACK
        LOCFRAME PSTACK, 0, STACK
        LOCFRAME XSTACK, 14, STACK
        LOCFRAME IOVERLAY, 0, STATIC
        LOCFRAME DOVERLAY, 0, STATIC
        ARGFRAME ISTACK, 0, STACK
        ARGFRAME PSTACK, 0, STACK
        ARGFRAME XSTACK, 14, STACK
        ARGFRAME IOVERLAY, 0, STATIC
        ARGFRAME DOVERLAY, 0, STATIC
        FUNCALL ZDO_ProcessActiveEPReq, afEndPoints
        LOCFRAME ISTACK, 0, STACK
        LOCFRAME PSTACK, 0, STACK
        LOCFRAME XSTACK, 14, STACK
        LOCFRAME IOVERLAY, 0, STATIC
        LOCFRAME DOVERLAY, 0, STATIC
        ARGFRAME ISTACK, 0, STACK
        ARGFRAME PSTACK, 0, STACK
        ARGFRAME XSTACK, 14, STACK
        ARGFRAME IOVERLAY, 0, STATIC
        ARGFRAME DOVERLAY, 0, STATIC
        FUNCALL ZDO_ProcessActiveEPReq, ZDP_EPRsp
        LOCFRAME ISTACK, 0, STACK
        LOCFRAME PSTACK, 0, STACK
        LOCFRAME XSTACK, 21, STACK
        LOCFRAME IOVERLAY, 0, STATIC
        LOCFRAME DOVERLAY, 0, STATIC
        ARGFRAME ISTACK, 0, STACK
        ARGFRAME PSTACK, 0, STACK
        ARGFRAME XSTACK, 21, STACK
        ARGFRAME IOVERLAY, 0, STATIC
        ARGFRAME DOVERLAY, 0, STATIC
        MOV     A,#-0xe
        LCALL   ?BANKED_ENTER_XDATA
        CFI DPH0 load(1, XDATA, add(CFA_XSP16, literal(-1)))
        CFI DPL0 load(1, XDATA, add(CFA_XSP16, literal(-2)))
        CFI ?BRET_EXT load(1, XDATA, add(CFA_XSP16, literal(-3)))
        CFI ?RET_HIGH load(1, XDATA, add(CFA_XSP16, literal(-4)))
        CFI ?RET_LOW load(1, XDATA, add(CFA_XSP16, literal(-5)))
        CFI R7 load(1, XDATA, add(CFA_XSP16, literal(-6)))
        CFI V5 load(1, XDATA, add(CFA_XSP16, literal(-7)))
        CFI V4 load(1, XDATA, add(CFA_XSP16, literal(-8)))
        CFI V3 load(1, XDATA, add(CFA_XSP16, literal(-9)))
        CFI V2 load(1, XDATA, add(CFA_XSP16, literal(-10)))
        CFI V1 load(1, XDATA, add(CFA_XSP16, literal(-11)))
        CFI V0 load(1, XDATA, add(CFA_XSP16, literal(-12)))
        CFI VB load(1, XDATA, add(CFA_XSP16, literal(-13)))
        CFI R6 load(1, XDATA, add(CFA_XSP16, literal(-14)))
        CFI CFA_SP SP+0
        CFI CFA_XSP16 add(XSP16, 14)
        ; Saved register size: 14
        ; Auto size: 0
        MOV     A,R2
        MOV     R6,A
        MOV     A,R3
        MOV     R7,A
//  738   byte cnt = 0;
        MOV     ?V0 + 0,#0x0
//  739   uint16 aoi;
//  740   byte stat = ZDP_SUCCESS;
        MOV     ?V0 + 1,#0x0
//  741 
//  742   aoi = BUILD_UINT16( inMsg->asdu[0], inMsg->asdu[1] );
        MOV     A,R6
        ADD     A,#0x13
        MOV     DPL,A
        MOV     A,R7
        ADDC    A,#0x0
        MOV     DPH,A
        MOVX    A,@DPTR
        MOV     R0,A
        INC     DPTR
        MOVX    A,@DPTR
        MOV     DPH,A
        MOV     DPL,R0
        MOVX    A,@DPTR
        MOV     R2,A
        MOV     R3,#0x0
        MOV     A,R6
        ADD     A,#0x13
        MOV     DPL,A
        MOV     A,R7
        ADDC    A,#0x0
        MOV     DPH,A
        MOVX    A,@DPTR
        MOV     R0,A
        INC     DPTR
        MOVX    A,@DPTR
        MOV     DPH,A
        MOV     DPL,R0
        INC     DPTR
        MOVX    A,@DPTR
        MOV     R0,A
        MOV     R1,#0x0
        CLR     A
        XCH     A,R0
        MOV     R1,A
        MOV     A,R2
        ADD     A,R0
        MOV     R0,A
        MOV     A,R3
        ADDC    A,R1
        MOV     R1,A
        MOV     ?V0 + 2,R0
        MOV     ?V0 + 3,R1
//  743 
//  744   if ( aoi == NLME_GetShortAddr() )
        ; Setup parameters for call to function NLME_GetShortAddr
        LCALL   ??NLME_GetShortAddr?relay
        MOV     ?V0 + 4,R2
        MOV     ?V0 + 5,R3
        MOV     A,?V0 + 4
        XRL     A,?V0 + 2
        JNZ     ??ZDO_ProcessActiveEPReq_0
        MOV     A,?V0 + 5
        XRL     A,?V0 + 3
??ZDO_ProcessActiveEPReq_0:
        JNZ     ??ZDO_ProcessActiveEPReq_1
//  745   {
//  746     cnt = afNumEndPoints() - 1;  // -1 for ZDO endpoint descriptor
        ; Setup parameters for call to function afNumEndPoints
        LCALL   ??afNumEndPoints?relay
        MOV     A,R1
        ADD     A,#-0x1
        MOV     ?V0 + 0,A
//  747     afEndPoints( (uint8 *)ZDOBuildBuf, true );
        ; Setup parameters for call to function afEndPoints
        MOV     R1,#0x1
        MOV     R2,#ZDOBuildBuf & 0xff
        MOV     R3,#(ZDOBuildBuf >> 8) & 0xff
        LCALL   ??afEndPoints?relay
        SJMP    ??ZDO_ProcessActiveEPReq_2
//  748   }
//  749   else
//  750   {
//  751     stat = ZDP_INVALID_REQTYPE;
??ZDO_ProcessActiveEPReq_1:
        MOV     ?V0 + 1,#-0x80
//  752   }
//  753 
//  754   ZDP_ActiveEPRsp( inMsg->TransSeq, &(inMsg->srcAddr), stat,
//  755                   aoi, cnt, (uint8 *)ZDOBuildBuf, inMsg->SecurityUse );
??ZDO_ProcessActiveEPReq_2:
        ; Setup parameters for call to function ZDP_EPRsp
        MOV     A,R6
        ADD     A,#0xe
        MOV     DPL,A
        MOV     A,R7
        ADDC    A,#0x0
        MOV     DPH,A
        MOVX    A,@DPTR
        MOV     ?V0 + 4,A
        MOV     R0,#?V0 + 4
        LCALL   ?PUSH_XSTACK_I_ONE
        CFI CFA_XSP16 add(XSP16, 15)
        MOV     ?V0 + 4,#ZDOBuildBuf & 0xff
        MOV     ?V0 + 5,#(ZDOBuildBuf >> 8) & 0xff
        MOV     R0,#?V0 + 4
        LCALL   ?PUSH_XSTACK_I_TWO
        CFI CFA_XSP16 add(XSP16, 17)
        MOV     A,?V0 + 0
        MOV     ?V0 + 4,A
        MOV     R0,#?V0 + 4
        LCALL   ?PUSH_XSTACK_I_ONE
        CFI CFA_XSP16 add(XSP16, 18)
        MOV     R0,#?V0 + 2
        LCALL   ?PUSH_XSTACK_I_TWO
        CFI CFA_XSP16 add(XSP16, 20)
        MOV     A,?V0 + 1
        MOV     ?V0 + 4,A
        MOV     R0,#?V0 + 4
        LCALL   ?PUSH_XSTACK_I_ONE
        CFI CFA_XSP16 add(XSP16, 21)
        MOV     A,R6
        ADD     A,#0x2
        MOV     R4,A
        MOV     A,R7
        ADDC    A,#0x0
        MOV     R5,A
        MOV     A,R6
        ADD     A,#0xf
        MOV     DPL,A
        MOV     A,R7
        ADDC    A,#0x0
        MOV     DPH,A
        MOVX    A,@DPTR
        MOV     R1,A
        MOV     R2,#0x5
        MOV     R3,#-0x80
        LCALL   ??ZDP_EPRsp?relay
        MOV     A,#0x7
        LCALL   ?DEALLOC_XSTACK8
        CFI CFA_XSP16 add(XSP16, 14)
        MOV     A,R1
//  756 }
        MOV     R7,#0x6
        LJMP    ?BANKED_LEAVE_XDATA
        CFI EndBlock cfiBlock12
//  757 
//  758 /*********************************************************************
//  759  * @fn          ZDO_ConvertOTAClusters
//  760  *
//  761  * @brief       This function will convert the over-the-air cluster list
//  762  *              format to an internal format.
//  763  *
//  764  * @param       inMsg  - incoming message (request)
//  765  *
//  766  * @return      pointer to incremented inBuf
//  767  */

        RSEG BANKED_CODE:CODE:NOROOT(0)
//  768 uint8 *ZDO_ConvertOTAClusters( uint8 cnt, uint8 *inBuf, uint16 *outList )
ZDO_ConvertOTAClusters:
        CFI Block cfiBlock13 Using cfiCommon0
        CFI Function ZDO_ConvertOTAClusters
        CODE
//  769 {
        MOV     A,#-0xb
        LCALL   ?BANKED_ENTER_XDATA
        CFI DPH0 load(1, XDATA, add(CFA_XSP16, literal(-1)))
        CFI DPL0 load(1, XDATA, add(CFA_XSP16, literal(-2)))
        CFI ?BRET_EXT load(1, XDATA, add(CFA_XSP16, literal(-3)))
        CFI ?RET_HIGH load(1, XDATA, add(CFA_XSP16, literal(-4)))
        CFI ?RET_LOW load(1, XDATA, add(CFA_XSP16, literal(-5)))
        CFI R7 load(1, XDATA, add(CFA_XSP16, literal(-6)))
        CFI V2 load(1, XDATA, add(CFA_XSP16, literal(-7)))
        CFI V1 load(1, XDATA, add(CFA_XSP16, literal(-8)))
        CFI V0 load(1, XDATA, add(CFA_XSP16, literal(-9)))
        CFI VB load(1, XDATA, add(CFA_XSP16, literal(-10)))
        CFI R6 load(1, XDATA, add(CFA_XSP16, literal(-11)))
        CFI CFA_SP SP+0
        CFI CFA_XSP16 add(XSP16, 11)
        ; Saved register size: 11
        ; Auto size: 0
        MOV     A,R1
        MOV     R6,A
//  770   uint8 x;
//  771 
//  772   for ( x = 0; x < cnt; x++ )
        MOV     ?V0 + 2,#0x0
??ZDO_ConvertOTAClusters_0:
        MOV     A,?V0 + 2
        CLR     C
        SUBB    A,R6
        JNC     ??ZDO_ConvertOTAClusters_1
//  773   {
//  774     // convert ota format to internal
//  775     outList[x] = BUILD_UINT16( inBuf[0], inBuf[1] );
        MOV     DPL,R2
        MOV     DPH,R3
        MOVX    A,@DPTR
        MOV     ?V0 + 0,A
        MOV     ?V0 + 1,#0x0
        MOV     DPL,R2
        MOV     DPH,R3
        INC     DPTR
        MOVX    A,@DPTR
        MOV     R0,A
        MOV     R1,#0x0
        CLR     A
        XCH     A,R0
        MOV     R1,A
        MOV     A,?V0 + 0
        ADD     A,R0
        MOV     ?V0 + 0,A
        MOV     A,?V0 + 1
        ADDC    A,R1
        MOV     ?V0 + 1,A
        MOV     A,?V0 + 2
        MOV     R0,?V0 + 2
        MOV     R1,#0x0
        MOV     A,R0
        MOV     B,#0x2
        MUL     AB
        XCH     A,R0
        MOV     R7,B
        MOV     B,#0x0
        MUL     AB
        ADD     A,R7
        MOV     R7,A
        MOV     B,#0x2
        MOV     A,R1
        MUL     AB
        ADD     A,R7
        MOV     R1,A
        MOV     A,R4
        ADD     A,R0
        MOV     DPL,A
        MOV     A,R5
        ADDC    A,R1
        MOV     DPH,A
        MOV     A,?V0 + 0
        MOVX    @DPTR,A
        INC     DPTR
        MOV     A,?V0 + 1
        MOVX    @DPTR,A
//  776     inBuf += sizeof( uint16 );
        MOV     A,R2
        ADD     A,#0x2
        MOV     R2,A
        MOV     A,R3
        ADDC    A,#0x0
        MOV     R3,A
//  777   }
        INC     ?V0 + 2
        SJMP    ??ZDO_ConvertOTAClusters_0
//  778   return ( inBuf );
??ZDO_ConvertOTAClusters_1:
        MOV     R7,#0x3
        LJMP    ?BANKED_LEAVE_XDATA
        CFI EndBlock cfiBlock13
//  779 }
//  780 
//  781 /*********************************************************************
//  782  * @fn          ZDO_ProcessMatchDescReq
//  783  *
//  784  * @brief       This function processes and responds to the
//  785  *              Match_Desc_req message.
//  786  *
//  787  * @param       inMsg  - incoming message (request)
//  788  *
//  789  * @return      none
//  790  */

        RSEG BANKED_CODE:CODE:NOROOT(0)
//  791 void ZDO_ProcessMatchDescReq( zdoIncomingMsg_t *inMsg )
ZDO_ProcessMatchDescReq:
        CFI Block cfiBlock14 Using cfiCommon0
        CFI Function ZDO_ProcessMatchDescReq
        CODE
//  792 {
        FUNCALL ZDO_ProcessMatchDescReq, NLME_IsAddressBroadcast
        LOCFRAME ISTACK, 0, STACK
        LOCFRAME PSTACK, 0, STACK
        LOCFRAME XSTACK, 34, STACK
        LOCFRAME IOVERLAY, 0, STATIC
        LOCFRAME DOVERLAY, 0, STATIC
        ARGFRAME ISTACK, 0, STACK
        ARGFRAME PSTACK, 0, STACK
        ARGFRAME XSTACK, 34, STACK
        ARGFRAME IOVERLAY, 0, STATIC
        ARGFRAME DOVERLAY, 0, STATIC
        FUNCALL ZDO_ProcessMatchDescReq, ZDP_EPRsp
        LOCFRAME ISTACK, 0, STACK
        LOCFRAME PSTACK, 0, STACK
        LOCFRAME XSTACK, 41, STACK
        LOCFRAME IOVERLAY, 0, STATIC
        LOCFRAME DOVERLAY, 0, STATIC
        ARGFRAME ISTACK, 0, STACK
        ARGFRAME PSTACK, 0, STACK
        ARGFRAME XSTACK, 41, STACK
        ARGFRAME IOVERLAY, 0, STATIC
        ARGFRAME DOVERLAY, 0, STATIC
        FUNCALL ZDO_ProcessMatchDescReq, NLME_IsAddressBroadcast
        LOCFRAME ISTACK, 0, STACK
        LOCFRAME PSTACK, 0, STACK
        LOCFRAME XSTACK, 34, STACK
        LOCFRAME IOVERLAY, 0, STATIC
        LOCFRAME DOVERLAY, 0, STATIC
        ARGFRAME ISTACK, 0, STACK
        ARGFRAME PSTACK, 0, STACK
        ARGFRAME XSTACK, 34, STACK
        ARGFRAME IOVERLAY, 0, STATIC
        ARGFRAME DOVERLAY, 0, STATIC
        FUNCALL ZDO_ProcessMatchDescReq, ZDP_EPRsp
        LOCFRAME ISTACK, 0, STACK
        LOCFRAME PSTACK, 0, STACK
        LOCFRAME XSTACK, 41, STACK
        LOCFRAME IOVERLAY, 0, STATIC
        LOCFRAME DOVERLAY, 0, STATIC
        ARGFRAME ISTACK, 0, STACK
        ARGFRAME PSTACK, 0, STACK
        ARGFRAME XSTACK, 41, STACK
        ARGFRAME IOVERLAY, 0, STATIC
        ARGFRAME DOVERLAY, 0, STATIC
        FUNCALL ZDO_ProcessMatchDescReq, osal_mem_alloc
        LOCFRAME ISTACK, 0, STACK
        LOCFRAME PSTACK, 0, STACK
        LOCFRAME XSTACK, 34, STACK
        LOCFRAME IOVERLAY, 0, STATIC
        LOCFRAME DOVERLAY, 0, STATIC
        ARGFRAME ISTACK, 0, STACK
        ARGFRAME PSTACK, 0, STACK
        ARGFRAME XSTACK, 34, STACK
        ARGFRAME IOVERLAY, 0, STATIC
        ARGFRAME DOVERLAY, 0, STATIC
        FUNCALL ZDO_ProcessMatchDescReq, ZDO_ConvertOTAClusters
        LOCFRAME ISTACK, 0, STACK
        LOCFRAME PSTACK, 0, STACK
        LOCFRAME XSTACK, 34, STACK
        LOCFRAME IOVERLAY, 0, STATIC
        LOCFRAME DOVERLAY, 0, STATIC
        ARGFRAME ISTACK, 0, STACK
        ARGFRAME PSTACK, 0, STACK
        ARGFRAME XSTACK, 34, STACK
        ARGFRAME IOVERLAY, 0, STATIC
        ARGFRAME DOVERLAY, 0, STATIC
        FUNCALL ZDO_ProcessMatchDescReq, osal_mem_alloc
        LOCFRAME ISTACK, 0, STACK
        LOCFRAME PSTACK, 0, STACK
        LOCFRAME XSTACK, 34, STACK
        LOCFRAME IOVERLAY, 0, STATIC
        LOCFRAME DOVERLAY, 0, STATIC
        ARGFRAME ISTACK, 0, STACK
        ARGFRAME PSTACK, 0, STACK
        ARGFRAME XSTACK, 34, STACK
        ARGFRAME IOVERLAY, 0, STATIC
        ARGFRAME DOVERLAY, 0, STATIC
        FUNCALL ZDO_ProcessMatchDescReq, ZDO_ConvertOTAClusters
        LOCFRAME ISTACK, 0, STACK
        LOCFRAME PSTACK, 0, STACK
        LOCFRAME XSTACK, 34, STACK
        LOCFRAME IOVERLAY, 0, STATIC
        LOCFRAME DOVERLAY, 0, STATIC
        ARGFRAME ISTACK, 0, STACK
        ARGFRAME PSTACK, 0, STACK
        ARGFRAME XSTACK, 34, STACK
        ARGFRAME IOVERLAY, 0, STATIC
        ARGFRAME DOVERLAY, 0, STATIC
        FUNCALL ZDO_ProcessMatchDescReq, ZDO_AnyClusterMatches
        LOCFRAME ISTACK, 0, STACK
        LOCFRAME PSTACK, 0, STACK
        LOCFRAME XSTACK, 36, STACK
        LOCFRAME IOVERLAY, 0, STATIC
        LOCFRAME DOVERLAY, 0, STATIC
        ARGFRAME ISTACK, 0, STACK
        ARGFRAME PSTACK, 0, STACK
        ARGFRAME XSTACK, 36, STACK
        ARGFRAME IOVERLAY, 0, STATIC
        ARGFRAME DOVERLAY, 0, STATIC
        FUNCALL ZDO_ProcessMatchDescReq, ZDO_AnyClusterMatches
        LOCFRAME ISTACK, 0, STACK
        LOCFRAME PSTACK, 0, STACK
        LOCFRAME XSTACK, 36, STACK
        LOCFRAME IOVERLAY, 0, STATIC
        LOCFRAME DOVERLAY, 0, STATIC
        ARGFRAME ISTACK, 0, STACK
        ARGFRAME PSTACK, 0, STACK
        ARGFRAME XSTACK, 36, STACK
        ARGFRAME IOVERLAY, 0, STATIC
        ARGFRAME DOVERLAY, 0, STATIC
        FUNCALL ZDO_ProcessMatchDescReq, osal_msg_allocate
        LOCFRAME ISTACK, 0, STACK
        LOCFRAME PSTACK, 0, STACK
        LOCFRAME XSTACK, 34, STACK
        LOCFRAME IOVERLAY, 0, STATIC
        LOCFRAME DOVERLAY, 0, STATIC
        ARGFRAME ISTACK, 0, STACK
        ARGFRAME PSTACK, 0, STACK
        ARGFRAME XSTACK, 34, STACK
        ARGFRAME IOVERLAY, 0, STATIC
        ARGFRAME DOVERLAY, 0, STATIC
        FUNCALL ZDO_ProcessMatchDescReq, osal_memcpy
        LOCFRAME ISTACK, 0, STACK
        LOCFRAME PSTACK, 0, STACK
        LOCFRAME XSTACK, 37, STACK
        LOCFRAME IOVERLAY, 0, STATIC
        LOCFRAME DOVERLAY, 0, STATIC
        ARGFRAME ISTACK, 0, STACK
        ARGFRAME PSTACK, 0, STACK
        ARGFRAME XSTACK, 37, STACK
        ARGFRAME IOVERLAY, 0, STATIC
        ARGFRAME DOVERLAY, 0, STATIC
        FUNCALL ZDO_ProcessMatchDescReq, osal_memcpy
        LOCFRAME ISTACK, 0, STACK
        LOCFRAME PSTACK, 0, STACK
        LOCFRAME XSTACK, 37, STACK
        LOCFRAME IOVERLAY, 0, STATIC
        LOCFRAME DOVERLAY, 0, STATIC
        ARGFRAME ISTACK, 0, STACK
        ARGFRAME PSTACK, 0, STACK
        ARGFRAME XSTACK, 37, STACK
        ARGFRAME IOVERLAY, 0, STATIC
        ARGFRAME DOVERLAY, 0, STATIC
        FUNCALL ZDO_ProcessMatchDescReq, osal_msg_send
        LOCFRAME ISTACK, 0, STACK
        LOCFRAME PSTACK, 0, STACK
        LOCFRAME XSTACK, 34, STACK
        LOCFRAME IOVERLAY, 0, STATIC
        LOCFRAME DOVERLAY, 0, STATIC
        ARGFRAME ISTACK, 0, STACK
        ARGFRAME PSTACK, 0, STACK
        ARGFRAME XSTACK, 34, STACK
        ARGFRAME IOVERLAY, 0, STATIC
        ARGFRAME DOVERLAY, 0, STATIC
        FUNCALL ZDO_ProcessMatchDescReq, osal_mem_free
        LOCFRAME ISTACK, 0, STACK
        LOCFRAME PSTACK, 0, STACK
        LOCFRAME XSTACK, 34, STACK
        LOCFRAME IOVERLAY, 0, STATIC
        LOCFRAME DOVERLAY, 0, STATIC
        ARGFRAME ISTACK, 0, STACK
        ARGFRAME PSTACK, 0, STACK
        ARGFRAME XSTACK, 34, STACK
        ARGFRAME IOVERLAY, 0, STATIC
        ARGFRAME DOVERLAY, 0, STATIC
        FUNCALL ZDO_ProcessMatchDescReq, ZDP_EPRsp
        LOCFRAME ISTACK, 0, STACK
        LOCFRAME PSTACK, 0, STACK
        LOCFRAME XSTACK, 41, STACK
        LOCFRAME IOVERLAY, 0, STATIC
        LOCFRAME DOVERLAY, 0, STATIC
        ARGFRAME ISTACK, 0, STACK
        ARGFRAME PSTACK, 0, STACK
        ARGFRAME XSTACK, 41, STACK
        ARGFRAME IOVERLAY, 0, STATIC
        ARGFRAME DOVERLAY, 0, STATIC
        FUNCALL ZDO_ProcessMatchDescReq, NLME_IsAddressBroadcast
        LOCFRAME ISTACK, 0, STACK
        LOCFRAME PSTACK, 0, STACK
        LOCFRAME XSTACK, 34, STACK
        LOCFRAME IOVERLAY, 0, STATIC
        LOCFRAME DOVERLAY, 0, STATIC
        ARGFRAME ISTACK, 0, STACK
        ARGFRAME PSTACK, 0, STACK
        ARGFRAME XSTACK, 34, STACK
        ARGFRAME IOVERLAY, 0, STATIC
        ARGFRAME DOVERLAY, 0, STATIC
        FUNCALL ZDO_ProcessMatchDescReq, ZDP_EPRsp
        LOCFRAME ISTACK, 0, STACK
        LOCFRAME PSTACK, 0, STACK
        LOCFRAME XSTACK, 41, STACK
        LOCFRAME IOVERLAY, 0, STATIC
        LOCFRAME DOVERLAY, 0, STATIC
        ARGFRAME ISTACK, 0, STACK
        ARGFRAME PSTACK, 0, STACK
        ARGFRAME XSTACK, 41, STACK
        ARGFRAME IOVERLAY, 0, STATIC
        ARGFRAME DOVERLAY, 0, STATIC
        FUNCALL ZDO_ProcessMatchDescReq, osal_mem_free
        LOCFRAME ISTACK, 0, STACK
        LOCFRAME PSTACK, 0, STACK
        LOCFRAME XSTACK, 34, STACK
        LOCFRAME IOVERLAY, 0, STATIC
        LOCFRAME DOVERLAY, 0, STATIC
        ARGFRAME ISTACK, 0, STACK
        ARGFRAME PSTACK, 0, STACK
        ARGFRAME XSTACK, 34, STACK
        ARGFRAME IOVERLAY, 0, STATIC
        ARGFRAME DOVERLAY, 0, STATIC
        FUNCALL ZDO_ProcessMatchDescReq, osal_mem_free
        LOCFRAME ISTACK, 0, STACK
        LOCFRAME PSTACK, 0, STACK
        LOCFRAME XSTACK, 34, STACK
        LOCFRAME IOVERLAY, 0, STATIC
        LOCFRAME DOVERLAY, 0, STATIC
        ARGFRAME ISTACK, 0, STACK
        ARGFRAME PSTACK, 0, STACK
        ARGFRAME XSTACK, 34, STACK
        ARGFRAME IOVERLAY, 0, STATIC
        ARGFRAME DOVERLAY, 0, STATIC
        MOV     A,#-0x18
        LCALL   ?BANKED_ENTER_XDATA
        CFI DPH0 load(1, XDATA, add(CFA_XSP16, literal(-1)))
        CFI DPL0 load(1, XDATA, add(CFA_XSP16, literal(-2)))
        CFI ?BRET_EXT load(1, XDATA, add(CFA_XSP16, literal(-3)))
        CFI ?RET_HIGH load(1, XDATA, add(CFA_XSP16, literal(-4)))
        CFI ?RET_LOW load(1, XDATA, add(CFA_XSP16, literal(-5)))
        CFI R7 load(1, XDATA, add(CFA_XSP16, literal(-6)))
        CFI V15 load(1, XDATA, add(CFA_XSP16, literal(-7)))
        CFI V14 load(1, XDATA, add(CFA_XSP16, literal(-8)))
        CFI V13 load(1, XDATA, add(CFA_XSP16, literal(-9)))
        CFI V12 load(1, XDATA, add(CFA_XSP16, literal(-10)))
        CFI V11 load(1, XDATA, add(CFA_XSP16, literal(-11)))
        CFI V10 load(1, XDATA, add(CFA_XSP16, literal(-12)))
        CFI V9 load(1, XDATA, add(CFA_XSP16, literal(-13)))
        CFI V8 load(1, XDATA, add(CFA_XSP16, literal(-14)))
        CFI V7 load(1, XDATA, add(CFA_XSP16, literal(-15)))
        CFI V6 load(1, XDATA, add(CFA_XSP16, literal(-16)))
        CFI V5 load(1, XDATA, add(CFA_XSP16, literal(-17)))
        CFI V4 load(1, XDATA, add(CFA_XSP16, literal(-18)))
        CFI V3 load(1, XDATA, add(CFA_XSP16, literal(-19)))
        CFI V2 load(1, XDATA, add(CFA_XSP16, literal(-20)))
        CFI V1 load(1, XDATA, add(CFA_XSP16, literal(-21)))
        CFI V0 load(1, XDATA, add(CFA_XSP16, literal(-22)))
        CFI VB load(1, XDATA, add(CFA_XSP16, literal(-23)))
        CFI R6 load(1, XDATA, add(CFA_XSP16, literal(-24)))
        CFI CFA_SP SP+0
        CFI CFA_XSP16 add(XSP16, 24)
        ; Saved register size: 24
        ; Auto size: 10
        MOV     A,#-0xa
        LCALL   ?ALLOC_XSTACK8
        CFI CFA_XSP16 add(XSP16, 34)
        MOV     ?V0 + 8,R2
        MOV     ?V0 + 9,R3
//  793   uint8 epCnt = 0;
        MOV     ?V0 + 14,#0x0
//  794   uint8 numInClusters;
//  795   uint16 *inClusters = NULL;
        MOV     A,#0x2
        LCALL   ?XSTACK_DISP0_8
        MOV     A,#0x0
        MOVX    @DPTR,A
        INC     DPTR
        MOV     A,#0x0
        MOVX    @DPTR,A
//  796   uint8 numOutClusters;
//  797   uint16 *outClusters = NULL;
        MOV     DPL,?XSP + 0
        MOV     DPH,?XSP + 1
        MOV     A,#0x0
        MOVX    @DPTR,A
        INC     DPTR
        MOV     A,#0x0
        MOVX    @DPTR,A
//  798   epList_t *epDesc;
//  799   SimpleDescriptionFormat_t *sDesc = NULL;
        MOV     ?V0 + 10,#0x0
        MOV     ?V0 + 11,#0x0
//  800   uint8 allocated;
//  801   uint8 *msg;
//  802   uint16 aoi;
//  803   uint16 profileID;
//  804 
//  805   // Parse the incoming message
//  806   msg = inMsg->asdu;
        MOV     A,?V0 + 8
        ADD     A,#0x13
        MOV     DPL,A
        MOV     A,?V0 + 9
        ADDC    A,#0x0
        MOV     DPH,A
        MOVX    A,@DPTR
        MOV     R0,A
        INC     DPTR
        MOVX    A,@DPTR
        MOV     R1,A
        MOV     A,R0
        MOV     R6,A
        MOV     A,R1
        MOV     R7,A
//  807   aoi = BUILD_UINT16( msg[0], msg[1] );
        MOV     DPL,R6
        MOV     DPH,R7
        MOVX    A,@DPTR
        MOV     R2,A
        MOV     R3,#0x0
        MOV     DPL,R6
        MOV     DPH,R7
        INC     DPTR
        MOVX    A,@DPTR
        MOV     R0,A
        MOV     R1,#0x0
        CLR     A
        XCH     A,R0
        MOV     R1,A
        MOV     A,R2
        ADD     A,R0
        MOV     R0,A
        MOV     A,R3
        ADDC    A,R1
        MOV     R1,A
        MOV     A,#0x4
        LCALL   ?XSTACK_DISP0_8
        MOV     A,R0
        MOVX    @DPTR,A
        INC     DPTR
        MOV     A,R1
        MOVX    @DPTR,A
//  808   profileID = BUILD_UINT16( msg[2], msg[3] );
        MOV     DPL,R6
        MOV     DPH,R7
        INC     DPTR
        INC     DPTR
        MOVX    A,@DPTR
        MOV     R2,A
        MOV     R3,#0x0
        MOV     DPL,R6
        MOV     DPH,R7
        INC     DPTR
        INC     DPTR
        INC     DPTR
        MOVX    A,@DPTR
        MOV     R0,A
        MOV     R1,#0x0
        CLR     A
        XCH     A,R0
        MOV     R1,A
        MOV     A,R2
        ADD     A,R0
        MOV     R0,A
        MOV     A,R3
        ADDC    A,R1
        MOV     R1,A
        MOV     A,#0x8
        LCALL   ?XSTACK_DISP0_8
        MOV     A,R0
        MOVX    @DPTR,A
        INC     DPTR
        MOV     A,R1
        MOVX    @DPTR,A
//  809   msg += 4;
        MOV     A,R6
        ADD     A,#0x4
        MOV     R6,A
        MOV     A,R7
        ADDC    A,#0x0
        MOV     R7,A
//  810 
//  811   if ( ADDR_BCAST_NOT_ME == NLME_IsAddressBroadcast(aoi) )
        ; Setup parameters for call to function NLME_IsAddressBroadcast
        MOV     A,#0x4
        LCALL   ?XSTACK_DISP0_8
        MOVX    A,@DPTR
        MOV     R2,A
        INC     DPTR
        MOVX    A,@DPTR
        MOV     R3,A
        LCALL   ??NLME_IsAddressBroadcast?relay
        MOV     A,R1
        XRL     A,#0x1
        JNZ     ??ZDO_ProcessMatchDescReq_0
//  812   {
//  813     ZDP_MatchDescRsp( inMsg->TransSeq, &(inMsg->srcAddr), ZDP_INVALID_REQTYPE,
//  814                           ZDAppNwkAddr.addr.shortAddr, 0, NULL, inMsg->SecurityUse );
        ; Setup parameters for call to function ZDP_EPRsp
        MOV     A,?V0 + 8
        ADD     A,#0xe
        MOV     DPL,A
        MOV     A,?V0 + 9
        ADDC    A,#0x0
        MOV     DPH,A
        MOVX    A,@DPTR
        MOV     ?V0 + 0,A
        MOV     R0,#?V0 + 0
        LCALL   ?PUSH_XSTACK_I_ONE
        CFI CFA_XSP16 add(XSP16, 35)
        CLR     A
        MOV     ?V0 + 0,A
        MOV     ?V0 + 1,A
        MOV     R0,#?V0 + 0
        LCALL   ?PUSH_XSTACK_I_TWO
        CFI CFA_XSP16 add(XSP16, 37)
        MOV     ?V0 + 0,#0x0
        MOV     R0,#?V0 + 0
        LCALL   ?PUSH_XSTACK_I_ONE
        CFI CFA_XSP16 add(XSP16, 38)
        MOV     DPTR,#ZDAppNwkAddr
        LCALL   ?PUSH_XSTACK8_X_TWO
        CFI CFA_XSP16 add(XSP16, 40)
        MOV     ?V0 + 0,#-0x80
        MOV     R0,#?V0 + 0
        LCALL   ?PUSH_XSTACK_I_ONE
        CFI CFA_XSP16 add(XSP16, 41)
        MOV     A,?V0 + 8
        ADD     A,#0x2
        MOV     R4,A
        MOV     A,?V0 + 9
        ADDC    A,#0x0
        MOV     R5,A
        MOV     A,?V0 + 8
        ADD     A,#0xf
        MOV     DPL,A
        MOV     A,?V0 + 9
        ADDC    A,#0x0
        MOV     DPH,A
        MOVX    A,@DPTR
        MOV     R1,A
        MOV     R2,#0x6
        MOV     R3,#-0x80
        LCALL   ??ZDP_EPRsp?relay
        MOV     A,#0x7
        LCALL   ?DEALLOC_XSTACK8
        CFI CFA_XSP16 add(XSP16, 34)
        MOV     A,R1
//  815     return;
        LJMP    ??ZDO_ProcessMatchDescReq_1 & 0xFFFF
//  816   }
//  817   else if ( (ADDR_NOT_BCAST == NLME_IsAddressBroadcast(aoi)) && (aoi != ZDAppNwkAddr.addr.shortAddr) )
??ZDO_ProcessMatchDescReq_0:
        ; Setup parameters for call to function NLME_IsAddressBroadcast
        MOV     A,#0x4
        LCALL   ?XSTACK_DISP0_8
        MOVX    A,@DPTR
        MOV     R2,A
        INC     DPTR
        MOVX    A,@DPTR
        MOV     R3,A
        LCALL   ??NLME_IsAddressBroadcast?relay
        MOV     A,R1
        JNZ     ??ZDO_ProcessMatchDescReq_2
        MOV     A,#0x4
        LCALL   ?XSTACK_DISP0_8
        MOVX    A,@DPTR
        MOV     R0,A
        INC     DPTR
        MOVX    A,@DPTR
        MOV     R1,A
        MOV     DPTR,#ZDAppNwkAddr
        MOVX    A,@DPTR
        XRL     A,R0
        JNZ     ??ZDO_ProcessMatchDescReq_3
        INC     DPTR
        MOVX    A,@DPTR
        XRL     A,R1
??ZDO_ProcessMatchDescReq_3:
        JZ      ??ZDO_ProcessMatchDescReq_2
//  818   {
//  819     ZDP_MatchDescRsp( inMsg->TransSeq, &(inMsg->srcAddr), ZDP_INVALID_REQTYPE,
//  820                              ZDAppNwkAddr.addr.shortAddr, 0, NULL, inMsg->SecurityUse );
        ; Setup parameters for call to function ZDP_EPRsp
        MOV     A,?V0 + 8
        ADD     A,#0xe
        MOV     DPL,A
        MOV     A,?V0 + 9
        ADDC    A,#0x0
        MOV     DPH,A
        MOVX    A,@DPTR
        MOV     ?V0 + 0,A
        MOV     R0,#?V0 + 0
        LCALL   ?PUSH_XSTACK_I_ONE
        CFI CFA_XSP16 add(XSP16, 35)
        CLR     A
        MOV     ?V0 + 0,A
        MOV     ?V0 + 1,A
        MOV     R0,#?V0 + 0
        LCALL   ?PUSH_XSTACK_I_TWO
        CFI CFA_XSP16 add(XSP16, 37)
        MOV     ?V0 + 0,#0x0
        MOV     R0,#?V0 + 0
        LCALL   ?PUSH_XSTACK_I_ONE
        CFI CFA_XSP16 add(XSP16, 38)
        MOV     DPTR,#ZDAppNwkAddr
        LCALL   ?PUSH_XSTACK8_X_TWO
        CFI CFA_XSP16 add(XSP16, 40)
        MOV     ?V0 + 0,#-0x80
        MOV     R0,#?V0 + 0
        LCALL   ?PUSH_XSTACK_I_ONE
        CFI CFA_XSP16 add(XSP16, 41)
        MOV     A,?V0 + 8
        ADD     A,#0x2
        MOV     R4,A
        MOV     A,?V0 + 9
        ADDC    A,#0x0
        MOV     R5,A
        MOV     A,?V0 + 8
        ADD     A,#0xf
        MOV     DPL,A
        MOV     A,?V0 + 9
        ADDC    A,#0x0
        MOV     DPH,A
        MOVX    A,@DPTR
        MOV     R1,A
        MOV     R2,#0x6
        MOV     R3,#-0x80
        LCALL   ??ZDP_EPRsp?relay
        MOV     A,#0x7
        LCALL   ?DEALLOC_XSTACK8
        CFI CFA_XSP16 add(XSP16, 34)
        MOV     A,R1
//  821     return;
        LJMP    ??ZDO_ProcessMatchDescReq_1 & 0xFFFF
//  822   }
//  823 
//  824   if ((numInClusters = *msg++) &&
//  825       (inClusters = (uint16*)osal_mem_alloc( numInClusters * sizeof( uint16 ) )))
??ZDO_ProcessMatchDescReq_2:
        MOV     DPL,R6
        MOV     DPH,R7
        MOVX    A,@DPTR
        MOV     R0,A
        MOV     DPL,R6
        MOV     DPH,R7
        INC     DPTR
        MOV     R6,DPL
        MOV     R7,DPH
        MOV     ?V0 + 2,R0
        MOV     A,R0
        JZ      ??ZDO_ProcessMatchDescReq_4
        ; Setup parameters for call to function osal_mem_alloc
        MOV     A,?V0 + 2
        MOV     R2,?V0 + 2
        MOV     R3,#0x0
        MOV     A,R2
        MOV     B,#0x2
        MUL     AB
        XCH     A,R2
        MOV     R0,B
        MOV     B,#0x0
        MUL     AB
        ADD     A,R0
        MOV     R0,A
        MOV     B,#0x2
        MOV     A,R3
        MUL     AB
        ADD     A,R0
        MOV     R3,A
        LCALL   ??osal_mem_alloc?relay
        MOV     ?V0 + 0,R2
        MOV     ?V0 + 1,R3
        MOV     R0,?V0 + 0
        MOV     R1,?V0 + 1
        MOV     A,#0x2
        LCALL   ?XSTACK_DISP0_8
        MOV     A,R0
        MOVX    @DPTR,A
        INC     DPTR
        MOV     A,R1
        MOVX    @DPTR,A
        MOV     A,R0
        ORL     A,R1
        JZ      ??ZDO_ProcessMatchDescReq_4
//  826   {
//  827     msg = ZDO_ConvertOTAClusters( numInClusters, msg, inClusters );
        ; Setup parameters for call to function ZDO_ConvertOTAClusters
        MOV     A,#0x2
        LCALL   ?XSTACK_DISP0_8
        MOVX    A,@DPTR
        MOV     R4,A
        INC     DPTR
        MOVX    A,@DPTR
        MOV     R5,A
        MOV     A,R6
        MOV     R2,A
        MOV     A,R7
        MOV     R3,A
        MOV     R1,?V0 + 2
        LCALL   ??ZDO_ConvertOTAClusters?relay
        MOV     ?V0 + 0,R2
        MOV     ?V0 + 1,R3
        MOV     R6,?V0 + 0
        MOV     R7,?V0 + 1
        SJMP    ??ZDO_ProcessMatchDescReq_5
//  828   }
//  829   else
//  830   {
//  831     numInClusters = 0;
??ZDO_ProcessMatchDescReq_4:
        MOV     ?V0 + 2,#0x0
//  832   }
//  833 
//  834   if ((numOutClusters = *msg++) &&
//  835       (outClusters = (uint16 *)osal_mem_alloc( numOutClusters * sizeof( uint16 ) )))
??ZDO_ProcessMatchDescReq_5:
        MOV     DPL,R6
        MOV     DPH,R7
        MOVX    A,@DPTR
        MOV     R0,A
        MOV     DPL,R6
        MOV     DPH,R7
        INC     DPTR
        MOV     R6,DPL
        MOV     R7,DPH
        MOV     ?V0 + 3,R0
        MOV     A,R0
        JZ      ??ZDO_ProcessMatchDescReq_6
        ; Setup parameters for call to function osal_mem_alloc
        MOV     A,?V0 + 3
        MOV     R2,?V0 + 3
        MOV     R3,#0x0
        MOV     A,R2
        MOV     B,#0x2
        MUL     AB
        XCH     A,R2
        MOV     R0,B
        MOV     B,#0x0
        MUL     AB
        ADD     A,R0
        MOV     R0,A
        MOV     B,#0x2
        MOV     A,R3
        MUL     AB
        ADD     A,R0
        MOV     R3,A
        LCALL   ??osal_mem_alloc?relay
        MOV     ?V0 + 0,R2
        MOV     ?V0 + 1,R3
        MOV     R0,?V0 + 0
        MOV     R1,?V0 + 1
        MOV     DPL,?XSP + 0
        MOV     DPH,?XSP + 1
        MOV     A,R0
        MOVX    @DPTR,A
        INC     DPTR
        MOV     A,R1
        MOVX    @DPTR,A
        MOV     A,R0
        ORL     A,R1
        JZ      ??ZDO_ProcessMatchDescReq_6
//  836   {
//  837     msg = ZDO_ConvertOTAClusters( numOutClusters, msg, outClusters );
        ; Setup parameters for call to function ZDO_ConvertOTAClusters
        MOV     DPL,?XSP + 0
        MOV     DPH,?XSP + 1
        MOVX    A,@DPTR
        MOV     R4,A
        INC     DPTR
        MOVX    A,@DPTR
        MOV     R5,A
        MOV     A,R6
        MOV     R2,A
        MOV     A,R7
        MOV     R3,A
        MOV     R1,?V0 + 3
        LCALL   ??ZDO_ConvertOTAClusters?relay
        MOV     ?V0 + 0,R2
        MOV     ?V0 + 1,R3
        MOV     R6,?V0 + 0
        MOV     R7,?V0 + 1
        SJMP    ??ZDO_ProcessMatchDescReq_7
//  838   }
//  839   else
//  840   {
//  841     numOutClusters = 0;
??ZDO_ProcessMatchDescReq_6:
        MOV     ?V0 + 3,#0x0
//  842   }
//  843 
//  844   // First count the number of endpoints that match.
//  845   epDesc = epList;
??ZDO_ProcessMatchDescReq_7:
        MOV     DPTR,#epList
        MOVX    A,@DPTR
        MOV     R0,A
        INC     DPTR
        MOVX    A,@DPTR
        MOV     R1,A
        MOV     ?V0 + 12,R0
        MOV     ?V0 + 13,R1
//  846   while ( epDesc )
??ZDO_ProcessMatchDescReq_8:
        MOV     A,?V0 + 12
        ORL     A,?V0 + 13
        JNZ     $+5
        LJMP    ??ZDO_ProcessMatchDescReq_9 & 0xFFFF
//  847   {
//  848     // Don't search endpoint 0 and check if response is allowed
//  849     if ( epDesc->epDesc->endPoint != ZDO_EP && (epDesc->flags&eEP_AllowMatch) )
        MOV     DPL,?V0 + 12
        MOV     DPH,?V0 + 13
        INC     DPTR
        INC     DPTR
        MOVX    A,@DPTR
        MOV     R0,A
        INC     DPTR
        MOVX    A,@DPTR
        MOV     DPH,A
        MOV     DPL,R0
        MOVX    A,@DPTR
        JNZ     $+5
        LJMP    ??ZDO_ProcessMatchDescReq_10 & 0xFFFF
        MOV     DPL,?V0 + 12
        MOV     DPH,?V0 + 13
        INC     DPTR
        INC     DPTR
        INC     DPTR
        INC     DPTR
        INC     DPTR
        INC     DPTR
        INC     DPTR
        INC     DPTR
        MOVX    A,@DPTR
        MOV     C,0xE0 /* A   */.0
        JC      $+5
        LJMP    ??ZDO_ProcessMatchDescReq_10 & 0xFFFF
//  850     {
//  851       if ( epDesc->pfnDescCB )
        MOV     DPL,?V0 + 12
        MOV     DPH,?V0 + 13
        INC     DPTR
        INC     DPTR
        INC     DPTR
        INC     DPTR
        MOVX    A,@DPTR
        MOV     R0,A
        INC     DPTR
        MOVX    A,@DPTR
        MOV     R1,A
        MOV     A,R0
        ORL     A,R1
        JZ      ??ZDO_ProcessMatchDescReq_11
//  852       {
//  853         sDesc = (SimpleDescriptionFormat_t *)epDesc->pfnDescCB( AF_DESCRIPTOR_SIMPLE, epDesc->epDesc->endPoint );
        ; Setup parameters for indirect call
        MOV     DPL,?V0 + 12
        MOV     DPH,?V0 + 13
        INC     DPTR
        INC     DPTR
        MOVX    A,@DPTR
        MOV     R0,A
        INC     DPTR
        MOVX    A,@DPTR
        MOV     DPH,A
        MOV     DPL,R0
        MOVX    A,@DPTR
        MOV     R2,A
        MOV     R1,#0x1
        MOV     DPL,?V0 + 12
        MOV     DPH,?V0 + 13
        INC     DPTR
        INC     DPTR
        INC     DPTR
        INC     DPTR
        MOVX    A,@DPTR
        MOV     R0,A
        INC     DPTR
        MOVX    A,@DPTR
        MOV     DPH,A
        MOV     DPL,R0
        LCALL   ?CALL_IND
        MOV     ?V0 + 0,R2
        MOV     ?V0 + 1,R3
        MOV     ?V0 + 10,?V0 + 0
        MOV     ?V0 + 11,?V0 + 1
//  854         allocated = TRUE;
        MOV     ?V0 + 15,#0x1
        SJMP    ??ZDO_ProcessMatchDescReq_12
//  855       }
//  856       else
//  857       {
//  858         sDesc = epDesc->epDesc->simpleDesc;
??ZDO_ProcessMatchDescReq_11:
        MOV     DPL,?V0 + 12
        MOV     DPH,?V0 + 13
        INC     DPTR
        INC     DPTR
        MOVX    A,@DPTR
        MOV     R0,A
        INC     DPTR
        MOVX    A,@DPTR
        MOV     DPH,A
        MOV     DPL,R0
        INC     DPTR
        INC     DPTR
        INC     DPTR
        MOVX    A,@DPTR
        MOV     R0,A
        INC     DPTR
        MOVX    A,@DPTR
        MOV     R1,A
        MOV     ?V0 + 10,R0
        MOV     ?V0 + 11,R1
//  859         allocated = FALSE;
        MOV     ?V0 + 15,#0x0
//  860       }
//  861 
//  862       if ( sDesc && sDesc->AppProfId == profileID )
??ZDO_ProcessMatchDescReq_12:
        MOV     A,?V0 + 10
        ORL     A,?V0 + 11
        JNZ     $+5
        LJMP    ??ZDO_ProcessMatchDescReq_13 & 0xFFFF
        MOV     DPL,?V0 + 10
        MOV     DPH,?V0 + 11
        INC     DPTR
        MOVX    A,@DPTR
        MOV     R0,A
        INC     DPTR
        MOVX    A,@DPTR
        MOV     R1,A
        MOV     A,#0x8
        LCALL   ?XSTACK_DISP0_8
        MOVX    A,@DPTR
        XRL     A,R0
        JNZ     ??ZDO_ProcessMatchDescReq_14
        INC     DPTR
        MOVX    A,@DPTR
        XRL     A,R1
??ZDO_ProcessMatchDescReq_14:
        JZ      $+5
        LJMP    ??ZDO_ProcessMatchDescReq_13 & 0xFFFF
//  863       {
//  864         uint8 *uint8Buf = (uint8 *)ZDOBuildBuf;
        MOV     A,#0x6
        LCALL   ?XSTACK_DISP0_8
        MOV     A,#ZDOBuildBuf & 0xff
        MOVX    @DPTR,A
        INC     DPTR
        MOV     A,#(ZDOBuildBuf >> 8) & 0xff
        MOVX    @DPTR,A
//  865 
//  866         // Are there matching input clusters?
//  867         if ((ZDO_AnyClusterMatches( numInClusters, inClusters,
//  868                    sDesc->AppNumInClusters, sDesc->pAppInClusterList )) ||
//  869             // Are there matching output clusters?
//  870             (ZDO_AnyClusterMatches( numOutClusters, outClusters,
//  871                    sDesc->AppNumOutClusters, sDesc->pAppOutClusterList )))
        ; Setup parameters for call to function ZDO_AnyClusterMatches
        MOV     DPL,?V0 + 10
        MOV     DPH,?V0 + 11
        INC     DPTR
        INC     DPTR
        INC     DPTR
        INC     DPTR
        INC     DPTR
        INC     DPTR
        INC     DPTR
        LCALL   ?PUSH_XSTACK8_X_TWO
        CFI CFA_XSP16 add(XSP16, 36)
        MOV     DPL,?V0 + 10
        MOV     DPH,?V0 + 11
        INC     DPTR
        INC     DPTR
        INC     DPTR
        INC     DPTR
        INC     DPTR
        INC     DPTR
        MOVX    A,@DPTR
        MOV     R4,A
        MOV     A,#0x4
        LCALL   ?XSTACK_DISP0_8
        MOVX    A,@DPTR
        MOV     R2,A
        INC     DPTR
        MOVX    A,@DPTR
        MOV     R3,A
        MOV     R1,?V0 + 2
        LCALL   ??ZDO_AnyClusterMatches?relay
        MOV     A,#0x2
        LCALL   ?DEALLOC_XSTACK8
        CFI CFA_XSP16 add(XSP16, 34)
        MOV     A,R1
        JNZ     ??ZDO_ProcessMatchDescReq_15
        ; Setup parameters for call to function ZDO_AnyClusterMatches
        MOV     DPL,?V0 + 10
        MOV     DPH,?V0 + 11
        INC     DPTR
        INC     DPTR
        INC     DPTR
        INC     DPTR
        INC     DPTR
        INC     DPTR
        INC     DPTR
        INC     DPTR
        INC     DPTR
        INC     DPTR
        LCALL   ?PUSH_XSTACK8_X_TWO
        CFI CFA_XSP16 add(XSP16, 36)
        MOV     DPL,?V0 + 10
        MOV     DPH,?V0 + 11
        INC     DPTR
        INC     DPTR
        INC     DPTR
        INC     DPTR
        INC     DPTR
        INC     DPTR
        INC     DPTR
        INC     DPTR
        INC     DPTR
        MOVX    A,@DPTR
        MOV     R4,A
        MOV     A,#0x2
        LCALL   ?XSTACK_DISP0_8
        MOVX    A,@DPTR
        MOV     R2,A
        INC     DPTR
        MOVX    A,@DPTR
        MOV     R3,A
        MOV     R1,?V0 + 3
        LCALL   ??ZDO_AnyClusterMatches?relay
        MOV     A,#0x2
        LCALL   ?DEALLOC_XSTACK8
        CFI CFA_XSP16 add(XSP16, 34)
        MOV     A,R1
        JNZ     $+5
        LJMP    ??ZDO_ProcessMatchDescReq_13 & 0xFFFF
//  872         {
//  873           // Notify the endpoint of the match.
//  874           uint8 bufLen = sizeof( ZDO_MatchDescRspSent_t ) + (numOutClusters + numInClusters) * sizeof(uint16);
??ZDO_ProcessMatchDescReq_15:
        MOV     B,#0x2
        MOV     ?V0 + 4,?V0 + 3
        MOV     ?V0 + 5,#0x0
        MOV     ?V0 + 0,?V0 + 2
        MOV     ?V0 + 1,#0x0
        MOV     A,?V0 + 4
        ADD     A,?V0 + 0
        MOV     R0,A
        MOV     A,?V0 + 5
        ADDC    A,?V0 + 1
        MOV     R1,A
        MOV     A,R0
        MUL     AB
        ADD     A,#0xa
        MOV     ?V0 + 7,A
//  875           ZDO_MatchDescRspSent_t *pRspSent = (ZDO_MatchDescRspSent_t *) osal_msg_allocate( bufLen );
        ; Setup parameters for call to function osal_msg_allocate
        MOV     ?V0 + 0,?V0 + 7
        MOV     ?V0 + 1,#0x0
        MOV     R2,?V0 + 0
        MOV     R3,?V0 + 1
        LCALL   ??osal_msg_allocate?relay
        MOV     ?V0 + 4,R2
        MOV     ?V0 + 5,R3
        MOV     ?V0 + 0,?V0 + 4
        MOV     ?V0 + 1,?V0 + 5
//  876 
//  877           if (pRspSent)
        MOV     A,?V0 + 0
        ORL     A,?V0 + 1
        JNZ     $+5
        LJMP    ??ZDO_ProcessMatchDescReq_16 & 0xFFFF
//  878           {
//  879             pRspSent->hdr.event = ZDO_MATCH_DESC_RSP_SENT;
        MOV     DPL,?V0 + 0
        MOV     DPH,?V0 + 1
        MOV     A,#-0x2e
        MOVX    @DPTR,A
//  880             pRspSent->nwkAddr = inMsg->srcAddr.addr.shortAddr;
        MOV     DPL,?V0 + 8
        MOV     DPH,?V0 + 9
        INC     DPTR
        INC     DPTR
        MOVX    A,@DPTR
        MOV     R0,A
        INC     DPTR
        MOVX    A,@DPTR
        MOV     R1,A
        MOV     DPL,?V0 + 0
        MOV     DPH,?V0 + 1
        INC     DPTR
        INC     DPTR
        MOV     A,R0
        MOVX    @DPTR,A
        INC     DPTR
        MOV     A,R1
        MOVX    @DPTR,A
//  881             pRspSent->numInClusters = numInClusters;
        MOV     A,?V0 + 2
        MOV     DPL,?V0 + 0
        MOV     DPH,?V0 + 1
        INC     DPTR
        INC     DPTR
        INC     DPTR
        INC     DPTR
        MOV     A,?V0 + 2
        MOVX    @DPTR,A
//  882             pRspSent->numOutClusters = numOutClusters;
        MOV     A,?V0 + 3
        MOV     DPL,?V0 + 0
        MOV     DPH,?V0 + 1
        INC     DPTR
        INC     DPTR
        INC     DPTR
        INC     DPTR
        INC     DPTR
        INC     DPTR
        INC     DPTR
        MOV     A,?V0 + 3
        MOVX    @DPTR,A
//  883 
//  884             if (numInClusters)
        MOV     A,?V0 + 2
        JZ      ??ZDO_ProcessMatchDescReq_17
//  885             {
//  886               pRspSent->pInClusters = (uint16*) (pRspSent + 1);
        MOV     A,?V0 + 0
        ADD     A,#0xa
        MOV     R0,A
        MOV     A,?V0 + 1
        ADDC    A,#0x0
        MOV     R1,A
        MOV     DPL,?V0 + 0
        MOV     DPH,?V0 + 1
        INC     DPTR
        INC     DPTR
        INC     DPTR
        INC     DPTR
        INC     DPTR
        MOV     A,R0
        MOVX    @DPTR,A
        INC     DPTR
        MOV     A,R1
        MOVX    @DPTR,A
//  887               osal_memcpy(pRspSent->pInClusters, inClusters, numInClusters * sizeof(uint16));
        ; Setup parameters for call to function osal_memcpy
        MOV     A,#0x2
        LCALL   ?XSTACK_DISP0_8
        MOVX    A,@DPTR
        MOV     ?V0 + 4,A
        INC     DPTR
        MOVX    A,@DPTR
        MOV     ?V0 + 5,A
        MOV     ?V0 + 6,#0x0
        MOV     R0,#?V0 + 4
        LCALL   ?PUSH_XSTACK_I_THREE
        CFI CFA_XSP16 add(XSP16, 37)
        MOV     A,?V0 + 2
        MOV     R4,?V0 + 2
        MOV     R5,#0x0
        MOV     A,R4
        MOV     B,#0x2
        MUL     AB
        XCH     A,R4
        MOV     R0,B
        MOV     B,#0x0
        MUL     AB
        ADD     A,R0
        MOV     R0,A
        MOV     B,#0x2
        MOV     A,R5
        MUL     AB
        ADD     A,R0
        MOV     R5,A
        MOV     DPL,?V0 + 0
        MOV     DPH,?V0 + 1
        INC     DPTR
        INC     DPTR
        INC     DPTR
        INC     DPTR
        INC     DPTR
        MOVX    A,@DPTR
        MOV     R2,A
        INC     DPTR
        MOVX    A,@DPTR
        MOV     R3,A
        LCALL   ??osal_memcpy?relay
        MOV     A,#0x3
        LCALL   ?DEALLOC_XSTACK8
        CFI CFA_XSP16 add(XSP16, 34)
        SJMP    ??ZDO_ProcessMatchDescReq_18
//  888             }
//  889             else
//  890             {
//  891               pRspSent->pInClusters = NULL;
??ZDO_ProcessMatchDescReq_17:
        MOV     DPL,?V0 + 0
        MOV     DPH,?V0 + 1
        INC     DPTR
        INC     DPTR
        INC     DPTR
        INC     DPTR
        INC     DPTR
        MOV     A,#0x0
        MOVX    @DPTR,A
        INC     DPTR
        MOV     A,#0x0
        MOVX    @DPTR,A
//  892             }
//  893 
//  894             if (numOutClusters)
??ZDO_ProcessMatchDescReq_18:
        MOV     A,?V0 + 3
        JNZ     $+5
        LJMP    ??ZDO_ProcessMatchDescReq_19 & 0xFFFF
//  895             {
//  896               pRspSent->pOutClusters = (uint16*)(pRspSent + 1) + numInClusters;
        MOV     A,?V0 + 2
        MOV     R0,?V0 + 2
        MOV     R1,#0x0
        MOV     A,R0
        MOV     B,#0x2
        MUL     AB
        XCH     A,R0
        MOV     R2,B
        MOV     B,#0x0
        MUL     AB
        ADD     A,R2
        MOV     R2,A
        MOV     B,#0x2
        MOV     A,R1
        MUL     AB
        ADD     A,R2
        MOV     R1,A
        MOV     A,?V0 + 0
        ADD     A,R0
        MOV     R0,A
        MOV     A,?V0 + 1
        ADDC    A,R1
        MOV     R1,A
        MOV     A,R0
        ADD     A,#0xa
        MOV     R0,A
        MOV     A,R1
        ADDC    A,#0x0
        MOV     R1,A
        MOV     DPL,?V0 + 0
        MOV     DPH,?V0 + 1
        INC     DPTR
        INC     DPTR
        INC     DPTR
        INC     DPTR
        INC     DPTR
        INC     DPTR
        INC     DPTR
        INC     DPTR
        MOV     A,R0
        MOVX    @DPTR,A
        INC     DPTR
        MOV     A,R1
        MOVX    @DPTR,A
//  897               osal_memcpy(pRspSent->pOutClusters, outClusters, numOutClusters * sizeof(uint16));
        ; Setup parameters for call to function osal_memcpy
        MOV     DPL,?XSP + 0
        MOV     DPH,?XSP + 1
        MOVX    A,@DPTR
        MOV     ?V0 + 4,A
        INC     DPTR
        MOVX    A,@DPTR
        MOV     ?V0 + 5,A
        MOV     ?V0 + 6,#0x0
        MOV     R0,#?V0 + 4
        LCALL   ?PUSH_XSTACK_I_THREE
        CFI CFA_XSP16 add(XSP16, 37)
        MOV     A,?V0 + 3
        MOV     R4,?V0 + 3
        MOV     R5,#0x0
        MOV     A,R4
        MOV     B,#0x2
        MUL     AB
        XCH     A,R4
        MOV     R0,B
        MOV     B,#0x0
        MUL     AB
        ADD     A,R0
        MOV     R0,A
        MOV     B,#0x2
        MOV     A,R5
        MUL     AB
        ADD     A,R0
        MOV     R5,A
        MOV     DPL,?V0 + 0
        MOV     DPH,?V0 + 1
        INC     DPTR
        INC     DPTR
        INC     DPTR
        INC     DPTR
        INC     DPTR
        INC     DPTR
        INC     DPTR
        INC     DPTR
        MOVX    A,@DPTR
        MOV     R2,A
        INC     DPTR
        MOVX    A,@DPTR
        MOV     R3,A
        LCALL   ??osal_memcpy?relay
        MOV     A,#0x3
        LCALL   ?DEALLOC_XSTACK8
        CFI CFA_XSP16 add(XSP16, 34)
        SJMP    ??ZDO_ProcessMatchDescReq_20
//  898             }
//  899             else
//  900             {
//  901               pRspSent->pOutClusters = NULL;
??ZDO_ProcessMatchDescReq_19:
        MOV     DPL,?V0 + 0
        MOV     DPH,?V0 + 1
        INC     DPTR
        INC     DPTR
        INC     DPTR
        INC     DPTR
        INC     DPTR
        INC     DPTR
        INC     DPTR
        INC     DPTR
        MOV     A,#0x0
        MOVX    @DPTR,A
        INC     DPTR
        MOV     A,#0x0
        MOVX    @DPTR,A
//  902             }
//  903 
//  904             osal_msg_send( *epDesc->epDesc->task_id, (uint8 *)pRspSent );
??ZDO_ProcessMatchDescReq_20:
        ; Setup parameters for call to function osal_msg_send
        MOV     R2,?V0 + 0
        MOV     R3,?V0 + 1
        MOV     DPL,?V0 + 12
        MOV     DPH,?V0 + 13
        INC     DPTR
        INC     DPTR
        MOVX    A,@DPTR
        MOV     R0,A
        INC     DPTR
        MOVX    A,@DPTR
        MOV     DPH,A
        MOV     DPL,R0
        INC     DPTR
        MOVX    A,@DPTR
        MOV     R0,A
        INC     DPTR
        MOVX    A,@DPTR
        MOV     DPH,A
        MOV     DPL,R0
        MOVX    A,@DPTR
        MOV     R1,A
        LCALL   ??osal_msg_send?relay
        MOV     A,R1
//  905           }
//  906 
//  907           uint8Buf[epCnt++] = sDesc->EndPoint;
??ZDO_ProcessMatchDescReq_16:
        MOV     DPL,?V0 + 10
        MOV     DPH,?V0 + 11
        MOVX    A,@DPTR
        PUSH    A
        CFI CFA_SP SP+-1
        MOV     A,?V0 + 14
        MOV     R0,?V0 + 14
        MOV     R1,#0x0
        MOV     A,#0x6
        LCALL   ?XSTACK_DISP0_8
        MOVX    A,@DPTR
        ADD     A,R0
        MOV     R2,A
        INC     DPTR
        MOVX    A,@DPTR
        ADDC    A,R1
        MOV     DPL,R2
        MOV     DPH,A
        POP     A
        CFI CFA_SP SP+0
        MOVX    @DPTR,A
        INC     ?V0 + 14
//  908         }
//  909       }
//  910 
//  911       if ( allocated )
??ZDO_ProcessMatchDescReq_13:
        MOV     A,?V0 + 15
        JZ      ??ZDO_ProcessMatchDescReq_10
//  912       {
//  913         osal_mem_free( sDesc );
        ; Setup parameters for call to function osal_mem_free
        MOV     R2,?V0 + 10
        MOV     R3,?V0 + 11
        LCALL   ??osal_mem_free?relay
//  914       }
//  915     }
//  916     epDesc = epDesc->nextDesc;
??ZDO_ProcessMatchDescReq_10:
        MOV     DPL,?V0 + 12
        MOV     DPH,?V0 + 13
        MOVX    A,@DPTR
        MOV     ?V0 + 12,A
        INC     DPTR
        MOVX    A,@DPTR
        MOV     ?V0 + 13,A
        LJMP    ??ZDO_ProcessMatchDescReq_8 & 0xFFFF
//  917   }
//  918 
//  919   if ( epCnt )
??ZDO_ProcessMatchDescReq_9:
        MOV     A,?V0 + 14
        JZ      ??ZDO_ProcessMatchDescReq_21
//  920   {
//  921     // Send the message if at least one match found.
//  922     if ( ZSuccess == ZDP_MatchDescRsp( inMsg->TransSeq, &(inMsg->srcAddr), ZDP_SUCCESS,
//  923               ZDAppNwkAddr.addr.shortAddr, epCnt, (uint8 *)ZDOBuildBuf, inMsg->SecurityUse ) )
        ; Setup parameters for call to function ZDP_EPRsp
        MOV     A,?V0 + 8
        ADD     A,#0xe
        MOV     DPL,A
        MOV     A,?V0 + 9
        ADDC    A,#0x0
        MOV     DPH,A
        MOVX    A,@DPTR
        MOV     ?V0 + 0,A
        MOV     R0,#?V0 + 0
        LCALL   ?PUSH_XSTACK_I_ONE
        CFI CFA_XSP16 add(XSP16, 35)
        MOV     ?V0 + 0,#ZDOBuildBuf & 0xff
        MOV     ?V0 + 1,#(ZDOBuildBuf >> 8) & 0xff
        MOV     R0,#?V0 + 0
        LCALL   ?PUSH_XSTACK_I_TWO
        CFI CFA_XSP16 add(XSP16, 37)
        MOV     A,?V0 + 14
        MOV     ?V0 + 0,A
        MOV     R0,#?V0 + 0
        LCALL   ?PUSH_XSTACK_I_ONE
        CFI CFA_XSP16 add(XSP16, 38)
        MOV     DPTR,#ZDAppNwkAddr
        LCALL   ?PUSH_XSTACK8_X_TWO
        CFI CFA_XSP16 add(XSP16, 40)
        MOV     ?V0 + 0,#0x0
        MOV     R0,#?V0 + 0
        LCALL   ?PUSH_XSTACK_I_ONE
        CFI CFA_XSP16 add(XSP16, 41)
        MOV     A,?V0 + 8
        ADD     A,#0x2
        MOV     R4,A
        MOV     A,?V0 + 9
        ADDC    A,#0x0
        MOV     R5,A
        MOV     A,?V0 + 8
        ADD     A,#0xf
        MOV     DPL,A
        MOV     A,?V0 + 9
        ADDC    A,#0x0
        MOV     DPH,A
        MOVX    A,@DPTR
        MOV     R1,A
        MOV     R2,#0x6
        MOV     R3,#-0x80
        LCALL   ??ZDP_EPRsp?relay
        MOV     A,#0x7
        LCALL   ?DEALLOC_XSTACK8
        CFI CFA_XSP16 add(XSP16, 34)
        MOV     A,R1
        SJMP    ??ZDO_ProcessMatchDescReq_22
//  924     {
//  925 #if defined( LCD_SUPPORTED )
//  926       HalLcdWriteScreen( "Match Desc Req", "Rsp Sent" );
//  927 #endif
//  928     }
//  929   }
//  930   else
//  931   {
//  932     // No match found
//  933     if (ADDR_NOT_BCAST == NLME_IsAddressBroadcast(aoi))
??ZDO_ProcessMatchDescReq_21:
        ; Setup parameters for call to function NLME_IsAddressBroadcast
        MOV     A,#0x4
        LCALL   ?XSTACK_DISP0_8
        MOVX    A,@DPTR
        MOV     R2,A
        INC     DPTR
        MOVX    A,@DPTR
        MOV     R3,A
        LCALL   ??NLME_IsAddressBroadcast?relay
        MOV     A,R1
        JNZ     ??ZDO_ProcessMatchDescReq_22
//  934     {
//  935       // send response message with match length = 0
//  936       ZDP_MatchDescRsp( inMsg->TransSeq, &(inMsg->srcAddr), ZDP_SUCCESS,
//  937                         ZDAppNwkAddr.addr.shortAddr, 0, (uint8 *)ZDOBuildBuf, inMsg->SecurityUse );
        ; Setup parameters for call to function ZDP_EPRsp
        MOV     A,?V0 + 8
        ADD     A,#0xe
        MOV     DPL,A
        MOV     A,?V0 + 9
        ADDC    A,#0x0
        MOV     DPH,A
        MOVX    A,@DPTR
        MOV     ?V0 + 0,A
        MOV     R0,#?V0 + 0
        LCALL   ?PUSH_XSTACK_I_ONE
        CFI CFA_XSP16 add(XSP16, 35)
        MOV     ?V0 + 0,#ZDOBuildBuf & 0xff
        MOV     ?V0 + 1,#(ZDOBuildBuf >> 8) & 0xff
        MOV     R0,#?V0 + 0
        LCALL   ?PUSH_XSTACK_I_TWO
        CFI CFA_XSP16 add(XSP16, 37)
        MOV     ?V0 + 0,#0x0
        MOV     R0,#?V0 + 0
        LCALL   ?PUSH_XSTACK_I_ONE
        CFI CFA_XSP16 add(XSP16, 38)
        MOV     DPTR,#ZDAppNwkAddr
        LCALL   ?PUSH_XSTACK8_X_TWO
        CFI CFA_XSP16 add(XSP16, 40)
        MOV     ?V0 + 0,#0x0
        MOV     R0,#?V0 + 0
        LCALL   ?PUSH_XSTACK_I_ONE
        CFI CFA_XSP16 add(XSP16, 41)
        MOV     A,?V0 + 8
        ADD     A,#0x2
        MOV     R4,A
        MOV     A,?V0 + 9
        ADDC    A,#0x0
        MOV     R5,A
        MOV     A,?V0 + 8
        ADD     A,#0xf
        MOV     DPL,A
        MOV     A,?V0 + 9
        ADDC    A,#0x0
        MOV     DPH,A
        MOVX    A,@DPTR
        MOV     R1,A
        MOV     R2,#0x6
        MOV     R3,#-0x80
        LCALL   ??ZDP_EPRsp?relay
        MOV     A,#0x7
        LCALL   ?DEALLOC_XSTACK8
        CFI CFA_XSP16 add(XSP16, 34)
        MOV     A,R1
//  938 #if defined( LCD_SUPPORTED )
//  939       HalLcdWriteScreen( "Match Desc Req", "Rsp Non Matched" );
//  940 #endif
//  941     }
//  942     else
//  943     {
//  944       // no response mesage for broadcast message
//  945 #if defined( LCD_SUPPORTED )
//  946       HalLcdWriteScreen( "Match Desc Req", "Non Matched" );
//  947 #endif
//  948     }
//  949   }
//  950 
//  951   if ( inClusters != NULL )
??ZDO_ProcessMatchDescReq_22:
        MOV     A,#0x2
        LCALL   ?XSTACK_DISP0_8
        MOVX    A,@DPTR
        MOV     R0,A
        INC     DPTR
        MOVX    A,@DPTR
        MOV     R1,A
        MOV     A,R0
        ORL     A,R1
        JZ      ??ZDO_ProcessMatchDescReq_23
//  952   {
//  953     osal_mem_free( inClusters );
        ; Setup parameters for call to function osal_mem_free
        MOV     A,#0x2
        LCALL   ?XSTACK_DISP0_8
        MOVX    A,@DPTR
        MOV     R2,A
        INC     DPTR
        MOVX    A,@DPTR
        MOV     R3,A
        LCALL   ??osal_mem_free?relay
//  954   }
//  955 
//  956   if ( outClusters != NULL )
??ZDO_ProcessMatchDescReq_23:
        MOV     DPL,?XSP + 0
        MOV     DPH,?XSP + 1
        MOVX    A,@DPTR
        MOV     R0,A
        INC     DPTR
        MOVX    A,@DPTR
        MOV     R1,A
        MOV     A,R0
        ORL     A,R1
        JZ      ??ZDO_ProcessMatchDescReq_1
//  957   {
//  958     osal_mem_free( outClusters );
        ; Setup parameters for call to function osal_mem_free
        MOV     DPL,?XSP + 0
        MOV     DPH,?XSP + 1
        MOVX    A,@DPTR
        MOV     R2,A
        INC     DPTR
        MOVX    A,@DPTR
        MOV     R3,A
        LCALL   ??osal_mem_free?relay
//  959   }
//  960 }
??ZDO_ProcessMatchDescReq_1:
        MOV     A,#0xa
        LCALL   ?DEALLOC_XSTACK8
        CFI CFA_XSP16 add(XSP16, 24)
        MOV     R7,#0x10
        LJMP    ?BANKED_LEAVE_XDATA
        CFI EndBlock cfiBlock14
//  961 
//  962 /*********************************************************************
//  963  * @fn      ZDO_ProcessBindUnbindReq()
//  964  *
//  965  * @brief   Called to process a Bind or Unbind Request message.
//  966  *
//  967  * @param   inMsg  - incoming message (request)
//  968  * @param   pReq - place to put parsed information
//  969  *
//  970  * @return  none
//  971  */

        RSEG BANKED_CODE:CODE:NOROOT(0)
//  972 void ZDO_ProcessBindUnbindReq( zdoIncomingMsg_t *inMsg, ZDO_BindUnbindReq_t *pReq )
ZDO_ProcessBindUnbindReq:
        CFI Block cfiBlock15 Using cfiCommon0
        CFI Function ZDO_ProcessBindUnbindReq
        CODE
//  973 {
        FUNCALL ZDO_ProcessBindUnbindReq, sAddrExtCpy
        LOCFRAME ISTACK, 0, STACK
        LOCFRAME PSTACK, 0, STACK
        LOCFRAME XSTACK, 24, STACK
        LOCFRAME IOVERLAY, 0, STATIC
        LOCFRAME DOVERLAY, 0, STATIC
        ARGFRAME ISTACK, 0, STACK
        ARGFRAME PSTACK, 0, STACK
        ARGFRAME XSTACK, 24, STACK
        ARGFRAME IOVERLAY, 0, STATIC
        ARGFRAME DOVERLAY, 0, STATIC
        FUNCALL ZDO_ProcessBindUnbindReq, NLME_GetExtAddr
        LOCFRAME ISTACK, 0, STACK
        LOCFRAME PSTACK, 0, STACK
        LOCFRAME XSTACK, 24, STACK
        LOCFRAME IOVERLAY, 0, STATIC
        LOCFRAME DOVERLAY, 0, STATIC
        ARGFRAME ISTACK, 0, STACK
        ARGFRAME PSTACK, 0, STACK
        ARGFRAME XSTACK, 24, STACK
        ARGFRAME IOVERLAY, 0, STATIC
        ARGFRAME DOVERLAY, 0, STATIC
        FUNCALL ZDO_ProcessBindUnbindReq, sAddrExtCmp
        LOCFRAME ISTACK, 0, STACK
        LOCFRAME PSTACK, 0, STACK
        LOCFRAME XSTACK, 24, STACK
        LOCFRAME IOVERLAY, 0, STATIC
        LOCFRAME DOVERLAY, 0, STATIC
        ARGFRAME ISTACK, 0, STACK
        ARGFRAME PSTACK, 0, STACK
        ARGFRAME XSTACK, 24, STACK
        ARGFRAME IOVERLAY, 0, STATIC
        ARGFRAME DOVERLAY, 0, STATIC
        FUNCALL ZDO_ProcessBindUnbindReq, APSME_BindRequest
        LOCFRAME ISTACK, 0, STACK
        LOCFRAME PSTACK, 0, STACK
        LOCFRAME XSTACK, 25, STACK
        LOCFRAME IOVERLAY, 0, STATIC
        LOCFRAME DOVERLAY, 0, STATIC
        ARGFRAME ISTACK, 0, STACK
        ARGFRAME PSTACK, 0, STACK
        ARGFRAME XSTACK, 25, STACK
        ARGFRAME IOVERLAY, 0, STATIC
        ARGFRAME DOVERLAY, 0, STATIC
        FUNCALL ZDO_ProcessBindUnbindReq, ZDApp_NVUpdate
        LOCFRAME ISTACK, 0, STACK
        LOCFRAME PSTACK, 0, STACK
        LOCFRAME XSTACK, 24, STACK
        LOCFRAME IOVERLAY, 0, STATIC
        LOCFRAME DOVERLAY, 0, STATIC
        ARGFRAME ISTACK, 0, STACK
        ARGFRAME PSTACK, 0, STACK
        ARGFRAME XSTACK, 24, STACK
        ARGFRAME IOVERLAY, 0, STATIC
        ARGFRAME DOVERLAY, 0, STATIC
        FUNCALL ZDO_ProcessBindUnbindReq, APSME_LookupNwkAddr
        LOCFRAME ISTACK, 0, STACK
        LOCFRAME PSTACK, 0, STACK
        LOCFRAME XSTACK, 24, STACK
        LOCFRAME IOVERLAY, 0, STATIC
        LOCFRAME DOVERLAY, 0, STATIC
        ARGFRAME ISTACK, 0, STACK
        ARGFRAME PSTACK, 0, STACK
        ARGFRAME XSTACK, 24, STACK
        ARGFRAME IOVERLAY, 0, STATIC
        ARGFRAME DOVERLAY, 0, STATIC
        FUNCALL ZDO_ProcessBindUnbindReq, ZDP_NwkAddrReq
        LOCFRAME ISTACK, 0, STACK
        LOCFRAME PSTACK, 0, STACK
        LOCFRAME XSTACK, 24, STACK
        LOCFRAME IOVERLAY, 0, STATIC
        LOCFRAME DOVERLAY, 0, STATIC
        ARGFRAME ISTACK, 0, STACK
        ARGFRAME PSTACK, 0, STACK
        ARGFRAME XSTACK, 24, STACK
        ARGFRAME IOVERLAY, 0, STATIC
        ARGFRAME DOVERLAY, 0, STATIC
        FUNCALL ZDO_ProcessBindUnbindReq, APSME_UnBindRequest
        LOCFRAME ISTACK, 0, STACK
        LOCFRAME PSTACK, 0, STACK
        LOCFRAME XSTACK, 25, STACK
        LOCFRAME IOVERLAY, 0, STATIC
        LOCFRAME DOVERLAY, 0, STATIC
        ARGFRAME ISTACK, 0, STACK
        ARGFRAME PSTACK, 0, STACK
        ARGFRAME XSTACK, 25, STACK
        ARGFRAME IOVERLAY, 0, STATIC
        ARGFRAME DOVERLAY, 0, STATIC
        FUNCALL ZDO_ProcessBindUnbindReq, ZDApp_NVUpdate
        LOCFRAME ISTACK, 0, STACK
        LOCFRAME PSTACK, 0, STACK
        LOCFRAME XSTACK, 24, STACK
        LOCFRAME IOVERLAY, 0, STATIC
        LOCFRAME DOVERLAY, 0, STATIC
        ARGFRAME ISTACK, 0, STACK
        ARGFRAME PSTACK, 0, STACK
        ARGFRAME XSTACK, 24, STACK
        ARGFRAME IOVERLAY, 0, STATIC
        ARGFRAME DOVERLAY, 0, STATIC
        FUNCALL ZDO_ProcessBindUnbindReq, ZDP_SendData
        LOCFRAME ISTACK, 0, STACK
        LOCFRAME PSTACK, 0, STACK
        LOCFRAME XSTACK, 29, STACK
        LOCFRAME IOVERLAY, 0, STATIC
        LOCFRAME DOVERLAY, 0, STATIC
        ARGFRAME ISTACK, 0, STACK
        ARGFRAME PSTACK, 0, STACK
        ARGFRAME XSTACK, 29, STACK
        ARGFRAME IOVERLAY, 0, STATIC
        ARGFRAME DOVERLAY, 0, STATIC
        MOV     A,#-0xc
        LCALL   ?BANKED_ENTER_XDATA
        CFI DPH0 load(1, XDATA, add(CFA_XSP16, literal(-1)))
        CFI DPL0 load(1, XDATA, add(CFA_XSP16, literal(-2)))
        CFI ?BRET_EXT load(1, XDATA, add(CFA_XSP16, literal(-3)))
        CFI ?RET_HIGH load(1, XDATA, add(CFA_XSP16, literal(-4)))
        CFI ?RET_LOW load(1, XDATA, add(CFA_XSP16, literal(-5)))
        CFI R7 load(1, XDATA, add(CFA_XSP16, literal(-6)))
        CFI V3 load(1, XDATA, add(CFA_XSP16, literal(-7)))
        CFI V2 load(1, XDATA, add(CFA_XSP16, literal(-8)))
        CFI V1 load(1, XDATA, add(CFA_XSP16, literal(-9)))
        CFI V0 load(1, XDATA, add(CFA_XSP16, literal(-10)))
        CFI VB load(1, XDATA, add(CFA_XSP16, literal(-11)))
        CFI R6 load(1, XDATA, add(CFA_XSP16, literal(-12)))
        CFI CFA_SP SP+0
        CFI CFA_XSP16 add(XSP16, 12)
        ; Saved register size: 12
        ; Auto size: 12
        MOV     A,#-0xc
        LCALL   ?ALLOC_XSTACK8
        CFI CFA_XSP16 add(XSP16, 24)
        MOV     ?V0 + 0,R2
        MOV     ?V0 + 1,R3
        MOV     A,R4
        MOV     R6,A
        MOV     A,R5
        MOV     R7,A
//  974   zAddrType_t SourceAddr;       // Binding Source addres
//  975   byte bindStat;
//  976 
//  977   SourceAddr.addrMode = Addr64Bit;
        MOV     A,#0xb
        LCALL   ?XSTACK_DISP0_8
        MOV     A,#0x3
        MOVX    @DPTR,A
//  978   osal_cpyExtAddr( SourceAddr.addr.extAddr, pReq->srcAddress );
        ; Setup parameters for call to function sAddrExtCpy
        MOV     A,R6
        MOV     R4,A
        MOV     A,R7
        MOV     R5,A
        MOV     A,#0x3
        LCALL   ?XSTACK_DISP0_8
        MOV     R2,DPL
        MOV     R3,DPH
        LCALL   ??sAddrExtCpy?relay
//  979 
//  980   // If the local device is not the primary binding cache
//  981   // check the src address of the bind request.
//  982   // If it is not the local device's extended address
//  983   // discard the request.
//  984   if ( !osal_ExtAddrEqual( SourceAddr.addr.extAddr, NLME_GetExtAddr()) ||
//  985         (pReq->dstAddress.addrMode != Addr64Bit &&
//  986          pReq->dstAddress.addrMode != AddrGroup) )
        ; Setup parameters for call to function sAddrExtCmp
        ; Setup parameters for call to function NLME_GetExtAddr
        LCALL   ??NLME_GetExtAddr?relay
        MOV     A,R2
        MOV     R4,A
        MOV     A,R3
        MOV     R5,A
        MOV     A,#0x3
        LCALL   ?XSTACK_DISP0_8
        MOV     R2,DPL
        MOV     R3,DPH
        LCALL   ??sAddrExtCmp?relay
        MOV     A,R1
        JZ      ??ZDO_ProcessBindUnbindReq_0
        MOV     A,R6
        ADD     A,#0x13
        MOV     DPL,A
        MOV     A,R7
        ADDC    A,#0x0
        MOV     DPH,A
        MOVX    A,@DPTR
        XRL     A,#0x3
        JZ      ??ZDO_ProcessBindUnbindReq_1
        MOV     A,R6
        ADD     A,#0x13
        MOV     DPL,A
        MOV     A,R7
        ADDC    A,#0x0
        MOV     DPH,A
        MOVX    A,@DPTR
        XRL     A,#0x1
        JZ      ??ZDO_ProcessBindUnbindReq_1
//  987   {
//  988     bindStat = ZDP_NOT_SUPPORTED;
??ZDO_ProcessBindUnbindReq_0:
        MOV     DPL,?XSP + 0
        MOV     DPH,?XSP + 1
        MOV     A,#-0x7c
        MOVX    @DPTR,A
        LJMP    ??ZDO_ProcessBindUnbindReq_2 & 0xFFFF
//  989   }
//  990   else
//  991   {
//  992     // Check source & destination endpoints
//  993     if ( (pReq->srcEndpoint == 0 || pReq->srcEndpoint > MAX_ENDPOINTS)
//  994         || (( pReq->dstAddress.addrMode == Addr64Bit ) &&
//  995             (pReq->dstEndpoint == 0 || pReq->dstEndpoint > MAX_ENDPOINTS)) )
??ZDO_ProcessBindUnbindReq_1:
        MOV     DPL,R6
        MOV     DPH,R7
        INC     DPTR
        INC     DPTR
        INC     DPTR
        INC     DPTR
        INC     DPTR
        INC     DPTR
        INC     DPTR
        INC     DPTR
        MOVX    A,@DPTR
        JZ      ??ZDO_ProcessBindUnbindReq_3
        MOV     DPL,R6
        MOV     DPH,R7
        INC     DPTR
        INC     DPTR
        INC     DPTR
        INC     DPTR
        INC     DPTR
        INC     DPTR
        INC     DPTR
        INC     DPTR
        MOVX    A,@DPTR
        CLR     C
        SUBB    A,#-0xf
        JNC     ??ZDO_ProcessBindUnbindReq_3
        MOV     A,R6
        ADD     A,#0x13
        MOV     DPL,A
        MOV     A,R7
        ADDC    A,#0x0
        MOV     DPH,A
        MOVX    A,@DPTR
        XRL     A,#0x3
        JNZ     ??ZDO_ProcessBindUnbindReq_4
        MOV     A,R6
        ADD     A,#0x14
        MOV     DPL,A
        MOV     A,R7
        ADDC    A,#0x0
        MOV     DPH,A
        MOVX    A,@DPTR
        JZ      ??ZDO_ProcessBindUnbindReq_3
        MOV     A,R6
        ADD     A,#0x14
        MOV     DPL,A
        MOV     A,R7
        ADDC    A,#0x0
        MOV     DPH,A
        MOVX    A,@DPTR
        CLR     C
        SUBB    A,#-0xf
        JC      ??ZDO_ProcessBindUnbindReq_4
//  996     {
//  997       bindStat = ZDP_INVALID_EP;
??ZDO_ProcessBindUnbindReq_3:
        MOV     DPL,?XSP + 0
        MOV     DPH,?XSP + 1
        MOV     A,#-0x7e
        MOVX    @DPTR,A
        LJMP    ??ZDO_ProcessBindUnbindReq_2 & 0xFFFF
//  998     }
//  999     else
// 1000     {
// 1001       if ( inMsg->clusterID == Bind_req )
??ZDO_ProcessBindUnbindReq_4:
        MOV     A,?V0 + 0
        ADD     A,#0xc
        MOV     DPL,A
        MOV     A,?V0 + 1
        ADDC    A,#0x0
        MOV     DPH,A
        MOVX    A,@DPTR
        XRL     A,#0x21
        JNZ     ??ZDO_ProcessBindUnbindReq_5
        INC     DPTR
        MOVX    A,@DPTR
        XRL     A,#0x0
??ZDO_ProcessBindUnbindReq_5:
        JZ      $+5
        LJMP    ??ZDO_ProcessBindUnbindReq_6 & 0xFFFF
// 1002       {
// 1003         // Assume the table is full
// 1004         bindStat = ZDP_TABLE_FULL;
        MOV     DPL,?XSP + 0
        MOV     DPH,?XSP + 1
        MOV     A,#-0x74
        MOVX    @DPTR,A
// 1005 
// 1006 #if defined( APP_TP ) || defined( APP_TP2 )
// 1007         // For ZigBee Conformance Testing
// 1008         if ( bindNumOfEntries() < gNWK_MAX_BINDING_ENTRIES )
// 1009 #endif
// 1010         {
// 1011           if ( APSME_BindRequest( pReq->srcEndpoint, pReq->clusterID,
// 1012                          &(pReq->dstAddress), pReq->dstEndpoint ) == ZSuccess )
        ; Setup parameters for call to function APSME_BindRequest
        MOV     A,R6
        ADD     A,#0x14
        MOV     DPL,A
        MOV     A,R7
        ADDC    A,#0x0
        MOV     DPH,A
        MOVX    A,@DPTR
        MOV     ?V0 + 2,A
        MOV     R0,#?V0 + 2
        LCALL   ?PUSH_XSTACK_I_ONE
        CFI CFA_XSP16 add(XSP16, 25)
        MOV     A,R6
        ADD     A,#0xb
        MOV     R4,A
        MOV     A,R7
        ADDC    A,#0x0
        MOV     R5,A
        MOV     DPL,R6
        MOV     DPH,R7
        INC     DPTR
        INC     DPTR
        INC     DPTR
        INC     DPTR
        INC     DPTR
        INC     DPTR
        INC     DPTR
        INC     DPTR
        INC     DPTR
        MOVX    A,@DPTR
        MOV     R2,A
        INC     DPTR
        MOVX    A,@DPTR
        MOV     R3,A
        MOV     DPL,R6
        MOV     DPH,R7
        INC     DPTR
        INC     DPTR
        INC     DPTR
        INC     DPTR
        INC     DPTR
        INC     DPTR
        INC     DPTR
        INC     DPTR
        MOVX    A,@DPTR
        MOV     R1,A
        LCALL   ??APSME_BindRequest?relay
        MOV     A,#0x1
        LCALL   ?DEALLOC_XSTACK8
        CFI CFA_XSP16 add(XSP16, 24)
        MOV     A,R1
        JZ      $+5
        LJMP    ??ZDO_ProcessBindUnbindReq_2 & 0xFFFF
// 1013           {
// 1014             uint16 nwkAddr;
// 1015 
// 1016             // valid entry
// 1017             bindStat = ZDP_SUCCESS;
        MOV     DPL,?XSP + 0
        MOV     DPH,?XSP + 1
        MOV     A,#0x0
        MOVX    @DPTR,A
// 1018 
// 1019             // Notify to save info into NV
// 1020             ZDApp_NVUpdate();
        ; Setup parameters for call to function ZDApp_NVUpdate
        LCALL   ??ZDApp_NVUpdate?relay
// 1021 
// 1022             // Check for the destination address
// 1023             if ( pReq->dstAddress.addrMode == Addr64Bit )
        MOV     A,R6
        ADD     A,#0x13
        MOV     DPL,A
        MOV     A,R7
        ADDC    A,#0x0
        MOV     DPH,A
        MOVX    A,@DPTR
        XRL     A,#0x3
        JZ      $+5
        LJMP    ??ZDO_ProcessBindUnbindReq_2 & 0xFFFF
// 1024             {
// 1025               if ( APSME_LookupNwkAddr( pReq->dstAddress.addr.extAddr, &nwkAddr ) == FALSE )
        ; Setup parameters for call to function APSME_LookupNwkAddr
        MOV     A,#0x1
        LCALL   ?XSTACK_DISP0_8
        MOV     R4,DPL
        MOV     R5,DPH
        MOV     A,R6
        ADD     A,#0xb
        MOV     R2,A
        MOV     A,R7
        ADDC    A,#0x0
        MOV     R3,A
        LCALL   ??APSME_LookupNwkAddr?relay
        MOV     A,R1
        JNZ     ??ZDO_ProcessBindUnbindReq_2
// 1026               {
// 1027                 ZDP_NwkAddrReq( pReq->dstAddress.addr.extAddr, ZDP_ADDR_REQTYPE_SINGLE, 0, 0 );
        ; Setup parameters for call to function ZDP_NwkAddrReq
        MOV     R5,#0x0
        MOV     R4,#0x0
        MOV     R1,#0x0
        MOV     A,R6
        ADD     A,#0xb
        MOV     R2,A
        MOV     A,R7
        ADDC    A,#0x0
        MOV     R3,A
        LCALL   ??ZDP_NwkAddrReq?relay
        MOV     A,R1
        SJMP    ??ZDO_ProcessBindUnbindReq_2
// 1028               }
// 1029             }
// 1030           }
// 1031         }
// 1032       }
// 1033       else // Unbind_req
// 1034       {
// 1035         if ( APSME_UnBindRequest( pReq->srcEndpoint, pReq->clusterID,
// 1036                        &(pReq->dstAddress), pReq->dstEndpoint ) == ZSuccess )
??ZDO_ProcessBindUnbindReq_6:
        ; Setup parameters for call to function APSME_UnBindRequest
        MOV     A,R6
        ADD     A,#0x14
        MOV     DPL,A
        MOV     A,R7
        ADDC    A,#0x0
        MOV     DPH,A
        MOVX    A,@DPTR
        MOV     ?V0 + 2,A
        MOV     R0,#?V0 + 2
        LCALL   ?PUSH_XSTACK_I_ONE
        CFI CFA_XSP16 add(XSP16, 25)
        MOV     A,R6
        ADD     A,#0xb
        MOV     R4,A
        MOV     A,R7
        ADDC    A,#0x0
        MOV     R5,A
        MOV     DPL,R6
        MOV     DPH,R7
        INC     DPTR
        INC     DPTR
        INC     DPTR
        INC     DPTR
        INC     DPTR
        INC     DPTR
        INC     DPTR
        INC     DPTR
        INC     DPTR
        MOVX    A,@DPTR
        MOV     R2,A
        INC     DPTR
        MOVX    A,@DPTR
        MOV     R3,A
        MOV     DPL,R6
        MOV     DPH,R7
        INC     DPTR
        INC     DPTR
        INC     DPTR
        INC     DPTR
        INC     DPTR
        INC     DPTR
        INC     DPTR
        INC     DPTR
        MOVX    A,@DPTR
        MOV     R1,A
        LCALL   ??APSME_UnBindRequest?relay
        MOV     A,#0x1
        LCALL   ?DEALLOC_XSTACK8
        CFI CFA_XSP16 add(XSP16, 24)
        MOV     A,R1
        JNZ     ??ZDO_ProcessBindUnbindReq_7
// 1037         {
// 1038           bindStat = ZDP_SUCCESS;
        MOV     DPL,?XSP + 0
        MOV     DPH,?XSP + 1
        MOV     A,#0x0
        MOVX    @DPTR,A
// 1039 
// 1040           // Notify to save info into NV
// 1041           ZDApp_NVUpdate();
        ; Setup parameters for call to function ZDApp_NVUpdate
        LCALL   ??ZDApp_NVUpdate?relay
        SJMP    ??ZDO_ProcessBindUnbindReq_2
// 1042         }
// 1043         else
// 1044           bindStat = ZDP_NO_ENTRY;
??ZDO_ProcessBindUnbindReq_7:
        MOV     DPL,?XSP + 0
        MOV     DPH,?XSP + 1
        MOV     A,#-0x78
        MOVX    @DPTR,A
// 1045       }
// 1046     }
// 1047   }
// 1048 
// 1049   // Send back a response message
// 1050   ZDP_SendData( &(inMsg->TransSeq), &(inMsg->srcAddr),
// 1051                (inMsg->clusterID | ZDO_RESPONSE_BIT), 1, &bindStat,
// 1052                inMsg->SecurityUse );
??ZDO_ProcessBindUnbindReq_2:
        ; Setup parameters for call to function ZDP_SendData
        MOV     A,?V0 + 0
        ADD     A,#0xe
        MOV     DPL,A
        MOV     A,?V0 + 1
        ADDC    A,#0x0
        MOV     DPH,A
        MOVX    A,@DPTR
        MOV     ?V0 + 2,A
        MOV     R0,#?V0 + 2
        LCALL   ?PUSH_XSTACK_I_ONE
        CFI CFA_XSP16 add(XSP16, 25)
        MOV     A,#0x1
        LCALL   ?XSTACK_DISP0_8
        MOV     ?V0 + 2,DPL
        MOV     ?V0 + 3,DPH
        MOV     R0,#?V0 + 2
        LCALL   ?PUSH_XSTACK_I_TWO
        CFI CFA_XSP16 add(XSP16, 27)
        MOV     A,?V0 + 0
        ADD     A,#0xc
        MOV     DPL,A
        MOV     A,?V0 + 1
        ADDC    A,#0x0
        MOV     DPH,A
        MOVX    A,@DPTR
        ORL     A,#0x0
        MOV     ?V0 + 2,A
        INC     DPTR
        MOVX    A,@DPTR
        ORL     A,#0x80
        MOV     ?V0 + 3,A
        MOV     R0,#?V0 + 2
        LCALL   ?PUSH_XSTACK_I_TWO
        CFI CFA_XSP16 add(XSP16, 29)
        MOV     R1,#0x1
        MOV     A,?V0 + 0
        ADD     A,#0x2
        MOV     R4,A
        MOV     A,?V0 + 1
        ADDC    A,#0x0
        MOV     R5,A
        MOV     A,?V0 + 0
        ADD     A,#0xf
        MOV     R2,A
        MOV     A,?V0 + 1
        ADDC    A,#0x0
        MOV     R3,A
        LCALL   ??ZDP_SendData?relay
        MOV     A,#0x5
        LCALL   ?DEALLOC_XSTACK8
        CFI CFA_XSP16 add(XSP16, 24)
        MOV     A,R1
// 1053 }
        MOV     A,#0xc
        LCALL   ?DEALLOC_XSTACK8
        CFI CFA_XSP16 add(XSP16, 12)
        MOV     R7,#0x4
        LJMP    ?BANKED_LEAVE_XDATA
        CFI EndBlock cfiBlock15
// 1054 
// 1055 /*********************************************************************
// 1056  * @fn      ZDO_UpdateAddrManager
// 1057  *
// 1058  * @brief   Update the Address Manager.
// 1059  *
// 1060  * @param   nwkAddr - network address
// 1061  * @param   extAddr - extended address
// 1062  *
// 1063  * @return  none
// 1064  */

        RSEG BANKED_CODE:CODE:NOROOT(0)
// 1065 void ZDO_UpdateAddrManager( uint16 nwkAddr, uint8 *extAddr )
ZDO_UpdateAddrManager:
        CFI Block cfiBlock16 Using cfiCommon0
        CFI Function ZDO_UpdateAddrManager
        CODE
// 1066 {
        FUNCALL ZDO_UpdateAddrManager, AddrMgrExtAddrSet
        LOCFRAME ISTACK, 0, STACK
        LOCFRAME PSTACK, 0, STACK
        LOCFRAME XSTACK, 23, STACK
        LOCFRAME IOVERLAY, 0, STATIC
        LOCFRAME DOVERLAY, 0, STATIC
        ARGFRAME ISTACK, 0, STACK
        ARGFRAME PSTACK, 0, STACK
        ARGFRAME XSTACK, 23, STACK
        ARGFRAME IOVERLAY, 0, STATIC
        ARGFRAME DOVERLAY, 0, STATIC
        FUNCALL ZDO_UpdateAddrManager, AddrMgrEntryUpdate
        LOCFRAME ISTACK, 0, STACK
        LOCFRAME PSTACK, 0, STACK
        LOCFRAME XSTACK, 23, STACK
        LOCFRAME IOVERLAY, 0, STATIC
        LOCFRAME DOVERLAY, 0, STATIC
        ARGFRAME ISTACK, 0, STACK
        ARGFRAME PSTACK, 0, STACK
        ARGFRAME XSTACK, 23, STACK
        ARGFRAME IOVERLAY, 0, STATIC
        ARGFRAME DOVERLAY, 0, STATIC
        MOV     A,#-0xa
        LCALL   ?BANKED_ENTER_XDATA
        CFI DPH0 load(1, XDATA, add(CFA_XSP16, literal(-1)))
        CFI DPL0 load(1, XDATA, add(CFA_XSP16, literal(-2)))
        CFI ?BRET_EXT load(1, XDATA, add(CFA_XSP16, literal(-3)))
        CFI ?RET_HIGH load(1, XDATA, add(CFA_XSP16, literal(-4)))
        CFI ?RET_LOW load(1, XDATA, add(CFA_XSP16, literal(-5)))
        CFI R7 load(1, XDATA, add(CFA_XSP16, literal(-6)))
        CFI V1 load(1, XDATA, add(CFA_XSP16, literal(-7)))
        CFI V0 load(1, XDATA, add(CFA_XSP16, literal(-8)))
        CFI VB load(1, XDATA, add(CFA_XSP16, literal(-9)))
        CFI R6 load(1, XDATA, add(CFA_XSP16, literal(-10)))
        CFI CFA_SP SP+0
        CFI CFA_XSP16 add(XSP16, 10)
        ; Saved register size: 10
        ; Auto size: 13
        MOV     A,#-0xd
        LCALL   ?ALLOC_XSTACK8
        CFI CFA_XSP16 add(XSP16, 23)
        MOV     ?V0 + 0,R2
        MOV     ?V0 + 1,R3
        MOV     A,R4
        MOV     R6,A
        MOV     A,R5
        MOV     R7,A
// 1067   AddrMgrEntry_t addrEntry;
// 1068 
// 1069   // Update the address manager
// 1070   addrEntry.user = ADDRMGR_USER_DEFAULT;
        MOV     DPL,?XSP + 0
        MOV     DPH,?XSP + 1
        MOV     A,#0x0
        MOVX    @DPTR,A
// 1071   addrEntry.nwkAddr = nwkAddr;
        MOV     A,#0x1
        LCALL   ?XSTACK_DISP0_8
        MOV     A,?V0 + 0
        MOVX    @DPTR,A
        INC     DPTR
        MOV     A,?V0 + 1
        MOVX    @DPTR,A
// 1072   AddrMgrExtAddrSet( addrEntry.extAddr, extAddr );
        ; Setup parameters for call to function AddrMgrExtAddrSet
        MOV     A,R6
        MOV     R4,A
        MOV     A,R7
        MOV     R5,A
        MOV     A,#0x3
        LCALL   ?XSTACK_DISP0_8
        MOV     R2,DPL
        MOV     R3,DPH
        LCALL   ??AddrMgrExtAddrSet?relay
// 1073   AddrMgrEntryUpdate( &addrEntry );
        ; Setup parameters for call to function AddrMgrEntryUpdate
        MOV     DPL,?XSP + 0
        MOV     DPH,?XSP + 1
        MOV     R2,DPL
        MOV     R3,DPH
        LCALL   ??AddrMgrEntryUpdate?relay
        MOV     A,R1
// 1074 }
        MOV     A,#0xd
        LCALL   ?DEALLOC_XSTACK8
        CFI CFA_XSP16 add(XSP16, 10)
        MOV     R7,#0x2
        LJMP    ?BANKED_LEAVE_XDATA
        CFI EndBlock cfiBlock16
// 1075 
// 1076 /*********************************************************************
// 1077  * @fn      ZDO_ProcessServerDiscReq
// 1078  *
// 1079  * @brief   Process the Server_Discovery_req message.
// 1080  *
// 1081  * @param   inMsg  - incoming message (request)
// 1082  *
// 1083  * @return  none
// 1084  */

        RSEG BANKED_CODE:CODE:NOROOT(0)
// 1085 void ZDO_ProcessServerDiscReq( zdoIncomingMsg_t *inMsg )
ZDO_ProcessServerDiscReq:
        CFI Block cfiBlock17 Using cfiCommon0
        CFI Function ZDO_ProcessServerDiscReq
        CODE
// 1086 {
        FUNCALL ZDO_ProcessServerDiscReq, ZDP_ServerDiscRsp
        LOCFRAME ISTACK, 0, STACK
        LOCFRAME PSTACK, 0, STACK
        LOCFRAME XSTACK, 16, STACK
        LOCFRAME IOVERLAY, 0, STATIC
        LOCFRAME DOVERLAY, 0, STATIC
        ARGFRAME ISTACK, 0, STACK
        ARGFRAME PSTACK, 0, STACK
        ARGFRAME XSTACK, 16, STACK
        ARGFRAME IOVERLAY, 0, STATIC
        ARGFRAME DOVERLAY, 0, STATIC
        MOV     A,#-0xc
        LCALL   ?BANKED_ENTER_XDATA
        CFI DPH0 load(1, XDATA, add(CFA_XSP16, literal(-1)))
        CFI DPL0 load(1, XDATA, add(CFA_XSP16, literal(-2)))
        CFI ?BRET_EXT load(1, XDATA, add(CFA_XSP16, literal(-3)))
        CFI ?RET_HIGH load(1, XDATA, add(CFA_XSP16, literal(-4)))
        CFI ?RET_LOW load(1, XDATA, add(CFA_XSP16, literal(-5)))
        CFI R7 load(1, XDATA, add(CFA_XSP16, literal(-6)))
        CFI V3 load(1, XDATA, add(CFA_XSP16, literal(-7)))
        CFI V2 load(1, XDATA, add(CFA_XSP16, literal(-8)))
        CFI V1 load(1, XDATA, add(CFA_XSP16, literal(-9)))
        CFI V0 load(1, XDATA, add(CFA_XSP16, literal(-10)))
        CFI VB load(1, XDATA, add(CFA_XSP16, literal(-11)))
        CFI R6 load(1, XDATA, add(CFA_XSP16, literal(-12)))
        CFI CFA_SP SP+0
        CFI CFA_XSP16 add(XSP16, 12)
        ; Saved register size: 12
        ; Auto size: 0
        MOV     A,R2
        MOV     R6,A
        MOV     A,R3
        MOV     R7,A
// 1087   uint16 serverMask = BUILD_UINT16( inMsg->asdu[0], inMsg->asdu[1] );
        MOV     A,R6
        ADD     A,#0x13
        MOV     DPL,A
        MOV     A,R7
        ADDC    A,#0x0
        MOV     DPH,A
        MOVX    A,@DPTR
        MOV     R0,A
        INC     DPTR
        MOVX    A,@DPTR
        MOV     DPH,A
        MOV     DPL,R0
        MOVX    A,@DPTR
        MOV     R2,A
        MOV     R3,#0x0
        MOV     A,R6
        ADD     A,#0x13
        MOV     DPL,A
        MOV     A,R7
        ADDC    A,#0x0
        MOV     DPH,A
        MOVX    A,@DPTR
        MOV     R0,A
        INC     DPTR
        MOVX    A,@DPTR
        MOV     DPH,A
        MOV     DPL,R0
        INC     DPTR
        MOVX    A,@DPTR
        MOV     R0,A
        MOV     R1,#0x0
        CLR     A
        XCH     A,R0
        MOV     R1,A
        MOV     A,R2
        ADD     A,R0
        MOV     ?V0 + 0,A
        MOV     A,R3
        ADDC    A,R1
        MOV     ?V0 + 1,A
// 1088   uint16 matchMask = serverMask & ZDO_Config_Node_Descriptor.ServerMask;
        MOV     DPTR,#ZDO_Config_Node_Descriptor + 8
        MOVX    A,@DPTR
        ANL     A,?V0 + 0
        MOV     ?V0 + 2,A
        INC     DPTR
        MOVX    A,@DPTR
        ANL     A,?V0 + 1
        MOV     ?V0 + 3,A
// 1089 
// 1090   if ( matchMask )
        MOV     A,?V0 + 2
        ORL     A,?V0 + 3
        JZ      ??ZDO_ProcessServerDiscReq_0
// 1091   {
// 1092     ZDP_ServerDiscRsp( inMsg->TransSeq, &(inMsg->srcAddr), ZSUCCESS,
// 1093                 ZDAppNwkAddr.addr.shortAddr, matchMask, inMsg->SecurityUse );
        ; Setup parameters for call to function ZDP_ServerDiscRsp
        MOV     R0,#?V0 + 2
        LCALL   ?PUSH_XSTACK_I_TWO
        CFI CFA_XSP16 add(XSP16, 14)
        MOV     DPTR,#ZDAppNwkAddr
        LCALL   ?PUSH_XSTACK8_X_TWO
        CFI CFA_XSP16 add(XSP16, 16)
        MOV     A,R6
        ADD     A,#0xe
        MOV     DPL,A
        MOV     A,R7
        ADDC    A,#0x0
        MOV     DPH,A
        MOVX    A,@DPTR
        MOV     R5,A
        MOV     R4,#0x0
        MOV     A,R6
        ADD     A,#0x2
        MOV     R2,A
        MOV     A,R7
        ADDC    A,#0x0
        MOV     R3,A
        MOV     A,R6
        ADD     A,#0xf
        MOV     DPL,A
        MOV     A,R7
        ADDC    A,#0x0
        MOV     DPH,A
        MOVX    A,@DPTR
        MOV     R1,A
        LCALL   ??ZDP_ServerDiscRsp?relay
        MOV     A,#0x4
        LCALL   ?DEALLOC_XSTACK8
        CFI CFA_XSP16 add(XSP16, 12)
        MOV     A,R1
// 1094   }
// 1095 }
??ZDO_ProcessServerDiscReq_0:
        MOV     R7,#0x4
        LJMP    ?BANKED_LEAVE_XDATA
        CFI EndBlock cfiBlock17
// 1096 
// 1097 /*********************************************************************
// 1098  * Call Back Functions from APS  - API
// 1099  */
// 1100 
// 1101 /*********************************************************************
// 1102  * @fn          ZDO_EndDeviceTimeoutCB
// 1103  *
// 1104  * @brief       This function handles the binding timer for the End
// 1105  *              Device Bind command.
// 1106  *
// 1107  * @param       none
// 1108  *
// 1109  * @return      none
// 1110  */

        RSEG BANKED_CODE:CODE:NOROOT(0)
// 1111 void ZDO_EndDeviceTimeoutCB( void )
ZDO_EndDeviceTimeoutCB:
        CFI Block cfiBlock18 Using cfiCommon0
        CFI Function ZDO_EndDeviceTimeoutCB
        CODE
// 1112 {
        FUNCALL ZDO_EndDeviceTimeoutCB, ZDO_SendEDBindRsp
        LOCFRAME ISTACK, 0, STACK
        LOCFRAME PSTACK, 0, STACK
        LOCFRAME XSTACK, 9, STACK
        LOCFRAME IOVERLAY, 0, STATIC
        LOCFRAME DOVERLAY, 0, STATIC
        ARGFRAME ISTACK, 0, STACK
        ARGFRAME PSTACK, 0, STACK
        ARGFRAME XSTACK, 9, STACK
        ARGFRAME IOVERLAY, 0, STATIC
        ARGFRAME DOVERLAY, 0, STATIC
        FUNCALL ZDO_EndDeviceTimeoutCB, ZDO_RemoveEndDeviceBind
        LOCFRAME ISTACK, 0, STACK
        LOCFRAME PSTACK, 0, STACK
        LOCFRAME XSTACK, 9, STACK
        LOCFRAME IOVERLAY, 0, STATIC
        LOCFRAME DOVERLAY, 0, STATIC
        ARGFRAME ISTACK, 0, STACK
        ARGFRAME PSTACK, 0, STACK
        ARGFRAME XSTACK, 9, STACK
        ARGFRAME IOVERLAY, 0, STATIC
        ARGFRAME DOVERLAY, 0, STATIC
        MOV     A,#-0x9
        LCALL   ?BANKED_ENTER_XDATA
        CFI DPH0 load(1, XDATA, add(CFA_XSP16, literal(-1)))
        CFI DPL0 load(1, XDATA, add(CFA_XSP16, literal(-2)))
        CFI ?BRET_EXT load(1, XDATA, add(CFA_XSP16, literal(-3)))
        CFI ?RET_HIGH load(1, XDATA, add(CFA_XSP16, literal(-4)))
        CFI ?RET_LOW load(1, XDATA, add(CFA_XSP16, literal(-5)))
        CFI R7 load(1, XDATA, add(CFA_XSP16, literal(-6)))
        CFI V0 load(1, XDATA, add(CFA_XSP16, literal(-7)))
        CFI VB load(1, XDATA, add(CFA_XSP16, literal(-8)))
        CFI R6 load(1, XDATA, add(CFA_XSP16, literal(-9)))
        CFI CFA_SP SP+0
        CFI CFA_XSP16 add(XSP16, 9)
        ; Saved register size: 9
        ; Auto size: 0
// 1113 #if defined ( REFLECTOR )
// 1114   byte stat;
// 1115   if ( ZDO_EDBind )
        MOV     DPTR,#ZDO_EDBind
        MOVX    A,@DPTR
        MOV     R0,A
        INC     DPTR
        MOVX    A,@DPTR
        MOV     R1,A
        MOV     A,R0
        ORL     A,R1
        JZ      ??ZDO_EndDeviceTimeoutCB_0
// 1116   {
// 1117     stat = ZDO_EDBind->status;
        MOV     DPTR,#ZDO_EDBind
        MOVX    A,@DPTR
        ADD     A,#0x16
        MOV     R0,A
        INC     DPTR
        MOVX    A,@DPTR
        ADDC    A,#0x0
        MOV     R1,A
        MOV     DPL,R0
        MOV     DPH,R1
        MOVX    A,@DPTR
        MOV     R6,A
// 1118 
// 1119     // Send the response message to the first sent
// 1120     ZDO_SendEDBindRsp( ZDO_EDBind->SrcTransSeq, &(ZDO_EDBind->SrcAddr),
// 1121                         stat, ZDO_EDBind->SecurityUse );
        ; Setup parameters for call to function ZDO_SendEDBindRsp
        MOV     DPTR,#ZDO_EDBind
        MOVX    A,@DPTR
        ADD     A,#0x15
        MOV     R0,A
        INC     DPTR
        MOVX    A,@DPTR
        ADDC    A,#0x0
        MOV     R1,A
        MOV     DPL,R0
        MOV     DPH,R1
        MOVX    A,@DPTR
        MOV     R5,A
        MOV     A,R6
        MOV     R4,A
        MOV     DPTR,#ZDO_EDBind
        MOVX    A,@DPTR
        ADD     A,#0x1
        MOV     R2,A
        INC     DPTR
        MOVX    A,@DPTR
        ADDC    A,#0x0
        MOV     R3,A
        MOV     DPTR,#ZDO_EDBind
        MOVX    A,@DPTR
        MOV     R0,A
        INC     DPTR
        MOVX    A,@DPTR
        MOV     DPH,A
        MOV     DPL,R0
        MOVX    A,@DPTR
        MOV     R1,A
        LCALL   ??ZDO_SendEDBindRsp?relay
// 1122 
// 1123     ZDO_RemoveEndDeviceBind();
        ; Setup parameters for call to function ZDO_RemoveEndDeviceBind
        LCALL   ??ZDO_RemoveEndDeviceBind?relay
// 1124   }
// 1125 #endif  // REFLECTOR
// 1126 }
??ZDO_EndDeviceTimeoutCB_0:
        MOV     R7,#0x1
        LJMP    ?BANKED_LEAVE_XDATA
        CFI EndBlock cfiBlock18
// 1127 
// 1128 /*********************************************************************
// 1129  * Optional Management Messages
// 1130  */
// 1131 
// 1132 /*********************************************************************
// 1133  * @fn          ZDO_ProcessMgmtLqiReq
// 1134  *
// 1135  * @brief       This function handles parsing the incoming Management
// 1136  *              LQI request and generate the response.
// 1137  *
// 1138  *   Note:      This function will limit the number of items returned
// 1139  *              to ZDO_MAX_LQI_ITEMS items.
// 1140  *
// 1141  * @param       inMsg - incoming message (request)
// 1142  *
// 1143  * @return      none
// 1144  */

        RSEG BANKED_CODE:CODE:NOROOT(0)
// 1145 void ZDO_ProcessMgmtLqiReq( zdoIncomingMsg_t *inMsg )
ZDO_ProcessMgmtLqiReq:
        CFI Block cfiBlock19 Using cfiCommon0
        CFI Function ZDO_ProcessMgmtLqiReq
        CODE
// 1146 {
        FUNCALL ZDO_ProcessMgmtLqiReq, NLME_GetRequest
        LOCFRAME ISTACK, 0, STACK
        LOCFRAME PSTACK, 0, STACK
        LOCFRAME XSTACK, 59, STACK
        LOCFRAME IOVERLAY, 0, STATIC
        LOCFRAME DOVERLAY, 0, STATIC
        ARGFRAME ISTACK, 0, STACK
        ARGFRAME PSTACK, 0, STACK
        ARGFRAME XSTACK, 59, STACK
        ARGFRAME IOVERLAY, 0, STATIC
        ARGFRAME DOVERLAY, 0, STATIC
        FUNCALL ZDO_ProcessMgmtLqiReq, AssocCount
        LOCFRAME ISTACK, 0, STACK
        LOCFRAME PSTACK, 0, STACK
        LOCFRAME XSTACK, 59, STACK
        LOCFRAME IOVERLAY, 0, STATIC
        LOCFRAME DOVERLAY, 0, STATIC
        ARGFRAME ISTACK, 0, STACK
        ARGFRAME PSTACK, 0, STACK
        ARGFRAME XSTACK, 59, STACK
        ARGFRAME IOVERLAY, 0, STATIC
        ARGFRAME DOVERLAY, 0, STATIC
        FUNCALL ZDO_ProcessMgmtLqiReq, osal_mem_alloc
        LOCFRAME ISTACK, 0, STACK
        LOCFRAME PSTACK, 0, STACK
        LOCFRAME XSTACK, 59, STACK
        LOCFRAME IOVERLAY, 0, STATIC
        LOCFRAME DOVERLAY, 0, STATIC
        ARGFRAME ISTACK, 0, STACK
        ARGFRAME PSTACK, 0, STACK
        ARGFRAME XSTACK, 59, STACK
        ARGFRAME IOVERLAY, 0, STATIC
        ARGFRAME DOVERLAY, 0, STATIC
        FUNCALL ZDO_ProcessMgmtLqiReq, AssocFindDevice
        LOCFRAME ISTACK, 0, STACK
        LOCFRAME PSTACK, 0, STACK
        LOCFRAME XSTACK, 59, STACK
        LOCFRAME IOVERLAY, 0, STATIC
        LOCFRAME DOVERLAY, 0, STATIC
        ARGFRAME ISTACK, 0, STACK
        ARGFRAME PSTACK, 0, STACK
        ARGFRAME XSTACK, 59, STACK
        ARGFRAME IOVERLAY, 0, STATIC
        ARGFRAME DOVERLAY, 0, STATIC
        FUNCALL ZDO_ProcessMgmtLqiReq, sAddrExtCpy
        LOCFRAME ISTACK, 0, STACK
        LOCFRAME PSTACK, 0, STACK
        LOCFRAME XSTACK, 59, STACK
        LOCFRAME IOVERLAY, 0, STATIC
        LOCFRAME DOVERLAY, 0, STATIC
        ARGFRAME ISTACK, 0, STACK
        ARGFRAME PSTACK, 0, STACK
        ARGFRAME XSTACK, 59, STACK
        ARGFRAME IOVERLAY, 0, STATIC
        ARGFRAME DOVERLAY, 0, STATIC
        FUNCALL ZDO_ProcessMgmtLqiReq, AddrMgrEntryLookupNwk
        LOCFRAME ISTACK, 0, STACK
        LOCFRAME PSTACK, 0, STACK
        LOCFRAME XSTACK, 59, STACK
        LOCFRAME IOVERLAY, 0, STATIC
        LOCFRAME DOVERLAY, 0, STATIC
        ARGFRAME ISTACK, 0, STACK
        ARGFRAME PSTACK, 0, STACK
        ARGFRAME XSTACK, 59, STACK
        ARGFRAME IOVERLAY, 0, STATIC
        ARGFRAME DOVERLAY, 0, STATIC
        FUNCALL ZDO_ProcessMgmtLqiReq, sAddrExtCpy
        LOCFRAME ISTACK, 0, STACK
        LOCFRAME PSTACK, 0, STACK
        LOCFRAME XSTACK, 59, STACK
        LOCFRAME IOVERLAY, 0, STATIC
        LOCFRAME DOVERLAY, 0, STATIC
        ARGFRAME ISTACK, 0, STACK
        ARGFRAME PSTACK, 0, STACK
        ARGFRAME XSTACK, 59, STACK
        ARGFRAME IOVERLAY, 0, STATIC
        ARGFRAME DOVERLAY, 0, STATIC
        FUNCALL ZDO_ProcessMgmtLqiReq, osal_memset
        LOCFRAME ISTACK, 0, STACK
        LOCFRAME PSTACK, 0, STACK
        LOCFRAME XSTACK, 59, STACK
        LOCFRAME IOVERLAY, 0, STATIC
        LOCFRAME DOVERLAY, 0, STATIC
        ARGFRAME ISTACK, 0, STACK
        ARGFRAME PSTACK, 0, STACK
        ARGFRAME XSTACK, 59, STACK
        ARGFRAME IOVERLAY, 0, STATIC
        ARGFRAME DOVERLAY, 0, STATIC
        FUNCALL ZDO_ProcessMgmtLqiReq, NLME_GetRequest
        LOCFRAME ISTACK, 0, STACK
        LOCFRAME PSTACK, 0, STACK
        LOCFRAME XSTACK, 59, STACK
        LOCFRAME IOVERLAY, 0, STATIC
        LOCFRAME DOVERLAY, 0, STATIC
        ARGFRAME ISTACK, 0, STACK
        ARGFRAME PSTACK, 0, STACK
        ARGFRAME XSTACK, 59, STACK
        ARGFRAME IOVERLAY, 0, STATIC
        ARGFRAME DOVERLAY, 0, STATIC
        FUNCALL ZDO_ProcessMgmtLqiReq, sAddrExtCpy
        LOCFRAME ISTACK, 0, STACK
        LOCFRAME PSTACK, 0, STACK
        LOCFRAME XSTACK, 59, STACK
        LOCFRAME IOVERLAY, 0, STATIC
        LOCFRAME DOVERLAY, 0, STATIC
        ARGFRAME ISTACK, 0, STACK
        ARGFRAME PSTACK, 0, STACK
        ARGFRAME XSTACK, 59, STACK
        ARGFRAME IOVERLAY, 0, STATIC
        ARGFRAME DOVERLAY, 0, STATIC
        FUNCALL ZDO_ProcessMgmtLqiReq, osal_memset
        LOCFRAME ISTACK, 0, STACK
        LOCFRAME PSTACK, 0, STACK
        LOCFRAME XSTACK, 59, STACK
        LOCFRAME IOVERLAY, 0, STATIC
        LOCFRAME DOVERLAY, 0, STATIC
        ARGFRAME ISTACK, 0, STACK
        ARGFRAME PSTACK, 0, STACK
        ARGFRAME XSTACK, 59, STACK
        ARGFRAME IOVERLAY, 0, STATIC
        ARGFRAME DOVERLAY, 0, STATIC
        FUNCALL ZDO_ProcessMgmtLqiReq, ZDP_MgmtLqiRsp
        LOCFRAME ISTACK, 0, STACK
        LOCFRAME PSTACK, 0, STACK
        LOCFRAME XSTACK, 64, STACK
        LOCFRAME IOVERLAY, 0, STATIC
        LOCFRAME DOVERLAY, 0, STATIC
        ARGFRAME ISTACK, 0, STACK
        ARGFRAME PSTACK, 0, STACK
        ARGFRAME XSTACK, 64, STACK
        ARGFRAME IOVERLAY, 0, STATIC
        ARGFRAME DOVERLAY, 0, STATIC
        FUNCALL ZDO_ProcessMgmtLqiReq, osal_mem_free
        LOCFRAME ISTACK, 0, STACK
        LOCFRAME PSTACK, 0, STACK
        LOCFRAME XSTACK, 59, STACK
        LOCFRAME IOVERLAY, 0, STATIC
        LOCFRAME DOVERLAY, 0, STATIC
        ARGFRAME ISTACK, 0, STACK
        ARGFRAME PSTACK, 0, STACK
        ARGFRAME XSTACK, 59, STACK
        ARGFRAME IOVERLAY, 0, STATIC
        ARGFRAME DOVERLAY, 0, STATIC
        MOV     A,#-0x16
        LCALL   ?BANKED_ENTER_XDATA
        CFI DPH0 load(1, XDATA, add(CFA_XSP16, literal(-1)))
        CFI DPL0 load(1, XDATA, add(CFA_XSP16, literal(-2)))
        CFI ?BRET_EXT load(1, XDATA, add(CFA_XSP16, literal(-3)))
        CFI ?RET_HIGH load(1, XDATA, add(CFA_XSP16, literal(-4)))
        CFI ?RET_LOW load(1, XDATA, add(CFA_XSP16, literal(-5)))
        CFI R7 load(1, XDATA, add(CFA_XSP16, literal(-6)))
        CFI V13 load(1, XDATA, add(CFA_XSP16, literal(-7)))
        CFI V12 load(1, XDATA, add(CFA_XSP16, literal(-8)))
        CFI V11 load(1, XDATA, add(CFA_XSP16, literal(-9)))
        CFI V10 load(1, XDATA, add(CFA_XSP16, literal(-10)))
        CFI V9 load(1, XDATA, add(CFA_XSP16, literal(-11)))
        CFI V8 load(1, XDATA, add(CFA_XSP16, literal(-12)))
        CFI V7 load(1, XDATA, add(CFA_XSP16, literal(-13)))
        CFI V6 load(1, XDATA, add(CFA_XSP16, literal(-14)))
        CFI V5 load(1, XDATA, add(CFA_XSP16, literal(-15)))
        CFI V4 load(1, XDATA, add(CFA_XSP16, literal(-16)))
        CFI V3 load(1, XDATA, add(CFA_XSP16, literal(-17)))
        CFI V2 load(1, XDATA, add(CFA_XSP16, literal(-18)))
        CFI V1 load(1, XDATA, add(CFA_XSP16, literal(-19)))
        CFI V0 load(1, XDATA, add(CFA_XSP16, literal(-20)))
        CFI VB load(1, XDATA, add(CFA_XSP16, literal(-21)))
        CFI R6 load(1, XDATA, add(CFA_XSP16, literal(-22)))
        CFI CFA_SP SP+0
        CFI CFA_XSP16 add(XSP16, 22)
        ; Saved register size: 22
        ; Auto size: 37
        MOV     A,#-0x25
        LCALL   ?ALLOC_XSTACK8
        CFI CFA_XSP16 add(XSP16, 59)
        MOV     ?V0 + 12,R2
        MOV     ?V0 + 13,R3
// 1147   byte x;
// 1148   byte index;
// 1149   byte numItems;
// 1150   byte maxItems;
// 1151   ZDP_MgmtLqiItem_t* table = NULL;
        MOV     ?V0 + 6,#0x0
        MOV     ?V0 + 7,#0x0
// 1152   ZDP_MgmtLqiItem_t* item;
// 1153   neighborEntry_t    entry;
// 1154   byte aItems;
// 1155   associated_devices_t *aDevice;
// 1156   AddrMgrEntry_t  nwkEntry;
// 1157   uint8 StartIndex = inMsg->asdu[0];
        MOV     A,?V0 + 12
        ADD     A,#0x13
        MOV     DPL,A
        MOV     A,?V0 + 13
        ADDC    A,#0x0
        MOV     DPH,A
        MOVX    A,@DPTR
        MOV     R0,A
        INC     DPTR
        MOVX    A,@DPTR
        MOV     DPH,A
        MOV     DPL,R0
        MOVX    A,@DPTR
        MOV     ?V0 + 2,A
// 1158 
// 1159   // Get the number of neighbor items
// 1160   NLME_GetRequest( nwkNumNeighborTableEntries, 0, &maxItems );
        ; Setup parameters for call to function NLME_GetRequest
        MOV     DPL,?XSP + 0
        MOV     DPH,?XSP + 1
        MOV     R4,DPL
        MOV     R5,DPH
        MOV     R2,#0x0
        MOV     R3,#0x0
        MOV     R1,#-0x64
        LCALL   ??NLME_GetRequest?relay
        MOV     A,R1
// 1161 
// 1162   // Get the number of associated items
// 1163   aItems = (uint8)AssocCount( PARENT, CHILD_FFD_RX_IDLE );
        ; Setup parameters for call to function AssocCount
        MOV     R2,#0x4
        MOV     R1,#0x0
        LCALL   ??AssocCount?relay
        MOV     A,R2
        MOV     ?V0 + 10,A
// 1164 
// 1165   // Total number of items
// 1166   maxItems += aItems;
        MOV     DPL,?XSP + 0
        MOV     DPH,?XSP + 1
        MOVX    A,@DPTR
        ADD     A,?V0 + 10
        MOVX    @DPTR,A
// 1167 
// 1168   // Start with the supplied index
// 1169   if ( maxItems > StartIndex )
        MOV     DPL,?XSP + 0
        MOV     DPH,?XSP + 1
        MOVX    A,@DPTR
        MOV     R0,A
        MOV     A,?V0 + 2
        CLR     C
        SUBB    A,R0
        JC      $+5
        LJMP    ??ZDO_ProcessMgmtLqiReq_0 & 0xFFFF
// 1170   {
// 1171     numItems = maxItems - StartIndex;
        MOV     DPL,?XSP + 0
        MOV     DPH,?XSP + 1
        MOVX    A,@DPTR
        CLR     C
        SUBB    A,?V0 + 2
        MOV     ?V0 + 1,A
// 1172 
// 1173     // limit the size of the list
// 1174     if ( numItems > ZDO_MAX_LQI_ITEMS )
        MOV     A,?V0 + 1
        CLR     C
        SUBB    A,#0x4
        JC      ??ZDO_ProcessMgmtLqiReq_1
// 1175       numItems = ZDO_MAX_LQI_ITEMS;
        MOV     ?V0 + 1,#0x3
// 1176 
// 1177     // Allocate the memory to build the table
// 1178     table = (ZDP_MgmtLqiItem_t*)osal_mem_alloc( (short)
// 1179               ( numItems * sizeof( ZDP_MgmtLqiItem_t ) ) );
??ZDO_ProcessMgmtLqiReq_1:
        ; Setup parameters for call to function osal_mem_alloc
        MOV     A,?V0 + 1
        MOV     R2,?V0 + 1
        MOV     R3,#0x0
        MOV     A,R2
        MOV     B,#0x1a
        MUL     AB
        XCH     A,R2
        MOV     R0,B
        MOV     B,#0x0
        MUL     AB
        ADD     A,R0
        MOV     R0,A
        MOV     B,#0x1a
        MOV     A,R3
        MUL     AB
        ADD     A,R0
        MOV     R3,A
        LCALL   ??osal_mem_alloc?relay
        MOV     ?V0 + 8,R2
        MOV     ?V0 + 9,R3
        MOV     ?V0 + 6,?V0 + 8
        MOV     ?V0 + 7,?V0 + 9
// 1180 
// 1181     if ( table != NULL )
        MOV     A,?V0 + 6
        ORL     A,?V0 + 7
        JNZ     $+5
        LJMP    ??ZDO_ProcessMgmtLqiReq_2 & 0xFFFF
// 1182     {
// 1183       x = 0;
        MOV     ?V0 + 3,#0x0
// 1184       item = table;
        MOV     R6,?V0 + 6
        MOV     R7,?V0 + 7
// 1185       index = StartIndex;
        MOV     ?V0 + 0,?V0 + 2
// 1186 
// 1187       // Loop through associated items and build list
// 1188       for ( ; x < numItems; x++ )
??ZDO_ProcessMgmtLqiReq_3:
        MOV     A,?V0 + 3
        CLR     C
        SUBB    A,?V0 + 1
        JC      $+5
        LJMP    ??ZDO_ProcessMgmtLqiReq_4 & 0xFFFF
// 1189       {
// 1190         if ( index < aItems )
        MOV     A,?V0 + 0
        CLR     C
        SUBB    A,?V0 + 10
        JC      $+5
        LJMP    ??ZDO_ProcessMgmtLqiReq_5 & 0xFFFF
// 1191         {
// 1192           // get next associated device
// 1193           aDevice = AssocFindDevice( index++ );
        ; Setup parameters for call to function AssocFindDevice
        MOV     R1,?V0 + 0
        LCALL   ??AssocFindDevice?relay
        MOV     ?V0 + 8,R2
        MOV     ?V0 + 9,R3
        MOV     ?V0 + 4,?V0 + 8
        MOV     ?V0 + 5,?V0 + 9
        INC     ?V0 + 0
// 1194 
// 1195           // set basic fields
// 1196           item->panID   = _NIB.nwkPanId;
        MOV     DPTR,#_NIB + 33
        MOVX    A,@DPTR
        MOV     R0,A
        INC     DPTR
        MOVX    A,@DPTR
        MOV     R1,A
        MOV     DPL,R6
        MOV     DPH,R7
        MOV     A,R0
        MOVX    @DPTR,A
        INC     DPTR
        MOV     A,R1
        MOVX    @DPTR,A
// 1197           osal_cpyExtAddr( item->extPanID, _NIB.extendedPANID );
        ; Setup parameters for call to function sAddrExtCpy
        MOV     R4,#(_NIB + 53) & 0xff
        MOV     R5,#((_NIB + 53) >> 8) & 0xff
        MOV     A,R6
        ADD     A,#0x2
        MOV     R2,A
        MOV     A,R7
        ADDC    A,#0x0
        MOV     R3,A
        LCALL   ??sAddrExtCpy?relay
// 1198           item->nwkAddr = aDevice->shortAddr;
        MOV     DPL,?V0 + 4
        MOV     DPH,?V0 + 5
        MOVX    A,@DPTR
        MOV     R0,A
        INC     DPTR
        MOVX    A,@DPTR
        MOV     R1,A
        MOV     A,R6
        ADD     A,#0x12
        MOV     DPL,A
        MOV     A,R7
        ADDC    A,#0x0
        MOV     DPH,A
        MOV     A,R0
        MOVX    @DPTR,A
        INC     DPTR
        MOV     A,R1
        MOVX    @DPTR,A
// 1199           item->permit  = ZDP_MGMT_BOOL_UNKNOWN;
        MOV     A,R6
        ADD     A,#0x17
        MOV     DPL,A
        MOV     A,R7
        ADDC    A,#0x0
        MOV     DPH,A
        MOV     A,#0x2
        MOVX    @DPTR,A
// 1200           item->depth   = 0xFF;
        MOV     A,R6
        ADD     A,#0x18
        MOV     DPL,A
        MOV     A,R7
        ADDC    A,#0x0
        MOV     DPH,A
        MOV     A,#-0x1
        MOVX    @DPTR,A
// 1201           item->lqi     = aDevice->linkInfo.rxLqi;
        MOV     DPL,?V0 + 4
        MOV     DPH,?V0 + 5
        INC     DPTR
        INC     DPTR
        INC     DPTR
        INC     DPTR
        INC     DPTR
        INC     DPTR
        INC     DPTR
        INC     DPTR
        INC     DPTR
        INC     DPTR
        MOVX    A,@DPTR
        PUSH    A
        CFI CFA_SP SP+-1
        MOV     A,R6
        ADD     A,#0x19
        MOV     DPL,A
        MOV     A,R7
        ADDC    A,#0x0
        MOV     DPH,A
        POP     A
        CFI CFA_SP SP+0
        MOVX    @DPTR,A
// 1202 
// 1203           // set extented address
// 1204           nwkEntry.user    = ADDRMGR_USER_DEFAULT;
        MOV     A,#0x1
        LCALL   ?XSTACK_DISP0_8
        MOV     A,#0x0
        MOVX    @DPTR,A
// 1205           nwkEntry.nwkAddr = aDevice->shortAddr;
        MOV     DPL,?V0 + 4
        MOV     DPH,?V0 + 5
        MOVX    A,@DPTR
        MOV     R0,A
        INC     DPTR
        MOVX    A,@DPTR
        MOV     R1,A
        MOV     A,#0x2
        LCALL   ?XSTACK_DISP0_8
        MOV     A,R0
        MOVX    @DPTR,A
        INC     DPTR
        MOV     A,R1
        MOVX    @DPTR,A
// 1206 
// 1207           if ( AddrMgrEntryLookupNwk( &nwkEntry ) == TRUE )
        ; Setup parameters for call to function AddrMgrEntryLookupNwk
        MOV     A,#0x1
        LCALL   ?XSTACK_DISP0_8
        MOV     R2,DPL
        MOV     R3,DPH
        LCALL   ??AddrMgrEntryLookupNwk?relay
        MOV     A,R1
        XRL     A,#0x1
        JNZ     ??ZDO_ProcessMgmtLqiReq_6
// 1208           {
// 1209             osal_cpyExtAddr( item->extAddr, nwkEntry.extAddr );
        ; Setup parameters for call to function sAddrExtCpy
        MOV     A,#0x4
        LCALL   ?XSTACK_DISP0_8
        MOV     R4,DPL
        MOV     R5,DPH
        MOV     A,R6
        ADD     A,#0xa
        MOV     R2,A
        MOV     A,R7
        ADDC    A,#0x0
        MOV     R3,A
        LCALL   ??sAddrExtCpy?relay
        SJMP    ??ZDO_ProcessMgmtLqiReq_7
// 1210           }
// 1211           else
// 1212           {
// 1213             osal_memset( item->extAddr, 0xFF, Z_EXTADDR_LEN );
??ZDO_ProcessMgmtLqiReq_6:
        ; Setup parameters for call to function osal_memset
        MOV     R4,#0x8
        MOV     R5,#0x0
        MOV     R1,#-0x1
        MOV     A,R6
        ADD     A,#0xa
        MOV     R2,A
        MOV     A,R7
        ADDC    A,#0x0
        MOV     R3,A
        LCALL   ??osal_memset?relay
// 1214           }
// 1215 
// 1216           // use association info to set other fields
// 1217           if ( aDevice->nodeRelation == PARENT )
??ZDO_ProcessMgmtLqiReq_7:
        MOV     DPL,?V0 + 4
        MOV     DPH,?V0 + 5
        INC     DPTR
        INC     DPTR
        INC     DPTR
        INC     DPTR
        MOVX    A,@DPTR
        JNZ     ??ZDO_ProcessMgmtLqiReq_8
// 1218           {
// 1219             if (  aDevice->shortAddr == 0 )
        MOV     DPL,?V0 + 4
        MOV     DPH,?V0 + 5
        MOVX    A,@DPTR
        MOV     R0,A
        INC     DPTR
        MOVX    A,@DPTR
        MOV     R1,A
        MOV     A,R0
        ORL     A,R1
        JNZ     ??ZDO_ProcessMgmtLqiReq_9
// 1220             {
// 1221               item->devType = ZDP_MGMT_DT_COORD;
        MOV     A,R6
        ADD     A,#0x14
        MOV     DPL,A
        MOV     A,R7
        ADDC    A,#0x0
        MOV     DPH,A
        MOV     A,#0x0
        MOVX    @DPTR,A
// 1222               item->depth = 0;
        MOV     A,R6
        ADD     A,#0x18
        MOV     DPL,A
        MOV     A,R7
        ADDC    A,#0x0
        MOV     DPH,A
        MOV     A,#0x0
        MOVX    @DPTR,A
        SJMP    ??ZDO_ProcessMgmtLqiReq_10
// 1223             }
// 1224             else
// 1225             {
// 1226               item->devType = ZDP_MGMT_DT_ROUTER;
??ZDO_ProcessMgmtLqiReq_9:
        MOV     A,R6
        ADD     A,#0x14
        MOV     DPL,A
        MOV     A,R7
        ADDC    A,#0x0
        MOV     DPH,A
        MOV     A,#0x1
        MOVX    @DPTR,A
// 1227               item->depth = _NIB.nodeDepth - 1;
        MOV     DPTR,#_NIB + 52
        MOVX    A,@DPTR
        ADD     A,#-0x1
        PUSH    A
        CFI CFA_SP SP+-1
        MOV     A,R6
        ADD     A,#0x18
        MOV     DPL,A
        MOV     A,R7
        ADDC    A,#0x0
        MOV     DPH,A
        POP     A
        CFI CFA_SP SP+0
        MOVX    @DPTR,A
// 1228             }
// 1229 
// 1230             item->rxOnIdle = ZDP_MGMT_BOOL_UNKNOWN;
??ZDO_ProcessMgmtLqiReq_10:
        MOV     A,R6
        ADD     A,#0x15
        MOV     DPL,A
        MOV     A,R7
        ADDC    A,#0x0
        MOV     DPH,A
        MOV     A,#0x2
        MOVX    @DPTR,A
// 1231             item->relation = ZDP_MGMT_REL_PARENT;
        MOV     A,R6
        ADD     A,#0x16
        MOV     DPL,A
        MOV     A,R7
        ADDC    A,#0x0
        MOV     DPH,A
        MOV     A,#0x0
        MOVX    @DPTR,A
        LJMP    ??ZDO_ProcessMgmtLqiReq_11 & 0xFFFF
// 1232           }
// 1233           else
// 1234           {
// 1235             // If not parent, then it's a child
// 1236             item->depth = _NIB.nodeDepth + 1;
??ZDO_ProcessMgmtLqiReq_8:
        MOV     DPTR,#_NIB + 52
        MOVX    A,@DPTR
        ADD     A,#0x1
        PUSH    A
        CFI CFA_SP SP+-1
        MOV     A,R6
        ADD     A,#0x18
        MOV     DPL,A
        MOV     A,R7
        ADDC    A,#0x0
        MOV     DPH,A
        POP     A
        CFI CFA_SP SP+0
        MOVX    @DPTR,A
// 1237 
// 1238             if ( aDevice->nodeRelation < CHILD_FFD )
        MOV     DPL,?V0 + 4
        MOV     DPH,?V0 + 5
        INC     DPTR
        INC     DPTR
        INC     DPTR
        INC     DPTR
        MOVX    A,@DPTR
        CLR     C
        SUBB    A,#0x3
        JNC     ??ZDO_ProcessMgmtLqiReq_12
// 1239             {
// 1240               item->devType = ZDP_MGMT_DT_ENDDEV;
        MOV     A,R6
        ADD     A,#0x14
        MOV     DPL,A
        MOV     A,R7
        ADDC    A,#0x0
        MOV     DPH,A
        MOV     A,#0x2
        MOVX    @DPTR,A
// 1241 
// 1242               if ( aDevice->nodeRelation == CHILD_RFD )
        MOV     DPL,?V0 + 4
        MOV     DPH,?V0 + 5
        INC     DPTR
        INC     DPTR
        INC     DPTR
        INC     DPTR
        MOVX    A,@DPTR
        XRL     A,#0x1
        JNZ     ??ZDO_ProcessMgmtLqiReq_13
// 1243               {
// 1244                 item->rxOnIdle = FALSE;
        MOV     A,R6
        ADD     A,#0x15
        MOV     DPL,A
        MOV     A,R7
        ADDC    A,#0x0
        MOV     DPH,A
        MOV     A,#0x0
        MOVX    @DPTR,A
        SJMP    ??ZDO_ProcessMgmtLqiReq_14
// 1245               }
// 1246               else
// 1247               {
// 1248                 item->rxOnIdle = TRUE;
??ZDO_ProcessMgmtLqiReq_13:
        MOV     A,R6
        ADD     A,#0x15
        MOV     DPL,A
        MOV     A,R7
        ADDC    A,#0x0
        MOV     DPH,A
        MOV     A,#0x1
        MOVX    @DPTR,A
        SJMP    ??ZDO_ProcessMgmtLqiReq_14
// 1249               }
// 1250             }
// 1251             else
// 1252             {
// 1253               item->devType = ZDP_MGMT_DT_ROUTER;
??ZDO_ProcessMgmtLqiReq_12:
        MOV     A,R6
        ADD     A,#0x14
        MOV     DPL,A
        MOV     A,R7
        ADDC    A,#0x0
        MOV     DPH,A
        MOV     A,#0x1
        MOVX    @DPTR,A
// 1254 
// 1255               if ( aDevice->nodeRelation == CHILD_FFD )
        MOV     DPL,?V0 + 4
        MOV     DPH,?V0 + 5
        INC     DPTR
        INC     DPTR
        INC     DPTR
        INC     DPTR
        MOVX    A,@DPTR
        XRL     A,#0x3
        JNZ     ??ZDO_ProcessMgmtLqiReq_15
// 1256               {
// 1257                 item->rxOnIdle = FALSE;
        MOV     A,R6
        ADD     A,#0x15
        MOV     DPL,A
        MOV     A,R7
        ADDC    A,#0x0
        MOV     DPH,A
        MOV     A,#0x0
        MOVX    @DPTR,A
        SJMP    ??ZDO_ProcessMgmtLqiReq_14
// 1258               }
// 1259               else
// 1260               {
// 1261                 item->rxOnIdle = TRUE;
??ZDO_ProcessMgmtLqiReq_15:
        MOV     A,R6
        ADD     A,#0x15
        MOV     DPL,A
        MOV     A,R7
        ADDC    A,#0x0
        MOV     DPH,A
        MOV     A,#0x1
        MOVX    @DPTR,A
// 1262               }
// 1263             }
// 1264 
// 1265             item->relation = ZDP_MGMT_REL_CHILD;
??ZDO_ProcessMgmtLqiReq_14:
        MOV     A,R6
        ADD     A,#0x16
        MOV     DPL,A
        MOV     A,R7
        ADDC    A,#0x0
        MOV     DPH,A
        MOV     A,#0x1
        MOVX    @DPTR,A
// 1266           }
// 1267 
// 1268           item++;
??ZDO_ProcessMgmtLqiReq_11:
        MOV     A,R6
        ADD     A,#0x1a
        MOV     R6,A
        MOV     A,R7
        ADDC    A,#0x0
        MOV     R7,A
// 1269         }
        INC     ?V0 + 3
        LJMP    ??ZDO_ProcessMgmtLqiReq_3 & 0xFFFF
// 1270         else
// 1271         {
// 1272           if ( StartIndex <= aItems )
??ZDO_ProcessMgmtLqiReq_5:
        MOV     A,?V0 + 10
        CLR     C
        SUBB    A,?V0 + 2
        JC      ??ZDO_ProcessMgmtLqiReq_16
// 1273             // Start with 1st neighbor
// 1274             index = 0;
        MOV     ?V0 + 0,#0x0
        SJMP    ??ZDO_ProcessMgmtLqiReq_4
// 1275           else
// 1276             // Start with >1st neighbor
// 1277             index = StartIndex - aItems;
??ZDO_ProcessMgmtLqiReq_16:
        MOV     A,?V0 + 2
        CLR     C
        SUBB    A,?V0 + 10
        MOV     ?V0 + 0,A
// 1278           break;
// 1279         }
// 1280       }
// 1281 
// 1282       // Loop through neighbor items and finish list
// 1283       for ( ; x < numItems; x++ )
??ZDO_ProcessMgmtLqiReq_4:
        MOV     A,?V0 + 3
        CLR     C
        SUBB    A,?V0 + 1
        JC      $+5
        LJMP    ??ZDO_ProcessMgmtLqiReq_2 & 0xFFFF
// 1284       {
// 1285         // Add next neighbor table item
// 1286         NLME_GetRequest( nwkNeighborTable, index++, &entry );
        ; Setup parameters for call to function NLME_GetRequest
        MOV     A,#0xe
        LCALL   ?XSTACK_DISP0_8
        MOV     R4,DPL
        MOV     R5,DPH
        MOV     ?V0 + 8,?V0 + 0
        MOV     ?V0 + 9,#0x0
        MOV     R2,?V0 + 8
        MOV     R3,?V0 + 9
        MOV     R1,#-0x79
        LCALL   ??NLME_GetRequest?relay
        MOV     A,R1
        INC     ?V0 + 0
// 1287 
// 1288         // set ZDP_MgmtLqiItem_t fields
// 1289         item->panID    = entry.panId;
        MOV     A,#0x18
        LCALL   ?XSTACK_DISP0_8
        MOVX    A,@DPTR
        MOV     R0,A
        INC     DPTR
        MOVX    A,@DPTR
        MOV     R1,A
        MOV     DPL,R6
        MOV     DPH,R7
        MOV     A,R0
        MOVX    @DPTR,A
        INC     DPTR
        MOV     A,R1
        MOVX    @DPTR,A
// 1290         osal_cpyExtAddr( item->extPanID, _NIB.extendedPANID );
        ; Setup parameters for call to function sAddrExtCpy
        MOV     R4,#(_NIB + 53) & 0xff
        MOV     R5,#((_NIB + 53) >> 8) & 0xff
        MOV     A,R6
        ADD     A,#0x2
        MOV     R2,A
        MOV     A,R7
        ADDC    A,#0x0
        MOV     R3,A
        LCALL   ??sAddrExtCpy?relay
// 1291         osal_memset( item->extAddr, 0xFF, Z_EXTADDR_LEN );
        ; Setup parameters for call to function osal_memset
        MOV     R4,#0x8
        MOV     R5,#0x0
        MOV     R1,#-0x1
        MOV     A,R6
        ADD     A,#0xa
        MOV     R2,A
        MOV     A,R7
        ADDC    A,#0x0
        MOV     R3,A
        LCALL   ??osal_memset?relay
// 1292         item->nwkAddr  = entry.neighborAddress;
        MOV     A,#0xe
        LCALL   ?XSTACK_DISP0_8
        MOVX    A,@DPTR
        MOV     R0,A
        INC     DPTR
        MOVX    A,@DPTR
        MOV     R1,A
        MOV     A,R6
        ADD     A,#0x12
        MOV     DPL,A
        MOV     A,R7
        ADDC    A,#0x0
        MOV     DPH,A
        MOV     A,R0
        MOVX    @DPTR,A
        INC     DPTR
        MOV     A,R1
        MOVX    @DPTR,A
// 1293         item->rxOnIdle = ZDP_MGMT_BOOL_UNKNOWN;
        MOV     A,R6
        ADD     A,#0x15
        MOV     DPL,A
        MOV     A,R7
        ADDC    A,#0x0
        MOV     DPH,A
        MOV     A,#0x2
        MOVX    @DPTR,A
// 1294         item->relation = ZDP_MGMT_REL_UNKNOWN;
        MOV     A,R6
        ADD     A,#0x16
        MOV     DPL,A
        MOV     A,R7
        ADDC    A,#0x0
        MOV     DPH,A
        MOV     A,#0x3
        MOVX    @DPTR,A
// 1295         item->permit   = ZDP_MGMT_BOOL_UNKNOWN;
        MOV     A,R6
        ADD     A,#0x17
        MOV     DPL,A
        MOV     A,R7
        ADDC    A,#0x0
        MOV     DPH,A
        MOV     A,#0x2
        MOVX    @DPTR,A
// 1296         item->depth    = 0xFF;
        MOV     A,R6
        ADD     A,#0x18
        MOV     DPL,A
        MOV     A,R7
        ADDC    A,#0x0
        MOV     DPH,A
        MOV     A,#-0x1
        MOVX    @DPTR,A
// 1297         item->lqi      = entry.linkInfo.rxLqi;
        MOV     A,#0x1d
        LCALL   ?XSTACK_DISP0_8
        MOVX    A,@DPTR
        PUSH    A
        CFI CFA_SP SP+-1
        MOV     A,R6
        ADD     A,#0x19
        MOV     DPL,A
        MOV     A,R7
        ADDC    A,#0x0
        MOV     DPH,A
        POP     A
        CFI CFA_SP SP+0
        MOVX    @DPTR,A
// 1298 
// 1299         if ( item->nwkAddr == 0 )
        MOV     A,R6
        ADD     A,#0x12
        MOV     DPL,A
        MOV     A,R7
        ADDC    A,#0x0
        MOV     DPH,A
        MOVX    A,@DPTR
        MOV     R0,A
        INC     DPTR
        MOVX    A,@DPTR
        MOV     R1,A
        MOV     A,R0
        ORL     A,R1
        JNZ     ??ZDO_ProcessMgmtLqiReq_17
// 1300         {
// 1301           item->devType = ZDP_MGMT_DT_COORD;
        MOV     A,R6
        ADD     A,#0x14
        MOV     DPL,A
        MOV     A,R7
        ADDC    A,#0x0
        MOV     DPH,A
        MOV     A,#0x0
        MOVX    @DPTR,A
        SJMP    ??ZDO_ProcessMgmtLqiReq_18
// 1302         }
// 1303         else
// 1304         {
// 1305           item->devType = ZDP_MGMT_DT_ROUTER;
??ZDO_ProcessMgmtLqiReq_17:
        MOV     A,R6
        ADD     A,#0x14
        MOV     DPL,A
        MOV     A,R7
        ADDC    A,#0x0
        MOV     DPH,A
        MOV     A,#0x1
        MOVX    @DPTR,A
// 1306         }
// 1307 
// 1308         item++;
??ZDO_ProcessMgmtLqiReq_18:
        MOV     A,R6
        ADD     A,#0x1a
        MOV     R6,A
        MOV     A,R7
        ADDC    A,#0x0
        MOV     R7,A
// 1309       }
        INC     ?V0 + 3
        LJMP    ??ZDO_ProcessMgmtLqiReq_4 & 0xFFFF
// 1310     }
// 1311   }
// 1312   else
// 1313   {
// 1314     numItems = 0;
??ZDO_ProcessMgmtLqiReq_0:
        MOV     ?V0 + 1,#0x0
// 1315   }
// 1316 
// 1317   // Send response
// 1318   ZDP_MgmtLqiRsp( inMsg->TransSeq, &(inMsg->srcAddr), ZSuccess, maxItems,
// 1319                   StartIndex, numItems, table, false );
??ZDO_ProcessMgmtLqiReq_2:
        ; Setup parameters for call to function ZDP_MgmtLqiRsp
        MOV     ?V0 + 8,#0x0
        MOV     R0,#?V0 + 8
        LCALL   ?PUSH_XSTACK_I_ONE
        CFI CFA_XSP16 add(XSP16, 60)
        MOV     R0,#?V0 + 6
        LCALL   ?PUSH_XSTACK_I_TWO
        CFI CFA_XSP16 add(XSP16, 62)
        MOV     A,?V0 + 1
        MOV     ?V0 + 8,A
        MOV     R0,#?V0 + 8
        LCALL   ?PUSH_XSTACK_I_ONE
        CFI CFA_XSP16 add(XSP16, 63)
        MOV     A,?V0 + 2
        MOV     ?V0 + 8,A
        MOV     R0,#?V0 + 8
        LCALL   ?PUSH_XSTACK_I_ONE
        CFI CFA_XSP16 add(XSP16, 64)
        MOV     A,#0x5
        LCALL   ?XSTACK_DISP0_8
        MOVX    A,@DPTR
        MOV     R5,A
        MOV     R4,#0x0
        MOV     A,?V0 + 12
        ADD     A,#0x2
        MOV     R2,A
        MOV     A,?V0 + 13
        ADDC    A,#0x0
        MOV     R3,A
        MOV     A,?V0 + 12
        ADD     A,#0xf
        MOV     DPL,A
        MOV     A,?V0 + 13
        ADDC    A,#0x0
        MOV     DPH,A
        MOVX    A,@DPTR
        MOV     R1,A
        LCALL   ??ZDP_MgmtLqiRsp?relay
        MOV     A,#0x5
        LCALL   ?DEALLOC_XSTACK8
        CFI CFA_XSP16 add(XSP16, 59)
        MOV     A,R1
// 1320 
// 1321   if ( table )
        MOV     A,?V0 + 6
        ORL     A,?V0 + 7
        JZ      ??ZDO_ProcessMgmtLqiReq_19
// 1322   {
// 1323     osal_mem_free( table );
        ; Setup parameters for call to function osal_mem_free
        MOV     R2,?V0 + 6
        MOV     R3,?V0 + 7
        LCALL   ??osal_mem_free?relay
// 1324   }
// 1325 }
??ZDO_ProcessMgmtLqiReq_19:
        MOV     A,#0x25
        LCALL   ?DEALLOC_XSTACK8
        CFI CFA_XSP16 add(XSP16, 22)
        MOV     R7,#0xe
        LJMP    ?BANKED_LEAVE_XDATA
        CFI EndBlock cfiBlock19
// 1326 
// 1327 /*********************************************************************
// 1328  * @fn          ZDO_ProcessMgmtNwkDiscReq
// 1329  *
// 1330  * @brief       This function handles parsing the incoming Management
// 1331  *              Network Discover request and starts the request.
// 1332  *
// 1333  * @param       inMsg - incoming message (request)
// 1334  *
// 1335  * @return      none
// 1336  */

        RSEG BANKED_CODE:CODE:NOROOT(0)
// 1337 void ZDO_ProcessMgmtNwkDiscReq( zdoIncomingMsg_t *inMsg )
ZDO_ProcessMgmtNwkDiscReq:
        CFI Block cfiBlock20 Using cfiCommon0
        CFI Function ZDO_ProcessMgmtNwkDiscReq
        CODE
// 1338 {
        FUNCALL ZDO_ProcessMgmtNwkDiscReq, osal_build_uint32
        LOCFRAME ISTACK, 0, STACK
        LOCFRAME PSTACK, 0, STACK
        LOCFRAME XSTACK, 18, STACK
        LOCFRAME IOVERLAY, 0, STATIC
        LOCFRAME DOVERLAY, 0, STATIC
        ARGFRAME ISTACK, 0, STACK
        ARGFRAME PSTACK, 0, STACK
        ARGFRAME XSTACK, 18, STACK
        ARGFRAME IOVERLAY, 0, STATIC
        ARGFRAME DOVERLAY, 0, STATIC
        FUNCALL ZDO_ProcessMgmtNwkDiscReq, NLME_NwkDiscReq2
        LOCFRAME ISTACK, 0, STACK
        LOCFRAME PSTACK, 0, STACK
        LOCFRAME XSTACK, 18, STACK
        LOCFRAME IOVERLAY, 0, STATIC
        LOCFRAME DOVERLAY, 0, STATIC
        ARGFRAME ISTACK, 0, STACK
        ARGFRAME PSTACK, 0, STACK
        ARGFRAME XSTACK, 18, STACK
        ARGFRAME IOVERLAY, 0, STATIC
        ARGFRAME DOVERLAY, 0, STATIC
        FUNCALL ZDO_ProcessMgmtNwkDiscReq, NLME_NwkDiscTerm
        LOCFRAME ISTACK, 0, STACK
        LOCFRAME PSTACK, 0, STACK
        LOCFRAME XSTACK, 18, STACK
        LOCFRAME IOVERLAY, 0, STATIC
        LOCFRAME DOVERLAY, 0, STATIC
        ARGFRAME ISTACK, 0, STACK
        ARGFRAME PSTACK, 0, STACK
        ARGFRAME XSTACK, 18, STACK
        ARGFRAME IOVERLAY, 0, STATIC
        ARGFRAME DOVERLAY, 0, STATIC
        MOV     A,#-0xb
        LCALL   ?BANKED_ENTER_XDATA
        CFI DPH0 load(1, XDATA, add(CFA_XSP16, literal(-1)))
        CFI DPL0 load(1, XDATA, add(CFA_XSP16, literal(-2)))
        CFI ?BRET_EXT load(1, XDATA, add(CFA_XSP16, literal(-3)))
        CFI ?RET_HIGH load(1, XDATA, add(CFA_XSP16, literal(-4)))
        CFI ?RET_LOW load(1, XDATA, add(CFA_XSP16, literal(-5)))
        CFI R7 load(1, XDATA, add(CFA_XSP16, literal(-6)))
        CFI V2 load(1, XDATA, add(CFA_XSP16, literal(-7)))
        CFI V1 load(1, XDATA, add(CFA_XSP16, literal(-8)))
        CFI V0 load(1, XDATA, add(CFA_XSP16, literal(-9)))
        CFI VB load(1, XDATA, add(CFA_XSP16, literal(-10)))
        CFI R6 load(1, XDATA, add(CFA_XSP16, literal(-11)))
        CFI CFA_SP SP+0
        CFI CFA_XSP16 add(XSP16, 11)
        ; Saved register size: 11
        ; Auto size: 7
        MOV     A,#-0x7
        LCALL   ?ALLOC_XSTACK8
        CFI CFA_XSP16 add(XSP16, 18)
        MOV     ?V0 + 0,R2
        MOV     ?V0 + 1,R3
// 1339   NLME_ScanFields_t scan;
// 1340   uint8             index;
// 1341   uint8             *msg;
// 1342 
// 1343   msg = inMsg->asdu;
        MOV     A,?V0 + 0
        ADD     A,#0x13
        MOV     DPL,A
        MOV     A,?V0 + 1
        ADDC    A,#0x0
        MOV     DPH,A
        MOVX    A,@DPTR
        MOV     R0,A
        INC     DPTR
        MOVX    A,@DPTR
        MOV     R1,A
        MOV     A,R0
        MOV     R6,A
        MOV     A,R1
        MOV     R7,A
// 1344   scan.channels = osal_build_uint32( msg, 4 );
        ; Setup parameters for call to function osal_build_uint32
        MOV     R1,#0x4
        MOV     A,R6
        MOV     R2,A
        MOV     A,R7
        MOV     R3,A
        LCALL   ??osal_build_uint32?relay
        MOV     DPL,?XSP + 0
        MOV     DPH,?XSP + 1
        LCALL   ?XSTORE_R2345
// 1345   msg += 4;
        MOV     A,R6
        ADD     A,#0x4
        MOV     R6,A
        MOV     A,R7
        ADDC    A,#0x0
        MOV     R7,A
// 1346   scan.duration = *msg++;
        MOV     DPL,R6
        MOV     DPH,R7
        MOVX    A,@DPTR
        PUSH    A
        CFI CFA_SP SP+-1
        MOV     A,#0x4
        LCALL   ?XSTACK_DISP0_8
        POP     A
        CFI CFA_SP SP+0
        MOVX    @DPTR,A
        MOV     DPL,R6
        MOV     DPH,R7
        INC     DPTR
        MOV     R6,DPL
        MOV     R7,DPH
// 1347   index         = *msg;
        MOV     DPL,R6
        MOV     DPH,R7
        MOVX    A,@DPTR
        MOV     ?V0 + 2,A
// 1348   scan.scanType = ZMAC_ACTIVE_SCAN;
        MOV     A,#0x5
        LCALL   ?XSTACK_DISP0_8
        MOV     A,#0x1
        MOVX    @DPTR,A
// 1349   scan.scanApp  = NLME_DISC_SCAN;
        MOV     A,#0x6
        LCALL   ?XSTACK_DISP0_8
        MOV     A,#0x1
        MOVX    @DPTR,A
// 1350 
// 1351   // Save off the information to be used for the response
// 1352   zdappMgmtNwkDiscReqInProgress          = true;
        MOV     DPTR,#zdappMgmtNwkDiscReqInProgress
        MOV     A,#0x1
        MOVX    @DPTR,A
// 1353   zdappMgmtNwkDiscRspAddr.addrMode       = Addr16Bit;
        MOV     DPTR,#zdappMgmtNwkDiscRspAddr + 8
        MOV     A,#0x2
        MOVX    @DPTR,A
// 1354   zdappMgmtNwkDiscRspAddr.addr.shortAddr = inMsg->srcAddr.addr.shortAddr;
        MOV     DPL,?V0 + 0
        MOV     DPH,?V0 + 1
        INC     DPTR
        INC     DPTR
        MOVX    A,@DPTR
        MOV     R0,A
        INC     DPTR
        MOVX    A,@DPTR
        MOV     R1,A
        MOV     DPTR,#zdappMgmtNwkDiscRspAddr
        MOV     A,R0
        MOVX    @DPTR,A
        INC     DPTR
        MOV     A,R1
        MOVX    @DPTR,A
// 1355   zdappMgmtNwkDiscStartIndex             = index;
        MOV     A,?V0 + 2
        MOV     DPTR,#zdappMgmtNwkDiscStartIndex
        MOVX    @DPTR,A
// 1356   zdappMgmtNwkDiscRspTransSeq            = inMsg->TransSeq;
        MOV     A,?V0 + 0
        ADD     A,#0xf
        MOV     DPL,A
        MOV     A,?V0 + 1
        ADDC    A,#0x0
        MOV     DPH,A
        MOVX    A,@DPTR
        MOV     DPTR,#zdappMgmtNwkDiscRspTransSeq
        MOVX    @DPTR,A
// 1357 
// 1358   if ( NLME_NwkDiscReq2( &scan ) != ZSuccess )
        ; Setup parameters for call to function NLME_NwkDiscReq2
        MOV     DPL,?XSP + 0
        MOV     DPH,?XSP + 1
        MOV     R2,DPL
        MOV     R3,DPH
        LCALL   ??NLME_NwkDiscReq2?relay
        MOV     A,R1
        JZ      ??ZDO_ProcessMgmtNwkDiscReq_0
// 1359   {
// 1360     NLME_NwkDiscTerm();
        ; Setup parameters for call to function NLME_NwkDiscTerm
        LCALL   ??NLME_NwkDiscTerm?relay
// 1361 
// 1362     // zdappMgmtNwkDiscReqInProgress will be reset in the confirm callback
// 1363   }
// 1364 }
??ZDO_ProcessMgmtNwkDiscReq_0:
        MOV     A,#0x7
        LCALL   ?DEALLOC_XSTACK8
        CFI CFA_XSP16 add(XSP16, 11)
        MOV     R7,#0x3
        LJMP    ?BANKED_LEAVE_XDATA
        CFI EndBlock cfiBlock20
// 1365 
// 1366 #if defined ( ZDO_MGMT_NWKDISC_RESPONSE )
// 1367 /*********************************************************************
// 1368  * @fn          ZDO_FinishProcessingMgmtNwkDiscReq
// 1369  *
// 1370  * @brief       This function finishes the processing of the Management
// 1371  *              Network Discover Request and generates the response.
// 1372  *
// 1373  *   Note:      This function will limit the number of items returned
// 1374  *              to ZDO_MAX_NWKDISC_ITEMS items.
// 1375  *
// 1376  * @param       ResultCountSrcAddr - source of the request
// 1377  * @param       msg - pointer to incoming message
// 1378  * @param       SecurityUse -
// 1379  *
// 1380  * @return      none
// 1381  */
// 1382 void ZDO_FinishProcessingMgmtNwkDiscReq( void )
// 1383 {
// 1384   byte count, i, ResultCount = 0;
// 1385   networkDesc_t *newDesc = NULL, *pList, *NetworkList;
// 1386 
// 1387   NetworkList = nwk_getNwkDescList();
// 1388 
// 1389   // Count the number of nwk descriptors in the list
// 1390   pList = nwk_getNwkDescList();
// 1391   while (pList)
// 1392   {
// 1393     ResultCount++;
// 1394     pList = pList->nextDesc;
// 1395   }
// 1396 
// 1397   if ( ZSTACK_ROUTER_BUILD )
// 1398   {
// 1399     // Look for my PanID.
// 1400     pList = nwk_getNwkDescList();
// 1401     while ( pList )
// 1402     {
// 1403       if ( pList->panId == _NIB.nwkPanId )
// 1404       {
// 1405         break;
// 1406       }
// 1407 
// 1408 
// 1409       if ( !pList->nextDesc )
// 1410       {
// 1411         break;
// 1412       }
// 1413       pList = pList->nextDesc;
// 1414     }
// 1415 
// 1416 
// 1417     // If my Pan not present (query to a star network ZC or an isolated ZR?),
// 1418     // prepend it.
// 1419     if ( !pList || (pList->panId != _NIB.nwkPanId) )
// 1420     {
// 1421       newDesc = (networkDesc_t *)osal_mem_alloc( sizeof( networkDesc_t ) );
// 1422       if ( newDesc )
// 1423       {
// 1424         byte pJoin;
// 1425 
// 1426         newDesc->panId = _NIB.nwkPanId;
// 1427         newDesc->logicalChannel = _NIB.nwkLogicalChannel;
// 1428         newDesc->version = NLME_GetProtocolVersion();
// 1429         newDesc->stackProfile = zgStackProfile;
// 1430 
// 1431         //Extended PanID
// 1432         osal_cpyExtAddr( newDesc->extendedPANID, _NIB.extendedPANID);
// 1433 
// 1434         ZMacGetReq( ZMacAssociationPermit, &pJoin );
// 1435         newDesc->chosenRouter = ((pJoin) ? ZDAppNwkAddr.addr.shortAddr :
// 1436                                            INVALID_NODE_ADDR);
// 1437 
// 1438         newDesc->nextDesc = NetworkList;
// 1439         NetworkList = newDesc;
// 1440         ResultCount++;
// 1441       }
// 1442     }
// 1443   }
// 1444 
// 1445   // Calc the count and apply a max count.
// 1446   if ( zdappMgmtNwkDiscStartIndex > ResultCount )
// 1447   {
// 1448     count = 0;
// 1449   }
// 1450   else
// 1451   {
// 1452     count = ResultCount - zdappMgmtNwkDiscStartIndex;
// 1453     if ( count > ZDO_MAX_NWKDISC_ITEMS )
// 1454     {
// 1455       count = ZDO_MAX_NWKDISC_ITEMS;
// 1456     }
// 1457 
// 1458     // Move the list pointer up to the start index.
// 1459     for ( i = 0; i < zdappMgmtNwkDiscStartIndex; i++ )
// 1460     {
// 1461       NetworkList = NetworkList->nextDesc;
// 1462     }
// 1463   }
// 1464 
// 1465   ZDP_MgmtNwkDiscRsp( zdappMgmtNwkDiscRspTransSeq,
// 1466                      &zdappMgmtNwkDiscRspAddr, ZSuccess, ResultCount,
// 1467                       zdappMgmtNwkDiscStartIndex,
// 1468                       count,
// 1469                       NetworkList,
// 1470                       false );
// 1471 
// 1472   if ( ZSTACK_ROUTER_BUILD )
// 1473   {
// 1474     if ( newDesc != NULL )
// 1475     {
// 1476       osal_mem_free( newDesc );
// 1477     }
// 1478   }
// 1479 
// 1480   NLME_NwkDiscTerm();
// 1481 }
// 1482 #endif
// 1483 
// 1484 /*********************************************************************
// 1485  * @fn          ZDO_ProcessMgmtRtgReq
// 1486  *
// 1487  * @brief       This function finishes the processing of the Management
// 1488  *              Routing Request and generates the response.
// 1489  *
// 1490  *   Note:      This function will limit the number of items returned
// 1491  *              to ZDO_MAX_RTG_ITEMS items.
// 1492  *
// 1493  * @param       inMsg - incoming message (request)
// 1494  *
// 1495  * @return      none
// 1496  */

        RSEG BANKED_CODE:CODE:NOROOT(0)
// 1497 void ZDO_ProcessMgmtRtgReq( zdoIncomingMsg_t *inMsg )
ZDO_ProcessMgmtRtgReq:
        CFI Block cfiBlock21 Using cfiCommon0
        CFI Function ZDO_ProcessMgmtRtgReq
        CODE
// 1498 {
        FUNCALL ZDO_ProcessMgmtRtgReq, NLME_GetRequest
        LOCFRAME ISTACK, 0, STACK
        LOCFRAME PSTACK, 0, STACK
        LOCFRAME XSTACK, 21, STACK
        LOCFRAME IOVERLAY, 0, STATIC
        LOCFRAME DOVERLAY, 0, STATIC
        ARGFRAME ISTACK, 0, STACK
        ARGFRAME PSTACK, 0, STACK
        ARGFRAME XSTACK, 21, STACK
        ARGFRAME IOVERLAY, 0, STATIC
        ARGFRAME DOVERLAY, 0, STATIC
        FUNCALL ZDO_ProcessMgmtRtgReq, osal_mem_alloc
        LOCFRAME ISTACK, 0, STACK
        LOCFRAME PSTACK, 0, STACK
        LOCFRAME XSTACK, 21, STACK
        LOCFRAME IOVERLAY, 0, STATIC
        LOCFRAME DOVERLAY, 0, STATIC
        ARGFRAME ISTACK, 0, STACK
        ARGFRAME PSTACK, 0, STACK
        ARGFRAME XSTACK, 21, STACK
        ARGFRAME IOVERLAY, 0, STATIC
        ARGFRAME DOVERLAY, 0, STATIC
        FUNCALL ZDO_ProcessMgmtRtgReq, NLME_GetRequest
        LOCFRAME ISTACK, 0, STACK
        LOCFRAME PSTACK, 0, STACK
        LOCFRAME XSTACK, 21, STACK
        LOCFRAME IOVERLAY, 0, STATIC
        LOCFRAME DOVERLAY, 0, STATIC
        ARGFRAME ISTACK, 0, STACK
        ARGFRAME PSTACK, 0, STACK
        ARGFRAME XSTACK, 21, STACK
        ARGFRAME IOVERLAY, 0, STATIC
        ARGFRAME DOVERLAY, 0, STATIC
        FUNCALL ZDO_ProcessMgmtRtgReq, ZDP_MgmtRtgRsp
        LOCFRAME ISTACK, 0, STACK
        LOCFRAME PSTACK, 0, STACK
        LOCFRAME XSTACK, 26, STACK
        LOCFRAME IOVERLAY, 0, STATIC
        LOCFRAME DOVERLAY, 0, STATIC
        ARGFRAME ISTACK, 0, STACK
        ARGFRAME PSTACK, 0, STACK
        ARGFRAME XSTACK, 26, STACK
        ARGFRAME IOVERLAY, 0, STATIC
        ARGFRAME DOVERLAY, 0, STATIC
        FUNCALL ZDO_ProcessMgmtRtgReq, osal_mem_free
        LOCFRAME ISTACK, 0, STACK
        LOCFRAME PSTACK, 0, STACK
        LOCFRAME XSTACK, 21, STACK
        LOCFRAME IOVERLAY, 0, STATIC
        LOCFRAME DOVERLAY, 0, STATIC
        ARGFRAME ISTACK, 0, STACK
        ARGFRAME PSTACK, 0, STACK
        ARGFRAME XSTACK, 21, STACK
        ARGFRAME IOVERLAY, 0, STATIC
        ARGFRAME DOVERLAY, 0, STATIC
        MOV     A,#-0x14
        LCALL   ?BANKED_ENTER_XDATA
        CFI DPH0 load(1, XDATA, add(CFA_XSP16, literal(-1)))
        CFI DPL0 load(1, XDATA, add(CFA_XSP16, literal(-2)))
        CFI ?BRET_EXT load(1, XDATA, add(CFA_XSP16, literal(-3)))
        CFI ?RET_HIGH load(1, XDATA, add(CFA_XSP16, literal(-4)))
        CFI ?RET_LOW load(1, XDATA, add(CFA_XSP16, literal(-5)))
        CFI R7 load(1, XDATA, add(CFA_XSP16, literal(-6)))
        CFI V11 load(1, XDATA, add(CFA_XSP16, literal(-7)))
        CFI V10 load(1, XDATA, add(CFA_XSP16, literal(-8)))
        CFI V9 load(1, XDATA, add(CFA_XSP16, literal(-9)))
        CFI V8 load(1, XDATA, add(CFA_XSP16, literal(-10)))
        CFI V7 load(1, XDATA, add(CFA_XSP16, literal(-11)))
        CFI V6 load(1, XDATA, add(CFA_XSP16, literal(-12)))
        CFI V5 load(1, XDATA, add(CFA_XSP16, literal(-13)))
        CFI V4 load(1, XDATA, add(CFA_XSP16, literal(-14)))
        CFI V3 load(1, XDATA, add(CFA_XSP16, literal(-15)))
        CFI V2 load(1, XDATA, add(CFA_XSP16, literal(-16)))
        CFI V1 load(1, XDATA, add(CFA_XSP16, literal(-17)))
        CFI V0 load(1, XDATA, add(CFA_XSP16, literal(-18)))
        CFI VB load(1, XDATA, add(CFA_XSP16, literal(-19)))
        CFI R6 load(1, XDATA, add(CFA_XSP16, literal(-20)))
        CFI CFA_SP SP+0
        CFI CFA_XSP16 add(XSP16, 20)
        ; Saved register size: 20
        ; Auto size: 1
        MOV     A,#-0x1
        LCALL   ?ALLOC_XSTACK8
        CFI CFA_XSP16 add(XSP16, 21)
        MOV     ?V0 + 4,R2
        MOV     ?V0 + 5,R3
// 1499   byte x;
// 1500   byte maxNumItems;
// 1501   byte numItems = 0;
        MOV     R6,#0x0
// 1502   uint8 *pBuf = NULL;
        MOV     ?V0 + 6,#0x0
        MOV     ?V0 + 7,#0x0
// 1503   rtgItem_t *pList;
// 1504   uint8 StartIndex = inMsg->asdu[0];
        MOV     A,?V0 + 4
        ADD     A,#0x13
        MOV     DPL,A
        MOV     A,?V0 + 5
        ADDC    A,#0x0
        MOV     DPH,A
        MOVX    A,@DPTR
        MOV     R0,A
        INC     DPTR
        MOVX    A,@DPTR
        MOV     DPH,A
        MOV     DPL,R0
        MOVX    A,@DPTR
        MOV     R7,A
// 1505 
// 1506   // Get the number of table items
// 1507   NLME_GetRequest( nwkNumRoutingTableEntries, 0, &maxNumItems );
        ; Setup parameters for call to function NLME_GetRequest
        MOV     DPL,?XSP + 0
        MOV     DPH,?XSP + 1
        MOV     R4,DPL
        MOV     R5,DPH
        MOV     R2,#0x0
        MOV     R3,#0x0
        MOV     R1,#-0x63
        LCALL   ??NLME_GetRequest?relay
        MOV     A,R1
// 1508 
// 1509   if ( maxNumItems > StartIndex )
        MOV     DPL,?XSP + 0
        MOV     DPH,?XSP + 1
        MOVX    A,@DPTR
        MOV     R0,A
        MOV     A,R7
        CLR     C
        SUBB    A,R0
        JC      $+5
        LJMP    ??ZDO_ProcessMgmtRtgReq_0 & 0xFFFF
// 1510   {
// 1511     numItems = maxNumItems - StartIndex;    // Start at the passed in index
        MOV     DPL,?XSP + 0
        MOV     DPH,?XSP + 1
        MOVX    A,@DPTR
        CLR     C
        SUBB    A,R7
        MOV     R6,A
// 1512 
// 1513     // limit the size of the list
// 1514     if ( numItems > ZDO_MAX_RTG_ITEMS )
        MOV     A,R6
        CLR     C
        SUBB    A,#0xb
        JC      ??ZDO_ProcessMgmtRtgReq_1
// 1515     {
// 1516       numItems = ZDO_MAX_RTG_ITEMS;
        MOV     R6,#0xa
// 1517     }
// 1518 
// 1519     // Allocate the memory to build the table
// 1520     pBuf = osal_mem_alloc( (short)(sizeof( rtgItem_t ) * numItems) );
??ZDO_ProcessMgmtRtgReq_1:
        ; Setup parameters for call to function osal_mem_alloc
        MOV     A,R6
        MOV     R2,A
        MOV     R3,#0x0
        MOV     A,R2
        MOV     B,#0x7
        MUL     AB
        XCH     A,R2
        MOV     R0,B
        MOV     B,#0x0
        MUL     AB
        ADD     A,R0
        MOV     R0,A
        MOV     B,#0x7
        MOV     A,R3
        MUL     AB
        ADD     A,R0
        MOV     R3,A
        LCALL   ??osal_mem_alloc?relay
        MOV     ?V0 + 8,R2
        MOV     ?V0 + 9,R3
        MOV     ?V0 + 6,?V0 + 8
        MOV     ?V0 + 7,?V0 + 9
// 1521 
// 1522     if ( pBuf != NULL )
        MOV     A,?V0 + 6
        ORL     A,?V0 + 7
        JNZ     $+5
        LJMP    ??ZDO_ProcessMgmtRtgReq_2 & 0xFFFF
// 1523     {
// 1524       // Convert buffer to list
// 1525       pList = (rtgItem_t *)pBuf;
        MOV     ?V0 + 0,?V0 + 6
        MOV     ?V0 + 1,?V0 + 7
// 1526 
// 1527       // Loop through items and build list
// 1528       for ( x = 0; x < numItems; x++ )
        MOV     ?V0 + 2,#0x0
??ZDO_ProcessMgmtRtgReq_3:
        MOV     A,?V0 + 2
        CLR     C
        SUBB    A,R6
        JC      $+5
        LJMP    ??ZDO_ProcessMgmtRtgReq_0 & 0xFFFF
// 1529       {
// 1530         NLME_GetRequest( nwkRoutingTable, (uint16)(x + StartIndex), (void*)pList );
        ; Setup parameters for call to function NLME_GetRequest
        MOV     R4,?V0 + 0
        MOV     R5,?V0 + 1
        MOV     ?V0 + 8,?V0 + 2
        MOV     ?V0 + 9,#0x0
        MOV     ?V0 + 10,R7
        MOV     ?V0 + 11,#0x0
        MOV     A,?V0 + 8
        ADD     A,?V0 + 10
        MOV     R2,A
        MOV     A,?V0 + 9
        ADDC    A,?V0 + 11
        MOV     R3,A
        MOV     R1,#-0x75
        LCALL   ??NLME_GetRequest?relay
        MOV     A,R1
// 1531 
// 1532         // Remap the status to the RoutingTableList Record Format defined in the ZigBee spec
// 1533         switch( pList->status )
        MOV     DPL,?V0 + 0
        MOV     DPH,?V0 + 1
        INC     DPTR
        INC     DPTR
        INC     DPTR
        INC     DPTR
        INC     DPTR
        MOVX    A,@DPTR
        DEC     A
        JZ      ??ZDO_ProcessMgmtRtgReq_4
        DEC     A
        JZ      ??ZDO_ProcessMgmtRtgReq_5
        DEC     A
        JZ      ??ZDO_ProcessMgmtRtgReq_6
        SJMP    ??ZDO_ProcessMgmtRtgReq_7
// 1534         {
// 1535           case RT_ACTIVE:
// 1536             pList->status = ZDO_MGMT_RTG_ENTRY_ACTIVE;
??ZDO_ProcessMgmtRtgReq_4:
        MOV     DPL,?V0 + 0
        MOV     DPH,?V0 + 1
        INC     DPTR
        INC     DPTR
        INC     DPTR
        INC     DPTR
        INC     DPTR
        MOV     A,#0x0
        MOVX    @DPTR,A
// 1537             break;
        SJMP    ??ZDO_ProcessMgmtRtgReq_8
// 1538 
// 1539           case RT_DISC:
// 1540             pList->status = ZDO_MGMT_RTG_ENTRY_DISCOVERY_UNDERWAY;
??ZDO_ProcessMgmtRtgReq_5:
        MOV     DPL,?V0 + 0
        MOV     DPH,?V0 + 1
        INC     DPTR
        INC     DPTR
        INC     DPTR
        INC     DPTR
        INC     DPTR
        MOV     A,#0x1
        MOVX    @DPTR,A
// 1541             break;
        SJMP    ??ZDO_ProcessMgmtRtgReq_8
// 1542 
// 1543           case RT_LINK_FAIL:
// 1544             pList->status = ZDO_MGMT_RTG_ENTRY_DISCOVERY_FAILED;
??ZDO_ProcessMgmtRtgReq_6:
        MOV     DPL,?V0 + 0
        MOV     DPH,?V0 + 1
        INC     DPTR
        INC     DPTR
        INC     DPTR
        INC     DPTR
        INC     DPTR
        MOV     A,#0x2
        MOVX    @DPTR,A
// 1545             break;
        SJMP    ??ZDO_ProcessMgmtRtgReq_8
// 1546 
// 1547           case RT_INIT:
// 1548           case RT_REPAIR:
// 1549           default:
// 1550             pList->status = ZDO_MGMT_RTG_ENTRY_INACTIVE;
??ZDO_ProcessMgmtRtgReq_7:
        MOV     DPL,?V0 + 0
        MOV     DPH,?V0 + 1
        INC     DPTR
        INC     DPTR
        INC     DPTR
        INC     DPTR
        INC     DPTR
        MOV     A,#0x3
        MOVX    @DPTR,A
// 1551             break;
// 1552         }
// 1553 
// 1554         // Increment pointer to next record
// 1555         pList++;
??ZDO_ProcessMgmtRtgReq_8:
        MOV     A,?V0 + 0
        ADD     A,#0x7
        MOV     ?V0 + 0,A
        MOV     A,?V0 + 1
        ADDC    A,#0x0
        MOV     ?V0 + 1,A
// 1556       }
        INC     ?V0 + 2
        LJMP    ??ZDO_ProcessMgmtRtgReq_3 & 0xFFFF
// 1557     }
// 1558     else
// 1559     {
// 1560       numItems = 0;
??ZDO_ProcessMgmtRtgReq_2:
        MOV     R6,#0x0
// 1561     }
// 1562   }
// 1563 
// 1564   // Send response
// 1565   ZDP_MgmtRtgRsp( inMsg->TransSeq, &(inMsg->srcAddr), ZSuccess, maxNumItems, StartIndex, numItems,
// 1566                         (rtgItem_t *)pBuf, false );
??ZDO_ProcessMgmtRtgReq_0:
        ; Setup parameters for call to function ZDP_MgmtRtgRsp
        MOV     ?V0 + 3,#0x0
        MOV     R0,#?V0 + 3
        LCALL   ?PUSH_XSTACK_I_ONE
        CFI CFA_XSP16 add(XSP16, 22)
        MOV     R0,#?V0 + 6
        LCALL   ?PUSH_XSTACK_I_TWO
        CFI CFA_XSP16 add(XSP16, 24)
        MOV     A,R6
        MOV     ?V0 + 3,A
        MOV     R0,#?V0 + 3
        LCALL   ?PUSH_XSTACK_I_ONE
        CFI CFA_XSP16 add(XSP16, 25)
        MOV     A,R7
        MOV     ?V0 + 3,A
        MOV     R0,#?V0 + 3
        LCALL   ?PUSH_XSTACK_I_ONE
        CFI CFA_XSP16 add(XSP16, 26)
        MOV     A,#0x5
        LCALL   ?XSTACK_DISP0_8
        MOVX    A,@DPTR
        MOV     R5,A
        MOV     R4,#0x0
        MOV     A,?V0 + 4
        ADD     A,#0x2
        MOV     R2,A
        MOV     A,?V0 + 5
        ADDC    A,#0x0
        MOV     R3,A
        MOV     A,?V0 + 4
        ADD     A,#0xf
        MOV     DPL,A
        MOV     A,?V0 + 5
        ADDC    A,#0x0
        MOV     DPH,A
        MOVX    A,@DPTR
        MOV     R1,A
        LCALL   ??ZDP_MgmtRtgRsp?relay
        MOV     A,#0x5
        LCALL   ?DEALLOC_XSTACK8
        CFI CFA_XSP16 add(XSP16, 21)
        MOV     A,R1
// 1567 
// 1568   if ( pBuf != NULL )
        MOV     A,?V0 + 6
        ORL     A,?V0 + 7
        JZ      ??ZDO_ProcessMgmtRtgReq_9
// 1569   {
// 1570     osal_mem_free( pBuf );
        ; Setup parameters for call to function osal_mem_free
        MOV     R2,?V0 + 6
        MOV     R3,?V0 + 7
        LCALL   ??osal_mem_free?relay
// 1571   }
// 1572 }
??ZDO_ProcessMgmtRtgReq_9:
        MOV     A,#0x1
        LCALL   ?DEALLOC_XSTACK8
        CFI CFA_XSP16 add(XSP16, 20)
        MOV     R7,#0xc
        LJMP    ?BANKED_LEAVE_XDATA
        CFI EndBlock cfiBlock21
// 1573 
// 1574 /*********************************************************************
// 1575  * @fn          ZDO_ProcessMgmtBindReq
// 1576  *
// 1577  * @brief       This function finishes the processing of the Management
// 1578  *              Bind Request and generates the response.
// 1579  *
// 1580  *   Note:      This function will limit the number of items returned
// 1581  *              to ZDO_MAX_BIND_ITEMS items.
// 1582  *
// 1583  * @param       inMsg - incoming message (request)
// 1584  *
// 1585  * @return      none
// 1586  */

        RSEG BANKED_CODE:CODE:NOROOT(0)
// 1587 void ZDO_ProcessMgmtBindReq( zdoIncomingMsg_t *inMsg )
ZDO_ProcessMgmtBindReq:
        CFI Block cfiBlock22 Using cfiCommon0
        CFI Function ZDO_ProcessMgmtBindReq
        CODE
// 1588 {
        FUNCALL ZDO_ProcessMgmtBindReq, APSME_GetRequest
        LOCFRAME ISTACK, 0, STACK
        LOCFRAME PSTACK, 0, STACK
        LOCFRAME XSTACK, 24, STACK
        LOCFRAME IOVERLAY, 0, STATIC
        LOCFRAME DOVERLAY, 0, STATIC
        ARGFRAME ISTACK, 0, STACK
        ARGFRAME PSTACK, 0, STACK
        ARGFRAME XSTACK, 24, STACK
        ARGFRAME IOVERLAY, 0, STATIC
        ARGFRAME DOVERLAY, 0, STATIC
        FUNCALL ZDO_ProcessMgmtBindReq, osal_mem_alloc
        LOCFRAME ISTACK, 0, STACK
        LOCFRAME PSTACK, 0, STACK
        LOCFRAME XSTACK, 24, STACK
        LOCFRAME IOVERLAY, 0, STATIC
        LOCFRAME DOVERLAY, 0, STATIC
        ARGFRAME ISTACK, 0, STACK
        ARGFRAME PSTACK, 0, STACK
        ARGFRAME XSTACK, 24, STACK
        ARGFRAME IOVERLAY, 0, STATIC
        ARGFRAME DOVERLAY, 0, STATIC
        FUNCALL ZDO_ProcessMgmtBindReq, APSME_GetRequest
        LOCFRAME ISTACK, 0, STACK
        LOCFRAME PSTACK, 0, STACK
        LOCFRAME XSTACK, 24, STACK
        LOCFRAME IOVERLAY, 0, STATIC
        LOCFRAME DOVERLAY, 0, STATIC
        ARGFRAME ISTACK, 0, STACK
        ARGFRAME PSTACK, 0, STACK
        ARGFRAME XSTACK, 24, STACK
        ARGFRAME IOVERLAY, 0, STATIC
        ARGFRAME DOVERLAY, 0, STATIC
        FUNCALL ZDO_ProcessMgmtBindReq, ZDP_MgmtBindRsp
        LOCFRAME ISTACK, 0, STACK
        LOCFRAME PSTACK, 0, STACK
        LOCFRAME XSTACK, 29, STACK
        LOCFRAME IOVERLAY, 0, STATIC
        LOCFRAME DOVERLAY, 0, STATIC
        ARGFRAME ISTACK, 0, STACK
        ARGFRAME PSTACK, 0, STACK
        ARGFRAME XSTACK, 29, STACK
        ARGFRAME IOVERLAY, 0, STATIC
        ARGFRAME DOVERLAY, 0, STATIC
        FUNCALL ZDO_ProcessMgmtBindReq, osal_mem_free
        LOCFRAME ISTACK, 0, STACK
        LOCFRAME PSTACK, 0, STACK
        LOCFRAME XSTACK, 24, STACK
        LOCFRAME IOVERLAY, 0, STATIC
        LOCFRAME DOVERLAY, 0, STATIC
        ARGFRAME ISTACK, 0, STACK
        ARGFRAME PSTACK, 0, STACK
        ARGFRAME XSTACK, 24, STACK
        ARGFRAME IOVERLAY, 0, STATIC
        ARGFRAME DOVERLAY, 0, STATIC
        MOV     A,#-0x16
        LCALL   ?BANKED_ENTER_XDATA
        CFI DPH0 load(1, XDATA, add(CFA_XSP16, literal(-1)))
        CFI DPL0 load(1, XDATA, add(CFA_XSP16, literal(-2)))
        CFI ?BRET_EXT load(1, XDATA, add(CFA_XSP16, literal(-3)))
        CFI ?RET_HIGH load(1, XDATA, add(CFA_XSP16, literal(-4)))
        CFI ?RET_LOW load(1, XDATA, add(CFA_XSP16, literal(-5)))
        CFI R7 load(1, XDATA, add(CFA_XSP16, literal(-6)))
        CFI V13 load(1, XDATA, add(CFA_XSP16, literal(-7)))
        CFI V12 load(1, XDATA, add(CFA_XSP16, literal(-8)))
        CFI V11 load(1, XDATA, add(CFA_XSP16, literal(-9)))
        CFI V10 load(1, XDATA, add(CFA_XSP16, literal(-10)))
        CFI V9 load(1, XDATA, add(CFA_XSP16, literal(-11)))
        CFI V8 load(1, XDATA, add(CFA_XSP16, literal(-12)))
        CFI V7 load(1, XDATA, add(CFA_XSP16, literal(-13)))
        CFI V6 load(1, XDATA, add(CFA_XSP16, literal(-14)))
        CFI V5 load(1, XDATA, add(CFA_XSP16, literal(-15)))
        CFI V4 load(1, XDATA, add(CFA_XSP16, literal(-16)))
        CFI V3 load(1, XDATA, add(CFA_XSP16, literal(-17)))
        CFI V2 load(1, XDATA, add(CFA_XSP16, literal(-18)))
        CFI V1 load(1, XDATA, add(CFA_XSP16, literal(-19)))
        CFI V0 load(1, XDATA, add(CFA_XSP16, literal(-20)))
        CFI VB load(1, XDATA, add(CFA_XSP16, literal(-21)))
        CFI R6 load(1, XDATA, add(CFA_XSP16, literal(-22)))
        CFI CFA_SP SP+0
        CFI CFA_XSP16 add(XSP16, 22)
        ; Saved register size: 22
        ; Auto size: 2
        MOV     A,#-0x2
        LCALL   ?ALLOC_XSTACK8
        CFI CFA_XSP16 add(XSP16, 24)
        MOV     ?V0 + 12,R2
        MOV     ?V0 + 13,R3
// 1589 #if defined ( REFLECTOR )
// 1590   byte x;
// 1591   uint16 maxNumItems;
// 1592   uint16 numItems;
// 1593   uint8 *pBuf = NULL;
        MOV     ?V0 + 4,#0x0
        MOV     ?V0 + 5,#0x0
// 1594   apsBindingItem_t *pList;
// 1595   uint8 StartIndex = inMsg->asdu[0];
        MOV     A,?V0 + 12
        ADD     A,#0x13
        MOV     DPL,A
        MOV     A,?V0 + 13
        ADDC    A,#0x0
        MOV     DPH,A
        MOVX    A,@DPTR
        MOV     R0,A
        INC     DPTR
        MOVX    A,@DPTR
        MOV     DPH,A
        MOV     DPL,R0
        MOVX    A,@DPTR
        MOV     ?V0 + 1,A
// 1596   uint8 status;
// 1597 
// 1598   // Get the number of table items
// 1599   APSME_GetRequest( apsNumBindingTableEntries, 0, (byte*)(&maxNumItems) );
        ; Setup parameters for call to function APSME_GetRequest
        MOV     DPL,?XSP + 0
        MOV     DPH,?XSP + 1
        MOV     R4,DPL
        MOV     R5,DPH
        MOV     R2,#0x0
        MOV     R3,#0x0
        MOV     R1,#-0x5d
        LCALL   ??APSME_GetRequest?relay
        MOV     A,R1
// 1600 
// 1601   if ( maxNumItems > StartIndex )
        MOV     ?V0 + 8,?V0 + 1
        MOV     ?V0 + 9,#0x0
        MOV     DPL,?XSP + 0
        MOV     DPH,?XSP + 1
        MOVX    A,@DPTR
        MOV     R0,A
        INC     DPTR
        MOVX    A,@DPTR
        MOV     R1,A
        CLR     C
        MOV     A,?V0 + 8
        SUBB    A,R0
        MOV     A,?V0 + 9
        SUBB    A,R1
        JNC     ??ZDO_ProcessMgmtBindReq_0
// 1602   {
// 1603     numItems = maxNumItems - StartIndex;    // Start at the passed in index
        MOV     DPL,?XSP + 0
        MOV     DPH,?XSP + 1
        MOV     ?V0 + 8,?V0 + 1
        MOV     ?V0 + 9,#0x0
        MOVX    A,@DPTR
        CLR     C
        SUBB    A,?V0 + 8
        MOV     R0,A
        INC     DPTR
        MOVX    A,@DPTR
        SUBB    A,?V0 + 9
        MOV     R1,A
        MOV     A,R0
        MOV     R6,A
        MOV     A,R1
        MOV     R7,A
        SJMP    ??ZDO_ProcessMgmtBindReq_1
// 1604   }
// 1605   else
// 1606   {
// 1607     numItems = 0;
??ZDO_ProcessMgmtBindReq_0:
        MOV     R6,#0x0
        MOV     R7,#0x0
// 1608   }
// 1609 
// 1610   // limit the size of the list
// 1611   if ( numItems > ZDO_MAX_BIND_ITEMS )
??ZDO_ProcessMgmtBindReq_1:
        CLR     C
        MOV     A,R6
        SUBB    A,#0x4
        MOV     A,R7
        SUBB    A,#0x0
        JC      ??ZDO_ProcessMgmtBindReq_2
// 1612   {
// 1613     numItems = ZDO_MAX_BIND_ITEMS;
        MOV     R6,#0x3
        MOV     R7,#0x0
// 1614   }
// 1615 
// 1616   // Allocate the memory to build the table
// 1617   if ( numItems && (pBuf = osal_mem_alloc( sizeof( apsBindingItem_t ) * numItems )) )
??ZDO_ProcessMgmtBindReq_2:
        MOV     A,R6
        ORL     A,R7
        JZ      ??ZDO_ProcessMgmtBindReq_3
        ; Setup parameters for call to function osal_mem_alloc
        MOV     A,R6
        MOV     R2,A
        MOV     A,R7
        MOV     R3,A
        MOV     A,R2
        MOV     B,#0x15
        MUL     AB
        XCH     A,R2
        MOV     R0,B
        MOV     B,#0x0
        MUL     AB
        ADD     A,R0
        MOV     R0,A
        MOV     B,#0x15
        MOV     A,R3
        MUL     AB
        ADD     A,R0
        MOV     R3,A
        LCALL   ??osal_mem_alloc?relay
        MOV     ?V0 + 8,R2
        MOV     ?V0 + 9,R3
        MOV     R0,?V0 + 8
        MOV     R1,?V0 + 9
        MOV     ?V0 + 4,R0
        MOV     ?V0 + 5,R1
        MOV     A,R0
        ORL     A,R1
        JZ      ??ZDO_ProcessMgmtBindReq_3
// 1618   {
// 1619     status = ZSuccess;
        MOV     ?V0 + 0,#0x0
// 1620 
// 1621     // Convert buffer to list
// 1622     pList = (apsBindingItem_t *)pBuf;
        MOV     ?V0 + 6,?V0 + 4
        MOV     ?V0 + 7,?V0 + 5
// 1623 
// 1624     // Loop through items and build list
// 1625     for ( x = 0; x < numItems; x++ )
        MOV     ?V0 + 2,#0x0
??ZDO_ProcessMgmtBindReq_4:
        MOV     ?V0 + 8,?V0 + 2
        MOV     ?V0 + 9,#0x0
        CLR     C
        MOV     A,?V0 + 8
        SUBB    A,R6
        MOV     A,?V0 + 9
        SUBB    A,R7
        JNC     ??ZDO_ProcessMgmtBindReq_5
// 1626     {
// 1627       APSME_GetRequest( apsBindingTable, (x + StartIndex), (void*)pList );
        ; Setup parameters for call to function APSME_GetRequest
        MOV     R4,?V0 + 6
        MOV     R5,?V0 + 7
        MOV     ?V0 + 10,?V0 + 2
        MOV     ?V0 + 11,#0x0
        MOV     ?V0 + 8,?V0 + 1
        MOV     ?V0 + 9,#0x0
        MOV     A,?V0 + 10
        ADD     A,?V0 + 8
        MOV     R2,A
        MOV     A,?V0 + 11
        ADDC    A,?V0 + 9
        MOV     R3,A
        MOV     R1,#-0x5e
        LCALL   ??APSME_GetRequest?relay
        MOV     A,R1
// 1628       pList++;
        MOV     A,?V0 + 6
        ADD     A,#0x15
        MOV     ?V0 + 6,A
        MOV     A,?V0 + 7
        ADDC    A,#0x0
        MOV     ?V0 + 7,A
// 1629     }
        INC     ?V0 + 2
        SJMP    ??ZDO_ProcessMgmtBindReq_4
// 1630 
// 1631   }
// 1632   else
// 1633   {
// 1634     status = ZDP_NOT_PERMITTED;
??ZDO_ProcessMgmtBindReq_3:
        MOV     ?V0 + 0,#-0x75
// 1635     numItems = 0;
        MOV     R6,#0x0
        MOV     R7,#0x0
// 1636   }
// 1637 
// 1638   // Send response
// 1639   ZDP_MgmtBindRsp( inMsg->TransSeq, &(inMsg->srcAddr), status, (byte)maxNumItems, StartIndex,
// 1640                    (byte)numItems, (apsBindingItem_t *)pBuf, false );
??ZDO_ProcessMgmtBindReq_5:
        ; Setup parameters for call to function ZDP_MgmtBindRsp
        MOV     ?V0 + 3,#0x0
        MOV     R0,#?V0 + 3
        LCALL   ?PUSH_XSTACK_I_ONE
        CFI CFA_XSP16 add(XSP16, 25)
        MOV     R0,#?V0 + 4
        LCALL   ?PUSH_XSTACK_I_TWO
        CFI CFA_XSP16 add(XSP16, 27)
        MOV     A,R6
        MOV     ?V0 + 3,A
        MOV     R0,#?V0 + 3
        LCALL   ?PUSH_XSTACK_I_ONE
        CFI CFA_XSP16 add(XSP16, 28)
        MOV     A,?V0 + 1
        MOV     ?V0 + 3,A
        MOV     R0,#?V0 + 3
        LCALL   ?PUSH_XSTACK_I_ONE
        CFI CFA_XSP16 add(XSP16, 29)
        MOV     A,#0x5
        LCALL   ?XSTACK_DISP0_8
        MOVX    A,@DPTR
        MOV     R0,A
        INC     DPTR
        MOVX    A,@DPTR
        MOV     R1,A
        MOV     A,R0
        MOV     R5,A
        MOV     R4,?V0 + 0
        MOV     A,?V0 + 12
        ADD     A,#0x2
        MOV     R2,A
        MOV     A,?V0 + 13
        ADDC    A,#0x0
        MOV     R3,A
        MOV     A,?V0 + 12
        ADD     A,#0xf
        MOV     DPL,A
        MOV     A,?V0 + 13
        ADDC    A,#0x0
        MOV     DPH,A
        MOVX    A,@DPTR
        MOV     R1,A
        LCALL   ??ZDP_MgmtBindRsp?relay
        MOV     A,#0x5
        LCALL   ?DEALLOC_XSTACK8
        CFI CFA_XSP16 add(XSP16, 24)
        MOV     A,R1
// 1641 
// 1642   if ( pBuf )
        MOV     A,?V0 + 4
        ORL     A,?V0 + 5
        JZ      ??ZDO_ProcessMgmtBindReq_6
// 1643   {
// 1644     osal_mem_free( pBuf );
        ; Setup parameters for call to function osal_mem_free
        MOV     R2,?V0 + 4
        MOV     R3,?V0 + 5
        LCALL   ??osal_mem_free?relay
// 1645   }
// 1646 #else
// 1647   (void)inMsg;
// 1648 #endif
// 1649 }
??ZDO_ProcessMgmtBindReq_6:
        MOV     A,#0x2
        LCALL   ?DEALLOC_XSTACK8
        CFI CFA_XSP16 add(XSP16, 22)
        MOV     R7,#0xe
        LJMP    ?BANKED_LEAVE_XDATA
        CFI EndBlock cfiBlock22
// 1650 
// 1651 /*********************************************************************
// 1652  * @fn          ZDO_ProcessMgmtDirectJoinReq
// 1653  *
// 1654  * @brief       This function finishes the processing of the Management
// 1655  *              Direct Join Request and generates the response.
// 1656  *
// 1657  * @param       inMsg - incoming message (request)
// 1658  *
// 1659  * @return      none
// 1660  */

        RSEG BANKED_CODE:CODE:NOROOT(0)
// 1661 void ZDO_ProcessMgmtDirectJoinReq( zdoIncomingMsg_t *inMsg )
ZDO_ProcessMgmtDirectJoinReq:
        CFI Block cfiBlock23 Using cfiCommon0
        CFI Function ZDO_ProcessMgmtDirectJoinReq
        CODE
// 1662 {
        FUNCALL ZDO_ProcessMgmtDirectJoinReq, NLME_DirectJoinRequest
        LOCFRAME ISTACK, 0, STACK
        LOCFRAME PSTACK, 0, STACK
        LOCFRAME XSTACK, 14, STACK
        LOCFRAME IOVERLAY, 0, STATIC
        LOCFRAME DOVERLAY, 0, STATIC
        ARGFRAME ISTACK, 0, STACK
        ARGFRAME PSTACK, 0, STACK
        ARGFRAME XSTACK, 14, STACK
        ARGFRAME IOVERLAY, 0, STATIC
        ARGFRAME DOVERLAY, 0, STATIC
        FUNCALL ZDO_ProcessMgmtDirectJoinReq, ZDP_SendData
        LOCFRAME ISTACK, 0, STACK
        LOCFRAME PSTACK, 0, STACK
        LOCFRAME XSTACK, 19, STACK
        LOCFRAME IOVERLAY, 0, STATIC
        LOCFRAME DOVERLAY, 0, STATIC
        ARGFRAME ISTACK, 0, STACK
        ARGFRAME PSTACK, 0, STACK
        ARGFRAME XSTACK, 19, STACK
        ARGFRAME IOVERLAY, 0, STATIC
        ARGFRAME DOVERLAY, 0, STATIC
        MOV     A,#-0xd
        LCALL   ?BANKED_ENTER_XDATA
        CFI DPH0 load(1, XDATA, add(CFA_XSP16, literal(-1)))
        CFI DPL0 load(1, XDATA, add(CFA_XSP16, literal(-2)))
        CFI ?BRET_EXT load(1, XDATA, add(CFA_XSP16, literal(-3)))
        CFI ?RET_HIGH load(1, XDATA, add(CFA_XSP16, literal(-4)))
        CFI ?RET_LOW load(1, XDATA, add(CFA_XSP16, literal(-5)))
        CFI R7 load(1, XDATA, add(CFA_XSP16, literal(-6)))
        CFI V4 load(1, XDATA, add(CFA_XSP16, literal(-7)))
        CFI V3 load(1, XDATA, add(CFA_XSP16, literal(-8)))
        CFI V2 load(1, XDATA, add(CFA_XSP16, literal(-9)))
        CFI V1 load(1, XDATA, add(CFA_XSP16, literal(-10)))
        CFI V0 load(1, XDATA, add(CFA_XSP16, literal(-11)))
        CFI VB load(1, XDATA, add(CFA_XSP16, literal(-12)))
        CFI R6 load(1, XDATA, add(CFA_XSP16, literal(-13)))
        CFI CFA_SP SP+0
        CFI CFA_XSP16 add(XSP16, 13)
        ; Saved register size: 13
        ; Auto size: 1
        MOV     A,#-0x1
        LCALL   ?ALLOC_XSTACK8
        CFI CFA_XSP16 add(XSP16, 14)
        MOV     A,R2
        MOV     R6,A
        MOV     A,R3
        MOV     R7,A
// 1663   uint8 *deviceAddr;
// 1664   uint8 capInfo;
// 1665   uint8 stat;
// 1666 
// 1667   // Parse the message
// 1668   deviceAddr = inMsg->asdu;
        MOV     A,R6
        ADD     A,#0x13
        MOV     DPL,A
        MOV     A,R7
        ADDC    A,#0x0
        MOV     DPH,A
        MOVX    A,@DPTR
        MOV     R0,A
        INC     DPTR
        MOVX    A,@DPTR
        MOV     R1,A
        MOV     ?V0 + 0,R0
        MOV     ?V0 + 1,R1
// 1669   capInfo = inMsg->asdu[Z_EXTADDR_LEN];
        MOV     A,R6
        ADD     A,#0x13
        MOV     DPL,A
        MOV     A,R7
        ADDC    A,#0x0
        MOV     DPH,A
        MOVX    A,@DPTR
        MOV     R0,A
        INC     DPTR
        MOVX    A,@DPTR
        MOV     DPH,A
        MOV     DPL,R0
        INC     DPTR
        INC     DPTR
        INC     DPTR
        INC     DPTR
        INC     DPTR
        INC     DPTR
        INC     DPTR
        INC     DPTR
        MOVX    A,@DPTR
        MOV     ?V0 + 4,A
// 1670 
// 1671   stat = (byte) NLME_DirectJoinRequest( deviceAddr, capInfo );
        ; Setup parameters for call to function NLME_DirectJoinRequest
        MOV     R1,?V0 + 4
        MOV     R2,?V0 + 0
        MOV     R3,?V0 + 1
        LCALL   ??NLME_DirectJoinRequest?relay
        MOV     A,R1
        MOV     DPL,?XSP + 0
        MOV     DPH,?XSP + 1
        MOVX    @DPTR,A
// 1672 
// 1673   ZDP_MgmtDirectJoinRsp( inMsg->TransSeq, &(inMsg->srcAddr), stat, false );
        ; Setup parameters for call to function ZDP_SendData
        MOV     ?V0 + 2,#0x0
        MOV     R0,#?V0 + 2
        LCALL   ?PUSH_XSTACK_I_ONE
        CFI CFA_XSP16 add(XSP16, 15)
        MOV     A,#0x1
        LCALL   ?XSTACK_DISP0_8
        MOV     ?V0 + 2,DPL
        MOV     ?V0 + 3,DPH
        MOV     R0,#?V0 + 2
        LCALL   ?PUSH_XSTACK_I_TWO
        CFI CFA_XSP16 add(XSP16, 17)
        MOV     ?V0 + 2,#0x35
        MOV     ?V0 + 3,#-0x80
        MOV     R0,#?V0 + 2
        LCALL   ?PUSH_XSTACK_I_TWO
        CFI CFA_XSP16 add(XSP16, 19)
        MOV     R1,#0x1
        MOV     A,R6
        ADD     A,#0x2
        MOV     R4,A
        MOV     A,R7
        ADDC    A,#0x0
        MOV     R5,A
        MOV     A,R6
        ADD     A,#0xf
        MOV     R2,A
        MOV     A,R7
        ADDC    A,#0x0
        MOV     R3,A
        LCALL   ??ZDP_SendData?relay
        MOV     A,#0x5
        LCALL   ?DEALLOC_XSTACK8
        CFI CFA_XSP16 add(XSP16, 14)
        MOV     A,R1
// 1674 }
        MOV     A,#0x1
        LCALL   ?DEALLOC_XSTACK8
        CFI CFA_XSP16 add(XSP16, 13)
        MOV     R7,#0x5
        LJMP    ?BANKED_LEAVE_XDATA
        CFI EndBlock cfiBlock23
// 1675 
// 1676 /*********************************************************************
// 1677  * @fn          ZDO_ProcessMgmtLeaveReq
// 1678  *
// 1679  * @brief       This function processes a Management Leave Request
// 1680  *              and generates the response.
// 1681  *
// 1682  * @param       inMsg - incoming message (request)
// 1683  *
// 1684  * @return      none
// 1685  */

        RSEG BANKED_CODE:CODE:NOROOT(0)
// 1686 void ZDO_ProcessMgmtLeaveReq( zdoIncomingMsg_t *inMsg )
ZDO_ProcessMgmtLeaveReq:
        CFI Block cfiBlock24 Using cfiCommon0
        CFI Function ZDO_ProcessMgmtLeaveReq
        CODE
// 1687 {
        FUNCALL ZDO_ProcessMgmtLeaveReq, AddrMgrExtAddrValid
        LOCFRAME ISTACK, 0, STACK
        LOCFRAME PSTACK, 0, STACK
        LOCFRAME XSTACK, 20, STACK
        LOCFRAME IOVERLAY, 0, STATIC
        LOCFRAME DOVERLAY, 0, STATIC
        ARGFRAME ISTACK, 0, STACK
        ARGFRAME PSTACK, 0, STACK
        ARGFRAME XSTACK, 20, STACK
        ARGFRAME IOVERLAY, 0, STATIC
        ARGFRAME DOVERLAY, 0, STATIC
        FUNCALL ZDO_ProcessMgmtLeaveReq, NLME_GetExtAddr
        LOCFRAME ISTACK, 0, STACK
        LOCFRAME PSTACK, 0, STACK
        LOCFRAME XSTACK, 20, STACK
        LOCFRAME IOVERLAY, 0, STATIC
        LOCFRAME DOVERLAY, 0, STATIC
        ARGFRAME ISTACK, 0, STACK
        ARGFRAME PSTACK, 0, STACK
        ARGFRAME XSTACK, 20, STACK
        ARGFRAME IOVERLAY, 0, STATIC
        ARGFRAME DOVERLAY, 0, STATIC
        FUNCALL ZDO_ProcessMgmtLeaveReq, sAddrExtCmp
        LOCFRAME ISTACK, 0, STACK
        LOCFRAME PSTACK, 0, STACK
        LOCFRAME XSTACK, 20, STACK
        LOCFRAME IOVERLAY, 0, STATIC
        LOCFRAME DOVERLAY, 0, STATIC
        ARGFRAME ISTACK, 0, STACK
        ARGFRAME PSTACK, 0, STACK
        ARGFRAME XSTACK, 20, STACK
        ARGFRAME IOVERLAY, 0, STATIC
        ARGFRAME DOVERLAY, 0, STATIC
        FUNCALL ZDO_ProcessMgmtLeaveReq, NLME_LeaveReq
        LOCFRAME ISTACK, 0, STACK
        LOCFRAME PSTACK, 0, STACK
        LOCFRAME XSTACK, 20, STACK
        LOCFRAME IOVERLAY, 0, STATIC
        LOCFRAME DOVERLAY, 0, STATIC
        ARGFRAME ISTACK, 0, STACK
        ARGFRAME PSTACK, 0, STACK
        ARGFRAME XSTACK, 20, STACK
        ARGFRAME IOVERLAY, 0, STATIC
        ARGFRAME DOVERLAY, 0, STATIC
        FUNCALL ZDO_ProcessMgmtLeaveReq, ZDP_SendData
        LOCFRAME ISTACK, 0, STACK
        LOCFRAME PSTACK, 0, STACK
        LOCFRAME XSTACK, 25, STACK
        LOCFRAME IOVERLAY, 0, STATIC
        LOCFRAME DOVERLAY, 0, STATIC
        ARGFRAME ISTACK, 0, STACK
        ARGFRAME PSTACK, 0, STACK
        ARGFRAME XSTACK, 25, STACK
        ARGFRAME IOVERLAY, 0, STATIC
        ARGFRAME DOVERLAY, 0, STATIC
        MOV     A,#-0xe
        LCALL   ?BANKED_ENTER_XDATA
        CFI DPH0 load(1, XDATA, add(CFA_XSP16, literal(-1)))
        CFI DPL0 load(1, XDATA, add(CFA_XSP16, literal(-2)))
        CFI ?BRET_EXT load(1, XDATA, add(CFA_XSP16, literal(-3)))
        CFI ?RET_HIGH load(1, XDATA, add(CFA_XSP16, literal(-4)))
        CFI ?RET_LOW load(1, XDATA, add(CFA_XSP16, literal(-5)))
        CFI R7 load(1, XDATA, add(CFA_XSP16, literal(-6)))
        CFI V5 load(1, XDATA, add(CFA_XSP16, literal(-7)))
        CFI V4 load(1, XDATA, add(CFA_XSP16, literal(-8)))
        CFI V3 load(1, XDATA, add(CFA_XSP16, literal(-9)))
        CFI V2 load(1, XDATA, add(CFA_XSP16, literal(-10)))
        CFI V1 load(1, XDATA, add(CFA_XSP16, literal(-11)))
        CFI V0 load(1, XDATA, add(CFA_XSP16, literal(-12)))
        CFI VB load(1, XDATA, add(CFA_XSP16, literal(-13)))
        CFI R6 load(1, XDATA, add(CFA_XSP16, literal(-14)))
        CFI CFA_SP SP+0
        CFI CFA_XSP16 add(XSP16, 14)
        ; Saved register size: 14
        ; Auto size: 6
        MOV     A,#-0x6
        LCALL   ?ALLOC_XSTACK8
        CFI CFA_XSP16 add(XSP16, 20)
        MOV     ?V0 + 0,R2
        MOV     ?V0 + 1,R3
// 1688   NLME_LeaveReq_t req;
// 1689   ZStatus_t       status;
// 1690   uint8           option;
// 1691   uint8 *msg = inMsg->asdu;
        MOV     A,?V0 + 0
        ADD     A,#0x13
        MOV     DPL,A
        MOV     A,?V0 + 1
        ADDC    A,#0x0
        MOV     DPH,A
        MOVX    A,@DPTR
        MOV     R6,A
        INC     DPTR
        MOVX    A,@DPTR
        MOV     R7,A
// 1692 
// 1693   if ( ( AddrMgrExtAddrValid( msg ) == FALSE                 ) ||
// 1694        ( osal_ExtAddrEqual( msg, NLME_GetExtAddr() ) == TRUE )    )
        ; Setup parameters for call to function AddrMgrExtAddrValid
        MOV     A,R6
        MOV     R2,A
        MOV     A,R7
        MOV     R3,A
        LCALL   ??AddrMgrExtAddrValid?relay
        MOV     A,R1
        JZ      ??ZDO_ProcessMgmtLeaveReq_0
        ; Setup parameters for call to function sAddrExtCmp
        ; Setup parameters for call to function NLME_GetExtAddr
        LCALL   ??NLME_GetExtAddr?relay
        MOV     A,R2
        MOV     R4,A
        MOV     A,R3
        MOV     R5,A
        MOV     A,R6
        MOV     R2,A
        MOV     A,R7
        MOV     R3,A
        LCALL   ??sAddrExtCmp?relay
        MOV     A,R1
        XRL     A,#0x1
        JNZ     ??ZDO_ProcessMgmtLeaveReq_1
// 1695   {
// 1696     // Remove this device
// 1697     req.extAddr = NULL;
??ZDO_ProcessMgmtLeaveReq_0:
        MOV     A,#0x1
        LCALL   ?XSTACK_DISP0_8
        MOV     A,#0x0
        MOVX    @DPTR,A
        INC     DPTR
        MOV     A,#0x0
        MOVX    @DPTR,A
        SJMP    ??ZDO_ProcessMgmtLeaveReq_2
// 1698   }
// 1699   else
// 1700   {
// 1701     // Remove child device
// 1702     req.extAddr = msg;
??ZDO_ProcessMgmtLeaveReq_1:
        MOV     A,#0x1
        LCALL   ?XSTACK_DISP0_8
        MOV     A,R6
        MOVX    @DPTR,A
        INC     DPTR
        MOV     A,R7
        MOVX    @DPTR,A
// 1703   }
// 1704 
// 1705   option = msg[Z_EXTADDR_LEN];
??ZDO_ProcessMgmtLeaveReq_2:
        MOV     DPL,R6
        MOV     DPH,R7
        INC     DPTR
        INC     DPTR
        INC     DPTR
        INC     DPTR
        INC     DPTR
        INC     DPTR
        INC     DPTR
        INC     DPTR
        MOVX    A,@DPTR
        MOV     ?V0 + 2,A
// 1706   if ( option & ZDP_MGMT_LEAVE_REQ_RC )
        MOV     A,?V0 + 2
        MOV     C,0xE0 /* A   */.6
        JNC     ??ZDO_ProcessMgmtLeaveReq_3
// 1707   {
// 1708     req.removeChildren = TRUE;
        MOV     A,#0x3
        LCALL   ?XSTACK_DISP0_8
        MOV     A,#0x1
        MOVX    @DPTR,A
// 1709   }
// 1710 
// 1711   if ( option & ZDP_MGMT_LEAVE_REQ_REJOIN )
??ZDO_ProcessMgmtLeaveReq_3:
        MOV     A,?V0 + 2
        MOV     C,0xE0 /* A   */.7
        JNC     ??ZDO_ProcessMgmtLeaveReq_4
// 1712   {
// 1713      req.rejoin = TRUE;
        MOV     A,#0x4
        LCALL   ?XSTACK_DISP0_8
        MOV     A,#0x1
        MOVX    @DPTR,A
// 1714   }
// 1715 
// 1716   req.silent = FALSE;
??ZDO_ProcessMgmtLeaveReq_4:
        MOV     A,#0x5
        LCALL   ?XSTACK_DISP0_8
        MOV     A,#0x0
        MOVX    @DPTR,A
// 1717 
// 1718   status = NLME_LeaveReq( &req );
        ; Setup parameters for call to function NLME_LeaveReq
        MOV     A,#0x1
        LCALL   ?XSTACK_DISP0_8
        MOV     R2,DPL
        MOV     R3,DPH
        LCALL   ??NLME_LeaveReq?relay
        MOV     A,R1
        MOV     DPL,?XSP + 0
        MOV     DPH,?XSP + 1
        MOVX    @DPTR,A
// 1719 
// 1720   ZDP_MgmtLeaveRsp( inMsg->TransSeq, &(inMsg->srcAddr), status, FALSE );
        ; Setup parameters for call to function ZDP_SendData
        MOV     ?V0 + 3,#0x0
        MOV     R0,#?V0 + 3
        LCALL   ?PUSH_XSTACK_I_ONE
        CFI CFA_XSP16 add(XSP16, 21)
        MOV     A,#0x1
        LCALL   ?XSTACK_DISP0_8
        MOV     ?V0 + 4,DPL
        MOV     ?V0 + 5,DPH
        MOV     R0,#?V0 + 4
        LCALL   ?PUSH_XSTACK_I_TWO
        CFI CFA_XSP16 add(XSP16, 23)
        MOV     ?V0 + 4,#0x34
        MOV     ?V0 + 5,#-0x80
        MOV     R0,#?V0 + 4
        LCALL   ?PUSH_XSTACK_I_TWO
        CFI CFA_XSP16 add(XSP16, 25)
        MOV     R1,#0x1
        MOV     A,?V0 + 0
        ADD     A,#0x2
        MOV     R4,A
        MOV     A,?V0 + 1
        ADDC    A,#0x0
        MOV     R5,A
        MOV     A,?V0 + 0
        ADD     A,#0xf
        MOV     R2,A
        MOV     A,?V0 + 1
        ADDC    A,#0x0
        MOV     R3,A
        LCALL   ??ZDP_SendData?relay
        MOV     A,#0x5
        LCALL   ?DEALLOC_XSTACK8
        CFI CFA_XSP16 add(XSP16, 20)
        MOV     A,R1
// 1721 }
        MOV     A,#0x6
        LCALL   ?DEALLOC_XSTACK8
        CFI CFA_XSP16 add(XSP16, 14)
        MOV     R7,#0x6
        LJMP    ?BANKED_LEAVE_XDATA
        CFI EndBlock cfiBlock24
// 1722 
// 1723 
// 1724 /*********************************************************************
// 1725  * @fn          ZDO_ProcessMgmtPermitJoinReq
// 1726  *
// 1727  * @brief       This function processes a Management Permit Join Request
// 1728  *              and generates the response.
// 1729  *
// 1730  * @param       inMsg - incoming message (request)
// 1731  *
// 1732  * @return      none
// 1733  */

        RSEG BANKED_CODE:CODE:NOROOT(0)
// 1734 void ZDO_ProcessMgmtPermitJoinReq( zdoIncomingMsg_t *inMsg )
ZDO_ProcessMgmtPermitJoinReq:
        CFI Block cfiBlock25 Using cfiCommon0
        CFI Function ZDO_ProcessMgmtPermitJoinReq
        CODE
// 1735 {
        FUNCALL ZDO_ProcessMgmtPermitJoinReq, NLME_PermitJoiningRequest
        LOCFRAME ISTACK, 0, STACK
        LOCFRAME PSTACK, 0, STACK
        LOCFRAME XSTACK, 13, STACK
        LOCFRAME IOVERLAY, 0, STATIC
        LOCFRAME DOVERLAY, 0, STATIC
        ARGFRAME ISTACK, 0, STACK
        ARGFRAME PSTACK, 0, STACK
        ARGFRAME XSTACK, 13, STACK
        ARGFRAME IOVERLAY, 0, STATIC
        ARGFRAME DOVERLAY, 0, STATIC
        FUNCALL ZDO_ProcessMgmtPermitJoinReq, ZDP_SendData
        LOCFRAME ISTACK, 0, STACK
        LOCFRAME PSTACK, 0, STACK
        LOCFRAME XSTACK, 18, STACK
        LOCFRAME IOVERLAY, 0, STATIC
        LOCFRAME DOVERLAY, 0, STATIC
        ARGFRAME ISTACK, 0, STACK
        ARGFRAME PSTACK, 0, STACK
        ARGFRAME XSTACK, 18, STACK
        ARGFRAME IOVERLAY, 0, STATIC
        ARGFRAME DOVERLAY, 0, STATIC
        MOV     A,#-0xc
        LCALL   ?BANKED_ENTER_XDATA
        CFI DPH0 load(1, XDATA, add(CFA_XSP16, literal(-1)))
        CFI DPL0 load(1, XDATA, add(CFA_XSP16, literal(-2)))
        CFI ?BRET_EXT load(1, XDATA, add(CFA_XSP16, literal(-3)))
        CFI ?RET_HIGH load(1, XDATA, add(CFA_XSP16, literal(-4)))
        CFI ?RET_LOW load(1, XDATA, add(CFA_XSP16, literal(-5)))
        CFI R7 load(1, XDATA, add(CFA_XSP16, literal(-6)))
        CFI V3 load(1, XDATA, add(CFA_XSP16, literal(-7)))
        CFI V2 load(1, XDATA, add(CFA_XSP16, literal(-8)))
        CFI V1 load(1, XDATA, add(CFA_XSP16, literal(-9)))
        CFI V0 load(1, XDATA, add(CFA_XSP16, literal(-10)))
        CFI VB load(1, XDATA, add(CFA_XSP16, literal(-11)))
        CFI R6 load(1, XDATA, add(CFA_XSP16, literal(-12)))
        CFI CFA_SP SP+0
        CFI CFA_XSP16 add(XSP16, 12)
        ; Saved register size: 12
        ; Auto size: 1
        MOV     A,#-0x1
        LCALL   ?ALLOC_XSTACK8
        CFI CFA_XSP16 add(XSP16, 13)
        MOV     A,R2
        MOV     R6,A
        MOV     A,R3
        MOV     R7,A
// 1736   uint8 stat;
// 1737   uint8 duration;
// 1738   uint8 tcsig;
// 1739 
// 1740   duration = inMsg->asdu[ZDP_MGMT_PERMIT_JOIN_REQ_DURATION];
        MOV     A,R6
        ADD     A,#0x13
        MOV     DPL,A
        MOV     A,R7
        ADDC    A,#0x0
        MOV     DPH,A
        MOVX    A,@DPTR
        MOV     R0,A
        INC     DPTR
        MOVX    A,@DPTR
        MOV     DPH,A
        MOV     DPL,R0
        MOVX    A,@DPTR
        MOV     ?V0 + 2,A
// 1741   tcsig    = inMsg->asdu[ZDP_MGMT_PERMIT_JOIN_REQ_TC_SIG];
        MOV     A,R6
        ADD     A,#0x13
        MOV     DPL,A
        MOV     A,R7
        ADDC    A,#0x0
        MOV     DPH,A
        MOVX    A,@DPTR
        MOV     R0,A
        INC     DPTR
        MOVX    A,@DPTR
        MOV     DPH,A
        MOV     DPL,R0
        INC     DPTR
        MOVX    A,@DPTR
        MOV     ?V0 + 3,A
// 1742 
// 1743   // Set the network layer permit join duration
// 1744   stat = (byte) NLME_PermitJoiningRequest( duration );
        ; Setup parameters for call to function NLME_PermitJoiningRequest
        MOV     R1,?V0 + 2
        LCALL   ??NLME_PermitJoiningRequest?relay
        MOV     A,R1
        MOV     DPL,?XSP + 0
        MOV     DPH,?XSP + 1
        MOVX    @DPTR,A
// 1745 
// 1746   // Handle the Trust Center Significance
// 1747   if ( ZG_SECURE_ENABLED && ZG_BUILD_COORDINATOR_TYPE && ZG_DEVICE_COORDINATOR_TYPE )
// 1748   {
// 1749     if ( tcsig == TRUE )
// 1750     {
// 1751       ZDSecMgrPermitJoining( duration );
// 1752     }
// 1753   }
// 1754 
// 1755   // Send a response if unicast
// 1756   if ( !inMsg->wasBroadcast )
        MOV     A,R6
        ADD     A,#0xb
        MOV     DPL,A
        MOV     A,R7
        ADDC    A,#0x0
        MOV     DPH,A
        MOVX    A,@DPTR
        JNZ     ??ZDO_ProcessMgmtPermitJoinReq_0
// 1757   {
// 1758     ZDP_MgmtPermitJoinRsp( inMsg->TransSeq, &(inMsg->srcAddr), stat, false );
        ; Setup parameters for call to function ZDP_SendData
        MOV     ?V0 + 0,#0x0
        MOV     R0,#?V0 + 0
        LCALL   ?PUSH_XSTACK_I_ONE
        CFI CFA_XSP16 add(XSP16, 14)
        MOV     A,#0x1
        LCALL   ?XSTACK_DISP0_8
        MOV     ?V0 + 0,DPL
        MOV     ?V0 + 1,DPH
        MOV     R0,#?V0 + 0
        LCALL   ?PUSH_XSTACK_I_TWO
        CFI CFA_XSP16 add(XSP16, 16)
        MOV     ?V0 + 0,#0x36
        MOV     ?V0 + 1,#-0x80
        MOV     R0,#?V0 + 0
        LCALL   ?PUSH_XSTACK_I_TWO
        CFI CFA_XSP16 add(XSP16, 18)
        MOV     R1,#0x1
        MOV     A,R6
        ADD     A,#0x2
        MOV     R4,A
        MOV     A,R7
        ADDC    A,#0x0
        MOV     R5,A
        MOV     A,R6
        ADD     A,#0xf
        MOV     R2,A
        MOV     A,R7
        ADDC    A,#0x0
        MOV     R3,A
        LCALL   ??ZDP_SendData?relay
        MOV     A,#0x5
        LCALL   ?DEALLOC_XSTACK8
        CFI CFA_XSP16 add(XSP16, 13)
        MOV     A,R1
// 1759   }
// 1760 }
??ZDO_ProcessMgmtPermitJoinReq_0:
        MOV     A,#0x1
        LCALL   ?DEALLOC_XSTACK8
        CFI CFA_XSP16 add(XSP16, 12)
        MOV     R7,#0x4
        LJMP    ?BANKED_LEAVE_XDATA
        CFI EndBlock cfiBlock25
// 1761 
// 1762 /*
// 1763  * This function stub allows the next higher layer to be notified of
// 1764  * a permit joining timeout.
// 1765  */
// 1766 /*********************************************************************
// 1767  * @fn          ZDO_ProcessMgmtPermitJoinTimeout
// 1768  *
// 1769  * @brief       This function stub allows the next higher layer to be
// 1770  *              notified of a permit joining timeout. Currently, this
// 1771  *              directly bypasses the APS layer.
// 1772  *
// 1773  * @param       none
// 1774  *
// 1775  * @return      none
// 1776  */

        RSEG BANKED_CODE:CODE:NOROOT(0)
// 1777 void ZDO_ProcessMgmtPermitJoinTimeout( void )
NLME_PermitJoiningTimeout:
        CFI Block cfiBlock26 Using cfiCommon0
        CFI Function NLME_PermitJoiningTimeout
        CODE
// 1778 {
        ; Saved register size: 0
        ; Auto size: 0
// 1779   #if defined( ZDO_MGMT_PERMIT_JOIN_RESPONSE )
// 1780   // Currently, only the ZDSecMgr needs to be notified
// 1781   if ( ZG_SECURE_ENABLED && ZG_BUILD_COORDINATOR_TYPE && ZG_DEVICE_COORDINATOR_TYPE )
// 1782   {
// 1783     ZDSecMgrPermitJoiningTimeout();
// 1784   }
// 1785   #endif
// 1786 }
        LJMP    ?BRET
        CFI EndBlock cfiBlock26
// 1787 
// 1788 /*********************************************************************
// 1789  * @fn          ZDO_ProcessUserDescReq
// 1790  *
// 1791  * @brief       This function finishes the processing of the User
// 1792  *              Descriptor Request and generates the response.
// 1793  *
// 1794  * @param       inMsg - incoming message (request)
// 1795  *
// 1796  * @return      none
// 1797  */

        RSEG BANKED_CODE:CODE:NOROOT(0)
// 1798 void ZDO_ProcessUserDescReq( zdoIncomingMsg_t *inMsg )
ZDO_ProcessUserDescReq:
        CFI Block cfiBlock27 Using cfiCommon0
        CFI Function ZDO_ProcessUserDescReq
        CODE
// 1799 {
        FUNCALL ZDO_ProcessUserDescReq, osal_nv_read
        LOCFRAME ISTACK, 0, STACK
        LOCFRAME PSTACK, 0, STACK
        LOCFRAME XSTACK, 33, STACK
        LOCFRAME IOVERLAY, 0, STATIC
        LOCFRAME DOVERLAY, 0, STATIC
        ARGFRAME ISTACK, 0, STACK
        ARGFRAME PSTACK, 0, STACK
        ARGFRAME XSTACK, 33, STACK
        ARGFRAME IOVERLAY, 0, STATIC
        ARGFRAME DOVERLAY, 0, STATIC
        FUNCALL ZDO_ProcessUserDescReq, ZDP_UserDescRsp
        LOCFRAME ISTACK, 0, STACK
        LOCFRAME PSTACK, 0, STACK
        LOCFRAME XSTACK, 32, STACK
        LOCFRAME IOVERLAY, 0, STATIC
        LOCFRAME DOVERLAY, 0, STATIC
        ARGFRAME ISTACK, 0, STACK
        ARGFRAME PSTACK, 0, STACK
        ARGFRAME XSTACK, 32, STACK
        ARGFRAME IOVERLAY, 0, STATIC
        ARGFRAME DOVERLAY, 0, STATIC
        FUNCALL ZDO_ProcessUserDescReq, ZDP_GenericRsp
        LOCFRAME ISTACK, 0, STACK
        LOCFRAME PSTACK, 0, STACK
        LOCFRAME XSTACK, 33, STACK
        LOCFRAME IOVERLAY, 0, STATIC
        LOCFRAME DOVERLAY, 0, STATIC
        ARGFRAME ISTACK, 0, STACK
        ARGFRAME PSTACK, 0, STACK
        ARGFRAME XSTACK, 33, STACK
        ARGFRAME IOVERLAY, 0, STATIC
        ARGFRAME DOVERLAY, 0, STATIC
        MOV     A,#-0xc
        LCALL   ?BANKED_ENTER_XDATA
        CFI DPH0 load(1, XDATA, add(CFA_XSP16, literal(-1)))
        CFI DPL0 load(1, XDATA, add(CFA_XSP16, literal(-2)))
        CFI ?BRET_EXT load(1, XDATA, add(CFA_XSP16, literal(-3)))
        CFI ?RET_HIGH load(1, XDATA, add(CFA_XSP16, literal(-4)))
        CFI ?RET_LOW load(1, XDATA, add(CFA_XSP16, literal(-5)))
        CFI R7 load(1, XDATA, add(CFA_XSP16, literal(-6)))
        CFI V3 load(1, XDATA, add(CFA_XSP16, literal(-7)))
        CFI V2 load(1, XDATA, add(CFA_XSP16, literal(-8)))
        CFI V1 load(1, XDATA, add(CFA_XSP16, literal(-9)))
        CFI V0 load(1, XDATA, add(CFA_XSP16, literal(-10)))
        CFI VB load(1, XDATA, add(CFA_XSP16, literal(-11)))
        CFI R6 load(1, XDATA, add(CFA_XSP16, literal(-12)))
        CFI CFA_SP SP+0
        CFI CFA_XSP16 add(XSP16, 12)
        ; Saved register size: 12
        ; Auto size: 17
        MOV     A,#-0x11
        LCALL   ?ALLOC_XSTACK8
        CFI CFA_XSP16 add(XSP16, 29)
        MOV     A,R2
        MOV     R6,A
        MOV     A,R3
        MOV     R7,A
// 1800   uint16 aoi = BUILD_UINT16( inMsg->asdu[0], inMsg->asdu[1] );
        MOV     A,R6
        ADD     A,#0x13
        MOV     DPL,A
        MOV     A,R7
        ADDC    A,#0x0
        MOV     DPH,A
        MOVX    A,@DPTR
        MOV     R0,A
        INC     DPTR
        MOVX    A,@DPTR
        MOV     DPH,A
        MOV     DPL,R0
        MOVX    A,@DPTR
        MOV     R2,A
        MOV     R3,#0x0
        MOV     A,R6
        ADD     A,#0x13
        MOV     DPL,A
        MOV     A,R7
        ADDC    A,#0x0
        MOV     DPH,A
        MOVX    A,@DPTR
        MOV     R0,A
        INC     DPTR
        MOVX    A,@DPTR
        MOV     DPH,A
        MOV     DPL,R0
        INC     DPTR
        MOVX    A,@DPTR
        MOV     R0,A
        MOV     R1,#0x0
        CLR     A
        XCH     A,R0
        MOV     R1,A
        MOV     A,R2
        ADD     A,R0
        MOV     ?V0 + 0,A
        MOV     A,R3
        ADDC    A,R1
        MOV     ?V0 + 1,A
// 1801   UserDescriptorFormat_t userDesc;
// 1802 
// 1803   if ( (aoi == ZDAppNwkAddr.addr.shortAddr) && (ZSUCCESS == osal_nv_read(
// 1804              ZCD_NV_USERDESC, 0, sizeof(UserDescriptorFormat_t), &userDesc )) )
        MOV     DPTR,#ZDAppNwkAddr
        MOVX    A,@DPTR
        XRL     A,?V0 + 0
        JNZ     ??ZDO_ProcessUserDescReq_0
        INC     DPTR
        MOVX    A,@DPTR
        XRL     A,?V0 + 1
??ZDO_ProcessUserDescReq_0:
        JNZ     ??ZDO_ProcessUserDescReq_1
        ; Setup parameters for call to function osal_nv_read
        MOV     DPL,?XSP + 0
        MOV     DPH,?XSP + 1
        MOV     ?V0 + 2,DPL
        MOV     ?V0 + 3,DPH
        MOV     R0,#?V0 + 2
        LCALL   ?PUSH_XSTACK_I_TWO
        CFI CFA_XSP16 add(XSP16, 31)
        MOV     ?V0 + 2,#0x11
        MOV     ?V0 + 3,#0x0
        MOV     R0,#?V0 + 2
        LCALL   ?PUSH_XSTACK_I_TWO
        CFI CFA_XSP16 add(XSP16, 33)
        MOV     R4,#0x0
        MOV     R5,#0x0
        MOV     R2,#-0x7f
        MOV     R3,#0x0
        LCALL   ??osal_nv_read?relay
        MOV     A,#0x4
        LCALL   ?DEALLOC_XSTACK8
        CFI CFA_XSP16 add(XSP16, 29)
        MOV     A,R1
        JNZ     ??ZDO_ProcessUserDescReq_1
// 1805   {
// 1806     ZDP_UserDescRsp( inMsg->TransSeq, &(inMsg->srcAddr), aoi, &userDesc, false );
        ; Setup parameters for call to function ZDP_UserDescRsp
        MOV     ?V0 + 2,#0x0
        MOV     R0,#?V0 + 2
        LCALL   ?PUSH_XSTACK_I_ONE
        CFI CFA_XSP16 add(XSP16, 30)
        MOV     A,#0x1
        LCALL   ?XSTACK_DISP0_8
        MOV     ?V0 + 2,DPL
        MOV     ?V0 + 3,DPH
        MOV     R0,#?V0 + 2
        LCALL   ?PUSH_XSTACK_I_TWO
        CFI CFA_XSP16 add(XSP16, 32)
        MOV     R4,?V0 + 0
        MOV     R5,?V0 + 1
        MOV     A,R6
        ADD     A,#0x2
        MOV     R2,A
        MOV     A,R7
        ADDC    A,#0x0
        MOV     R3,A
        MOV     A,R6
        ADD     A,#0xf
        MOV     DPL,A
        MOV     A,R7
        ADDC    A,#0x0
        MOV     DPH,A
        MOVX    A,@DPTR
        MOV     R1,A
        LCALL   ??ZDP_UserDescRsp?relay
        MOV     A,#0x3
        LCALL   ?DEALLOC_XSTACK8
        CFI CFA_XSP16 add(XSP16, 29)
        MOV     A,R1
        SJMP    ??ZDO_ProcessUserDescReq_2
// 1807   }
// 1808   else
// 1809   {
// 1810     ZDP_GenericRsp(inMsg->TransSeq, &(inMsg->srcAddr),
// 1811            ZDP_NOT_SUPPORTED, aoi, User_Desc_rsp, inMsg->SecurityUse );
??ZDO_ProcessUserDescReq_1:
        ; Setup parameters for call to function ZDP_GenericRsp
        MOV     ?V0 + 2,#0x11
        MOV     ?V0 + 3,#-0x80
        MOV     R0,#?V0 + 2
        LCALL   ?PUSH_XSTACK_I_TWO
        CFI CFA_XSP16 add(XSP16, 31)
        MOV     R0,#?V0 + 0
        LCALL   ?PUSH_XSTACK_I_TWO
        CFI CFA_XSP16 add(XSP16, 33)
        MOV     A,R6
        ADD     A,#0xe
        MOV     DPL,A
        MOV     A,R7
        ADDC    A,#0x0
        MOV     DPH,A
        MOVX    A,@DPTR
        MOV     R5,A
        MOV     R4,#-0x7c
        MOV     A,R6
        ADD     A,#0x2
        MOV     R2,A
        MOV     A,R7
        ADDC    A,#0x0
        MOV     R3,A
        MOV     A,R6
        ADD     A,#0xf
        MOV     DPL,A
        MOV     A,R7
        ADDC    A,#0x0
        MOV     DPH,A
        MOVX    A,@DPTR
        MOV     R1,A
        LCALL   ??ZDP_GenericRsp?relay
        MOV     A,#0x4
        LCALL   ?DEALLOC_XSTACK8
        CFI CFA_XSP16 add(XSP16, 29)
        MOV     A,R1
// 1812   }
// 1813 }
??ZDO_ProcessUserDescReq_2:
        MOV     A,#0x11
        LCALL   ?DEALLOC_XSTACK8
        CFI CFA_XSP16 add(XSP16, 12)
        MOV     R7,#0x4
        LJMP    ?BANKED_LEAVE_XDATA
        CFI EndBlock cfiBlock27
// 1814 
// 1815 /*********************************************************************
// 1816  * @fn          ZDO_ProcessUserDescSet
// 1817  *
// 1818  * @brief       This function finishes the processing of the User
// 1819  *              Descriptor Set and generates the response.
// 1820  *
// 1821  * @param       inMsg - incoming message (request)
// 1822  *
// 1823  * @return      none
// 1824  */

        RSEG BANKED_CODE:CODE:NOROOT(0)
// 1825 void ZDO_ProcessUserDescSet( zdoIncomingMsg_t *inMsg )
ZDO_ProcessUserDescSet:
        CFI Block cfiBlock28 Using cfiCommon0
        CFI Function ZDO_ProcessUserDescSet
        CODE
// 1826 {
        FUNCALL ZDO_ProcessUserDescSet, osal_memcpy
        LOCFRAME ISTACK, 0, STACK
        LOCFRAME PSTACK, 0, STACK
        LOCFRAME XSTACK, 42, STACK
        LOCFRAME IOVERLAY, 0, STATIC
        LOCFRAME DOVERLAY, 0, STATIC
        ARGFRAME ISTACK, 0, STACK
        ARGFRAME PSTACK, 0, STACK
        ARGFRAME XSTACK, 42, STACK
        ARGFRAME IOVERLAY, 0, STATIC
        ARGFRAME DOVERLAY, 0, STATIC
        FUNCALL ZDO_ProcessUserDescSet, osal_nv_write
        LOCFRAME ISTACK, 0, STACK
        LOCFRAME PSTACK, 0, STACK
        LOCFRAME XSTACK, 43, STACK
        LOCFRAME IOVERLAY, 0, STATIC
        LOCFRAME DOVERLAY, 0, STATIC
        ARGFRAME ISTACK, 0, STACK
        ARGFRAME PSTACK, 0, STACK
        ARGFRAME XSTACK, 43, STACK
        ARGFRAME IOVERLAY, 0, STATIC
        ARGFRAME DOVERLAY, 0, STATIC
        FUNCALL ZDO_ProcessUserDescSet, ZDP_SendData
        LOCFRAME ISTACK, 0, STACK
        LOCFRAME PSTACK, 0, STACK
        LOCFRAME XSTACK, 44, STACK
        LOCFRAME IOVERLAY, 0, STATIC
        LOCFRAME DOVERLAY, 0, STATIC
        ARGFRAME ISTACK, 0, STACK
        ARGFRAME PSTACK, 0, STACK
        ARGFRAME XSTACK, 44, STACK
        ARGFRAME IOVERLAY, 0, STATIC
        ARGFRAME DOVERLAY, 0, STATIC
        MOV     A,#-0x12
        LCALL   ?BANKED_ENTER_XDATA
        CFI DPH0 load(1, XDATA, add(CFA_XSP16, literal(-1)))
        CFI DPL0 load(1, XDATA, add(CFA_XSP16, literal(-2)))
        CFI ?BRET_EXT load(1, XDATA, add(CFA_XSP16, literal(-3)))
        CFI ?RET_HIGH load(1, XDATA, add(CFA_XSP16, literal(-4)))
        CFI ?RET_LOW load(1, XDATA, add(CFA_XSP16, literal(-5)))
        CFI R7 load(1, XDATA, add(CFA_XSP16, literal(-6)))
        CFI V9 load(1, XDATA, add(CFA_XSP16, literal(-7)))
        CFI V8 load(1, XDATA, add(CFA_XSP16, literal(-8)))
        CFI V7 load(1, XDATA, add(CFA_XSP16, literal(-9)))
        CFI V6 load(1, XDATA, add(CFA_XSP16, literal(-10)))
        CFI V5 load(1, XDATA, add(CFA_XSP16, literal(-11)))
        CFI V4 load(1, XDATA, add(CFA_XSP16, literal(-12)))
        CFI V3 load(1, XDATA, add(CFA_XSP16, literal(-13)))
        CFI V2 load(1, XDATA, add(CFA_XSP16, literal(-14)))
        CFI V1 load(1, XDATA, add(CFA_XSP16, literal(-15)))
        CFI V0 load(1, XDATA, add(CFA_XSP16, literal(-16)))
        CFI VB load(1, XDATA, add(CFA_XSP16, literal(-17)))
        CFI R6 load(1, XDATA, add(CFA_XSP16, literal(-18)))
        CFI CFA_SP SP+0
        CFI CFA_XSP16 add(XSP16, 18)
        ; Saved register size: 18
        ; Auto size: 21
        MOV     A,#-0x15
        LCALL   ?ALLOC_XSTACK8
        CFI CFA_XSP16 add(XSP16, 39)
        MOV     ?V0 + 8,R2
        MOV     ?V0 + 9,R3
// 1827   uint8 *msg;
// 1828   uint16 aoi;
// 1829   UserDescriptorFormat_t userDesc;
// 1830   uint8 outMsg[3];
// 1831   uint8 status;
// 1832 
// 1833   msg = inMsg->asdu;
        MOV     A,?V0 + 8
        ADD     A,#0x13
        MOV     DPL,A
        MOV     A,?V0 + 9
        ADDC    A,#0x0
        MOV     DPH,A
        MOVX    A,@DPTR
        MOV     R0,A
        INC     DPTR
        MOVX    A,@DPTR
        MOV     R1,A
        MOV     ?V0 + 0,R0
        MOV     ?V0 + 1,R1
// 1834   aoi = BUILD_UINT16( msg[0], msg[1] );
        MOV     DPL,?V0 + 0
        MOV     DPH,?V0 + 1
        MOVX    A,@DPTR
        MOV     R2,A
        MOV     R3,#0x0
        MOV     DPL,?V0 + 0
        MOV     DPH,?V0 + 1
        INC     DPTR
        MOVX    A,@DPTR
        MOV     R0,A
        MOV     R1,#0x0
        CLR     A
        XCH     A,R0
        MOV     R1,A
        MOV     A,R2
        ADD     A,R0
        MOV     R0,A
        MOV     A,R3
        ADDC    A,R1
        MOV     R1,A
        MOV     A,R0
        MOV     R6,A
        MOV     A,R1
        MOV     R7,A
// 1835 
// 1836   if ( aoi == ZDAppNwkAddr.addr.shortAddr )
        MOV     DPTR,#ZDAppNwkAddr
        MOVX    A,@DPTR
        XRL     A,R6
        JNZ     ??ZDO_ProcessUserDescSet_0
        INC     DPTR
        MOVX    A,@DPTR
        XRL     A,R7
??ZDO_ProcessUserDescSet_0:
        JZ      $+5
        LJMP    ??ZDO_ProcessUserDescSet_1 & 0xFFFF
// 1837   {
// 1838     userDesc.len = (msg[2] < AF_MAX_USER_DESCRIPTOR_LEN) ? msg[2] : AF_MAX_USER_DESCRIPTOR_LEN;
        MOV     DPL,?V0 + 0
        MOV     DPH,?V0 + 1
        INC     DPTR
        INC     DPTR
        MOVX    A,@DPTR
        CLR     C
        SUBB    A,#0x10
        JNC     ??ZDO_ProcessUserDescSet_2
        MOV     DPL,?V0 + 0
        MOV     DPH,?V0 + 1
        INC     DPTR
        INC     DPTR
        MOVX    A,@DPTR
        MOV     DPL,?XSP + 0
        MOV     DPH,?XSP + 1
        MOVX    @DPTR,A
        SJMP    ??ZDO_ProcessUserDescSet_3
??ZDO_ProcessUserDescSet_2:
        MOV     DPL,?XSP + 0
        MOV     DPH,?XSP + 1
        MOV     A,#0x10
        MOVX    @DPTR,A
??ZDO_ProcessUserDescSet_3:
        MOV     DPL,?XSP + 0
        MOV     DPH,?XSP + 1
        MOVX    A,@DPTR
        PUSH    A
        CFI CFA_SP SP+-1
        MOV     A,#0x4
        LCALL   ?XSTACK_DISP0_8
        POP     A
        CFI CFA_SP SP+0
        MOVX    @DPTR,A
// 1839     msg ++;  // increment one for the length field
        MOV     DPL,?V0 + 0
        MOV     DPH,?V0 + 1
        INC     DPTR
        MOV     ?V0 + 0,DPL
        MOV     ?V0 + 1,DPH
// 1840 
// 1841     osal_memcpy( userDesc.desc, &msg[2], userDesc.len );
        ; Setup parameters for call to function osal_memcpy
        MOV     DPL,?V0 + 0
        MOV     DPH,?V0 + 1
        INC     DPTR
        INC     DPTR
        MOV     R1,DPL
        MOV     R2,DPH
        MOV     R3,#0x0
        MOV     ?V0 + 4,R1
        MOV     ?V0 + 5,R2
        MOV     ?V0 + 6,R3
        MOV     R0,#?V0 + 4
        LCALL   ?PUSH_XSTACK_I_THREE
        CFI CFA_XSP16 add(XSP16, 42)
        MOV     A,#0x7
        LCALL   ?XSTACK_DISP0_8
        MOVX    A,@DPTR
        MOV     R4,A
        MOV     R5,#0x0
        MOV     A,#0x8
        LCALL   ?XSTACK_DISP0_8
        MOV     R2,DPL
        MOV     R3,DPH
        LCALL   ??osal_memcpy?relay
        MOV     A,#0x3
        LCALL   ?DEALLOC_XSTACK8
        CFI CFA_XSP16 add(XSP16, 39)
// 1842     osal_nv_write( ZCD_NV_USERDESC, 0, sizeof(UserDescriptorFormat_t), &userDesc );
        ; Setup parameters for call to function osal_nv_write
        MOV     A,#0x4
        LCALL   ?XSTACK_DISP0_8
        MOV     ?V0 + 4,DPL
        MOV     ?V0 + 5,DPH
        MOV     R0,#?V0 + 4
        LCALL   ?PUSH_XSTACK_I_TWO
        CFI CFA_XSP16 add(XSP16, 41)
        MOV     ?V0 + 4,#0x11
        MOV     ?V0 + 5,#0x0
        MOV     R0,#?V0 + 4
        LCALL   ?PUSH_XSTACK_I_TWO
        CFI CFA_XSP16 add(XSP16, 43)
        MOV     R4,#0x0
        MOV     R5,#0x0
        MOV     R2,#-0x7f
        MOV     R3,#0x0
        LCALL   ??osal_nv_write?relay
        MOV     A,#0x4
        LCALL   ?DEALLOC_XSTACK8
        CFI CFA_XSP16 add(XSP16, 39)
        MOV     A,R1
// 1843     if ( userDesc.len != 0 )
        MOV     A,#0x4
        LCALL   ?XSTACK_DISP0_8
        MOVX    A,@DPTR
        JZ      ??ZDO_ProcessUserDescSet_4
// 1844     {
// 1845       ZDO_Config_Node_Descriptor.UserDescAvail = TRUE;
        MOV     DPTR,#ZDO_Config_Node_Descriptor
        MOVX    A,@DPTR
        SETB    0xE0 /* A   */.4
        MOVX    @DPTR,A
        SJMP    ??ZDO_ProcessUserDescSet_5
// 1846     }
// 1847     else
// 1848     {
// 1849       ZDO_Config_Node_Descriptor.UserDescAvail = FALSE;
??ZDO_ProcessUserDescSet_4:
        MOV     DPTR,#ZDO_Config_Node_Descriptor
        MOVX    A,@DPTR
        CLR     0xE0 /* A   */.4
        MOVX    @DPTR,A
// 1850     }
// 1851 
// 1852     status = ZDP_SUCCESS;
??ZDO_ProcessUserDescSet_5:
        MOV     ?V0 + 2,#0x0
        SJMP    ??ZDO_ProcessUserDescSet_6
// 1853   }
// 1854   else
// 1855   {
// 1856     status =  ZDP_NOT_SUPPORTED;
??ZDO_ProcessUserDescSet_1:
        MOV     ?V0 + 2,#-0x7c
// 1857   }
// 1858 
// 1859   outMsg[0] = status;
??ZDO_ProcessUserDescSet_6:
        MOV     A,?V0 + 2
        MOV     A,#0x1
        LCALL   ?XSTACK_DISP0_8
        MOV     A,?V0 + 2
        MOVX    @DPTR,A
// 1860   outMsg[1] = LO_UINT16( aoi );
        MOV     A,R6
        PUSH    A
        CFI CFA_SP SP+-1
        MOV     A,#0x2
        LCALL   ?XSTACK_DISP0_8
        POP     A
        CFI CFA_SP SP+0
        MOVX    @DPTR,A
// 1861   outMsg[2] = LO_UINT16( aoi );
        MOV     A,R6
        PUSH    A
        CFI CFA_SP SP+-1
        MOV     A,#0x3
        LCALL   ?XSTACK_DISP0_8
        POP     A
        CFI CFA_SP SP+0
        MOVX    @DPTR,A
// 1862 
// 1863   ZDP_SendData( &(inMsg->TransSeq), &(inMsg->srcAddr), User_Desc_conf, 3, outMsg,
// 1864                inMsg->SecurityUse );
        ; Setup parameters for call to function ZDP_SendData
        MOV     A,?V0 + 8
        ADD     A,#0xe
        MOV     DPL,A
        MOV     A,?V0 + 9
        ADDC    A,#0x0
        MOV     DPH,A
        MOVX    A,@DPTR
        MOV     ?V0 + 3,A
        MOV     R0,#?V0 + 3
        LCALL   ?PUSH_XSTACK_I_ONE
        CFI CFA_XSP16 add(XSP16, 40)
        MOV     A,#0x2
        LCALL   ?XSTACK_DISP0_8
        MOV     ?V0 + 4,DPL
        MOV     ?V0 + 5,DPH
        MOV     R0,#?V0 + 4
        LCALL   ?PUSH_XSTACK_I_TWO
        CFI CFA_XSP16 add(XSP16, 42)
        MOV     ?V0 + 4,#0x14
        MOV     ?V0 + 5,#-0x80
        MOV     R0,#?V0 + 4
        LCALL   ?PUSH_XSTACK_I_TWO
        CFI CFA_XSP16 add(XSP16, 44)
        MOV     R1,#0x3
        MOV     A,?V0 + 8
        ADD     A,#0x2
        MOV     R4,A
        MOV     A,?V0 + 9
        ADDC    A,#0x0
        MOV     R5,A
        MOV     A,?V0 + 8
        ADD     A,#0xf
        MOV     R2,A
        MOV     A,?V0 + 9
        ADDC    A,#0x0
        MOV     R3,A
        LCALL   ??ZDP_SendData?relay
        MOV     A,#0x5
        LCALL   ?DEALLOC_XSTACK8
        CFI CFA_XSP16 add(XSP16, 39)
        MOV     A,R1
// 1865 }
        MOV     A,#0x15
        LCALL   ?DEALLOC_XSTACK8
        CFI CFA_XSP16 add(XSP16, 18)
        MOV     R7,#0xa
        LJMP    ?BANKED_LEAVE_XDATA
        CFI EndBlock cfiBlock28
// 1866 
// 1867 /*********************************************************************
// 1868  * @fn          ZDO_ProcessDeviceAnnce
// 1869  *
// 1870  * @brief       This function processes a device annouce message.
// 1871  *
// 1872  * @param       inMsg - incoming message
// 1873  *
// 1874  * @return      none
// 1875  */

        RSEG BANKED_CODE:CODE:NOROOT(0)
// 1876 void ZDO_ProcessDeviceAnnce( zdoIncomingMsg_t *inMsg )
ZDO_ProcessDeviceAnnce:
        CFI Block cfiBlock29 Using cfiCommon0
        CFI Function ZDO_ProcessDeviceAnnce
        CODE
// 1877 {
        FUNCALL ZDO_ProcessDeviceAnnce, ZDO_ParseDeviceAnnce
        LOCFRAME ISTACK, 0, STACK
        LOCFRAME PSTACK, 0, STACK
        LOCFRAME XSTACK, 44, STACK
        LOCFRAME IOVERLAY, 0, STATIC
        LOCFRAME DOVERLAY, 0, STATIC
        ARGFRAME ISTACK, 0, STACK
        ARGFRAME PSTACK, 0, STACK
        ARGFRAME XSTACK, 44, STACK
        ARGFRAME IOVERLAY, 0, STATIC
        ARGFRAME DOVERLAY, 0, STATIC
        FUNCALL ZDO_ProcessDeviceAnnce, NLME_GetExtAddr
        LOCFRAME ISTACK, 0, STACK
        LOCFRAME PSTACK, 0, STACK
        LOCFRAME XSTACK, 44, STACK
        LOCFRAME IOVERLAY, 0, STATIC
        LOCFRAME DOVERLAY, 0, STATIC
        ARGFRAME ISTACK, 0, STACK
        ARGFRAME PSTACK, 0, STACK
        ARGFRAME XSTACK, 44, STACK
        ARGFRAME IOVERLAY, 0, STATIC
        ARGFRAME DOVERLAY, 0, STATIC
        FUNCALL ZDO_ProcessDeviceAnnce, sAddrExtCmp
        LOCFRAME ISTACK, 0, STACK
        LOCFRAME PSTACK, 0, STACK
        LOCFRAME XSTACK, 44, STACK
        LOCFRAME IOVERLAY, 0, STATIC
        LOCFRAME DOVERLAY, 0, STATIC
        ARGFRAME ISTACK, 0, STACK
        ARGFRAME PSTACK, 0, STACK
        ARGFRAME XSTACK, 44, STACK
        ARGFRAME IOVERLAY, 0, STATIC
        ARGFRAME DOVERLAY, 0, STATIC
        FUNCALL ZDO_ProcessDeviceAnnce, NLME_GetShortAddr
        LOCFRAME ISTACK, 0, STACK
        LOCFRAME PSTACK, 0, STACK
        LOCFRAME XSTACK, 44, STACK
        LOCFRAME IOVERLAY, 0, STATIC
        LOCFRAME DOVERLAY, 0, STATIC
        ARGFRAME ISTACK, 0, STACK
        ARGFRAME PSTACK, 0, STACK
        ARGFRAME XSTACK, 44, STACK
        ARGFRAME IOVERLAY, 0, STATIC
        ARGFRAME DOVERLAY, 0, STATIC
        FUNCALL ZDO_ProcessDeviceAnnce, nwkNeighborRemoveAllStranded
        LOCFRAME ISTACK, 0, STACK
        LOCFRAME PSTACK, 0, STACK
        LOCFRAME XSTACK, 44, STACK
        LOCFRAME IOVERLAY, 0, STATIC
        LOCFRAME DOVERLAY, 0, STATIC
        ARGFRAME ISTACK, 0, STACK
        ARGFRAME PSTACK, 0, STACK
        ARGFRAME XSTACK, 44, STACK
        ARGFRAME IOVERLAY, 0, STATIC
        ARGFRAME DOVERLAY, 0, STATIC
        FUNCALL ZDO_ProcessDeviceAnnce, NLME_CheckNewAddrSet
        LOCFRAME ISTACK, 0, STACK
        LOCFRAME PSTACK, 0, STACK
        LOCFRAME XSTACK, 44, STACK
        LOCFRAME IOVERLAY, 0, STATIC
        LOCFRAME DOVERLAY, 0, STATIC
        ARGFRAME ISTACK, 0, STACK
        ARGFRAME PSTACK, 0, STACK
        ARGFRAME XSTACK, 44, STACK
        ARGFRAME IOVERLAY, 0, STATIC
        ARGFRAME DOVERLAY, 0, STATIC
        FUNCALL ZDO_ProcessDeviceAnnce, NLME_GetCoordExtAddr
        LOCFRAME ISTACK, 0, STACK
        LOCFRAME PSTACK, 0, STACK
        LOCFRAME XSTACK, 44, STACK
        LOCFRAME IOVERLAY, 0, STATIC
        LOCFRAME DOVERLAY, 0, STATIC
        ARGFRAME ISTACK, 0, STACK
        ARGFRAME PSTACK, 0, STACK
        ARGFRAME XSTACK, 44, STACK
        ARGFRAME IOVERLAY, 0, STATIC
        ARGFRAME DOVERLAY, 0, STATIC
        FUNCALL ZDO_ProcessDeviceAnnce, sAddrExtCmp
        LOCFRAME ISTACK, 0, STACK
        LOCFRAME PSTACK, 0, STACK
        LOCFRAME XSTACK, 44, STACK
        LOCFRAME IOVERLAY, 0, STATIC
        LOCFRAME DOVERLAY, 0, STATIC
        ARGFRAME ISTACK, 0, STACK
        ARGFRAME PSTACK, 0, STACK
        ARGFRAME XSTACK, 44, STACK
        ARGFRAME IOVERLAY, 0, STATIC
        ARGFRAME DOVERLAY, 0, STATIC
        FUNCALL ZDO_ProcessDeviceAnnce, NLME_GetCoordShortAddr
        LOCFRAME ISTACK, 0, STACK
        LOCFRAME PSTACK, 0, STACK
        LOCFRAME XSTACK, 44, STACK
        LOCFRAME IOVERLAY, 0, STATIC
        LOCFRAME DOVERLAY, 0, STATIC
        ARGFRAME ISTACK, 0, STACK
        ARGFRAME PSTACK, 0, STACK
        ARGFRAME XSTACK, 44, STACK
        ARGFRAME IOVERLAY, 0, STATIC
        ARGFRAME DOVERLAY, 0, STATIC
        FUNCALL ZDO_ProcessDeviceAnnce, ZMacSetReq
        LOCFRAME ISTACK, 0, STACK
        LOCFRAME PSTACK, 0, STACK
        LOCFRAME XSTACK, 44, STACK
        LOCFRAME IOVERLAY, 0, STATIC
        LOCFRAME DOVERLAY, 0, STATIC
        ARGFRAME ISTACK, 0, STACK
        ARGFRAME PSTACK, 0, STACK
        ARGFRAME XSTACK, 44, STACK
        ARGFRAME IOVERLAY, 0, STATIC
        ARGFRAME DOVERLAY, 0, STATIC
        FUNCALL ZDO_ProcessDeviceAnnce, nwkNeighborUpdateNwkAddr
        LOCFRAME ISTACK, 0, STACK
        LOCFRAME PSTACK, 0, STACK
        LOCFRAME XSTACK, 44, STACK
        LOCFRAME IOVERLAY, 0, STATIC
        LOCFRAME DOVERLAY, 0, STATIC
        ARGFRAME ISTACK, 0, STACK
        ARGFRAME PSTACK, 0, STACK
        ARGFRAME XSTACK, 44, STACK
        ARGFRAME IOVERLAY, 0, STATIC
        ARGFRAME DOVERLAY, 0, STATIC
        FUNCALL ZDO_ProcessDeviceAnnce, RTG_RemoveRtgEntry
        LOCFRAME ISTACK, 0, STACK
        LOCFRAME PSTACK, 0, STACK
        LOCFRAME XSTACK, 44, STACK
        LOCFRAME IOVERLAY, 0, STATIC
        LOCFRAME DOVERLAY, 0, STATIC
        ARGFRAME ISTACK, 0, STACK
        ARGFRAME PSTACK, 0, STACK
        ARGFRAME XSTACK, 44, STACK
        ARGFRAME IOVERLAY, 0, STATIC
        ARGFRAME DOVERLAY, 0, STATIC
        FUNCALL ZDO_ProcessDeviceAnnce, AddrMgrEntryLookupNwk
        LOCFRAME ISTACK, 0, STACK
        LOCFRAME PSTACK, 0, STACK
        LOCFRAME XSTACK, 44, STACK
        LOCFRAME IOVERLAY, 0, STATIC
        LOCFRAME DOVERLAY, 0, STATIC
        ARGFRAME ISTACK, 0, STACK
        ARGFRAME PSTACK, 0, STACK
        ARGFRAME XSTACK, 44, STACK
        ARGFRAME IOVERLAY, 0, STATIC
        ARGFRAME DOVERLAY, 0, STATIC
        FUNCALL ZDO_ProcessDeviceAnnce, osal_memset
        LOCFRAME ISTACK, 0, STACK
        LOCFRAME PSTACK, 0, STACK
        LOCFRAME XSTACK, 44, STACK
        LOCFRAME IOVERLAY, 0, STATIC
        LOCFRAME DOVERLAY, 0, STATIC
        ARGFRAME ISTACK, 0, STACK
        ARGFRAME PSTACK, 0, STACK
        ARGFRAME XSTACK, 44, STACK
        ARGFRAME IOVERLAY, 0, STATIC
        ARGFRAME DOVERLAY, 0, STATIC
        FUNCALL ZDO_ProcessDeviceAnnce, sAddrExtCmp
        LOCFRAME ISTACK, 0, STACK
        LOCFRAME PSTACK, 0, STACK
        LOCFRAME XSTACK, 44, STACK
        LOCFRAME IOVERLAY, 0, STATIC
        LOCFRAME DOVERLAY, 0, STATIC
        ARGFRAME ISTACK, 0, STACK
        ARGFRAME PSTACK, 0, STACK
        ARGFRAME XSTACK, 44, STACK
        ARGFRAME IOVERLAY, 0, STATIC
        ARGFRAME DOVERLAY, 0, STATIC
        FUNCALL ZDO_ProcessDeviceAnnce, AddrMgrExtAddrSet
        LOCFRAME ISTACK, 0, STACK
        LOCFRAME PSTACK, 0, STACK
        LOCFRAME XSTACK, 44, STACK
        LOCFRAME IOVERLAY, 0, STATIC
        LOCFRAME DOVERLAY, 0, STATIC
        ARGFRAME ISTACK, 0, STACK
        ARGFRAME PSTACK, 0, STACK
        ARGFRAME XSTACK, 44, STACK
        ARGFRAME IOVERLAY, 0, STATIC
        ARGFRAME DOVERLAY, 0, STATIC
        FUNCALL ZDO_ProcessDeviceAnnce, AddrMgrEntryUpdate
        LOCFRAME ISTACK, 0, STACK
        LOCFRAME PSTACK, 0, STACK
        LOCFRAME XSTACK, 44, STACK
        LOCFRAME IOVERLAY, 0, STATIC
        LOCFRAME DOVERLAY, 0, STATIC
        ARGFRAME ISTACK, 0, STACK
        ARGFRAME PSTACK, 0, STACK
        ARGFRAME XSTACK, 44, STACK
        ARGFRAME IOVERLAY, 0, STATIC
        ARGFRAME DOVERLAY, 0, STATIC
        FUNCALL ZDO_ProcessDeviceAnnce, AddrMgrExtAddrSet
        LOCFRAME ISTACK, 0, STACK
        LOCFRAME PSTACK, 0, STACK
        LOCFRAME XSTACK, 44, STACK
        LOCFRAME IOVERLAY, 0, STATIC
        LOCFRAME DOVERLAY, 0, STATIC
        ARGFRAME ISTACK, 0, STACK
        ARGFRAME PSTACK, 0, STACK
        ARGFRAME XSTACK, 44, STACK
        ARGFRAME IOVERLAY, 0, STATIC
        ARGFRAME DOVERLAY, 0, STATIC
        FUNCALL ZDO_ProcessDeviceAnnce, AddrMgrEntryLookupExt
        LOCFRAME ISTACK, 0, STACK
        LOCFRAME PSTACK, 0, STACK
        LOCFRAME XSTACK, 44, STACK
        LOCFRAME IOVERLAY, 0, STATIC
        LOCFRAME DOVERLAY, 0, STATIC
        ARGFRAME ISTACK, 0, STACK
        ARGFRAME PSTACK, 0, STACK
        ARGFRAME XSTACK, 44, STACK
        ARGFRAME IOVERLAY, 0, STATIC
        ARGFRAME DOVERLAY, 0, STATIC
        FUNCALL ZDO_ProcessDeviceAnnce, AddrMgrEntryUpdate
        LOCFRAME ISTACK, 0, STACK
        LOCFRAME PSTACK, 0, STACK
        LOCFRAME XSTACK, 44, STACK
        LOCFRAME IOVERLAY, 0, STATIC
        LOCFRAME DOVERLAY, 0, STATIC
        ARGFRAME ISTACK, 0, STACK
        ARGFRAME PSTACK, 0, STACK
        ARGFRAME XSTACK, 44, STACK
        ARGFRAME IOVERLAY, 0, STATIC
        ARGFRAME DOVERLAY, 0, STATIC
        MOV     A,#-0xc
        LCALL   ?BANKED_ENTER_XDATA
        CFI DPH0 load(1, XDATA, add(CFA_XSP16, literal(-1)))
        CFI DPL0 load(1, XDATA, add(CFA_XSP16, literal(-2)))
        CFI ?BRET_EXT load(1, XDATA, add(CFA_XSP16, literal(-3)))
        CFI ?RET_HIGH load(1, XDATA, add(CFA_XSP16, literal(-4)))
        CFI ?RET_LOW load(1, XDATA, add(CFA_XSP16, literal(-5)))
        CFI R7 load(1, XDATA, add(CFA_XSP16, literal(-6)))
        CFI V3 load(1, XDATA, add(CFA_XSP16, literal(-7)))
        CFI V2 load(1, XDATA, add(CFA_XSP16, literal(-8)))
        CFI V1 load(1, XDATA, add(CFA_XSP16, literal(-9)))
        CFI V0 load(1, XDATA, add(CFA_XSP16, literal(-10)))
        CFI VB load(1, XDATA, add(CFA_XSP16, literal(-11)))
        CFI R6 load(1, XDATA, add(CFA_XSP16, literal(-12)))
        CFI CFA_SP SP+0
        CFI CFA_XSP16 add(XSP16, 12)
        ; Saved register size: 12
        ; Auto size: 32
        MOV     A,#-0x20
        LCALL   ?ALLOC_XSTACK8
        CFI CFA_XSP16 add(XSP16, 44)
        MOV     ?V0 + 0,R2
        MOV     ?V0 + 1,R3
// 1878   ZDO_DeviceAnnce_t Annce;
// 1879   AddrMgrEntry_t addrEntry;
// 1880   uint8 parentExt[Z_EXTADDR_LEN];
// 1881 
// 1882   // Parse incoming message
// 1883   ZDO_ParseDeviceAnnce( inMsg, &Annce );
        ; Setup parameters for call to function ZDO_ParseDeviceAnnce
        MOV     DPL,?XSP + 0
        MOV     DPH,?XSP + 1
        MOV     R4,DPL
        MOV     R5,DPH
        MOV     R2,?V0 + 0
        MOV     R3,?V0 + 1
        LCALL   ??ZDO_ParseDeviceAnnce?relay
// 1884 
// 1885   if ( ZSTACK_END_DEVICE_BUILD )
// 1886   {
// 1887     // Make sure the message didn't come from myself - end device only
// 1888     if ( osal_ExtAddrEqual( NLME_GetExtAddr(), Annce.extAddr ) && Annce.nwkAddr == NLME_GetShortAddr() )
        ; Setup parameters for call to function sAddrExtCmp
        MOV     A,#0x2
        LCALL   ?XSTACK_DISP0_8
        MOV     R4,DPL
        MOV     R5,DPH
        MOV     R7,A
        MOV     A,DPL
        MOV     R6,DPL
        MOV     A,DPH
        MOV     R7,DPH
        ; Setup parameters for call to function NLME_GetExtAddr
        LCALL   ??NLME_GetExtAddr?relay
        MOV     R5,A
        MOV     A,R6
        MOV     R4,A
        MOV     A,R7
        MOV     R5,A
        LCALL   ??sAddrExtCmp?relay
        MOV     A,R1
        JZ      ??ZDO_ProcessDeviceAnnce_0
        ; Setup parameters for call to function NLME_GetShortAddr
        LCALL   ??NLME_GetShortAddr?relay
        MOV     ?V0 + 2,R2
        MOV     ?V0 + 3,R3
        MOV     R0,?V0 + 2
        MOV     R1,?V0 + 3
        MOV     DPL,?XSP + 0
        MOV     DPH,?XSP + 1
        MOVX    A,@DPTR
        XRL     A,R0
        JNZ     ??ZDO_ProcessDeviceAnnce_1
        INC     DPTR
        MOVX    A,@DPTR
        XRL     A,R1
??ZDO_ProcessDeviceAnnce_1:
        JNZ     $+5
        LJMP    ??ZDO_ProcessDeviceAnnce_2 & 0xFFFF
// 1889     {
// 1890       return;
// 1891     }
// 1892   }
// 1893 
// 1894 #if defined ( ZIGBEE_STOCHASTIC_ADDRESSING )
// 1895   // Clean up the neighbor table
// 1896   nwkNeighborRemoveAllStranded();
??ZDO_ProcessDeviceAnnce_0:
        ; Setup parameters for call to function nwkNeighborRemoveAllStranded
        LCALL   ??nwkNeighborRemoveAllStranded?relay
// 1897 
// 1898   // If address conflict is detected, no need to update the address manager
// 1899   if ( NLME_CheckNewAddrSet( Annce.nwkAddr, Annce.extAddr )== ZFailure )
        ; Setup parameters for call to function NLME_CheckNewAddrSet
        MOV     A,#0x2
        LCALL   ?XSTACK_DISP0_8
        MOV     R4,DPL
        MOV     R5,DPH
        MOV     DPL,?XSP + 0
        MOV     DPH,?XSP + 1
        MOVX    A,@DPTR
        MOV     R2,A
        INC     DPTR
        MOVX    A,@DPTR
        MOV     R3,A
        LCALL   ??NLME_CheckNewAddrSet?relay
        MOV     A,R1
        XRL     A,#0x1
        JNZ     $+5
        LJMP    ??ZDO_ProcessDeviceAnnce_2 & 0xFFFF
// 1900   {
// 1901     return;
// 1902   }
// 1903 #endif
// 1904 
// 1905 #if defined ( ZIGBEE_STOCHASTIC_ADDRESSING )
// 1906   // Check for parent's address
// 1907   NLME_GetCoordExtAddr( parentExt );
        ; Setup parameters for call to function NLME_GetCoordExtAddr
        MOV     A,#0x18
        LCALL   ?XSTACK_DISP0_8
        MOV     R2,DPL
        MOV     R3,DPH
        LCALL   ??NLME_GetCoordExtAddr?relay
// 1908   if ( osal_ExtAddrEqual( parentExt, Annce.extAddr ) )
        ; Setup parameters for call to function sAddrExtCmp
        MOV     A,#0x2
        LCALL   ?XSTACK_DISP0_8
        MOV     R4,DPL
        MOV     R5,DPH
        MOV     A,#0x18
        LCALL   ?XSTACK_DISP0_8
        MOV     R2,DPL
        MOV     R3,DPH
        LCALL   ??sAddrExtCmp?relay
        MOV     A,R1
        JZ      ??ZDO_ProcessDeviceAnnce_3
// 1909   {
// 1910     if ( Annce.nwkAddr != NLME_GetCoordShortAddr() )
        ; Setup parameters for call to function NLME_GetCoordShortAddr
        LCALL   ??NLME_GetCoordShortAddr?relay
        MOV     ?V0 + 2,R2
        MOV     ?V0 + 3,R3
        MOV     R0,?V0 + 2
        MOV     R1,?V0 + 3
        MOV     DPL,?XSP + 0
        MOV     DPH,?XSP + 1
        MOVX    A,@DPTR
        XRL     A,R0
        JNZ     ??ZDO_ProcessDeviceAnnce_4
        INC     DPTR
        MOVX    A,@DPTR
        XRL     A,R1
??ZDO_ProcessDeviceAnnce_4:
        JZ      ??ZDO_ProcessDeviceAnnce_3
// 1911     {
// 1912       // Set the Parent's MAC's new short address
// 1913       _NIB.nwkCoordAddress = Annce.nwkAddr;
        MOV     DPL,?XSP + 0
        MOV     DPH,?XSP + 1
        MOVX    A,@DPTR
        MOV     R0,A
        INC     DPTR
        MOVX    A,@DPTR
        MOV     R1,A
        MOV     DPTR,#_NIB + 23
        MOV     A,R0
        MOVX    @DPTR,A
        INC     DPTR
        MOV     A,R1
        MOVX    @DPTR,A
// 1914       ZMacSetReq( ZMacCoordShortAddress, (byte*)&(_NIB.nwkCoordAddress) );
        ; Setup parameters for call to function ZMacSetReq
        MOV     R2,#(_NIB + 23) & 0xff
        MOV     R3,#((_NIB + 23) >> 8) & 0xff
        MOV     R1,#0x4b
        LCALL   ??ZMacSetReq?relay
        MOV     A,R1
// 1915     }
// 1916   }
// 1917 
// 1918   if ( ZSTACK_ROUTER_BUILD )
// 1919   {
// 1920     // If the device annce comes from a end device child that has moved
// 1921     // to another parent, remove it from associated device list
// 1922 
// 1923     // If the dev annce is coming from other device's children,
// 1924     // (The dev annce from its own children shall be unicast to itself,
// 1925     // So check the mac destination address)
// 1926     // Remove it from the associated device list. If it is not
// 1927     // a child, no action will be taken in AssocRemove() anyway.
// 1928     if ( inMsg->macDestAddr != NLME_GetShortAddr() )
// 1929     {
// 1930       associated_devices_t *dev_ptr;
// 1931 
// 1932       // If it's an end device child
// 1933       dev_ptr = AssocGetWithExt( Annce.extAddr );
// 1934       if ( dev_ptr )
// 1935       {
// 1936         if ( dev_ptr->nodeRelation == CHILD_RFD ||
// 1937              dev_ptr->nodeRelation == CHILD_RFD_RX_IDLE )
// 1938         {
// 1939           AssocRemove( Annce.extAddr );
// 1940         }
// 1941       }
// 1942     }
// 1943 
// 1944     if ( Annce.nwkAddr != NLME_GetShortAddr() )
// 1945     {
// 1946       // If an associated device is found with matched extended Address,
// 1947       // update its short address
// 1948       if ( AssocChangeNwkAddr( Annce.nwkAddr, Annce.extAddr ) )
// 1949       {
// 1950         // Set event to save NV
// 1951         ZDApp_NVUpdate();
// 1952       }
// 1953     }
// 1954   }
// 1955 
// 1956   // Update the neighbor table
// 1957   nwkNeighborUpdateNwkAddr( Annce.nwkAddr, Annce.extAddr );
??ZDO_ProcessDeviceAnnce_3:
        ; Setup parameters for call to function nwkNeighborUpdateNwkAddr
        MOV     A,#0x2
        LCALL   ?XSTACK_DISP0_8
        MOV     R4,DPL
        MOV     R5,DPH
        MOV     DPL,?XSP + 0
        MOV     DPH,?XSP + 1
        MOVX    A,@DPTR
        MOV     R2,A
        INC     DPTR
        MOVX    A,@DPTR
        MOV     R3,A
        LCALL   ??nwkNeighborUpdateNwkAddr?relay
// 1958 
// 1959   // Assume that the device has moved, remove existing routing entries
// 1960   RTG_RemoveRtgEntry( Annce.nwkAddr, 0 );
        ; Setup parameters for call to function RTG_RemoveRtgEntry
        MOV     R1,#0x0
        MOV     DPL,?XSP + 0
        MOV     DPH,?XSP + 1
        MOVX    A,@DPTR
        MOV     R2,A
        INC     DPTR
        MOVX    A,@DPTR
        MOV     R3,A
        LCALL   ??RTG_RemoveRtgEntry?relay
        MOV     A,R1
// 1961 
// 1962 #endif // ZIGBEE_STOCHASTIC_ADDRESSING
// 1963 
// 1964   // Fill in the extended address in address manager if we don't have it already.
// 1965   addrEntry.user = ADDRMGR_USER_DEFAULT;
        MOV     A,#0xb
        LCALL   ?XSTACK_DISP0_8
        MOV     A,#0x0
        MOVX    @DPTR,A
// 1966   addrEntry.nwkAddr = Annce.nwkAddr;
        MOV     DPL,?XSP + 0
        MOV     DPH,?XSP + 1
        MOVX    A,@DPTR
        MOV     R0,A
        INC     DPTR
        MOVX    A,@DPTR
        MOV     R1,A
        MOV     A,#0xc
        LCALL   ?XSTACK_DISP0_8
        MOV     A,R0
        MOVX    @DPTR,A
        INC     DPTR
        MOV     A,R1
        MOVX    @DPTR,A
// 1967   if ( AddrMgrEntryLookupNwk( &addrEntry ) )
        ; Setup parameters for call to function AddrMgrEntryLookupNwk
        MOV     A,#0xb
        LCALL   ?XSTACK_DISP0_8
        MOV     R2,DPL
        MOV     R3,DPH
        LCALL   ??AddrMgrEntryLookupNwk?relay
        MOV     A,R1
        JZ      ??ZDO_ProcessDeviceAnnce_5
// 1968   {
// 1969     osal_memset( parentExt, 0, Z_EXTADDR_LEN );
        ; Setup parameters for call to function osal_memset
        MOV     R4,#0x8
        MOV     R5,#0x0
        MOV     R1,#0x0
        MOV     A,#0x18
        LCALL   ?XSTACK_DISP0_8
        MOV     R2,DPL
        MOV     R3,DPH
        LCALL   ??osal_memset?relay
// 1970     if ( osal_ExtAddrEqual( parentExt, addrEntry.extAddr ) )
        ; Setup parameters for call to function sAddrExtCmp
        MOV     A,#0xe
        LCALL   ?XSTACK_DISP0_8
        MOV     R4,DPL
        MOV     R5,DPH
        MOV     A,#0x18
        LCALL   ?XSTACK_DISP0_8
        MOV     R2,DPL
        MOV     R3,DPH
        LCALL   ??sAddrExtCmp?relay
        MOV     A,R1
        JZ      ??ZDO_ProcessDeviceAnnce_5
// 1971     {
// 1972       AddrMgrExtAddrSet( addrEntry.extAddr, Annce.extAddr );
        ; Setup parameters for call to function AddrMgrExtAddrSet
        MOV     A,#0x2
        LCALL   ?XSTACK_DISP0_8
        MOV     R4,DPL
        MOV     R5,DPH
        MOV     A,#0xe
        LCALL   ?XSTACK_DISP0_8
        MOV     R2,DPL
        MOV     R3,DPH
        LCALL   ??AddrMgrExtAddrSet?relay
// 1973       AddrMgrEntryUpdate( &addrEntry );
        ; Setup parameters for call to function AddrMgrEntryUpdate
        MOV     A,#0xb
        LCALL   ?XSTACK_DISP0_8
        MOV     R2,DPL
        MOV     R3,DPH
        LCALL   ??AddrMgrEntryUpdate?relay
        MOV     A,R1
// 1974     }
// 1975   }
// 1976 
// 1977   // Update the short address in address manager if it's been changed
// 1978   AddrMgrExtAddrSet( addrEntry.extAddr, Annce.extAddr );
??ZDO_ProcessDeviceAnnce_5:
        ; Setup parameters for call to function AddrMgrExtAddrSet
        MOV     A,#0x2
        LCALL   ?XSTACK_DISP0_8
        MOV     R4,DPL
        MOV     R5,DPH
        MOV     A,#0xe
        LCALL   ?XSTACK_DISP0_8
        MOV     R2,DPL
        MOV     R3,DPH
        LCALL   ??AddrMgrExtAddrSet?relay
// 1979   if ( AddrMgrEntryLookupExt( &addrEntry ) )
        ; Setup parameters for call to function AddrMgrEntryLookupExt
        MOV     A,#0xb
        LCALL   ?XSTACK_DISP0_8
        MOV     R2,DPL
        MOV     R3,DPH
        LCALL   ??AddrMgrEntryLookupExt?relay
        MOV     A,R1
        JZ      ??ZDO_ProcessDeviceAnnce_2
// 1980   {
// 1981     if ( addrEntry.nwkAddr != Annce.nwkAddr )
        MOV     A,#0xc
        LCALL   ?XSTACK_DISP0_8
        MOVX    A,@DPTR
        MOV     R0,A
        INC     DPTR
        MOVX    A,@DPTR
        MOV     R1,A
        MOV     DPL,?XSP + 0
        MOV     DPH,?XSP + 1
        MOVX    A,@DPTR
        XRL     A,R0
        JNZ     ??ZDO_ProcessDeviceAnnce_6
        INC     DPTR
        MOVX    A,@DPTR
        XRL     A,R1
??ZDO_ProcessDeviceAnnce_6:
        JZ      ??ZDO_ProcessDeviceAnnce_2
// 1982     {
// 1983       addrEntry.nwkAddr = Annce.nwkAddr;
        MOV     DPL,?XSP + 0
        MOV     DPH,?XSP + 1
        MOVX    A,@DPTR
        MOV     R0,A
        INC     DPTR
        MOVX    A,@DPTR
        MOV     R1,A
        MOV     A,#0xc
        LCALL   ?XSTACK_DISP0_8
        MOV     A,R0
        MOVX    @DPTR,A
        INC     DPTR
        MOV     A,R1
        MOVX    @DPTR,A
// 1984       AddrMgrEntryUpdate( &addrEntry );
        ; Setup parameters for call to function AddrMgrEntryUpdate
        MOV     A,#0xb
        LCALL   ?XSTACK_DISP0_8
        MOV     R2,DPL
        MOV     R3,DPH
        LCALL   ??AddrMgrEntryUpdate?relay
        MOV     A,R1
// 1985     }
// 1986   }
// 1987 }
??ZDO_ProcessDeviceAnnce_2:
        MOV     A,#0x20
        LCALL   ?DEALLOC_XSTACK8
        CFI CFA_XSP16 add(XSP16, 12)
        MOV     R7,#0x4
        LJMP    ?BANKED_LEAVE_XDATA
        CFI EndBlock cfiBlock29
// 1988 
// 1989 /*********************************************************************
// 1990  * @fn          ZDO_BuildSimpleDescBuf
// 1991  *
// 1992  * @brief       Build a byte sequence representation of a Simple Descriptor.
// 1993  *
// 1994  * @param       buf  - pointer to a byte array big enough for data.
// 1995  * @param       desc - SimpleDescriptionFormat_t *
// 1996  *
// 1997  * @return      none
// 1998  */

        RSEG BANKED_CODE:CODE:NOROOT(0)
// 1999 void ZDO_BuildSimpleDescBuf( uint8 *buf, SimpleDescriptionFormat_t *desc )
ZDO_BuildSimpleDescBuf:
        CFI Block cfiBlock30 Using cfiCommon0
        CFI Function ZDO_BuildSimpleDescBuf
        CODE
// 2000 {
        MOV     A,#-0xa
        LCALL   ?BANKED_ENTER_XDATA
        CFI DPH0 load(1, XDATA, add(CFA_XSP16, literal(-1)))
        CFI DPL0 load(1, XDATA, add(CFA_XSP16, literal(-2)))
        CFI ?BRET_EXT load(1, XDATA, add(CFA_XSP16, literal(-3)))
        CFI ?RET_HIGH load(1, XDATA, add(CFA_XSP16, literal(-4)))
        CFI ?RET_LOW load(1, XDATA, add(CFA_XSP16, literal(-5)))
        CFI R7 load(1, XDATA, add(CFA_XSP16, literal(-6)))
        CFI V1 load(1, XDATA, add(CFA_XSP16, literal(-7)))
        CFI V0 load(1, XDATA, add(CFA_XSP16, literal(-8)))
        CFI VB load(1, XDATA, add(CFA_XSP16, literal(-9)))
        CFI R6 load(1, XDATA, add(CFA_XSP16, literal(-10)))
        CFI CFA_SP SP+0
        CFI CFA_XSP16 add(XSP16, 10)
        ; Saved register size: 10
        ; Auto size: 0
// 2001   byte cnt;
// 2002   uint16 *ptr;
// 2003 
// 2004   *buf++ = desc->EndPoint;
        MOV     DPL,R4
        MOV     DPH,R5
        MOVX    A,@DPTR
        MOV     DPL,R2
        MOV     DPH,R3
        MOVX    @DPTR,A
        MOV     DPL,R2
        MOV     DPH,R3
        INC     DPTR
        MOV     R2,DPL
        MOV     R3,DPH
// 2005   *buf++ = HI_UINT16( desc->AppProfId );
        MOV     DPL,R4
        MOV     DPH,R5
        INC     DPTR
        MOVX    A,@DPTR
        MOV     ?V0 + 0,A
        INC     DPTR
        MOVX    A,@DPTR
        MOV     ?V0 + 1,A
        CLR     A
        MOV     A,?V0 + 1
        MOV     ?V0 + 0,A
        MOV     A,?V0 + 0
        MOV     DPL,R2
        MOV     DPH,R3
        MOV     A,?V0 + 0
        MOVX    @DPTR,A
        MOV     DPL,R2
        MOV     DPH,R3
        INC     DPTR
        MOV     R2,DPL
        MOV     R3,DPH
// 2006   *buf++ = LO_UINT16( desc->AppProfId );
        MOV     DPL,R4
        MOV     DPH,R5
        INC     DPTR
        MOVX    A,@DPTR
        MOV     ?V0 + 0,A
        INC     DPTR
        MOVX    A,@DPTR
        MOV     ?V0 + 1,A
        MOV     A,?V0 + 0
        MOV     DPL,R2
        MOV     DPH,R3
        MOV     A,?V0 + 0
        MOVX    @DPTR,A
        MOV     DPL,R2
        MOV     DPH,R3
        INC     DPTR
        MOV     R2,DPL
        MOV     R3,DPH
// 2007   *buf++ = HI_UINT16( desc->AppDeviceId );
        MOV     DPL,R4
        MOV     DPH,R5
        INC     DPTR
        INC     DPTR
        INC     DPTR
        MOVX    A,@DPTR
        MOV     ?V0 + 0,A
        INC     DPTR
        MOVX    A,@DPTR
        MOV     ?V0 + 1,A
        CLR     A
        MOV     A,?V0 + 1
        MOV     ?V0 + 0,A
        MOV     A,?V0 + 0
        MOV     DPL,R2
        MOV     DPH,R3
        MOV     A,?V0 + 0
        MOVX    @DPTR,A
        MOV     DPL,R2
        MOV     DPH,R3
        INC     DPTR
        MOV     R2,DPL
        MOV     R3,DPH
// 2008   *buf++ = LO_UINT16( desc->AppDeviceId );
        MOV     DPL,R4
        MOV     DPH,R5
        INC     DPTR
        INC     DPTR
        INC     DPTR
        MOVX    A,@DPTR
        MOV     ?V0 + 0,A
        INC     DPTR
        MOVX    A,@DPTR
        MOV     ?V0 + 1,A
        MOV     A,?V0 + 0
        MOV     DPL,R2
        MOV     DPH,R3
        MOV     A,?V0 + 0
        MOVX    @DPTR,A
        MOV     DPL,R2
        MOV     DPH,R3
        INC     DPTR
        MOV     R2,DPL
        MOV     R3,DPH
// 2009 
// 2010   *buf++ = (byte)(desc->AppDevVer << 4);
        MOV     DPL,R4
        MOV     DPH,R5
        INC     DPTR
        INC     DPTR
        INC     DPTR
        INC     DPTR
        INC     DPTR
        MOVX    A,@DPTR
        SWAP    A
        ANL     A,#0xf0
        MOV     DPL,R2
        MOV     DPH,R3
        MOVX    @DPTR,A
        MOV     DPL,R2
        MOV     DPH,R3
        INC     DPTR
        MOV     R2,DPL
        MOV     R3,DPH
// 2011 
// 2012   *buf++ = desc->AppNumInClusters;
        MOV     DPL,R4
        MOV     DPH,R5
        INC     DPTR
        INC     DPTR
        INC     DPTR
        INC     DPTR
        INC     DPTR
        INC     DPTR
        MOVX    A,@DPTR
        MOV     DPL,R2
        MOV     DPH,R3
        MOVX    @DPTR,A
        MOV     DPL,R2
        MOV     DPH,R3
        INC     DPTR
        MOV     R2,DPL
        MOV     R3,DPH
// 2013   ptr = desc->pAppInClusterList;
        MOV     DPL,R4
        MOV     DPH,R5
        INC     DPTR
        INC     DPTR
        INC     DPTR
        INC     DPTR
        INC     DPTR
        INC     DPTR
        INC     DPTR
        MOVX    A,@DPTR
        MOV     ?V0 + 0,A
        INC     DPTR
        MOVX    A,@DPTR
        MOV     ?V0 + 1,A
        MOV     R0,?V0 + 0
        MOV     R1,?V0 + 1
// 2014   for ( cnt = 0; cnt < desc->AppNumInClusters; ptr++, cnt++ )
        MOV     R6,#0x0
??ZDO_BuildSimpleDescBuf_0:
        MOV     DPL,R4
        MOV     DPH,R5
        INC     DPTR
        INC     DPTR
        INC     DPTR
        INC     DPTR
        INC     DPTR
        INC     DPTR
        MOVX    A,@DPTR
        MOV     R7,A
        MOV     A,R6
        CLR     C
        SUBB    A,R7
        JNC     ??ZDO_BuildSimpleDescBuf_1
// 2015   {
// 2016     *buf++ = HI_UINT16( *ptr );
        MOV     DPL,R0
        MOV     DPH,R1
        MOVX    A,@DPTR
        MOV     ?V0 + 0,A
        INC     DPTR
        MOVX    A,@DPTR
        MOV     ?V0 + 1,A
        CLR     A
        MOV     A,?V0 + 1
        MOV     ?V0 + 0,A
        MOV     A,?V0 + 0
        MOV     DPL,R2
        MOV     DPH,R3
        MOV     A,?V0 + 0
        MOVX    @DPTR,A
        MOV     DPL,R2
        MOV     DPH,R3
        INC     DPTR
        MOV     R2,DPL
        MOV     R3,DPH
// 2017     *buf++ = LO_UINT16( *ptr );
        MOV     DPL,R0
        MOV     DPH,R1
        MOVX    A,@DPTR
        MOV     ?V0 + 0,A
        INC     DPTR
        MOVX    A,@DPTR
        MOV     ?V0 + 1,A
        MOV     A,?V0 + 0
        MOV     DPL,R2
        MOV     DPH,R3
        MOV     A,?V0 + 0
        MOVX    @DPTR,A
        MOV     DPL,R2
        MOV     DPH,R3
        INC     DPTR
        MOV     R2,DPL
        MOV     R3,DPH
// 2018   }
        MOV     A,R0
        ADD     A,#0x2
        MOV     R0,A
        MOV     A,R1
        ADDC    A,#0x0
        MOV     R1,A
        INC     R6
        SJMP    ??ZDO_BuildSimpleDescBuf_0
// 2019 
// 2020   *buf++ = desc->AppNumOutClusters;
??ZDO_BuildSimpleDescBuf_1:
        MOV     DPL,R4
        MOV     DPH,R5
        INC     DPTR
        INC     DPTR
        INC     DPTR
        INC     DPTR
        INC     DPTR
        INC     DPTR
        INC     DPTR
        INC     DPTR
        INC     DPTR
        MOVX    A,@DPTR
        MOV     DPL,R2
        MOV     DPH,R3
        MOVX    @DPTR,A
        MOV     DPL,R2
        MOV     DPH,R3
        INC     DPTR
        MOV     R2,DPL
        MOV     R3,DPH
// 2021   ptr = desc->pAppOutClusterList;
        MOV     DPL,R4
        MOV     DPH,R5
        INC     DPTR
        INC     DPTR
        INC     DPTR
        INC     DPTR
        INC     DPTR
        INC     DPTR
        INC     DPTR
        INC     DPTR
        INC     DPTR
        INC     DPTR
        MOVX    A,@DPTR
        MOV     ?V0 + 0,A
        INC     DPTR
        MOVX    A,@DPTR
        MOV     ?V0 + 1,A
        MOV     R0,?V0 + 0
        MOV     R1,?V0 + 1
// 2022   for ( cnt = 0; cnt < desc->AppNumOutClusters; ptr++, cnt++ )
        MOV     R6,#0x0
??ZDO_BuildSimpleDescBuf_2:
        MOV     DPL,R4
        MOV     DPH,R5
        INC     DPTR
        INC     DPTR
        INC     DPTR
        INC     DPTR
        INC     DPTR
        INC     DPTR
        INC     DPTR
        INC     DPTR
        INC     DPTR
        MOVX    A,@DPTR
        MOV     R7,A
        MOV     A,R6
        CLR     C
        SUBB    A,R7
        JNC     ??ZDO_BuildSimpleDescBuf_3
// 2023   {
// 2024     *buf++ = HI_UINT16( *ptr );
        MOV     DPL,R0
        MOV     DPH,R1
        MOVX    A,@DPTR
        MOV     ?V0 + 0,A
        INC     DPTR
        MOVX    A,@DPTR
        MOV     ?V0 + 1,A
        CLR     A
        MOV     A,?V0 + 1
        MOV     ?V0 + 0,A
        MOV     A,?V0 + 0
        MOV     DPL,R2
        MOV     DPH,R3
        MOV     A,?V0 + 0
        MOVX    @DPTR,A
        MOV     DPL,R2
        MOV     DPH,R3
        INC     DPTR
        MOV     R2,DPL
        MOV     R3,DPH
// 2025     *buf++ = LO_UINT16( *ptr );
        MOV     DPL,R0
        MOV     DPH,R1
        MOVX    A,@DPTR
        MOV     ?V0 + 0,A
        INC     DPTR
        MOVX    A,@DPTR
        MOV     ?V0 + 1,A
        MOV     A,?V0 + 0
        MOV     DPL,R2
        MOV     DPH,R3
        MOV     A,?V0 + 0
        MOVX    @DPTR,A
        MOV     DPL,R2
        MOV     DPH,R3
        INC     DPTR
        MOV     R2,DPL
        MOV     R3,DPH
// 2026   }
        MOV     A,R0
        ADD     A,#0x2
        MOV     R0,A
        MOV     A,R1
        ADDC    A,#0x0
        MOV     R1,A
        INC     R6
        SJMP    ??ZDO_BuildSimpleDescBuf_2
// 2027 }
??ZDO_BuildSimpleDescBuf_3:
        MOV     R7,#0x2
        LJMP    ?BANKED_LEAVE_XDATA
        CFI EndBlock cfiBlock30
// 2028 
// 2029 /*********************************************************************
// 2030  * @fn      ZDO_MatchEndDeviceBind()
// 2031  *
// 2032  * @brief
// 2033  *
// 2034  *   Called to match end device binding requests
// 2035  *
// 2036  * @param  bindReq  - binding request information
// 2037  * @param  SecurityUse - Security enable/disable
// 2038  *
// 2039  * @return  none
// 2040  */

        RSEG BANKED_CODE:CODE:NOROOT(0)
// 2041 void ZDO_MatchEndDeviceBind( ZDEndDeviceBind_t *bindReq )
ZDO_MatchEndDeviceBind:
        CFI Block cfiBlock31 Using cfiCommon0
        CFI Function ZDO_MatchEndDeviceBind
        CODE
// 2042 {
        FUNCALL ZDO_MatchEndDeviceBind, osal_mem_alloc
        LOCFRAME ISTACK, 0, STACK
        LOCFRAME PSTACK, 0, STACK
        LOCFRAME XSTACK, 25, STACK
        LOCFRAME IOVERLAY, 0, STATIC
        LOCFRAME DOVERLAY, 0, STATIC
        ARGFRAME ISTACK, 0, STACK
        ARGFRAME PSTACK, 0, STACK
        ARGFRAME XSTACK, 25, STACK
        ARGFRAME IOVERLAY, 0, STATIC
        ARGFRAME DOVERLAY, 0, STATIC
        FUNCALL ZDO_MatchEndDeviceBind, osal_memset
        LOCFRAME ISTACK, 0, STACK
        LOCFRAME PSTACK, 0, STACK
        LOCFRAME XSTACK, 25, STACK
        LOCFRAME IOVERLAY, 0, STATIC
        LOCFRAME DOVERLAY, 0, STATIC
        ARGFRAME ISTACK, 0, STACK
        ARGFRAME PSTACK, 0, STACK
        ARGFRAME XSTACK, 25, STACK
        ARGFRAME IOVERLAY, 0, STATIC
        ARGFRAME DOVERLAY, 0, STATIC
        FUNCALL ZDO_MatchEndDeviceBind, ZDO_CopyMatchInfo
        LOCFRAME ISTACK, 0, STACK
        LOCFRAME PSTACK, 0, STACK
        LOCFRAME XSTACK, 25, STACK
        LOCFRAME IOVERLAY, 0, STATIC
        LOCFRAME DOVERLAY, 0, STATIC
        ARGFRAME ISTACK, 0, STACK
        ARGFRAME PSTACK, 0, STACK
        ARGFRAME XSTACK, 25, STACK
        ARGFRAME IOVERLAY, 0, STATIC
        ARGFRAME DOVERLAY, 0, STATIC
        FUNCALL ZDO_MatchEndDeviceBind, APS_SetEndDeviceBindTimeout
        LOCFRAME ISTACK, 0, STACK
        LOCFRAME PSTACK, 0, STACK
        LOCFRAME XSTACK, 25, STACK
        LOCFRAME IOVERLAY, 0, STATIC
        LOCFRAME DOVERLAY, 0, STATIC
        ARGFRAME ISTACK, 0, STACK
        ARGFRAME PSTACK, 0, STACK
        ARGFRAME XSTACK, 25, STACK
        ARGFRAME IOVERLAY, 0, STATIC
        ARGFRAME DOVERLAY, 0, STATIC
        FUNCALL ZDO_MatchEndDeviceBind, ZDO_CopyMatchInfo
        LOCFRAME ISTACK, 0, STACK
        LOCFRAME PSTACK, 0, STACK
        LOCFRAME XSTACK, 25, STACK
        LOCFRAME IOVERLAY, 0, STATIC
        LOCFRAME DOVERLAY, 0, STATIC
        ARGFRAME ISTACK, 0, STACK
        ARGFRAME PSTACK, 0, STACK
        ARGFRAME XSTACK, 25, STACK
        ARGFRAME IOVERLAY, 0, STATIC
        ARGFRAME DOVERLAY, 0, STATIC
        FUNCALL ZDO_MatchEndDeviceBind, ZDO_CompareClusterLists
        LOCFRAME ISTACK, 0, STACK
        LOCFRAME PSTACK, 0, STACK
        LOCFRAME XSTACK, 29, STACK
        LOCFRAME IOVERLAY, 0, STATIC
        LOCFRAME DOVERLAY, 0, STATIC
        ARGFRAME ISTACK, 0, STACK
        ARGFRAME PSTACK, 0, STACK
        ARGFRAME XSTACK, 29, STACK
        ARGFRAME IOVERLAY, 0, STATIC
        ARGFRAME DOVERLAY, 0, STATIC
        FUNCALL ZDO_MatchEndDeviceBind, osal_mem_alloc
        LOCFRAME ISTACK, 0, STACK
        LOCFRAME PSTACK, 0, STACK
        LOCFRAME XSTACK, 25, STACK
        LOCFRAME IOVERLAY, 0, STATIC
        LOCFRAME DOVERLAY, 0, STATIC
        ARGFRAME ISTACK, 0, STACK
        ARGFRAME PSTACK, 0, STACK
        ARGFRAME XSTACK, 25, STACK
        ARGFRAME IOVERLAY, 0, STATIC
        ARGFRAME DOVERLAY, 0, STATIC
        FUNCALL ZDO_MatchEndDeviceBind, osal_memcpy
        LOCFRAME ISTACK, 0, STACK
        LOCFRAME PSTACK, 0, STACK
        LOCFRAME XSTACK, 28, STACK
        LOCFRAME IOVERLAY, 0, STATIC
        LOCFRAME DOVERLAY, 0, STATIC
        ARGFRAME ISTACK, 0, STACK
        ARGFRAME PSTACK, 0, STACK
        ARGFRAME XSTACK, 28, STACK
        ARGFRAME IOVERLAY, 0, STATIC
        ARGFRAME DOVERLAY, 0, STATIC
        FUNCALL ZDO_MatchEndDeviceBind, ZDO_CompareClusterLists
        LOCFRAME ISTACK, 0, STACK
        LOCFRAME PSTACK, 0, STACK
        LOCFRAME XSTACK, 29, STACK
        LOCFRAME IOVERLAY, 0, STATIC
        LOCFRAME DOVERLAY, 0, STATIC
        ARGFRAME ISTACK, 0, STACK
        ARGFRAME PSTACK, 0, STACK
        ARGFRAME XSTACK, 29, STACK
        ARGFRAME IOVERLAY, 0, STATIC
        ARGFRAME DOVERLAY, 0, STATIC
        FUNCALL ZDO_MatchEndDeviceBind, osal_mem_alloc
        LOCFRAME ISTACK, 0, STACK
        LOCFRAME PSTACK, 0, STACK
        LOCFRAME XSTACK, 25, STACK
        LOCFRAME IOVERLAY, 0, STATIC
        LOCFRAME DOVERLAY, 0, STATIC
        ARGFRAME ISTACK, 0, STACK
        ARGFRAME PSTACK, 0, STACK
        ARGFRAME XSTACK, 25, STACK
        ARGFRAME IOVERLAY, 0, STATIC
        ARGFRAME DOVERLAY, 0, STATIC
        FUNCALL ZDO_MatchEndDeviceBind, osal_memcpy
        LOCFRAME ISTACK, 0, STACK
        LOCFRAME PSTACK, 0, STACK
        LOCFRAME XSTACK, 28, STACK
        LOCFRAME IOVERLAY, 0, STATIC
        LOCFRAME DOVERLAY, 0, STATIC
        ARGFRAME ISTACK, 0, STACK
        ARGFRAME PSTACK, 0, STACK
        ARGFRAME XSTACK, 28, STACK
        ARGFRAME IOVERLAY, 0, STATIC
        ARGFRAME DOVERLAY, 0, STATIC
        FUNCALL ZDO_MatchEndDeviceBind, ZDMatchSendState
        LOCFRAME ISTACK, 0, STACK
        LOCFRAME PSTACK, 0, STACK
        LOCFRAME XSTACK, 25, STACK
        LOCFRAME IOVERLAY, 0, STATIC
        LOCFRAME DOVERLAY, 0, STATIC
        ARGFRAME ISTACK, 0, STACK
        ARGFRAME PSTACK, 0, STACK
        ARGFRAME XSTACK, 25, STACK
        ARGFRAME IOVERLAY, 0, STATIC
        ARGFRAME DOVERLAY, 0, STATIC
        FUNCALL ZDO_MatchEndDeviceBind, ZDP_SendData
        LOCFRAME ISTACK, 0, STACK
        LOCFRAME PSTACK, 0, STACK
        LOCFRAME XSTACK, 30, STACK
        LOCFRAME IOVERLAY, 0, STATIC
        LOCFRAME DOVERLAY, 0, STATIC
        ARGFRAME ISTACK, 0, STACK
        ARGFRAME PSTACK, 0, STACK
        ARGFRAME XSTACK, 30, STACK
        ARGFRAME IOVERLAY, 0, STATIC
        ARGFRAME DOVERLAY, 0, STATIC
        FUNCALL ZDO_MatchEndDeviceBind, ZDP_SendData
        LOCFRAME ISTACK, 0, STACK
        LOCFRAME PSTACK, 0, STACK
        LOCFRAME XSTACK, 30, STACK
        LOCFRAME IOVERLAY, 0, STATIC
        LOCFRAME DOVERLAY, 0, STATIC
        ARGFRAME ISTACK, 0, STACK
        ARGFRAME PSTACK, 0, STACK
        ARGFRAME XSTACK, 30, STACK
        ARGFRAME IOVERLAY, 0, STATIC
        ARGFRAME DOVERLAY, 0, STATIC
        FUNCALL ZDO_MatchEndDeviceBind, ZDO_RemoveMatchMemory
        LOCFRAME ISTACK, 0, STACK
        LOCFRAME PSTACK, 0, STACK
        LOCFRAME XSTACK, 25, STACK
        LOCFRAME IOVERLAY, 0, STATIC
        LOCFRAME DOVERLAY, 0, STATIC
        ARGFRAME ISTACK, 0, STACK
        ARGFRAME PSTACK, 0, STACK
        ARGFRAME XSTACK, 25, STACK
        ARGFRAME IOVERLAY, 0, STATIC
        ARGFRAME DOVERLAY, 0, STATIC
        MOV     A,#-0xf
        LCALL   ?BANKED_ENTER_XDATA
        CFI DPH0 load(1, XDATA, add(CFA_XSP16, literal(-1)))
        CFI DPL0 load(1, XDATA, add(CFA_XSP16, literal(-2)))
        CFI ?BRET_EXT load(1, XDATA, add(CFA_XSP16, literal(-3)))
        CFI ?RET_HIGH load(1, XDATA, add(CFA_XSP16, literal(-4)))
        CFI ?RET_LOW load(1, XDATA, add(CFA_XSP16, literal(-5)))
        CFI R7 load(1, XDATA, add(CFA_XSP16, literal(-6)))
        CFI V6 load(1, XDATA, add(CFA_XSP16, literal(-7)))
        CFI V5 load(1, XDATA, add(CFA_XSP16, literal(-8)))
        CFI V4 load(1, XDATA, add(CFA_XSP16, literal(-9)))
        CFI V3 load(1, XDATA, add(CFA_XSP16, literal(-10)))
        CFI V2 load(1, XDATA, add(CFA_XSP16, literal(-11)))
        CFI V1 load(1, XDATA, add(CFA_XSP16, literal(-12)))
        CFI V0 load(1, XDATA, add(CFA_XSP16, literal(-13)))
        CFI VB load(1, XDATA, add(CFA_XSP16, literal(-14)))
        CFI R6 load(1, XDATA, add(CFA_XSP16, literal(-15)))
        CFI CFA_SP SP+0
        CFI CFA_XSP16 add(XSP16, 15)
        ; Saved register size: 15
        ; Auto size: 10
        MOV     A,#-0xa
        LCALL   ?ALLOC_XSTACK8
        CFI CFA_XSP16 add(XSP16, 25)
        MOV     A,R2
        MOV     R6,A
        MOV     A,R3
        MOV     R7,A
// 2043   zAddrType_t dstAddr;
// 2044   uint8 sendRsp = FALSE;
        MOV     ?V0 + 0,#0x0
// 2045   uint8 status;
// 2046 
// 2047   // Is this the first request?
// 2048   if ( matchED == NULL )
        MOV     DPTR,#matchED
        MOVX    A,@DPTR
        MOV     R0,A
        INC     DPTR
        MOVX    A,@DPTR
        MOV     R1,A
        MOV     A,R0
        ORL     A,R1
        JZ      $+5
        LJMP    ??ZDO_MatchEndDeviceBind_0 & 0xFFFF
// 2049   {
// 2050     // Create match info structure
// 2051     matchED = (ZDMatchEndDeviceBind_t *)osal_mem_alloc( sizeof ( ZDMatchEndDeviceBind_t ) );
        ; Setup parameters for call to function osal_mem_alloc
        MOV     R2,#0x37
        MOV     R3,#0x0
        LCALL   ??osal_mem_alloc?relay
        MOV     DPTR,#matchED
        MOV     A,R2
        MOVX    @DPTR,A
        INC     DPTR
        MOV     A,R3
        MOVX    @DPTR,A
// 2052     if ( matchED )
        MOV     DPTR,#matchED
        MOVX    A,@DPTR
        MOV     R0,A
        INC     DPTR
        MOVX    A,@DPTR
        MOV     R1,A
        MOV     A,R0
        ORL     A,R1
        JZ      ??ZDO_MatchEndDeviceBind_1
// 2053     {
// 2054       // Clear the structure
// 2055       osal_memset( (uint8 *)matchED, 0, sizeof ( ZDMatchEndDeviceBind_t ) );
        ; Setup parameters for call to function osal_memset
        MOV     R4,#0x37
        MOV     R5,#0x0
        MOV     R1,#0x0
        MOV     DPTR,#matchED
        MOVX    A,@DPTR
        MOV     R2,A
        INC     DPTR
        MOVX    A,@DPTR
        MOV     R3,A
        LCALL   ??osal_memset?relay
// 2056 
// 2057       // Copy the first request's information
// 2058       if ( !ZDO_CopyMatchInfo( &(matchED->ed1), bindReq ) )
        ; Setup parameters for call to function ZDO_CopyMatchInfo
        MOV     A,R6
        MOV     R4,A
        MOV     A,R7
        MOV     R5,A
        MOV     DPTR,#matchED
        MOVX    A,@DPTR
        MOV     R2,A
        INC     DPTR
        MOVX    A,@DPTR
        MOV     R3,A
        LCALL   ??ZDO_CopyMatchInfo?relay
        MOV     A,R1
        JNZ     ??ZDO_MatchEndDeviceBind_2
// 2059       {
// 2060         status = ZDP_NO_ENTRY;
        MOV     DPL,?XSP + 0
        MOV     DPH,?XSP + 1
        MOV     A,#-0x78
        MOVX    @DPTR,A
// 2061         sendRsp = TRUE;
        MOV     ?V0 + 0,#0x1
        SJMP    ??ZDO_MatchEndDeviceBind_2
// 2062       }
// 2063     }
// 2064     else
// 2065     {
// 2066       status = ZDP_NO_ENTRY;
??ZDO_MatchEndDeviceBind_1:
        MOV     DPL,?XSP + 0
        MOV     DPH,?XSP + 1
        MOV     A,#-0x78
        MOVX    @DPTR,A
// 2067       sendRsp = TRUE;
        MOV     ?V0 + 0,#0x1
// 2068     }
// 2069 
// 2070     if ( !sendRsp )
??ZDO_MatchEndDeviceBind_2:
        MOV     A,?V0 + 0
        JZ      $+5
        LJMP    ??ZDO_MatchEndDeviceBind_3 & 0xFFFF
// 2071     {
// 2072       // Set into the correct state
// 2073       matchED->state = ZDMATCH_WAIT_REQ;
        MOV     DPTR,#matchED
        MOVX    A,@DPTR
        ADD     A,#0x2e
        MOV     R0,A
        INC     DPTR
        MOVX    A,@DPTR
        ADDC    A,#0x0
        MOV     R1,A
        MOV     DPL,R0
        MOV     DPH,R1
        MOV     A,#0x1
        MOVX    @DPTR,A
// 2074 
// 2075       // Setup the timeout
// 2076       APS_SetEndDeviceBindTimeout( AIB_MaxBindingTime, ZDO_EndDeviceBindMatchTimeoutCB );
        ; Setup parameters for call to function APS_SetEndDeviceBindTimeout
        MOV     R4,#??ZDO_EndDeviceBindMatchTimeoutCB?relay & 0xff
        MOV     R5,#(??ZDO_EndDeviceBindMatchTimeoutCB?relay >> 8) & 0xff
        MOV     DPTR,#AIB_MaxBindingTime
        MOVX    A,@DPTR
        MOV     R2,A
        INC     DPTR
        MOVX    A,@DPTR
        MOV     R3,A
        LCALL   ??APS_SetEndDeviceBindTimeout?relay
        LJMP    ??ZDO_MatchEndDeviceBind_3 & 0xFFFF
// 2077     }
// 2078   }
// 2079   else
// 2080   {
// 2081       matchED->state = ZDMATCH_SENDING_BINDS;
??ZDO_MatchEndDeviceBind_0:
        MOV     DPTR,#matchED
        MOVX    A,@DPTR
        ADD     A,#0x2e
        MOV     R0,A
        INC     DPTR
        MOVX    A,@DPTR
        ADDC    A,#0x0
        MOV     R1,A
        MOV     DPL,R0
        MOV     DPH,R1
        MOV     A,#0x2
        MOVX    @DPTR,A
// 2082 
// 2083       // Copy the 2nd request's information
// 2084       if ( !ZDO_CopyMatchInfo( &(matchED->ed2), bindReq ) )
        ; Setup parameters for call to function ZDO_CopyMatchInfo
        MOV     A,R6
        MOV     R4,A
        MOV     A,R7
        MOV     R5,A
        MOV     DPTR,#matchED
        MOVX    A,@DPTR
        ADD     A,#0x17
        MOV     R2,A
        INC     DPTR
        MOVX    A,@DPTR
        ADDC    A,#0x0
        MOV     R3,A
        LCALL   ??ZDO_CopyMatchInfo?relay
        MOV     A,R1
        JNZ     ??ZDO_MatchEndDeviceBind_4
// 2085       {
// 2086         status = ZDP_NO_ENTRY;
        MOV     DPL,?XSP + 0
        MOV     DPH,?XSP + 1
        MOV     A,#-0x78
        MOVX    @DPTR,A
// 2087         sendRsp = TRUE;
        MOV     ?V0 + 0,#0x1
// 2088       }
// 2089 
// 2090       // Make a source match for ed1
// 2091       matchED->ed1numMatched = ZDO_CompareClusterLists(
// 2092                   matchED->ed1.numOutClusters, matchED->ed1.outClusters,
// 2093                   matchED->ed2.numInClusters, matchED->ed2.inClusters, ZDOBuildBuf );
??ZDO_MatchEndDeviceBind_4:
        ; Setup parameters for call to function ZDO_CompareClusterLists
        MOV     ?V0 + 2,#ZDOBuildBuf & 0xff
        MOV     ?V0 + 3,#(ZDOBuildBuf >> 8) & 0xff
        MOV     R0,#?V0 + 2
        LCALL   ?PUSH_XSTACK_I_TWO
        CFI CFA_XSP16 add(XSP16, 27)
        MOV     DPTR,#matchED
        MOVX    A,@DPTR
        ADD     A,#0x29
        MOV     R0,A
        INC     DPTR
        MOVX    A,@DPTR
        ADDC    A,#0x0
        MOV     R1,A
        MOV     DPL,R0
        MOV     DPH,R1
        LCALL   ?PUSH_XSTACK8_X_TWO
        CFI CFA_XSP16 add(XSP16, 29)
        MOV     DPTR,#matchED
        MOVX    A,@DPTR
        ADD     A,#0x28
        MOV     R0,A
        INC     DPTR
        MOVX    A,@DPTR
        ADDC    A,#0x0
        MOV     R1,A
        MOV     DPL,R0
        MOV     DPH,R1
        MOVX    A,@DPTR
        MOV     R4,A
        MOV     DPTR,#matchED
        MOVX    A,@DPTR
        ADD     A,#0x15
        MOV     R0,A
        INC     DPTR
        MOVX    A,@DPTR
        ADDC    A,#0x0
        MOV     R1,A
        MOV     DPL,R0
        MOV     DPH,R1
        MOVX    A,@DPTR
        MOV     R2,A
        INC     DPTR
        MOVX    A,@DPTR
        MOV     R3,A
        MOV     DPTR,#matchED
        MOVX    A,@DPTR
        ADD     A,#0x14
        MOV     R0,A
        INC     DPTR
        MOVX    A,@DPTR
        ADDC    A,#0x0
        MOV     R1,A
        MOV     DPL,R0
        MOV     DPH,R1
        MOVX    A,@DPTR
        MOV     R1,A
        LCALL   ??ZDO_CompareClusterLists?relay
        MOV     A,#0x4
        LCALL   ?DEALLOC_XSTACK8
        CFI CFA_XSP16 add(XSP16, 25)
        MOV     A,R1
        PUSH    A
        CFI CFA_SP SP+-1
        MOV     DPTR,#matchED
        MOVX    A,@DPTR
        ADD     A,#0x31
        MOV     R0,A
        INC     DPTR
        MOVX    A,@DPTR
        ADDC    A,#0x0
        MOV     R1,A
        MOV     DPL,R0
        MOV     DPH,R1
        POP     A
        CFI CFA_SP SP+0
        MOVX    @DPTR,A
// 2094       if ( matchED->ed1numMatched )
        MOV     DPTR,#matchED
        MOVX    A,@DPTR
        ADD     A,#0x31
        MOV     R0,A
        INC     DPTR
        MOVX    A,@DPTR
        ADDC    A,#0x0
        MOV     R1,A
        MOV     DPL,R0
        MOV     DPH,R1
        MOVX    A,@DPTR
        JNZ     $+5
        LJMP    ??ZDO_MatchEndDeviceBind_5 & 0xFFFF
// 2095       {
// 2096         // Save the match list
// 2097         matchED->ed1Matched = osal_mem_alloc( (short)(matchED->ed1numMatched * sizeof ( uint16 )) );
        ; Setup parameters for call to function osal_mem_alloc
        MOV     DPTR,#matchED
        MOVX    A,@DPTR
        ADD     A,#0x31
        MOV     R0,A
        INC     DPTR
        MOVX    A,@DPTR
        ADDC    A,#0x0
        MOV     R1,A
        MOV     DPL,R0
        MOV     DPH,R1
        MOVX    A,@DPTR
        MOV     R2,A
        MOV     R3,#0x0
        MOV     A,R2
        MOV     B,#0x2
        MUL     AB
        XCH     A,R2
        MOV     R0,B
        MOV     B,#0x0
        MUL     AB
        ADD     A,R0
        MOV     R0,A
        MOV     B,#0x2
        MOV     A,R3
        MUL     AB
        ADD     A,R0
        MOV     R3,A
        LCALL   ??osal_mem_alloc?relay
        MOV     ?V0 + 2,R2
        MOV     ?V0 + 3,R3
        MOV     R0,?V0 + 2
        MOV     R1,?V0 + 3
        MOV     DPTR,#matchED
        MOVX    A,@DPTR
        ADD     A,#0x32
        MOV     R2,A
        INC     DPTR
        MOVX    A,@DPTR
        ADDC    A,#0x0
        MOV     R3,A
        MOV     DPL,R2
        MOV     DPH,R3
        MOV     A,?V0 + 2
        MOVX    @DPTR,A
        INC     DPTR
        MOV     A,?V0 + 3
        MOVX    @DPTR,A
// 2098         if ( matchED->ed1Matched )
        MOV     DPTR,#matchED
        MOVX    A,@DPTR
        ADD     A,#0x32
        MOV     R0,A
        INC     DPTR
        MOVX    A,@DPTR
        ADDC    A,#0x0
        MOV     R1,A
        MOV     DPL,R0
        MOV     DPH,R1
        MOVX    A,@DPTR
        MOV     R0,A
        INC     DPTR
        MOVX    A,@DPTR
        MOV     R1,A
        MOV     A,R0
        ORL     A,R1
        JZ      ??ZDO_MatchEndDeviceBind_6
// 2099         {
// 2100           osal_memcpy( matchED->ed1Matched, ZDOBuildBuf, (matchED->ed1numMatched * sizeof ( uint16 )) );
        ; Setup parameters for call to function osal_memcpy
        MOV     ?V0 + 4,#ZDOBuildBuf & 0xff
        MOV     ?V0 + 5,#(ZDOBuildBuf >> 8) & 0xff
        MOV     ?V0 + 6,#0x0
        MOV     R0,#?V0 + 4
        LCALL   ?PUSH_XSTACK_I_THREE
        CFI CFA_XSP16 add(XSP16, 28)
        MOV     DPTR,#matchED
        MOVX    A,@DPTR
        ADD     A,#0x31
        MOV     R0,A
        INC     DPTR
        MOVX    A,@DPTR
        ADDC    A,#0x0
        MOV     R1,A
        MOV     DPL,R0
        MOV     DPH,R1
        MOVX    A,@DPTR
        MOV     R4,A
        MOV     R5,#0x0
        MOV     A,R4
        MOV     B,#0x2
        MUL     AB
        XCH     A,R4
        MOV     R0,B
        MOV     B,#0x0
        MUL     AB
        ADD     A,R0
        MOV     R0,A
        MOV     B,#0x2
        MOV     A,R5
        MUL     AB
        ADD     A,R0
        MOV     R5,A
        MOV     DPTR,#matchED
        MOVX    A,@DPTR
        ADD     A,#0x32
        MOV     R0,A
        INC     DPTR
        MOVX    A,@DPTR
        ADDC    A,#0x0
        MOV     R1,A
        MOV     DPL,R0
        MOV     DPH,R1
        MOVX    A,@DPTR
        MOV     R2,A
        INC     DPTR
        MOVX    A,@DPTR
        MOV     R3,A
        LCALL   ??osal_memcpy?relay
        MOV     A,#0x3
        LCALL   ?DEALLOC_XSTACK8
        CFI CFA_XSP16 add(XSP16, 25)
        SJMP    ??ZDO_MatchEndDeviceBind_5
// 2101         }
// 2102         else
// 2103         {
// 2104           // Allocation error, stop
// 2105           status = ZDP_NO_ENTRY;
??ZDO_MatchEndDeviceBind_6:
        MOV     DPL,?XSP + 0
        MOV     DPH,?XSP + 1
        MOV     A,#-0x78
        MOVX    @DPTR,A
// 2106           sendRsp = TRUE;
        MOV     ?V0 + 0,#0x1
// 2107         }
// 2108       }
// 2109 
// 2110       // Make a source match for ed2
// 2111       matchED->ed2numMatched = ZDO_CompareClusterLists(
// 2112                   matchED->ed2.numOutClusters, matchED->ed2.outClusters,
// 2113                   matchED->ed1.numInClusters, matchED->ed1.inClusters, ZDOBuildBuf );
??ZDO_MatchEndDeviceBind_5:
        ; Setup parameters for call to function ZDO_CompareClusterLists
        MOV     ?V0 + 2,#ZDOBuildBuf & 0xff
        MOV     ?V0 + 3,#(ZDOBuildBuf >> 8) & 0xff
        MOV     R0,#?V0 + 2
        LCALL   ?PUSH_XSTACK_I_TWO
        CFI CFA_XSP16 add(XSP16, 27)
        MOV     DPTR,#matchED
        MOVX    A,@DPTR
        ADD     A,#0x12
        MOV     R0,A
        INC     DPTR
        MOVX    A,@DPTR
        ADDC    A,#0x0
        MOV     R1,A
        MOV     DPL,R0
        MOV     DPH,R1
        LCALL   ?PUSH_XSTACK8_X_TWO
        CFI CFA_XSP16 add(XSP16, 29)
        MOV     DPTR,#matchED
        MOVX    A,@DPTR
        ADD     A,#0x11
        MOV     R0,A
        INC     DPTR
        MOVX    A,@DPTR
        ADDC    A,#0x0
        MOV     R1,A
        MOV     DPL,R0
        MOV     DPH,R1
        MOVX    A,@DPTR
        MOV     R4,A
        MOV     DPTR,#matchED
        MOVX    A,@DPTR
        ADD     A,#0x2c
        MOV     R0,A
        INC     DPTR
        MOVX    A,@DPTR
        ADDC    A,#0x0
        MOV     R1,A
        MOV     DPL,R0
        MOV     DPH,R1
        MOVX    A,@DPTR
        MOV     R2,A
        INC     DPTR
        MOVX    A,@DPTR
        MOV     R3,A
        MOV     DPTR,#matchED
        MOVX    A,@DPTR
        ADD     A,#0x2b
        MOV     R0,A
        INC     DPTR
        MOVX    A,@DPTR
        ADDC    A,#0x0
        MOV     R1,A
        MOV     DPL,R0
        MOV     DPH,R1
        MOVX    A,@DPTR
        MOV     R1,A
        LCALL   ??ZDO_CompareClusterLists?relay
        MOV     A,#0x4
        LCALL   ?DEALLOC_XSTACK8
        CFI CFA_XSP16 add(XSP16, 25)
        MOV     A,R1
        PUSH    A
        CFI CFA_SP SP+-1
        MOV     DPTR,#matchED
        MOVX    A,@DPTR
        ADD     A,#0x34
        MOV     R0,A
        INC     DPTR
        MOVX    A,@DPTR
        ADDC    A,#0x0
        MOV     R1,A
        MOV     DPL,R0
        MOV     DPH,R1
        POP     A
        CFI CFA_SP SP+0
        MOVX    @DPTR,A
// 2114       if ( matchED->ed2numMatched )
        MOV     DPTR,#matchED
        MOVX    A,@DPTR
        ADD     A,#0x34
        MOV     R0,A
        INC     DPTR
        MOVX    A,@DPTR
        ADDC    A,#0x0
        MOV     R1,A
        MOV     DPL,R0
        MOV     DPH,R1
        MOVX    A,@DPTR
        JNZ     $+5
        LJMP    ??ZDO_MatchEndDeviceBind_7 & 0xFFFF
// 2115       {
// 2116         // Save the match list
// 2117         matchED->ed2Matched = osal_mem_alloc( (short)(matchED->ed2numMatched * sizeof ( uint16 )) );
        ; Setup parameters for call to function osal_mem_alloc
        MOV     DPTR,#matchED
        MOVX    A,@DPTR
        ADD     A,#0x34
        MOV     R0,A
        INC     DPTR
        MOVX    A,@DPTR
        ADDC    A,#0x0
        MOV     R1,A
        MOV     DPL,R0
        MOV     DPH,R1
        MOVX    A,@DPTR
        MOV     R2,A
        MOV     R3,#0x0
        MOV     A,R2
        MOV     B,#0x2
        MUL     AB
        XCH     A,R2
        MOV     R0,B
        MOV     B,#0x0
        MUL     AB
        ADD     A,R0
        MOV     R0,A
        MOV     B,#0x2
        MOV     A,R3
        MUL     AB
        ADD     A,R0
        MOV     R3,A
        LCALL   ??osal_mem_alloc?relay
        MOV     ?V0 + 2,R2
        MOV     ?V0 + 3,R3
        MOV     R0,?V0 + 2
        MOV     R1,?V0 + 3
        MOV     DPTR,#matchED
        MOVX    A,@DPTR
        ADD     A,#0x35
        MOV     R2,A
        INC     DPTR
        MOVX    A,@DPTR
        ADDC    A,#0x0
        MOV     R3,A
        MOV     DPL,R2
        MOV     DPH,R3
        MOV     A,?V0 + 2
        MOVX    @DPTR,A
        INC     DPTR
        MOV     A,?V0 + 3
        MOVX    @DPTR,A
// 2118         if ( matchED->ed2Matched )
        MOV     DPTR,#matchED
        MOVX    A,@DPTR
        ADD     A,#0x35
        MOV     R0,A
        INC     DPTR
        MOVX    A,@DPTR
        ADDC    A,#0x0
        MOV     R1,A
        MOV     DPL,R0
        MOV     DPH,R1
        MOVX    A,@DPTR
        MOV     R0,A
        INC     DPTR
        MOVX    A,@DPTR
        MOV     R1,A
        MOV     A,R0
        ORL     A,R1
        JZ      ??ZDO_MatchEndDeviceBind_8
// 2119         {
// 2120           osal_memcpy( matchED->ed2Matched, ZDOBuildBuf, (matchED->ed2numMatched * sizeof ( uint16 )) );
        ; Setup parameters for call to function osal_memcpy
        MOV     ?V0 + 4,#ZDOBuildBuf & 0xff
        MOV     ?V0 + 5,#(ZDOBuildBuf >> 8) & 0xff
        MOV     ?V0 + 6,#0x0
        MOV     R0,#?V0 + 4
        LCALL   ?PUSH_XSTACK_I_THREE
        CFI CFA_XSP16 add(XSP16, 28)
        MOV     DPTR,#matchED
        MOVX    A,@DPTR
        ADD     A,#0x34
        MOV     R0,A
        INC     DPTR
        MOVX    A,@DPTR
        ADDC    A,#0x0
        MOV     R1,A
        MOV     DPL,R0
        MOV     DPH,R1
        MOVX    A,@DPTR
        MOV     R4,A
        MOV     R5,#0x0
        MOV     A,R4
        MOV     B,#0x2
        MUL     AB
        XCH     A,R4
        MOV     R0,B
        MOV     B,#0x0
        MUL     AB
        ADD     A,R0
        MOV     R0,A
        MOV     B,#0x2
        MOV     A,R5
        MUL     AB
        ADD     A,R0
        MOV     R5,A
        MOV     DPTR,#matchED
        MOVX    A,@DPTR
        ADD     A,#0x35
        MOV     R0,A
        INC     DPTR
        MOVX    A,@DPTR
        ADDC    A,#0x0
        MOV     R1,A
        MOV     DPL,R0
        MOV     DPH,R1
        MOVX    A,@DPTR
        MOV     R2,A
        INC     DPTR
        MOVX    A,@DPTR
        MOV     R3,A
        LCALL   ??osal_memcpy?relay
        MOV     A,#0x3
        LCALL   ?DEALLOC_XSTACK8
        CFI CFA_XSP16 add(XSP16, 25)
        SJMP    ??ZDO_MatchEndDeviceBind_7
// 2121         }
// 2122         else
// 2123         {
// 2124           // Allocation error, stop
// 2125           status = ZDP_NO_ENTRY;
??ZDO_MatchEndDeviceBind_8:
        MOV     DPL,?XSP + 0
        MOV     DPH,?XSP + 1
        MOV     A,#-0x78
        MOVX    @DPTR,A
// 2126           sendRsp = TRUE;
        MOV     ?V0 + 0,#0x1
// 2127         }
// 2128       }
// 2129 
// 2130       if ( (sendRsp == FALSE) && (matchED->ed1numMatched || matchED->ed2numMatched) )
??ZDO_MatchEndDeviceBind_7:
        MOV     A,?V0 + 0
        JNZ     ??ZDO_MatchEndDeviceBind_9
        MOV     DPTR,#matchED
        MOVX    A,@DPTR
        ADD     A,#0x31
        MOV     R0,A
        INC     DPTR
        MOVX    A,@DPTR
        ADDC    A,#0x0
        MOV     R1,A
        MOV     DPL,R0
        MOV     DPH,R1
        MOVX    A,@DPTR
        JNZ     ??ZDO_MatchEndDeviceBind_10
        MOV     DPTR,#matchED
        MOVX    A,@DPTR
        ADD     A,#0x34
        MOV     R0,A
        INC     DPTR
        MOVX    A,@DPTR
        ADDC    A,#0x0
        MOV     R1,A
        MOV     DPL,R0
        MOV     DPH,R1
        MOVX    A,@DPTR
        JZ      ??ZDO_MatchEndDeviceBind_9
// 2131       {
// 2132         // Do the first unbind/bind state
// 2133         ZDMatchSendState( ZDMATCH_REASON_START, ZDP_SUCCESS, 0 );
??ZDO_MatchEndDeviceBind_10:
        ; Setup parameters for call to function ZDMatchSendState
        MOV     R3,#0x0
        MOV     R2,#0x0
        MOV     R1,#0x0
        LCALL   ??ZDMatchSendState?relay
        MOV     A,R1
        SJMP    ??ZDO_MatchEndDeviceBind_3
// 2134       }
// 2135       else
// 2136       {
// 2137         status = ZDP_NO_MATCH;
??ZDO_MatchEndDeviceBind_9:
        MOV     DPL,?XSP + 0
        MOV     DPH,?XSP + 1
        MOV     A,#-0x7a
        MOVX    @DPTR,A
// 2138         sendRsp = TRUE;
        MOV     ?V0 + 0,#0x1
// 2139       }
// 2140   }
// 2141 
// 2142   if ( sendRsp )
??ZDO_MatchEndDeviceBind_3:
        MOV     A,?V0 + 0
        JNZ     $+5
        LJMP    ??ZDO_MatchEndDeviceBind_11 & 0xFFFF
// 2143   {
// 2144     // send response to this requester
// 2145     dstAddr.addrMode = Addr16Bit;
        MOV     A,#0x9
        LCALL   ?XSTACK_DISP0_8
        MOV     A,#0x2
        MOVX    @DPTR,A
// 2146     dstAddr.addr.shortAddr = bindReq->srcAddr;
        MOV     DPL,R6
        MOV     DPH,R7
        INC     DPTR
        INC     DPTR
        MOVX    A,@DPTR
        MOV     R0,A
        INC     DPTR
        MOVX    A,@DPTR
        MOV     R1,A
        MOV     A,#0x1
        LCALL   ?XSTACK_DISP0_8
        MOV     A,R0
        MOVX    @DPTR,A
        INC     DPTR
        MOV     A,R1
        MOVX    @DPTR,A
// 2147     ZDP_EndDeviceBindRsp( bindReq->TransSeq, &dstAddr, status, bindReq->SecurityUse );
        ; Setup parameters for call to function ZDP_SendData
        MOV     DPL,R6
        MOV     DPH,R7
        INC     DPTR
        MOVX    A,@DPTR
        MOV     ?V0 + 1,A
        MOV     R0,#?V0 + 1
        LCALL   ?PUSH_XSTACK_I_ONE
        CFI CFA_XSP16 add(XSP16, 26)
        MOV     A,#0x1
        LCALL   ?XSTACK_DISP0_8
        MOV     ?V0 + 2,DPL
        MOV     ?V0 + 3,DPH
        MOV     R0,#?V0 + 2
        LCALL   ?PUSH_XSTACK_I_TWO
        CFI CFA_XSP16 add(XSP16, 28)
        MOV     ?V0 + 2,#0x20
        MOV     ?V0 + 3,#-0x80
        MOV     R0,#?V0 + 2
        LCALL   ?PUSH_XSTACK_I_TWO
        CFI CFA_XSP16 add(XSP16, 30)
        MOV     R1,#0x1
        MOV     A,#0x6
        LCALL   ?XSTACK_DISP0_8
        MOV     R4,DPL
        MOV     R5,DPH
        MOV     A,R6
        MOV     R2,A
        MOV     A,R7
        MOV     R3,A
        LCALL   ??ZDP_SendData?relay
        MOV     A,#0x5
        LCALL   ?DEALLOC_XSTACK8
        CFI CFA_XSP16 add(XSP16, 25)
        MOV     A,R1
// 2148 
// 2149     if ( matchED->state == ZDMATCH_SENDING_BINDS )
        MOV     DPTR,#matchED
        MOVX    A,@DPTR
        ADD     A,#0x2e
        MOV     R0,A
        INC     DPTR
        MOVX    A,@DPTR
        ADDC    A,#0x0
        MOV     R1,A
        MOV     DPL,R0
        MOV     DPH,R1
        MOVX    A,@DPTR
        XRL     A,#0x2
        JNZ     ??ZDO_MatchEndDeviceBind_12
// 2150     {
// 2151       // send response to first requester
// 2152       dstAddr.addrMode = Addr16Bit;
        MOV     A,#0x9
        LCALL   ?XSTACK_DISP0_8
        MOV     A,#0x2
        MOVX    @DPTR,A
// 2153       dstAddr.addr.shortAddr = matchED->ed1.srcAddr;
        MOV     DPTR,#matchED
        MOVX    A,@DPTR
        MOV     R0,A
        INC     DPTR
        MOVX    A,@DPTR
        MOV     DPH,A
        MOV     DPL,R0
        INC     DPTR
        INC     DPTR
        MOVX    A,@DPTR
        MOV     R0,A
        INC     DPTR
        MOVX    A,@DPTR
        MOV     R1,A
        MOV     A,#0x1
        LCALL   ?XSTACK_DISP0_8
        MOV     A,R0
        MOVX    @DPTR,A
        INC     DPTR
        MOV     A,R1
        MOVX    @DPTR,A
// 2154       ZDP_EndDeviceBindRsp( matchED->ed1.TransSeq, &dstAddr, status, matchED->ed1.SecurityUse );
        ; Setup parameters for call to function ZDP_SendData
        MOV     DPTR,#matchED
        MOVX    A,@DPTR
        MOV     R0,A
        INC     DPTR
        MOVX    A,@DPTR
        MOV     DPH,A
        MOV     DPL,R0
        INC     DPTR
        MOVX    A,@DPTR
        MOV     ?V0 + 1,A
        MOV     R0,#?V0 + 1
        LCALL   ?PUSH_XSTACK_I_ONE
        CFI CFA_XSP16 add(XSP16, 26)
        MOV     A,#0x1
        LCALL   ?XSTACK_DISP0_8
        MOV     ?V0 + 2,DPL
        MOV     ?V0 + 3,DPH
        MOV     R0,#?V0 + 2
        LCALL   ?PUSH_XSTACK_I_TWO
        CFI CFA_XSP16 add(XSP16, 28)
        MOV     ?V0 + 2,#0x20
        MOV     ?V0 + 3,#-0x80
        MOV     R0,#?V0 + 2
        LCALL   ?PUSH_XSTACK_I_TWO
        CFI CFA_XSP16 add(XSP16, 30)
        MOV     R1,#0x1
        MOV     A,#0x6
        LCALL   ?XSTACK_DISP0_8
        MOV     R4,DPL
        MOV     R5,DPH
        MOV     DPTR,#matchED
        MOVX    A,@DPTR
        MOV     R2,A
        INC     DPTR
        MOVX    A,@DPTR
        MOV     R3,A
        LCALL   ??ZDP_SendData?relay
        MOV     A,#0x5
        LCALL   ?DEALLOC_XSTACK8
        CFI CFA_XSP16 add(XSP16, 25)
        MOV     A,R1
// 2155     }
// 2156 
// 2157     // Process ended - release memory used
// 2158     ZDO_RemoveMatchMemory();
??ZDO_MatchEndDeviceBind_12:
        ; Setup parameters for call to function ZDO_RemoveMatchMemory
        LCALL   ??ZDO_RemoveMatchMemory?relay
// 2159   }
// 2160 }
??ZDO_MatchEndDeviceBind_11:
        MOV     A,#0xa
        LCALL   ?DEALLOC_XSTACK8
        CFI CFA_XSP16 add(XSP16, 15)
        MOV     R7,#0x7
        LJMP    ?BANKED_LEAVE_XDATA
        CFI EndBlock cfiBlock31
// 2161 
// 2162 /*********************************************************************
// 2163  * @fn      ZDO_RemoveMatchMemory()
// 2164  *
// 2165  * @brief   Called to clear the memory used for the end device bind.
// 2166  *
// 2167  * @param  none
// 2168  *
// 2169  * @return  none
// 2170  */

        RSEG BANKED_CODE:CODE:NOROOT(0)
// 2171 static void ZDO_RemoveMatchMemory( void )
ZDO_RemoveMatchMemory:
        CFI Block cfiBlock32 Using cfiCommon0
        CFI Function ZDO_RemoveMatchMemory
        CODE
// 2172 {
        FUNCALL ZDO_RemoveMatchMemory, osal_mem_free
        LOCFRAME ISTACK, 2, STACK
        LOCFRAME PSTACK, 0, STACK
        LOCFRAME XSTACK, 0, STACK
        LOCFRAME IOVERLAY, 0, STATIC
        LOCFRAME DOVERLAY, 0, STATIC
        ARGFRAME ISTACK, 2, STACK
        ARGFRAME PSTACK, 0, STACK
        ARGFRAME XSTACK, 0, STACK
        ARGFRAME IOVERLAY, 0, STATIC
        ARGFRAME DOVERLAY, 0, STATIC
        FUNCALL ZDO_RemoveMatchMemory, osal_mem_free
        LOCFRAME ISTACK, 2, STACK
        LOCFRAME PSTACK, 0, STACK
        LOCFRAME XSTACK, 0, STACK
        LOCFRAME IOVERLAY, 0, STATIC
        LOCFRAME DOVERLAY, 0, STATIC
        ARGFRAME ISTACK, 2, STACK
        ARGFRAME PSTACK, 0, STACK
        ARGFRAME XSTACK, 0, STACK
        ARGFRAME IOVERLAY, 0, STATIC
        ARGFRAME DOVERLAY, 0, STATIC
        FUNCALL ZDO_RemoveMatchMemory, osal_mem_free
        LOCFRAME ISTACK, 2, STACK
        LOCFRAME PSTACK, 0, STACK
        LOCFRAME XSTACK, 0, STACK
        LOCFRAME IOVERLAY, 0, STATIC
        LOCFRAME DOVERLAY, 0, STATIC
        ARGFRAME ISTACK, 2, STACK
        ARGFRAME PSTACK, 0, STACK
        ARGFRAME XSTACK, 0, STACK
        ARGFRAME IOVERLAY, 0, STATIC
        ARGFRAME DOVERLAY, 0, STATIC
        FUNCALL ZDO_RemoveMatchMemory, osal_mem_free
        LOCFRAME ISTACK, 2, STACK
        LOCFRAME PSTACK, 0, STACK
        LOCFRAME XSTACK, 0, STACK
        LOCFRAME IOVERLAY, 0, STATIC
        LOCFRAME DOVERLAY, 0, STATIC
        ARGFRAME ISTACK, 2, STACK
        ARGFRAME PSTACK, 0, STACK
        ARGFRAME XSTACK, 0, STACK
        ARGFRAME IOVERLAY, 0, STATIC
        ARGFRAME DOVERLAY, 0, STATIC
        FUNCALL ZDO_RemoveMatchMemory, osal_mem_free
        LOCFRAME ISTACK, 2, STACK
        LOCFRAME PSTACK, 0, STACK
        LOCFRAME XSTACK, 0, STACK
        LOCFRAME IOVERLAY, 0, STATIC
        LOCFRAME DOVERLAY, 0, STATIC
        ARGFRAME ISTACK, 2, STACK
        ARGFRAME PSTACK, 0, STACK
        ARGFRAME XSTACK, 0, STACK
        ARGFRAME IOVERLAY, 0, STATIC
        ARGFRAME DOVERLAY, 0, STATIC
        FUNCALL ZDO_RemoveMatchMemory, osal_mem_free
        LOCFRAME ISTACK, 2, STACK
        LOCFRAME PSTACK, 0, STACK
        LOCFRAME XSTACK, 0, STACK
        LOCFRAME IOVERLAY, 0, STATIC
        LOCFRAME DOVERLAY, 0, STATIC
        ARGFRAME ISTACK, 2, STACK
        ARGFRAME PSTACK, 0, STACK
        ARGFRAME XSTACK, 0, STACK
        ARGFRAME IOVERLAY, 0, STATIC
        ARGFRAME DOVERLAY, 0, STATIC
        FUNCALL ZDO_RemoveMatchMemory, osal_mem_free
        LOCFRAME ISTACK, 2, STACK
        LOCFRAME PSTACK, 0, STACK
        LOCFRAME XSTACK, 0, STACK
        LOCFRAME IOVERLAY, 0, STATIC
        LOCFRAME DOVERLAY, 0, STATIC
        ARGFRAME ISTACK, 2, STACK
        ARGFRAME PSTACK, 0, STACK
        ARGFRAME XSTACK, 0, STACK
        ARGFRAME IOVERLAY, 0, STATIC
        ARGFRAME DOVERLAY, 0, STATIC
        PUSH    DPL
        CFI DPL0 Frame(CFA_SP, 4)
        CFI CFA_SP SP+-4
        PUSH    DPH
        CFI DPH0 Frame(CFA_SP, 5)
        CFI CFA_SP SP+-5
        ; Saved register size: 2
        ; Auto size: 0
// 2173   if ( matchED != NULL )
        MOV     DPTR,#matchED
        MOVX    A,@DPTR
        MOV     R0,A
        INC     DPTR
        MOVX    A,@DPTR
        MOV     R1,A
        MOV     A,R0
        ORL     A,R1
        JNZ     $+5
        LJMP    ??ZDO_RemoveMatchMemory_0 & 0xFFFF
// 2174   {
// 2175     if ( matchED->ed2Matched != NULL )
        MOV     DPTR,#matchED
        MOVX    A,@DPTR
        ADD     A,#0x35
        MOV     R0,A
        INC     DPTR
        MOVX    A,@DPTR
        ADDC    A,#0x0
        MOV     R1,A
        MOV     DPL,R0
        MOV     DPH,R1
        MOVX    A,@DPTR
        MOV     R0,A
        INC     DPTR
        MOVX    A,@DPTR
        MOV     R1,A
        MOV     A,R0
        ORL     A,R1
        JZ      ??ZDO_RemoveMatchMemory_1
// 2176     {
// 2177       osal_mem_free( matchED->ed2Matched );
        ; Setup parameters for call to function osal_mem_free
        MOV     DPTR,#matchED
        MOVX    A,@DPTR
        ADD     A,#0x35
        MOV     R0,A
        INC     DPTR
        MOVX    A,@DPTR
        ADDC    A,#0x0
        MOV     R1,A
        MOV     DPL,R0
        MOV     DPH,R1
        MOVX    A,@DPTR
        MOV     R2,A
        INC     DPTR
        MOVX    A,@DPTR
        MOV     R3,A
        LCALL   ??osal_mem_free?relay
// 2178     }
// 2179     if ( matchED->ed1Matched != NULL )
??ZDO_RemoveMatchMemory_1:
        MOV     DPTR,#matchED
        MOVX    A,@DPTR
        ADD     A,#0x32
        MOV     R0,A
        INC     DPTR
        MOVX    A,@DPTR
        ADDC    A,#0x0
        MOV     R1,A
        MOV     DPL,R0
        MOV     DPH,R1
        MOVX    A,@DPTR
        MOV     R0,A
        INC     DPTR
        MOVX    A,@DPTR
        MOV     R1,A
        MOV     A,R0
        ORL     A,R1
        JZ      ??ZDO_RemoveMatchMemory_2
// 2180     {
// 2181       osal_mem_free( matchED->ed1Matched );
        ; Setup parameters for call to function osal_mem_free
        MOV     DPTR,#matchED
        MOVX    A,@DPTR
        ADD     A,#0x32
        MOV     R0,A
        INC     DPTR
        MOVX    A,@DPTR
        ADDC    A,#0x0
        MOV     R1,A
        MOV     DPL,R0
        MOV     DPH,R1
        MOVX    A,@DPTR
        MOV     R2,A
        INC     DPTR
        MOVX    A,@DPTR
        MOV     R3,A
        LCALL   ??osal_mem_free?relay
// 2182     }
// 2183     if ( matchED->ed1.inClusters != NULL )
??ZDO_RemoveMatchMemory_2:
        MOV     DPTR,#matchED
        MOVX    A,@DPTR
        ADD     A,#0x12
        MOV     R0,A
        INC     DPTR
        MOVX    A,@DPTR
        ADDC    A,#0x0
        MOV     R1,A
        MOV     DPL,R0
        MOV     DPH,R1
        MOVX    A,@DPTR
        MOV     R0,A
        INC     DPTR
        MOVX    A,@DPTR
        MOV     R1,A
        MOV     A,R0
        ORL     A,R1
        JZ      ??ZDO_RemoveMatchMemory_3
// 2184     {
// 2185       osal_mem_free( matchED->ed1.inClusters );
        ; Setup parameters for call to function osal_mem_free
        MOV     DPTR,#matchED
        MOVX    A,@DPTR
        ADD     A,#0x12
        MOV     R0,A
        INC     DPTR
        MOVX    A,@DPTR
        ADDC    A,#0x0
        MOV     R1,A
        MOV     DPL,R0
        MOV     DPH,R1
        MOVX    A,@DPTR
        MOV     R2,A
        INC     DPTR
        MOVX    A,@DPTR
        MOV     R3,A
        LCALL   ??osal_mem_free?relay
// 2186     }
// 2187     if ( matchED->ed1.outClusters != NULL )
??ZDO_RemoveMatchMemory_3:
        MOV     DPTR,#matchED
        MOVX    A,@DPTR
        ADD     A,#0x15
        MOV     R0,A
        INC     DPTR
        MOVX    A,@DPTR
        ADDC    A,#0x0
        MOV     R1,A
        MOV     DPL,R0
        MOV     DPH,R1
        MOVX    A,@DPTR
        MOV     R0,A
        INC     DPTR
        MOVX    A,@DPTR
        MOV     R1,A
        MOV     A,R0
        ORL     A,R1
        JZ      ??ZDO_RemoveMatchMemory_4
// 2188     {
// 2189       osal_mem_free( matchED->ed1.outClusters );
        ; Setup parameters for call to function osal_mem_free
        MOV     DPTR,#matchED
        MOVX    A,@DPTR
        ADD     A,#0x15
        MOV     R0,A
        INC     DPTR
        MOVX    A,@DPTR
        ADDC    A,#0x0
        MOV     R1,A
        MOV     DPL,R0
        MOV     DPH,R1
        MOVX    A,@DPTR
        MOV     R2,A
        INC     DPTR
        MOVX    A,@DPTR
        MOV     R3,A
        LCALL   ??osal_mem_free?relay
// 2190     }
// 2191     if ( matchED->ed2.inClusters != NULL )
??ZDO_RemoveMatchMemory_4:
        MOV     DPTR,#matchED
        MOVX    A,@DPTR
        ADD     A,#0x29
        MOV     R0,A
        INC     DPTR
        MOVX    A,@DPTR
        ADDC    A,#0x0
        MOV     R1,A
        MOV     DPL,R0
        MOV     DPH,R1
        MOVX    A,@DPTR
        MOV     R0,A
        INC     DPTR
        MOVX    A,@DPTR
        MOV     R1,A
        MOV     A,R0
        ORL     A,R1
        JZ      ??ZDO_RemoveMatchMemory_5
// 2192     {
// 2193       osal_mem_free( matchED->ed2.inClusters );
        ; Setup parameters for call to function osal_mem_free
        MOV     DPTR,#matchED
        MOVX    A,@DPTR
        ADD     A,#0x29
        MOV     R0,A
        INC     DPTR
        MOVX    A,@DPTR
        ADDC    A,#0x0
        MOV     R1,A
        MOV     DPL,R0
        MOV     DPH,R1
        MOVX    A,@DPTR
        MOV     R2,A
        INC     DPTR
        MOVX    A,@DPTR
        MOV     R3,A
        LCALL   ??osal_mem_free?relay
// 2194     }
// 2195     if ( matchED->ed2.outClusters != NULL )
??ZDO_RemoveMatchMemory_5:
        MOV     DPTR,#matchED
        MOVX    A,@DPTR
        ADD     A,#0x2c
        MOV     R0,A
        INC     DPTR
        MOVX    A,@DPTR
        ADDC    A,#0x0
        MOV     R1,A
        MOV     DPL,R0
        MOV     DPH,R1
        MOVX    A,@DPTR
        MOV     R0,A
        INC     DPTR
        MOVX    A,@DPTR
        MOV     R1,A
        MOV     A,R0
        ORL     A,R1
        JZ      ??ZDO_RemoveMatchMemory_6
// 2196     {
// 2197       osal_mem_free( matchED->ed2.outClusters );
        ; Setup parameters for call to function osal_mem_free
        MOV     DPTR,#matchED
        MOVX    A,@DPTR
        ADD     A,#0x2c
        MOV     R0,A
        INC     DPTR
        MOVX    A,@DPTR
        ADDC    A,#0x0
        MOV     R1,A
        MOV     DPL,R0
        MOV     DPH,R1
        MOVX    A,@DPTR
        MOV     R2,A
        INC     DPTR
        MOVX    A,@DPTR
        MOV     R3,A
        LCALL   ??osal_mem_free?relay
// 2198     }
// 2199 
// 2200     osal_mem_free( matchED );
??ZDO_RemoveMatchMemory_6:
        ; Setup parameters for call to function osal_mem_free
        MOV     DPTR,#matchED
        MOVX    A,@DPTR
        MOV     R2,A
        INC     DPTR
        MOVX    A,@DPTR
        MOV     R3,A
        LCALL   ??osal_mem_free?relay
// 2201     matchED = (ZDMatchEndDeviceBind_t *)NULL;
        MOV     DPTR,#matchED
        MOV     A,#0x0
        MOVX    @DPTR,A
        INC     DPTR
        MOV     A,#0x0
        MOVX    @DPTR,A
// 2202   }
// 2203 }
??ZDO_RemoveMatchMemory_0:
        POP     DPH
        CFI DPH0 SameValue
        CFI CFA_SP SP+-4
        POP     DPL
        CFI DPL0 SameValue
        CFI CFA_SP SP+-3
        LJMP    ?BRET
        CFI EndBlock cfiBlock32
// 2204 
// 2205 /*********************************************************************
// 2206  * @fn      ZDO_CopyMatchInfo()
// 2207  *
// 2208  * @brief   Called to copy memory used for the end device bind.
// 2209  *
// 2210  * @param  srcReq - source information
// 2211  * @param  dstReq - destination location
// 2212  *
// 2213  * @return  TRUE if copy was successful.
// 2214  */

        RSEG BANKED_CODE:CODE:NOROOT(0)
// 2215 static uint8 ZDO_CopyMatchInfo( ZDEndDeviceBind_t *destReq, ZDEndDeviceBind_t *srcReq )
ZDO_CopyMatchInfo:
        CFI Block cfiBlock33 Using cfiCommon0
        CFI Function ZDO_CopyMatchInfo
        CODE
// 2216 {
        FUNCALL ZDO_CopyMatchInfo, osal_memcpy
        LOCFRAME ISTACK, 0, STACK
        LOCFRAME PSTACK, 0, STACK
        LOCFRAME XSTACK, 18, STACK
        LOCFRAME IOVERLAY, 0, STATIC
        LOCFRAME DOVERLAY, 0, STATIC
        ARGFRAME ISTACK, 0, STACK
        ARGFRAME PSTACK, 0, STACK
        ARGFRAME XSTACK, 18, STACK
        ARGFRAME IOVERLAY, 0, STATIC
        ARGFRAME DOVERLAY, 0, STATIC
        FUNCALL ZDO_CopyMatchInfo, osal_mem_alloc
        LOCFRAME ISTACK, 0, STACK
        LOCFRAME PSTACK, 0, STACK
        LOCFRAME XSTACK, 15, STACK
        LOCFRAME IOVERLAY, 0, STATIC
        LOCFRAME DOVERLAY, 0, STATIC
        ARGFRAME ISTACK, 0, STACK
        ARGFRAME PSTACK, 0, STACK
        ARGFRAME XSTACK, 15, STACK
        ARGFRAME IOVERLAY, 0, STATIC
        ARGFRAME DOVERLAY, 0, STATIC
        FUNCALL ZDO_CopyMatchInfo, osal_memcpy
        LOCFRAME ISTACK, 0, STACK
        LOCFRAME PSTACK, 0, STACK
        LOCFRAME XSTACK, 18, STACK
        LOCFRAME IOVERLAY, 0, STATIC
        LOCFRAME DOVERLAY, 0, STATIC
        ARGFRAME ISTACK, 0, STACK
        ARGFRAME PSTACK, 0, STACK
        ARGFRAME XSTACK, 18, STACK
        ARGFRAME IOVERLAY, 0, STATIC
        ARGFRAME DOVERLAY, 0, STATIC
        FUNCALL ZDO_CopyMatchInfo, osal_mem_alloc
        LOCFRAME ISTACK, 0, STACK
        LOCFRAME PSTACK, 0, STACK
        LOCFRAME XSTACK, 15, STACK
        LOCFRAME IOVERLAY, 0, STATIC
        LOCFRAME DOVERLAY, 0, STATIC
        ARGFRAME ISTACK, 0, STACK
        ARGFRAME PSTACK, 0, STACK
        ARGFRAME XSTACK, 15, STACK
        ARGFRAME IOVERLAY, 0, STATIC
        ARGFRAME DOVERLAY, 0, STATIC
        FUNCALL ZDO_CopyMatchInfo, osal_memcpy
        LOCFRAME ISTACK, 0, STACK
        LOCFRAME PSTACK, 0, STACK
        LOCFRAME XSTACK, 18, STACK
        LOCFRAME IOVERLAY, 0, STATIC
        LOCFRAME DOVERLAY, 0, STATIC
        ARGFRAME ISTACK, 0, STACK
        ARGFRAME PSTACK, 0, STACK
        ARGFRAME XSTACK, 18, STACK
        ARGFRAME IOVERLAY, 0, STATIC
        ARGFRAME DOVERLAY, 0, STATIC
        FUNCALL ZDO_CopyMatchInfo, osal_mem_free
        LOCFRAME ISTACK, 0, STACK
        LOCFRAME PSTACK, 0, STACK
        LOCFRAME XSTACK, 15, STACK
        LOCFRAME IOVERLAY, 0, STATIC
        LOCFRAME DOVERLAY, 0, STATIC
        ARGFRAME ISTACK, 0, STACK
        ARGFRAME PSTACK, 0, STACK
        ARGFRAME XSTACK, 15, STACK
        ARGFRAME IOVERLAY, 0, STATIC
        ARGFRAME DOVERLAY, 0, STATIC
        FUNCALL ZDO_CopyMatchInfo, osal_mem_free
        LOCFRAME ISTACK, 0, STACK
        LOCFRAME PSTACK, 0, STACK
        LOCFRAME XSTACK, 15, STACK
        LOCFRAME IOVERLAY, 0, STATIC
        LOCFRAME DOVERLAY, 0, STATIC
        ARGFRAME ISTACK, 0, STACK
        ARGFRAME PSTACK, 0, STACK
        ARGFRAME XSTACK, 15, STACK
        ARGFRAME IOVERLAY, 0, STATIC
        ARGFRAME DOVERLAY, 0, STATIC
        MOV     A,#-0xf
        LCALL   ?BANKED_ENTER_XDATA
        CFI DPH0 load(1, XDATA, add(CFA_XSP16, literal(-1)))
        CFI DPL0 load(1, XDATA, add(CFA_XSP16, literal(-2)))
        CFI ?BRET_EXT load(1, XDATA, add(CFA_XSP16, literal(-3)))
        CFI ?RET_HIGH load(1, XDATA, add(CFA_XSP16, literal(-4)))
        CFI ?RET_LOW load(1, XDATA, add(CFA_XSP16, literal(-5)))
        CFI R7 load(1, XDATA, add(CFA_XSP16, literal(-6)))
        CFI V6 load(1, XDATA, add(CFA_XSP16, literal(-7)))
        CFI V5 load(1, XDATA, add(CFA_XSP16, literal(-8)))
        CFI V4 load(1, XDATA, add(CFA_XSP16, literal(-9)))
        CFI V3 load(1, XDATA, add(CFA_XSP16, literal(-10)))
        CFI V2 load(1, XDATA, add(CFA_XSP16, literal(-11)))
        CFI V1 load(1, XDATA, add(CFA_XSP16, literal(-12)))
        CFI V0 load(1, XDATA, add(CFA_XSP16, literal(-13)))
        CFI VB load(1, XDATA, add(CFA_XSP16, literal(-14)))
        CFI R6 load(1, XDATA, add(CFA_XSP16, literal(-15)))
        CFI CFA_SP SP+0
        CFI CFA_XSP16 add(XSP16, 15)
        ; Saved register size: 15
        ; Auto size: 0
        MOV     A,R2
        MOV     R6,A
        MOV     A,R3
        MOV     R7,A
        MOV     ?V0 + 0,R4
        MOV     ?V0 + 1,R5
// 2217   uint8 allOK = TRUE;
        MOV     ?V0 + 2,#0x1
// 2218 
// 2219   // Copy bind information into the match info structure
// 2220   osal_memcpy( (uint8 *)destReq, srcReq, sizeof ( ZDEndDeviceBind_t ) );
        ; Setup parameters for call to function osal_memcpy
        MOV     ?V0 + 4,?V0 + 0
        MOV     ?V0 + 5,?V0 + 1
        MOV     ?V0 + 6,#0x0
        MOV     R0,#?V0 + 4
        LCALL   ?PUSH_XSTACK_I_THREE
        CFI CFA_XSP16 add(XSP16, 18)
        MOV     R4,#0x17
        MOV     R5,#0x0
        MOV     A,R6
        MOV     R2,A
        MOV     A,R7
        MOV     R3,A
        LCALL   ??osal_memcpy?relay
        MOV     A,#0x3
        LCALL   ?DEALLOC_XSTACK8
        CFI CFA_XSP16 add(XSP16, 15)
// 2221 
// 2222   // Initialize the destination cluster pointers
// 2223   destReq->inClusters = NULL;
        MOV     A,R6
        ADD     A,#0x12
        MOV     DPL,A
        MOV     A,R7
        ADDC    A,#0x0
        MOV     DPH,A
        MOV     A,#0x0
        MOVX    @DPTR,A
        INC     DPTR
        MOV     A,#0x0
        MOVX    @DPTR,A
// 2224   destReq->outClusters = NULL;
        MOV     A,R6
        ADD     A,#0x15
        MOV     DPL,A
        MOV     A,R7
        ADDC    A,#0x0
        MOV     DPH,A
        MOV     A,#0x0
        MOVX    @DPTR,A
        INC     DPTR
        MOV     A,#0x0
        MOVX    @DPTR,A
// 2225 
// 2226   // Copy input cluster IDs
// 2227   if ( srcReq->numInClusters )
        MOV     A,?V0 + 0
        ADD     A,#0x11
        MOV     DPL,A
        MOV     A,?V0 + 1
        ADDC    A,#0x0
        MOV     DPH,A
        MOVX    A,@DPTR
        JNZ     $+5
        LJMP    ??ZDO_CopyMatchInfo_0 & 0xFFFF
// 2228   {
// 2229     destReq->inClusters = osal_mem_alloc( (short)(srcReq->numInClusters * sizeof ( uint16 )) );
        ; Setup parameters for call to function osal_mem_alloc
        MOV     A,?V0 + 0
        ADD     A,#0x11
        MOV     DPL,A
        MOV     A,?V0 + 1
        ADDC    A,#0x0
        MOV     DPH,A
        MOVX    A,@DPTR
        MOV     R2,A
        MOV     R3,#0x0
        MOV     A,R2
        MOV     B,#0x2
        MUL     AB
        XCH     A,R2
        MOV     R0,B
        MOV     B,#0x0
        MUL     AB
        ADD     A,R0
        MOV     R0,A
        MOV     B,#0x2
        MOV     A,R3
        MUL     AB
        ADD     A,R0
        MOV     R3,A
        LCALL   ??osal_mem_alloc?relay
        MOV     A,R6
        ADD     A,#0x12
        MOV     DPL,A
        MOV     A,R7
        ADDC    A,#0x0
        MOV     DPH,A
        MOV     A,R2
        MOVX    @DPTR,A
        INC     DPTR
        MOV     A,R3
        MOVX    @DPTR,A
// 2230     if ( destReq->inClusters )
        MOV     A,R6
        ADD     A,#0x12
        MOV     DPL,A
        MOV     A,R7
        ADDC    A,#0x0
        MOV     DPH,A
        MOVX    A,@DPTR
        MOV     R0,A
        INC     DPTR
        MOVX    A,@DPTR
        MOV     R1,A
        MOV     A,R0
        ORL     A,R1
        JZ      ??ZDO_CopyMatchInfo_1
// 2231     {
// 2232       // Copy the clusters
// 2233       osal_memcpy( (uint8*)(destReq->inClusters), (uint8 *)(srcReq->inClusters),
// 2234                       (srcReq->numInClusters * sizeof ( uint16 )) );
        ; Setup parameters for call to function osal_memcpy
        MOV     A,?V0 + 0
        ADD     A,#0x12
        MOV     DPL,A
        MOV     A,?V0 + 1
        ADDC    A,#0x0
        MOV     DPH,A
        MOVX    A,@DPTR
        MOV     ?V0 + 4,A
        INC     DPTR
        MOVX    A,@DPTR
        MOV     ?V0 + 5,A
        MOV     ?V0 + 6,#0x0
        MOV     R0,#?V0 + 4
        LCALL   ?PUSH_XSTACK_I_THREE
        CFI CFA_XSP16 add(XSP16, 18)
        MOV     A,?V0 + 0
        ADD     A,#0x11
        MOV     DPL,A
        MOV     A,?V0 + 1
        ADDC    A,#0x0
        MOV     DPH,A
        MOVX    A,@DPTR
        MOV     R4,A
        MOV     R5,#0x0
        MOV     A,R4
        MOV     B,#0x2
        MUL     AB
        XCH     A,R4
        MOV     R0,B
        MOV     B,#0x0
        MUL     AB
        ADD     A,R0
        MOV     R0,A
        MOV     B,#0x2
        MOV     A,R5
        MUL     AB
        ADD     A,R0
        MOV     R5,A
        MOV     A,R6
        ADD     A,#0x12
        MOV     DPL,A
        MOV     A,R7
        ADDC    A,#0x0
        MOV     DPH,A
        MOVX    A,@DPTR
        MOV     R2,A
        INC     DPTR
        MOVX    A,@DPTR
        MOV     R3,A
        LCALL   ??osal_memcpy?relay
        MOV     A,#0x3
        LCALL   ?DEALLOC_XSTACK8
        CFI CFA_XSP16 add(XSP16, 15)
        SJMP    ??ZDO_CopyMatchInfo_0
// 2235     }
// 2236     else
// 2237     {
// 2238       allOK = FALSE;
??ZDO_CopyMatchInfo_1:
        MOV     ?V0 + 2,#0x0
// 2239     }
// 2240   }
// 2241 
// 2242   // Copy output cluster IDs
// 2243   if ( srcReq->numOutClusters )
??ZDO_CopyMatchInfo_0:
        MOV     A,?V0 + 0
        ADD     A,#0x14
        MOV     DPL,A
        MOV     A,?V0 + 1
        ADDC    A,#0x0
        MOV     DPH,A
        MOVX    A,@DPTR
        JNZ     $+5
        LJMP    ??ZDO_CopyMatchInfo_2 & 0xFFFF
// 2244   {
// 2245     destReq->outClusters = osal_mem_alloc( (short)(srcReq->numOutClusters * sizeof ( uint16 )) );
        ; Setup parameters for call to function osal_mem_alloc
        MOV     A,?V0 + 0
        ADD     A,#0x14
        MOV     DPL,A
        MOV     A,?V0 + 1
        ADDC    A,#0x0
        MOV     DPH,A
        MOVX    A,@DPTR
        MOV     R2,A
        MOV     R3,#0x0
        MOV     A,R2
        MOV     B,#0x2
        MUL     AB
        XCH     A,R2
        MOV     R0,B
        MOV     B,#0x0
        MUL     AB
        ADD     A,R0
        MOV     R0,A
        MOV     B,#0x2
        MOV     A,R3
        MUL     AB
        ADD     A,R0
        MOV     R3,A
        LCALL   ??osal_mem_alloc?relay
        MOV     A,R6
        ADD     A,#0x15
        MOV     DPL,A
        MOV     A,R7
        ADDC    A,#0x0
        MOV     DPH,A
        MOV     A,R2
        MOVX    @DPTR,A
        INC     DPTR
        MOV     A,R3
        MOVX    @DPTR,A
// 2246     if ( destReq->outClusters )
        MOV     A,R6
        ADD     A,#0x15
        MOV     DPL,A
        MOV     A,R7
        ADDC    A,#0x0
        MOV     DPH,A
        MOVX    A,@DPTR
        MOV     R0,A
        INC     DPTR
        MOVX    A,@DPTR
        MOV     R1,A
        MOV     A,R0
        ORL     A,R1
        JZ      ??ZDO_CopyMatchInfo_3
// 2247     {
// 2248       // Copy the clusters
// 2249       osal_memcpy( (uint8 *)(destReq->outClusters), (uint8 *)(srcReq->outClusters),
// 2250                       (srcReq->numOutClusters * sizeof ( uint16 )) );
        ; Setup parameters for call to function osal_memcpy
        MOV     A,?V0 + 0
        ADD     A,#0x15
        MOV     DPL,A
        MOV     A,?V0 + 1
        ADDC    A,#0x0
        MOV     DPH,A
        MOVX    A,@DPTR
        MOV     ?V0 + 4,A
        INC     DPTR
        MOVX    A,@DPTR
        MOV     ?V0 + 5,A
        MOV     ?V0 + 6,#0x0
        MOV     R0,#?V0 + 4
        LCALL   ?PUSH_XSTACK_I_THREE
        CFI CFA_XSP16 add(XSP16, 18)
        MOV     A,?V0 + 0
        ADD     A,#0x14
        MOV     DPL,A
        MOV     A,?V0 + 1
        ADDC    A,#0x0
        MOV     DPH,A
        MOVX    A,@DPTR
        MOV     R4,A
        MOV     R5,#0x0
        MOV     A,R4
        MOV     B,#0x2
        MUL     AB
        XCH     A,R4
        MOV     R0,B
        MOV     B,#0x0
        MUL     AB
        ADD     A,R0
        MOV     R0,A
        MOV     B,#0x2
        MOV     A,R5
        MUL     AB
        ADD     A,R0
        MOV     R5,A
        MOV     A,R6
        ADD     A,#0x15
        MOV     DPL,A
        MOV     A,R7
        ADDC    A,#0x0
        MOV     DPH,A
        MOVX    A,@DPTR
        MOV     R2,A
        INC     DPTR
        MOVX    A,@DPTR
        MOV     R3,A
        LCALL   ??osal_memcpy?relay
        MOV     A,#0x3
        LCALL   ?DEALLOC_XSTACK8
        CFI CFA_XSP16 add(XSP16, 15)
        SJMP    ??ZDO_CopyMatchInfo_2
// 2251     }
// 2252     else
// 2253     {
// 2254       allOK = FALSE;
??ZDO_CopyMatchInfo_3:
        MOV     ?V0 + 2,#0x0
// 2255     }
// 2256   }
// 2257 
// 2258   if ( allOK == FALSE )
??ZDO_CopyMatchInfo_2:
        MOV     A,?V0 + 2
        JNZ     ??ZDO_CopyMatchInfo_4
// 2259   {
// 2260     if ( destReq->inClusters != NULL )
        MOV     A,R6
        ADD     A,#0x12
        MOV     DPL,A
        MOV     A,R7
        ADDC    A,#0x0
        MOV     DPH,A
        MOVX    A,@DPTR
        MOV     R0,A
        INC     DPTR
        MOVX    A,@DPTR
        MOV     R1,A
        MOV     A,R0
        ORL     A,R1
        JZ      ??ZDO_CopyMatchInfo_5
// 2261     {
// 2262       osal_mem_free( destReq->inClusters );
        ; Setup parameters for call to function osal_mem_free
        MOV     A,R6
        ADD     A,#0x12
        MOV     DPL,A
        MOV     A,R7
        ADDC    A,#0x0
        MOV     DPH,A
        MOVX    A,@DPTR
        MOV     R2,A
        INC     DPTR
        MOVX    A,@DPTR
        MOV     R3,A
        LCALL   ??osal_mem_free?relay
// 2263     }
// 2264     if ( destReq->outClusters != NULL )
??ZDO_CopyMatchInfo_5:
        MOV     A,R6
        ADD     A,#0x15
        MOV     DPL,A
        MOV     A,R7
        ADDC    A,#0x0
        MOV     DPH,A
        MOVX    A,@DPTR
        MOV     R0,A
        INC     DPTR
        MOVX    A,@DPTR
        MOV     R1,A
        MOV     A,R0
        ORL     A,R1
        JZ      ??ZDO_CopyMatchInfo_4
// 2265     {
// 2266       osal_mem_free( destReq->outClusters );
        ; Setup parameters for call to function osal_mem_free
        MOV     A,R6
        ADD     A,#0x15
        MOV     DPL,A
        MOV     A,R7
        ADDC    A,#0x0
        MOV     DPH,A
        MOVX    A,@DPTR
        MOV     R2,A
        INC     DPTR
        MOVX    A,@DPTR
        MOV     R3,A
        LCALL   ??osal_mem_free?relay
// 2267     }
// 2268   }
// 2269 
// 2270   return ( allOK );
??ZDO_CopyMatchInfo_4:
        MOV     R1,?V0 + 2
        MOV     R7,#0x7
        LJMP    ?BANKED_LEAVE_XDATA
        CFI EndBlock cfiBlock33
// 2271 }
// 2272 
// 2273 /*********************************************************************
// 2274  * @fn      ZDMatchSendState()
// 2275  *
// 2276  * @brief   State machine for the End device match message algorithm.
// 2277  *
// 2278  * @param  reason - state of algoritm
// 2279  * @param  status - initial message status
// 2280  * @param  TransSeq - next transaction sequence number
// 2281  *
// 2282  * @return  FALSE if error and we are not currently matching, TRUE
// 2283  *          if success.
// 2284  */

        RSEG BANKED_CODE:CODE:NOROOT(0)
// 2285 uint8 ZDMatchSendState( uint8 reason, uint8 status, uint8 TransSeq )
ZDMatchSendState:
        CFI Block cfiBlock34 Using cfiCommon0
        CFI Function ZDMatchSendState
        CODE
// 2286 {
        FUNCALL ZDMatchSendState, APS_SetEndDeviceBindTimeout
        LOCFRAME ISTACK, 0, STACK
        LOCFRAME PSTACK, 0, STACK
        LOCFRAME XSTACK, 39, STACK
        LOCFRAME IOVERLAY, 0, STATIC
        LOCFRAME DOVERLAY, 0, STATIC
        ARGFRAME ISTACK, 0, STACK
        ARGFRAME PSTACK, 0, STACK
        ARGFRAME XSTACK, 39, STACK
        ARGFRAME IOVERLAY, 0, STATIC
        ARGFRAME DOVERLAY, 0, STATIC
        FUNCALL ZDMatchSendState, sAddrExtCpy
        LOCFRAME ISTACK, 0, STACK
        LOCFRAME PSTACK, 0, STACK
        LOCFRAME XSTACK, 39, STACK
        LOCFRAME IOVERLAY, 0, STATIC
        LOCFRAME DOVERLAY, 0, STATIC
        ARGFRAME ISTACK, 0, STACK
        ARGFRAME PSTACK, 0, STACK
        ARGFRAME XSTACK, 39, STACK
        ARGFRAME IOVERLAY, 0, STATIC
        ARGFRAME DOVERLAY, 0, STATIC
        FUNCALL ZDMatchSendState, ZDP_BindUnbindReq
        LOCFRAME ISTACK, 0, STACK
        LOCFRAME PSTACK, 0, STACK
        LOCFRAME XSTACK, 47, STACK
        LOCFRAME IOVERLAY, 0, STATIC
        LOCFRAME DOVERLAY, 0, STATIC
        ARGFRAME ISTACK, 0, STACK
        ARGFRAME PSTACK, 0, STACK
        ARGFRAME XSTACK, 47, STACK
        ARGFRAME IOVERLAY, 0, STATIC
        ARGFRAME DOVERLAY, 0, STATIC
        FUNCALL ZDMatchSendState, APS_SetEndDeviceBindTimeout
        LOCFRAME ISTACK, 0, STACK
        LOCFRAME PSTACK, 0, STACK
        LOCFRAME XSTACK, 39, STACK
        LOCFRAME IOVERLAY, 0, STATIC
        LOCFRAME DOVERLAY, 0, STATIC
        ARGFRAME ISTACK, 0, STACK
        ARGFRAME PSTACK, 0, STACK
        ARGFRAME XSTACK, 39, STACK
        ARGFRAME IOVERLAY, 0, STATIC
        ARGFRAME DOVERLAY, 0, STATIC
        FUNCALL ZDMatchSendState, ZDP_SendData
        LOCFRAME ISTACK, 0, STACK
        LOCFRAME PSTACK, 0, STACK
        LOCFRAME XSTACK, 44, STACK
        LOCFRAME IOVERLAY, 0, STATIC
        LOCFRAME DOVERLAY, 0, STATIC
        ARGFRAME ISTACK, 0, STACK
        ARGFRAME PSTACK, 0, STACK
        ARGFRAME XSTACK, 44, STACK
        ARGFRAME IOVERLAY, 0, STATIC
        ARGFRAME DOVERLAY, 0, STATIC
        FUNCALL ZDMatchSendState, ZDP_SendData
        LOCFRAME ISTACK, 0, STACK
        LOCFRAME PSTACK, 0, STACK
        LOCFRAME XSTACK, 44, STACK
        LOCFRAME IOVERLAY, 0, STATIC
        LOCFRAME DOVERLAY, 0, STATIC
        ARGFRAME ISTACK, 0, STACK
        ARGFRAME PSTACK, 0, STACK
        ARGFRAME XSTACK, 44, STACK
        ARGFRAME IOVERLAY, 0, STATIC
        ARGFRAME DOVERLAY, 0, STATIC
        FUNCALL ZDMatchSendState, ZDO_RemoveMatchMemory
        LOCFRAME ISTACK, 0, STACK
        LOCFRAME PSTACK, 0, STACK
        LOCFRAME XSTACK, 39, STACK
        LOCFRAME IOVERLAY, 0, STATIC
        LOCFRAME DOVERLAY, 0, STATIC
        ARGFRAME ISTACK, 0, STACK
        ARGFRAME PSTACK, 0, STACK
        ARGFRAME XSTACK, 39, STACK
        ARGFRAME IOVERLAY, 0, STATIC
        ARGFRAME DOVERLAY, 0, STATIC
        MOV     A,#-0x14
        LCALL   ?BANKED_ENTER_XDATA
        CFI DPH0 load(1, XDATA, add(CFA_XSP16, literal(-1)))
        CFI DPL0 load(1, XDATA, add(CFA_XSP16, literal(-2)))
        CFI ?BRET_EXT load(1, XDATA, add(CFA_XSP16, literal(-3)))
        CFI ?RET_HIGH load(1, XDATA, add(CFA_XSP16, literal(-4)))
        CFI ?RET_LOW load(1, XDATA, add(CFA_XSP16, literal(-5)))
        CFI R7 load(1, XDATA, add(CFA_XSP16, literal(-6)))
        CFI V11 load(1, XDATA, add(CFA_XSP16, literal(-7)))
        CFI V10 load(1, XDATA, add(CFA_XSP16, literal(-8)))
        CFI V9 load(1, XDATA, add(CFA_XSP16, literal(-9)))
        CFI V8 load(1, XDATA, add(CFA_XSP16, literal(-10)))
        CFI V7 load(1, XDATA, add(CFA_XSP16, literal(-11)))
        CFI V6 load(1, XDATA, add(CFA_XSP16, literal(-12)))
        CFI V5 load(1, XDATA, add(CFA_XSP16, literal(-13)))
        CFI V4 load(1, XDATA, add(CFA_XSP16, literal(-14)))
        CFI V3 load(1, XDATA, add(CFA_XSP16, literal(-15)))
        CFI V2 load(1, XDATA, add(CFA_XSP16, literal(-16)))
        CFI V1 load(1, XDATA, add(CFA_XSP16, literal(-17)))
        CFI V0 load(1, XDATA, add(CFA_XSP16, literal(-18)))
        CFI VB load(1, XDATA, add(CFA_XSP16, literal(-19)))
        CFI R6 load(1, XDATA, add(CFA_XSP16, literal(-20)))
        CFI CFA_SP SP+0
        CFI CFA_XSP16 add(XSP16, 20)
        ; Saved register size: 20
        ; Auto size: 19
        MOV     A,#-0x13
        LCALL   ?ALLOC_XSTACK8
        CFI CFA_XSP16 add(XSP16, 39)
        MOV     ?V0 + 2,R1
        MOV     ?V0 + 6,R2
        MOV     ?V0 + 7,R3
// 2287   uint8 *dstIEEEAddr = NULL;
        MOV     ?V0 + 8,#0x0
        MOV     ?V0 + 9,#0x0
// 2288   uint8 dstEP = 0xFF;
        MOV     ?V0 + 3,#-0x1
// 2289   zAddrType_t dstAddr;
// 2290   zAddrType_t destinationAddr;
// 2291   uint16 msgType;
// 2292   uint16 clusterID = 0xFFFF;
        MOV     R6,#-0x1
        MOV     R7,#-0x1
// 2293   ZDEndDeviceBind_t *ed = NULL;
        MOV     ?V0 + 4,#0x0
        MOV     ?V0 + 5,#0x0
// 2294   uint8 rspStatus = ZDP_SUCCESS;
        MOV     DPL,?XSP + 0
        MOV     DPH,?XSP + 1
        MOV     A,#0x0
        MOVX    @DPTR,A
// 2295 
// 2296   if ( matchED == NULL )
        MOV     DPTR,#matchED
        MOVX    A,@DPTR
        MOV     R0,A
        INC     DPTR
        MOVX    A,@DPTR
        MOV     R1,A
        MOV     A,R0
        ORL     A,R1
        JNZ     ??ZDMatchSendState_0
// 2297   {
// 2298     return ( FALSE );
        MOV     R1,#0x0
        LJMP    ??ZDMatchSendState_1 & 0xFFFF
// 2299   }
// 2300 
// 2301   // Check sequence number
// 2302   if ( reason == ZDMATCH_REASON_BIND_RSP || reason == ZDMATCH_REASON_UNBIND_RSP )
??ZDMatchSendState_0:
        MOV     A,#0x3
        XRL     A,?V0 + 2
        JZ      ??ZDMatchSendState_2
        MOV     A,#0x2
        XRL     A,?V0 + 2
        JNZ     ??ZDMatchSendState_3
// 2303   {
// 2304     if ( TransSeq != matchED->transSeq )
??ZDMatchSendState_2:
        MOV     DPTR,#matchED
        MOVX    A,@DPTR
        ADD     A,#0x30
        MOV     R0,A
        INC     DPTR
        MOVX    A,@DPTR
        ADDC    A,#0x0
        MOV     R1,A
        MOV     DPL,R0
        MOV     DPH,R1
        MOVX    A,@DPTR
        XRL     A,?V0 + 7
        JZ      ??ZDMatchSendState_3
// 2305     {
// 2306       return( FALSE ); // ignore the message
        MOV     R1,#0x0
        LJMP    ??ZDMatchSendState_1 & 0xFFFF
// 2307     }
// 2308   }
// 2309 
// 2310   // turn off timer
// 2311   APS_SetEndDeviceBindTimeout( 0, ZDO_EndDeviceBindMatchTimeoutCB );
??ZDMatchSendState_3:
        ; Setup parameters for call to function APS_SetEndDeviceBindTimeout
        MOV     R4,#??ZDO_EndDeviceBindMatchTimeoutCB?relay & 0xff
        MOV     R5,#(??ZDO_EndDeviceBindMatchTimeoutCB?relay >> 8) & 0xff
        MOV     R2,#0x0
        MOV     R3,#0x0
        LCALL   ??APS_SetEndDeviceBindTimeout?relay
// 2312 
// 2313   if ( reason == ZDMATCH_REASON_TIMEOUT )
        MOV     A,#0x1
        XRL     A,?V0 + 2
        JNZ     ??ZDMatchSendState_4
// 2314   {
// 2315     rspStatus = ZDP_TIMEOUT;    // The process will stop
        MOV     DPL,?XSP + 0
        MOV     DPH,?XSP + 1
        MOV     A,#-0x7b
        MOVX    @DPTR,A
// 2316   }
// 2317 
// 2318   if ( reason == ZDMATCH_REASON_START || reason == ZDMATCH_REASON_BIND_RSP )
??ZDMatchSendState_4:
        MOV     A,?V0 + 2
        JZ      ??ZDMatchSendState_5
        MOV     A,#0x3
        XRL     A,?V0 + 2
        JNZ     ??ZDMatchSendState_6
// 2319   {
// 2320     matchED->sending = ZDMATCH_SENDING_UNBIND;
??ZDMatchSendState_5:
        MOV     DPTR,#matchED
        MOVX    A,@DPTR
        ADD     A,#0x2f
        MOV     R0,A
        INC     DPTR
        MOVX    A,@DPTR
        ADDC    A,#0x0
        MOV     R1,A
        MOV     DPL,R0
        MOV     DPH,R1
        MOV     A,#0x1
        MOVX    @DPTR,A
// 2321 
// 2322     if ( reason == ZDMATCH_REASON_BIND_RSP && status != ZDP_SUCCESS )
        MOV     A,#0x3
        XRL     A,?V0 + 2
        JNZ     ??ZDMatchSendState_7
        MOV     A,?V0 + 6
        JZ      ??ZDMatchSendState_7
// 2323     {
// 2324       rspStatus = status;
        MOV     A,?V0 + 6
        MOV     DPL,?XSP + 0
        MOV     DPH,?XSP + 1
        MOV     A,?V0 + 6
        MOVX    @DPTR,A
        SJMP    ??ZDMatchSendState_7
// 2325     }
// 2326   }
// 2327   else if ( reason == ZDMATCH_REASON_UNBIND_RSP )
??ZDMatchSendState_6:
        MOV     A,#0x2
        XRL     A,?V0 + 2
        JNZ     ??ZDMatchSendState_7
// 2328   {
// 2329     if ( status == ZDP_SUCCESS )
        MOV     A,?V0 + 6
        JNZ     ??ZDMatchSendState_8
// 2330     {
// 2331       matchED->sending = ZDMATCH_SENDING_UNBIND;
        MOV     DPTR,#matchED
        MOVX    A,@DPTR
        ADD     A,#0x2f
        MOV     R0,A
        INC     DPTR
        MOVX    A,@DPTR
        ADDC    A,#0x0
        MOV     R1,A
        MOV     DPL,R0
        MOV     DPH,R1
        MOV     A,#0x1
        MOVX    @DPTR,A
        SJMP    ??ZDMatchSendState_7
// 2332     }
// 2333     else
// 2334     {
// 2335       matchED->sending = ZDMATCH_SENDING_BIND;
??ZDMatchSendState_8:
        MOV     DPTR,#matchED
        MOVX    A,@DPTR
        ADD     A,#0x2f
        MOV     R0,A
        INC     DPTR
        MOVX    A,@DPTR
        ADDC    A,#0x0
        MOV     R1,A
        MOV     DPL,R0
        MOV     DPH,R1
        MOV     A,#0x2
        MOVX    @DPTR,A
// 2336     }
// 2337   }
// 2338 
// 2339   if ( reason != ZDMATCH_REASON_START && matchED->sending == ZDMATCH_SENDING_UNBIND )
??ZDMatchSendState_7:
        MOV     A,?V0 + 2
        JZ      ??ZDMatchSendState_9
        MOV     DPTR,#matchED
        MOVX    A,@DPTR
        ADD     A,#0x2f
        MOV     R0,A
        INC     DPTR
        MOVX    A,@DPTR
        ADDC    A,#0x0
        MOV     R1,A
        MOV     DPL,R0
        MOV     DPH,R1
        MOVX    A,@DPTR
        XRL     A,#0x1
        JNZ     ??ZDMatchSendState_9
// 2340   {
// 2341     // Move to the next cluster ID
// 2342     if ( matchED->ed1numMatched )
        MOV     DPTR,#matchED
        MOVX    A,@DPTR
        ADD     A,#0x31
        MOV     R0,A
        INC     DPTR
        MOVX    A,@DPTR
        ADDC    A,#0x0
        MOV     R1,A
        MOV     DPL,R0
        MOV     DPH,R1
        MOVX    A,@DPTR
        JZ      ??ZDMatchSendState_10
// 2343     {
// 2344       matchED->ed1numMatched--;
        MOV     DPTR,#matchED
        MOVX    A,@DPTR
        ADD     A,#0x31
        MOV     R0,A
        INC     DPTR
        MOVX    A,@DPTR
        ADDC    A,#0x0
        MOV     R1,A
        MOV     DPL,R0
        MOV     DPH,R1
        MOVX    A,@DPTR
        ADD     A,#-0x1
        MOVX    @DPTR,A
        SJMP    ??ZDMatchSendState_9
// 2345     }
// 2346     else if ( matchED->ed2numMatched )
??ZDMatchSendState_10:
        MOV     DPTR,#matchED
        MOVX    A,@DPTR
        ADD     A,#0x34
        MOV     R0,A
        INC     DPTR
        MOVX    A,@DPTR
        ADDC    A,#0x0
        MOV     R1,A
        MOV     DPL,R0
        MOV     DPH,R1
        MOVX    A,@DPTR
        JZ      ??ZDMatchSendState_9
// 2347     {
// 2348       matchED->ed2numMatched--;
        MOV     DPTR,#matchED
        MOVX    A,@DPTR
        ADD     A,#0x34
        MOV     R0,A
        INC     DPTR
        MOVX    A,@DPTR
        ADDC    A,#0x0
        MOV     R1,A
        MOV     DPL,R0
        MOV     DPH,R1
        MOVX    A,@DPTR
        ADD     A,#-0x1
        MOVX    @DPTR,A
// 2349     }
// 2350   }
// 2351 
// 2352   // What message do we send now
// 2353   if ( matchED->ed1numMatched )
??ZDMatchSendState_9:
        MOV     DPTR,#matchED
        MOVX    A,@DPTR
        ADD     A,#0x31
        MOV     R0,A
        INC     DPTR
        MOVX    A,@DPTR
        ADDC    A,#0x0
        MOV     R1,A
        MOV     DPL,R0
        MOV     DPH,R1
        MOVX    A,@DPTR
        JNZ     $+5
        LJMP    ??ZDMatchSendState_11 & 0xFFFF
// 2354   {
// 2355     ed = &(matchED->ed1);
        MOV     DPTR,#matchED
        MOVX    A,@DPTR
        MOV     R0,A
        INC     DPTR
        MOVX    A,@DPTR
        MOV     R1,A
        MOV     ?V0 + 4,R0
        MOV     ?V0 + 5,R1
// 2356     clusterID = matchED->ed1Matched[matchED->ed1numMatched-1];
        MOV     DPTR,#matchED
        MOVX    A,@DPTR
        ADD     A,#0x31
        MOV     R0,A
        INC     DPTR
        MOVX    A,@DPTR
        ADDC    A,#0x0
        MOV     R1,A
        MOV     DPL,R0
        MOV     DPH,R1
        MOVX    A,@DPTR
        MOV     R0,A
        MOV     R1,#0x0
        MOV     A,R0
        MOV     B,#0x2
        MUL     AB
        XCH     A,R0
        MOV     R2,B
        MOV     B,#0x0
        MUL     AB
        ADD     A,R2
        MOV     R2,A
        MOV     B,#0x2
        MOV     A,R1
        MUL     AB
        ADD     A,R2
        MOV     R1,A
        MOV     DPTR,#matchED
        MOVX    A,@DPTR
        ADD     A,#0x32
        MOV     R2,A
        INC     DPTR
        MOVX    A,@DPTR
        ADDC    A,#0x0
        MOV     R3,A
        MOV     DPL,R2
        MOV     DPH,R3
        MOVX    A,@DPTR
        ADD     A,R0
        MOV     R0,A
        INC     DPTR
        MOVX    A,@DPTR
        ADDC    A,R1
        MOV     R1,A
        MOV     A,R0
        ADD     A,#-0x2
        MOV     DPL,A
        MOV     A,R1
        ADDC    A,#-0x1
        MOV     DPH,A
        MOVX    A,@DPTR
        MOV     R6,A
        INC     DPTR
        MOVX    A,@DPTR
        MOV     R7,A
// 2357     dstIEEEAddr = matchED->ed2.ieeeAddr;
        MOV     DPTR,#matchED
        MOVX    A,@DPTR
        ADD     A,#0x1d
        MOV     R0,A
        INC     DPTR
        MOVX    A,@DPTR
        ADDC    A,#0x0
        MOV     R1,A
        MOV     ?V0 + 8,R0
        MOV     ?V0 + 9,R1
// 2358     dstEP = matchED->ed2.endpoint;
        MOV     DPTR,#matchED
        MOVX    A,@DPTR
        ADD     A,#0x25
        MOV     R0,A
        INC     DPTR
        MOVX    A,@DPTR
        ADDC    A,#0x0
        MOV     R1,A
        MOV     DPL,R0
        MOV     DPH,R1
        MOVX    A,@DPTR
        MOV     ?V0 + 3,A
        LJMP    ??ZDMatchSendState_12 & 0xFFFF
// 2359   }
// 2360   else if ( matchED->ed2numMatched )
??ZDMatchSendState_11:
        MOV     DPTR,#matchED
        MOVX    A,@DPTR
        ADD     A,#0x34
        MOV     R0,A
        INC     DPTR
        MOVX    A,@DPTR
        ADDC    A,#0x0
        MOV     R1,A
        MOV     DPL,R0
        MOV     DPH,R1
        MOVX    A,@DPTR
        JNZ     $+5
        LJMP    ??ZDMatchSendState_12 & 0xFFFF
// 2361   {
// 2362     ed = &(matchED->ed2);
        MOV     DPTR,#matchED
        MOVX    A,@DPTR
        ADD     A,#0x17
        MOV     R0,A
        INC     DPTR
        MOVX    A,@DPTR
        ADDC    A,#0x0
        MOV     R1,A
        MOV     ?V0 + 4,R0
        MOV     ?V0 + 5,R1
// 2363     clusterID = matchED->ed2Matched[matchED->ed2numMatched-1];
        MOV     DPTR,#matchED
        MOVX    A,@DPTR
        ADD     A,#0x34
        MOV     R0,A
        INC     DPTR
        MOVX    A,@DPTR
        ADDC    A,#0x0
        MOV     R1,A
        MOV     DPL,R0
        MOV     DPH,R1
        MOVX    A,@DPTR
        MOV     R0,A
        MOV     R1,#0x0
        MOV     A,R0
        MOV     B,#0x2
        MUL     AB
        XCH     A,R0
        MOV     R2,B
        MOV     B,#0x0
        MUL     AB
        ADD     A,R2
        MOV     R2,A
        MOV     B,#0x2
        MOV     A,R1
        MUL     AB
        ADD     A,R2
        MOV     R1,A
        MOV     DPTR,#matchED
        MOVX    A,@DPTR
        ADD     A,#0x35
        MOV     R2,A
        INC     DPTR
        MOVX    A,@DPTR
        ADDC    A,#0x0
        MOV     R3,A
        MOV     DPL,R2
        MOV     DPH,R3
        MOVX    A,@DPTR
        ADD     A,R0
        MOV     R0,A
        INC     DPTR
        MOVX    A,@DPTR
        ADDC    A,R1
        MOV     R1,A
        MOV     A,R0
        ADD     A,#-0x2
        MOV     DPL,A
        MOV     A,R1
        ADDC    A,#-0x1
        MOV     DPH,A
        MOVX    A,@DPTR
        MOV     R6,A
        INC     DPTR
        MOVX    A,@DPTR
        MOV     R7,A
// 2364     dstIEEEAddr = matchED->ed1.ieeeAddr;
        MOV     DPTR,#matchED
        MOVX    A,@DPTR
        ADD     A,#0x6
        MOV     R0,A
        INC     DPTR
        MOVX    A,@DPTR
        ADDC    A,#0x0
        MOV     R1,A
        MOV     ?V0 + 8,R0
        MOV     ?V0 + 9,R1
// 2365     dstEP = matchED->ed1.endpoint;
        MOV     DPTR,#matchED
        MOVX    A,@DPTR
        ADD     A,#0xe
        MOV     R0,A
        INC     DPTR
        MOVX    A,@DPTR
        ADDC    A,#0x0
        MOV     R1,A
        MOV     DPL,R0
        MOV     DPH,R1
        MOVX    A,@DPTR
        MOV     ?V0 + 3,A
// 2366   }
// 2367 
// 2368   dstAddr.addrMode = Addr16Bit;
??ZDMatchSendState_12:
        MOV     A,#0x9
        LCALL   ?XSTACK_DISP0_8
        MOV     A,#0x2
        MOVX    @DPTR,A
// 2369 
// 2370   // Send the next message
// 2371   if ( (rspStatus == ZDP_SUCCESS) && ed )
        MOV     DPL,?XSP + 0
        MOV     DPH,?XSP + 1
        MOVX    A,@DPTR
        JZ      $+5
        LJMP    ??ZDMatchSendState_13 & 0xFFFF
        MOV     A,?V0 + 4
        ORL     A,?V0 + 5
        JNZ     $+5
        LJMP    ??ZDMatchSendState_13 & 0xFFFF
// 2372   {
// 2373     // Send unbind/bind message to source
// 2374     if ( matchED->sending == ZDMATCH_SENDING_UNBIND )
        MOV     DPTR,#matchED
        MOVX    A,@DPTR
        ADD     A,#0x2f
        MOV     R0,A
        INC     DPTR
        MOVX    A,@DPTR
        ADDC    A,#0x0
        MOV     R1,A
        MOV     DPL,R0
        MOV     DPH,R1
        MOVX    A,@DPTR
        XRL     A,#0x1
        JNZ     ??ZDMatchSendState_14
// 2375     {
// 2376       msgType = Unbind_req;
        MOV     ?V0 + 0,#0x22
        MOV     ?V0 + 1,#0x0
        SJMP    ??ZDMatchSendState_15
// 2377     }
// 2378     else
// 2379     {
// 2380       msgType = Bind_req;
??ZDMatchSendState_14:
        MOV     ?V0 + 0,#0x21
        MOV     ?V0 + 1,#0x0
// 2381     }
// 2382 
// 2383     dstAddr.addr.shortAddr = ed->srcAddr;
??ZDMatchSendState_15:
        MOV     DPL,?V0 + 4
        MOV     DPH,?V0 + 5
        INC     DPTR
        INC     DPTR
        MOVX    A,@DPTR
        MOV     R0,A
        INC     DPTR
        MOVX    A,@DPTR
        MOV     R1,A
        MOV     A,#0x1
        LCALL   ?XSTACK_DISP0_8
        MOV     A,R0
        MOVX    @DPTR,A
        INC     DPTR
        MOV     A,R1
        MOVX    @DPTR,A
// 2384 
// 2385     // Save off the transaction sequence number
// 2386     matchED->transSeq = ZDP_TransID;
        MOV     DPTR,#ZDP_TransID
        MOVX    A,@DPTR
        PUSH    A
        CFI CFA_SP SP+-1
        MOV     DPTR,#matchED
        MOVX    A,@DPTR
        ADD     A,#0x30
        MOV     R0,A
        INC     DPTR
        MOVX    A,@DPTR
        ADDC    A,#0x0
        MOV     R1,A
        MOV     DPL,R0
        MOV     DPH,R1
        POP     A
        CFI CFA_SP SP+0
        MOVX    @DPTR,A
// 2387 
// 2388     destinationAddr.addrMode = Addr64Bit;
        MOV     A,#0x12
        LCALL   ?XSTACK_DISP0_8
        MOV     A,#0x3
        MOVX    @DPTR,A
// 2389     osal_cpyExtAddr( destinationAddr.addr.extAddr, dstIEEEAddr );
        ; Setup parameters for call to function sAddrExtCpy
        MOV     R4,?V0 + 8
        MOV     R5,?V0 + 9
        MOV     A,#0xa
        LCALL   ?XSTACK_DISP0_8
        MOV     R2,DPL
        MOV     R3,DPH
        LCALL   ??sAddrExtCpy?relay
// 2390 
// 2391     ZDP_BindUnbindReq( msgType, &dstAddr, ed->ieeeAddr, ed->endpoint, clusterID,
// 2392         &destinationAddr, dstEP, ed->SecurityUse );
        ; Setup parameters for call to function ZDP_BindUnbindReq
        MOV     DPL,?V0 + 4
        MOV     DPH,?V0 + 5
        INC     DPTR
        MOVX    A,@DPTR
        MOV     ?V0 + 10,A
        MOV     R0,#?V0 + 10
        LCALL   ?PUSH_XSTACK_I_ONE
        CFI CFA_XSP16 add(XSP16, 40)
        MOV     A,?V0 + 3
        MOV     ?V0 + 10,A
        MOV     R0,#?V0 + 10
        LCALL   ?PUSH_XSTACK_I_ONE
        CFI CFA_XSP16 add(XSP16, 41)
        MOV     A,#0xc
        LCALL   ?XSTACK_DISP0_8
        MOV     ?V0 + 10,DPL
        MOV     ?V0 + 11,DPH
        MOV     R0,#?V0 + 10
        LCALL   ?PUSH_XSTACK_I_TWO
        CFI CFA_XSP16 add(XSP16, 43)
        MOV     ?V0 + 10,R6
        MOV     ?V0 + 11,R7
        MOV     R0,#?V0 + 10
        LCALL   ?PUSH_XSTACK_I_TWO
        CFI CFA_XSP16 add(XSP16, 45)
        MOV     A,?V0 + 4
        ADD     A,#0x6
        MOV     ?V0 + 10,A
        MOV     A,?V0 + 5
        ADDC    A,#0x0
        MOV     ?V0 + 11,A
        MOV     R0,#?V0 + 10
        LCALL   ?PUSH_XSTACK_I_TWO
        CFI CFA_XSP16 add(XSP16, 47)
        MOV     A,?V0 + 4
        ADD     A,#0xe
        MOV     DPL,A
        MOV     A,?V0 + 5
        ADDC    A,#0x0
        MOV     DPH,A
        MOVX    A,@DPTR
        MOV     R1,A
        MOV     A,#0x9
        LCALL   ?XSTACK_DISP0_8
        MOV     R4,DPL
        MOV     R5,DPH
        MOV     R2,?V0 + 0
        MOV     R3,?V0 + 1
        LCALL   ??ZDP_BindUnbindReq?relay
        MOV     A,#0x8
        LCALL   ?DEALLOC_XSTACK8
        CFI CFA_XSP16 add(XSP16, 39)
        MOV     A,R1
// 2393 
// 2394     // Set timeout for response
// 2395     APS_SetEndDeviceBindTimeout( AIB_MaxBindingTime, ZDO_EndDeviceBindMatchTimeoutCB );
        ; Setup parameters for call to function APS_SetEndDeviceBindTimeout
        MOV     R4,#??ZDO_EndDeviceBindMatchTimeoutCB?relay & 0xff
        MOV     R5,#(??ZDO_EndDeviceBindMatchTimeoutCB?relay >> 8) & 0xff
        MOV     DPTR,#AIB_MaxBindingTime
        MOVX    A,@DPTR
        MOV     R2,A
        INC     DPTR
        MOVX    A,@DPTR
        MOV     R3,A
        LCALL   ??APS_SetEndDeviceBindTimeout?relay
        LJMP    ??ZDMatchSendState_16 & 0xFFFF
// 2396   }
// 2397   else
// 2398   {
// 2399     // Send the response messages to requesting devices
// 2400     // send response to first requester
// 2401     dstAddr.addr.shortAddr = matchED->ed1.srcAddr;
??ZDMatchSendState_13:
        MOV     DPTR,#matchED
        MOVX    A,@DPTR
        MOV     R0,A
        INC     DPTR
        MOVX    A,@DPTR
        MOV     DPH,A
        MOV     DPL,R0
        INC     DPTR
        INC     DPTR
        MOVX    A,@DPTR
        MOV     R0,A
        INC     DPTR
        MOVX    A,@DPTR
        MOV     R1,A
        MOV     A,#0x1
        LCALL   ?XSTACK_DISP0_8
        MOV     A,R0
        MOVX    @DPTR,A
        INC     DPTR
        MOV     A,R1
        MOVX    @DPTR,A
// 2402     ZDP_EndDeviceBindRsp( matchED->ed1.TransSeq, &dstAddr, rspStatus, matchED->ed1.SecurityUse );
        ; Setup parameters for call to function ZDP_SendData
        MOV     DPTR,#matchED
        MOVX    A,@DPTR
        MOV     R0,A
        INC     DPTR
        MOVX    A,@DPTR
        MOV     DPH,A
        MOV     DPL,R0
        INC     DPTR
        MOVX    A,@DPTR
        MOV     ?V0 + 10,A
        MOV     R0,#?V0 + 10
        LCALL   ?PUSH_XSTACK_I_ONE
        CFI CFA_XSP16 add(XSP16, 40)
        MOV     A,#0x1
        LCALL   ?XSTACK_DISP0_8
        MOV     ?V0 + 10,DPL
        MOV     ?V0 + 11,DPH
        MOV     R0,#?V0 + 10
        LCALL   ?PUSH_XSTACK_I_TWO
        CFI CFA_XSP16 add(XSP16, 42)
        MOV     ?V0 + 10,#0x20
        MOV     ?V0 + 11,#-0x80
        MOV     R0,#?V0 + 10
        LCALL   ?PUSH_XSTACK_I_TWO
        CFI CFA_XSP16 add(XSP16, 44)
        MOV     R1,#0x1
        MOV     A,#0x6
        LCALL   ?XSTACK_DISP0_8
        MOV     R4,DPL
        MOV     R5,DPH
        MOV     DPTR,#matchED
        MOVX    A,@DPTR
        MOV     R2,A
        INC     DPTR
        MOVX    A,@DPTR
        MOV     R3,A
        LCALL   ??ZDP_SendData?relay
        MOV     A,#0x5
        LCALL   ?DEALLOC_XSTACK8
        CFI CFA_XSP16 add(XSP16, 39)
        MOV     A,R1
// 2403 
// 2404     // send response to second requester
// 2405     if ( matchED->state == ZDMATCH_SENDING_BINDS )
        MOV     DPTR,#matchED
        MOVX    A,@DPTR
        ADD     A,#0x2e
        MOV     R0,A
        INC     DPTR
        MOVX    A,@DPTR
        ADDC    A,#0x0
        MOV     R1,A
        MOV     DPL,R0
        MOV     DPH,R1
        MOVX    A,@DPTR
        XRL     A,#0x2
        JNZ     ??ZDMatchSendState_17
// 2406     {
// 2407       dstAddr.addr.shortAddr = matchED->ed2.srcAddr;
        MOV     DPTR,#matchED
        MOVX    A,@DPTR
        ADD     A,#0x19
        MOV     R0,A
        INC     DPTR
        MOVX    A,@DPTR
        ADDC    A,#0x0
        MOV     R1,A
        MOV     DPL,R0
        MOV     DPH,R1
        MOVX    A,@DPTR
        MOV     R0,A
        INC     DPTR
        MOVX    A,@DPTR
        MOV     R1,A
        MOV     A,#0x1
        LCALL   ?XSTACK_DISP0_8
        MOV     A,R0
        MOVX    @DPTR,A
        INC     DPTR
        MOV     A,R1
        MOVX    @DPTR,A
// 2408       ZDP_EndDeviceBindRsp( matchED->ed2.TransSeq, &dstAddr, rspStatus, matchED->ed2.SecurityUse );
        ; Setup parameters for call to function ZDP_SendData
        MOV     DPTR,#matchED
        MOVX    A,@DPTR
        ADD     A,#0x18
        MOV     R0,A
        INC     DPTR
        MOVX    A,@DPTR
        ADDC    A,#0x0
        MOV     R1,A
        MOV     DPL,R0
        MOV     DPH,R1
        MOVX    A,@DPTR
        MOV     ?V0 + 10,A
        MOV     R0,#?V0 + 10
        LCALL   ?PUSH_XSTACK_I_ONE
        CFI CFA_XSP16 add(XSP16, 40)
        MOV     A,#0x1
        LCALL   ?XSTACK_DISP0_8
        MOV     ?V0 + 10,DPL
        MOV     ?V0 + 11,DPH
        MOV     R0,#?V0 + 10
        LCALL   ?PUSH_XSTACK_I_TWO
        CFI CFA_XSP16 add(XSP16, 42)
        MOV     ?V0 + 10,#0x20
        MOV     ?V0 + 11,#-0x80
        MOV     R0,#?V0 + 10
        LCALL   ?PUSH_XSTACK_I_TWO
        CFI CFA_XSP16 add(XSP16, 44)
        MOV     R1,#0x1
        MOV     A,#0x6
        LCALL   ?XSTACK_DISP0_8
        MOV     R4,DPL
        MOV     R5,DPH
        MOV     DPTR,#matchED
        MOVX    A,@DPTR
        ADD     A,#0x17
        MOV     R2,A
        INC     DPTR
        MOVX    A,@DPTR
        ADDC    A,#0x0
        MOV     R3,A
        LCALL   ??ZDP_SendData?relay
        MOV     A,#0x5
        LCALL   ?DEALLOC_XSTACK8
        CFI CFA_XSP16 add(XSP16, 39)
        MOV     A,R1
// 2409     }
// 2410 
// 2411     // Process ended - release memory used
// 2412     ZDO_RemoveMatchMemory();
??ZDMatchSendState_17:
        ; Setup parameters for call to function ZDO_RemoveMatchMemory
        LCALL   ??ZDO_RemoveMatchMemory?relay
// 2413   }
// 2414 
// 2415   return ( TRUE );
??ZDMatchSendState_16:
        MOV     R1,#0x1
??ZDMatchSendState_1:
        MOV     A,#0x13
        LCALL   ?DEALLOC_XSTACK8
        CFI CFA_XSP16 add(XSP16, 20)
        MOV     R7,#0xc
        LJMP    ?BANKED_LEAVE_XDATA
        CFI EndBlock cfiBlock34
// 2416 }
// 2417 
// 2418 /*********************************************************************
// 2419  * @fn      ZDO_EndDeviceBindMatchTimeoutCB()
// 2420  *
// 2421  * @brief   End device bind timeout.
// 2422  *
// 2423  * @param  none
// 2424  *
// 2425  * @return  none
// 2426  */

        RSEG BANKED_CODE:CODE:NOROOT(0)
// 2427 static void ZDO_EndDeviceBindMatchTimeoutCB( void )
ZDO_EndDeviceBindMatchTimeoutCB:
        CFI Block cfiBlock35 Using cfiCommon0
        CFI Function ZDO_EndDeviceBindMatchTimeoutCB
        CODE
// 2428 {
        FUNCALL ZDO_EndDeviceBindMatchTimeoutCB, ZDMatchSendState
        LOCFRAME ISTACK, 2, STACK
        LOCFRAME PSTACK, 0, STACK
        LOCFRAME XSTACK, 0, STACK
        LOCFRAME IOVERLAY, 0, STATIC
        LOCFRAME DOVERLAY, 0, STATIC
        ARGFRAME ISTACK, 2, STACK
        ARGFRAME PSTACK, 0, STACK
        ARGFRAME XSTACK, 0, STACK
        ARGFRAME IOVERLAY, 0, STATIC
        ARGFRAME DOVERLAY, 0, STATIC
        PUSH    DPL
        CFI DPL0 Frame(CFA_SP, 4)
        CFI CFA_SP SP+-4
        PUSH    DPH
        CFI DPH0 Frame(CFA_SP, 5)
        CFI CFA_SP SP+-5
        ; Saved register size: 2
        ; Auto size: 0
// 2429   ZDMatchSendState( ZDMATCH_REASON_TIMEOUT, ZDP_TIMEOUT, 0 );
        ; Setup parameters for call to function ZDMatchSendState
        MOV     R3,#0x0
        MOV     R2,#-0x7b
        MOV     R1,#0x1
        LCALL   ??ZDMatchSendState?relay
        MOV     A,R1
// 2430 }
        POP     DPH
        CFI DPH0 SameValue
        CFI CFA_SP SP+-4
        POP     DPL
        CFI DPL0 SameValue
        CFI CFA_SP SP+-3
        LJMP    ?BRET
        CFI EndBlock cfiBlock35
// 2431 
// 2432 /*********************************************************************
// 2433  * ZDO MESSAGE PARSING API FUNCTIONS
// 2434  */
// 2435 
// 2436 /*********************************************************************
// 2437  * @fn          ZDO_ParseEndDeviceBindReq
// 2438  *
// 2439  * @brief       This function parses the End_Device_Bind_req message.
// 2440  *
// 2441  *     NOTE:  The clusters lists in bindReq are allocated in this
// 2442  *            function and must be freed by that calling function.
// 2443  *
// 2444  * @param       inMsg  - incoming message (request)
// 2445  * @param       bindReq - pointer to place to parse message to
// 2446  *
// 2447  * @return      none
// 2448  */

        RSEG BANKED_CODE:CODE:NOROOT(0)
// 2449 void ZDO_ParseEndDeviceBindReq( zdoIncomingMsg_t *inMsg, ZDEndDeviceBind_t *bindReq )
ZDO_ParseEndDeviceBindReq:
        CFI Block cfiBlock36 Using cfiCommon0
        CFI Function ZDO_ParseEndDeviceBindReq
        CODE
// 2450 {
        FUNCALL ZDO_ParseEndDeviceBindReq, sAddrExtCpy
        LOCFRAME ISTACK, 0, STACK
        LOCFRAME PSTACK, 0, STACK
        LOCFRAME XSTACK, 14, STACK
        LOCFRAME IOVERLAY, 0, STATIC
        LOCFRAME DOVERLAY, 0, STATIC
        ARGFRAME ISTACK, 0, STACK
        ARGFRAME PSTACK, 0, STACK
        ARGFRAME XSTACK, 14, STACK
        ARGFRAME IOVERLAY, 0, STATIC
        ARGFRAME DOVERLAY, 0, STATIC
        FUNCALL ZDO_ParseEndDeviceBindReq, osal_mem_alloc
        LOCFRAME ISTACK, 0, STACK
        LOCFRAME PSTACK, 0, STACK
        LOCFRAME XSTACK, 14, STACK
        LOCFRAME IOVERLAY, 0, STATIC
        LOCFRAME DOVERLAY, 0, STATIC
        ARGFRAME ISTACK, 0, STACK
        ARGFRAME PSTACK, 0, STACK
        ARGFRAME XSTACK, 14, STACK
        ARGFRAME IOVERLAY, 0, STATIC
        ARGFRAME DOVERLAY, 0, STATIC
        FUNCALL ZDO_ParseEndDeviceBindReq, ZDO_ConvertOTAClusters
        LOCFRAME ISTACK, 0, STACK
        LOCFRAME PSTACK, 0, STACK
        LOCFRAME XSTACK, 14, STACK
        LOCFRAME IOVERLAY, 0, STATIC
        LOCFRAME DOVERLAY, 0, STATIC
        ARGFRAME ISTACK, 0, STACK
        ARGFRAME PSTACK, 0, STACK
        ARGFRAME XSTACK, 14, STACK
        ARGFRAME IOVERLAY, 0, STATIC
        ARGFRAME DOVERLAY, 0, STATIC
        FUNCALL ZDO_ParseEndDeviceBindReq, osal_mem_alloc
        LOCFRAME ISTACK, 0, STACK
        LOCFRAME PSTACK, 0, STACK
        LOCFRAME XSTACK, 14, STACK
        LOCFRAME IOVERLAY, 0, STATIC
        LOCFRAME DOVERLAY, 0, STATIC
        ARGFRAME ISTACK, 0, STACK
        ARGFRAME PSTACK, 0, STACK
        ARGFRAME XSTACK, 14, STACK
        ARGFRAME IOVERLAY, 0, STATIC
        ARGFRAME DOVERLAY, 0, STATIC
        FUNCALL ZDO_ParseEndDeviceBindReq, ZDO_ConvertOTAClusters
        LOCFRAME ISTACK, 0, STACK
        LOCFRAME PSTACK, 0, STACK
        LOCFRAME XSTACK, 14, STACK
        LOCFRAME IOVERLAY, 0, STATIC
        LOCFRAME DOVERLAY, 0, STATIC
        ARGFRAME ISTACK, 0, STACK
        ARGFRAME PSTACK, 0, STACK
        ARGFRAME XSTACK, 14, STACK
        ARGFRAME IOVERLAY, 0, STATIC
        ARGFRAME DOVERLAY, 0, STATIC
        MOV     A,#-0xe
        LCALL   ?BANKED_ENTER_XDATA
        CFI DPH0 load(1, XDATA, add(CFA_XSP16, literal(-1)))
        CFI DPL0 load(1, XDATA, add(CFA_XSP16, literal(-2)))
        CFI ?BRET_EXT load(1, XDATA, add(CFA_XSP16, literal(-3)))
        CFI ?RET_HIGH load(1, XDATA, add(CFA_XSP16, literal(-4)))
        CFI ?RET_LOW load(1, XDATA, add(CFA_XSP16, literal(-5)))
        CFI R7 load(1, XDATA, add(CFA_XSP16, literal(-6)))
        CFI V5 load(1, XDATA, add(CFA_XSP16, literal(-7)))
        CFI V4 load(1, XDATA, add(CFA_XSP16, literal(-8)))
        CFI V3 load(1, XDATA, add(CFA_XSP16, literal(-9)))
        CFI V2 load(1, XDATA, add(CFA_XSP16, literal(-10)))
        CFI V1 load(1, XDATA, add(CFA_XSP16, literal(-11)))
        CFI V0 load(1, XDATA, add(CFA_XSP16, literal(-12)))
        CFI VB load(1, XDATA, add(CFA_XSP16, literal(-13)))
        CFI R6 load(1, XDATA, add(CFA_XSP16, literal(-14)))
        CFI CFA_SP SP+0
        CFI CFA_XSP16 add(XSP16, 14)
        ; Saved register size: 14
        ; Auto size: 0
        MOV     ?V0 + 2,R2
        MOV     ?V0 + 3,R3
        MOV     ?V0 + 0,R4
        MOV     ?V0 + 1,R5
// 2451   uint8 *msg;
// 2452 
// 2453   // Parse the message
// 2454   bindReq->TransSeq = inMsg->TransSeq;
        MOV     A,?V0 + 2
        ADD     A,#0xf
        MOV     DPL,A
        MOV     A,?V0 + 3
        ADDC    A,#0x0
        MOV     DPH,A
        MOVX    A,@DPTR
        MOV     DPL,?V0 + 0
        MOV     DPH,?V0 + 1
        MOVX    @DPTR,A
// 2455   bindReq->srcAddr = inMsg->srcAddr.addr.shortAddr;
        MOV     DPL,?V0 + 2
        MOV     DPH,?V0 + 3
        INC     DPTR
        INC     DPTR
        MOVX    A,@DPTR
        MOV     R0,A
        INC     DPTR
        MOVX    A,@DPTR
        MOV     R1,A
        MOV     DPL,?V0 + 0
        MOV     DPH,?V0 + 1
        INC     DPTR
        INC     DPTR
        MOV     A,R0
        MOVX    @DPTR,A
        INC     DPTR
        MOV     A,R1
        MOVX    @DPTR,A
// 2456   bindReq->SecurityUse = inMsg->SecurityUse;
        MOV     A,?V0 + 2
        ADD     A,#0xe
        MOV     DPL,A
        MOV     A,?V0 + 3
        ADDC    A,#0x0
        MOV     DPH,A
        MOVX    A,@DPTR
        MOV     DPL,?V0 + 0
        MOV     DPH,?V0 + 1
        INC     DPTR
        MOVX    @DPTR,A
// 2457   msg = inMsg->asdu;
        MOV     A,?V0 + 2
        ADD     A,#0x13
        MOV     DPL,A
        MOV     A,?V0 + 3
        ADDC    A,#0x0
        MOV     DPH,A
        MOVX    A,@DPTR
        MOV     R0,A
        INC     DPTR
        MOVX    A,@DPTR
        MOV     R1,A
        MOV     A,R0
        MOV     R6,A
        MOV     A,R1
        MOV     R7,A
// 2458 
// 2459   bindReq->localCoordinator = BUILD_UINT16( msg[0], msg[1] );
        MOV     DPL,R6
        MOV     DPH,R7
        MOVX    A,@DPTR
        MOV     R2,A
        MOV     R3,#0x0
        MOV     DPL,R6
        MOV     DPH,R7
        INC     DPTR
        MOVX    A,@DPTR
        MOV     R0,A
        MOV     R1,#0x0
        CLR     A
        XCH     A,R0
        MOV     R1,A
        MOV     A,R2
        ADD     A,R0
        MOV     R0,A
        MOV     A,R3
        ADDC    A,R1
        MOV     R1,A
        MOV     DPL,?V0 + 0
        MOV     DPH,?V0 + 1
        INC     DPTR
        INC     DPTR
        INC     DPTR
        INC     DPTR
        MOV     A,R0
        MOVX    @DPTR,A
        INC     DPTR
        MOV     A,R1
        MOVX    @DPTR,A
// 2460   msg += 2;
        MOV     A,R6
        ADD     A,#0x2
        MOV     R6,A
        MOV     A,R7
        ADDC    A,#0x0
        MOV     R7,A
// 2461 
// 2462   osal_cpyExtAddr( bindReq->ieeeAddr, msg );
        ; Setup parameters for call to function sAddrExtCpy
        MOV     A,R6
        MOV     R4,A
        MOV     A,R7
        MOV     R5,A
        MOV     A,?V0 + 0
        ADD     A,#0x6
        MOV     R2,A
        MOV     A,?V0 + 1
        ADDC    A,#0x0
        MOV     R3,A
        LCALL   ??sAddrExtCpy?relay
// 2463   msg += Z_EXTADDR_LEN;
        MOV     A,R6
        ADD     A,#0x8
        MOV     R6,A
        MOV     A,R7
        ADDC    A,#0x0
        MOV     R7,A
// 2464 
// 2465   bindReq->endpoint = *msg++;
        MOV     DPL,R6
        MOV     DPH,R7
        MOVX    A,@DPTR
        PUSH    A
        CFI CFA_SP SP+-1
        MOV     A,?V0 + 0
        ADD     A,#0xe
        MOV     DPL,A
        MOV     A,?V0 + 1
        ADDC    A,#0x0
        MOV     DPH,A
        POP     A
        CFI CFA_SP SP+0
        MOVX    @DPTR,A
        MOV     DPL,R6
        MOV     DPH,R7
        INC     DPTR
        MOV     R6,DPL
        MOV     R7,DPH
// 2466   bindReq->profileID = BUILD_UINT16( msg[0], msg[1] );
        MOV     DPL,R6
        MOV     DPH,R7
        MOVX    A,@DPTR
        MOV     R2,A
        MOV     R3,#0x0
        MOV     DPL,R6
        MOV     DPH,R7
        INC     DPTR
        MOVX    A,@DPTR
        MOV     R0,A
        MOV     R1,#0x0
        CLR     A
        XCH     A,R0
        MOV     R1,A
        MOV     A,R2
        ADD     A,R0
        MOV     R0,A
        MOV     A,R3
        ADDC    A,R1
        MOV     R1,A
        MOV     A,?V0 + 0
        ADD     A,#0xf
        MOV     DPL,A
        MOV     A,?V0 + 1
        ADDC    A,#0x0
        MOV     DPH,A
        MOV     A,R0
        MOVX    @DPTR,A
        INC     DPTR
        MOV     A,R1
        MOVX    @DPTR,A
// 2467   msg += 2;
        MOV     A,R6
        ADD     A,#0x2
        MOV     R6,A
        MOV     A,R7
        ADDC    A,#0x0
        MOV     R7,A
// 2468 
// 2469   bindReq->inClusters = NULL;
        MOV     A,?V0 + 0
        ADD     A,#0x12
        MOV     DPL,A
        MOV     A,?V0 + 1
        ADDC    A,#0x0
        MOV     DPH,A
        MOV     A,#0x0
        MOVX    @DPTR,A
        INC     DPTR
        MOV     A,#0x0
        MOVX    @DPTR,A
// 2470   bindReq->outClusters = NULL;
        MOV     A,?V0 + 0
        ADD     A,#0x15
        MOV     DPL,A
        MOV     A,?V0 + 1
        ADDC    A,#0x0
        MOV     DPH,A
        MOV     A,#0x0
        MOVX    @DPTR,A
        INC     DPTR
        MOV     A,#0x0
        MOVX    @DPTR,A
// 2471 
// 2472   if ((bindReq->numInClusters = *msg++) &&
// 2473       (bindReq->inClusters = (uint16*)osal_mem_alloc( (bindReq->numInClusters * sizeof( uint16 )))))
        MOV     DPL,R6
        MOV     DPH,R7
        MOVX    A,@DPTR
        MOV     R0,A
        MOV     DPL,R6
        MOV     DPH,R7
        INC     DPTR
        MOV     R6,DPL
        MOV     R7,DPH
        MOV     A,R0
        PUSH    A
        CFI CFA_SP SP+-1
        MOV     A,?V0 + 0
        ADD     A,#0x11
        MOV     DPL,A
        MOV     A,?V0 + 1
        ADDC    A,#0x0
        MOV     DPH,A
        POP     A
        CFI CFA_SP SP+0
        MOVX    @DPTR,A
        MOV     A,R0
        JZ      ??ZDO_ParseEndDeviceBindReq_0
        ; Setup parameters for call to function osal_mem_alloc
        MOV     A,?V0 + 0
        ADD     A,#0x11
        MOV     DPL,A
        MOV     A,?V0 + 1
        ADDC    A,#0x0
        MOV     DPH,A
        MOVX    A,@DPTR
        MOV     R2,A
        MOV     R3,#0x0
        MOV     A,R2
        MOV     B,#0x2
        MUL     AB
        XCH     A,R2
        MOV     R0,B
        MOV     B,#0x0
        MUL     AB
        ADD     A,R0
        MOV     R0,A
        MOV     B,#0x2
        MOV     A,R3
        MUL     AB
        ADD     A,R0
        MOV     R3,A
        LCALL   ??osal_mem_alloc?relay
        MOV     ?V0 + 4,R2
        MOV     ?V0 + 5,R3
        MOV     R0,?V0 + 4
        MOV     R1,?V0 + 5
        MOV     A,?V0 + 0
        ADD     A,#0x12
        MOV     DPL,A
        MOV     A,?V0 + 1
        ADDC    A,#0x0
        MOV     DPH,A
        MOV     A,R0
        MOVX    @DPTR,A
        INC     DPTR
        MOV     A,R1
        MOVX    @DPTR,A
        MOV     A,R0
        ORL     A,R1
        JZ      ??ZDO_ParseEndDeviceBindReq_0
// 2474   {
// 2475     msg = ZDO_ConvertOTAClusters( bindReq->numInClusters, msg, bindReq->inClusters );
        ; Setup parameters for call to function ZDO_ConvertOTAClusters
        MOV     A,?V0 + 0
        ADD     A,#0x12
        MOV     DPL,A
        MOV     A,?V0 + 1
        ADDC    A,#0x0
        MOV     DPH,A
        MOVX    A,@DPTR
        MOV     R4,A
        INC     DPTR
        MOVX    A,@DPTR
        MOV     R5,A
        MOV     A,R6
        MOV     R2,A
        MOV     A,R7
        MOV     R3,A
        MOV     A,?V0 + 0
        ADD     A,#0x11
        MOV     DPL,A
        MOV     A,?V0 + 1
        ADDC    A,#0x0
        MOV     DPH,A
        MOVX    A,@DPTR
        MOV     R1,A
        LCALL   ??ZDO_ConvertOTAClusters?relay
        MOV     ?V0 + 4,R2
        MOV     ?V0 + 5,R3
        MOV     R6,?V0 + 4
        MOV     R7,?V0 + 5
        SJMP    ??ZDO_ParseEndDeviceBindReq_1
// 2476   }
// 2477   else
// 2478   {
// 2479     bindReq->numInClusters = 0;
??ZDO_ParseEndDeviceBindReq_0:
        MOV     A,?V0 + 0
        ADD     A,#0x11
        MOV     DPL,A
        MOV     A,?V0 + 1
        ADDC    A,#0x0
        MOV     DPH,A
        MOV     A,#0x0
        MOVX    @DPTR,A
// 2480   }
// 2481 
// 2482   if ((bindReq->numOutClusters = *msg++) &&
// 2483       (bindReq->outClusters = (uint16*)osal_mem_alloc((bindReq->numOutClusters * sizeof(uint16)))))
??ZDO_ParseEndDeviceBindReq_1:
        MOV     DPL,R6
        MOV     DPH,R7
        MOVX    A,@DPTR
        MOV     R0,A
        MOV     DPL,R6
        MOV     DPH,R7
        INC     DPTR
        MOV     R6,DPL
        MOV     R7,DPH
        MOV     A,R0
        PUSH    A
        CFI CFA_SP SP+-1
        MOV     A,?V0 + 0
        ADD     A,#0x14
        MOV     DPL,A
        MOV     A,?V0 + 1
        ADDC    A,#0x0
        MOV     DPH,A
        POP     A
        CFI CFA_SP SP+0
        MOVX    @DPTR,A
        MOV     A,R0
        JZ      ??ZDO_ParseEndDeviceBindReq_2
        ; Setup parameters for call to function osal_mem_alloc
        MOV     A,?V0 + 0
        ADD     A,#0x14
        MOV     DPL,A
        MOV     A,?V0 + 1
        ADDC    A,#0x0
        MOV     DPH,A
        MOVX    A,@DPTR
        MOV     R2,A
        MOV     R3,#0x0
        MOV     A,R2
        MOV     B,#0x2
        MUL     AB
        XCH     A,R2
        MOV     R0,B
        MOV     B,#0x0
        MUL     AB
        ADD     A,R0
        MOV     R0,A
        MOV     B,#0x2
        MOV     A,R3
        MUL     AB
        ADD     A,R0
        MOV     R3,A
        LCALL   ??osal_mem_alloc?relay
        MOV     ?V0 + 4,R2
        MOV     ?V0 + 5,R3
        MOV     R0,?V0 + 4
        MOV     R1,?V0 + 5
        MOV     A,?V0 + 0
        ADD     A,#0x15
        MOV     DPL,A
        MOV     A,?V0 + 1
        ADDC    A,#0x0
        MOV     DPH,A
        MOV     A,R0
        MOVX    @DPTR,A
        INC     DPTR
        MOV     A,R1
        MOVX    @DPTR,A
        MOV     A,R0
        ORL     A,R1
        JZ      ??ZDO_ParseEndDeviceBindReq_2
// 2484   {
// 2485     msg = ZDO_ConvertOTAClusters( bindReq->numOutClusters, msg, bindReq->outClusters );
        ; Setup parameters for call to function ZDO_ConvertOTAClusters
        MOV     A,?V0 + 0
        ADD     A,#0x15
        MOV     DPL,A
        MOV     A,?V0 + 1
        ADDC    A,#0x0
        MOV     DPH,A
        MOVX    A,@DPTR
        MOV     R4,A
        INC     DPTR
        MOVX    A,@DPTR
        MOV     R5,A
        MOV     A,R6
        MOV     R2,A
        MOV     A,R7
        MOV     R3,A
        MOV     A,?V0 + 0
        ADD     A,#0x14
        MOV     DPL,A
        MOV     A,?V0 + 1
        ADDC    A,#0x0
        MOV     DPH,A
        MOVX    A,@DPTR
        MOV     R1,A
        LCALL   ??ZDO_ConvertOTAClusters?relay
        MOV     ?V0 + 4,R2
        MOV     ?V0 + 5,R3
        MOV     R6,?V0 + 4
        MOV     R7,?V0 + 5
        SJMP    ??ZDO_ParseEndDeviceBindReq_3
// 2486   }
// 2487   else
// 2488   {
// 2489     bindReq->numOutClusters = 0;
??ZDO_ParseEndDeviceBindReq_2:
        MOV     A,?V0 + 0
        ADD     A,#0x14
        MOV     DPL,A
        MOV     A,?V0 + 1
        ADDC    A,#0x0
        MOV     DPH,A
        MOV     A,#0x0
        MOVX    @DPTR,A
// 2490   }
// 2491 }
??ZDO_ParseEndDeviceBindReq_3:
        MOV     R7,#0x6
        LJMP    ?BANKED_LEAVE_XDATA
        CFI EndBlock cfiBlock36
// 2492 
// 2493 /*********************************************************************
// 2494  * @fn          ZDO_ParseBindUnbindReq
// 2495  *
// 2496  * @brief       This function parses the Bind_req or Unbind_req message.
// 2497  *
// 2498  * @param       inMsg  - incoming message (request)
// 2499  * @param       pReq - place to put parsed information
// 2500  *
// 2501  * @return      none
// 2502  */

        RSEG BANKED_CODE:CODE:NOROOT(0)
// 2503 void ZDO_ParseBindUnbindReq( zdoIncomingMsg_t *inMsg, ZDO_BindUnbindReq_t *pReq )
ZDO_ParseBindUnbindReq:
        CFI Block cfiBlock37 Using cfiCommon0
        CFI Function ZDO_ParseBindUnbindReq
        CODE
// 2504 {
        FUNCALL ZDO_ParseBindUnbindReq, sAddrExtCpy
        LOCFRAME ISTACK, 0, STACK
        LOCFRAME PSTACK, 0, STACK
        LOCFRAME XSTACK, 12, STACK
        LOCFRAME IOVERLAY, 0, STATIC
        LOCFRAME DOVERLAY, 0, STATIC
        ARGFRAME ISTACK, 0, STACK
        ARGFRAME PSTACK, 0, STACK
        ARGFRAME XSTACK, 12, STACK
        ARGFRAME IOVERLAY, 0, STATIC
        ARGFRAME DOVERLAY, 0, STATIC
        FUNCALL ZDO_ParseBindUnbindReq, sAddrExtCpy
        LOCFRAME ISTACK, 0, STACK
        LOCFRAME PSTACK, 0, STACK
        LOCFRAME XSTACK, 12, STACK
        LOCFRAME IOVERLAY, 0, STATIC
        LOCFRAME DOVERLAY, 0, STATIC
        ARGFRAME ISTACK, 0, STACK
        ARGFRAME PSTACK, 0, STACK
        ARGFRAME XSTACK, 12, STACK
        ARGFRAME IOVERLAY, 0, STATIC
        ARGFRAME DOVERLAY, 0, STATIC
        MOV     A,#-0xc
        LCALL   ?BANKED_ENTER_XDATA
        CFI DPH0 load(1, XDATA, add(CFA_XSP16, literal(-1)))
        CFI DPL0 load(1, XDATA, add(CFA_XSP16, literal(-2)))
        CFI ?BRET_EXT load(1, XDATA, add(CFA_XSP16, literal(-3)))
        CFI ?RET_HIGH load(1, XDATA, add(CFA_XSP16, literal(-4)))
        CFI ?RET_LOW load(1, XDATA, add(CFA_XSP16, literal(-5)))
        CFI R7 load(1, XDATA, add(CFA_XSP16, literal(-6)))
        CFI V3 load(1, XDATA, add(CFA_XSP16, literal(-7)))
        CFI V2 load(1, XDATA, add(CFA_XSP16, literal(-8)))
        CFI V1 load(1, XDATA, add(CFA_XSP16, literal(-9)))
        CFI V0 load(1, XDATA, add(CFA_XSP16, literal(-10)))
        CFI VB load(1, XDATA, add(CFA_XSP16, literal(-11)))
        CFI R6 load(1, XDATA, add(CFA_XSP16, literal(-12)))
        CFI CFA_SP SP+0
        CFI CFA_XSP16 add(XSP16, 12)
        ; Saved register size: 12
        ; Auto size: 0
        MOV     ?V0 + 2,R2
        MOV     ?V0 + 3,R3
        MOV     ?V0 + 0,R4
        MOV     ?V0 + 1,R5
// 2505   uint8 *msg;
// 2506 
// 2507   msg = inMsg->asdu;
        MOV     A,?V0 + 2
        ADD     A,#0x13
        MOV     DPL,A
        MOV     A,?V0 + 3
        ADDC    A,#0x0
        MOV     DPH,A
        MOVX    A,@DPTR
        MOV     R0,A
        INC     DPTR
        MOVX    A,@DPTR
        MOV     R1,A
        MOV     A,R0
        MOV     R6,A
        MOV     A,R1
        MOV     R7,A
// 2508   osal_cpyExtAddr( pReq->srcAddress, msg );
        ; Setup parameters for call to function sAddrExtCpy
        MOV     A,R6
        MOV     R4,A
        MOV     A,R7
        MOV     R5,A
        MOV     R2,?V0 + 0
        MOV     R3,?V0 + 1
        LCALL   ??sAddrExtCpy?relay
// 2509   msg += Z_EXTADDR_LEN;
        MOV     A,R6
        ADD     A,#0x8
        MOV     R6,A
        MOV     A,R7
        ADDC    A,#0x0
        MOV     R7,A
// 2510   pReq->srcEndpoint = *msg++;
        MOV     DPL,R6
        MOV     DPH,R7
        MOVX    A,@DPTR
        MOV     DPL,?V0 + 0
        MOV     DPH,?V0 + 1
        INC     DPTR
        INC     DPTR
        INC     DPTR
        INC     DPTR
        INC     DPTR
        INC     DPTR
        INC     DPTR
        INC     DPTR
        MOVX    @DPTR,A
        MOV     DPL,R6
        MOV     DPH,R7
        INC     DPTR
        MOV     R6,DPL
        MOV     R7,DPH
// 2511   pReq->clusterID = BUILD_UINT16( msg[0], msg[1] );
        MOV     DPL,R6
        MOV     DPH,R7
        MOVX    A,@DPTR
        MOV     R2,A
        MOV     R3,#0x0
        MOV     DPL,R6
        MOV     DPH,R7
        INC     DPTR
        MOVX    A,@DPTR
        MOV     R0,A
        MOV     R1,#0x0
        CLR     A
        XCH     A,R0
        MOV     R1,A
        MOV     A,R2
        ADD     A,R0
        MOV     R0,A
        MOV     A,R3
        ADDC    A,R1
        MOV     R1,A
        MOV     DPL,?V0 + 0
        MOV     DPH,?V0 + 1
        INC     DPTR
        INC     DPTR
        INC     DPTR
        INC     DPTR
        INC     DPTR
        INC     DPTR
        INC     DPTR
        INC     DPTR
        INC     DPTR
        MOV     A,R0
        MOVX    @DPTR,A
        INC     DPTR
        MOV     A,R1
        MOVX    @DPTR,A
// 2512   msg += 2;
        MOV     A,R6
        ADD     A,#0x2
        MOV     R6,A
        MOV     A,R7
        ADDC    A,#0x0
        MOV     R7,A
// 2513   pReq->dstAddress.addrMode = *msg++;
        MOV     DPL,R6
        MOV     DPH,R7
        MOVX    A,@DPTR
        PUSH    A
        CFI CFA_SP SP+-1
        MOV     A,?V0 + 0
        ADD     A,#0x13
        MOV     DPL,A
        MOV     A,?V0 + 1
        ADDC    A,#0x0
        MOV     DPH,A
        POP     A
        CFI CFA_SP SP+0
        MOVX    @DPTR,A
        MOV     DPL,R6
        MOV     DPH,R7
        INC     DPTR
        MOV     R6,DPL
        MOV     R7,DPH
// 2514   if ( pReq->dstAddress.addrMode == Addr64Bit )
        MOV     A,?V0 + 0
        ADD     A,#0x13
        MOV     DPL,A
        MOV     A,?V0 + 1
        ADDC    A,#0x0
        MOV     DPH,A
        MOVX    A,@DPTR
        XRL     A,#0x3
        JNZ     ??ZDO_ParseBindUnbindReq_0
// 2515   {
// 2516     osal_cpyExtAddr( pReq->dstAddress.addr.extAddr, msg );
        ; Setup parameters for call to function sAddrExtCpy
        MOV     A,R6
        MOV     R4,A
        MOV     A,R7
        MOV     R5,A
        MOV     A,?V0 + 0
        ADD     A,#0xb
        MOV     R2,A
        MOV     A,?V0 + 1
        ADDC    A,#0x0
        MOV     R3,A
        LCALL   ??sAddrExtCpy?relay
// 2517     msg += Z_EXTADDR_LEN;
        MOV     A,R6
        ADD     A,#0x8
        MOV     R6,A
        MOV     A,R7
        ADDC    A,#0x0
        MOV     R7,A
// 2518     pReq->dstEndpoint = *msg;
        MOV     DPL,R6
        MOV     DPH,R7
        MOVX    A,@DPTR
        PUSH    A
        CFI CFA_SP SP+-1
        MOV     A,?V0 + 0
        ADD     A,#0x14
        MOV     DPL,A
        MOV     A,?V0 + 1
        ADDC    A,#0x0
        MOV     DPH,A
        POP     A
        CFI CFA_SP SP+0
        MOVX    @DPTR,A
        SJMP    ??ZDO_ParseBindUnbindReq_1
// 2519   }
// 2520   else
// 2521   {
// 2522     // copy group address
// 2523     pReq->dstAddress.addr.shortAddr = BUILD_UINT16( msg[0], msg[1] );
??ZDO_ParseBindUnbindReq_0:
        MOV     DPL,R6
        MOV     DPH,R7
        MOVX    A,@DPTR
        MOV     R2,A
        MOV     R3,#0x0
        MOV     DPL,R6
        MOV     DPH,R7
        INC     DPTR
        MOVX    A,@DPTR
        MOV     R0,A
        MOV     R1,#0x0
        CLR     A
        XCH     A,R0
        MOV     R1,A
        MOV     A,R2
        ADD     A,R0
        MOV     R0,A
        MOV     A,R3
        ADDC    A,R1
        MOV     R1,A
        MOV     A,?V0 + 0
        ADD     A,#0xb
        MOV     DPL,A
        MOV     A,?V0 + 1
        ADDC    A,#0x0
        MOV     DPH,A
        MOV     A,R0
        MOVX    @DPTR,A
        INC     DPTR
        MOV     A,R1
        MOVX    @DPTR,A
// 2524   }
// 2525 }
??ZDO_ParseBindUnbindReq_1:
        MOV     R7,#0x4
        LJMP    ?BANKED_LEAVE_XDATA
        CFI EndBlock cfiBlock37
// 2526 
// 2527 /*********************************************************************
// 2528  * @fn      ZDO_ParseAddrRsp
// 2529  *
// 2530  * @brief   Turns the inMsg (incoming message) into the out parsed
// 2531  *          structure.
// 2532  *
// 2533  * @param   inMsg - incoming message
// 2534  *
// 2535  * @return  pointer to parsed structures.  This structure was
// 2536  *          allocated using osal_mem_alloc, so it must be freed
// 2537  *          by the calling function [osal_mem_free()].
// 2538  */

        RSEG BANKED_CODE:CODE:NOROOT(0)
// 2539 ZDO_NwkIEEEAddrResp_t *ZDO_ParseAddrRsp( zdoIncomingMsg_t *inMsg )
ZDO_ParseAddrRsp:
        CFI Block cfiBlock38 Using cfiCommon0
        CFI Function ZDO_ParseAddrRsp
        CODE
// 2540 {
        FUNCALL ZDO_ParseAddrRsp, osal_mem_alloc
        LOCFRAME ISTACK, 0, STACK
        LOCFRAME PSTACK, 0, STACK
        LOCFRAME XSTACK, 16, STACK
        LOCFRAME IOVERLAY, 0, STATIC
        LOCFRAME DOVERLAY, 0, STATIC
        ARGFRAME ISTACK, 0, STACK
        ARGFRAME PSTACK, 0, STACK
        ARGFRAME XSTACK, 16, STACK
        ARGFRAME IOVERLAY, 0, STATIC
        ARGFRAME DOVERLAY, 0, STATIC
        FUNCALL ZDO_ParseAddrRsp, sAddrExtCpy
        LOCFRAME ISTACK, 0, STACK
        LOCFRAME PSTACK, 0, STACK
        LOCFRAME XSTACK, 16, STACK
        LOCFRAME IOVERLAY, 0, STATIC
        LOCFRAME DOVERLAY, 0, STATIC
        ARGFRAME ISTACK, 0, STACK
        ARGFRAME PSTACK, 0, STACK
        ARGFRAME XSTACK, 16, STACK
        ARGFRAME IOVERLAY, 0, STATIC
        ARGFRAME DOVERLAY, 0, STATIC
        MOV     A,#-0x10
        LCALL   ?BANKED_ENTER_XDATA
        CFI DPH0 load(1, XDATA, add(CFA_XSP16, literal(-1)))
        CFI DPL0 load(1, XDATA, add(CFA_XSP16, literal(-2)))
        CFI ?BRET_EXT load(1, XDATA, add(CFA_XSP16, literal(-3)))
        CFI ?RET_HIGH load(1, XDATA, add(CFA_XSP16, literal(-4)))
        CFI ?RET_LOW load(1, XDATA, add(CFA_XSP16, literal(-5)))
        CFI R7 load(1, XDATA, add(CFA_XSP16, literal(-6)))
        CFI V7 load(1, XDATA, add(CFA_XSP16, literal(-7)))
        CFI V6 load(1, XDATA, add(CFA_XSP16, literal(-8)))
        CFI V5 load(1, XDATA, add(CFA_XSP16, literal(-9)))
        CFI V4 load(1, XDATA, add(CFA_XSP16, literal(-10)))
        CFI V3 load(1, XDATA, add(CFA_XSP16, literal(-11)))
        CFI V2 load(1, XDATA, add(CFA_XSP16, literal(-12)))
        CFI V1 load(1, XDATA, add(CFA_XSP16, literal(-13)))
        CFI V0 load(1, XDATA, add(CFA_XSP16, literal(-14)))
        CFI VB load(1, XDATA, add(CFA_XSP16, literal(-15)))
        CFI R6 load(1, XDATA, add(CFA_XSP16, literal(-16)))
        CFI CFA_SP SP+0
        CFI CFA_XSP16 add(XSP16, 16)
        ; Saved register size: 16
        ; Auto size: 0
        MOV     ?V0 + 0,R2
        MOV     ?V0 + 1,R3
// 2541   ZDO_NwkIEEEAddrResp_t *rsp;
// 2542   uint8 *msg;
// 2543   byte cnt = 0;
        MOV     ?V0 + 4,#0x0
// 2544 
// 2545   // Calculate the number of items in the list
// 2546   if ( inMsg->asduLen > (1 + Z_EXTADDR_LEN + 2) )
        MOV     A,?V0 + 0
        ADD     A,#0x10
        MOV     DPL,A
        MOV     A,?V0 + 1
        ADDC    A,#0x0
        MOV     DPH,A
        MOVX    A,@DPTR
        CLR     C
        SUBB    A,#0xc
        JC      ??ZDO_ParseAddrRsp_0
// 2547   {
// 2548     cnt = inMsg->asdu[1 + Z_EXTADDR_LEN + 2];
        MOV     A,?V0 + 0
        ADD     A,#0x13
        MOV     DPL,A
        MOV     A,?V0 + 1
        ADDC    A,#0x0
        MOV     DPH,A
        MOVX    A,@DPTR
        ADD     A,#0xb
        MOV     R0,A
        INC     DPTR
        MOVX    A,@DPTR
        ADDC    A,#0x0
        MOV     R1,A
        MOV     DPL,R0
        MOV     DPH,R1
        MOVX    A,@DPTR
        MOV     ?V0 + 4,A
        SJMP    ??ZDO_ParseAddrRsp_1
// 2549   }
// 2550   else
// 2551   {
// 2552     cnt = 0;
??ZDO_ParseAddrRsp_0:
        MOV     ?V0 + 4,#0x0
// 2553   }
// 2554 
// 2555   // Make buffer
// 2556   rsp = (ZDO_NwkIEEEAddrResp_t *)osal_mem_alloc( sizeof(ZDO_NwkIEEEAddrResp_t) + (cnt * sizeof ( uint16 )) );
??ZDO_ParseAddrRsp_1:
        ; Setup parameters for call to function osal_mem_alloc
        MOV     A,?V0 + 4
        MOV     R0,?V0 + 4
        MOV     R1,#0x0
        MOV     A,R0
        MOV     B,#0x2
        MUL     AB
        XCH     A,R0
        MOV     R2,B
        MOV     B,#0x0
        MUL     AB
        ADD     A,R2
        MOV     R2,A
        MOV     B,#0x2
        MOV     A,R1
        MUL     AB
        ADD     A,R2
        MOV     R1,A
        MOV     A,R0
        ADD     A,#0xd
        MOV     R2,A
        MOV     A,R1
        ADDC    A,#0x0
        MOV     R3,A
        LCALL   ??osal_mem_alloc?relay
        MOV     ?V0 + 6,R2
        MOV     ?V0 + 7,R3
        MOV     R6,?V0 + 6
        MOV     R7,?V0 + 7
// 2557 
// 2558   if ( rsp )
        MOV     A,R6
        ORL     A,R7
        JNZ     $+5
        LJMP    ??ZDO_ParseAddrRsp_2 & 0xFFFF
// 2559   {
// 2560     msg = inMsg->asdu;
        MOV     A,?V0 + 0
        ADD     A,#0x13
        MOV     DPL,A
        MOV     A,?V0 + 1
        ADDC    A,#0x0
        MOV     DPH,A
        MOVX    A,@DPTR
        MOV     R0,A
        INC     DPTR
        MOVX    A,@DPTR
        MOV     R1,A
        MOV     ?V0 + 2,R0
        MOV     ?V0 + 3,R1
// 2561 
// 2562     rsp->status = *msg++;
        MOV     DPL,?V0 + 2
        MOV     DPH,?V0 + 3
        MOVX    A,@DPTR
        MOV     DPL,R6
        MOV     DPH,R7
        MOVX    @DPTR,A
        MOV     DPL,?V0 + 2
        MOV     DPH,?V0 + 3
        INC     DPTR
        MOV     ?V0 + 2,DPL
        MOV     ?V0 + 3,DPH
// 2563     if ( rsp->status == ZDO_SUCCESS )
        MOV     DPL,R6
        MOV     DPH,R7
        MOVX    A,@DPTR
        JZ      $+5
        LJMP    ??ZDO_ParseAddrRsp_2 & 0xFFFF
// 2564     {
// 2565       osal_cpyExtAddr( rsp->extAddr, msg );
        ; Setup parameters for call to function sAddrExtCpy
        MOV     R4,?V0 + 2
        MOV     R5,?V0 + 3
        MOV     A,R6
        ADD     A,#0x3
        MOV     R2,A
        MOV     A,R7
        ADDC    A,#0x0
        MOV     R3,A
        LCALL   ??sAddrExtCpy?relay
// 2566       msg += Z_EXTADDR_LEN;
        MOV     A,?V0 + 2
        ADD     A,#0x8
        MOV     ?V0 + 2,A
        MOV     A,?V0 + 3
        ADDC    A,#0x0
        MOV     ?V0 + 3,A
// 2567       rsp->nwkAddr = BUILD_UINT16( msg[0], msg[1] );
        MOV     DPL,?V0 + 2
        MOV     DPH,?V0 + 3
        MOVX    A,@DPTR
        MOV     R2,A
        MOV     R3,#0x0
        MOV     DPL,?V0 + 2
        MOV     DPH,?V0 + 3
        INC     DPTR
        MOVX    A,@DPTR
        MOV     R0,A
        MOV     R1,#0x0
        CLR     A
        XCH     A,R0
        MOV     R1,A
        MOV     A,R2
        ADD     A,R0
        MOV     R0,A
        MOV     A,R3
        ADDC    A,R1
        MOV     R1,A
        MOV     DPL,R6
        MOV     DPH,R7
        INC     DPTR
        MOV     A,R0
        MOVX    @DPTR,A
        INC     DPTR
        MOV     A,R1
        MOVX    @DPTR,A
// 2568 
// 2569       msg += 2;
        MOV     A,?V0 + 2
        ADD     A,#0x2
        MOV     ?V0 + 2,A
        MOV     A,?V0 + 3
        ADDC    A,#0x0
        MOV     ?V0 + 3,A
// 2570       rsp->numAssocDevs = 0;
        MOV     A,R6
        ADD     A,#0xb
        MOV     DPL,A
        MOV     A,R7
        ADDC    A,#0x0
        MOV     DPH,A
        MOV     A,#0x0
        MOVX    @DPTR,A
// 2571 
// 2572       // StartIndex field is only present if NumAssocDev field is non-zero.
// 2573       if ( cnt > 0 )
        MOV     A,?V0 + 4
        CLR     C
        SUBB    A,#0x1
        JNC     $+5
        LJMP    ??ZDO_ParseAddrRsp_2 & 0xFFFF
// 2574       {
// 2575         uint16 *pList = &(rsp->devList[0]);
        MOV     A,R6
        ADD     A,#0xd
        MOV     R0,A
        MOV     A,R7
        ADDC    A,#0x0
        MOV     R1,A
// 2576         byte n = cnt;
        MOV     ?V0 + 5,?V0 + 4
// 2577 
// 2578         rsp->numAssocDevs = *msg++;
        MOV     DPL,?V0 + 2
        MOV     DPH,?V0 + 3
        MOVX    A,@DPTR
        PUSH    A
        CFI CFA_SP SP+-1
        MOV     A,R6
        ADD     A,#0xb
        MOV     DPL,A
        MOV     A,R7
        ADDC    A,#0x0
        MOV     DPH,A
        POP     A
        CFI CFA_SP SP+0
        MOVX    @DPTR,A
        MOV     DPL,?V0 + 2
        MOV     DPH,?V0 + 3
        INC     DPTR
        MOV     ?V0 + 2,DPL
        MOV     ?V0 + 3,DPH
// 2579         rsp->startIndex = *msg++;
        MOV     DPL,?V0 + 2
        MOV     DPH,?V0 + 3
        MOVX    A,@DPTR
        PUSH    A
        CFI CFA_SP SP+-1
        MOV     A,R6
        ADD     A,#0xc
        MOV     DPL,A
        MOV     A,R7
        ADDC    A,#0x0
        MOV     DPH,A
        POP     A
        CFI CFA_SP SP+0
        MOVX    @DPTR,A
        MOV     DPL,?V0 + 2
        MOV     DPH,?V0 + 3
        INC     DPTR
        MOV     ?V0 + 2,DPL
        MOV     ?V0 + 3,DPH
// 2580 
// 2581         while ( n != 0 )
??ZDO_ParseAddrRsp_3:
        MOV     A,?V0 + 5
        JZ      ??ZDO_ParseAddrRsp_2
// 2582         {
// 2583           *pList++ = BUILD_UINT16( msg[0], msg[1] );
        MOV     DPL,?V0 + 2
        MOV     DPH,?V0 + 3
        MOVX    A,@DPTR
        MOV     R4,A
        MOV     R5,#0x0
        MOV     DPL,?V0 + 2
        MOV     DPH,?V0 + 3
        INC     DPTR
        MOVX    A,@DPTR
        MOV     R2,A
        MOV     R3,#0x0
        CLR     A
        XCH     A,R2
        MOV     R3,A
        MOV     A,R4
        ADD     A,R2
        MOV     R2,A
        MOV     A,R5
        ADDC    A,R3
        MOV     R3,A
        MOV     DPL,R0
        MOV     DPH,R1
        MOV     A,R2
        MOVX    @DPTR,A
        INC     DPTR
        MOV     A,R3
        MOVX    @DPTR,A
        MOV     A,R0
        ADD     A,#0x2
        MOV     R0,A
        MOV     A,R1
        ADDC    A,#0x0
        MOV     R1,A
// 2584           msg += sizeof( uint16 );
        MOV     A,?V0 + 2
        ADD     A,#0x2
        MOV     ?V0 + 2,A
        MOV     A,?V0 + 3
        ADDC    A,#0x0
        MOV     ?V0 + 3,A
// 2585           n--;
        DEC     ?V0 + 5
        SJMP    ??ZDO_ParseAddrRsp_3
// 2586         }
// 2587       }
// 2588     }
// 2589   }
// 2590 
// 2591   return ( rsp );
??ZDO_ParseAddrRsp_2:
        MOV     A,R6
        MOV     R2,A
        MOV     A,R7
        MOV     R3,A
        MOV     R7,#0x8
        LJMP    ?BANKED_LEAVE_XDATA
        CFI EndBlock cfiBlock38
// 2592 }
// 2593 
// 2594 /*********************************************************************
// 2595  * @fn          ZDO_ParseNodeDescRsp
// 2596  *
// 2597  * @brief       This function parses the Node_Desc_rsp message.
// 2598  *
// 2599  * @param       inMsg - incoming message
// 2600  * @param       pNDRsp - place to parse the message into
// 2601  *
// 2602  * @return      none
// 2603  */

        RSEG BANKED_CODE:CODE:NOROOT(0)
// 2604 void ZDO_ParseNodeDescRsp( zdoIncomingMsg_t *inMsg, ZDO_NodeDescRsp_t *pNDRsp )
ZDO_ParseNodeDescRsp:
        CFI Block cfiBlock39 Using cfiCommon0
        CFI Function ZDO_ParseNodeDescRsp
        CODE
// 2605 {
        MOV     A,#-0xa
        LCALL   ?BANKED_ENTER_XDATA
        CFI DPH0 load(1, XDATA, add(CFA_XSP16, literal(-1)))
        CFI DPL0 load(1, XDATA, add(CFA_XSP16, literal(-2)))
        CFI ?BRET_EXT load(1, XDATA, add(CFA_XSP16, literal(-3)))
        CFI ?RET_HIGH load(1, XDATA, add(CFA_XSP16, literal(-4)))
        CFI ?RET_LOW load(1, XDATA, add(CFA_XSP16, literal(-5)))
        CFI R7 load(1, XDATA, add(CFA_XSP16, literal(-6)))
        CFI V1 load(1, XDATA, add(CFA_XSP16, literal(-7)))
        CFI V0 load(1, XDATA, add(CFA_XSP16, literal(-8)))
        CFI VB load(1, XDATA, add(CFA_XSP16, literal(-9)))
        CFI R6 load(1, XDATA, add(CFA_XSP16, literal(-10)))
        CFI CFA_SP SP+0
        CFI CFA_XSP16 add(XSP16, 10)
        ; Saved register size: 10
        ; Auto size: 0
// 2606   uint8 *msg;
// 2607 
// 2608   msg = inMsg->asdu;
        MOV     A,R2
        ADD     A,#0x13
        MOV     DPL,A
        MOV     A,R3
        ADDC    A,#0x0
        MOV     DPH,A
        MOVX    A,@DPTR
        MOV     R6,A
        INC     DPTR
        MOVX    A,@DPTR
        MOV     R7,A
        MOV     A,R6
        MOV     R0,A
        MOV     A,R7
        MOV     R1,A
// 2609 
// 2610   pNDRsp->status = *msg++;
        MOV     DPL,R0
        MOV     DPH,R1
        MOVX    A,@DPTR
        MOV     DPL,R4
        MOV     DPH,R5
        MOVX    @DPTR,A
        MOV     DPL,R0
        MOV     DPH,R1
        INC     DPTR
        MOV     R0,DPL
        MOV     R1,DPH
// 2611   pNDRsp->nwkAddr = BUILD_UINT16( msg[0], msg[1] );
        MOV     DPL,R0
        MOV     DPH,R1
        MOVX    A,@DPTR
        MOV     ?V0 + 0,A
        MOV     ?V0 + 1,#0x0
        MOV     DPL,R0
        MOV     DPH,R1
        INC     DPTR
        MOVX    A,@DPTR
        MOV     R6,A
        MOV     R7,#0x0
        CLR     A
        XCH     A,R6
        MOV     R7,A
        MOV     A,?V0 + 0
        ADD     A,R6
        MOV     R6,A
        MOV     A,?V0 + 1
        ADDC    A,R7
        MOV     R7,A
        MOV     DPL,R4
        MOV     DPH,R5
        INC     DPTR
        MOV     A,R6
        MOVX    @DPTR,A
        INC     DPTR
        MOV     A,R7
        MOVX    @DPTR,A
// 2612 
// 2613   if ( pNDRsp->status == ZDP_SUCCESS )
        MOV     DPL,R4
        MOV     DPH,R5
        MOVX    A,@DPTR
        JZ      $+5
        LJMP    ??ZDO_ParseNodeDescRsp_0 & 0xFFFF
// 2614   {
// 2615     msg += 2;
        MOV     A,R0
        ADD     A,#0x2
        MOV     R0,A
        MOV     A,R1
        ADDC    A,#0x0
        MOV     R1,A
// 2616     pNDRsp->nodeDesc.LogicalType = *msg & 0x07;
        MOV     DPL,R0
        MOV     DPH,R1
        MOVX    A,@DPTR
        ANL     A,#0x7
        MOV     R6,A
        MOV     DPL,R4
        MOV     DPH,R5
        INC     DPTR
        INC     DPTR
        INC     DPTR
        MOVX    A,@DPTR
        ANL     A,#0xf8
        ORL     A,R6
        MOV     DPL,R4
        MOV     DPH,R5
        INC     DPTR
        INC     DPTR
        INC     DPTR
        MOVX    @DPTR,A
// 2617 
// 2618     pNDRsp->nodeDesc.ComplexDescAvail = ( *msg & 0x08 ) >> 3;
        MOV     DPL,R4
        MOV     DPH,R5
        INC     DPTR
        INC     DPTR
        INC     DPTR
        PUSH    DPL
        CFI CFA_SP SP+-1
        PUSH    DPH
        CFI CFA_SP SP+-2
        MOV     DPL,R0
        MOV     DPH,R1
        MOVX    A,@DPTR
        MOV     C,0xE0 /* A   */.3
        POP     DPH
        CFI CFA_SP SP+-1
        POP     DPL
        CFI CFA_SP SP+0
        MOVX    A,@DPTR
        MOV     0xE0 /* A   */.3,C
        MOVX    @DPTR,A
// 2619     pNDRsp->nodeDesc.UserDescAvail = ( *msg & 0x10 ) >> 4;
        MOV     DPL,R4
        MOV     DPH,R5
        INC     DPTR
        INC     DPTR
        INC     DPTR
        PUSH    DPL
        CFI CFA_SP SP+-1
        PUSH    DPH
        CFI CFA_SP SP+-2
        MOV     DPL,R0
        MOV     DPH,R1
        MOVX    A,@DPTR
        MOV     C,0xE0 /* A   */.4
        POP     DPH
        CFI CFA_SP SP+-1
        POP     DPL
        CFI CFA_SP SP+0
        MOVX    A,@DPTR
        MOV     0xE0 /* A   */.4,C
        MOVX    @DPTR,A
// 2620 
// 2621     msg++;  // Reserved bits.
        MOV     DPL,R0
        MOV     DPH,R1
        INC     DPTR
        MOV     R0,DPL
        MOV     R1,DPH
// 2622     pNDRsp->nodeDesc.FrequencyBand = (*msg >> 3) & 0x1f;
        MOV     DPL,R4
        MOV     DPH,R5
        INC     DPTR
        INC     DPTR
        INC     DPTR
        INC     DPTR
        MOVX    A,@DPTR
        ANL     A,#0x7
        MOV     R6,A
        MOV     DPL,R0
        MOV     DPH,R1
        MOVX    A,@DPTR
        ANL     A,#0xf8
        ORL     A,R6
        MOV     DPL,R4
        MOV     DPH,R5
        INC     DPTR
        INC     DPTR
        INC     DPTR
        INC     DPTR
        MOVX    @DPTR,A
// 2623     pNDRsp->nodeDesc.APSFlags = *msg++ & 0x07;
        MOV     DPL,R0
        MOV     DPH,R1
        MOVX    A,@DPTR
        ANL     A,#0x7
        MOV     R6,A
        MOV     DPL,R0
        MOV     DPH,R1
        INC     DPTR
        MOV     R0,DPL
        MOV     R1,DPH
        MOV     A,#0x7
        ANL     A,R6
        MOV     R6,A
        MOV     DPL,R4
        MOV     DPH,R5
        INC     DPTR
        INC     DPTR
        INC     DPTR
        INC     DPTR
        MOVX    A,@DPTR
        ANL     A,#0xf8
        ORL     A,R6
        MOV     DPL,R4
        MOV     DPH,R5
        INC     DPTR
        INC     DPTR
        INC     DPTR
        INC     DPTR
        MOVX    @DPTR,A
// 2624     pNDRsp->nodeDesc.CapabilityFlags = *msg++;
        MOV     DPL,R0
        MOV     DPH,R1
        MOVX    A,@DPTR
        MOV     DPL,R4
        MOV     DPH,R5
        INC     DPTR
        INC     DPTR
        INC     DPTR
        INC     DPTR
        INC     DPTR
        MOVX    @DPTR,A
        MOV     DPL,R0
        MOV     DPH,R1
        INC     DPTR
        MOV     R0,DPL
        MOV     R1,DPH
// 2625     pNDRsp->nodeDesc.ManufacturerCode[0] = *msg++;
        MOV     DPL,R0
        MOV     DPH,R1
        MOVX    A,@DPTR
        MOV     DPL,R4
        MOV     DPH,R5
        INC     DPTR
        INC     DPTR
        INC     DPTR
        INC     DPTR
        INC     DPTR
        INC     DPTR
        MOVX    @DPTR,A
        MOV     DPL,R0
        MOV     DPH,R1
        INC     DPTR
        MOV     R0,DPL
        MOV     R1,DPH
// 2626     pNDRsp->nodeDesc.ManufacturerCode[1] = *msg++;
        MOV     DPL,R0
        MOV     DPH,R1
        MOVX    A,@DPTR
        MOV     DPL,R4
        MOV     DPH,R5
        INC     DPTR
        INC     DPTR
        INC     DPTR
        INC     DPTR
        INC     DPTR
        INC     DPTR
        INC     DPTR
        MOVX    @DPTR,A
        MOV     DPL,R0
        MOV     DPH,R1
        INC     DPTR
        MOV     R0,DPL
        MOV     R1,DPH
// 2627     pNDRsp->nodeDesc.MaxBufferSize = *msg++;
        MOV     DPL,R0
        MOV     DPH,R1
        MOVX    A,@DPTR
        MOV     DPL,R4
        MOV     DPH,R5
        INC     DPTR
        INC     DPTR
        INC     DPTR
        INC     DPTR
        INC     DPTR
        INC     DPTR
        INC     DPTR
        INC     DPTR
        MOVX    @DPTR,A
        MOV     DPL,R0
        MOV     DPH,R1
        INC     DPTR
        MOV     R0,DPL
        MOV     R1,DPH
// 2628     pNDRsp->nodeDesc.MaxInTransferSize[0] = *msg++;
        MOV     DPL,R0
        MOV     DPH,R1
        MOVX    A,@DPTR
        MOV     DPL,R4
        MOV     DPH,R5
        INC     DPTR
        INC     DPTR
        INC     DPTR
        INC     DPTR
        INC     DPTR
        INC     DPTR
        INC     DPTR
        INC     DPTR
        INC     DPTR
        MOVX    @DPTR,A
        MOV     DPL,R0
        MOV     DPH,R1
        INC     DPTR
        MOV     R0,DPL
        MOV     R1,DPH
// 2629     pNDRsp->nodeDesc.MaxInTransferSize[1] = *msg++;
        MOV     DPL,R0
        MOV     DPH,R1
        MOVX    A,@DPTR
        MOV     DPL,R4
        MOV     DPH,R5
        INC     DPTR
        INC     DPTR
        INC     DPTR
        INC     DPTR
        INC     DPTR
        INC     DPTR
        INC     DPTR
        INC     DPTR
        INC     DPTR
        INC     DPTR
        MOVX    @DPTR,A
        MOV     DPL,R0
        MOV     DPH,R1
        INC     DPTR
        MOV     R0,DPL
        MOV     R1,DPH
// 2630     pNDRsp->nodeDesc.ServerMask = BUILD_UINT16( msg[0], msg[1] );
        MOV     DPL,R0
        MOV     DPH,R1
        MOVX    A,@DPTR
        MOV     ?V0 + 0,A
        MOV     ?V0 + 1,#0x0
        MOV     DPL,R0
        MOV     DPH,R1
        INC     DPTR
        MOVX    A,@DPTR
        MOV     R6,A
        MOV     R7,#0x0
        CLR     A
        XCH     A,R6
        MOV     R7,A
        MOV     A,?V0 + 0
        ADD     A,R6
        MOV     R6,A
        MOV     A,?V0 + 1
        ADDC    A,R7
        MOV     R7,A
        MOV     A,R4
        ADD     A,#0xb
        MOV     DPL,A
        MOV     A,R5
        ADDC    A,#0x0
        MOV     DPH,A
        MOV     A,R6
        MOVX    @DPTR,A
        INC     DPTR
        MOV     A,R7
        MOVX    @DPTR,A
// 2631     msg += 2;
        MOV     A,R0
        ADD     A,#0x2
        MOV     R0,A
        MOV     A,R1
        ADDC    A,#0x0
        MOV     R1,A
// 2632     pNDRsp->nodeDesc.MaxOutTransferSize[0] = *msg++;
        MOV     DPL,R0
        MOV     DPH,R1
        MOVX    A,@DPTR
        PUSH    A
        CFI CFA_SP SP+-1
        MOV     A,R4
        ADD     A,#0xd
        MOV     DPL,A
        MOV     A,R5
        ADDC    A,#0x0
        MOV     DPH,A
        POP     A
        CFI CFA_SP SP+0
        MOVX    @DPTR,A
        MOV     DPL,R0
        MOV     DPH,R1
        INC     DPTR
        MOV     R0,DPL
        MOV     R1,DPH
// 2633     pNDRsp->nodeDesc.MaxOutTransferSize[1] = *msg++;
        MOV     DPL,R0
        MOV     DPH,R1
        MOVX    A,@DPTR
        PUSH    A
        CFI CFA_SP SP+-1
        MOV     A,R4
        ADD     A,#0xe
        MOV     DPL,A
        MOV     A,R5
        ADDC    A,#0x0
        MOV     DPH,A
        POP     A
        CFI CFA_SP SP+0
        MOVX    @DPTR,A
        MOV     DPL,R0
        MOV     DPH,R1
        INC     DPTR
        MOV     R0,DPL
        MOV     R1,DPH
// 2634     pNDRsp->nodeDesc.DescriptorCapability = *msg;
        MOV     DPL,R0
        MOV     DPH,R1
        MOVX    A,@DPTR
        PUSH    A
        CFI CFA_SP SP+-1
        MOV     A,R4
        ADD     A,#0xf
        MOV     DPL,A
        MOV     A,R5
        ADDC    A,#0x0
        MOV     DPH,A
        POP     A
        CFI CFA_SP SP+0
        MOVX    @DPTR,A
// 2635   }
// 2636 }
??ZDO_ParseNodeDescRsp_0:
        MOV     R7,#0x2
        LJMP    ?BANKED_LEAVE_XDATA
        CFI EndBlock cfiBlock39
// 2637 
// 2638 /*********************************************************************
// 2639  * @fn          ZDO_ParesPowerDescRsp
// 2640  *
// 2641  * @brief       This function parses the Power_Desc_rsp message.
// 2642  *
// 2643  * @param       inMsg  - incoming message
// 2644  * @param       pNPRsp - place to parse the message into
// 2645  *
// 2646  * @return      none
// 2647  */

        RSEG BANKED_CODE:CODE:NOROOT(0)
// 2648 void ZDO_ParsePowerDescRsp( zdoIncomingMsg_t *inMsg, ZDO_PowerRsp_t *pNPRsp )
ZDO_ParsePowerDescRsp:
        CFI Block cfiBlock40 Using cfiCommon0
        CFI Function ZDO_ParsePowerDescRsp
        CODE
// 2649 {
        MOV     A,#-0xa
        LCALL   ?BANKED_ENTER_XDATA
        CFI DPH0 load(1, XDATA, add(CFA_XSP16, literal(-1)))
        CFI DPL0 load(1, XDATA, add(CFA_XSP16, literal(-2)))
        CFI ?BRET_EXT load(1, XDATA, add(CFA_XSP16, literal(-3)))
        CFI ?RET_HIGH load(1, XDATA, add(CFA_XSP16, literal(-4)))
        CFI ?RET_LOW load(1, XDATA, add(CFA_XSP16, literal(-5)))
        CFI R7 load(1, XDATA, add(CFA_XSP16, literal(-6)))
        CFI V1 load(1, XDATA, add(CFA_XSP16, literal(-7)))
        CFI V0 load(1, XDATA, add(CFA_XSP16, literal(-8)))
        CFI VB load(1, XDATA, add(CFA_XSP16, literal(-9)))
        CFI R6 load(1, XDATA, add(CFA_XSP16, literal(-10)))
        CFI CFA_SP SP+0
        CFI CFA_XSP16 add(XSP16, 10)
        ; Saved register size: 10
        ; Auto size: 0
        MOV     A,R2
        MOV     R6,A
        MOV     A,R3
        MOV     R7,A
// 2650   uint8 *msg;
// 2651 
// 2652   msg = inMsg->asdu;
        MOV     A,R6
        ADD     A,#0x13
        MOV     DPL,A
        MOV     A,R7
        ADDC    A,#0x0
        MOV     DPH,A
        MOVX    A,@DPTR
        MOV     R2,A
        INC     DPTR
        MOVX    A,@DPTR
        MOV     R3,A
        MOV     A,R2
        MOV     R0,A
        MOV     A,R3
        MOV     R1,A
// 2653   pNPRsp->status = *msg++;
        MOV     DPL,R0
        MOV     DPH,R1
        MOVX    A,@DPTR
        MOV     DPL,R4
        MOV     DPH,R5
        MOVX    @DPTR,A
        MOV     DPL,R0
        MOV     DPH,R1
        INC     DPTR
        MOV     R0,DPL
        MOV     R1,DPH
// 2654   pNPRsp->nwkAddr = BUILD_UINT16( msg[0], msg[1] );
        MOV     DPL,R0
        MOV     DPH,R1
        MOVX    A,@DPTR
        MOV     ?V0 + 0,A
        MOV     ?V0 + 1,#0x0
        MOV     DPL,R0
        MOV     DPH,R1
        INC     DPTR
        MOVX    A,@DPTR
        MOV     R2,A
        MOV     R3,#0x0
        CLR     A
        XCH     A,R2
        MOV     R3,A
        MOV     A,?V0 + 0
        ADD     A,R2
        MOV     R2,A
        MOV     A,?V0 + 1
        ADDC    A,R3
        MOV     R3,A
        MOV     DPL,R4
        MOV     DPH,R5
        INC     DPTR
        MOV     A,R2
        MOVX    @DPTR,A
        INC     DPTR
        MOV     A,R3
        MOVX    @DPTR,A
// 2655 
// 2656   if ( pNPRsp->status == ZDP_SUCCESS )
        MOV     DPL,R4
        MOV     DPH,R5
        MOVX    A,@DPTR
        JZ      $+5
        LJMP    ??ZDO_ParsePowerDescRsp_0 & 0xFFFF
// 2657   {
// 2658     msg += 2;
        MOV     A,R0
        ADD     A,#0x2
        MOV     R0,A
        MOV     A,R1
        ADDC    A,#0x0
        MOV     R1,A
// 2659     pNPRsp->pwrDesc.AvailablePowerSources = *msg >> 4;
        MOV     DPL,R4
        MOV     DPH,R5
        INC     DPTR
        INC     DPTR
        INC     DPTR
        MOVX    A,@DPTR
        ANL     A,#0xf
        MOV     R2,A
        INC     DPTR
        MOVX    A,@DPTR
        ANL     A,#0xff
        MOV     R3,A
        MOV     DPL,R0
        MOV     DPH,R1
        MOVX    A,@DPTR
        MOV     ?V0 + 0,A
        MOV     ?V0 + 1,#0x0
        MOV     A,?V0 + 0
        ANL     A,#0xf0
        MOV     ?V0 + 0,A
        MOV     A,?V0 + 1
        ANL     A,#0x0
        MOV     ?V0 + 1,A
        MOV     A,R2
        ORL     A,?V0 + 0
        MOV     R2,A
        MOV     A,R3
        ORL     A,?V0 + 1
        MOV     R3,A
        MOV     DPL,R4
        MOV     DPH,R5
        INC     DPTR
        INC     DPTR
        INC     DPTR
        MOV     A,R2
        MOVX    @DPTR,A
        INC     DPTR
        MOV     A,R3
        MOVX    @DPTR,A
// 2660     pNPRsp->pwrDesc.PowerMode = *msg++ & 0x0F;
        MOV     DPL,R0
        MOV     DPH,R1
        MOVX    A,@DPTR
        MOV     R2,A
        MOV     R3,#0x0
        ANL     A,#0xf
        MOV     R2,A
        MOV     A,R3
        ANL     A,#0x0
        MOV     R3,A
        MOV     DPL,R0
        MOV     DPH,R1
        INC     DPTR
        MOV     R0,DPL
        MOV     R1,DPH
        MOV     DPL,R4
        MOV     DPH,R5
        INC     DPTR
        INC     DPTR
        INC     DPTR
        MOVX    A,@DPTR
        ANL     A,#0xf0
        MOV     ?V0 + 0,A
        INC     DPTR
        MOVX    A,@DPTR
        ANL     A,#0xff
        MOV     ?V0 + 1,A
        MOV     A,R2
        ANL     A,#0xf
        MOV     R2,A
        MOV     A,R3
        ANL     A,#0x0
        MOV     R3,A
        MOV     A,?V0 + 0
        ORL     A,R2
        MOV     R2,A
        MOV     A,?V0 + 1
        ORL     A,R3
        MOV     R3,A
        MOV     DPL,R4
        MOV     DPH,R5
        INC     DPTR
        INC     DPTR
        INC     DPTR
        MOV     A,R2
        MOVX    @DPTR,A
        INC     DPTR
        MOV     A,R3
        MOVX    @DPTR,A
// 2661     pNPRsp->pwrDesc.CurrentPowerSourceLevel = *msg >> 4;
        MOV     DPL,R0
        MOV     DPH,R1
        MOVX    A,@DPTR
        MOV     R2,A
        MOV     R3,#0x0
        CLR     A
        XCH     A,R2
        MOV     R3,A
        MOV     A,R2
        ANL     A,#0x0
        MOV     ?V0 + 0,A
        MOV     A,R3
        ANL     A,#0xf0
        MOV     ?V0 + 1,A
        MOV     DPL,R4
        MOV     DPH,R5
        INC     DPTR
        INC     DPTR
        INC     DPTR
        MOVX    A,@DPTR
        ANL     A,#0xff
        MOV     R2,A
        INC     DPTR
        MOVX    A,@DPTR
        ANL     A,#0xf
        MOV     R3,A
        MOV     A,?V0 + 0
        ORL     A,R2
        MOV     R2,A
        MOV     A,?V0 + 1
        ORL     A,R3
        MOV     R3,A
        MOV     DPL,R4
        MOV     DPH,R5
        INC     DPTR
        INC     DPTR
        INC     DPTR
        MOV     A,R2
        MOVX    @DPTR,A
        INC     DPTR
        MOV     A,R3
        MOVX    @DPTR,A
// 2662     pNPRsp->pwrDesc.CurrentPowerSource = *msg++ & 0x0F;
        MOV     DPL,R0
        MOV     DPH,R1
        MOVX    A,@DPTR
        MOV     R2,A
        MOV     R3,#0x0
        ANL     A,#0xf
        MOV     R2,A
        MOV     A,R3
        ANL     A,#0x0
        MOV     R3,A
        MOV     DPL,R0
        MOV     DPH,R1
        INC     DPTR
        MOV     R0,DPL
        MOV     R1,DPH
        MOV     DPL,R4
        MOV     DPH,R5
        INC     DPTR
        INC     DPTR
        INC     DPTR
        MOVX    A,@DPTR
        ANL     A,#0xff
        MOV     ?V0 + 0,A
        INC     DPTR
        MOVX    A,@DPTR
        ANL     A,#0xf0
        MOV     ?V0 + 1,A
        CLR     A
        XCH     A,R2
        MOV     R3,A
        MOV     A,R2
        ANL     A,#0x0
        MOV     R2,A
        MOV     A,R3
        ANL     A,#0xf
        MOV     R3,A
        MOV     A,?V0 + 0
        ORL     A,R2
        MOV     R2,A
        MOV     A,?V0 + 1
        ORL     A,R3
        MOV     R3,A
        MOV     DPL,R4
        MOV     DPH,R5
        INC     DPTR
        INC     DPTR
        INC     DPTR
        MOV     A,R2
        MOVX    @DPTR,A
        INC     DPTR
        MOV     A,R3
        MOVX    @DPTR,A
// 2663   }
// 2664 }
??ZDO_ParsePowerDescRsp_0:
        MOV     R7,#0x2
        LJMP    ?BANKED_LEAVE_XDATA
        CFI EndBlock cfiBlock40
// 2665 
// 2666 /*********************************************************************
// 2667  * @fn          ZDO_ParseSimpleDescRsp
// 2668  *
// 2669  * @brief       This function parse the Simple_Desc_rsp message.
// 2670  *
// 2671  *   NOTE: The pAppInClusterList and pAppOutClusterList fields
// 2672  *         in the SimpleDescriptionFormat_t structure are allocated
// 2673  *         and the calling function needs to free [osal_msg_free()]
// 2674  *         these buffers.
// 2675  *
// 2676  * @param       inMsg  - incoming message
// 2677  * @param       pSimpleDescRsp - place to parse the message into
// 2678  *
// 2679  * @return      none
// 2680  */

        RSEG BANKED_CODE:CODE:NOROOT(0)
// 2681 void ZDO_ParseSimpleDescRsp( zdoIncomingMsg_t *inMsg, ZDO_SimpleDescRsp_t *pSimpleDescRsp )
ZDO_ParseSimpleDescRsp:
        CFI Block cfiBlock41 Using cfiCommon0
        CFI Function ZDO_ParseSimpleDescRsp
        CODE
// 2682 {
        FUNCALL ZDO_ParseSimpleDescRsp, ZDO_ParseSimpleDescBuf
        LOCFRAME ISTACK, 0, STACK
        LOCFRAME PSTACK, 0, STACK
        LOCFRAME XSTACK, 12, STACK
        LOCFRAME IOVERLAY, 0, STATIC
        LOCFRAME DOVERLAY, 0, STATIC
        ARGFRAME ISTACK, 0, STACK
        ARGFRAME PSTACK, 0, STACK
        ARGFRAME XSTACK, 12, STACK
        ARGFRAME IOVERLAY, 0, STATIC
        ARGFRAME DOVERLAY, 0, STATIC
        MOV     A,#-0xc
        LCALL   ?BANKED_ENTER_XDATA
        CFI DPH0 load(1, XDATA, add(CFA_XSP16, literal(-1)))
        CFI DPL0 load(1, XDATA, add(CFA_XSP16, literal(-2)))
        CFI ?BRET_EXT load(1, XDATA, add(CFA_XSP16, literal(-3)))
        CFI ?RET_HIGH load(1, XDATA, add(CFA_XSP16, literal(-4)))
        CFI ?RET_LOW load(1, XDATA, add(CFA_XSP16, literal(-5)))
        CFI R7 load(1, XDATA, add(CFA_XSP16, literal(-6)))
        CFI V3 load(1, XDATA, add(CFA_XSP16, literal(-7)))
        CFI V2 load(1, XDATA, add(CFA_XSP16, literal(-8)))
        CFI V1 load(1, XDATA, add(CFA_XSP16, literal(-9)))
        CFI V0 load(1, XDATA, add(CFA_XSP16, literal(-10)))
        CFI VB load(1, XDATA, add(CFA_XSP16, literal(-11)))
        CFI R6 load(1, XDATA, add(CFA_XSP16, literal(-12)))
        CFI CFA_SP SP+0
        CFI CFA_XSP16 add(XSP16, 12)
        ; Saved register size: 12
        ; Auto size: 0
        MOV     ?V0 + 0,R2
        MOV     ?V0 + 1,R3
        MOV     ?V0 + 2,R4
        MOV     ?V0 + 3,R5
// 2683   uint8 *msg;
// 2684 
// 2685   msg = inMsg->asdu;
        MOV     A,?V0 + 0
        ADD     A,#0x13
        MOV     DPL,A
        MOV     A,?V0 + 1
        ADDC    A,#0x0
        MOV     DPH,A
        MOVX    A,@DPTR
        MOV     R0,A
        INC     DPTR
        MOVX    A,@DPTR
        MOV     R1,A
        MOV     A,R0
        MOV     R6,A
        MOV     A,R1
        MOV     R7,A
// 2686   pSimpleDescRsp->status = *msg++;
        MOV     DPL,R6
        MOV     DPH,R7
        MOVX    A,@DPTR
        MOV     DPL,?V0 + 2
        MOV     DPH,?V0 + 3
        MOVX    @DPTR,A
        MOV     DPL,R6
        MOV     DPH,R7
        INC     DPTR
        MOV     R6,DPL
        MOV     R7,DPH
// 2687   pSimpleDescRsp->nwkAddr = BUILD_UINT16( msg[0], msg[1] );
        MOV     DPL,R6
        MOV     DPH,R7
        MOVX    A,@DPTR
        MOV     R2,A
        MOV     R3,#0x0
        MOV     DPL,R6
        MOV     DPH,R7
        INC     DPTR
        MOVX    A,@DPTR
        MOV     R0,A
        MOV     R1,#0x0
        CLR     A
        XCH     A,R0
        MOV     R1,A
        MOV     A,R2
        ADD     A,R0
        MOV     R0,A
        MOV     A,R3
        ADDC    A,R1
        MOV     R1,A
        MOV     DPL,?V0 + 2
        MOV     DPH,?V0 + 3
        INC     DPTR
        MOV     A,R0
        MOVX    @DPTR,A
        INC     DPTR
        MOV     A,R1
        MOVX    @DPTR,A
// 2688   msg += sizeof ( uint16 );
        MOV     A,R6
        ADD     A,#0x2
        MOV     R6,A
        MOV     A,R7
        ADDC    A,#0x0
        MOV     R7,A
// 2689   msg++; // Skip past the length field.
        MOV     DPL,R6
        MOV     DPH,R7
        INC     DPTR
        MOV     R6,DPL
        MOV     R7,DPH
// 2690 
// 2691   if ( pSimpleDescRsp->status == ZDP_SUCCESS )
        MOV     DPL,?V0 + 2
        MOV     DPH,?V0 + 3
        MOVX    A,@DPTR
        JNZ     ??ZDO_ParseSimpleDescRsp_0
// 2692   {
// 2693     ZDO_ParseSimpleDescBuf( msg, &(pSimpleDescRsp->simpleDesc) );
        ; Setup parameters for call to function ZDO_ParseSimpleDescBuf
        MOV     A,?V0 + 2
        ADD     A,#0x3
        MOV     R4,A
        MOV     A,?V0 + 3
        ADDC    A,#0x0
        MOV     R5,A
        MOV     A,R6
        MOV     R2,A
        MOV     A,R7
        MOV     R3,A
        LCALL   ??ZDO_ParseSimpleDescBuf?relay
        MOV     A,R1
// 2694   }
// 2695 }
??ZDO_ParseSimpleDescRsp_0:
        MOV     R7,#0x4
        LJMP    ?BANKED_LEAVE_XDATA
        CFI EndBlock cfiBlock41
// 2696 
// 2697 /*********************************************************************
// 2698  * @fn          ZDO_ParseEPListRsp
// 2699  *
// 2700  * @brief       This parse the Active_EP_rsp or Match_Desc_rsp message.
// 2701  *
// 2702  * @param       inMsg  - incoming message
// 2703  *
// 2704  * @return      none
// 2705  */

        RSEG BANKED_CODE:CODE:NOROOT(0)
// 2706 ZDO_ActiveEndpointRsp_t *ZDO_ParseEPListRsp( zdoIncomingMsg_t *inMsg )
ZDO_ParseEPListRsp:
        CFI Block cfiBlock42 Using cfiCommon0
        CFI Function ZDO_ParseEPListRsp
        CODE
// 2707 {
        FUNCALL ZDO_ParseEPListRsp, osal_mem_alloc
        LOCFRAME ISTACK, 0, STACK
        LOCFRAME PSTACK, 0, STACK
        LOCFRAME XSTACK, 17, STACK
        LOCFRAME IOVERLAY, 0, STATIC
        LOCFRAME DOVERLAY, 0, STATIC
        ARGFRAME ISTACK, 0, STACK
        ARGFRAME PSTACK, 0, STACK
        ARGFRAME XSTACK, 17, STACK
        ARGFRAME IOVERLAY, 0, STATIC
        ARGFRAME DOVERLAY, 0, STATIC
        FUNCALL ZDO_ParseEPListRsp, osal_memcpy
        LOCFRAME ISTACK, 0, STACK
        LOCFRAME PSTACK, 0, STACK
        LOCFRAME XSTACK, 20, STACK
        LOCFRAME IOVERLAY, 0, STATIC
        LOCFRAME DOVERLAY, 0, STATIC
        ARGFRAME ISTACK, 0, STACK
        ARGFRAME PSTACK, 0, STACK
        ARGFRAME XSTACK, 20, STACK
        ARGFRAME IOVERLAY, 0, STATIC
        ARGFRAME DOVERLAY, 0, STATIC
        MOV     A,#-0x11
        LCALL   ?BANKED_ENTER_XDATA
        CFI DPH0 load(1, XDATA, add(CFA_XSP16, literal(-1)))
        CFI DPL0 load(1, XDATA, add(CFA_XSP16, literal(-2)))
        CFI ?BRET_EXT load(1, XDATA, add(CFA_XSP16, literal(-3)))
        CFI ?RET_HIGH load(1, XDATA, add(CFA_XSP16, literal(-4)))
        CFI ?RET_LOW load(1, XDATA, add(CFA_XSP16, literal(-5)))
        CFI R7 load(1, XDATA, add(CFA_XSP16, literal(-6)))
        CFI V8 load(1, XDATA, add(CFA_XSP16, literal(-7)))
        CFI V7 load(1, XDATA, add(CFA_XSP16, literal(-8)))
        CFI V6 load(1, XDATA, add(CFA_XSP16, literal(-9)))
        CFI V5 load(1, XDATA, add(CFA_XSP16, literal(-10)))
        CFI V4 load(1, XDATA, add(CFA_XSP16, literal(-11)))
        CFI V3 load(1, XDATA, add(CFA_XSP16, literal(-12)))
        CFI V2 load(1, XDATA, add(CFA_XSP16, literal(-13)))
        CFI V1 load(1, XDATA, add(CFA_XSP16, literal(-14)))
        CFI V0 load(1, XDATA, add(CFA_XSP16, literal(-15)))
        CFI VB load(1, XDATA, add(CFA_XSP16, literal(-16)))
        CFI R6 load(1, XDATA, add(CFA_XSP16, literal(-17)))
        CFI CFA_SP SP+0
        CFI CFA_XSP16 add(XSP16, 17)
        ; Saved register size: 17
        ; Auto size: 0
        MOV     ?V0 + 2,R2
        MOV     ?V0 + 3,R3
// 2708   ZDO_ActiveEndpointRsp_t *pRsp;
// 2709   uint8 *msg;
// 2710   uint8 Status;
// 2711   uint8 cnt;
// 2712 
// 2713   msg = inMsg->asdu;
        MOV     A,?V0 + 2
        ADD     A,#0x13
        MOV     DPL,A
        MOV     A,?V0 + 3
        ADDC    A,#0x0
        MOV     DPH,A
        MOVX    A,@DPTR
        MOV     R0,A
        INC     DPTR
        MOVX    A,@DPTR
        MOV     R1,A
        MOV     A,R0
        MOV     R6,A
        MOV     A,R1
        MOV     R7,A
// 2714   Status = *msg++;
        MOV     DPL,R6
        MOV     DPH,R7
        MOVX    A,@DPTR
        MOV     ?V0 + 7,A
        MOV     DPL,R6
        MOV     DPH,R7
        INC     DPTR
        MOV     R6,DPL
        MOV     R7,DPH
// 2715   cnt = msg[2];
        MOV     DPL,R6
        MOV     DPH,R7
        INC     DPTR
        INC     DPTR
        MOVX    A,@DPTR
        MOV     ?V0 + 8,A
// 2716 
// 2717   pRsp = (ZDO_ActiveEndpointRsp_t *)osal_mem_alloc( sizeof(  ZDO_ActiveEndpointRsp_t ) + cnt );
        ; Setup parameters for call to function osal_mem_alloc
        MOV     ?V0 + 4,?V0 + 8
        MOV     ?V0 + 5,#0x0
        MOV     A,?V0 + 4
        ADD     A,#0x4
        MOV     R2,A
        MOV     A,?V0 + 5
        ADDC    A,#0x0
        MOV     R3,A
        LCALL   ??osal_mem_alloc?relay
        MOV     ?V0 + 4,R2
        MOV     ?V0 + 5,R3
        MOV     ?V0 + 0,?V0 + 4
        MOV     ?V0 + 1,?V0 + 5
// 2718   if ( pRsp )
        MOV     A,?V0 + 0
        ORL     A,?V0 + 1
        JZ      ??ZDO_ParseEPListRsp_0
// 2719   {
// 2720     pRsp->status = Status;
        MOV     A,?V0 + 7
        MOV     DPL,?V0 + 0
        MOV     DPH,?V0 + 1
        MOV     A,?V0 + 7
        MOVX    @DPTR,A
// 2721     pRsp->nwkAddr = BUILD_UINT16( msg[0], msg[1] );
        MOV     DPL,R6
        MOV     DPH,R7
        MOVX    A,@DPTR
        MOV     R2,A
        MOV     R3,#0x0
        MOV     DPL,R6
        MOV     DPH,R7
        INC     DPTR
        MOVX    A,@DPTR
        MOV     R0,A
        MOV     R1,#0x0
        CLR     A
        XCH     A,R0
        MOV     R1,A
        MOV     A,R2
        ADD     A,R0
        MOV     R0,A
        MOV     A,R3
        ADDC    A,R1
        MOV     R1,A
        MOV     DPL,?V0 + 0
        MOV     DPH,?V0 + 1
        INC     DPTR
        MOV     A,R0
        MOVX    @DPTR,A
        INC     DPTR
        MOV     A,R1
        MOVX    @DPTR,A
// 2722     msg += sizeof( uint16 );
        MOV     A,R6
        ADD     A,#0x2
        MOV     R6,A
        MOV     A,R7
        ADDC    A,#0x0
        MOV     R7,A
// 2723     pRsp->cnt = cnt;
        MOV     A,?V0 + 8
        MOV     DPL,?V0 + 0
        MOV     DPH,?V0 + 1
        INC     DPTR
        INC     DPTR
        INC     DPTR
        MOV     A,?V0 + 8
        MOVX    @DPTR,A
// 2724     msg++; // pass cnt
        MOV     DPL,R6
        MOV     DPH,R7
        INC     DPTR
        MOV     R6,DPL
        MOV     R7,DPH
// 2725     osal_memcpy( pRsp->epList, msg, cnt );
        ; Setup parameters for call to function osal_memcpy
        MOV     ?V0 + 4,R6
        MOV     ?V0 + 5,R7
        MOV     ?V0 + 6,#0x0
        MOV     R0,#?V0 + 4
        LCALL   ?PUSH_XSTACK_I_THREE
        CFI CFA_XSP16 add(XSP16, 20)
        MOV     ?V0 + 4,?V0 + 8
        MOV     ?V0 + 5,#0x0
        MOV     R4,?V0 + 4
        MOV     R5,?V0 + 5
        MOV     A,?V0 + 0
        ADD     A,#0x4
        MOV     R2,A
        MOV     A,?V0 + 1
        ADDC    A,#0x0
        MOV     R3,A
        LCALL   ??osal_memcpy?relay
        MOV     A,#0x3
        LCALL   ?DEALLOC_XSTACK8
        CFI CFA_XSP16 add(XSP16, 17)
// 2726   }
// 2727 
// 2728   return ( pRsp );
??ZDO_ParseEPListRsp_0:
        MOV     R2,?V0 + 0
        MOV     R3,?V0 + 1
        MOV     R7,#0x9
        LJMP    ?BANKED_LEAVE_XDATA
        CFI EndBlock cfiBlock42
// 2729 }
// 2730 
// 2731 /*********************************************************************
// 2732  * @fn          ZDO_ParseServerDiscRsp
// 2733  *
// 2734  * @brief       Parse the Server_Discovery_rsp message.
// 2735  *
// 2736  * @param       inMsg - incoming message.
// 2737  * @param       pRsp - place to put the parsed information.
// 2738  *
// 2739  * @return      none
// 2740  */

        RSEG BANKED_CODE:CODE:NOROOT(0)
// 2741 void ZDO_ParseServerDiscRsp( zdoIncomingMsg_t *inMsg, ZDO_ServerDiscRsp_t *pRsp )
ZDO_ParseServerDiscRsp:
        CFI Block cfiBlock43 Using cfiCommon0
        CFI Function ZDO_ParseServerDiscRsp
        CODE
// 2742 {
        MOV     A,#-0x9
        LCALL   ?BANKED_ENTER_XDATA
        CFI DPH0 load(1, XDATA, add(CFA_XSP16, literal(-1)))
        CFI DPL0 load(1, XDATA, add(CFA_XSP16, literal(-2)))
        CFI ?BRET_EXT load(1, XDATA, add(CFA_XSP16, literal(-3)))
        CFI ?RET_HIGH load(1, XDATA, add(CFA_XSP16, literal(-4)))
        CFI ?RET_LOW load(1, XDATA, add(CFA_XSP16, literal(-5)))
        CFI R7 load(1, XDATA, add(CFA_XSP16, literal(-6)))
        CFI V0 load(1, XDATA, add(CFA_XSP16, literal(-7)))
        CFI VB load(1, XDATA, add(CFA_XSP16, literal(-8)))
        CFI R6 load(1, XDATA, add(CFA_XSP16, literal(-9)))
        CFI CFA_SP SP+0
        CFI CFA_XSP16 add(XSP16, 9)
        ; Saved register size: 9
        ; Auto size: 0
// 2743   pRsp->status = inMsg->asdu[0];
        MOV     A,R2
        ADD     A,#0x13
        MOV     DPL,A
        MOV     A,R3
        ADDC    A,#0x0
        MOV     DPH,A
        MOVX    A,@DPTR
        MOV     R0,A
        INC     DPTR
        MOVX    A,@DPTR
        MOV     DPH,A
        MOV     DPL,R0
        MOVX    A,@DPTR
        MOV     DPL,R4
        MOV     DPH,R5
        MOVX    @DPTR,A
// 2744   pRsp->serverMask = BUILD_UINT16( inMsg->asdu[1], inMsg->asdu[2] );
        MOV     A,R2
        ADD     A,#0x13
        MOV     DPL,A
        MOV     A,R3
        ADDC    A,#0x0
        MOV     DPH,A
        MOVX    A,@DPTR
        MOV     R0,A
        INC     DPTR
        MOVX    A,@DPTR
        MOV     DPH,A
        MOV     DPL,R0
        INC     DPTR
        MOVX    A,@DPTR
        MOV     R6,A
        MOV     R7,#0x0
        MOV     A,R2
        ADD     A,#0x13
        MOV     DPL,A
        MOV     A,R3
        ADDC    A,#0x0
        MOV     DPH,A
        MOVX    A,@DPTR
        MOV     R0,A
        INC     DPTR
        MOVX    A,@DPTR
        MOV     DPH,A
        MOV     DPL,R0
        INC     DPTR
        INC     DPTR
        MOVX    A,@DPTR
        MOV     R0,A
        MOV     R1,#0x0
        CLR     A
        XCH     A,R0
        MOV     R1,A
        MOV     A,R6
        ADD     A,R0
        MOV     R0,A
        MOV     A,R7
        ADDC    A,R1
        MOV     R1,A
        MOV     DPL,R4
        MOV     DPH,R5
        INC     DPTR
        MOV     A,R0
        MOVX    @DPTR,A
        INC     DPTR
        MOV     A,R1
        MOVX    @DPTR,A
// 2745 }
        MOV     R7,#0x1
        LJMP    ?BANKED_LEAVE_XDATA
        CFI EndBlock cfiBlock43
// 2746 
// 2747 /*********************************************************************
// 2748  * @fn          ZDO_ParseMgmtLqiRsp
// 2749  *
// 2750  * @brief       This function parses the incoming Management
// 2751  *              LQI response
// 2752  *
// 2753  * @param       inMsg - incoming message
// 2754  *
// 2755  * @return      a pointer to parsed response structure (NULL if not allocated).
// 2756  *          This structure was allocated using osal_mem_alloc, so it must be freed
// 2757  *          by the calling function [osal_mem_free()].
// 2758  */

        RSEG BANKED_CODE:CODE:NOROOT(0)
// 2759 ZDO_MgmtLqiRsp_t *ZDO_ParseMgmtLqiRsp( zdoIncomingMsg_t *inMsg )
ZDO_ParseMgmtLqiRsp:
        CFI Block cfiBlock44 Using cfiCommon0
        CFI Function ZDO_ParseMgmtLqiRsp
        CODE
// 2760 {
        FUNCALL ZDO_ParseMgmtLqiRsp, osal_mem_alloc
        LOCFRAME ISTACK, 0, STACK
        LOCFRAME PSTACK, 0, STACK
        LOCFRAME XSTACK, 20, STACK
        LOCFRAME IOVERLAY, 0, STATIC
        LOCFRAME DOVERLAY, 0, STATIC
        ARGFRAME ISTACK, 0, STACK
        ARGFRAME PSTACK, 0, STACK
        ARGFRAME XSTACK, 20, STACK
        ARGFRAME IOVERLAY, 0, STATIC
        ARGFRAME DOVERLAY, 0, STATIC
        FUNCALL ZDO_ParseMgmtLqiRsp, sAddrExtCpy
        LOCFRAME ISTACK, 0, STACK
        LOCFRAME PSTACK, 0, STACK
        LOCFRAME XSTACK, 20, STACK
        LOCFRAME IOVERLAY, 0, STATIC
        LOCFRAME DOVERLAY, 0, STATIC
        ARGFRAME ISTACK, 0, STACK
        ARGFRAME PSTACK, 0, STACK
        ARGFRAME XSTACK, 20, STACK
        ARGFRAME IOVERLAY, 0, STATIC
        ARGFRAME DOVERLAY, 0, STATIC
        MOV     A,#-0x14
        LCALL   ?BANKED_ENTER_XDATA
        CFI DPH0 load(1, XDATA, add(CFA_XSP16, literal(-1)))
        CFI DPL0 load(1, XDATA, add(CFA_XSP16, literal(-2)))
        CFI ?BRET_EXT load(1, XDATA, add(CFA_XSP16, literal(-3)))
        CFI ?RET_HIGH load(1, XDATA, add(CFA_XSP16, literal(-4)))
        CFI ?RET_LOW load(1, XDATA, add(CFA_XSP16, literal(-5)))
        CFI R7 load(1, XDATA, add(CFA_XSP16, literal(-6)))
        CFI V11 load(1, XDATA, add(CFA_XSP16, literal(-7)))
        CFI V10 load(1, XDATA, add(CFA_XSP16, literal(-8)))
        CFI V9 load(1, XDATA, add(CFA_XSP16, literal(-9)))
        CFI V8 load(1, XDATA, add(CFA_XSP16, literal(-10)))
        CFI V7 load(1, XDATA, add(CFA_XSP16, literal(-11)))
        CFI V6 load(1, XDATA, add(CFA_XSP16, literal(-12)))
        CFI V5 load(1, XDATA, add(CFA_XSP16, literal(-13)))
        CFI V4 load(1, XDATA, add(CFA_XSP16, literal(-14)))
        CFI V3 load(1, XDATA, add(CFA_XSP16, literal(-15)))
        CFI V2 load(1, XDATA, add(CFA_XSP16, literal(-16)))
        CFI V1 load(1, XDATA, add(CFA_XSP16, literal(-17)))
        CFI V0 load(1, XDATA, add(CFA_XSP16, literal(-18)))
        CFI VB load(1, XDATA, add(CFA_XSP16, literal(-19)))
        CFI R6 load(1, XDATA, add(CFA_XSP16, literal(-20)))
        CFI CFA_SP SP+0
        CFI CFA_XSP16 add(XSP16, 20)
        ; Saved register size: 20
        ; Auto size: 0
        MOV     ?V0 + 10,R2
        MOV     ?V0 + 11,R3
// 2761   ZDO_MgmtLqiRsp_t *pRsp;
// 2762   uint8 status;
// 2763   uint8 startIndex = 0;
        MOV     ?V0 + 6,#0x0
// 2764   uint8 neighborLqiCount = 0;
        MOV     ?V0 + 4,#0x0
// 2765   uint8 neighborLqiEntries = 0;
        MOV     ?V0 + 5,#0x0
// 2766   uint8 *msg;
// 2767 
// 2768   msg = inMsg->asdu;
        MOV     A,?V0 + 10
        ADD     A,#0x13
        MOV     DPL,A
        MOV     A,?V0 + 11
        ADDC    A,#0x0
        MOV     DPH,A
        MOVX    A,@DPTR
        MOV     R0,A
        INC     DPTR
        MOVX    A,@DPTR
        MOV     R1,A
        MOV     ?V0 + 2,R0
        MOV     ?V0 + 3,R1
// 2769 
// 2770   status = *msg++;
        MOV     DPL,?V0 + 2
        MOV     DPH,?V0 + 3
        MOVX    A,@DPTR
        MOV     ?V0 + 8,A
        MOV     DPL,?V0 + 2
        MOV     DPH,?V0 + 3
        INC     DPTR
        MOV     ?V0 + 2,DPL
        MOV     ?V0 + 3,DPH
// 2771   if ( status == ZSuccess )
        MOV     A,?V0 + 8
        JNZ     ??ZDO_ParseMgmtLqiRsp_0
// 2772   {
// 2773     neighborLqiEntries = *msg++;
        MOV     DPL,?V0 + 2
        MOV     DPH,?V0 + 3
        MOVX    A,@DPTR
        MOV     ?V0 + 5,A
        MOV     DPL,?V0 + 2
        MOV     DPH,?V0 + 3
        INC     DPTR
        MOV     ?V0 + 2,DPL
        MOV     ?V0 + 3,DPH
// 2774     startIndex = *msg++;
        MOV     DPL,?V0 + 2
        MOV     DPH,?V0 + 3
        MOVX    A,@DPTR
        MOV     ?V0 + 6,A
        MOV     DPL,?V0 + 2
        MOV     DPH,?V0 + 3
        INC     DPTR
        MOV     ?V0 + 2,DPL
        MOV     ?V0 + 3,DPH
// 2775     neighborLqiCount = *msg++;
        MOV     DPL,?V0 + 2
        MOV     DPH,?V0 + 3
        MOVX    A,@DPTR
        MOV     ?V0 + 4,A
        MOV     DPL,?V0 + 2
        MOV     DPH,?V0 + 3
        INC     DPTR
        MOV     ?V0 + 2,DPL
        MOV     ?V0 + 3,DPH
// 2776   }
// 2777 
// 2778   // Allocate a buffer big enough to handle the list.
// 2779   pRsp = (ZDO_MgmtLqiRsp_t *)osal_mem_alloc(
// 2780             sizeof( ZDO_MgmtLqiRsp_t ) + (neighborLqiCount * sizeof( neighborLqiItem_t )) );
??ZDO_ParseMgmtLqiRsp_0:
        ; Setup parameters for call to function osal_mem_alloc
        MOV     A,?V0 + 4
        MOV     R0,?V0 + 4
        MOV     R1,#0x0
        MOV     A,R0
        MOV     B,#0xe
        MUL     AB
        XCH     A,R0
        MOV     R2,B
        MOV     B,#0x0
        MUL     AB
        ADD     A,R2
        MOV     R2,A
        MOV     B,#0xe
        MOV     A,R1
        MUL     AB
        ADD     A,R2
        MOV     R1,A
        MOV     A,R0
        ADD     A,#0x4
        MOV     R2,A
        MOV     A,R1
        ADDC    A,#0x0
        MOV     R3,A
        LCALL   ??osal_mem_alloc?relay
        MOV     ?V0 + 0,R2
        MOV     ?V0 + 1,R3
        MOV     R6,?V0 + 0
        MOV     R7,?V0 + 1
// 2781   if ( pRsp )
        MOV     A,R6
        ORL     A,R7
        JNZ     $+5
        LJMP    ??ZDO_ParseMgmtLqiRsp_1 & 0xFFFF
// 2782   {
// 2783     uint8 x;
// 2784     neighborLqiItem_t *pList = pRsp->list;
        MOV     A,R6
        ADD     A,#0x4
        MOV     ?V0 + 0,A
        MOV     A,R7
        ADDC    A,#0x0
        MOV     ?V0 + 1,A
// 2785     pRsp->status = status;
        MOV     A,?V0 + 8
        MOV     DPL,R6
        MOV     DPH,R7
        MOV     A,?V0 + 8
        MOVX    @DPTR,A
// 2786     pRsp->neighborLqiEntries = neighborLqiEntries;
        MOV     A,?V0 + 5
        MOV     DPL,R6
        MOV     DPH,R7
        INC     DPTR
        MOV     A,?V0 + 5
        MOVX    @DPTR,A
// 2787     pRsp->startIndex = startIndex;
        MOV     A,?V0 + 6
        MOV     DPL,R6
        MOV     DPH,R7
        INC     DPTR
        INC     DPTR
        MOV     A,?V0 + 6
        MOVX    @DPTR,A
// 2788     pRsp->neighborLqiCount = neighborLqiCount;
        MOV     A,?V0 + 4
        MOV     DPL,R6
        MOV     DPH,R7
        INC     DPTR
        INC     DPTR
        INC     DPTR
        MOV     A,?V0 + 4
        MOVX    @DPTR,A
// 2789 
// 2790     for ( x = 0; x < neighborLqiCount; x++ )
        MOV     ?V0 + 7,#0x0
??ZDO_ParseMgmtLqiRsp_2:
        MOV     A,?V0 + 7
        CLR     C
        SUBB    A,?V0 + 4
        JC      $+5
        LJMP    ??ZDO_ParseMgmtLqiRsp_1 & 0xFFFF
// 2791     {
// 2792       osal_cpyExtAddr(pList->extPANId, msg);   //Copy extended PAN ID
        ; Setup parameters for call to function sAddrExtCpy
        MOV     R4,?V0 + 2
        MOV     R5,?V0 + 3
        MOV     A,?V0 + 0
        ADD     A,#0x4
        MOV     R2,A
        MOV     A,?V0 + 1
        ADDC    A,#0x0
        MOV     R3,A
        LCALL   ??sAddrExtCpy?relay
// 2793       msg += Z_EXTADDR_LEN;
        MOV     A,?V0 + 2
        ADD     A,#0x8
        MOV     ?V0 + 2,A
        MOV     A,?V0 + 3
        ADDC    A,#0x0
        MOV     ?V0 + 3,A
// 2794 
// 2795       msg += Z_EXTADDR_LEN;  // Throwing away IEEE.
        MOV     A,?V0 + 2
        ADD     A,#0x8
        MOV     ?V0 + 2,A
        MOV     A,?V0 + 3
        ADDC    A,#0x0
        MOV     ?V0 + 3,A
// 2796       pList->nwkAddr = BUILD_UINT16( msg[0], msg[1] );
        MOV     DPL,?V0 + 2
        MOV     DPH,?V0 + 3
        MOVX    A,@DPTR
        MOV     R2,A
        MOV     R3,#0x0
        MOV     DPL,?V0 + 2
        MOV     DPH,?V0 + 3
        INC     DPTR
        MOVX    A,@DPTR
        MOV     R0,A
        MOV     R1,#0x0
        CLR     A
        XCH     A,R0
        MOV     R1,A
        MOV     A,R2
        ADD     A,R0
        MOV     R0,A
        MOV     A,R3
        ADDC    A,R1
        MOV     R1,A
        MOV     DPL,?V0 + 0
        MOV     DPH,?V0 + 1
        MOV     A,R0
        MOVX    @DPTR,A
        INC     DPTR
        MOV     A,R1
        MOVX    @DPTR,A
// 2797       msg += 2 + 1 + 1 + 1;      // Skip DeviceType, RxOnIdle, Rlationship, PermitJoining and Depth
        MOV     A,?V0 + 2
        ADD     A,#0x5
        MOV     ?V0 + 2,A
        MOV     A,?V0 + 3
        ADDC    A,#0x0
        MOV     ?V0 + 3,A
// 2798       pList->rxLqi = *msg++;
        MOV     DPL,?V0 + 2
        MOV     DPH,?V0 + 3
        MOVX    A,@DPTR
        PUSH    A
        CFI CFA_SP SP+-1
        MOV     A,?V0 + 0
        ADD     A,#0xd
        MOV     DPL,A
        MOV     A,?V0 + 1
        ADDC    A,#0x0
        MOV     DPH,A
        POP     A
        CFI CFA_SP SP+0
        MOVX    @DPTR,A
        MOV     DPL,?V0 + 2
        MOV     DPH,?V0 + 3
        INC     DPTR
        MOV     ?V0 + 2,DPL
        MOV     ?V0 + 3,DPH
// 2799       pList->txQuality = 0;  // This is not specified OTA by ZigBee 1.1.
        MOV     A,?V0 + 0
        ADD     A,#0xc
        MOV     DPL,A
        MOV     A,?V0 + 1
        ADDC    A,#0x0
        MOV     DPH,A
        MOV     A,#0x0
        MOVX    @DPTR,A
// 2800       pList++;
        MOV     A,?V0 + 0
        ADD     A,#0xe
        MOV     ?V0 + 0,A
        MOV     A,?V0 + 1
        ADDC    A,#0x0
        MOV     ?V0 + 1,A
// 2801     }
        INC     ?V0 + 7
        LJMP    ??ZDO_ParseMgmtLqiRsp_2 & 0xFFFF
// 2802   }
// 2803 
// 2804   return ( pRsp );
??ZDO_ParseMgmtLqiRsp_1:
        MOV     A,R6
        MOV     R2,A
        MOV     A,R7
        MOV     R3,A
        MOV     R7,#0xc
        LJMP    ?BANKED_LEAVE_XDATA
        CFI EndBlock cfiBlock44
// 2805 }
// 2806 
// 2807 /*********************************************************************
// 2808  * @fn          ZDO_ParseMgmNwkDiscRsp
// 2809  *
// 2810  * @brief       This function parses the incoming Management
// 2811  *              Network Discover response.
// 2812  *
// 2813  * @param       inMsg - incoming message
// 2814  *
// 2815  * @return      pointer to parsed response.  This structure was
// 2816  *          allocated using osal_mem_alloc, so it must be freed
// 2817  *          by the calling function [osal_mem_free()].
// 2818  */

        RSEG BANKED_CODE:CODE:NOROOT(0)
// 2819 ZDO_MgmNwkDiscRsp_t *ZDO_ParseMgmNwkDiscRsp( zdoIncomingMsg_t *inMsg )
ZDO_ParseMgmNwkDiscRsp:
        CFI Block cfiBlock45 Using cfiCommon0
        CFI Function ZDO_ParseMgmNwkDiscRsp
        CODE
// 2820 {
        FUNCALL ZDO_ParseMgmNwkDiscRsp, osal_mem_alloc
        LOCFRAME ISTACK, 0, STACK
        LOCFRAME PSTACK, 0, STACK
        LOCFRAME XSTACK, 20, STACK
        LOCFRAME IOVERLAY, 0, STATIC
        LOCFRAME DOVERLAY, 0, STATIC
        ARGFRAME ISTACK, 0, STACK
        ARGFRAME PSTACK, 0, STACK
        ARGFRAME XSTACK, 20, STACK
        ARGFRAME IOVERLAY, 0, STATIC
        ARGFRAME DOVERLAY, 0, STATIC
        FUNCALL ZDO_ParseMgmNwkDiscRsp, sAddrExtCpy
        LOCFRAME ISTACK, 0, STACK
        LOCFRAME PSTACK, 0, STACK
        LOCFRAME XSTACK, 20, STACK
        LOCFRAME IOVERLAY, 0, STATIC
        LOCFRAME DOVERLAY, 0, STATIC
        ARGFRAME ISTACK, 0, STACK
        ARGFRAME PSTACK, 0, STACK
        ARGFRAME XSTACK, 20, STACK
        ARGFRAME IOVERLAY, 0, STATIC
        ARGFRAME DOVERLAY, 0, STATIC
        MOV     A,#-0x14
        LCALL   ?BANKED_ENTER_XDATA
        CFI DPH0 load(1, XDATA, add(CFA_XSP16, literal(-1)))
        CFI DPL0 load(1, XDATA, add(CFA_XSP16, literal(-2)))
        CFI ?BRET_EXT load(1, XDATA, add(CFA_XSP16, literal(-3)))
        CFI ?RET_HIGH load(1, XDATA, add(CFA_XSP16, literal(-4)))
        CFI ?RET_LOW load(1, XDATA, add(CFA_XSP16, literal(-5)))
        CFI R7 load(1, XDATA, add(CFA_XSP16, literal(-6)))
        CFI V11 load(1, XDATA, add(CFA_XSP16, literal(-7)))
        CFI V10 load(1, XDATA, add(CFA_XSP16, literal(-8)))
        CFI V9 load(1, XDATA, add(CFA_XSP16, literal(-9)))
        CFI V8 load(1, XDATA, add(CFA_XSP16, literal(-10)))
        CFI V7 load(1, XDATA, add(CFA_XSP16, literal(-11)))
        CFI V6 load(1, XDATA, add(CFA_XSP16, literal(-12)))
        CFI V5 load(1, XDATA, add(CFA_XSP16, literal(-13)))
        CFI V4 load(1, XDATA, add(CFA_XSP16, literal(-14)))
        CFI V3 load(1, XDATA, add(CFA_XSP16, literal(-15)))
        CFI V2 load(1, XDATA, add(CFA_XSP16, literal(-16)))
        CFI V1 load(1, XDATA, add(CFA_XSP16, literal(-17)))
        CFI V0 load(1, XDATA, add(CFA_XSP16, literal(-18)))
        CFI VB load(1, XDATA, add(CFA_XSP16, literal(-19)))
        CFI R6 load(1, XDATA, add(CFA_XSP16, literal(-20)))
        CFI CFA_SP SP+0
        CFI CFA_XSP16 add(XSP16, 20)
        ; Saved register size: 20
        ; Auto size: 0
        MOV     ?V0 + 10,R2
        MOV     ?V0 + 11,R3
// 2821   ZDO_MgmNwkDiscRsp_t *pRsp;
// 2822   uint8 status;
// 2823   uint8 networkCount = 0;
        MOV     ?V0 + 6,#0x0
// 2824   uint8 startIndex = 0;
        MOV     ?V0 + 5,#0x0
// 2825   uint8 networkListCount = 0;
        MOV     ?V0 + 4,#0x0
// 2826   uint8 *msg;
// 2827 
// 2828   msg = inMsg->asdu;
        MOV     A,?V0 + 10
        ADD     A,#0x13
        MOV     DPL,A
        MOV     A,?V0 + 11
        ADDC    A,#0x0
        MOV     DPH,A
        MOVX    A,@DPTR
        MOV     R0,A
        INC     DPTR
        MOVX    A,@DPTR
        MOV     R1,A
        MOV     A,R0
        MOV     R6,A
        MOV     A,R1
        MOV     R7,A
// 2829   status = *msg++;
        MOV     DPL,R6
        MOV     DPH,R7
        MOVX    A,@DPTR
        MOV     ?V0 + 8,A
        MOV     DPL,R6
        MOV     DPH,R7
        INC     DPTR
        MOV     R6,DPL
        MOV     R7,DPH
// 2830 
// 2831   if ( status == ZSuccess )
        MOV     A,?V0 + 8
        JNZ     ??ZDO_ParseMgmNwkDiscRsp_0
// 2832   {
// 2833     networkCount = *msg++;
        MOV     DPL,R6
        MOV     DPH,R7
        MOVX    A,@DPTR
        MOV     ?V0 + 6,A
        MOV     DPL,R6
        MOV     DPH,R7
        INC     DPTR
        MOV     R6,DPL
        MOV     R7,DPH
// 2834     startIndex = *msg++;
        MOV     DPL,R6
        MOV     DPH,R7
        MOVX    A,@DPTR
        MOV     ?V0 + 5,A
        MOV     DPL,R6
        MOV     DPH,R7
        INC     DPTR
        MOV     R6,DPL
        MOV     R7,DPH
// 2835     networkListCount = *msg++;
        MOV     DPL,R6
        MOV     DPH,R7
        MOVX    A,@DPTR
        MOV     ?V0 + 4,A
        MOV     DPL,R6
        MOV     DPH,R7
        INC     DPTR
        MOV     R6,DPL
        MOV     R7,DPH
// 2836   }
// 2837 
// 2838   // Allocate a buffer big enough to handle the list.
// 2839   pRsp = (ZDO_MgmNwkDiscRsp_t *)osal_mem_alloc( sizeof( ZDO_MgmNwkDiscRsp_t )
// 2840                                   + (networkListCount * sizeof( mgmtNwkDiscItem_t )) );
??ZDO_ParseMgmNwkDiscRsp_0:
        ; Setup parameters for call to function osal_mem_alloc
        MOV     A,?V0 + 4
        MOV     R0,?V0 + 4
        MOV     R1,#0x0
        MOV     A,R0
        MOV     B,#0x10
        MUL     AB
        XCH     A,R0
        MOV     R2,B
        MOV     B,#0x0
        MUL     AB
        ADD     A,R2
        MOV     R2,A
        MOV     B,#0x10
        MOV     A,R1
        MUL     AB
        ADD     A,R2
        MOV     R1,A
        MOV     A,R0
        ADD     A,#0x4
        MOV     R2,A
        MOV     A,R1
        ADDC    A,#0x0
        MOV     R3,A
        LCALL   ??osal_mem_alloc?relay
        MOV     ?V0 + 0,R2
        MOV     ?V0 + 1,R3
        MOV     ?V0 + 2,?V0 + 0
        MOV     ?V0 + 3,?V0 + 1
// 2841   if ( pRsp )
        MOV     A,?V0 + 2
        ORL     A,?V0 + 3
        JNZ     $+5
        LJMP    ??ZDO_ParseMgmNwkDiscRsp_1 & 0xFFFF
// 2842   {
// 2843     uint8 x;
// 2844     mgmtNwkDiscItem_t *pList;
// 2845 
// 2846     pRsp->status = status;
        MOV     A,?V0 + 8
        MOV     DPL,?V0 + 2
        MOV     DPH,?V0 + 3
        MOV     A,?V0 + 8
        MOVX    @DPTR,A
// 2847     pRsp->networkCount = networkCount;
        MOV     A,?V0 + 6
        MOV     DPL,?V0 + 2
        MOV     DPH,?V0 + 3
        INC     DPTR
        MOV     A,?V0 + 6
        MOVX    @DPTR,A
// 2848     pRsp->startIndex = startIndex;
        MOV     A,?V0 + 5
        MOV     DPL,?V0 + 2
        MOV     DPH,?V0 + 3
        INC     DPTR
        INC     DPTR
        MOV     A,?V0 + 5
        MOVX    @DPTR,A
// 2849     pRsp->networkListCount = networkListCount;
        MOV     A,?V0 + 4
        MOV     DPL,?V0 + 2
        MOV     DPH,?V0 + 3
        INC     DPTR
        INC     DPTR
        INC     DPTR
        MOV     A,?V0 + 4
        MOVX    @DPTR,A
// 2850     pList = pRsp->list;
        MOV     A,?V0 + 2
        ADD     A,#0x4
        MOV     R0,A
        MOV     A,?V0 + 3
        ADDC    A,#0x0
        MOV     R1,A
        MOV     ?V0 + 0,R0
        MOV     ?V0 + 1,R1
// 2851 
// 2852     for ( x = 0; x < networkListCount; x++ )
        MOV     ?V0 + 7,#0x0
??ZDO_ParseMgmNwkDiscRsp_2:
        MOV     A,?V0 + 7
        CLR     C
        SUBB    A,?V0 + 4
        JC      $+5
        LJMP    ??ZDO_ParseMgmNwkDiscRsp_1 & 0xFFFF
// 2853     {
// 2854       osal_cpyExtAddr(pList->extendedPANID, msg);   //Copy extended PAN ID
        ; Setup parameters for call to function sAddrExtCpy
        MOV     A,R6
        MOV     R4,A
        MOV     A,R7
        MOV     R5,A
        MOV     R2,?V0 + 0
        MOV     R3,?V0 + 1
        LCALL   ??sAddrExtCpy?relay
// 2855       pList->PANId = BUILD_UINT16( msg[0], msg[1] );
        MOV     DPL,R6
        MOV     DPH,R7
        MOVX    A,@DPTR
        MOV     R2,A
        MOV     R3,#0x0
        MOV     DPL,R6
        MOV     DPH,R7
        INC     DPTR
        MOVX    A,@DPTR
        MOV     R0,A
        MOV     R1,#0x0
        CLR     A
        XCH     A,R0
        MOV     R1,A
        MOV     A,R2
        ADD     A,R0
        MOV     R0,A
        MOV     A,R3
        ADDC    A,R1
        MOV     R1,A
        MOV     DPL,?V0 + 0
        MOV     DPH,?V0 + 1
        INC     DPTR
        INC     DPTR
        INC     DPTR
        INC     DPTR
        INC     DPTR
        INC     DPTR
        INC     DPTR
        INC     DPTR
        MOV     A,R0
        MOVX    @DPTR,A
        INC     DPTR
        MOV     A,R1
        MOVX    @DPTR,A
// 2856       msg += Z_EXTADDR_LEN;
        MOV     A,R6
        ADD     A,#0x8
        MOV     R6,A
        MOV     A,R7
        ADDC    A,#0x0
        MOV     R7,A
// 2857 
// 2858       pList->logicalChannel = *msg++;
        MOV     DPL,R6
        MOV     DPH,R7
        MOVX    A,@DPTR
        MOV     DPL,?V0 + 0
        MOV     DPH,?V0 + 1
        INC     DPTR
        INC     DPTR
        INC     DPTR
        INC     DPTR
        INC     DPTR
        INC     DPTR
        INC     DPTR
        INC     DPTR
        INC     DPTR
        INC     DPTR
        MOVX    @DPTR,A
        MOV     DPL,R6
        MOV     DPH,R7
        INC     DPTR
        MOV     R6,DPL
        MOV     R7,DPH
// 2859       pList->stackProfile = (*msg) & 0x0F;
        MOV     DPL,R6
        MOV     DPH,R7
        MOVX    A,@DPTR
        ANL     A,#0xf
        PUSH    A
        CFI CFA_SP SP+-1
        MOV     A,?V0 + 0
        ADD     A,#0xb
        MOV     DPL,A
        MOV     A,?V0 + 1
        ADDC    A,#0x0
        MOV     DPH,A
        POP     A
        CFI CFA_SP SP+0
        MOVX    @DPTR,A
// 2860       pList->version = (*msg++ >> 4) & 0x0F;
        MOV     DPL,R6
        MOV     DPH,R7
        MOVX    A,@DPTR
        SWAP    A
        ANL     A,#0xf
        PUSH    A
        CFI CFA_SP SP+-1
        MOV     A,?V0 + 0
        ADD     A,#0xc
        MOV     DPL,A
        MOV     A,?V0 + 1
        ADDC    A,#0x0
        MOV     DPH,A
        POP     A
        CFI CFA_SP SP+0
        MOVX    @DPTR,A
        MOV     DPL,R6
        MOV     DPH,R7
        INC     DPTR
        MOV     R6,DPL
        MOV     R7,DPH
// 2861       pList->beaconOrder = (*msg) & 0x0F;
        MOV     DPL,R6
        MOV     DPH,R7
        MOVX    A,@DPTR
        ANL     A,#0xf
        PUSH    A
        CFI CFA_SP SP+-1
        MOV     A,?V0 + 0
        ADD     A,#0xd
        MOV     DPL,A
        MOV     A,?V0 + 1
        ADDC    A,#0x0
        MOV     DPH,A
        POP     A
        CFI CFA_SP SP+0
        MOVX    @DPTR,A
// 2862       pList->superFrameOrder = (*msg++ >> 4) & 0x0F;
        MOV     DPL,R6
        MOV     DPH,R7
        MOVX    A,@DPTR
        SWAP    A
        ANL     A,#0xf
        PUSH    A
        CFI CFA_SP SP+-1
        MOV     A,?V0 + 0
        ADD     A,#0xe
        MOV     DPL,A
        MOV     A,?V0 + 1
        ADDC    A,#0x0
        MOV     DPH,A
        POP     A
        CFI CFA_SP SP+0
        MOVX    @DPTR,A
        MOV     DPL,R6
        MOV     DPH,R7
        INC     DPTR
        MOV     R6,DPL
        MOV     R7,DPH
// 2863       pList->permitJoining = *msg++;
        MOV     DPL,R6
        MOV     DPH,R7
        MOVX    A,@DPTR
        PUSH    A
        CFI CFA_SP SP+-1
        MOV     A,?V0 + 0
        ADD     A,#0xf
        MOV     DPL,A
        MOV     A,?V0 + 1
        ADDC    A,#0x0
        MOV     DPH,A
        POP     A
        CFI CFA_SP SP+0
        MOVX    @DPTR,A
        MOV     DPL,R6
        MOV     DPH,R7
        INC     DPTR
        MOV     R6,DPL
        MOV     R7,DPH
// 2864       pList++;
        MOV     A,?V0 + 0
        ADD     A,#0x10
        MOV     ?V0 + 0,A
        MOV     A,?V0 + 1
        ADDC    A,#0x0
        MOV     ?V0 + 1,A
// 2865     }
        INC     ?V0 + 7
        LJMP    ??ZDO_ParseMgmNwkDiscRsp_2 & 0xFFFF
// 2866   }
// 2867 
// 2868   return ( pRsp );
??ZDO_ParseMgmNwkDiscRsp_1:
        MOV     R2,?V0 + 2
        MOV     R3,?V0 + 3
        MOV     R7,#0xc
        LJMP    ?BANKED_LEAVE_XDATA
        CFI EndBlock cfiBlock45
// 2869 }
// 2870 
// 2871 /*********************************************************************
// 2872  * @fn          ZDO_ParseMgmtRtgRsp
// 2873  *
// 2874  * @brief       This function parses the incoming Management
// 2875  *              Routing response.
// 2876  *
// 2877  * @param       inMsg - incoming message
// 2878  *
// 2879  * @return      a pointer to parsed response structure (NULL if not allocated).
// 2880  *          This structure was allocated using osal_mem_alloc, so it must be freed
// 2881  *          by the calling function [osal_mem_free()].
// 2882  */

        RSEG BANKED_CODE:CODE:NOROOT(0)
// 2883 ZDO_MgmtRtgRsp_t *ZDO_ParseMgmtRtgRsp( zdoIncomingMsg_t *inMsg )
ZDO_ParseMgmtRtgRsp:
        CFI Block cfiBlock46 Using cfiCommon0
        CFI Function ZDO_ParseMgmtRtgRsp
        CODE
// 2884 {
        FUNCALL ZDO_ParseMgmtRtgRsp, osal_mem_alloc
        LOCFRAME ISTACK, 0, STACK
        LOCFRAME PSTACK, 0, STACK
        LOCFRAME XSTACK, 18, STACK
        LOCFRAME IOVERLAY, 0, STATIC
        LOCFRAME DOVERLAY, 0, STATIC
        ARGFRAME ISTACK, 0, STACK
        ARGFRAME PSTACK, 0, STACK
        ARGFRAME XSTACK, 18, STACK
        ARGFRAME IOVERLAY, 0, STATIC
        ARGFRAME DOVERLAY, 0, STATIC
        MOV     A,#-0x12
        LCALL   ?BANKED_ENTER_XDATA
        CFI DPH0 load(1, XDATA, add(CFA_XSP16, literal(-1)))
        CFI DPL0 load(1, XDATA, add(CFA_XSP16, literal(-2)))
        CFI ?BRET_EXT load(1, XDATA, add(CFA_XSP16, literal(-3)))
        CFI ?RET_HIGH load(1, XDATA, add(CFA_XSP16, literal(-4)))
        CFI ?RET_LOW load(1, XDATA, add(CFA_XSP16, literal(-5)))
        CFI R7 load(1, XDATA, add(CFA_XSP16, literal(-6)))
        CFI V9 load(1, XDATA, add(CFA_XSP16, literal(-7)))
        CFI V8 load(1, XDATA, add(CFA_XSP16, literal(-8)))
        CFI V7 load(1, XDATA, add(CFA_XSP16, literal(-9)))
        CFI V6 load(1, XDATA, add(CFA_XSP16, literal(-10)))
        CFI V5 load(1, XDATA, add(CFA_XSP16, literal(-11)))
        CFI V4 load(1, XDATA, add(CFA_XSP16, literal(-12)))
        CFI V3 load(1, XDATA, add(CFA_XSP16, literal(-13)))
        CFI V2 load(1, XDATA, add(CFA_XSP16, literal(-14)))
        CFI V1 load(1, XDATA, add(CFA_XSP16, literal(-15)))
        CFI V0 load(1, XDATA, add(CFA_XSP16, literal(-16)))
        CFI VB load(1, XDATA, add(CFA_XSP16, literal(-17)))
        CFI R6 load(1, XDATA, add(CFA_XSP16, literal(-18)))
        CFI CFA_SP SP+0
        CFI CFA_XSP16 add(XSP16, 18)
        ; Saved register size: 18
        ; Auto size: 0
        MOV     ?V0 + 2,R2
        MOV     ?V0 + 3,R3
// 2885   ZDO_MgmtRtgRsp_t *pRsp;
// 2886   uint8 status;
// 2887   uint8 rtgCount = 0;
        MOV     ?V0 + 5,#0x0
// 2888   uint8 startIndex = 0;
        MOV     ?V0 + 6,#0x0
// 2889   uint8 rtgListCount = 0;
        MOV     ?V0 + 7,#0x0
// 2890   uint8 *msg;
// 2891 
// 2892   msg = inMsg->asdu;
        MOV     A,?V0 + 2
        ADD     A,#0x13
        MOV     DPL,A
        MOV     A,?V0 + 3
        ADDC    A,#0x0
        MOV     DPH,A
        MOVX    A,@DPTR
        MOV     R0,A
        INC     DPTR
        MOVX    A,@DPTR
        MOV     R1,A
        MOV     A,R0
        MOV     R6,A
        MOV     A,R1
        MOV     R7,A
// 2893 
// 2894   status = *msg++;
        MOV     DPL,R6
        MOV     DPH,R7
        MOVX    A,@DPTR
        MOV     ?V0 + 4,A
        MOV     DPL,R6
        MOV     DPH,R7
        INC     DPTR
        MOV     R6,DPL
        MOV     R7,DPH
// 2895   if ( status == ZSuccess )
        MOV     A,?V0 + 4
        JNZ     ??ZDO_ParseMgmtRtgRsp_0
// 2896   {
// 2897     rtgCount = *msg++;
        MOV     DPL,R6
        MOV     DPH,R7
        MOVX    A,@DPTR
        MOV     ?V0 + 5,A
        MOV     DPL,R6
        MOV     DPH,R7
        INC     DPTR
        MOV     R6,DPL
        MOV     R7,DPH
// 2898     startIndex = *msg++;
        MOV     DPL,R6
        MOV     DPH,R7
        MOVX    A,@DPTR
        MOV     ?V0 + 6,A
        MOV     DPL,R6
        MOV     DPH,R7
        INC     DPTR
        MOV     R6,DPL
        MOV     R7,DPH
// 2899     rtgListCount = *msg++;
        MOV     DPL,R6
        MOV     DPH,R7
        MOVX    A,@DPTR
        MOV     ?V0 + 7,A
        MOV     DPL,R6
        MOV     DPH,R7
        INC     DPTR
        MOV     R6,DPL
        MOV     R7,DPH
// 2900   }
// 2901 
// 2902   // Allocate a buffer big enough to handle the list
// 2903   pRsp = (ZDO_MgmtRtgRsp_t *)osal_mem_alloc(
// 2904           sizeof( ZDO_MgmtRtgRsp_t ) + (rtgListCount * sizeof( rtgItem_t )) );
??ZDO_ParseMgmtRtgRsp_0:
        ; Setup parameters for call to function osal_mem_alloc
        MOV     A,?V0 + 7
        MOV     R0,?V0 + 7
        MOV     R1,#0x0
        MOV     A,R0
        MOV     B,#0x7
        MUL     AB
        XCH     A,R0
        MOV     R2,B
        MOV     B,#0x0
        MUL     AB
        ADD     A,R2
        MOV     R2,A
        MOV     B,#0x7
        MOV     A,R1
        MUL     AB
        ADD     A,R2
        MOV     R1,A
        MOV     A,R0
        ADD     A,#0x4
        MOV     R2,A
        MOV     A,R1
        ADDC    A,#0x0
        MOV     R3,A
        LCALL   ??osal_mem_alloc?relay
        MOV     ?V0 + 8,R2
        MOV     ?V0 + 9,R3
        MOV     ?V0 + 0,?V0 + 8
        MOV     ?V0 + 1,?V0 + 9
// 2905   if ( pRsp )
        MOV     A,?V0 + 0
        ORL     A,?V0 + 1
        JNZ     $+5
        LJMP    ??ZDO_ParseMgmtRtgRsp_1 & 0xFFFF
// 2906   {
// 2907     uint8 x;
// 2908     rtgItem_t *pList = pRsp->list;
        MOV     A,?V0 + 0
        ADD     A,#0x4
        MOV     R0,A
        MOV     A,?V0 + 1
        ADDC    A,#0x0
        MOV     R1,A
// 2909     pRsp->status = status;
        MOV     A,?V0 + 4
        MOV     DPL,?V0 + 0
        MOV     DPH,?V0 + 1
        MOV     A,?V0 + 4
        MOVX    @DPTR,A
// 2910     pRsp->rtgCount = rtgCount;
        MOV     A,?V0 + 5
        MOV     DPL,?V0 + 0
        MOV     DPH,?V0 + 1
        INC     DPTR
        MOV     A,?V0 + 5
        MOVX    @DPTR,A
// 2911     pRsp->startIndex = startIndex;
        MOV     A,?V0 + 6
        MOV     DPL,?V0 + 0
        MOV     DPH,?V0 + 1
        INC     DPTR
        INC     DPTR
        MOV     A,?V0 + 6
        MOVX    @DPTR,A
// 2912     pRsp->rtgListCount = rtgListCount;
        MOV     A,?V0 + 7
        MOV     DPL,?V0 + 0
        MOV     DPH,?V0 + 1
        INC     DPTR
        INC     DPTR
        INC     DPTR
        MOV     A,?V0 + 7
        MOVX    @DPTR,A
// 2913 
// 2914     for ( x = 0; x < rtgListCount; x++ )
        MOV     R2,#0x0
??ZDO_ParseMgmtRtgRsp_2:
        MOV     A,R2
        CLR     C
        SUBB    A,?V0 + 7
        JC      $+5
        LJMP    ??ZDO_ParseMgmtRtgRsp_1 & 0xFFFF
// 2915     {
// 2916       pList->dstAddress = BUILD_UINT16( msg[0], msg[1] );
        MOV     DPL,R6
        MOV     DPH,R7
        MOVX    A,@DPTR
        MOV     ?V0 + 8,A
        MOV     ?V0 + 9,#0x0
        MOV     DPL,R6
        MOV     DPH,R7
        INC     DPTR
        MOVX    A,@DPTR
        MOV     R4,A
        MOV     R5,#0x0
        CLR     A
        XCH     A,R4
        MOV     R5,A
        MOV     A,?V0 + 8
        ADD     A,R4
        MOV     R4,A
        MOV     A,?V0 + 9
        ADDC    A,R5
        MOV     R5,A
        MOV     DPL,R0
        MOV     DPH,R1
        MOV     A,R4
        MOVX    @DPTR,A
        INC     DPTR
        MOV     A,R5
        MOVX    @DPTR,A
// 2917       msg += 2;
        MOV     A,R6
        ADD     A,#0x2
        MOV     R6,A
        MOV     A,R7
        ADDC    A,#0x0
        MOV     R7,A
// 2918       pList->status = *msg++;
        MOV     DPL,R6
        MOV     DPH,R7
        MOVX    A,@DPTR
        MOV     DPL,R0
        MOV     DPH,R1
        INC     DPTR
        INC     DPTR
        INC     DPTR
        INC     DPTR
        INC     DPTR
        MOVX    @DPTR,A
        MOV     DPL,R6
        MOV     DPH,R7
        INC     DPTR
        MOV     R6,DPL
        MOV     R7,DPH
// 2919       pList->nextHopAddress = BUILD_UINT16( msg[0], msg[1] );
        MOV     DPL,R6
        MOV     DPH,R7
        MOVX    A,@DPTR
        MOV     ?V0 + 8,A
        MOV     ?V0 + 9,#0x0
        MOV     DPL,R6
        MOV     DPH,R7
        INC     DPTR
        MOVX    A,@DPTR
        MOV     R4,A
        MOV     R5,#0x0
        CLR     A
        XCH     A,R4
        MOV     R5,A
        MOV     A,?V0 + 8
        ADD     A,R4
        MOV     R4,A
        MOV     A,?V0 + 9
        ADDC    A,R5
        MOV     R5,A
        MOV     DPL,R0
        MOV     DPH,R1
        INC     DPTR
        INC     DPTR
        MOV     A,R4
        MOVX    @DPTR,A
        INC     DPTR
        MOV     A,R5
        MOVX    @DPTR,A
// 2920       msg += 2;
        MOV     A,R6
        ADD     A,#0x2
        MOV     R6,A
        MOV     A,R7
        ADDC    A,#0x0
        MOV     R7,A
// 2921       pList++;
        MOV     A,R0
        ADD     A,#0x7
        MOV     R0,A
        MOV     A,R1
        ADDC    A,#0x0
        MOV     R1,A
// 2922     }
        INC     R2
        LJMP    ??ZDO_ParseMgmtRtgRsp_2 & 0xFFFF
// 2923   }
// 2924 
// 2925   return ( pRsp );
??ZDO_ParseMgmtRtgRsp_1:
        MOV     R2,?V0 + 0
        MOV     R3,?V0 + 1
        MOV     R7,#0xa
        LJMP    ?BANKED_LEAVE_XDATA
        CFI EndBlock cfiBlock46
// 2926 }
// 2927 
// 2928 /*********************************************************************
// 2929  * @fn          ZDO_ParseMgmtBindRsp
// 2930  *
// 2931  * @brief       This function parses the incoming Management
// 2932  *              Binding response.
// 2933  *
// 2934  * @param       inMsg - pointer to message to parse
// 2935  *
// 2936  * @return      a pointer to parsed response structure (NULL if not allocated).
// 2937  *          This structure was allocated using osal_mem_alloc, so it must be freed
// 2938  *          by the calling function [osal_mem_free()].
// 2939  */

        RSEG BANKED_CODE:CODE:NOROOT(0)
// 2940 ZDO_MgmtBindRsp_t *ZDO_ParseMgmtBindRsp( zdoIncomingMsg_t *inMsg )
ZDO_ParseMgmtBindRsp:
        CFI Block cfiBlock47 Using cfiCommon0
        CFI Function ZDO_ParseMgmtBindRsp
        CODE
// 2941 {
        FUNCALL ZDO_ParseMgmtBindRsp, osal_mem_alloc
        LOCFRAME ISTACK, 0, STACK
        LOCFRAME PSTACK, 0, STACK
        LOCFRAME XSTACK, 22, STACK
        LOCFRAME IOVERLAY, 0, STATIC
        LOCFRAME DOVERLAY, 0, STATIC
        ARGFRAME ISTACK, 0, STACK
        ARGFRAME PSTACK, 0, STACK
        ARGFRAME XSTACK, 22, STACK
        ARGFRAME IOVERLAY, 0, STATIC
        ARGFRAME DOVERLAY, 0, STATIC
        FUNCALL ZDO_ParseMgmtBindRsp, sAddrExtCpy
        LOCFRAME ISTACK, 0, STACK
        LOCFRAME PSTACK, 0, STACK
        LOCFRAME XSTACK, 22, STACK
        LOCFRAME IOVERLAY, 0, STATIC
        LOCFRAME DOVERLAY, 0, STATIC
        ARGFRAME ISTACK, 0, STACK
        ARGFRAME PSTACK, 0, STACK
        ARGFRAME XSTACK, 22, STACK
        ARGFRAME IOVERLAY, 0, STATIC
        ARGFRAME DOVERLAY, 0, STATIC
        FUNCALL ZDO_ParseMgmtBindRsp, sAddrExtCpy
        LOCFRAME ISTACK, 0, STACK
        LOCFRAME PSTACK, 0, STACK
        LOCFRAME XSTACK, 22, STACK
        LOCFRAME IOVERLAY, 0, STATIC
        LOCFRAME DOVERLAY, 0, STATIC
        ARGFRAME ISTACK, 0, STACK
        ARGFRAME PSTACK, 0, STACK
        ARGFRAME XSTACK, 22, STACK
        ARGFRAME IOVERLAY, 0, STATIC
        ARGFRAME DOVERLAY, 0, STATIC
        MOV     A,#-0x16
        LCALL   ?BANKED_ENTER_XDATA
        CFI DPH0 load(1, XDATA, add(CFA_XSP16, literal(-1)))
        CFI DPL0 load(1, XDATA, add(CFA_XSP16, literal(-2)))
        CFI ?BRET_EXT load(1, XDATA, add(CFA_XSP16, literal(-3)))
        CFI ?RET_HIGH load(1, XDATA, add(CFA_XSP16, literal(-4)))
        CFI ?RET_LOW load(1, XDATA, add(CFA_XSP16, literal(-5)))
        CFI R7 load(1, XDATA, add(CFA_XSP16, literal(-6)))
        CFI V13 load(1, XDATA, add(CFA_XSP16, literal(-7)))
        CFI V12 load(1, XDATA, add(CFA_XSP16, literal(-8)))
        CFI V11 load(1, XDATA, add(CFA_XSP16, literal(-9)))
        CFI V10 load(1, XDATA, add(CFA_XSP16, literal(-10)))
        CFI V9 load(1, XDATA, add(CFA_XSP16, literal(-11)))
        CFI V8 load(1, XDATA, add(CFA_XSP16, literal(-12)))
        CFI V7 load(1, XDATA, add(CFA_XSP16, literal(-13)))
        CFI V6 load(1, XDATA, add(CFA_XSP16, literal(-14)))
        CFI V5 load(1, XDATA, add(CFA_XSP16, literal(-15)))
        CFI V4 load(1, XDATA, add(CFA_XSP16, literal(-16)))
        CFI V3 load(1, XDATA, add(CFA_XSP16, literal(-17)))
        CFI V2 load(1, XDATA, add(CFA_XSP16, literal(-18)))
        CFI V1 load(1, XDATA, add(CFA_XSP16, literal(-19)))
        CFI V0 load(1, XDATA, add(CFA_XSP16, literal(-20)))
        CFI VB load(1, XDATA, add(CFA_XSP16, literal(-21)))
        CFI R6 load(1, XDATA, add(CFA_XSP16, literal(-22)))
        CFI CFA_SP SP+0
        CFI CFA_XSP16 add(XSP16, 22)
        ; Saved register size: 22
        ; Auto size: 0
        MOV     ?V0 + 10,R2
        MOV     ?V0 + 11,R3
// 2942   ZDO_MgmtBindRsp_t *pRsp;
// 2943   uint8 status;
// 2944   uint8 bindingCount = 0;
        MOV     ?V0 + 6,#0x0
// 2945   uint8 startIndex = 0;
        MOV     ?V0 + 5,#0x0
// 2946   uint8 bindingListCount = 0;
        MOV     ?V0 + 4,#0x0
// 2947   uint8 *msg;
// 2948 
// 2949   msg = inMsg->asdu;
        MOV     A,?V0 + 10
        ADD     A,#0x13
        MOV     DPL,A
        MOV     A,?V0 + 11
        ADDC    A,#0x0
        MOV     DPH,A
        MOVX    A,@DPTR
        MOV     R0,A
        INC     DPTR
        MOVX    A,@DPTR
        MOV     R1,A
        MOV     ?V0 + 2,R0
        MOV     ?V0 + 3,R1
// 2950 
// 2951   status = *msg++;
        MOV     DPL,?V0 + 2
        MOV     DPH,?V0 + 3
        MOVX    A,@DPTR
        MOV     ?V0 + 8,A
        MOV     DPL,?V0 + 2
        MOV     DPH,?V0 + 3
        INC     DPTR
        MOV     ?V0 + 2,DPL
        MOV     ?V0 + 3,DPH
// 2952   if ( status == ZSuccess )
        MOV     A,?V0 + 8
        JNZ     ??ZDO_ParseMgmtBindRsp_0
// 2953   {
// 2954     bindingCount = *msg++;
        MOV     DPL,?V0 + 2
        MOV     DPH,?V0 + 3
        MOVX    A,@DPTR
        MOV     ?V0 + 6,A
        MOV     DPL,?V0 + 2
        MOV     DPH,?V0 + 3
        INC     DPTR
        MOV     ?V0 + 2,DPL
        MOV     ?V0 + 3,DPH
// 2955     startIndex = *msg++;
        MOV     DPL,?V0 + 2
        MOV     DPH,?V0 + 3
        MOVX    A,@DPTR
        MOV     ?V0 + 5,A
        MOV     DPL,?V0 + 2
        MOV     DPH,?V0 + 3
        INC     DPTR
        MOV     ?V0 + 2,DPL
        MOV     ?V0 + 3,DPH
// 2956     bindingListCount = *msg++;
        MOV     DPL,?V0 + 2
        MOV     DPH,?V0 + 3
        MOVX    A,@DPTR
        MOV     ?V0 + 4,A
        MOV     DPL,?V0 + 2
        MOV     DPH,?V0 + 3
        INC     DPTR
        MOV     ?V0 + 2,DPL
        MOV     ?V0 + 3,DPH
// 2957   }
// 2958 
// 2959   // Allocate a buffer big enough to handle the list
// 2960   pRsp = (ZDO_MgmtBindRsp_t *)osal_mem_alloc(
// 2961           (sizeof ( ZDO_MgmtBindRsp_t ) + (bindingListCount * sizeof( apsBindingItem_t ))) );
??ZDO_ParseMgmtBindRsp_0:
        ; Setup parameters for call to function osal_mem_alloc
        MOV     A,?V0 + 4
        MOV     R0,?V0 + 4
        MOV     R1,#0x0
        MOV     A,R0
        MOV     B,#0x15
        MUL     AB
        XCH     A,R0
        MOV     R2,B
        MOV     B,#0x0
        MUL     AB
        ADD     A,R2
        MOV     R2,A
        MOV     B,#0x15
        MOV     A,R1
        MUL     AB
        ADD     A,R2
        MOV     R1,A
        MOV     A,R0
        ADD     A,#0x4
        MOV     R2,A
        MOV     A,R1
        ADDC    A,#0x0
        MOV     R3,A
        LCALL   ??osal_mem_alloc?relay
        MOV     ?V0 + 12,R2
        MOV     ?V0 + 13,R3
        MOV     ?V0 + 0,?V0 + 12
        MOV     ?V0 + 1,?V0 + 13
// 2962   if ( pRsp )
        MOV     A,?V0 + 0
        ORL     A,?V0 + 1
        JNZ     $+5
        LJMP    ??ZDO_ParseMgmtBindRsp_1 & 0xFFFF
// 2963   {
// 2964     uint8 x;
// 2965     apsBindingItem_t *pList = pRsp->list;
        MOV     A,?V0 + 0
        ADD     A,#0x4
        MOV     R6,A
        MOV     A,?V0 + 1
        ADDC    A,#0x0
        MOV     R7,A
// 2966     pRsp->status = status;
        MOV     A,?V0 + 8
        MOV     DPL,?V0 + 0
        MOV     DPH,?V0 + 1
        MOV     A,?V0 + 8
        MOVX    @DPTR,A
// 2967     pRsp->bindingCount = bindingCount;
        MOV     A,?V0 + 6
        MOV     DPL,?V0 + 0
        MOV     DPH,?V0 + 1
        INC     DPTR
        MOV     A,?V0 + 6
        MOVX    @DPTR,A
// 2968     pRsp->startIndex = startIndex;
        MOV     A,?V0 + 5
        MOV     DPL,?V0 + 0
        MOV     DPH,?V0 + 1
        INC     DPTR
        INC     DPTR
        MOV     A,?V0 + 5
        MOVX    @DPTR,A
// 2969     pRsp->bindingListCount = bindingListCount;
        MOV     A,?V0 + 4
        MOV     DPL,?V0 + 0
        MOV     DPH,?V0 + 1
        INC     DPTR
        INC     DPTR
        INC     DPTR
        MOV     A,?V0 + 4
        MOVX    @DPTR,A
// 2970 
// 2971     for ( x = 0; x < bindingListCount; x++ )
        MOV     ?V0 + 7,#0x0
??ZDO_ParseMgmtBindRsp_2:
        MOV     A,?V0 + 7
        CLR     C
        SUBB    A,?V0 + 4
        JC      $+5
        LJMP    ??ZDO_ParseMgmtBindRsp_1 & 0xFFFF
// 2972     {
// 2973       osal_cpyExtAddr( pList->srcAddr, msg );
        ; Setup parameters for call to function sAddrExtCpy
        MOV     R4,?V0 + 2
        MOV     R5,?V0 + 3
        MOV     A,R6
        MOV     R2,A
        MOV     A,R7
        MOV     R3,A
        LCALL   ??sAddrExtCpy?relay
// 2974       msg += Z_EXTADDR_LEN;
        MOV     A,?V0 + 2
        ADD     A,#0x8
        MOV     ?V0 + 2,A
        MOV     A,?V0 + 3
        ADDC    A,#0x0
        MOV     ?V0 + 3,A
// 2975       pList->srcEP = *msg++;
        MOV     DPL,?V0 + 2
        MOV     DPH,?V0 + 3
        MOVX    A,@DPTR
        MOV     DPL,R6
        MOV     DPH,R7
        INC     DPTR
        INC     DPTR
        INC     DPTR
        INC     DPTR
        INC     DPTR
        INC     DPTR
        INC     DPTR
        INC     DPTR
        MOVX    @DPTR,A
        MOV     DPL,?V0 + 2
        MOV     DPH,?V0 + 3
        INC     DPTR
        MOV     ?V0 + 2,DPL
        MOV     ?V0 + 3,DPH
// 2976 
// 2977       // Get the Cluster ID
// 2978 
// 2979       pList->clusterID = BUILD_UINT16( msg[0], msg[1] );
        MOV     DPL,?V0 + 2
        MOV     DPH,?V0 + 3
        MOVX    A,@DPTR
        MOV     R2,A
        MOV     R3,#0x0
        MOV     DPL,?V0 + 2
        MOV     DPH,?V0 + 3
        INC     DPTR
        MOVX    A,@DPTR
        MOV     R0,A
        MOV     R1,#0x0
        CLR     A
        XCH     A,R0
        MOV     R1,A
        MOV     A,R2
        ADD     A,R0
        MOV     R0,A
        MOV     A,R3
        ADDC    A,R1
        MOV     R1,A
        MOV     DPL,R6
        MOV     DPH,R7
        INC     DPTR
        INC     DPTR
        INC     DPTR
        INC     DPTR
        INC     DPTR
        INC     DPTR
        INC     DPTR
        INC     DPTR
        INC     DPTR
        MOV     A,R0
        MOVX    @DPTR,A
        INC     DPTR
        MOV     A,R1
        MOVX    @DPTR,A
// 2980       msg += 2;
        MOV     A,?V0 + 2
        ADD     A,#0x2
        MOV     ?V0 + 2,A
        MOV     A,?V0 + 3
        ADDC    A,#0x0
        MOV     ?V0 + 3,A
// 2981       pList->dstAddr.addrMode = *msg++;
        MOV     DPL,?V0 + 2
        MOV     DPH,?V0 + 3
        MOVX    A,@DPTR
        PUSH    A
        CFI CFA_SP SP+-1
        MOV     A,R6
        ADD     A,#0x13
        MOV     DPL,A
        MOV     A,R7
        ADDC    A,#0x0
        MOV     DPH,A
        POP     A
        CFI CFA_SP SP+0
        MOVX    @DPTR,A
        MOV     DPL,?V0 + 2
        MOV     DPH,?V0 + 3
        INC     DPTR
        MOV     ?V0 + 2,DPL
        MOV     ?V0 + 3,DPH
// 2982       if ( pList->dstAddr.addrMode == Addr64Bit )
        MOV     A,R6
        ADD     A,#0x13
        MOV     DPL,A
        MOV     A,R7
        ADDC    A,#0x0
        MOV     DPH,A
        MOVX    A,@DPTR
        XRL     A,#0x3
        JNZ     ??ZDO_ParseMgmtBindRsp_3
// 2983       {
// 2984         osal_cpyExtAddr( pList->dstAddr.addr.extAddr, msg );
        ; Setup parameters for call to function sAddrExtCpy
        MOV     R4,?V0 + 2
        MOV     R5,?V0 + 3
        MOV     A,R6
        ADD     A,#0xb
        MOV     R2,A
        MOV     A,R7
        ADDC    A,#0x0
        MOV     R3,A
        LCALL   ??sAddrExtCpy?relay
// 2985         msg += Z_EXTADDR_LEN;
        MOV     A,?V0 + 2
        ADD     A,#0x8
        MOV     ?V0 + 2,A
        MOV     A,?V0 + 3
        ADDC    A,#0x0
        MOV     ?V0 + 3,A
// 2986         pList->dstEP = *msg++;
        MOV     DPL,?V0 + 2
        MOV     DPH,?V0 + 3
        MOVX    A,@DPTR
        PUSH    A
        CFI CFA_SP SP+-1
        MOV     A,R6
        ADD     A,#0x14
        MOV     DPL,A
        MOV     A,R7
        ADDC    A,#0x0
        MOV     DPH,A
        POP     A
        CFI CFA_SP SP+0
        MOVX    @DPTR,A
        MOV     DPL,?V0 + 2
        MOV     DPH,?V0 + 3
        INC     DPTR
        MOV     ?V0 + 2,DPL
        MOV     ?V0 + 3,DPH
        SJMP    ??ZDO_ParseMgmtBindRsp_4
// 2987       }
// 2988       else
// 2989       {
// 2990         pList->dstAddr.addr.shortAddr = BUILD_UINT16( msg[0], msg[1] );
??ZDO_ParseMgmtBindRsp_3:
        MOV     DPL,?V0 + 2
        MOV     DPH,?V0 + 3
        MOVX    A,@DPTR
        MOV     R2,A
        MOV     R3,#0x0
        MOV     DPL,?V0 + 2
        MOV     DPH,?V0 + 3
        INC     DPTR
        MOVX    A,@DPTR
        MOV     R0,A
        MOV     R1,#0x0
        CLR     A
        XCH     A,R0
        MOV     R1,A
        MOV     A,R2
        ADD     A,R0
        MOV     R0,A
        MOV     A,R3
        ADDC    A,R1
        MOV     R1,A
        MOV     A,R6
        ADD     A,#0xb
        MOV     DPL,A
        MOV     A,R7
        ADDC    A,#0x0
        MOV     DPH,A
        MOV     A,R0
        MOVX    @DPTR,A
        INC     DPTR
        MOV     A,R1
        MOVX    @DPTR,A
// 2991         msg += 2;
        MOV     A,?V0 + 2
        ADD     A,#0x2
        MOV     ?V0 + 2,A
        MOV     A,?V0 + 3
        ADDC    A,#0x0
        MOV     ?V0 + 3,A
// 2992       }
// 2993 
// 2994       pList++;
??ZDO_ParseMgmtBindRsp_4:
        MOV     A,R6
        ADD     A,#0x15
        MOV     R6,A
        MOV     A,R7
        ADDC    A,#0x0
        MOV     R7,A
// 2995     }
        INC     ?V0 + 7
        LJMP    ??ZDO_ParseMgmtBindRsp_2 & 0xFFFF
// 2996   }
// 2997 
// 2998   return ( pRsp );
??ZDO_ParseMgmtBindRsp_1:
        MOV     R2,?V0 + 0
        MOV     R3,?V0 + 1
        MOV     R7,#0xe
        LJMP    ?BANKED_LEAVE_XDATA
        CFI EndBlock cfiBlock47
// 2999 }
// 3000 
// 3001 /*********************************************************************
// 3002  * @fn          ZDO_ParseUserDescRsp
// 3003  *
// 3004  * @brief       This function parses the incoming User
// 3005  *              Descriptor Response.
// 3006  *
// 3007  * @param       inMsg - incoming response message
// 3008  *
// 3009  * @return      a pointer to parsed response structure (NULL if not allocated).
// 3010  *          This structure was allocated using osal_mem_alloc, so it must be freed
// 3011  *          by the calling function [osal_mem_free()].
// 3012  */

        RSEG BANKED_CODE:CODE:NOROOT(0)
// 3013 ZDO_UserDescRsp_t *ZDO_ParseUserDescRsp( zdoIncomingMsg_t *inMsg )
ZDO_ParseUserDescRsp:
        CFI Block cfiBlock48 Using cfiCommon0
        CFI Function ZDO_ParseUserDescRsp
        CODE
// 3014 {
        FUNCALL ZDO_ParseUserDescRsp, osal_mem_alloc
        LOCFRAME ISTACK, 0, STACK
        LOCFRAME PSTACK, 0, STACK
        LOCFRAME XSTACK, 16, STACK
        LOCFRAME IOVERLAY, 0, STATIC
        LOCFRAME DOVERLAY, 0, STATIC
        ARGFRAME ISTACK, 0, STACK
        ARGFRAME PSTACK, 0, STACK
        ARGFRAME XSTACK, 16, STACK
        ARGFRAME IOVERLAY, 0, STATIC
        ARGFRAME DOVERLAY, 0, STATIC
        FUNCALL ZDO_ParseUserDescRsp, osal_memcpy
        LOCFRAME ISTACK, 0, STACK
        LOCFRAME PSTACK, 0, STACK
        LOCFRAME XSTACK, 19, STACK
        LOCFRAME IOVERLAY, 0, STATIC
        LOCFRAME DOVERLAY, 0, STATIC
        ARGFRAME ISTACK, 0, STACK
        ARGFRAME PSTACK, 0, STACK
        ARGFRAME XSTACK, 19, STACK
        ARGFRAME IOVERLAY, 0, STATIC
        ARGFRAME DOVERLAY, 0, STATIC
        MOV     A,#-0x10
        LCALL   ?BANKED_ENTER_XDATA
        CFI DPH0 load(1, XDATA, add(CFA_XSP16, literal(-1)))
        CFI DPL0 load(1, XDATA, add(CFA_XSP16, literal(-2)))
        CFI ?BRET_EXT load(1, XDATA, add(CFA_XSP16, literal(-3)))
        CFI ?RET_HIGH load(1, XDATA, add(CFA_XSP16, literal(-4)))
        CFI ?RET_LOW load(1, XDATA, add(CFA_XSP16, literal(-5)))
        CFI R7 load(1, XDATA, add(CFA_XSP16, literal(-6)))
        CFI V7 load(1, XDATA, add(CFA_XSP16, literal(-7)))
        CFI V6 load(1, XDATA, add(CFA_XSP16, literal(-8)))
        CFI V5 load(1, XDATA, add(CFA_XSP16, literal(-9)))
        CFI V4 load(1, XDATA, add(CFA_XSP16, literal(-10)))
        CFI V3 load(1, XDATA, add(CFA_XSP16, literal(-11)))
        CFI V2 load(1, XDATA, add(CFA_XSP16, literal(-12)))
        CFI V1 load(1, XDATA, add(CFA_XSP16, literal(-13)))
        CFI V0 load(1, XDATA, add(CFA_XSP16, literal(-14)))
        CFI VB load(1, XDATA, add(CFA_XSP16, literal(-15)))
        CFI R6 load(1, XDATA, add(CFA_XSP16, literal(-16)))
        CFI CFA_SP SP+0
        CFI CFA_XSP16 add(XSP16, 16)
        ; Saved register size: 16
        ; Auto size: 0
        MOV     ?V0 + 2,R2
        MOV     ?V0 + 3,R3
// 3015   ZDO_UserDescRsp_t *pRsp;
// 3016   uint8 *msg;
// 3017   uint8 descLen = 0;
        MOV     ?V0 + 7,#0x0
// 3018 
// 3019   msg = inMsg->asdu;
        MOV     A,?V0 + 2
        ADD     A,#0x13
        MOV     DPL,A
        MOV     A,?V0 + 3
        ADDC    A,#0x0
        MOV     DPH,A
        MOVX    A,@DPTR
        MOV     R0,A
        INC     DPTR
        MOVX    A,@DPTR
        MOV     R1,A
        MOV     ?V0 + 0,R0
        MOV     ?V0 + 1,R1
// 3020 
// 3021   if ( msg[0] == ZSuccess )
        MOV     DPL,?V0 + 0
        MOV     DPH,?V0 + 1
        MOVX    A,@DPTR
        JNZ     ??ZDO_ParseUserDescRsp_0
// 3022   {
// 3023     descLen = msg[3];
        MOV     DPL,?V0 + 0
        MOV     DPH,?V0 + 1
        INC     DPTR
        INC     DPTR
        INC     DPTR
        MOVX    A,@DPTR
        MOV     ?V0 + 7,A
// 3024   }
// 3025 
// 3026   pRsp = (ZDO_UserDescRsp_t *)osal_mem_alloc( sizeof ( ZDO_UserDescRsp_t ) + descLen );
??ZDO_ParseUserDescRsp_0:
        ; Setup parameters for call to function osal_mem_alloc
        MOV     ?V0 + 4,?V0 + 7
        MOV     ?V0 + 5,#0x0
        MOV     A,?V0 + 4
        ADD     A,#0x4
        MOV     R2,A
        MOV     A,?V0 + 5
        ADDC    A,#0x0
        MOV     R3,A
        LCALL   ??osal_mem_alloc?relay
        MOV     ?V0 + 4,R2
        MOV     ?V0 + 5,R3
        MOV     R6,?V0 + 4
        MOV     R7,?V0 + 5
// 3027   if ( pRsp )
        MOV     A,R6
        ORL     A,R7
        JZ      ??ZDO_ParseUserDescRsp_1
// 3028   {
// 3029     pRsp->status = msg[0];
        MOV     DPL,?V0 + 0
        MOV     DPH,?V0 + 1
        MOVX    A,@DPTR
        MOV     DPL,R6
        MOV     DPH,R7
        MOVX    @DPTR,A
// 3030     pRsp->nwkAddr = BUILD_UINT16( msg[1], msg[2] );
        MOV     DPL,?V0 + 0
        MOV     DPH,?V0 + 1
        INC     DPTR
        MOVX    A,@DPTR
        MOV     R2,A
        MOV     R3,#0x0
        MOV     DPL,?V0 + 0
        MOV     DPH,?V0 + 1
        INC     DPTR
        INC     DPTR
        MOVX    A,@DPTR
        MOV     R0,A
        MOV     R1,#0x0
        CLR     A
        XCH     A,R0
        MOV     R1,A
        MOV     A,R2
        ADD     A,R0
        MOV     R0,A
        MOV     A,R3
        ADDC    A,R1
        MOV     R1,A
        MOV     DPL,R6
        MOV     DPH,R7
        INC     DPTR
        MOV     A,R0
        MOVX    @DPTR,A
        INC     DPTR
        MOV     A,R1
        MOVX    @DPTR,A
// 3031     pRsp->length = descLen;
        MOV     A,?V0 + 7
        MOV     DPL,R6
        MOV     DPH,R7
        INC     DPTR
        INC     DPTR
        INC     DPTR
        MOV     A,?V0 + 7
        MOVX    @DPTR,A
// 3032     if ( descLen )
        MOV     A,?V0 + 7
        JZ      ??ZDO_ParseUserDescRsp_1
// 3033     {
// 3034       osal_memcpy( pRsp->desc, &msg[4], descLen );
        ; Setup parameters for call to function osal_memcpy
        MOV     A,?V0 + 0
        ADD     A,#0x4
        MOV     ?V0 + 4,A
        MOV     A,?V0 + 1
        ADDC    A,#0x0
        MOV     ?V0 + 5,A
        MOV     ?V0 + 6,#0x0
        MOV     R0,#?V0 + 4
        LCALL   ?PUSH_XSTACK_I_THREE
        CFI CFA_XSP16 add(XSP16, 19)
        MOV     ?V0 + 4,?V0 + 7
        MOV     ?V0 + 5,#0x0
        MOV     R4,?V0 + 4
        MOV     R5,?V0 + 5
        MOV     A,R6
        ADD     A,#0x4
        MOV     R2,A
        MOV     A,R7
        ADDC    A,#0x0
        MOV     R3,A
        LCALL   ??osal_memcpy?relay
        MOV     A,#0x3
        LCALL   ?DEALLOC_XSTACK8
        CFI CFA_XSP16 add(XSP16, 16)
// 3035     }
// 3036   }
// 3037 
// 3038   return ( pRsp );
??ZDO_ParseUserDescRsp_1:
        MOV     A,R6
        MOV     R2,A
        MOV     A,R7
        MOV     R3,A
        MOV     R7,#0x8
        LJMP    ?BANKED_LEAVE_XDATA
        CFI EndBlock cfiBlock48
// 3039 }
// 3040 
// 3041 /*********************************************************************
// 3042  * @fn          ZDO_ParseSimpleDescBuf
// 3043  *
// 3044  * @brief       Parse a byte sequence representation of a Simple Descriptor.
// 3045  *
// 3046  * @param       buf  - pointer to a byte array representing a Simple Desc.
// 3047  * @param       desc - SimpleDescriptionFormat_t *
// 3048  *
// 3049  *              This routine allocates storage for the cluster IDs because
// 3050  *              they are 16-bit and need to be aligned to be properly processed.
// 3051  *              This routine returns non-zero if an allocation fails.
// 3052  *
// 3053  *              NOTE: This means that the caller or user of the input structure
// 3054  *                    is responsible for freeing the memory
// 3055  *
// 3056  * @return      0: success
// 3057  *              1: failure due to malloc failure.
// 3058  */

        RSEG BANKED_CODE:CODE:NOROOT(0)
// 3059 uint8 ZDO_ParseSimpleDescBuf( uint8 *buf, SimpleDescriptionFormat_t *desc )
ZDO_ParseSimpleDescBuf:
        CFI Block cfiBlock49 Using cfiCommon0
        CFI Function ZDO_ParseSimpleDescBuf
        CODE
// 3060 {
        FUNCALL ZDO_ParseSimpleDescBuf, osal_mem_alloc
        LOCFRAME ISTACK, 0, STACK
        LOCFRAME PSTACK, 0, STACK
        LOCFRAME XSTACK, 14, STACK
        LOCFRAME IOVERLAY, 0, STATIC
        LOCFRAME DOVERLAY, 0, STATIC
        ARGFRAME ISTACK, 0, STACK
        ARGFRAME PSTACK, 0, STACK
        ARGFRAME XSTACK, 14, STACK
        ARGFRAME IOVERLAY, 0, STATIC
        ARGFRAME DOVERLAY, 0, STATIC
        FUNCALL ZDO_ParseSimpleDescBuf, osal_mem_alloc
        LOCFRAME ISTACK, 0, STACK
        LOCFRAME PSTACK, 0, STACK
        LOCFRAME XSTACK, 14, STACK
        LOCFRAME IOVERLAY, 0, STATIC
        LOCFRAME DOVERLAY, 0, STATIC
        ARGFRAME ISTACK, 0, STACK
        ARGFRAME PSTACK, 0, STACK
        ARGFRAME XSTACK, 14, STACK
        ARGFRAME IOVERLAY, 0, STATIC
        ARGFRAME DOVERLAY, 0, STATIC
        FUNCALL ZDO_ParseSimpleDescBuf, osal_mem_free
        LOCFRAME ISTACK, 0, STACK
        LOCFRAME PSTACK, 0, STACK
        LOCFRAME XSTACK, 14, STACK
        LOCFRAME IOVERLAY, 0, STATIC
        LOCFRAME DOVERLAY, 0, STATIC
        ARGFRAME ISTACK, 0, STACK
        ARGFRAME PSTACK, 0, STACK
        ARGFRAME XSTACK, 14, STACK
        ARGFRAME IOVERLAY, 0, STATIC
        ARGFRAME DOVERLAY, 0, STATIC
        MOV     A,#-0xe
        LCALL   ?BANKED_ENTER_XDATA
        CFI DPH0 load(1, XDATA, add(CFA_XSP16, literal(-1)))
        CFI DPL0 load(1, XDATA, add(CFA_XSP16, literal(-2)))
        CFI ?BRET_EXT load(1, XDATA, add(CFA_XSP16, literal(-3)))
        CFI ?RET_HIGH load(1, XDATA, add(CFA_XSP16, literal(-4)))
        CFI ?RET_LOW load(1, XDATA, add(CFA_XSP16, literal(-5)))
        CFI R7 load(1, XDATA, add(CFA_XSP16, literal(-6)))
        CFI V5 load(1, XDATA, add(CFA_XSP16, literal(-7)))
        CFI V4 load(1, XDATA, add(CFA_XSP16, literal(-8)))
        CFI V3 load(1, XDATA, add(CFA_XSP16, literal(-9)))
        CFI V2 load(1, XDATA, add(CFA_XSP16, literal(-10)))
        CFI V1 load(1, XDATA, add(CFA_XSP16, literal(-11)))
        CFI V0 load(1, XDATA, add(CFA_XSP16, literal(-12)))
        CFI VB load(1, XDATA, add(CFA_XSP16, literal(-13)))
        CFI R6 load(1, XDATA, add(CFA_XSP16, literal(-14)))
        CFI CFA_SP SP+0
        CFI CFA_XSP16 add(XSP16, 14)
        ; Saved register size: 14
        ; Auto size: 0
        MOV     A,R2
        MOV     R6,A
        MOV     A,R3
        MOV     R7,A
        MOV     ?V0 + 0,R4
        MOV     ?V0 + 1,R5
// 3061   uint8 num, i;
// 3062 
// 3063   desc->EndPoint = *buf++;
        MOV     DPL,R6
        MOV     DPH,R7
        MOVX    A,@DPTR
        MOV     DPL,?V0 + 0
        MOV     DPH,?V0 + 1
        MOVX    @DPTR,A
        MOV     DPL,R6
        MOV     DPH,R7
        INC     DPTR
        MOV     R6,DPL
        MOV     R7,DPH
// 3064   desc->AppProfId = BUILD_UINT16( buf[0], buf[1] );
        MOV     DPL,R6
        MOV     DPH,R7
        MOVX    A,@DPTR
        MOV     R2,A
        MOV     R3,#0x0
        MOV     DPL,R6
        MOV     DPH,R7
        INC     DPTR
        MOVX    A,@DPTR
        MOV     R0,A
        MOV     R1,#0x0
        CLR     A
        XCH     A,R0
        MOV     R1,A
        MOV     A,R2
        ADD     A,R0
        MOV     R0,A
        MOV     A,R3
        ADDC    A,R1
        MOV     R1,A
        MOV     DPL,?V0 + 0
        MOV     DPH,?V0 + 1
        INC     DPTR
        MOV     A,R0
        MOVX    @DPTR,A
        INC     DPTR
        MOV     A,R1
        MOVX    @DPTR,A
// 3065   buf += 2;
        MOV     A,R6
        ADD     A,#0x2
        MOV     R6,A
        MOV     A,R7
        ADDC    A,#0x0
        MOV     R7,A
// 3066   desc->AppDeviceId = BUILD_UINT16( buf[0], buf[1] );
        MOV     DPL,R6
        MOV     DPH,R7
        MOVX    A,@DPTR
        MOV     R2,A
        MOV     R3,#0x0
        MOV     DPL,R6
        MOV     DPH,R7
        INC     DPTR
        MOVX    A,@DPTR
        MOV     R0,A
        MOV     R1,#0x0
        CLR     A
        XCH     A,R0
        MOV     R1,A
        MOV     A,R2
        ADD     A,R0
        MOV     R0,A
        MOV     A,R3
        ADDC    A,R1
        MOV     R1,A
        MOV     DPL,?V0 + 0
        MOV     DPH,?V0 + 1
        INC     DPTR
        INC     DPTR
        INC     DPTR
        MOV     A,R0
        MOVX    @DPTR,A
        INC     DPTR
        MOV     A,R1
        MOVX    @DPTR,A
// 3067   buf += 2;
        MOV     A,R6
        ADD     A,#0x2
        MOV     R6,A
        MOV     A,R7
        ADDC    A,#0x0
        MOV     R7,A
// 3068   desc->AppDevVer = *buf >> 4;
        MOV     DPL,R6
        MOV     DPH,R7
        MOVX    A,@DPTR
        SWAP    A
        ANL     A,#0xf
        MOV     R0,A
        MOV     DPL,?V0 + 0
        MOV     DPH,?V0 + 1
        INC     DPTR
        INC     DPTR
        INC     DPTR
        INC     DPTR
        INC     DPTR
        MOVX    A,@DPTR
        ANL     A,#0xf0
        ORL     A,R0
        MOV     DPL,?V0 + 0
        MOV     DPH,?V0 + 1
        INC     DPTR
        INC     DPTR
        INC     DPTR
        INC     DPTR
        INC     DPTR
        MOVX    @DPTR,A
// 3069 
// 3070   desc->Reserved = 0;
        MOV     DPL,?V0 + 0
        MOV     DPH,?V0 + 1
        INC     DPTR
        INC     DPTR
        INC     DPTR
        INC     DPTR
        INC     DPTR
        MOVX    A,@DPTR
        ANL     A,#0xf
        MOVX    @DPTR,A
// 3071   buf++;
        MOV     DPL,R6
        MOV     DPH,R7
        INC     DPTR
        MOV     R6,DPL
        MOV     R7,DPH
// 3072 
// 3073   // move in input cluster list (if any). allocate aligned memory.
// 3074   num = desc->AppNumInClusters = *buf++;
        MOV     DPL,R6
        MOV     DPH,R7
        MOVX    A,@DPTR
        MOV     R0,A
        MOV     DPL,R6
        MOV     DPH,R7
        INC     DPTR
        MOV     R6,DPL
        MOV     R7,DPH
        MOV     A,R0
        MOV     DPL,?V0 + 0
        MOV     DPH,?V0 + 1
        INC     DPTR
        INC     DPTR
        INC     DPTR
        INC     DPTR
        INC     DPTR
        INC     DPTR
        MOVX    @DPTR,A
        MOV     ?V0 + 3,R0
// 3075   if ( num )
        MOV     A,?V0 + 3
        JNZ     $+5
        LJMP    ??ZDO_ParseSimpleDescBuf_0 & 0xFFFF
// 3076   {
// 3077     if (!(desc->pAppInClusterList = (uint16 *)osal_mem_alloc(num*sizeof(uint16))))
        ; Setup parameters for call to function osal_mem_alloc
        MOV     A,?V0 + 3
        MOV     R2,?V0 + 3
        MOV     R3,#0x0
        MOV     A,R2
        MOV     B,#0x2
        MUL     AB
        XCH     A,R2
        MOV     R0,B
        MOV     B,#0x0
        MUL     AB
        ADD     A,R0
        MOV     R0,A
        MOV     B,#0x2
        MOV     A,R3
        MUL     AB
        ADD     A,R0
        MOV     R3,A
        LCALL   ??osal_mem_alloc?relay
        MOV     ?V0 + 4,R2
        MOV     ?V0 + 5,R3
        MOV     R0,?V0 + 4
        MOV     R1,?V0 + 5
        MOV     DPL,?V0 + 0
        MOV     DPH,?V0 + 1
        INC     DPTR
        INC     DPTR
        INC     DPTR
        INC     DPTR
        INC     DPTR
        INC     DPTR
        INC     DPTR
        MOV     A,R0
        MOVX    @DPTR,A
        INC     DPTR
        MOV     A,R1
        MOVX    @DPTR,A
        MOV     A,R0
        ORL     A,R1
        JNZ     ??ZDO_ParseSimpleDescBuf_1
// 3078     {
// 3079       // malloc failed. we're done.
// 3080       return 1;
        MOV     R1,#0x1
        LJMP    ??ZDO_ParseSimpleDescBuf_2 & 0xFFFF
// 3081     }
// 3082     for (i=0; i<num; ++i)
??ZDO_ParseSimpleDescBuf_1:
        MOV     ?V0 + 2,#0x0
??ZDO_ParseSimpleDescBuf_3:
        MOV     A,?V0 + 2
        CLR     C
        SUBB    A,?V0 + 3
        JNC     ??ZDO_ParseSimpleDescBuf_0
// 3083     {
// 3084       desc->pAppInClusterList[i] = BUILD_UINT16( buf[0], buf[1] );
        MOV     DPL,R6
        MOV     DPH,R7
        MOVX    A,@DPTR
        MOV     R2,A
        MOV     R3,#0x0
        MOV     DPL,R6
        MOV     DPH,R7
        INC     DPTR
        MOVX    A,@DPTR
        MOV     R0,A
        MOV     R1,#0x0
        CLR     A
        XCH     A,R0
        MOV     R1,A
        MOV     A,R2
        ADD     A,R0
        MOV     R2,A
        MOV     A,R3
        ADDC    A,R1
        MOV     R3,A
        MOV     A,?V0 + 2
        MOV     R0,?V0 + 2
        MOV     R1,#0x0
        MOV     A,R0
        MOV     B,#0x2
        MUL     AB
        XCH     A,R0
        MOV     R4,B
        MOV     B,#0x0
        MUL     AB
        ADD     A,R4
        MOV     R4,A
        MOV     B,#0x2
        MOV     A,R1
        MUL     AB
        ADD     A,R4
        MOV     R1,A
        MOV     DPL,?V0 + 0
        MOV     DPH,?V0 + 1
        INC     DPTR
        INC     DPTR
        INC     DPTR
        INC     DPTR
        INC     DPTR
        INC     DPTR
        INC     DPTR
        MOVX    A,@DPTR
        ADD     A,R0
        MOV     R4,A
        INC     DPTR
        MOVX    A,@DPTR
        ADDC    A,R1
        MOV     DPL,R4
        MOV     DPH,A
        MOV     A,R2
        MOVX    @DPTR,A
        INC     DPTR
        MOV     A,R3
        MOVX    @DPTR,A
// 3085       buf += 2;
        MOV     A,R6
        ADD     A,#0x2
        MOV     R6,A
        MOV     A,R7
        ADDC    A,#0x0
        MOV     R7,A
// 3086     }
        INC     ?V0 + 2
        SJMP    ??ZDO_ParseSimpleDescBuf_3
// 3087   }
// 3088 
// 3089   // move in output cluster list (if any). allocate aligned memory.
// 3090   num = desc->AppNumOutClusters = *buf++;
??ZDO_ParseSimpleDescBuf_0:
        MOV     DPL,R6
        MOV     DPH,R7
        MOVX    A,@DPTR
        MOV     R0,A
        MOV     DPL,R6
        MOV     DPH,R7
        INC     DPTR
        MOV     R6,DPL
        MOV     R7,DPH
        MOV     A,R0
        MOV     DPL,?V0 + 0
        MOV     DPH,?V0 + 1
        INC     DPTR
        INC     DPTR
        INC     DPTR
        INC     DPTR
        INC     DPTR
        INC     DPTR
        INC     DPTR
        INC     DPTR
        INC     DPTR
        MOVX    @DPTR,A
        MOV     ?V0 + 3,R0
// 3091   if (num)
        MOV     A,?V0 + 3
        JNZ     $+5
        LJMP    ??ZDO_ParseSimpleDescBuf_4 & 0xFFFF
// 3092   {
// 3093     if (!(desc->pAppOutClusterList = (uint16 *)osal_mem_alloc(num*sizeof(uint16))))
        ; Setup parameters for call to function osal_mem_alloc
        MOV     A,?V0 + 3
        MOV     R2,?V0 + 3
        MOV     R3,#0x0
        MOV     A,R2
        MOV     B,#0x2
        MUL     AB
        XCH     A,R2
        MOV     R0,B
        MOV     B,#0x0
        MUL     AB
        ADD     A,R0
        MOV     R0,A
        MOV     B,#0x2
        MOV     A,R3
        MUL     AB
        ADD     A,R0
        MOV     R3,A
        LCALL   ??osal_mem_alloc?relay
        MOV     ?V0 + 4,R2
        MOV     ?V0 + 5,R3
        MOV     R0,?V0 + 4
        MOV     R1,?V0 + 5
        MOV     DPL,?V0 + 0
        MOV     DPH,?V0 + 1
        INC     DPTR
        INC     DPTR
        INC     DPTR
        INC     DPTR
        INC     DPTR
        INC     DPTR
        INC     DPTR
        INC     DPTR
        INC     DPTR
        INC     DPTR
        MOV     A,R0
        MOVX    @DPTR,A
        INC     DPTR
        MOV     A,R1
        MOVX    @DPTR,A
        MOV     A,R0
        ORL     A,R1
        JNZ     ??ZDO_ParseSimpleDescBuf_5
// 3094     {
// 3095       // malloc failed. free input cluster list memory if there is any
// 3096       if ( desc->pAppInClusterList != NULL )
        MOV     DPL,?V0 + 0
        MOV     DPH,?V0 + 1
        INC     DPTR
        INC     DPTR
        INC     DPTR
        INC     DPTR
        INC     DPTR
        INC     DPTR
        INC     DPTR
        MOVX    A,@DPTR
        MOV     R0,A
        INC     DPTR
        MOVX    A,@DPTR
        MOV     R1,A
        MOV     A,R0
        ORL     A,R1
        JZ      ??ZDO_ParseSimpleDescBuf_6
// 3097       {
// 3098         osal_mem_free(desc->pAppInClusterList);
        ; Setup parameters for call to function osal_mem_free
        MOV     DPL,?V0 + 0
        MOV     DPH,?V0 + 1
        INC     DPTR
        INC     DPTR
        INC     DPTR
        INC     DPTR
        INC     DPTR
        INC     DPTR
        INC     DPTR
        MOVX    A,@DPTR
        MOV     R2,A
        INC     DPTR
        MOVX    A,@DPTR
        MOV     R3,A
        LCALL   ??osal_mem_free?relay
// 3099 
// 3100         desc->pAppInClusterList = NULL;
        MOV     DPL,?V0 + 0
        MOV     DPH,?V0 + 1
        INC     DPTR
        INC     DPTR
        INC     DPTR
        INC     DPTR
        INC     DPTR
        INC     DPTR
        INC     DPTR
        MOV     A,#0x0
        MOVX    @DPTR,A
        INC     DPTR
        MOV     A,#0x0
        MOVX    @DPTR,A
// 3101       }
// 3102       return 1;
??ZDO_ParseSimpleDescBuf_6:
        MOV     R1,#0x1
        SJMP    ??ZDO_ParseSimpleDescBuf_2
// 3103     }
// 3104     for (i=0; i<num; ++i)
??ZDO_ParseSimpleDescBuf_5:
        MOV     ?V0 + 2,#0x0
??ZDO_ParseSimpleDescBuf_7:
        MOV     A,?V0 + 2
        CLR     C
        SUBB    A,?V0 + 3
        JNC     ??ZDO_ParseSimpleDescBuf_4
// 3105     {
// 3106       desc->pAppOutClusterList[i] = BUILD_UINT16( buf[0], buf[1] );
        MOV     DPL,R6
        MOV     DPH,R7
        MOVX    A,@DPTR
        MOV     R2,A
        MOV     R3,#0x0
        MOV     DPL,R6
        MOV     DPH,R7
        INC     DPTR
        MOVX    A,@DPTR
        MOV     R0,A
        MOV     R1,#0x0
        CLR     A
        XCH     A,R0
        MOV     R1,A
        MOV     A,R2
        ADD     A,R0
        MOV     R2,A
        MOV     A,R3
        ADDC    A,R1
        MOV     R3,A
        MOV     A,?V0 + 2
        MOV     R0,?V0 + 2
        MOV     R1,#0x0
        MOV     A,R0
        MOV     B,#0x2
        MUL     AB
        XCH     A,R0
        MOV     R4,B
        MOV     B,#0x0
        MUL     AB
        ADD     A,R4
        MOV     R4,A
        MOV     B,#0x2
        MOV     A,R1
        MUL     AB
        ADD     A,R4
        MOV     R1,A
        MOV     DPL,?V0 + 0
        MOV     DPH,?V0 + 1
        INC     DPTR
        INC     DPTR
        INC     DPTR
        INC     DPTR
        INC     DPTR
        INC     DPTR
        INC     DPTR
        INC     DPTR
        INC     DPTR
        INC     DPTR
        MOVX    A,@DPTR
        ADD     A,R0
        MOV     R4,A
        INC     DPTR
        MOVX    A,@DPTR
        ADDC    A,R1
        MOV     DPL,R4
        MOV     DPH,A
        MOV     A,R2
        MOVX    @DPTR,A
        INC     DPTR
        MOV     A,R3
        MOVX    @DPTR,A
// 3107       buf += 2;
        MOV     A,R6
        ADD     A,#0x2
        MOV     R6,A
        MOV     A,R7
        ADDC    A,#0x0
        MOV     R7,A
// 3108     }
        INC     ?V0 + 2
        SJMP    ??ZDO_ParseSimpleDescBuf_7
// 3109   }
// 3110   return 0;
??ZDO_ParseSimpleDescBuf_4:
        MOV     R1,#0x0
??ZDO_ParseSimpleDescBuf_2:
        MOV     R7,#0x6
        LJMP    ?BANKED_LEAVE_XDATA
        CFI EndBlock cfiBlock49
// 3111 }
// 3112 
// 3113 /*********************************************************************
// 3114  * @fn          ZDO_ParseDeviceAnnce
// 3115  *
// 3116  * @brief       Parse a Device Announce message.
// 3117  *
// 3118  * @param       inMsg - Incoming message
// 3119  * @param       pAnnce - place to put the parsed information
// 3120  *
// 3121  * @return      none
// 3122  */

        RSEG BANKED_CODE:CODE:NOROOT(0)
// 3123 void ZDO_ParseDeviceAnnce( zdoIncomingMsg_t *inMsg, ZDO_DeviceAnnce_t *pAnnce )
ZDO_ParseDeviceAnnce:
        CFI Block cfiBlock50 Using cfiCommon0
        CFI Function ZDO_ParseDeviceAnnce
        CODE
// 3124 {
        FUNCALL ZDO_ParseDeviceAnnce, sAddrExtCpy
        LOCFRAME ISTACK, 0, STACK
        LOCFRAME PSTACK, 0, STACK
        LOCFRAME XSTACK, 12, STACK
        LOCFRAME IOVERLAY, 0, STATIC
        LOCFRAME DOVERLAY, 0, STATIC
        ARGFRAME ISTACK, 0, STACK
        ARGFRAME PSTACK, 0, STACK
        ARGFRAME XSTACK, 12, STACK
        ARGFRAME IOVERLAY, 0, STATIC
        ARGFRAME DOVERLAY, 0, STATIC
        MOV     A,#-0xc
        LCALL   ?BANKED_ENTER_XDATA
        CFI DPH0 load(1, XDATA, add(CFA_XSP16, literal(-1)))
        CFI DPL0 load(1, XDATA, add(CFA_XSP16, literal(-2)))
        CFI ?BRET_EXT load(1, XDATA, add(CFA_XSP16, literal(-3)))
        CFI ?RET_HIGH load(1, XDATA, add(CFA_XSP16, literal(-4)))
        CFI ?RET_LOW load(1, XDATA, add(CFA_XSP16, literal(-5)))
        CFI R7 load(1, XDATA, add(CFA_XSP16, literal(-6)))
        CFI V3 load(1, XDATA, add(CFA_XSP16, literal(-7)))
        CFI V2 load(1, XDATA, add(CFA_XSP16, literal(-8)))
        CFI V1 load(1, XDATA, add(CFA_XSP16, literal(-9)))
        CFI V0 load(1, XDATA, add(CFA_XSP16, literal(-10)))
        CFI VB load(1, XDATA, add(CFA_XSP16, literal(-11)))
        CFI R6 load(1, XDATA, add(CFA_XSP16, literal(-12)))
        CFI CFA_SP SP+0
        CFI CFA_XSP16 add(XSP16, 12)
        ; Saved register size: 12
        ; Auto size: 0
        MOV     ?V0 + 0,R2
        MOV     ?V0 + 1,R3
        MOV     ?V0 + 2,R4
        MOV     ?V0 + 3,R5
// 3125   uint8 *msg;
// 3126 
// 3127   // Parse incoming message
// 3128   msg = inMsg->asdu;
        MOV     A,?V0 + 0
        ADD     A,#0x13
        MOV     DPL,A
        MOV     A,?V0 + 1
        ADDC    A,#0x0
        MOV     DPH,A
        MOVX    A,@DPTR
        MOV     R0,A
        INC     DPTR
        MOVX    A,@DPTR
        MOV     R1,A
        MOV     A,R0
        MOV     R6,A
        MOV     A,R1
        MOV     R7,A
// 3129   pAnnce->nwkAddr = BUILD_UINT16( msg[0], msg[1] );
        MOV     DPL,R6
        MOV     DPH,R7
        MOVX    A,@DPTR
        MOV     R2,A
        MOV     R3,#0x0
        MOV     DPL,R6
        MOV     DPH,R7
        INC     DPTR
        MOVX    A,@DPTR
        MOV     R0,A
        MOV     R1,#0x0
        CLR     A
        XCH     A,R0
        MOV     R1,A
        MOV     A,R2
        ADD     A,R0
        MOV     R0,A
        MOV     A,R3
        ADDC    A,R1
        MOV     R1,A
        MOV     DPL,?V0 + 2
        MOV     DPH,?V0 + 3
        MOV     A,R0
        MOVX    @DPTR,A
        INC     DPTR
        MOV     A,R1
        MOVX    @DPTR,A
// 3130   msg += 2;
        MOV     A,R6
        ADD     A,#0x2
        MOV     R6,A
        MOV     A,R7
        ADDC    A,#0x0
        MOV     R7,A
// 3131   osal_cpyExtAddr( pAnnce->extAddr, msg );
        ; Setup parameters for call to function sAddrExtCpy
        MOV     A,R6
        MOV     R4,A
        MOV     A,R7
        MOV     R5,A
        MOV     A,?V0 + 2
        ADD     A,#0x2
        MOV     R2,A
        MOV     A,?V0 + 3
        ADDC    A,#0x0
        MOV     R3,A
        LCALL   ??sAddrExtCpy?relay
// 3132   msg += Z_EXTADDR_LEN;
        MOV     A,R6
        ADD     A,#0x8
        MOV     R6,A
        MOV     A,R7
        ADDC    A,#0x0
        MOV     R7,A
// 3133   pAnnce->capabilities = *msg;
        MOV     DPL,R6
        MOV     DPH,R7
        MOVX    A,@DPTR
        MOV     DPL,?V0 + 2
        MOV     DPH,?V0 + 3
        INC     DPTR
        INC     DPTR
        INC     DPTR
        INC     DPTR
        INC     DPTR
        INC     DPTR
        INC     DPTR
        INC     DPTR
        INC     DPTR
        INC     DPTR
        MOVX    @DPTR,A
// 3134 }
        MOV     R7,#0x4
        LJMP    ?BANKED_LEAVE_XDATA
        CFI EndBlock cfiBlock50
// 3135 
// 3136 /*********************************************************************
// 3137  * @fn          ZDO_ParseMgmtNwkUpdateNotify
// 3138  *
// 3139  * @brief       This function handles parsing of the incoming Management
// 3140  *              Network Update notify.
// 3141  *
// 3142  * @param       inMsg - incoming message (request)
// 3143  *
// 3144  * @return      a pointer to parsed response structure (NULL if not allocated).
// 3145  *          This structure was allocated using osal_mem_alloc, so it must be freed
// 3146  *          by the calling function [osal_mem_free()].
// 3147  */

        RSEG BANKED_CODE:CODE:NOROOT(0)
// 3148 ZDO_MgmtNwkUpdateNotify_t *ZDO_ParseMgmtNwkUpdateNotify( zdoIncomingMsg_t *inMsg )
ZDO_ParseMgmtNwkUpdateNotify:
        CFI Block cfiBlock51 Using cfiCommon0
        CFI Function ZDO_ParseMgmtNwkUpdateNotify
        CODE
// 3149 {
        FUNCALL ZDO_ParseMgmtNwkUpdateNotify, osal_build_uint32
        LOCFRAME ISTACK, 0, STACK
        LOCFRAME PSTACK, 0, STACK
        LOCFRAME XSTACK, 26, STACK
        LOCFRAME IOVERLAY, 0, STATIC
        LOCFRAME DOVERLAY, 0, STATIC
        ARGFRAME ISTACK, 0, STACK
        ARGFRAME PSTACK, 0, STACK
        ARGFRAME XSTACK, 26, STACK
        ARGFRAME IOVERLAY, 0, STATIC
        ARGFRAME DOVERLAY, 0, STATIC
        FUNCALL ZDO_ParseMgmtNwkUpdateNotify, osal_mem_alloc
        LOCFRAME ISTACK, 0, STACK
        LOCFRAME PSTACK, 0, STACK
        LOCFRAME XSTACK, 26, STACK
        LOCFRAME IOVERLAY, 0, STATIC
        LOCFRAME DOVERLAY, 0, STATIC
        ARGFRAME ISTACK, 0, STACK
        ARGFRAME PSTACK, 0, STACK
        ARGFRAME XSTACK, 26, STACK
        ARGFRAME IOVERLAY, 0, STATIC
        ARGFRAME DOVERLAY, 0, STATIC
        FUNCALL ZDO_ParseMgmtNwkUpdateNotify, osal_memcpy
        LOCFRAME ISTACK, 0, STACK
        LOCFRAME PSTACK, 0, STACK
        LOCFRAME XSTACK, 29, STACK
        LOCFRAME IOVERLAY, 0, STATIC
        LOCFRAME DOVERLAY, 0, STATIC
        ARGFRAME ISTACK, 0, STACK
        ARGFRAME PSTACK, 0, STACK
        ARGFRAME XSTACK, 29, STACK
        ARGFRAME IOVERLAY, 0, STATIC
        ARGFRAME DOVERLAY, 0, STATIC
        MOV     A,#-0x18
        LCALL   ?BANKED_ENTER_XDATA
        CFI DPH0 load(1, XDATA, add(CFA_XSP16, literal(-1)))
        CFI DPL0 load(1, XDATA, add(CFA_XSP16, literal(-2)))
        CFI ?BRET_EXT load(1, XDATA, add(CFA_XSP16, literal(-3)))
        CFI ?RET_HIGH load(1, XDATA, add(CFA_XSP16, literal(-4)))
        CFI ?RET_LOW load(1, XDATA, add(CFA_XSP16, literal(-5)))
        CFI R7 load(1, XDATA, add(CFA_XSP16, literal(-6)))
        CFI V15 load(1, XDATA, add(CFA_XSP16, literal(-7)))
        CFI V14 load(1, XDATA, add(CFA_XSP16, literal(-8)))
        CFI V13 load(1, XDATA, add(CFA_XSP16, literal(-9)))
        CFI V12 load(1, XDATA, add(CFA_XSP16, literal(-10)))
        CFI V11 load(1, XDATA, add(CFA_XSP16, literal(-11)))
        CFI V10 load(1, XDATA, add(CFA_XSP16, literal(-12)))
        CFI V9 load(1, XDATA, add(CFA_XSP16, literal(-13)))
        CFI V8 load(1, XDATA, add(CFA_XSP16, literal(-14)))
        CFI V7 load(1, XDATA, add(CFA_XSP16, literal(-15)))
        CFI V6 load(1, XDATA, add(CFA_XSP16, literal(-16)))
        CFI V5 load(1, XDATA, add(CFA_XSP16, literal(-17)))
        CFI V4 load(1, XDATA, add(CFA_XSP16, literal(-18)))
        CFI V3 load(1, XDATA, add(CFA_XSP16, literal(-19)))
        CFI V2 load(1, XDATA, add(CFA_XSP16, literal(-20)))
        CFI V1 load(1, XDATA, add(CFA_XSP16, literal(-21)))
        CFI V0 load(1, XDATA, add(CFA_XSP16, literal(-22)))
        CFI VB load(1, XDATA, add(CFA_XSP16, literal(-23)))
        CFI R6 load(1, XDATA, add(CFA_XSP16, literal(-24)))
        CFI CFA_SP SP+0
        CFI CFA_XSP16 add(XSP16, 24)
        ; Saved register size: 24
        ; Auto size: 2
        MOV     A,#-0x2
        LCALL   ?ALLOC_XSTACK8
        CFI CFA_XSP16 add(XSP16, 26)
        MOV     DPL,?XSP + 0
        MOV     DPH,?XSP + 1
        MOV     A,R2
        MOVX    @DPTR,A
        INC     DPTR
        MOV     A,R3
        MOVX    @DPTR,A
// 3150   uint8 status;
// 3151   uint32 scannedChannels = 0;
        MOV     DPTR,#__Constant_0
        MOV     R0,#?V0 + 4
        LCALL   ?L_MOV_X
// 3152   uint16 totalTransmissions = 0;
        MOV     ?V0 + 14,#0x0
        MOV     ?V0 + 15,#0x0
// 3153   uint16 transmissionFailures = 0;
        MOV     ?V0 + 12,#0x0
        MOV     ?V0 + 13,#0x0
// 3154   uint8 listCount = 0;
        MOV     ?V0 + 8,#0x0
// 3155   uint8 *msg = inMsg->asdu;
        MOV     DPL,?XSP + 0
        MOV     DPH,?XSP + 1
        MOVX    A,@DPTR
        ADD     A,#0x13
        MOV     R0,A
        INC     DPTR
        MOVX    A,@DPTR
        ADDC    A,#0x0
        MOV     R1,A
        MOV     DPL,R0
        MOV     DPH,R1
        MOVX    A,@DPTR
        MOV     R6,A
        INC     DPTR
        MOVX    A,@DPTR
        MOV     R7,A
// 3156   ZDO_MgmtNwkUpdateNotify_t *pRsp;
// 3157 
// 3158   status = *msg++;
        MOV     DPL,R6
        MOV     DPH,R7
        MOVX    A,@DPTR
        MOV     ?V0 + 9,A
        MOV     DPL,R6
        MOV     DPH,R7
        INC     DPTR
        MOV     R6,DPL
        MOV     R7,DPH
// 3159   if ( status == ZSuccess )
        MOV     A,?V0 + 9
        JZ      $+5
        LJMP    ??ZDO_ParseMgmtNwkUpdateNotify_0 & 0xFFFF
// 3160   {
// 3161     scannedChannels = osal_build_uint32( msg, 4 );
        ; Setup parameters for call to function osal_build_uint32
        MOV     R1,#0x4
        MOV     A,R6
        MOV     R2,A
        MOV     A,R7
        MOV     R3,A
        LCALL   ??osal_build_uint32?relay
        MOV     ?V0 + 0,R2
        MOV     ?V0 + 1,R3
        MOV     ?V0 + 2,R4
        MOV     ?V0 + 3,R5
        MOV     ?V0 + 4,?V0 + 0
        MOV     ?V0 + 5,?V0 + 1
        MOV     ?V0 + 6,?V0 + 2
        MOV     ?V0 + 7,?V0 + 3
// 3162     msg += 4;
        MOV     A,R6
        ADD     A,#0x4
        MOV     R6,A
        MOV     A,R7
        ADDC    A,#0x0
        MOV     R7,A
// 3163     totalTransmissions = BUILD_UINT16( msg[0], msg[1] );
        MOV     DPL,R6
        MOV     DPH,R7
        MOVX    A,@DPTR
        MOV     R2,A
        MOV     R3,#0x0
        MOV     DPL,R6
        MOV     DPH,R7
        INC     DPTR
        MOVX    A,@DPTR
        MOV     R0,A
        MOV     R1,#0x0
        CLR     A
        XCH     A,R0
        MOV     R1,A
        MOV     A,R2
        ADD     A,R0
        MOV     R0,A
        MOV     A,R3
        ADDC    A,R1
        MOV     R1,A
        MOV     ?V0 + 14,R0
        MOV     ?V0 + 15,R1
// 3164     msg += 2;
        MOV     A,R6
        ADD     A,#0x2
        MOV     R6,A
        MOV     A,R7
        ADDC    A,#0x0
        MOV     R7,A
// 3165     transmissionFailures = BUILD_UINT16( msg[0], msg[1] );
        MOV     DPL,R6
        MOV     DPH,R7
        MOVX    A,@DPTR
        MOV     R2,A
        MOV     R3,#0x0
        MOV     DPL,R6
        MOV     DPH,R7
        INC     DPTR
        MOVX    A,@DPTR
        MOV     R0,A
        MOV     R1,#0x0
        CLR     A
        XCH     A,R0
        MOV     R1,A
        MOV     A,R2
        ADD     A,R0
        MOV     R0,A
        MOV     A,R3
        ADDC    A,R1
        MOV     R1,A
        MOV     ?V0 + 12,R0
        MOV     ?V0 + 13,R1
// 3166     msg += 2;
        MOV     A,R6
        ADD     A,#0x2
        MOV     R6,A
        MOV     A,R7
        ADDC    A,#0x0
        MOV     R7,A
// 3167     listCount = *msg++;
        MOV     DPL,R6
        MOV     DPH,R7
        MOVX    A,@DPTR
        MOV     ?V0 + 8,A
        MOV     DPL,R6
        MOV     DPH,R7
        INC     DPTR
        MOV     R6,DPL
        MOV     R7,DPH
// 3168   }
// 3169 
// 3170   pRsp = (ZDO_MgmtNwkUpdateNotify_t *)osal_mem_alloc( sizeof ( ZDO_MgmtNwkUpdateNotify_t ) + listCount );
??ZDO_ParseMgmtNwkUpdateNotify_0:
        ; Setup parameters for call to function osal_mem_alloc
        MOV     ?V0 + 0,?V0 + 8
        MOV     ?V0 + 1,#0x0
        MOV     A,?V0 + 0
        ADD     A,#0xa
        MOV     R2,A
        MOV     A,?V0 + 1
        ADDC    A,#0x0
        MOV     R3,A
        LCALL   ??osal_mem_alloc?relay
        MOV     ?V0 + 0,R2
        MOV     ?V0 + 1,R3
        MOV     ?V0 + 10,?V0 + 0
        MOV     ?V0 + 11,?V0 + 1
// 3171 
// 3172   if ( pRsp )
        MOV     A,?V0 + 10
        ORL     A,?V0 + 11
        JNZ     $+5
        LJMP    ??ZDO_ParseMgmtNwkUpdateNotify_1 & 0xFFFF
// 3173   {
// 3174     pRsp->status = status;
        MOV     A,?V0 + 9
        MOV     DPL,?V0 + 10
        MOV     DPH,?V0 + 11
        MOV     A,?V0 + 9
        MOVX    @DPTR,A
// 3175     pRsp->scannedChannels = scannedChannels;
        MOV     DPL,?V0 + 10
        MOV     DPH,?V0 + 11
        INC     DPTR
        MOV     R0,#?V0 + 4
        LCALL   ?L_MOV_TO_X
// 3176     pRsp->totalTransmissions = totalTransmissions;
        MOV     DPL,?V0 + 10
        MOV     DPH,?V0 + 11
        INC     DPTR
        INC     DPTR
        INC     DPTR
        INC     DPTR
        INC     DPTR
        MOV     A,?V0 + 14
        MOVX    @DPTR,A
        INC     DPTR
        MOV     A,?V0 + 15
        MOVX    @DPTR,A
// 3177     pRsp->transmissionFailures = transmissionFailures;
        MOV     DPL,?V0 + 10
        MOV     DPH,?V0 + 11
        INC     DPTR
        INC     DPTR
        INC     DPTR
        INC     DPTR
        INC     DPTR
        INC     DPTR
        INC     DPTR
        MOV     A,?V0 + 12
        MOVX    @DPTR,A
        INC     DPTR
        MOV     A,?V0 + 13
        MOVX    @DPTR,A
// 3178     pRsp->listCount = listCount;
        MOV     A,?V0 + 8
        MOV     DPL,?V0 + 10
        MOV     DPH,?V0 + 11
        INC     DPTR
        INC     DPTR
        INC     DPTR
        INC     DPTR
        INC     DPTR
        INC     DPTR
        INC     DPTR
        INC     DPTR
        INC     DPTR
        MOV     A,?V0 + 8
        MOVX    @DPTR,A
// 3179 
// 3180     // Allocate a buffer big enough to handle the list.
// 3181     if ( listCount > 0 )
        MOV     A,?V0 + 8
        CLR     C
        SUBB    A,#0x1
        JC      ??ZDO_ParseMgmtNwkUpdateNotify_1
// 3182     {
// 3183       osal_memcpy( pRsp->energyValues, msg, listCount );
        ; Setup parameters for call to function osal_memcpy
        MOV     ?V0 + 0,R6
        MOV     ?V0 + 1,R7
        MOV     ?V0 + 2,#0x0
        MOV     R0,#?V0 + 0
        LCALL   ?PUSH_XSTACK_I_THREE
        CFI CFA_XSP16 add(XSP16, 29)
        MOV     ?V0 + 0,?V0 + 8
        MOV     ?V0 + 1,#0x0
        MOV     R4,?V0 + 0
        MOV     R5,?V0 + 1
        MOV     A,?V0 + 10
        ADD     A,#0xa
        MOV     R2,A
        MOV     A,?V0 + 11
        ADDC    A,#0x0
        MOV     R3,A
        LCALL   ??osal_memcpy?relay
        MOV     A,#0x3
        LCALL   ?DEALLOC_XSTACK8
        CFI CFA_XSP16 add(XSP16, 26)
// 3184     }
// 3185   }
// 3186 
// 3187   return ( pRsp );
??ZDO_ParseMgmtNwkUpdateNotify_1:
        MOV     R2,?V0 + 10
        MOV     R3,?V0 + 11
        MOV     A,#0x2
        LCALL   ?DEALLOC_XSTACK8
        CFI CFA_XSP16 add(XSP16, 24)
        MOV     R7,#0x10
        LJMP    ?BANKED_LEAVE_XDATA
        CFI EndBlock cfiBlock51
// 3188 }
// 3189 
// 3190 /*********************************************************************
// 3191  * @fn          ZDO_ParseMgmtNwkUpdateReq
// 3192  *
// 3193  * @brief       This function handles parsing the incoming Management
// 3194  *              Network Update request and starts the request (if needed).
// 3195  *
// 3196  * @param       inMsg - incoming message (request)
// 3197  * @param       pReq - pointer to place to parse message to
// 3198  *
// 3199  * @return      none
// 3200  */

        RSEG BANKED_CODE:CODE:NOROOT(0)
// 3201 void ZDO_ParseMgmtNwkUpdateReq( zdoIncomingMsg_t *inMsg, ZDO_MgmtNwkUpdateReq_t *pReq )
ZDO_ParseMgmtNwkUpdateReq:
        CFI Block cfiBlock52 Using cfiCommon0
        CFI Function ZDO_ParseMgmtNwkUpdateReq
        CODE
// 3202 {
        FUNCALL ZDO_ParseMgmtNwkUpdateReq, osal_build_uint32
        LOCFRAME ISTACK, 0, STACK
        LOCFRAME PSTACK, 0, STACK
        LOCFRAME XSTACK, 12, STACK
        LOCFRAME IOVERLAY, 0, STATIC
        LOCFRAME DOVERLAY, 0, STATIC
        ARGFRAME ISTACK, 0, STACK
        ARGFRAME PSTACK, 0, STACK
        ARGFRAME XSTACK, 12, STACK
        ARGFRAME IOVERLAY, 0, STATIC
        ARGFRAME DOVERLAY, 0, STATIC
        MOV     A,#-0xc
        LCALL   ?BANKED_ENTER_XDATA
        CFI DPH0 load(1, XDATA, add(CFA_XSP16, literal(-1)))
        CFI DPL0 load(1, XDATA, add(CFA_XSP16, literal(-2)))
        CFI ?BRET_EXT load(1, XDATA, add(CFA_XSP16, literal(-3)))
        CFI ?RET_HIGH load(1, XDATA, add(CFA_XSP16, literal(-4)))
        CFI ?RET_LOW load(1, XDATA, add(CFA_XSP16, literal(-5)))
        CFI R7 load(1, XDATA, add(CFA_XSP16, literal(-6)))
        CFI V3 load(1, XDATA, add(CFA_XSP16, literal(-7)))
        CFI V2 load(1, XDATA, add(CFA_XSP16, literal(-8)))
        CFI V1 load(1, XDATA, add(CFA_XSP16, literal(-9)))
        CFI V0 load(1, XDATA, add(CFA_XSP16, literal(-10)))
        CFI VB load(1, XDATA, add(CFA_XSP16, literal(-11)))
        CFI R6 load(1, XDATA, add(CFA_XSP16, literal(-12)))
        CFI CFA_SP SP+0
        CFI CFA_XSP16 add(XSP16, 12)
        ; Saved register size: 12
        ; Auto size: 0
        MOV     ?V0 + 0,R2
        MOV     ?V0 + 1,R3
        MOV     ?V0 + 2,R4
        MOV     ?V0 + 3,R5
// 3203   uint8 *msg = inMsg->asdu;
        MOV     A,?V0 + 0
        ADD     A,#0x13
        MOV     DPL,A
        MOV     A,?V0 + 1
        ADDC    A,#0x0
        MOV     DPH,A
        MOVX    A,@DPTR
        MOV     R6,A
        INC     DPTR
        MOVX    A,@DPTR
        MOV     R7,A
// 3204 
// 3205   pReq->channelMask = osal_build_uint32( msg, 4 );
        ; Setup parameters for call to function osal_build_uint32
        MOV     R1,#0x4
        MOV     A,R6
        MOV     R2,A
        MOV     A,R7
        MOV     R3,A
        LCALL   ??osal_build_uint32?relay
        MOV     DPL,?V0 + 2
        MOV     DPH,?V0 + 3
        LCALL   ?XSTORE_R2345
// 3206   msg += 4;
        MOV     A,R6
        ADD     A,#0x4
        MOV     R6,A
        MOV     A,R7
        ADDC    A,#0x0
        MOV     R7,A
// 3207   pReq->scanDuration = *msg++;
        MOV     DPL,R6
        MOV     DPH,R7
        MOVX    A,@DPTR
        MOV     DPL,?V0 + 2
        MOV     DPH,?V0 + 3
        INC     DPTR
        INC     DPTR
        INC     DPTR
        INC     DPTR
        MOVX    @DPTR,A
        MOV     DPL,R6
        MOV     DPH,R7
        INC     DPTR
        MOV     R6,DPL
        MOV     R7,DPH
// 3208 
// 3209   if ( pReq->scanDuration <= 0x05 )
        MOV     DPL,?V0 + 2
        MOV     DPH,?V0 + 3
        INC     DPTR
        INC     DPTR
        INC     DPTR
        INC     DPTR
        MOVX    A,@DPTR
        CLR     C
        SUBB    A,#0x6
        JNC     ??ZDO_ParseMgmtNwkUpdateReq_0
// 3210   {
// 3211     // Request is to scan over channelMask
// 3212     pReq->scanCount = *msg;
        MOV     DPL,R6
        MOV     DPH,R7
        MOVX    A,@DPTR
        MOV     DPL,?V0 + 2
        MOV     DPH,?V0 + 3
        INC     DPTR
        INC     DPTR
        INC     DPTR
        INC     DPTR
        INC     DPTR
        MOVX    @DPTR,A
        SJMP    ??ZDO_ParseMgmtNwkUpdateReq_1
// 3213   }
// 3214   else if ( ( pReq->scanDuration == 0xFE ) || ( pReq->scanDuration == 0xFF ) )
??ZDO_ParseMgmtNwkUpdateReq_0:
        MOV     DPL,?V0 + 2
        MOV     DPH,?V0 + 3
        INC     DPTR
        INC     DPTR
        INC     DPTR
        INC     DPTR
        MOVX    A,@DPTR
        XRL     A,#0xfe
        JZ      ??ZDO_ParseMgmtNwkUpdateReq_2
        MOV     DPL,?V0 + 2
        MOV     DPH,?V0 + 3
        INC     DPTR
        INC     DPTR
        INC     DPTR
        INC     DPTR
        MOVX    A,@DPTR
        XRL     A,#0xff
        JNZ     ??ZDO_ParseMgmtNwkUpdateReq_1
// 3215   {
// 3216     // Request is to change Channel (0xFE) or apsChannelMask and NwkManagerAddr (0xFF)
// 3217     pReq->nwkUpdateId = *msg++;
??ZDO_ParseMgmtNwkUpdateReq_2:
        MOV     DPL,R6
        MOV     DPH,R7
        MOVX    A,@DPTR
        MOV     DPL,?V0 + 2
        MOV     DPH,?V0 + 3
        INC     DPTR
        INC     DPTR
        INC     DPTR
        INC     DPTR
        INC     DPTR
        INC     DPTR
        MOVX    @DPTR,A
        MOV     DPL,R6
        MOV     DPH,R7
        INC     DPTR
        MOV     R6,DPL
        MOV     R7,DPH
// 3218 
// 3219     if ( pReq->scanDuration == 0xFF )
        MOV     DPL,?V0 + 2
        MOV     DPH,?V0 + 3
        INC     DPTR
        INC     DPTR
        INC     DPTR
        INC     DPTR
        MOVX    A,@DPTR
        XRL     A,#0xff
        JNZ     ??ZDO_ParseMgmtNwkUpdateReq_1
// 3220     {
// 3221       pReq->nwkManagerAddr = BUILD_UINT16( msg[0], msg[1] );
        MOV     DPL,R6
        MOV     DPH,R7
        MOVX    A,@DPTR
        MOV     R2,A
        MOV     R3,#0x0
        MOV     DPL,R6
        MOV     DPH,R7
        INC     DPTR
        MOVX    A,@DPTR
        MOV     R0,A
        MOV     R1,#0x0
        CLR     A
        XCH     A,R0
        MOV     R1,A
        MOV     A,R2
        ADD     A,R0
        MOV     R0,A
        MOV     A,R3
        ADDC    A,R1
        MOV     R1,A
        MOV     DPL,?V0 + 2
        MOV     DPH,?V0 + 3
        INC     DPTR
        INC     DPTR
        INC     DPTR
        INC     DPTR
        INC     DPTR
        INC     DPTR
        INC     DPTR
        MOV     A,R0
        MOVX    @DPTR,A
        INC     DPTR
        MOV     A,R1
        MOVX    @DPTR,A
// 3222     }
// 3223   }
// 3224 }
??ZDO_ParseMgmtNwkUpdateReq_1:
        MOV     R7,#0x4
        LJMP    ?BANKED_LEAVE_XDATA
        CFI EndBlock cfiBlock52

        RSEG XDATA_ROM_C:CONST:REORDER:NOROOT(0)
        DATA32
__Constant_7fff800:
        DD 134215680

        RSEG XDATA_ROM_C:CONST:REORDER:NOROOT(0)
        DATA32
__Constant_0:
        DD 0

        RSEG BANK_RELAYS:CODE:REORDER:NOROOT(0)
??ZDO_Init?relay:
        LCALL   ?BDISPATCH
        DATA
        DC24    ZDO_Init

        RSEG BANK_RELAYS:CODE:REORDER:NOROOT(0)
??ZDODeviceSetup?relay:
        LCALL   ?BDISPATCH
        DATA
        DC24    ZDODeviceSetup

        RSEG BANK_RELAYS:CODE:REORDER:NOROOT(0)
??ZDO_StartDevice?relay:
        LCALL   ?BDISPATCH
        DATA
        DC24    ZDO_StartDevice

        RSEG BANK_RELAYS:CODE:REORDER:NOROOT(0)
??zdoSendStateChangeMsg?relay:
        LCALL   ?BDISPATCH
        DATA
        DC24    zdoSendStateChangeMsg

        RSEG BANK_RELAYS:CODE:REORDER:NOROOT(0)
??ZDO_UpdateNwkStatus?relay:
        LCALL   ?BDISPATCH
        DATA
        DC24    ZDO_UpdateNwkStatus

        RSEG BANK_RELAYS:CODE:REORDER:NOROOT(0)
??ZDO_RemoveEndDeviceBind?relay:
        LCALL   ?BDISPATCH
        DATA
        DC24    ZDO_RemoveEndDeviceBind

        RSEG BANK_RELAYS:CODE:REORDER:NOROOT(0)
??ZDO_SendEDBindRsp?relay:
        LCALL   ?BDISPATCH
        DATA
        DC24    ZDO_SendEDBindRsp

        RSEG BANK_RELAYS:CODE:REORDER:NOROOT(0)
??ZDO_CompareClusterLists?relay:
        LCALL   ?BDISPATCH
        DATA
        DC24    ZDO_CompareClusterLists

        RSEG BANK_RELAYS:CODE:REORDER:NOROOT(0)
??ZDO_AnyClusterMatches?relay:
        LCALL   ?BDISPATCH
        DATA
        DC24    ZDO_AnyClusterMatches

        RSEG BANK_RELAYS:CODE:REORDER:NOROOT(0)
??ZDO_ProcessNodeDescReq?relay:
        LCALL   ?BDISPATCH
        DATA
        DC24    ZDO_ProcessNodeDescReq

        RSEG BANK_RELAYS:CODE:REORDER:NOROOT(0)
??ZDO_ProcessPowerDescReq?relay:
        LCALL   ?BDISPATCH
        DATA
        DC24    ZDO_ProcessPowerDescReq

        RSEG BANK_RELAYS:CODE:REORDER:NOROOT(0)
??ZDO_ProcessSimpleDescReq?relay:
        LCALL   ?BDISPATCH
        DATA
        DC24    ZDO_ProcessSimpleDescReq

        RSEG BANK_RELAYS:CODE:REORDER:NOROOT(0)
??ZDO_ProcessActiveEPReq?relay:
        LCALL   ?BDISPATCH
        DATA
        DC24    ZDO_ProcessActiveEPReq

        RSEG BANK_RELAYS:CODE:REORDER:NOROOT(0)
??ZDO_ConvertOTAClusters?relay:
        LCALL   ?BDISPATCH
        DATA
        DC24    ZDO_ConvertOTAClusters

        RSEG BANK_RELAYS:CODE:REORDER:NOROOT(0)
??ZDO_ProcessMatchDescReq?relay:
        LCALL   ?BDISPATCH
        DATA
        DC24    ZDO_ProcessMatchDescReq

        RSEG BANK_RELAYS:CODE:REORDER:NOROOT(0)
??ZDO_ProcessBindUnbindReq?relay:
        LCALL   ?BDISPATCH
        DATA
        DC24    ZDO_ProcessBindUnbindReq

        RSEG BANK_RELAYS:CODE:REORDER:NOROOT(0)
??ZDO_UpdateAddrManager?relay:
        LCALL   ?BDISPATCH
        DATA
        DC24    ZDO_UpdateAddrManager

        RSEG BANK_RELAYS:CODE:REORDER:NOROOT(0)
??ZDO_ProcessServerDiscReq?relay:
        LCALL   ?BDISPATCH
        DATA
        DC24    ZDO_ProcessServerDiscReq

        RSEG BANK_RELAYS:CODE:REORDER:NOROOT(0)
??ZDO_EndDeviceTimeoutCB?relay:
        LCALL   ?BDISPATCH
        DATA
        DC24    ZDO_EndDeviceTimeoutCB

        RSEG BANK_RELAYS:CODE:REORDER:NOROOT(0)
??ZDO_ProcessMgmtLqiReq?relay:
        LCALL   ?BDISPATCH
        DATA
        DC24    ZDO_ProcessMgmtLqiReq

        RSEG BANK_RELAYS:CODE:REORDER:NOROOT(0)
??ZDO_ProcessMgmtNwkDiscReq?relay:
        LCALL   ?BDISPATCH
        DATA
        DC24    ZDO_ProcessMgmtNwkDiscReq

        RSEG BANK_RELAYS:CODE:REORDER:NOROOT(0)
??ZDO_ProcessMgmtRtgReq?relay:
        LCALL   ?BDISPATCH
        DATA
        DC24    ZDO_ProcessMgmtRtgReq

        RSEG BANK_RELAYS:CODE:REORDER:NOROOT(0)
??ZDO_ProcessMgmtBindReq?relay:
        LCALL   ?BDISPATCH
        DATA
        DC24    ZDO_ProcessMgmtBindReq

        RSEG BANK_RELAYS:CODE:REORDER:NOROOT(0)
??ZDO_ProcessMgmtDirectJoinReq?relay:
        LCALL   ?BDISPATCH
        DATA
        DC24    ZDO_ProcessMgmtDirectJoinReq

        RSEG BANK_RELAYS:CODE:REORDER:NOROOT(0)
??ZDO_ProcessMgmtLeaveReq?relay:
        LCALL   ?BDISPATCH
        DATA
        DC24    ZDO_ProcessMgmtLeaveReq

        RSEG BANK_RELAYS:CODE:REORDER:NOROOT(0)
??ZDO_ProcessMgmtPermitJoinReq?relay:
        LCALL   ?BDISPATCH
        DATA
        DC24    ZDO_ProcessMgmtPermitJoinReq

        RSEG BANK_RELAYS:CODE:REORDER:NOROOT(0)
??NLME_PermitJoiningTimeout?relay:
        LCALL   ?BDISPATCH
        DATA
        DC24    NLME_PermitJoiningTimeout

        RSEG BANK_RELAYS:CODE:REORDER:NOROOT(0)
??ZDO_ProcessUserDescReq?relay:
        LCALL   ?BDISPATCH
        DATA
        DC24    ZDO_ProcessUserDescReq

        RSEG BANK_RELAYS:CODE:REORDER:NOROOT(0)
??ZDO_ProcessUserDescSet?relay:
        LCALL   ?BDISPATCH
        DATA
        DC24    ZDO_ProcessUserDescSet

        RSEG BANK_RELAYS:CODE:REORDER:NOROOT(0)
??ZDO_ProcessDeviceAnnce?relay:
        LCALL   ?BDISPATCH
        DATA
        DC24    ZDO_ProcessDeviceAnnce

        RSEG BANK_RELAYS:CODE:REORDER:NOROOT(0)
??ZDO_BuildSimpleDescBuf?relay:
        LCALL   ?BDISPATCH
        DATA
        DC24    ZDO_BuildSimpleDescBuf

        RSEG BANK_RELAYS:CODE:REORDER:NOROOT(0)
??ZDO_MatchEndDeviceBind?relay:
        LCALL   ?BDISPATCH
        DATA
        DC24    ZDO_MatchEndDeviceBind

        RSEG BANK_RELAYS:CODE:REORDER:NOROOT(0)
??ZDO_RemoveMatchMemory?relay:
        LCALL   ?BDISPATCH
        DATA
        DC24    ZDO_RemoveMatchMemory

        RSEG BANK_RELAYS:CODE:REORDER:NOROOT(0)
??ZDO_CopyMatchInfo?relay:
        LCALL   ?BDISPATCH
        DATA
        DC24    ZDO_CopyMatchInfo

        RSEG BANK_RELAYS:CODE:REORDER:NOROOT(0)
??ZDMatchSendState?relay:
        LCALL   ?BDISPATCH
        DATA
        DC24    ZDMatchSendState

        RSEG BANK_RELAYS:CODE:REORDER:NOROOT(0)
??ZDO_EndDeviceBindMatchTimeoutCB?relay:
        LCALL   ?BDISPATCH
        DATA
        DC24    ZDO_EndDeviceBindMatchTimeoutCB

        RSEG BANK_RELAYS:CODE:REORDER:NOROOT(0)
??ZDO_ParseEndDeviceBindReq?relay:
        LCALL   ?BDISPATCH
        DATA
        DC24    ZDO_ParseEndDeviceBindReq

        RSEG BANK_RELAYS:CODE:REORDER:NOROOT(0)
??ZDO_ParseBindUnbindReq?relay:
        LCALL   ?BDISPATCH
        DATA
        DC24    ZDO_ParseBindUnbindReq

        RSEG BANK_RELAYS:CODE:REORDER:NOROOT(0)
??ZDO_ParseAddrRsp?relay:
        LCALL   ?BDISPATCH
        DATA
        DC24    ZDO_ParseAddrRsp

        RSEG BANK_RELAYS:CODE:REORDER:NOROOT(0)
??ZDO_ParseNodeDescRsp?relay:
        LCALL   ?BDISPATCH
        DATA
        DC24    ZDO_ParseNodeDescRsp

        RSEG BANK_RELAYS:CODE:REORDER:NOROOT(0)
??ZDO_ParsePowerDescRsp?relay:
        LCALL   ?BDISPATCH
        DATA
        DC24    ZDO_ParsePowerDescRsp

        RSEG BANK_RELAYS:CODE:REORDER:NOROOT(0)
??ZDO_ParseSimpleDescRsp?relay:
        LCALL   ?BDISPATCH
        DATA
        DC24    ZDO_ParseSimpleDescRsp

        RSEG BANK_RELAYS:CODE:REORDER:NOROOT(0)
??ZDO_ParseEPListRsp?relay:
        LCALL   ?BDISPATCH
        DATA
        DC24    ZDO_ParseEPListRsp

        RSEG BANK_RELAYS:CODE:REORDER:NOROOT(0)
??ZDO_ParseServerDiscRsp?relay:
        LCALL   ?BDISPATCH
        DATA
        DC24    ZDO_ParseServerDiscRsp

        RSEG BANK_RELAYS:CODE:REORDER:NOROOT(0)
??ZDO_ParseMgmtLqiRsp?relay:
        LCALL   ?BDISPATCH
        DATA
        DC24    ZDO_ParseMgmtLqiRsp

        RSEG BANK_RELAYS:CODE:REORDER:NOROOT(0)
??ZDO_ParseMgmNwkDiscRsp?relay:
        LCALL   ?BDISPATCH
        DATA
        DC24    ZDO_ParseMgmNwkDiscRsp

        RSEG BANK_RELAYS:CODE:REORDER:NOROOT(0)
??ZDO_ParseMgmtRtgRsp?relay:
        LCALL   ?BDISPATCH
        DATA
        DC24    ZDO_ParseMgmtRtgRsp

        RSEG BANK_RELAYS:CODE:REORDER:NOROOT(0)
??ZDO_ParseMgmtBindRsp?relay:
        LCALL   ?BDISPATCH
        DATA
        DC24    ZDO_ParseMgmtBindRsp

        RSEG BANK_RELAYS:CODE:REORDER:NOROOT(0)
??ZDO_ParseUserDescRsp?relay:
        LCALL   ?BDISPATCH
        DATA
        DC24    ZDO_ParseUserDescRsp

        RSEG BANK_RELAYS:CODE:REORDER:NOROOT(0)
??ZDO_ParseSimpleDescBuf?relay:
        LCALL   ?BDISPATCH
        DATA
        DC24    ZDO_ParseSimpleDescBuf

        RSEG BANK_RELAYS:CODE:REORDER:NOROOT(0)
??ZDO_ParseDeviceAnnce?relay:
        LCALL   ?BDISPATCH
        DATA
        DC24    ZDO_ParseDeviceAnnce

        RSEG BANK_RELAYS:CODE:REORDER:NOROOT(0)
??ZDO_ParseMgmtNwkUpdateNotify?relay:
        LCALL   ?BDISPATCH
        DATA
        DC24    ZDO_ParseMgmtNwkUpdateNotify

        RSEG BANK_RELAYS:CODE:REORDER:NOROOT(0)
??ZDO_ParseMgmtNwkUpdateReq?relay:
        LCALL   ?BDISPATCH
        DATA
        DC24    ZDO_ParseMgmtNwkUpdateReq

        END
// 3225 
// 3226 /*********************************************************************
// 3227 *********************************************************************/
// 
// 18 392 bytes in segment BANKED_CODE
//    318 bytes in segment BANK_RELAYS
//      8 bytes in segment XDATA_ROM_C
//     61 bytes in segment XDATA_Z
// 
// 18 710 bytes of CODE  memory
//      0 bytes of CONST memory (+ 8 bytes shared)
//     61 bytes of XDATA memory
//
//Errors: none
//Warnings: none
