///////////////////////////////////////////////////////////////////////////////
//                                                                            /
// IAR C/C++ Compiler V8.10.1.10194/W32 for 8051        13/Jul/2015  17:23:54 /
// Copyright 2004-2011 IAR Systems AB.                                        /
//                                                                            /
//    Core               =  plain                                             /
//    Code model         =  banked                                            /
//    Data model         =  large                                             /
//    Calling convention =  xdata reentrant                                   /
//    Constant location  =  data_rom                                          /
//    Dptr setup         =  1,16                                              /
//    Source file        =  C:\Texas Instruments\ZStack-CC2530-2.5.1a\Compone /
//                          nts\stack\zdo\ZDObject.c                          /
//    Command line       =  -f "C:\Texas Instruments\ZStack-CC2530-2.5.1a\Pro /
//                          jects\zstack\Samples\WirelessMonitorSystem\CC2530 /
//                          DB\..\..\..\Tools\CC2530DB\f8wEndev.cfg"          /
//                          (-DCPU32MHZ -DROOT=__near_func                    /
//                          -DMAC_CFG_TX_DATA_MAX=3 -DMAC_CFG_TX_MAX=6        /
//                          -DMAC_CFG_RX_MAX=3) -f "C:\Texas                  /
//                          Instruments\ZStack-CC2530-2.5.1a\Projects\zstack\ /
//                          Samples\WirelessMonitorSystem\CC2530DB\..\..\..\T /
//                          ools\CC2530DB\f8wConfig.cfg" (-DZIGBEEPRO         /
//                          -DSECURE=0 -DZG_SECURE_DYNAMIC=0 -DREFLECTOR      /
//                          -DDEFAULT_CHANLIST=0x00000800                     /
//                          -DZDAPP_CONFIG_PAN_ID=0xFFFF                      /
//                          -DNWK_START_DELAY=100 -DEXTENDED_JOINING_RANDOM_M /
//                          ASK=0x007F -DBEACON_REQUEST_DELAY=100             /
//                          -DBEACON_REQ_DELAY_MASK=0x00FF                    /
//                          -DLINK_STATUS_JITTER_MASK=0x007F                  /
//                          -DROUTE_EXPIRY_TIME=30 -DAPSC_ACK_WAIT_DURATION_P /
//                          OLLED=3000 -DNWK_INDIRECT_MSG_TIMEOUT=7           /
//                          -DMAX_RREQ_ENTRIES=8 -DAPSC_MAX_FRAME_RETRIES=3   /
//                          -DNWK_MAX_DATA_RETRIES=2                          /
//                          -DMAX_POLL_FAILURE_RETRIES=2 -DMAX_BCAST=9        /
//                          -DAPS_MAX_GROUPS=16 -DMAX_RTG_ENTRIES=40          /
//                          -DNWK_MAX_BINDING_ENTRIES=4                       /
//                          -DMAX_BINDING_CLUSTER_IDS=4                       /
//                          "-DDEFAULT_KEY={0x01, 0x03, 0x05, 0x07, 0x09,     /
//                          0x0B, 0x0D, 0x0F, 0x00, 0x02, 0x04, 0x06, 0x08,   /
//                          0x0A, 0x0C, 0x0D}" -DMAC_MAX_FRAME_SIZE=116       /
//                          -DZDNWKMGR_MIN_TRANSMISSIONS=20 "-DCONST=const    /
//                          __code" -DGENERIC=__generic                       /
//                          -DRFD_RCVC_ALWAYS_ON=FALSE -DPOLL_RATE=500        /
//                          -DQUEUED_POLL_RATE=30 -DRESPONSE_POLL_RATE=100)   /
//                          -DREJOIN_POLL_RATE=440 "C:\Texas                  /
//                          Instruments\ZStack-CC2530-2.5.1a\Components\stack /
//                          \zdo\ZDObject.c" -D HAL_UART -lC "C:\Texas        /
//                          Instruments\ZStack-CC2530-2.5.1a\Projects\zstack\ /
//                          Samples\WirelessMonitorSystem\CC2530DB\Camera\Lis /
//                          t\" -lA "C:\Texas Instruments\ZStack-CC2530-2.5.1 /
//                          a\Projects\zstack\Samples\WirelessMonitorSystem\C /
//                          C2530DB\Camera\List\" --diag_suppress             /
//                          Pe001,Pa010 -o "C:\Texas                          /
//                          Instruments\ZStack-CC2530-2.5.1a\Projects\zstack\ /
//                          Samples\WirelessMonitorSystem\CC2530DB\Camera\Obj /
//                          \" -e --no_cse --no_unroll --no_inline            /
//                          --no_code_motion --no_tbaa --debug --core=plain   /
//                          --dptr=16,1 --data_model=large                    /
//                          --code_model=banked --calling_convention=xdata_re /
//                          entrant --place_constants=data_rom                /
//                          --nr_virtual_regs 16 -I "C:\Texas                 /
//                          Instruments\ZStack-CC2530-2.5.1a\Projects\zstack\ /
//                          Samples\WirelessMonitorSystem\CC2530DB\" -I       /
//                          "C:\Texas Instruments\ZStack-CC2530-2.5.1a\Projec /
//                          ts\zstack\Samples\WirelessMonitorSystem\CC2530DB\ /
//                          ..\Source\" -I "C:\Texas                          /
//                          Instruments\ZStack-CC2530-2.5.1a\Projects\zstack\ /
//                          Samples\WirelessMonitorSystem\CC2530DB\..\..\..\Z /
//                          Main\TI2530DB\" -I "C:\Texas                      /
//                          Instruments\ZStack-CC2530-2.5.1a\Projects\zstack\ /
//                          Samples\WirelessMonitorSystem\CC2530DB\..\..\..\. /
//                          .\..\Components\hal\include\" -I "C:\Texas        /
//                          Instruments\ZStack-CC2530-2.5.1a\Projects\zstack\ /
//                          Samples\WirelessMonitorSystem\CC2530DB\..\..\..\. /
//                          .\..\Components\hal\target\CC2530EB\" -I          /
//                          "C:\Texas Instruments\ZStack-CC2530-2.5.1a\Projec /
//                          ts\zstack\Samples\WirelessMonitorSystem\CC2530DB\ /
//                          ..\..\..\..\..\Components\mac\include\" -I        /
//                          "C:\Texas Instruments\ZStack-CC2530-2.5.1a\Projec /
//                          ts\zstack\Samples\WirelessMonitorSystem\CC2530DB\ /
//                          ..\..\..\..\..\Components\mac\high_level\" -I     /
//                          "C:\Texas Instruments\ZStack-CC2530-2.5.1a\Projec /
//                          ts\zstack\Samples\WirelessMonitorSystem\CC2530DB\ /
//                          ..\..\..\..\..\Components\mac\low_level\srf04\"   /
//                          -I "C:\Texas Instruments\ZStack-CC2530-2.5.1a\Pro /
//                          jects\zstack\Samples\WirelessMonitorSystem\CC2530 /
//                          DB\..\..\..\..\..\Components\mac\low_level\srf04\ /
//                          single_chip\" -I "C:\Texas                        /
//                          Instruments\ZStack-CC2530-2.5.1a\Projects\zstack\ /
//                          Samples\WirelessMonitorSystem\CC2530DB\..\..\..\. /
//                          .\..\Components\mt\" -I "C:\Texas                 /
//                          Instruments\ZStack-CC2530-2.5.1a\Projects\zstack\ /
//                          Samples\WirelessMonitorSystem\CC2530DB\..\..\..\. /
//                          .\..\Components\osal\include\" -I "C:\Texas       /
//                          Instruments\ZStack-CC2530-2.5.1a\Projects\zstack\ /
//                          Samples\WirelessMonitorSystem\CC2530DB\..\..\..\. /
//                          .\..\Components\services\saddr\" -I "C:\Texas     /
//                          Instruments\ZStack-CC2530-2.5.1a\Projects\zstack\ /
//                          Samples\WirelessMonitorSystem\CC2530DB\..\..\..\. /
//                          .\..\Components\services\sdata\" -I "C:\Texas     /
//                          Instruments\ZStack-CC2530-2.5.1a\Projects\zstack\ /
//                          Samples\WirelessMonitorSystem\CC2530DB\..\..\..\. /
//                          .\..\Components\stack\af\" -I "C:\Texas           /
//                          Instruments\ZStack-CC2530-2.5.1a\Projects\zstack\ /
//                          Samples\WirelessMonitorSystem\CC2530DB\..\..\..\. /
//                          .\..\Components\stack\nwk\" -I "C:\Texas          /
//                          Instruments\ZStack-CC2530-2.5.1a\Projects\zstack\ /
//                          Samples\WirelessMonitorSystem\CC2530DB\..\..\..\. /
//                          .\..\Components\stack\sapi\" -I "C:\Texas         /
//                          Instruments\ZStack-CC2530-2.5.1a\Projects\zstack\ /
//                          Samples\WirelessMonitorSystem\CC2530DB\..\..\..\. /
//                          .\..\Components\stack\sec\" -I "C:\Texas          /
//                          Instruments\ZStack-CC2530-2.5.1a\Projects\zstack\ /
//                          Samples\WirelessMonitorSystem\CC2530DB\..\..\..\. /
//                          .\..\Components\stack\sys\" -I "C:\Texas          /
//                          Instruments\ZStack-CC2530-2.5.1a\Projects\zstack\ /
//                          Samples\WirelessMonitorSystem\CC2530DB\..\..\..\. /
//                          .\..\Components\stack\zdo\" -I "C:\Texas          /
//                          Instruments\ZStack-CC2530-2.5.1a\Projects\zstack\ /
//                          Samples\WirelessMonitorSystem\CC2530DB\..\..\..\. /
//                          .\..\Components\zmac\" -I "C:\Texas               /
//                          Instruments\ZStack-CC2530-2.5.1a\Projects\zstack\ /
//                          Samples\WirelessMonitorSystem\CC2530DB\..\..\..\. /
//                          .\..\Components\zmac\f8w\" -On                    /
//                          --require_prototypes                              /
//    List file          =  C:\Texas Instruments\ZStack-CC2530-2.5.1a\Project /
//                          s\zstack\Samples\WirelessMonitorSystem\CC2530DB\C /
//                          amera\List\ZDObject.s51                           /
//                                                                            /
//                                                                            /
///////////////////////////////////////////////////////////////////////////////

        NAME ZDObject

        RTMODEL "__SystemLibrary", "CLib"
        RTMODEL "__calling_convention", "xdata_reentrant"
        RTMODEL "__code_model", "banked"
        RTMODEL "__core", "plain"
        RTMODEL "__data_model", "large"
        RTMODEL "__dptr_size", "16"
        RTMODEL "__extended_stack", "disabled"
        RTMODEL "__location_for_constants", "data"
        RTMODEL "__number_of_dptrs", "1"
        RTMODEL "__rt_version", "1"

        RSEG DOVERLAY:DATA:NOROOT(0)
        RSEG IOVERLAY:IDATA:NOROOT(0)
        RSEG ISTACK:IDATA:NOROOT(0)
        RSEG PSTACK:XDATA:NOROOT(0)
        RSEG XSTACK:XDATA:NOROOT(0)

        EXTERN ?ALLOC_XSTACK8
        EXTERN ?BANKED_ENTER_XDATA
        EXTERN ?BANKED_LEAVE_XDATA
        EXTERN ?BDISPATCH
        EXTERN ?BRET
        EXTERN ?CALL_IND
        EXTERN ?DEALLOC_XSTACK8
        EXTERN ?L_MOV_TO_X
        EXTERN ?L_MOV_X
        EXTERN ?PUSH_XSTACK8_X_TWO
        EXTERN ?PUSH_XSTACK_I_ONE
        EXTERN ?PUSH_XSTACK_I_THREE
        EXTERN ?PUSH_XSTACK_I_TWO
        EXTERN ?V0
        EXTERN ?XLOAD_R2345
        EXTERN ?XSP
        EXTERN ?XSTACK_DISP0_8
        EXTERN ?XSTORE_R2345
        EXTERN __INIT_XDATA_Z

        PUBLIC ??NLME_PermitJoiningTimeout?relay
        FUNCTION ??NLME_PermitJoiningTimeout?relay,0203H
        PUBLIC ??ZDMatchSendState?relay
        FUNCTION ??ZDMatchSendState?relay,0203H
        FUNCTION ??ZDODeviceSetup?relay,0203H
        PUBLIC ??ZDO_AnyClusterMatches?relay
        FUNCTION ??ZDO_AnyClusterMatches?relay,0203H
        PUBLIC ??ZDO_BuildSimpleDescBuf?relay
        FUNCTION ??ZDO_BuildSimpleDescBuf?relay,0203H
        FUNCTION ??ZDO_CompareClusterLists?relay,0203H
        PUBLIC ??ZDO_ConvertOTAClusters?relay
        FUNCTION ??ZDO_ConvertOTAClusters?relay,0203H
        FUNCTION ??ZDO_CopyMatchInfo?relay,0203H
        FUNCTION ??ZDO_EndDeviceBindMatchTimeoutCB?relay,0203H
        PUBLIC ??ZDO_EndDeviceTimeoutCB?relay
        FUNCTION ??ZDO_EndDeviceTimeoutCB?relay,0203H
        PUBLIC ??ZDO_Init?relay
        FUNCTION ??ZDO_Init?relay,0203H
        PUBLIC ??ZDO_MatchEndDeviceBind?relay
        FUNCTION ??ZDO_MatchEndDeviceBind?relay,0203H
        PUBLIC ??ZDO_ParseAddrRsp?relay
        FUNCTION ??ZDO_ParseAddrRsp?relay,0203H
        PUBLIC ??ZDO_ParseBindUnbindReq?relay
        FUNCTION ??ZDO_ParseBindUnbindReq?relay,0203H
        PUBLIC ??ZDO_ParseDeviceAnnce?relay
        FUNCTION ??ZDO_ParseDeviceAnnce?relay,0203H
        PUBLIC ??ZDO_ParseEPListRsp?relay
        FUNCTION ??ZDO_ParseEPListRsp?relay,0203H
        PUBLIC ??ZDO_ParseEndDeviceBindReq?relay
        FUNCTION ??ZDO_ParseEndDeviceBindReq?relay,0203H
        PUBLIC ??ZDO_ParseMgmNwkDiscRsp?relay
        FUNCTION ??ZDO_ParseMgmNwkDiscRsp?relay,0203H
        PUBLIC ??ZDO_ParseMgmtBindRsp?relay
        FUNCTION ??ZDO_ParseMgmtBindRsp?relay,0203H
        PUBLIC ??ZDO_ParseMgmtLqiRsp?relay
        FUNCTION ??ZDO_ParseMgmtLqiRsp?relay,0203H
        PUBLIC ??ZDO_ParseMgmtNwkUpdateNotify?relay
        FUNCTION ??ZDO_ParseMgmtNwkUpdateNotify?relay,0203H
        PUBLIC ??ZDO_ParseMgmtNwkUpdateReq?relay
        FUNCTION ??ZDO_ParseMgmtNwkUpdateReq?relay,0203H
        PUBLIC ??ZDO_ParseMgmtRtgRsp?relay
        FUNCTION ??ZDO_ParseMgmtRtgRsp?relay,0203H
        PUBLIC ??ZDO_ParseNodeDescRsp?relay
        FUNCTION ??ZDO_ParseNodeDescRsp?relay,0203H
        PUBLIC ??ZDO_ParsePowerDescRsp?relay
        FUNCTION ??ZDO_ParsePowerDescRsp?relay,0203H
        PUBLIC ??ZDO_ParseServerDiscRsp?relay
        FUNCTION ??ZDO_ParseServerDiscRsp?relay,0203H
        PUBLIC ??ZDO_ParseSimpleDescBuf?relay
        FUNCTION ??ZDO_ParseSimpleDescBuf?relay,0203H
        PUBLIC ??ZDO_ParseSimpleDescRsp?relay
        FUNCTION ??ZDO_ParseSimpleDescRsp?relay,0203H
        PUBLIC ??ZDO_ParseUserDescRsp?relay
        FUNCTION ??ZDO_ParseUserDescRsp?relay,0203H
        PUBLIC ??ZDO_ProcessActiveEPReq?relay
        FUNCTION ??ZDO_ProcessActiveEPReq?relay,0203H
        PUBLIC ??ZDO_ProcessBindUnbindReq?relay
        FUNCTION ??ZDO_ProcessBindUnbindReq?relay,0203H
        PUBLIC ??ZDO_ProcessDeviceAnnce?relay
        FUNCTION ??ZDO_ProcessDeviceAnnce?relay,0203H
        PUBLIC ??ZDO_ProcessMatchDescReq?relay
        FUNCTION ??ZDO_ProcessMatchDescReq?relay,0203H
        PUBLIC ??ZDO_ProcessMgmtBindReq?relay
        FUNCTION ??ZDO_ProcessMgmtBindReq?relay,0203H
        PUBLIC ??ZDO_ProcessMgmtDirectJoinReq?relay
        FUNCTION ??ZDO_ProcessMgmtDirectJoinReq?relay,0203H
        PUBLIC ??ZDO_ProcessMgmtLeaveReq?relay
        FUNCTION ??ZDO_ProcessMgmtLeaveReq?relay,0203H
        PUBLIC ??ZDO_ProcessMgmtLqiReq?relay
        FUNCTION ??ZDO_ProcessMgmtLqiReq?relay,0203H
        PUBLIC ??ZDO_ProcessMgmtNwkDiscReq?relay
        FUNCTION ??ZDO_ProcessMgmtNwkDiscReq?relay,0203H
        PUBLIC ??ZDO_ProcessMgmtPermitJoinReq?relay
        FUNCTION ??ZDO_ProcessMgmtPermitJoinReq?relay,0203H
        PUBLIC ??ZDO_ProcessMgmtRtgReq?relay
        FUNCTION ??ZDO_ProcessMgmtRtgReq?relay,0203H
        PUBLIC ??ZDO_ProcessNodeDescReq?relay
        FUNCTION ??ZDO_ProcessNodeDescReq?relay,0203H
        PUBLIC ??ZDO_ProcessPowerDescReq?relay
        FUNCTION ??ZDO_ProcessPowerDescReq?relay,0203H
        PUBLIC ??ZDO_ProcessServerDiscReq?relay
        FUNCTION ??ZDO_ProcessServerDiscReq?relay,0203H
        PUBLIC ??ZDO_ProcessSimpleDescReq?relay
        FUNCTION ??ZDO_ProcessSimpleDescReq?relay,0203H
        PUBLIC ??ZDO_ProcessUserDescReq?relay
        FUNCTION ??ZDO_ProcessUserDescReq?relay,0203H
        PUBLIC ??ZDO_ProcessUserDescSet?relay
        FUNCTION ??ZDO_ProcessUserDescSet?relay,0203H
        FUNCTION ??ZDO_RemoveEndDeviceBind?relay,0203H
        FUNCTION ??ZDO_RemoveMatchMemory?relay,0203H
        FUNCTION ??ZDO_SendEDBindRsp?relay,0203H
        PUBLIC ??ZDO_StartDevice?relay
        FUNCTION ??ZDO_StartDevice?relay,0203H
        PUBLIC ??ZDO_UpdateAddrManager?relay
        FUNCTION ??ZDO_UpdateAddrManager?relay,0203H
        PUBLIC ??ZDO_UpdateNwkStatus?relay
        FUNCTION ??ZDO_UpdateNwkStatus?relay,0203H
        FUNCTION ??zdoSendStateChangeMsg?relay,0203H
        PUBLIC NLME_PermitJoiningTimeout
        FUNCTION NLME_PermitJoiningTimeout,0203H
        ARGFRAME XSTACK, 0, STACK
        PUBLIC ZDMatchSendState
        FUNCTION ZDMatchSendState,021203H
        ARGFRAME XSTACK, 25, STACK
        ARGFRAME IOVERLAY, 0, STATIC
        ARGFRAME DOVERLAY, 0, STATIC
        LOCFRAME ISTACK, 1, STACK
        LOCFRAME XSTACK, 47, STACK
        FUNCTION ZDODeviceSetup,021203H
        ARGFRAME XSTACK, 0, STACK
        ARGFRAME IOVERLAY, 0, STATIC
        ARGFRAME DOVERLAY, 0, STATIC
        LOCFRAME ISTACK, 2, STACK
        PUBLIC ZDO_AnyClusterMatches
        FUNCTION ZDO_AnyClusterMatches,0203H
        ARGFRAME XSTACK, 36, STACK
        ARGFRAME IOVERLAY, 0, STATIC
        ARGFRAME DOVERLAY, 0, STATIC
        LOCFRAME XSTACK, 13, STACK
        PUBLIC ZDO_BuildSimpleDescBuf
        FUNCTION ZDO_BuildSimpleDescBuf,0203H
        ARGFRAME XSTACK, 0, STACK
        LOCFRAME ISTACK, 1, STACK
        LOCFRAME XSTACK, 10, STACK
        FUNCTION ZDO_CompareClusterLists,0203H
        ARGFRAME XSTACK, 29, STACK
        ARGFRAME IOVERLAY, 0, STATIC
        ARGFRAME DOVERLAY, 0, STATIC
        LOCFRAME XSTACK, 16, STACK
        PUBLIC ZDO_ConvertOTAClusters
        FUNCTION ZDO_ConvertOTAClusters,0203H
        ARGFRAME XSTACK, 34, STACK
        ARGFRAME IOVERLAY, 0, STATIC
        ARGFRAME DOVERLAY, 0, STATIC
        LOCFRAME XSTACK, 11, STACK
        FUNCTION ZDO_CopyMatchInfo,021203H
        ARGFRAME XSTACK, 25, STACK
        ARGFRAME IOVERLAY, 0, STATIC
        ARGFRAME DOVERLAY, 0, STATIC
        LOCFRAME XSTACK, 18, STACK
        FUNCTION ZDO_EndDeviceBindMatchTimeoutCB,021603H
        ARGFRAME XSTACK, 0, STACK
        LOCFRAME ISTACK, 2, STACK
        PUBLIC ZDO_EndDeviceTimeoutCB
        FUNCTION ZDO_EndDeviceTimeoutCB,021203H
        ARGFRAME XSTACK, 0, STACK
        LOCFRAME XSTACK, 9, STACK
        PUBLIC ZDO_Init
        FUNCTION ZDO_Init,021203H
        ARGFRAME XSTACK, 0, STACK
        LOCFRAME ISTACK, 2, STACK
        PUBLIC ZDO_MatchEndDeviceBind
        FUNCTION ZDO_MatchEndDeviceBind,021203H
        ARGFRAME XSTACK, 0, STACK
        LOCFRAME ISTACK, 1, STACK
        LOCFRAME XSTACK, 30, STACK
        PUBLIC ZDO_ParseAddrRsp
        FUNCTION ZDO_ParseAddrRsp,021203H
        ARGFRAME XSTACK, 0, STACK
        LOCFRAME ISTACK, 1, STACK
        LOCFRAME XSTACK, 16, STACK
        PUBLIC ZDO_ParseBindUnbindReq
        FUNCTION ZDO_ParseBindUnbindReq,021203H
        ARGFRAME XSTACK, 0, STACK
        LOCFRAME ISTACK, 1, STACK
        LOCFRAME XSTACK, 12, STACK
        PUBLIC ZDO_ParseDeviceAnnce
        FUNCTION ZDO_ParseDeviceAnnce,021203H
        ARGFRAME XSTACK, 44, STACK
        ARGFRAME IOVERLAY, 0, STATIC
        ARGFRAME DOVERLAY, 0, STATIC
        LOCFRAME ISTACK, 1, STACK
        LOCFRAME XSTACK, 12, STACK
        PUBLIC ZDO_ParseEPListRsp
        FUNCTION ZDO_ParseEPListRsp,021203H
        ARGFRAME XSTACK, 0, STACK
        LOCFRAME ISTACK, 1, STACK
        LOCFRAME XSTACK, 20, STACK
        PUBLIC ZDO_ParseEndDeviceBindReq
        FUNCTION ZDO_ParseEndDeviceBindReq,021203H
        ARGFRAME XSTACK, 0, STACK
        LOCFRAME ISTACK, 1, STACK
        LOCFRAME XSTACK, 14, STACK
        PUBLIC ZDO_ParseMgmNwkDiscRsp
        FUNCTION ZDO_ParseMgmNwkDiscRsp,021203H
        ARGFRAME XSTACK, 0, STACK
        LOCFRAME ISTACK, 1, STACK
        LOCFRAME XSTACK, 20, STACK
        PUBLIC ZDO_ParseMgmtBindRsp
        FUNCTION ZDO_ParseMgmtBindRsp,021203H
        ARGFRAME XSTACK, 0, STACK
        LOCFRAME ISTACK, 1, STACK
        LOCFRAME XSTACK, 22, STACK
        PUBLIC ZDO_ParseMgmtLqiRsp
        FUNCTION ZDO_ParseMgmtLqiRsp,021203H
        ARGFRAME XSTACK, 0, STACK
        LOCFRAME ISTACK, 1, STACK
        LOCFRAME XSTACK, 20, STACK
        PUBLIC ZDO_ParseMgmtNwkUpdateNotify
        FUNCTION ZDO_ParseMgmtNwkUpdateNotify,021203H
        ARGFRAME XSTACK, 0, STACK
        LOCFRAME ISTACK, 1, STACK
        LOCFRAME XSTACK, 29, STACK
        PUBLIC ZDO_ParseMgmtNwkUpdateReq
        FUNCTION ZDO_ParseMgmtNwkUpdateReq,021203H
        ARGFRAME XSTACK, 0, STACK
        LOCFRAME ISTACK, 1, STACK
        LOCFRAME XSTACK, 12, STACK
        PUBLIC ZDO_ParseMgmtRtgRsp
        FUNCTION ZDO_ParseMgmtRtgRsp,021203H
        ARGFRAME XSTACK, 0, STACK
        LOCFRAME ISTACK, 1, STACK
        LOCFRAME XSTACK, 18, STACK
        PUBLIC ZDO_ParseNodeDescRsp
        FUNCTION ZDO_ParseNodeDescRsp,0203H
        ARGFRAME XSTACK, 0, STACK
        LOCFRAME ISTACK, 2, STACK
        LOCFRAME XSTACK, 10, STACK
        PUBLIC ZDO_ParsePowerDescRsp
        FUNCTION ZDO_ParsePowerDescRsp,0203H
        ARGFRAME XSTACK, 0, STACK
        LOCFRAME ISTACK, 1, STACK
        LOCFRAME XSTACK, 10, STACK
        PUBLIC ZDO_ParseServerDiscRsp
        FUNCTION ZDO_ParseServerDiscRsp,0203H
        ARGFRAME XSTACK, 0, STACK
        LOCFRAME ISTACK, 1, STACK
        LOCFRAME XSTACK, 9, STACK
        PUBLIC ZDO_ParseSimpleDescBuf
        FUNCTION ZDO_ParseSimpleDescBuf,021203H
        ARGFRAME XSTACK, 12, STACK
        ARGFRAME IOVERLAY, 0, STATIC
        ARGFRAME DOVERLAY, 0, STATIC
        LOCFRAME ISTACK, 1, STACK
        LOCFRAME XSTACK, 14, STACK
        PUBLIC ZDO_ParseSimpleDescRsp
        FUNCTION ZDO_ParseSimpleDescRsp,021203H
        ARGFRAME XSTACK, 0, STACK
        LOCFRAME ISTACK, 1, STACK
        LOCFRAME XSTACK, 12, STACK
        PUBLIC ZDO_ParseUserDescRsp
        FUNCTION ZDO_ParseUserDescRsp,021203H
        ARGFRAME XSTACK, 0, STACK
        LOCFRAME ISTACK, 1, STACK
        LOCFRAME XSTACK, 19, STACK
        PUBLIC ZDO_ProcessActiveEPReq
        FUNCTION ZDO_ProcessActiveEPReq,021203H
        ARGFRAME XSTACK, 0, STACK
        LOCFRAME XSTACK, 21, STACK
        PUBLIC ZDO_ProcessBindUnbindReq
        FUNCTION ZDO_ProcessBindUnbindReq,021203H
        ARGFRAME XSTACK, 0, STACK
        LOCFRAME XSTACK, 29, STACK
        PUBLIC ZDO_ProcessDeviceAnnce
        FUNCTION ZDO_ProcessDeviceAnnce,021203H
        ARGFRAME XSTACK, 0, STACK
        LOCFRAME XSTACK, 44, STACK
        PUBLIC ZDO_ProcessMatchDescReq
        FUNCTION ZDO_ProcessMatchDescReq,021203H
        ARGFRAME XSTACK, 0, STACK
        LOCFRAME ISTACK, 1, STACK
        LOCFRAME XSTACK, 41, STACK
        PUBLIC ZDO_ProcessMgmtBindReq
        FUNCTION ZDO_ProcessMgmtBindReq,021203H
        ARGFRAME XSTACK, 0, STACK
        LOCFRAME XSTACK, 29, STACK
        PUBLIC ZDO_ProcessMgmtDirectJoinReq
        FUNCTION ZDO_ProcessMgmtDirectJoinReq,021203H
        ARGFRAME XSTACK, 0, STACK
        LOCFRAME ISTACK, 1, STACK
        LOCFRAME XSTACK, 19, STACK
        PUBLIC ZDO_ProcessMgmtLeaveReq
        FUNCTION ZDO_ProcessMgmtLeaveReq,021203H
        ARGFRAME XSTACK, 0, STACK
        LOCFRAME ISTACK, 1, STACK
        LOCFRAME XSTACK, 25, STACK
        PUBLIC ZDO_ProcessMgmtLqiReq
        FUNCTION ZDO_ProcessMgmtLqiReq,021203H
        ARGFRAME XSTACK, 0, STACK
        LOCFRAME ISTACK, 1, STACK
        LOCFRAME XSTACK, 64, STACK
        PUBLIC ZDO_ProcessMgmtNwkDiscReq
        FUNCTION ZDO_ProcessMgmtNwkDiscReq,021203H
        ARGFRAME XSTACK, 0, STACK
        LOCFRAME ISTACK, 1, STACK
        LOCFRAME XSTACK, 18, STACK
        PUBLIC ZDO_ProcessMgmtPermitJoinReq
        FUNCTION ZDO_ProcessMgmtPermitJoinReq,021203H
        ARGFRAME XSTACK, 0, STACK
        LOCFRAME ISTACK, 1, STACK
        LOCFRAME XSTACK, 18, STACK
        PUBLIC ZDO_ProcessMgmtRtgReq
        FUNCTION ZDO_ProcessMgmtRtgReq,021203H
        ARGFRAME XSTACK, 0, STACK
        LOCFRAME XSTACK, 26, STACK
        PUBLIC ZDO_ProcessNodeDescReq
        FUNCTION ZDO_ProcessNodeDescReq,021203H
        ARGFRAME XSTACK, 0, STACK
        LOCFRAME XSTACK, 18, STACK
        PUBLIC ZDO_ProcessPowerDescReq
        FUNCTION ZDO_ProcessPowerDescReq,021203H
        ARGFRAME XSTACK, 0, STACK
        LOCFRAME XSTACK, 18, STACK
        PUBLIC ZDO_ProcessServerDiscReq
        FUNCTION ZDO_ProcessServerDiscReq,021203H
        ARGFRAME XSTACK, 0, STACK
        LOCFRAME XSTACK, 16, STACK
        PUBLIC ZDO_ProcessSimpleDescReq
        FUNCTION ZDO_ProcessSimpleDescReq,021203H
        ARGFRAME XSTACK, 0, STACK
        LOCFRAME XSTACK, 15, STACK
        PUBLIC ZDO_ProcessUserDescReq
        FUNCTION ZDO_ProcessUserDescReq,021203H
        ARGFRAME XSTACK, 0, STACK
        LOCFRAME XSTACK, 33, STACK
        PUBLIC ZDO_ProcessUserDescSet
        FUNCTION ZDO_ProcessUserDescSet,021203H
        ARGFRAME XSTACK, 0, STACK
        LOCFRAME ISTACK, 1, STACK
        LOCFRAME XSTACK, 44, STACK
        FUNCTION ZDO_RemoveEndDeviceBind,021203H
        ARGFRAME XSTACK, 9, STACK
        ARGFRAME IOVERLAY, 0, STATIC
        ARGFRAME DOVERLAY, 0, STATIC
        LOCFRAME ISTACK, 2, STACK
        FUNCTION ZDO_RemoveMatchMemory,021203H
        ARGFRAME XSTACK, 39, STACK
        ARGFRAME IOVERLAY, 0, STATIC
        ARGFRAME DOVERLAY, 0, STATIC
        LOCFRAME ISTACK, 2, STACK
        FUNCTION ZDO_SendEDBindRsp,021203H
        ARGFRAME XSTACK, 9, STACK
        ARGFRAME IOVERLAY, 0, STATIC
        ARGFRAME DOVERLAY, 0, STATIC
        LOCFRAME ISTACK, 1, STACK
        LOCFRAME XSTACK, 18, STACK
        PUBLIC ZDO_StartDevice
        FUNCTION ZDO_StartDevice,021203H
        ARGFRAME XSTACK, 0, STACK
        LOCFRAME XSTACK, 22, STACK
        PUBLIC ZDO_UpdateAddrManager
        FUNCTION ZDO_UpdateAddrManager,021203H
        ARGFRAME XSTACK, 0, STACK
        LOCFRAME XSTACK, 23, STACK
        PUBLIC ZDO_UpdateNwkStatus
        FUNCTION ZDO_UpdateNwkStatus,021203H
        ARGFRAME XSTACK, 0, STACK
        LOCFRAME XSTACK, 12, STACK
        PUBWEAK __Constant_0
        PUBWEAK __Constant_7fff800
        PUBLIC apsChannelMask
        PUBLIC matchED
        FUNCTION zdoSendStateChangeMsg,021203H
        ARGFRAME XSTACK, 12, STACK
        ARGFRAME IOVERLAY, 0, STATIC
        ARGFRAME DOVERLAY, 0, STATIC
        LOCFRAME ISTACK, 1, STACK
        LOCFRAME XSTACK, 13, STACK
        
        CFI Names cfiNames0
        CFI StackFrame CFA_SP SP IDATA
        CFI StackFrame CFA_PSP16 PSP16 XDATA
        CFI StackFrame CFA_XSP16 XSP16 XDATA
        CFI StaticOverlayFrame CFA_IOVERLAY IOVERLAY
        CFI StaticOverlayFrame CFA_DOVERLAY DOVERLAY
        CFI Resource `PSW.CY`:1, `B.BR0`:1, `B.BR1`:1, `B.BR2`:1, `B.BR3`:1
        CFI Resource `B.BR4`:1, `B.BR5`:1, `B.BR6`:1, `B.BR7`:1, `VB.BR8`:1
        CFI Resource `VB.BR9`:1, `VB.BR10`:1, `VB.BR11`:1, `VB.BR12`:1
        CFI Resource `VB.BR13`:1, `VB.BR14`:1, `VB.BR15`:1, VB:8, B:8, A:8
        CFI Resource PSW:8, DPL0:8, DPH0:8, R0:8, R1:8, R2:8, R3:8, R4:8, R5:8
        CFI Resource R6:8, R7:8, V0:8, V1:8, V2:8, V3:8, V4:8, V5:8, V6:8, V7:8
        CFI Resource V8:8, V9:8, V10:8, V11:8, V12:8, V13:8, V14:8, V15:8, SP:8
        CFI Resource PSPH:8, PSPL:8, PSP16:16, XSPH:8, XSPL:8, XSP16:16
        CFI VirtualResource ?RET:24
        CFI Resource ?BRET_EXT:8
        CFI VirtualResource ?RET_HIGH:8, ?RET_LOW:8
        CFI ResourceParts PSP16 PSPH, PSPL
        CFI ResourceParts XSP16 XSPH, XSPL
        CFI ResourceParts ?RET ?BRET_EXT, ?RET_HIGH, ?RET_LOW
        CFI EndNames cfiNames0
        
        CFI Common cfiCommon0 Using cfiNames0
        CFI CodeAlign 1
        CFI DataAlign -1
        CFI ReturnAddress ?RET CODE
        CFI CFA_DOVERLAY Used
        CFI CFA_IOVERLAY Used
        CFI CFA_SP SP+-3
        CFI CFA_PSP16 PSP16+0
        CFI CFA_XSP16 XSP16+0
        CFI `PSW.CY` SameValue
        CFI `B.BR0` SameValue
        CFI `B.BR1` SameValue
        CFI `B.BR2` SameValue
        CFI `B.BR3` SameValue
        CFI `B.BR4` SameValue
        CFI `B.BR5` SameValue
        CFI `B.BR6` SameValue
        CFI `B.BR7` SameValue
        CFI `VB.BR8` SameValue
        CFI `VB.BR9` SameValue
        CFI `VB.BR10` SameValue
        CFI `VB.BR11` SameValue
        CFI `VB.BR12` SameValue
        CFI `VB.BR13` SameValue
        CFI `VB.BR14` SameValue
        CFI `VB.BR15` SameValue
        CFI VB SameValue
        CFI B Undefined
        CFI A Undefined
        CFI PSW SameValue
        CFI DPL0 SameValue
        CFI DPH0 SameValue
        CFI R0 Undefined
        CFI R1 Undefined
        CFI R2 Undefined
        CFI R3 Undefined
        CFI R4 Undefined
        CFI R5 Undefined
        CFI R6 SameValue
        CFI R7 SameValue
        CFI V0 SameValue
        CFI V1 SameValue
        CFI V2 SameValue
        CFI V3 SameValue
        CFI V4 SameValue
        CFI V5 SameValue
        CFI V6 SameValue
        CFI V7 SameValue
        CFI V8 SameValue
        CFI V9 SameValue
        CFI V10 SameValue
        CFI V11 SameValue
        CFI V12 SameValue
        CFI V13 SameValue
        CFI V14 SameValue
        CFI V15 SameValue
        CFI PSPH Undefined
        CFI PSPL Undefined
        CFI XSPH Undefined
        CFI XSPL Undefined
        CFI ?RET Concat
        CFI ?BRET_EXT Frame(CFA_SP, 3)
        CFI ?RET_HIGH Frame(CFA_SP, 2)
        CFI ?RET_LOW Frame(CFA_SP, 1)
        CFI EndCommon cfiCommon0
        
sAddrExtCpy         SYMBOL "sAddrExtCpy"
APS_ReflectorInit   SYMBOL "APS_ReflectorInit"
NLME_DeviceJoiningInit SYMBOL "NLME_DeviceJoiningInit"
NLME_NetworkDiscoveryRequest SYMBOL "NLME_NetworkDiscoveryRequest"
nwk_ScanJoiningOrphan SYMBOL "nwk_ScanJoiningOrphan"
NLME_OrphanJoinRequest SYMBOL "NLME_OrphanJoinRequest"
osal_start_timerEx  SYMBOL "osal_start_timerEx"
osal_msg_find       SYMBOL "osal_msg_find"
osal_msg_allocate   SYMBOL "osal_msg_allocate"
osal_set_event      SYMBOL "osal_set_event"
osal_msg_send       SYMBOL "osal_msg_send"
NLME_GetShortAddr   SYMBOL "NLME_GetShortAddr"
NLME_GetExtAddr     SYMBOL "NLME_GetExtAddr"
osal_mem_free       SYMBOL "osal_mem_free"
ZDP_SendData        SYMBOL "ZDP_SendData"
ZDP_NodeDescMsg     SYMBOL "ZDP_NodeDescMsg"
ZDP_GenericRsp      SYMBOL "ZDP_GenericRsp"
ZDP_PowerDescMsg    SYMBOL "ZDP_PowerDescMsg"
afFindSimpleDesc    SYMBOL "afFindSimpleDesc"
ZDP_SimpleDescMsg   SYMBOL "ZDP_SimpleDescMsg"
afNumEndPoints      SYMBOL "afNumEndPoints"
afEndPoints         SYMBOL "afEndPoints"
ZDP_EPRsp           SYMBOL "ZDP_EPRsp"
NLME_IsAddressBroadcast SYMBOL "NLME_IsAddressBroadcast"
osal_mem_alloc      SYMBOL "osal_mem_alloc"
osal_memcpy         SYMBOL "osal_memcpy"
sAddrExtCmp         SYMBOL "sAddrExtCmp"
APSME_BindRequest   SYMBOL "APSME_BindRequest"
ZDApp_NVUpdate      SYMBOL "ZDApp_NVUpdate"
APSME_LookupNwkAddr SYMBOL "APSME_LookupNwkAddr"
ZDP_NwkAddrReq      SYMBOL "ZDP_NwkAddrReq"
APSME_UnBindRequest SYMBOL "APSME_UnBindRequest"
AddrMgrExtAddrSet   SYMBOL "AddrMgrExtAddrSet"
AddrMgrEntryUpdate  SYMBOL "AddrMgrEntryUpdate"
ZDP_ServerDiscRsp   SYMBOL "ZDP_ServerDiscRsp"
NLME_GetRequest     SYMBOL "NLME_GetRequest"
AssocCount          SYMBOL "AssocCount"
AssocFindDevice     SYMBOL "AssocFindDevice"
AddrMgrEntryLookupNwk SYMBOL "AddrMgrEntryLookupNwk"
osal_memset         SYMBOL "osal_memset"
ZDP_MgmtLqiRsp      SYMBOL "ZDP_MgmtLqiRsp"
osal_build_uint32   SYMBOL "osal_build_uint32"
NLME_NwkDiscReq2    SYMBOL "NLME_NwkDiscReq2"
NLME_NwkDiscTerm    SYMBOL "NLME_NwkDiscTerm"
ZDP_MgmtRtgRsp      SYMBOL "ZDP_MgmtRtgRsp"
APSME_GetRequest    SYMBOL "APSME_GetRequest"
ZDP_MgmtBindRsp     SYMBOL "ZDP_MgmtBindRsp"
NLME_DirectJoinRequest SYMBOL "NLME_DirectJoinRequest"
AddrMgrExtAddrValid SYMBOL "AddrMgrExtAddrValid"
NLME_LeaveReq       SYMBOL "NLME_LeaveReq"
NLME_PermitJoiningRequest SYMBOL "NLME_PermitJoiningRequest"
osal_nv_read        SYMBOL "osal_nv_read"
ZDP_UserDescRsp     SYMBOL "ZDP_UserDescRsp"
osal_nv_write       SYMBOL "osal_nv_write"
nwkNeighborRemoveAllStranded SYMBOL "nwkNeighborRemoveAllStranded"
NLME_CheckNewAddrSet SYMBOL "NLME_CheckNewAddrSet"
NLME_GetCoordExtAddr SYMBOL "NLME_GetCoordExtAddr"
NLME_GetCoordShortAddr SYMBOL "NLME_GetCoordShortAddr"
ZMacSetReq          SYMBOL "ZMacSetReq"
nwkNeighborUpdateNwkAddr SYMBOL "nwkNeighborUpdateNwkAddr"
RTG_RemoveRtgEntry  SYMBOL "RTG_RemoveRtgEntry"
AddrMgrEntryLookupExt SYMBOL "AddrMgrEntryLookupExt"
APS_SetEndDeviceBindTimeout SYMBOL "APS_SetEndDeviceBindTimeout"
ZDP_BindUnbindReq   SYMBOL "ZDP_BindUnbindReq"
??APSME_BindRequest?relay SYMBOL "?relay", APSME_BindRequest
??APSME_GetRequest?relay SYMBOL "?relay", APSME_GetRequest
??APSME_LookupNwkAddr?relay SYMBOL "?relay", APSME_LookupNwkAddr
??APSME_UnBindRequest?relay SYMBOL "?relay", APSME_UnBindRequest
??APS_ReflectorInit?relay SYMBOL "?relay", APS_ReflectorInit
??APS_SetEndDeviceBindTimeout?relay SYMBOL "?relay", APS_SetEndDeviceBindTimeout
??AddrMgrEntryLookupExt?relay SYMBOL "?relay", AddrMgrEntryLookupExt
??AddrMgrEntryLookupNwk?relay SYMBOL "?relay", AddrMgrEntryLookupNwk
??AddrMgrEntryUpdate?relay SYMBOL "?relay", AddrMgrEntryUpdate
??AddrMgrExtAddrSet?relay SYMBOL "?relay", AddrMgrExtAddrSet
??AddrMgrExtAddrValid?relay SYMBOL "?relay", AddrMgrExtAddrValid
??AssocCount?relay  SYMBOL "?relay", AssocCount
??AssocFindDevice?relay SYMBOL "?relay", AssocFindDevice
??NLME_CheckNewAddrSet?relay SYMBOL "?relay", NLME_CheckNewAddrSet
??NLME_DeviceJoiningInit?relay SYMBOL "?relay", NLME_DeviceJoiningInit
??NLME_DirectJoinRequest?relay SYMBOL "?relay", NLME_DirectJoinRequest
??NLME_GetCoordExtAddr?relay SYMBOL "?relay", NLME_GetCoordExtAddr
??NLME_GetCoordShortAddr?relay SYMBOL "?relay", NLME_GetCoordShortAddr
??NLME_GetExtAddr?relay SYMBOL "?relay", NLME_GetExtAddr
??NLME_GetRequest?relay SYMBOL "?relay", NLME_GetRequest
??NLME_GetShortAddr?relay SYMBOL "?relay", NLME_GetShortAddr
??NLME_IsAddressBroadcast?relay SYMBOL "?relay", NLME_IsAddressBroadcast
??NLME_LeaveReq?relay SYMBOL "?relay", NLME_LeaveReq
??NLME_NetworkDiscoveryRequest?relay SYMBOL "?relay", NLME_NetworkDiscoveryRequest
??NLME_NwkDiscReq2?relay SYMBOL "?relay", NLME_NwkDiscReq2
??NLME_NwkDiscTerm?relay SYMBOL "?relay", NLME_NwkDiscTerm
??NLME_OrphanJoinRequest?relay SYMBOL "?relay", NLME_OrphanJoinRequest
??NLME_PermitJoiningRequest?relay SYMBOL "?relay", NLME_PermitJoiningRequest
??RTG_RemoveRtgEntry?relay SYMBOL "?relay", RTG_RemoveRtgEntry
??ZDApp_NVUpdate?relay SYMBOL "?relay", ZDApp_NVUpdate
??ZDP_BindUnbindReq?relay SYMBOL "?relay", ZDP_BindUnbindReq
??ZDP_EPRsp?relay   SYMBOL "?relay", ZDP_EPRsp
??ZDP_GenericRsp?relay SYMBOL "?relay", ZDP_GenericRsp
??ZDP_MgmtBindRsp?relay SYMBOL "?relay", ZDP_MgmtBindRsp
??ZDP_MgmtLqiRsp?relay SYMBOL "?relay", ZDP_MgmtLqiRsp
??ZDP_MgmtRtgRsp?relay SYMBOL "?relay", ZDP_MgmtRtgRsp
??ZDP_NodeDescMsg?relay SYMBOL "?relay", ZDP_NodeDescMsg
??ZDP_NwkAddrReq?relay SYMBOL "?relay", ZDP_NwkAddrReq
??ZDP_PowerDescMsg?relay SYMBOL "?relay", ZDP_PowerDescMsg
??ZDP_SendData?relay SYMBOL "?relay", ZDP_SendData
??ZDP_ServerDiscRsp?relay SYMBOL "?relay", ZDP_ServerDiscRsp
??ZDP_SimpleDescMsg?relay SYMBOL "?relay", ZDP_SimpleDescMsg
??ZDP_UserDescRsp?relay SYMBOL "?relay", ZDP_UserDescRsp
??ZMacSetReq?relay  SYMBOL "?relay", ZMacSetReq
??afEndPoints?relay SYMBOL "?relay", afEndPoints
??afFindSimpleDesc?relay SYMBOL "?relay", afFindSimpleDesc
??afNumEndPoints?relay SYMBOL "?relay", afNumEndPoints
??nwkNeighborRemoveAllStranded?relay SYMBOL "?relay", nwkNeighborRemoveAllStranded
??nwkNeighborUpdateNwkAddr?relay SYMBOL "?relay", nwkNeighborUpdateNwkAddr
??nwk_ScanJoiningOrphan?relay SYMBOL "?relay", nwk_ScanJoiningOrphan
??osal_build_uint32?relay SYMBOL "?relay", osal_build_uint32
??osal_mem_alloc?relay SYMBOL "?relay", osal_mem_alloc
??osal_mem_free?relay SYMBOL "?relay", osal_mem_free
??osal_memcpy?relay SYMBOL "?relay", osal_memcpy
??osal_memset?relay SYMBOL "?relay", osal_memset
??osal_msg_allocate?relay SYMBOL "?relay", osal_msg_allocate
??osal_msg_find?relay SYMBOL "?relay", osal_msg_find
??osal_msg_send?relay SYMBOL "?relay", osal_msg_send
??osal_nv_read?relay SYMBOL "?relay", osal_nv_read
??osal_nv_write?relay SYMBOL "?relay", osal_nv_write
??osal_set_event?relay SYMBOL "?relay", osal_set_event
??osal_start_timerEx?relay SYMBOL "?relay", osal_start_timerEx
??sAddrExtCmp?relay SYMBOL "?relay", sAddrExtCmp
??sAddrExtCpy?relay SYMBOL "?relay", sAddrExtCpy
NLME_PermitJoiningTimeout SYMBOL "NLME_PermitJoiningTimeout"
??NLME_PermitJoiningTimeout?relay SYMBOL "?relay", NLME_PermitJoiningTimeout
ZDMatchSendState    SYMBOL "ZDMatchSendState"
??ZDMatchSendState?relay SYMBOL "?relay", ZDMatchSendState
ZDO_AnyClusterMatches SYMBOL "ZDO_AnyClusterMatches"
??ZDO_AnyClusterMatches?relay SYMBOL "?relay", ZDO_AnyClusterMatches
ZDO_BuildSimpleDescBuf SYMBOL "ZDO_BuildSimpleDescBuf"
??ZDO_BuildSimpleDescBuf?relay SYMBOL "?relay", ZDO_BuildSimpleDescBuf
ZDO_ConvertOTAClusters SYMBOL "ZDO_ConvertOTAClusters"
??ZDO_ConvertOTAClusters?relay SYMBOL "?relay", ZDO_ConvertOTAClusters
ZDO_EndDeviceTimeoutCB SYMBOL "ZDO_EndDeviceTimeoutCB"
??ZDO_EndDeviceTimeoutCB?relay SYMBOL "?relay", ZDO_EndDeviceTimeoutCB
ZDO_Init            SYMBOL "ZDO_Init"
??ZDO_Init?relay    SYMBOL "?relay", ZDO_Init
ZDO_MatchEndDeviceBind SYMBOL "ZDO_MatchEndDeviceBind"
??ZDO_MatchEndDeviceBind?relay SYMBOL "?relay", ZDO_MatchEndDeviceBind
ZDO_ParseAddrRsp    SYMBOL "ZDO_ParseAddrRsp"
??ZDO_ParseAddrRsp?relay SYMBOL "?relay", ZDO_ParseAddrRsp
ZDO_ParseBindUnbindReq SYMBOL "ZDO_ParseBindUnbindReq"
??ZDO_ParseBindUnbindReq?relay SYMBOL "?relay", ZDO_ParseBindUnbindReq
ZDO_ParseDeviceAnnce SYMBOL "ZDO_ParseDeviceAnnce"
??ZDO_ParseDeviceAnnce?relay SYMBOL "?relay", ZDO_ParseDeviceAnnce
ZDO_ParseEPListRsp  SYMBOL "ZDO_ParseEPListRsp"
??ZDO_ParseEPListRsp?relay SYMBOL "?relay", ZDO_ParseEPListRsp
ZDO_ParseEndDeviceBindReq SYMBOL "ZDO_ParseEndDeviceBindReq"
??ZDO_ParseEndDeviceBindReq?relay SYMBOL "?relay", ZDO_ParseEndDeviceBindReq
ZDO_ParseMgmNwkDiscRsp SYMBOL "ZDO_ParseMgmNwkDiscRsp"
??ZDO_ParseMgmNwkDiscRsp?relay SYMBOL "?relay", ZDO_ParseMgmNwkDiscRsp
ZDO_ParseMgmtBindRsp SYMBOL "ZDO_ParseMgmtBindRsp"
??ZDO_ParseMgmtBindRsp?relay SYMBOL "?relay", ZDO_ParseMgmtBindRsp
ZDO_ParseMgmtLqiRsp SYMBOL "ZDO_ParseMgmtLqiRsp"
??ZDO_ParseMgmtLqiRsp?relay SYMBOL "?relay", ZDO_ParseMgmtLqiRsp
ZDO_ParseMgmtNwkUpdateNotify SYMBOL "ZDO_ParseMgmtNwkUpdateNotify"
??ZDO_ParseMgmtNwkUpdateNotify?relay SYMBOL "?relay", ZDO_ParseMgmtNwkUpdateNotify
ZDO_ParseMgmtNwkUpdateReq SYMBOL "ZDO_ParseMgmtNwkUpdateReq"
??ZDO_ParseMgmtNwkUpdateReq?relay SYMBOL "?relay", ZDO_ParseMgmtNwkUpdateReq
ZDO_ParseMgmtRtgRsp SYMBOL "ZDO_ParseMgmtRtgRsp"
??ZDO_ParseMgmtRtgRsp?relay SYMBOL "?relay", ZDO_ParseMgmtRtgRsp
ZDO_ParseNodeDescRsp SYMBOL "ZDO_ParseNodeDescRsp"
??ZDO_ParseNodeDescRsp?relay SYMBOL "?relay", ZDO_ParseNodeDescRsp
ZDO_ParsePowerDescRsp SYMBOL "ZDO_ParsePowerDescRsp"
??ZDO_ParsePowerDescRsp?relay SYMBOL "?relay", ZDO_ParsePowerDescRsp
ZDO_ParseServerDiscRsp SYMBOL "ZDO_ParseServerDiscRsp"
??ZDO_ParseServerDiscRsp?relay SYMBOL "?relay", ZDO_ParseServerDiscRsp
ZDO_ParseSimpleDescBuf SYMBOL "ZDO_ParseSimpleDescBuf"
??ZDO_ParseSimpleDescBuf?relay SYMBOL "?relay", ZDO_ParseSimpleDescBuf
ZDO_ParseSimpleDescRsp SYMBOL "ZDO_ParseSimpleDescRsp"
??ZDO_ParseSimpleDescRsp?relay SYMBOL "?relay", ZDO_ParseSimpleDescRsp
ZDO_ParseUserDescRsp SYMBOL "ZDO_ParseUserDescRsp"
??ZDO_ParseUserDescRsp?relay SYMBOL "?relay", ZDO_ParseUserDescRsp
ZDO_ProcessActiveEPReq SYMBOL "ZDO_ProcessActiveEPReq"
??ZDO_ProcessActiveEPReq?relay SYMBOL "?relay", ZDO_ProcessActiveEPReq
ZDO_ProcessBindUnbindReq SYMBOL "ZDO_ProcessBindUnbindReq"
??ZDO_ProcessBindUnbindReq?relay SYMBOL "?relay", ZDO_ProcessBindUnbindReq
ZDO_ProcessDeviceAnnce SYMBOL "ZDO_ProcessDeviceAnnce"
??ZDO_ProcessDeviceAnnce?relay SYMBOL "?relay", ZDO_ProcessDeviceAnnce
ZDO_ProcessMatchDescReq SYMBOL "ZDO_ProcessMatchDescReq"
??ZDO_ProcessMatchDescReq?relay SYMBOL "?relay", ZDO_ProcessMatchDescReq
ZDO_ProcessMgmtBindReq SYMBOL "ZDO_ProcessMgmtBindReq"
??ZDO_ProcessMgmtBindReq?relay SYMBOL "?relay", ZDO_ProcessMgmtBindReq
ZDO_ProcessMgmtDirectJoinReq SYMBOL "ZDO_ProcessMgmtDirectJoinReq"
??ZDO_ProcessMgmtDirectJoinReq?relay SYMBOL "?relay", ZDO_ProcessMgmtDirectJoinReq
ZDO_ProcessMgmtLeaveReq SYMBOL "ZDO_ProcessMgmtLeaveReq"
??ZDO_ProcessMgmtLeaveReq?relay SYMBOL "?relay", ZDO_ProcessMgmtLeaveReq
ZDO_ProcessMgmtLqiReq SYMBOL "ZDO_ProcessMgmtLqiReq"
??ZDO_ProcessMgmtLqiReq?relay SYMBOL "?relay", ZDO_ProcessMgmtLqiReq
ZDO_ProcessMgmtNwkDiscReq SYMBOL "ZDO_ProcessMgmtNwkDiscReq"
??ZDO_ProcessMgmtNwkDiscReq?relay SYMBOL "?relay", ZDO_ProcessMgmtNwkDiscReq
ZDO_ProcessMgmtPermitJoinReq SYMBOL "ZDO_ProcessMgmtPermitJoinReq"
??ZDO_ProcessMgmtPermitJoinReq?relay SYMBOL "?relay", ZDO_ProcessMgmtPermitJoinReq
ZDO_ProcessMgmtRtgReq SYMBOL "ZDO_ProcessMgmtRtgReq"
??ZDO_ProcessMgmtRtgReq?relay SYMBOL "?relay", ZDO_ProcessMgmtRtgReq
ZDO_ProcessNodeDescReq SYMBOL "ZDO_ProcessNodeDescReq"
??ZDO_ProcessNodeDescReq?relay SYMBOL "?relay", ZDO_ProcessNodeDescReq
ZDO_ProcessPowerDescReq SYMBOL "ZDO_ProcessPowerDescReq"
??ZDO_ProcessPowerDescReq?relay SYMBOL "?relay", ZDO_ProcessPowerDescReq
ZDO_ProcessServerDiscReq SYMBOL "ZDO_ProcessServerDiscReq"
??ZDO_ProcessServerDiscReq?relay SYMBOL "?relay", ZDO_ProcessServerDiscReq
ZDO_ProcessSimpleDescReq SYMBOL "ZDO_ProcessSimpleDescReq"
??ZDO_ProcessSimpleDescReq?relay SYMBOL "?relay", ZDO_ProcessSimpleDescReq
ZDO_ProcessUserDescReq SYMBOL "ZDO_ProcessUserDescReq"
??ZDO_ProcessUserDescReq?relay SYMBOL "?relay", ZDO_ProcessUserDescReq
ZDO_ProcessUserDescSet SYMBOL "ZDO_ProcessUserDescSet"
??ZDO_ProcessUserDescSet?relay SYMBOL "?relay", ZDO_ProcessUserDescSet
ZDO_StartDevice     SYMBOL "ZDO_StartDevice"
??ZDO_StartDevice?relay SYMBOL "?relay", ZDO_StartDevice
ZDO_UpdateAddrManager SYMBOL "ZDO_UpdateAddrManager"
??ZDO_UpdateAddrManager?relay SYMBOL "?relay", ZDO_UpdateAddrManager
ZDO_UpdateNwkStatus SYMBOL "ZDO_UpdateNwkStatus"
??ZDO_UpdateNwkStatus?relay SYMBOL "?relay", ZDO_UpdateNwkStatus

        EXTERN sAddrExtCpy
        FUNCTION sAddrExtCpy,0202H
        ARGFRAME ISTACK, 2, STACK
        ARGFRAME PSTACK, 0, STACK
        ARGFRAME XSTACK, 59, STACK
        ARGFRAME IOVERLAY, 0, STATIC
        ARGFRAME DOVERLAY, 0, STATIC
        EXTERN APS_ReflectorInit
        FUNCTION APS_ReflectorInit,0202H
        ARGFRAME ISTACK, 2, STACK
        ARGFRAME PSTACK, 0, STACK
        ARGFRAME XSTACK, 0, STACK
        ARGFRAME IOVERLAY, 0, STATIC
        ARGFRAME DOVERLAY, 0, STATIC
        EXTERN NLME_DeviceJoiningInit
        FUNCTION NLME_DeviceJoiningInit,0202H
        ARGFRAME ISTACK, 2, STACK
        ARGFRAME PSTACK, 0, STACK
        ARGFRAME XSTACK, 0, STACK
        ARGFRAME IOVERLAY, 0, STATIC
        ARGFRAME DOVERLAY, 0, STATIC
        EXTERN NLME_NetworkDiscoveryRequest
        FUNCTION NLME_NetworkDiscoveryRequest,0202H
        ARGFRAME ISTACK, 0, STACK
        ARGFRAME PSTACK, 0, STACK
        ARGFRAME XSTACK, 22, STACK
        ARGFRAME IOVERLAY, 0, STATIC
        ARGFRAME DOVERLAY, 0, STATIC
        EXTERN nwk_ScanJoiningOrphan
        FUNCTION nwk_ScanJoiningOrphan,0202H
        ARGFRAME ISTACK, 0, STACK
        ARGFRAME PSTACK, 0, STACK
        ARGFRAME XSTACK, 22, STACK
        ARGFRAME IOVERLAY, 0, STATIC
        ARGFRAME DOVERLAY, 0, STATIC
        EXTERN NLME_OrphanJoinRequest
        FUNCTION NLME_OrphanJoinRequest,0202H
        ARGFRAME ISTACK, 0, STACK
        ARGFRAME PSTACK, 0, STACK
        ARGFRAME XSTACK, 22, STACK
        ARGFRAME IOVERLAY, 0, STATIC
        ARGFRAME DOVERLAY, 0, STATIC
        EXTERN osal_start_timerEx
        FUNCTION osal_start_timerEx,0202H
        ARGFRAME ISTACK, 0, STACK
        ARGFRAME PSTACK, 0, STACK
        ARGFRAME XSTACK, 22, STACK
        ARGFRAME IOVERLAY, 0, STATIC
        ARGFRAME DOVERLAY, 0, STATIC
        EXTERN osal_msg_find
        FUNCTION osal_msg_find,0202H
        ARGFRAME ISTACK, 0, STACK
        ARGFRAME PSTACK, 0, STACK
        ARGFRAME XSTACK, 13, STACK
        ARGFRAME IOVERLAY, 0, STATIC
        ARGFRAME DOVERLAY, 0, STATIC
        EXTERN osal_msg_allocate
        FUNCTION osal_msg_allocate,0202H
        ARGFRAME ISTACK, 0, STACK
        ARGFRAME PSTACK, 0, STACK
        ARGFRAME XSTACK, 34, STACK
        ARGFRAME IOVERLAY, 0, STATIC
        ARGFRAME DOVERLAY, 0, STATIC
        EXTERN osal_set_event
        FUNCTION osal_set_event,0202H
        ARGFRAME ISTACK, 0, STACK
        ARGFRAME PSTACK, 0, STACK
        ARGFRAME XSTACK, 13, STACK
        ARGFRAME IOVERLAY, 0, STATIC
        ARGFRAME DOVERLAY, 0, STATIC
        EXTERN osal_msg_send
        FUNCTION osal_msg_send,0202H
        ARGFRAME ISTACK, 0, STACK
        ARGFRAME PSTACK, 0, STACK
        ARGFRAME XSTACK, 34, STACK
        ARGFRAME IOVERLAY, 0, STATIC
        ARGFRAME DOVERLAY, 0, STATIC
        EXTERN NLME_GetShortAddr
        FUNCTION NLME_GetShortAddr,0202H
        ARGFRAME ISTACK, 0, STACK
        ARGFRAME PSTACK, 0, STACK
        ARGFRAME XSTACK, 44, STACK
        ARGFRAME IOVERLAY, 0, STATIC
        ARGFRAME DOVERLAY, 0, STATIC
        EXTERN NLME_GetExtAddr
        FUNCTION NLME_GetExtAddr,0202H
        ARGFRAME ISTACK, 0, STACK
        ARGFRAME PSTACK, 0, STACK
        ARGFRAME XSTACK, 44, STACK
        ARGFRAME IOVERLAY, 0, STATIC
        ARGFRAME DOVERLAY, 0, STATIC
        EXTERN osal_mem_free
        FUNCTION osal_mem_free,0202H
        ARGFRAME ISTACK, 2, STACK
        ARGFRAME PSTACK, 0, STACK
        ARGFRAME XSTACK, 59, STACK
        ARGFRAME IOVERLAY, 0, STATIC
        ARGFRAME DOVERLAY, 0, STATIC
        EXTERN ZDP_SendData
        FUNCTION ZDP_SendData,0202H
        ARGFRAME ISTACK, 0, STACK
        ARGFRAME PSTACK, 0, STACK
        ARGFRAME XSTACK, 44, STACK
        ARGFRAME IOVERLAY, 0, STATIC
        ARGFRAME DOVERLAY, 0, STATIC
        EXTERN ZDP_NodeDescMsg
        FUNCTION ZDP_NodeDescMsg,0202H
        ARGFRAME ISTACK, 0, STACK
        ARGFRAME PSTACK, 0, STACK
        ARGFRAME XSTACK, 16, STACK
        ARGFRAME IOVERLAY, 0, STATIC
        ARGFRAME DOVERLAY, 0, STATIC
        EXTERN ZDP_GenericRsp
        FUNCTION ZDP_GenericRsp,0202H
        ARGFRAME ISTACK, 0, STACK
        ARGFRAME PSTACK, 0, STACK
        ARGFRAME XSTACK, 33, STACK
        ARGFRAME IOVERLAY, 0, STATIC
        ARGFRAME DOVERLAY, 0, STATIC
        EXTERN ZDP_PowerDescMsg
        FUNCTION ZDP_PowerDescMsg,0202H
        ARGFRAME ISTACK, 0, STACK
        ARGFRAME PSTACK, 0, STACK
        ARGFRAME XSTACK, 16, STACK
        ARGFRAME IOVERLAY, 0, STATIC
        ARGFRAME DOVERLAY, 0, STATIC
        EXTERN afFindSimpleDesc
        FUNCTION afFindSimpleDesc,0202H
        ARGFRAME ISTACK, 0, STACK
        ARGFRAME PSTACK, 0, STACK
        ARGFRAME XSTACK, 15, STACK
        ARGFRAME IOVERLAY, 0, STATIC
        ARGFRAME DOVERLAY, 0, STATIC
        EXTERN ZDP_SimpleDescMsg
        FUNCTION ZDP_SimpleDescMsg,0202H
        ARGFRAME ISTACK, 0, STACK
        ARGFRAME PSTACK, 0, STACK
        ARGFRAME XSTACK, 15, STACK
        ARGFRAME IOVERLAY, 0, STATIC
        ARGFRAME DOVERLAY, 0, STATIC
        EXTERN afNumEndPoints
        FUNCTION afNumEndPoints,0202H
        ARGFRAME ISTACK, 0, STACK
        ARGFRAME PSTACK, 0, STACK
        ARGFRAME XSTACK, 14, STACK
        ARGFRAME IOVERLAY, 0, STATIC
        ARGFRAME DOVERLAY, 0, STATIC
        EXTERN afEndPoints
        FUNCTION afEndPoints,0202H
        ARGFRAME ISTACK, 0, STACK
        ARGFRAME PSTACK, 0, STACK
        ARGFRAME XSTACK, 14, STACK
        ARGFRAME IOVERLAY, 0, STATIC
        ARGFRAME DOVERLAY, 0, STATIC
        EXTERN ZDP_EPRsp
        FUNCTION ZDP_EPRsp,0202H
        ARGFRAME ISTACK, 0, STACK
        ARGFRAME PSTACK, 0, STACK
        ARGFRAME XSTACK, 41, STACK
        ARGFRAME IOVERLAY, 0, STATIC
        ARGFRAME DOVERLAY, 0, STATIC
        EXTERN NLME_IsAddressBroadcast
        FUNCTION NLME_IsAddressBroadcast,0202H
        ARGFRAME ISTACK, 0, STACK
        ARGFRAME PSTACK, 0, STACK
        ARGFRAME XSTACK, 34, STACK
        ARGFRAME IOVERLAY, 0, STATIC
        ARGFRAME DOVERLAY, 0, STATIC
        EXTERN osal_mem_alloc
        FUNCTION osal_mem_alloc,0202H
        ARGFRAME ISTACK, 0, STACK
        ARGFRAME PSTACK, 0, STACK
        ARGFRAME XSTACK, 59, STACK
        ARGFRAME IOVERLAY, 0, STATIC
        ARGFRAME DOVERLAY, 0, STATIC
        EXTERN osal_memcpy
        FUNCTION osal_memcpy,0202H
        ARGFRAME ISTACK, 0, STACK
        ARGFRAME PSTACK, 0, STACK
        ARGFRAME XSTACK, 42, STACK
        ARGFRAME IOVERLAY, 0, STATIC
        ARGFRAME DOVERLAY, 0, STATIC
        EXTERN sAddrExtCmp
        FUNCTION sAddrExtCmp,0202H
        ARGFRAME ISTACK, 0, STACK
        ARGFRAME PSTACK, 0, STACK
        ARGFRAME XSTACK, 44, STACK
        ARGFRAME IOVERLAY, 0, STATIC
        ARGFRAME DOVERLAY, 0, STATIC
        EXTERN APSME_BindRequest
        FUNCTION APSME_BindRequest,0202H
        ARGFRAME ISTACK, 0, STACK
        ARGFRAME PSTACK, 0, STACK
        ARGFRAME XSTACK, 25, STACK
        ARGFRAME IOVERLAY, 0, STATIC
        ARGFRAME DOVERLAY, 0, STATIC
        EXTERN ZDApp_NVUpdate
        FUNCTION ZDApp_NVUpdate,0202H
        ARGFRAME ISTACK, 0, STACK
        ARGFRAME PSTACK, 0, STACK
        ARGFRAME XSTACK, 24, STACK
        ARGFRAME IOVERLAY, 0, STATIC
        ARGFRAME DOVERLAY, 0, STATIC
        EXTERN APSME_LookupNwkAddr
        FUNCTION APSME_LookupNwkAddr,0202H
        ARGFRAME ISTACK, 0, STACK
        ARGFRAME PSTACK, 0, STACK
        ARGFRAME XSTACK, 24, STACK
        ARGFRAME IOVERLAY, 0, STATIC
        ARGFRAME DOVERLAY, 0, STATIC
        EXTERN ZDP_NwkAddrReq
        FUNCTION ZDP_NwkAddrReq,0202H
        ARGFRAME ISTACK, 0, STACK
        ARGFRAME PSTACK, 0, STACK
        ARGFRAME XSTACK, 24, STACK
        ARGFRAME IOVERLAY, 0, STATIC
        ARGFRAME DOVERLAY, 0, STATIC
        EXTERN APSME_UnBindRequest
        FUNCTION APSME_UnBindRequest,0202H
        ARGFRAME ISTACK, 0, STACK
        ARGFRAME PSTACK, 0, STACK
        ARGFRAME XSTACK, 25, STACK
        ARGFRAME IOVERLAY, 0, STATIC
        ARGFRAME DOVERLAY, 0, STATIC
        EXTERN AddrMgrExtAddrSet
        FUNCTION AddrMgrExtAddrSet,0202H
        ARGFRAME ISTACK, 0, STACK
        ARGFRAME PSTACK, 0, STACK
        ARGFRAME XSTACK, 44, STACK
        ARGFRAME IOVERLAY, 0, STATIC
        ARGFRAME DOVERLAY, 0, STATIC
        EXTERN AddrMgrEntryUpdate
        FUNCTION AddrMgrEntryUpdate,0202H
        ARGFRAME ISTACK, 0, STACK
        ARGFRAME PSTACK, 0, STACK
        ARGFRAME XSTACK, 44, STACK
        ARGFRAME IOVERLAY, 0, STATIC
        ARGFRAME DOVERLAY, 0, STATIC
        EXTERN ZDP_ServerDiscRsp
        FUNCTION ZDP_ServerDiscRsp,0202H
        ARGFRAME ISTACK, 0, STACK
        ARGFRAME PSTACK, 0, STACK
        ARGFRAME XSTACK, 16, STACK
        ARGFRAME IOVERLAY, 0, STATIC
        ARGFRAME DOVERLAY, 0, STATIC
        EXTERN NLME_GetRequest
        FUNCTION NLME_GetRequest,0202H
        ARGFRAME ISTACK, 0, STACK
        ARGFRAME PSTACK, 0, STACK
        ARGFRAME XSTACK, 59, STACK
        ARGFRAME IOVERLAY, 0, STATIC
        ARGFRAME DOVERLAY, 0, STATIC
        EXTERN AssocCount
        FUNCTION AssocCount,0202H
        ARGFRAME ISTACK, 0, STACK
        ARGFRAME PSTACK, 0, STACK
        ARGFRAME XSTACK, 59, STACK
        ARGFRAME IOVERLAY, 0, STATIC
        ARGFRAME DOVERLAY, 0, STATIC
        EXTERN AssocFindDevice
        FUNCTION AssocFindDevice,0202H
        ARGFRAME ISTACK, 0, STACK
        ARGFRAME PSTACK, 0, STACK
        ARGFRAME XSTACK, 59, STACK
        ARGFRAME IOVERLAY, 0, STATIC
        ARGFRAME DOVERLAY, 0, STATIC
        EXTERN AddrMgrEntryLookupNwk
        FUNCTION AddrMgrEntryLookupNwk,0202H
        ARGFRAME ISTACK, 0, STACK
        ARGFRAME PSTACK, 0, STACK
        ARGFRAME XSTACK, 59, STACK
        ARGFRAME IOVERLAY, 0, STATIC
        ARGFRAME DOVERLAY, 0, STATIC
        EXTERN osal_memset
        FUNCTION osal_memset,0202H
        ARGFRAME ISTACK, 0, STACK
        ARGFRAME PSTACK, 0, STACK
        ARGFRAME XSTACK, 59, STACK
        ARGFRAME IOVERLAY, 0, STATIC
        ARGFRAME DOVERLAY, 0, STATIC
        EXTERN ZDP_MgmtLqiRsp
        FUNCTION ZDP_MgmtLqiRsp,0202H
        ARGFRAME ISTACK, 0, STACK
        ARGFRAME PSTACK, 0, STACK
        ARGFRAME XSTACK, 64, STACK
        ARGFRAME IOVERLAY, 0, STATIC
        ARGFRAME DOVERLAY, 0, STATIC
        EXTERN osal_build_uint32
        FUNCTION osal_build_uint32,0202H
        ARGFRAME ISTACK, 0, STACK
        ARGFRAME PSTACK, 0, STACK
        ARGFRAME XSTACK, 26, STACK
        ARGFRAME IOVERLAY, 0, STATIC
        ARGFRAME DOVERLAY, 0, STATIC
        EXTERN NLME_NwkDiscReq2
        FUNCTION NLME_NwkDiscReq2,0202H
        ARGFRAME ISTACK, 0, STACK
        ARGFRAME PSTACK, 0, STACK
        ARGFRAME XSTACK, 18, STACK
        ARGFRAME IOVERLAY, 0, STATIC
        ARGFRAME DOVERLAY, 0, STATIC
        EXTERN NLME_NwkDiscTerm
        FUNCTION NLME_NwkDiscTerm,0202H
        ARGFRAME ISTACK, 0, STACK
        ARGFRAME PSTACK, 0, STACK
        ARGFRAME XSTACK, 18, STACK
        ARGFRAME IOVERLAY, 0, STATIC
        ARGFRAME DOVERLAY, 0, STATIC
        EXTERN ZDP_MgmtRtgRsp
        FUNCTION ZDP_MgmtRtgRsp,0202H
        ARGFRAME ISTACK, 0, STACK
        ARGFRAME PSTACK, 0, STACK
        ARGFRAME XSTACK, 26, STACK
        ARGFRAME IOVERLAY, 0, STATIC
        ARGFRAME DOVERLAY, 0, STATIC
        EXTERN APSME_GetRequest
        FUNCTION APSME_GetRequest,0202H
        ARGFRAME ISTACK, 0, STACK
        ARGFRAME PSTACK, 0, STACK
        ARGFRAME XSTACK, 24, STACK
        ARGFRAME IOVERLAY, 0, STATIC
        ARGFRAME DOVERLAY, 0, STATIC
        EXTERN ZDP_MgmtBindRsp
        FUNCTION ZDP_MgmtBindRsp,0202H
        ARGFRAME ISTACK, 0, STACK
        ARGFRAME PSTACK, 0, STACK
        ARGFRAME XSTACK, 29, STACK
        ARGFRAME IOVERLAY, 0, STATIC
        ARGFRAME DOVERLAY, 0, STATIC
        EXTERN NLME_DirectJoinRequest
        FUNCTION NLME_DirectJoinRequest,0202H
        ARGFRAME ISTACK, 0, STACK
        ARGFRAME PSTACK, 0, STACK
        ARGFRAME XSTACK, 14, STACK
        ARGFRAME IOVERLAY, 0, STATIC
        ARGFRAME DOVERLAY, 0, STATIC
        EXTERN AddrMgrExtAddrValid
        FUNCTION AddrMgrExtAddrValid,0202H
        ARGFRAME ISTACK, 0, STACK
        ARGFRAME PSTACK, 0, STACK
        ARGFRAME XSTACK, 20, STACK
        ARGFRAME IOVERLAY, 0, STATIC
        ARGFRAME DOVERLAY, 0, STATIC
        EXTERN NLME_LeaveReq
        FUNCTION NLME_LeaveReq,0202H
        ARGFRAME ISTACK, 0, STACK
        ARGFRAME PSTACK, 0, STACK
        ARGFRAME XSTACK, 20, STACK
        ARGFRAME IOVERLAY, 0, STATIC
        ARGFRAME DOVERLAY, 0, STATIC
        EXTERN NLME_PermitJoiningRequest
        FUNCTION NLME_PermitJoiningRequest,0202H
        ARGFRAME ISTACK, 0, STACK
        ARGFRAME PSTACK, 0, STACK
        ARGFRAME XSTACK, 13, STACK
        ARGFRAME IOVERLAY, 0, STATIC
        ARGFRAME DOVERLAY, 0, STATIC
        EXTERN osal_nv_read
        FUNCTION osal_nv_read,0202H
        ARGFRAME ISTACK, 0, STACK
        ARGFRAME PSTACK, 0, STACK
        ARGFRAME XSTACK, 33, STACK
        ARGFRAME IOVERLAY, 0, STATIC
        ARGFRAME DOVERLAY, 0, STATIC
        EXTERN ZDP_UserDescRsp
        FUNCTION ZDP_UserDescRsp,0202H
        ARGFRAME ISTACK, 0, STACK
        ARGFRAME PSTACK, 0, STACK
        ARGFRAME XSTACK, 32, STACK
        ARGFRAME IOVERLAY, 0, STATIC
        ARGFRAME DOVERLAY, 0, STATIC
        EXTERN osal_nv_write
        FUNCTION osal_nv_write,0202H
        ARGFRAME ISTACK, 0, STACK
        ARGFRAME PSTACK, 0, STACK
        ARGFRAME XSTACK, 43, STACK
        ARGFRAME IOVERLAY, 0, STATIC
        ARGFRAME DOVERLAY, 0, STATIC
        EXTERN nwkNeighborRemoveAllStranded
        FUNCTION nwkNeighborRemoveAllStranded,0202H
        ARGFRAME ISTACK, 0, STACK
        ARGFRAME PSTACK, 0, STACK
        ARGFRAME XSTACK, 44, STACK
        ARGFRAME IOVERLAY, 0, STATIC
        ARGFRAME DOVERLAY, 0, STATIC
        EXTERN NLME_CheckNewAddrSet
        FUNCTION NLME_CheckNewAddrSet,0202H
        ARGFRAME ISTACK, 0, STACK
        ARGFRAME PSTACK, 0, STACK
        ARGFRAME XSTACK, 44, STACK
        ARGFRAME IOVERLAY, 0, STATIC
        ARGFRAME DOVERLAY, 0, STATIC
        EXTERN NLME_GetCoordExtAddr
        FUNCTION NLME_GetCoordExtAddr,0202H
        ARGFRAME ISTACK, 0, STACK
        ARGFRAME PSTACK, 0, STACK
        ARGFRAME XSTACK, 44, STACK
        ARGFRAME IOVERLAY, 0, STATIC
        ARGFRAME DOVERLAY, 0, STATIC
        EXTERN NLME_GetCoordShortAddr
        FUNCTION NLME_GetCoordShortAddr,0202H
        ARGFRAME ISTACK, 0, STACK
        ARGFRAME PSTACK, 0, STACK
        ARGFRAME XSTACK, 44, STACK
        ARGFRAME IOVERLAY, 0, STATIC
        ARGFRAME DOVERLAY, 0, STATIC
        EXTERN ZMacSetReq
        FUNCTION ZMacSetReq,0202H
        ARGFRAME ISTACK, 0, STACK
        ARGFRAME PSTACK, 0, STACK
        ARGFRAME XSTACK, 44, STACK
        ARGFRAME IOVERLAY, 0, STATIC
        ARGFRAME DOVERLAY, 0, STATIC
        EXTERN nwkNeighborUpdateNwkAddr
        FUNCTION nwkNeighborUpdateNwkAddr,0202H
        ARGFRAME ISTACK, 0, STACK
        ARGFRAME PSTACK, 0, STACK
        ARGFRAME XSTACK, 44, STACK
        ARGFRAME IOVERLAY, 0, STATIC
        ARGFRAME DOVERLAY, 0, STATIC
        EXTERN RTG_RemoveRtgEntry
        FUNCTION RTG_RemoveRtgEntry,0202H
        ARGFRAME ISTACK, 0, STACK
        ARGFRAME PSTACK, 0, STACK
        ARGFRAME XSTACK, 44, STACK
        ARGFRAME IOVERLAY, 0, STATIC
        ARGFRAME DOVERLAY, 0, STATIC
        EXTERN AddrMgrEntryLookupExt
        FUNCTION AddrMgrEntryLookupExt,0202H
        ARGFRAME ISTACK, 0, STACK
        ARGFRAME PSTACK, 0, STACK
        ARGFRAME XSTACK, 44, STACK
        ARGFRAME IOVERLAY, 0, STATIC
        ARGFRAME DOVERLAY, 0, STATIC
        EXTERN APS_SetEndDeviceBindTimeout
        FUNCTION APS_SetEndDeviceBindTimeout,0202H
        ARGFRAME ISTACK, 0, STACK
        ARGFRAME PSTACK, 0, STACK
        ARGFRAME XSTACK, 39, STACK
        ARGFRAME IOVERLAY, 0, STATIC
        ARGFRAME DOVERLAY, 0, STATIC
        EXTERN ZDP_BindUnbindReq
        FUNCTION ZDP_BindUnbindReq,0202H
        ARGFRAME ISTACK, 0, STACK
        ARGFRAME PSTACK, 0, STACK
        ARGFRAME XSTACK, 47, STACK
        ARGFRAME IOVERLAY, 0, STATIC
        ARGFRAME DOVERLAY, 0, STATIC
        EXTERN ??APSME_BindRequest?relay
        FUNCTION ??APSME_BindRequest?relay,00H
        EXTERN ??APSME_GetRequest?relay
        FUNCTION ??APSME_GetRequest?relay,00H
        EXTERN ??APSME_LookupNwkAddr?relay
        FUNCTION ??APSME_LookupNwkAddr?relay,00H
        EXTERN ??APSME_UnBindRequest?relay
        FUNCTION ??APSME_UnBindRequest?relay,00H
        EXTERN ??APS_ReflectorInit?relay
        FUNCTION ??APS_ReflectorInit?relay,00H
        EXTERN ??APS_SetEndDeviceBindTimeout?relay
        FUNCTION ??APS_SetEndDeviceBindTimeout?relay,00H
        EXTERN ??AddrMgrEntryLookupExt?relay
        FUNCTION ??AddrMgrEntryLookupExt?relay,00H
        EXTERN ??AddrMgrEntryLookupNwk?relay
        FUNCTION ??AddrMgrEntryLookupNwk?relay,00H
        EXTERN ??AddrMgrEntryUpdate?relay
        FUNCTION ??AddrMgrEntryUpdate?relay,00H
        EXTERN ??AddrMgrExtAddrSet?relay
        FUNCTION ??AddrMgrExtAddrSet?relay,00H
        EXTERN ??AddrMgrExtAddrValid?relay
        FUNCTION ??AddrMgrExtAddrValid?relay,00H
        EXTERN ??AssocCount?relay
        FUNCTION ??AssocCount?relay,00H
        EXTERN ??AssocFindDevice?relay
        FUNCTION ??AssocFindDevice?relay,00H
        EXTERN ??NLME_CheckNewAddrSet?relay
        FUNCTION ??NLME_CheckNewAddrSet?relay,00H
        EXTERN ??NLME_DeviceJoiningInit?relay
        FUNCTION ??NLME_DeviceJoiningInit?relay,00H
        EXTERN ??NLME_DirectJoinRequest?relay
        FUNCTION ??NLME_DirectJoinRequest?relay,00H
        EXTERN ??NLME_GetCoordExtAddr?relay
        FUNCTION ??NLME_GetCoordExtAddr?relay,00H
        EXTERN ??NLME_GetCoordShortAddr?relay
        FUNCTION ??NLME_GetCoordShortAddr?relay,00H
        EXTERN ??NLME_GetExtAddr?relay
        FUNCTION ??NLME_GetExtAddr?relay,00H
        EXTERN ??NLME_GetRequest?relay
        FUNCTION ??NLME_GetRequest?relay,00H
        EXTERN ??NLME_GetShortAddr?relay
        FUNCTION ??NLME_GetShortAddr?relay,00H
        EXTERN ??NLME_IsAddressBroadcast?relay
        FUNCTION ??NLME_IsAddressBroadcast?relay,00H
        EXTERN ??NLME_LeaveReq?relay
        FUNCTION ??NLME_LeaveReq?relay,00H
        EXTERN ??NLME_NetworkDiscoveryRequest?relay
        FUNCTION ??NLME_NetworkDiscoveryRequest?relay,00H
        EXTERN ??NLME_NwkDiscReq2?relay
        FUNCTION ??NLME_NwkDiscReq2?relay,00H
        EXTERN ??NLME_NwkDiscTerm?relay
        FUNCTION ??NLME_NwkDiscTerm?relay,00H
        EXTERN ??NLME_OrphanJoinRequest?relay
        FUNCTION ??NLME_OrphanJoinRequest?relay,00H
        EXTERN ??NLME_PermitJoiningRequest?relay
        FUNCTION ??NLME_PermitJoiningRequest?relay,00H
        EXTERN ??RTG_RemoveRtgEntry?relay
        FUNCTION ??RTG_RemoveRtgEntry?relay,00H
        EXTERN ??ZDApp_NVUpdate?relay
        FUNCTION ??ZDApp_NVUpdate?relay,00H
        EXTERN ??ZDP_BindUnbindReq?relay
        FUNCTION ??ZDP_BindUnbindReq?relay,00H
        EXTERN ??ZDP_EPRsp?relay
        FUNCTION ??ZDP_EPRsp?relay,00H
        EXTERN ??ZDP_GenericRsp?relay
        FUNCTION ??ZDP_GenericRsp?relay,00H
        EXTERN ??ZDP_MgmtBindRsp?relay
        FUNCTION ??ZDP_MgmtBindRsp?relay,00H
        EXTERN ??ZDP_MgmtLqiRsp?relay
        FUNCTION ??ZDP_MgmtLqiRsp?relay,00H
        EXTERN ??ZDP_MgmtRtgRsp?relay
        FUNCTION ??ZDP_MgmtRtgRsp?relay,00H
        EXTERN ??ZDP_NodeDescMsg?relay
        FUNCTION ??ZDP_NodeDescMsg?relay,00H
        EXTERN ??ZDP_NwkAddrReq?relay
        FUNCTION ??ZDP_NwkAddrReq?relay,00H
        EXTERN ??ZDP_PowerDescMsg?relay
        FUNCTION ??ZDP_PowerDescMsg?relay,00H
        EXTERN ??ZDP_SendData?relay
        FUNCTION ??ZDP_SendData?relay,00H
        EXTERN ??ZDP_ServerDiscRsp?relay
        FUNCTION ??ZDP_ServerDiscRsp?relay,00H
        EXTERN ??ZDP_SimpleDescMsg?relay
        FUNCTION ??ZDP_SimpleDescMsg?relay,00H
        EXTERN ??ZDP_UserDescRsp?relay
        FUNCTION ??ZDP_UserDescRsp?relay,00H
        EXTERN ??ZMacSetReq?relay
        FUNCTION ??ZMacSetReq?relay,00H
        EXTERN ??afEndPoints?relay
        FUNCTION ??afEndPoints?relay,00H
        EXTERN ??afFindSimpleDesc?relay
        FUNCTION ??afFindSimpleDesc?relay,00H
        EXTERN ??afNumEndPoints?relay
        FUNCTION ??afNumEndPoints?relay,00H
        EXTERN ??nwkNeighborRemoveAllStranded?relay
        FUNCTION ??nwkNeighborRemoveAllStranded?relay,00H
        EXTERN ??nwkNeighborUpdateNwkAddr?relay
        FUNCTION ??nwkNeighborUpdateNwkAddr?relay,00H
        EXTERN ??nwk_ScanJoiningOrphan?relay
        FUNCTION ??nwk_ScanJoiningOrphan?relay,00H
        EXTERN ??osal_build_uint32?relay
        FUNCTION ??osal_build_uint32?relay,00H
        EXTERN ??osal_mem_alloc?relay
        FUNCTION ??osal_mem_alloc?relay,00H
        EXTERN ??osal_mem_free?relay
        FUNCTION ??osal_mem_free?relay,00H
        EXTERN ??osal_memcpy?relay
        FUNCTION ??osal_memcpy?relay,00H
        EXTERN ??osal_memset?relay
        FUNCTION ??osal_memset?relay,00H
        EXTERN ??osal_msg_allocate?relay
        FUNCTION ??osal_msg_allocate?relay,00H
        EXTERN ??osal_msg_find?relay
        FUNCTION ??osal_msg_find?relay,00H
        EXTERN ??osal_msg_send?relay
        FUNCTION ??osal_msg_send?relay,00H
        EXTERN ??osal_nv_read?relay
        FUNCTION ??osal_nv_read?relay,00H
        EXTERN ??osal_nv_write?relay
        FUNCTION ??osal_nv_write?relay,00H
        EXTERN ??osal_set_event?relay
        FUNCTION ??osal_set_event?relay,00H
        EXTERN ??osal_start_timerEx?relay
        FUNCTION ??osal_start_timerEx?relay,00H
        EXTERN ??sAddrExtCmp?relay
        FUNCTION ??sAddrExtCmp?relay,00H
        EXTERN ??sAddrExtCpy?relay
        FUNCTION ??sAddrExtCpy?relay,00H
        EXTERN AIB_MaxBindingTime
        EXTERN AIB_apsUseExtendedPANID
        EXTERN ZDAppNwkAddr
        EXTERN ZDAppTaskID
        EXTERN ZDO_Config_Node_Descriptor
        EXTERN ZDO_Config_Power_Descriptor
        EXTERN ZDO_UseExtendedPANID
        EXTERN ZDP_TransID
        EXTERN _NIB
        EXTERN devState
        EXTERN epList
        EXTERN zdappMgmtNwkDiscReqInProgress
        EXTERN zdappMgmtNwkDiscRspAddr
        EXTERN zdappMgmtNwkDiscRspTransSeq
        EXTERN zdappMgmtNwkDiscStartIndex
        EXTERN zgDefaultChannelList
        EXTERN zgDefaultStartingScanDuration
        EXTERN zgDeviceLogicalType

// C:\Texas Instruments\ZStack-CC2530-2.5.1a\Components\stack\zdo\ZDObject.c
//    1 /**************************************************************************************************
//    2   Filename:       ZDObject.c
//    3   Revised:        $Date: 2011-07-13 10:55:53 -0700 (Wed, 13 Jul 2011) $
//    4   Revision:       $Revision: 26766 $
//    5 
//    6   Description:    This is the Zigbee Device Object.
//    7 
//    8 
//    9   Copyright 2004-2011 Texas Instruments Incorporated. All rights reserved.
//   10 
//   11   IMPORTANT: Your use of this Software is limited to those specific rights
//   12   granted under the terms of a software license agreement between the user
//   13   who downloaded the software, his/her employer (which must be your employer)
//   14   and Texas Instruments Incorporated (the "License"). You may not use this
//   15   Software unless you agree to abide by the terms of the License. The License
//   16   limits your use, and you acknowledge, that the Software may not be modified,
//   17   copied or distributed unless embedded on a Texas Instruments microcontroller
//   18   or used solely and exclusively in conjunction with a Texas Instruments radio
//   19   frequency transceiver, which is integrated into your product. Other than for
//   20   the foregoing purpose, you may not use, reproduce, copy, prepare derivative
//   21   works of, modify, distribute, perform, display or sell this Software and/or
//   22   its documentation for any purpose.
//   23 
//   24   YOU FURTHER ACKNOWLEDGE AND AGREE THAT THE SOFTWARE AND DOCUMENTATION ARE
//   25   PROVIDED AS IS WITHOUT WARRANTY OF ANY KIND, EITHER EXPRESS OR IMPLIED,
//   26   INCLUDING WITHOUT LIMITATION, ANY WARRANTY OF MERCHANTABILITY, TITLE,
//   27   NON-INFRINGEMENT AND FITNESS FOR A PARTICULAR PURPOSE. IN NO EVENT SHALL
//   28   TEXAS INSTRUMENTS OR ITS LICENSORS BE LIABLE OR OBLIGATED UNDER CONTRACT,
//   29   NEGLIGENCE, STRICT LIABILITY, CONTRIBUTION, BREACH OF WARRANTY, OR OTHER
//   30   LEGAL EQUITABLE THEORY ANY DIRECT OR INDIRECT DAMAGES OR EXPENSES
//   31   INCLUDING BUT NOT LIMITED TO ANY INCIDENTAL, SPECIAL, INDIRECT, PUNITIVE
//   32   OR CONSEQUENTIAL DAMAGES, LOST PROFITS OR LOST DATA, COST OF PROCUREMENT
//   33   OF SUBSTITUTE GOODS, TECHNOLOGY, SERVICES, OR ANY CLAIMS BY THIRD PARTIES
//   34   (INCLUDING BUT NOT LIMITED TO ANY DEFENSE THEREOF), OR OTHER SIMILAR COSTS.
//   35 
//   36   Should you have any questions regarding your right to use this Software,
//   37   contact Texas Instruments Incorporated at www.TI.com.
//   38 **************************************************************************************************/
//   39 
//   40 /*********************************************************************
//   41  * INCLUDES
//   42  */
//   43 #include "ZComdef.h"
//   44 #include "OSAL.h"
//   45 #include "OSAL_Nv.h"
//   46 #include "rtg.h"
//   47 #include "NLMEDE.h"
//   48 #include "nwk_globals.h"
//   49 #include "APS.h"
//   50 #include "APSMEDE.h"
//   51 #include "AssocList.h"
//   52 #include "BindingTable.h"
//   53 #include "AddrMgr.h"
//   54 #include "AF.h"
//   55 #include "ZDObject.h"
//   56 #include "ZDProfile.h"
//   57 #include "ZDConfig.h"
//   58 #include "ZDSecMgr.h"
//   59 #include "ZDApp.h"
//   60 #include "nwk_util.h"   // NLME_IsAddressBroadcast()
//   61 #include "ZGlobals.h"
//   62 #if defined MT_ZDO_CB_FUNC
//   63 #include "MT.h"
//   64 #endif
//   65 
//   66 #if defined( LCD_SUPPORTED )
//   67   #include "OnBoard.h"
//   68 #endif
//   69 
//   70 /* HAL */
//   71 #include "hal_lcd.h"
//   72 
//   73 /*********************************************************************
//   74  * MACROS
//   75  */
//   76 
//   77 /*********************************************************************
//   78  * CONSTANTS
//   79  */
//   80 // NLME Stub Implementations
//   81 #define ZDO_ProcessMgmtPermitJoinTimeout NLME_PermitJoiningTimeout
//   82 
//   83 // Status fields used by ZDO_ProcessMgmtRtgReq
//   84 #define ZDO_MGMT_RTG_ENTRY_ACTIVE             0x00
//   85 #define ZDO_MGMT_RTG_ENTRY_DISCOVERY_UNDERWAY 0x01
//   86 #define ZDO_MGMT_RTG_ENTRY_DISCOVERY_FAILED   0x02
//   87 #define ZDO_MGMT_RTG_ENTRY_INACTIVE           0x03
//   88 
//   89 /*********************************************************************
//   90  * TYPEDEFS
//   91  */
//   92 #if defined ( REFLECTOR )
//   93 typedef struct
//   94 {
//   95   byte SrcTransSeq;
//   96   zAddrType_t SrcAddr;
//   97   uint16 LocalCoordinator;
//   98   byte epIntf;
//   99   uint16 ProfileID;
//  100   byte numInClusters;
//  101   uint16 *inClusters;
//  102   byte numOutClusters;
//  103   uint16 *outClusters;
//  104   byte SecurityUse;
//  105   byte status;
//  106 } ZDO_EDBind_t;
//  107 #endif // defined ( REFLECTOR )
//  108 
//  109 enum
//  110 {
//  111   ZDMATCH_INIT,           // Initialized
//  112   ZDMATCH_WAIT_REQ,       // Received first request, waiting for second
//  113   ZDMATCH_SENDING_BINDS   // Received both requests, sending unbind/binds
//  114 };
//  115 
//  116 enum
//  117 {
//  118   ZDMATCH_SENDING_NOT,
//  119   ZDMATCH_SENDING_UNBIND,
//  120   ZDMATCH_SENDING_BIND
//  121 };
//  122 
//  123 /*********************************************************************
//  124  * GLOBAL VARIABLES
//  125  */
//  126 
//  127 /*********************************************************************
//  128  * EXTERNAL VARIABLES
//  129  */
//  130 
//  131 /*********************************************************************
//  132  * EXTERNAL FUNCTIONS
//  133  */
//  134 
//  135 /*********************************************************************
//  136  * LOCAL VARIABLES
//  137  */

        RSEG XDATA_Z:XDATA:NOROOT(0)
        DATA8
//  138 static uint16 ZDOBuildBuf[26];  // temp area to build data without allocation
ZDOBuildBuf:
        DS 52
        REQUIRE __INIT_XDATA_Z
//  139 
//  140 #if defined ( REFLECTOR )

        RSEG XDATA_Z:XDATA:NOROOT(0)
        DATA16
//  141 static ZDO_EDBind_t *ZDO_EDBind;     // Null when not used
ZDO_EDBind:
        DS 2
        REQUIRE __INIT_XDATA_Z
//  142 #endif
//  143 
//  144 #if defined ( MANAGED_SCAN )
//  145   uint32 managedScanNextChannel = 0;
//  146   uint32 managedScanChannelMask = 0;
//  147   uint8  managedScanTimesPerChannel = 0;
//  148 #endif
//  149 

        RSEG XDATA_Z:XDATA:NOROOT(0)
        DATA16
//  150 ZDMatchEndDeviceBind_t *matchED = (ZDMatchEndDeviceBind_t *)NULL;
matchED:
        DS 2
        REQUIRE __INIT_XDATA_Z
//  151 

        RSEG XDATA_Z:XDATA:NOROOT(0)
        DATA32
//  152 uint32 apsChannelMask = 0;
apsChannelMask:
        DS 4
        REQUIRE __INIT_XDATA_Z
//  153 
//  154 /*********************************************************************
//  155  * LOCAL FUNCTIONS
//  156  */
//  157 static void ZDODeviceSetup( void );
//  158 #if defined ( MANAGED_SCAN )
//  159   static void ZDOManagedScan_Next( void );
//  160 #endif
//  161 #if defined ( REFLECTOR )
//  162   static void ZDO_RemoveEndDeviceBind( void );
//  163   static void ZDO_SendEDBindRsp( byte TransSeq, zAddrType_t *dstAddr, byte Status, byte secUse );
//  164 #endif
//  165 static byte ZDO_CompareClusterLists( byte numList1, uint16 *list1,
//  166                                 byte numList2, uint16 *list2, uint16 *pMatches );
//  167 static void ZDO_RemoveMatchMemory( void );
//  168 static uint8 ZDO_CopyMatchInfo( ZDEndDeviceBind_t *destReq, ZDEndDeviceBind_t *srcReq );
//  169 static void ZDO_EndDeviceBindMatchTimeoutCB( void );
//  170 uint8 *ZDO_ConvertOTAClusters( uint8 cnt, uint8 *inBuf, uint16 *outList );
//  171 static void zdoSendStateChangeMsg(uint8 state, uint8 taskId);
//  172 
//  173 /*********************************************************************
//  174  * @fn          ZDO_Init
//  175  *
//  176  * @brief       ZDObject and ZDProfile initialization.
//  177  *
//  178  * @param       none
//  179  *
//  180  * @return      none
//  181  */

        RSEG BANKED_CODE:CODE:NOROOT(0)
//  182 void ZDO_Init( void )
ZDO_Init:
        CFI Block cfiBlock0 Using cfiCommon0
        CFI Function ZDO_Init
        CODE
//  183 {
        FUNCALL ZDO_Init, sAddrExtCpy
        LOCFRAME ISTACK, 2, STACK
        LOCFRAME PSTACK, 0, STACK
        LOCFRAME XSTACK, 0, STACK
        LOCFRAME IOVERLAY, 0, STATIC
        LOCFRAME DOVERLAY, 0, STATIC
        ARGFRAME ISTACK, 2, STACK
        ARGFRAME PSTACK, 0, STACK
        ARGFRAME XSTACK, 0, STACK
        ARGFRAME IOVERLAY, 0, STATIC
        ARGFRAME DOVERLAY, 0, STATIC
        FUNCALL ZDO_Init, ZDODeviceSetup
        LOCFRAME ISTACK, 2, STACK
        LOCFRAME PSTACK, 0, STACK
        LOCFRAME XSTACK, 0, STACK
        LOCFRAME IOVERLAY, 0, STATIC
        LOCFRAME DOVERLAY, 0, STATIC
        ARGFRAME ISTACK, 2, STACK
        ARGFRAME PSTACK, 0, STACK
        ARGFRAME XSTACK, 0, STACK
        ARGFRAME IOVERLAY, 0, STATIC
        ARGFRAME DOVERLAY, 0, STATIC
        PUSH    DPL
        CFI DPL0 Frame(CFA_SP, 4)
        CFI CFA_SP SP+-4
        PUSH    DPH
        CFI DPH0 Frame(CFA_SP, 5)
        CFI CFA_SP SP+-5
        ; Saved register size: 2
        ; Auto size: 0
//  184   // Initialize ZD items
//  185   #if defined ( REFLECTOR )
//  186   ZDO_EDBind = NULL;
        MOV     DPTR,#ZDO_EDBind
        MOV     A,#0x0
        MOVX    @DPTR,A
        INC     DPTR
        MOV     A,#0x0
        MOVX    @DPTR,A
//  187   #endif
//  188 
//  189   // Initialize default ZDO_UseExtendedPANID to the APS one.
//  190   osal_cpyExtAddr( ZDO_UseExtendedPANID, AIB_apsUseExtendedPANID );
        ; Setup parameters for call to function sAddrExtCpy
        MOV     R4,#AIB_apsUseExtendedPANID & 0xff
        MOV     R5,#(AIB_apsUseExtendedPANID >> 8) & 0xff
        MOV     R2,#ZDO_UseExtendedPANID & 0xff
        MOV     R3,#(ZDO_UseExtendedPANID >> 8) & 0xff
        LCALL   ??sAddrExtCpy?relay
//  191 
//  192   // Setup the device - type of device to create.
//  193   ZDODeviceSetup();
        ; Setup parameters for call to function ZDODeviceSetup
        LCALL   ??ZDODeviceSetup?relay
//  194 }
        POP     DPH
        CFI DPH0 SameValue
        CFI CFA_SP SP+-4
        POP     DPL
        CFI DPL0 SameValue
        CFI CFA_SP SP+-3
        LJMP    ?BRET
        CFI EndBlock cfiBlock0
//  195 
//  196 #if defined ( MANAGED_SCAN )
//  197 /*********************************************************************
//  198  * @fn      ZDOManagedScan_Next()
//  199  *
//  200  * @brief   Setup a managed scan.
//  201  *
//  202  * @param   none
//  203  *
//  204  * @return  none
//  205  */
//  206 static void ZDOManagedScan_Next( void )
//  207 {
//  208   // Is it the first time
//  209   if ( managedScanNextChannel == 0 && managedScanTimesPerChannel == 0 )
//  210   {
//  211     // Setup the defaults
//  212     managedScanNextChannel  = 1;
//  213 
//  214     while( managedScanNextChannel && (zgDefaultChannelList & managedScanNextChannel) == 0 )
//  215       managedScanNextChannel <<= 1;
//  216 
//  217     managedScanChannelMask = managedScanNextChannel;
//  218     managedScanTimesPerChannel = MANAGEDSCAN_TIMES_PRE_CHANNEL;
//  219   }
//  220   else
//  221   {
//  222     // Do we need to go to the next channel
//  223     if ( managedScanTimesPerChannel == 0 )
//  224     {
//  225       // Find next active channel
//  226       managedScanChannelMask  = managedScanNextChannel;
//  227       managedScanTimesPerChannel = MANAGEDSCAN_TIMES_PRE_CHANNEL;
//  228     }
//  229     else
//  230     {
//  231       managedScanTimesPerChannel--;
//  232 
//  233       if ( managedScanTimesPerChannel == 0 )
//  234       {
//  235         managedScanNextChannel  <<= 1;
//  236         while( managedScanNextChannel && (zgDefaultChannelList & managedScanNextChannel) == 0 )
//  237           managedScanNextChannel <<= 1;
//  238 
//  239         if ( managedScanNextChannel == 0 )
//  240           zdoDiscCounter  = NUM_DISC_ATTEMPTS + 1; // Stop
//  241       }
//  242     }
//  243   }
//  244 }
//  245 #endif // MANAGED_SCAN
//  246 
//  247 /*********************************************************************
//  248  * @fn      ZDODeviceSetup()
//  249  *
//  250  * @brief   Call set functions depending on the type of device compiled.
//  251  *
//  252  * @param   none
//  253  *
//  254  * @return  none
//  255  */

        RSEG BANKED_CODE:CODE:NOROOT(0)
//  256 static void ZDODeviceSetup( void )
ZDODeviceSetup:
        CFI Block cfiBlock1 Using cfiCommon0
        CFI Function ZDODeviceSetup
        CODE
//  257 {
        FUNCALL ZDODeviceSetup, APS_ReflectorInit
        LOCFRAME ISTACK, 2, STACK
        LOCFRAME PSTACK, 0, STACK
        LOCFRAME XSTACK, 0, STACK
        LOCFRAME IOVERLAY, 0, STATIC
        LOCFRAME DOVERLAY, 0, STATIC
        ARGFRAME ISTACK, 2, STACK
        ARGFRAME PSTACK, 0, STACK
        ARGFRAME XSTACK, 0, STACK
        ARGFRAME IOVERLAY, 0, STATIC
        ARGFRAME DOVERLAY, 0, STATIC
        FUNCALL ZDODeviceSetup, NLME_DeviceJoiningInit
        LOCFRAME ISTACK, 2, STACK
        LOCFRAME PSTACK, 0, STACK
        LOCFRAME XSTACK, 0, STACK
        LOCFRAME IOVERLAY, 0, STATIC
        LOCFRAME DOVERLAY, 0, STATIC
        ARGFRAME ISTACK, 2, STACK
        ARGFRAME PSTACK, 0, STACK
        ARGFRAME XSTACK, 0, STACK
        ARGFRAME IOVERLAY, 0, STATIC
        ARGFRAME DOVERLAY, 0, STATIC
        PUSH    DPL
        CFI DPL0 Frame(CFA_SP, 4)
        CFI CFA_SP SP+-4
        PUSH    DPH
        CFI DPH0 Frame(CFA_SP, 5)
        CFI CFA_SP SP+-5
        ; Saved register size: 2
        ; Auto size: 0
//  258   if ( ZG_BUILD_COORDINATOR_TYPE )
//  259   {
//  260     NLME_CoordinatorInit();
//  261   }
//  262 
//  263 #if defined ( REFLECTOR )
//  264   APS_ReflectorInit( (ZG_DEVICE_COORDINATOR_TYPE) ? APS_REFLECTOR_PUBLIC :  APS_REFLECTOR_PRIVATE );
        MOV     DPTR,#zgDeviceLogicalType
        MOVX    A,@DPTR
        JNZ     ??ZDODeviceSetup_0
        MOV     R1,#0x0
        SJMP    ??ZDODeviceSetup_1
??ZDODeviceSetup_0:
        MOV     R1,#0x1
??ZDODeviceSetup_1:
        ; Setup parameters for call to function APS_ReflectorInit
        LCALL   ??APS_ReflectorInit?relay
//  265 #endif
//  266 
//  267   if ( ZG_BUILD_JOINING_TYPE )
//  268   {
//  269     NLME_DeviceJoiningInit();
        ; Setup parameters for call to function NLME_DeviceJoiningInit
        LCALL   ??NLME_DeviceJoiningInit?relay
//  270   }
//  271 }
        POP     DPH
        CFI DPH0 SameValue
        CFI CFA_SP SP+-4
        POP     DPL
        CFI DPL0 SameValue
        CFI CFA_SP SP+-3
        LJMP    ?BRET
        CFI EndBlock cfiBlock1
//  272 
//  273 /*********************************************************************
//  274  * @fn          ZDO_StartDevice
//  275  *
//  276  * @brief       This function starts a device in a network.
//  277  *
//  278  * @param       logicalType     - Device type to start
//  279  *              startMode       - indicates mode of device startup
//  280  *              beaconOrder     - indicates time betwen beacons
//  281  *              superframeOrder - indicates length of active superframe
//  282  *
//  283  * @return      none
//  284  */

        RSEG BANKED_CODE:CODE:NOROOT(0)
//  285 void ZDO_StartDevice( byte logicalType, devStartModes_t startMode, byte beaconOrder, byte superframeOrder )
ZDO_StartDevice:
        CFI Block cfiBlock2 Using cfiCommon0
        CFI Function ZDO_StartDevice
        CODE
//  286 {
        FUNCALL ZDO_StartDevice, NLME_NetworkDiscoveryRequest
        LOCFRAME ISTACK, 0, STACK
        LOCFRAME PSTACK, 0, STACK
        LOCFRAME XSTACK, 22, STACK
        LOCFRAME IOVERLAY, 0, STATIC
        LOCFRAME DOVERLAY, 0, STATIC
        ARGFRAME ISTACK, 0, STACK
        ARGFRAME PSTACK, 0, STACK
        ARGFRAME XSTACK, 22, STACK
        ARGFRAME IOVERLAY, 0, STATIC
        ARGFRAME DOVERLAY, 0, STATIC
        FUNCALL ZDO_StartDevice, nwk_ScanJoiningOrphan
        LOCFRAME ISTACK, 0, STACK
        LOCFRAME PSTACK, 0, STACK
        LOCFRAME XSTACK, 22, STACK
        LOCFRAME IOVERLAY, 0, STATIC
        LOCFRAME DOVERLAY, 0, STATIC
        ARGFRAME ISTACK, 0, STACK
        ARGFRAME PSTACK, 0, STACK
        ARGFRAME XSTACK, 22, STACK
        ARGFRAME IOVERLAY, 0, STATIC
        ARGFRAME DOVERLAY, 0, STATIC
        FUNCALL ZDO_StartDevice, NLME_OrphanJoinRequest
        LOCFRAME ISTACK, 0, STACK
        LOCFRAME PSTACK, 0, STACK
        LOCFRAME XSTACK, 22, STACK
        LOCFRAME IOVERLAY, 0, STATIC
        LOCFRAME DOVERLAY, 0, STATIC
        ARGFRAME ISTACK, 0, STACK
        ARGFRAME PSTACK, 0, STACK
        ARGFRAME XSTACK, 22, STACK
        ARGFRAME IOVERLAY, 0, STATIC
        ARGFRAME DOVERLAY, 0, STATIC
        FUNCALL ZDO_StartDevice, osal_start_timerEx
        LOCFRAME ISTACK, 0, STACK
        LOCFRAME PSTACK, 0, STACK
        LOCFRAME XSTACK, 22, STACK
        LOCFRAME IOVERLAY, 0, STATIC
        LOCFRAME DOVERLAY, 0, STATIC
        ARGFRAME ISTACK, 0, STACK
        ARGFRAME PSTACK, 0, STACK
        ARGFRAME XSTACK, 22, STACK
        ARGFRAME IOVERLAY, 0, STATIC
        ARGFRAME DOVERLAY, 0, STATIC
        MOV     A,#-0xb
        LCALL   ?BANKED_ENTER_XDATA
        CFI DPH0 load(1, XDATA, add(CFA_XSP16, literal(-1)))
        CFI DPL0 load(1, XDATA, add(CFA_XSP16, literal(-2)))
        CFI ?BRET_EXT load(1, XDATA, add(CFA_XSP16, literal(-3)))
        CFI ?RET_HIGH load(1, XDATA, add(CFA_XSP16, literal(-4)))
        CFI ?RET_LOW load(1, XDATA, add(CFA_XSP16, literal(-5)))
        CFI R7 load(1, XDATA, add(CFA_XSP16, literal(-6)))
        CFI V2 load(1, XDATA, add(CFA_XSP16, literal(-7)))
        CFI V1 load(1, XDATA, add(CFA_XSP16, literal(-8)))
        CFI V0 load(1, XDATA, add(CFA_XSP16, literal(-9)))
        CFI VB load(1, XDATA, add(CFA_XSP16, literal(-10)))
        CFI R6 load(1, XDATA, add(CFA_XSP16, literal(-11)))
        CFI CFA_SP SP+0
        CFI CFA_XSP16 add(XSP16, 11)
        ; Saved register size: 11
        ; Auto size: 11
        MOV     A,#-0xb
        LCALL   ?ALLOC_XSTACK8
        CFI CFA_XSP16 add(XSP16, 22)
        MOV     A,R1
        MOV     R6,A
        MOV     A,R2
        MOV     R7,A
        MOV     ?V0 + 0,R3
        MOV     ?V0 + 1,R4
//  287   ZStatus_t ret;
//  288 #if defined ( ZIGBEE_FREQ_AGILITY )
//  289   static uint8 discRetries = 0;
//  290 #endif
//  291 #if defined ( ZIGBEE_COMMISSIONING )
//  292   static uint8 scanCnt = 0;
//  293 #endif
//  294 
//  295   ret = ZUnsupportedMode;
        MOV     ?V0 + 2,#0x12
//  296 
//  297   if ( ZG_BUILD_COORDINATOR_TYPE && logicalType == NODETYPE_COORDINATOR )
//  298   {
//  299     if ( startMode == MODE_HARD )
//  300     {
//  301       devState = DEV_COORD_STARTING;
//  302       ret = NLME_NetworkFormationRequest( zgConfigPANID, zgApsUseExtendedPANID, zgDefaultChannelList,
//  303                                           zgDefaultStartingScanDuration, beaconOrder,
//  304                                           superframeOrder, false );
//  305     }
//  306     else if ( startMode == MODE_RESUME )
//  307     {
//  308       // Just start the coordinator
//  309       devState = DEV_COORD_STARTING;
//  310       ret = NLME_StartRouterRequest( beaconOrder, beaconOrder, false );
//  311     }
//  312     else
//  313     {
//  314 #if defined( LCD_SUPPORTED )
//  315       HalLcdWriteScreen( "StartDevice ERR", "MODE unknown" );
//  316 #endif
//  317     }
//  318   }
//  319 
//  320   if ( ZG_BUILD_JOINING_TYPE && (logicalType == NODETYPE_ROUTER || logicalType == NODETYPE_DEVICE) )
        MOV     A,#0x1
        XRL     A,R6
        JZ      ??ZDO_StartDevice_0
        MOV     A,#0x2
        XRL     A,R6
        JZ      $+5
        LJMP    ??ZDO_StartDevice_1 & 0xFFFF
//  321   {
//  322     if ( (startMode == MODE_JOIN) || (startMode == MODE_REJOIN) )
??ZDO_StartDevice_0:
        MOV     A,R7
        JZ      ??ZDO_StartDevice_2
        MOV     A,#0x3
        XRL     A,R7
        JNZ     ??ZDO_StartDevice_3
//  323     {
//  324       devState = DEV_NWK_DISC;
??ZDO_StartDevice_2:
        MOV     DPTR,#devState
        MOV     A,#0x2
        MOVX    @DPTR,A
//  325 
//  326   #if defined( MANAGED_SCAN )
//  327       ZDOManagedScan_Next();
//  328       ret = NLME_NetworkDiscoveryRequest( managedScanChannelMask, BEACON_ORDER_15_MSEC );
//  329   #else
//  330       ret = NLME_NetworkDiscoveryRequest( zgDefaultChannelList, zgDefaultStartingScanDuration );
        ; Setup parameters for call to function NLME_NetworkDiscoveryRequest
        MOV     DPTR,#zgDefaultStartingScanDuration
        MOVX    A,@DPTR
        MOV     R1,A
        MOV     DPTR,#zgDefaultChannelList
        LCALL   ?XLOAD_R2345
        LCALL   ??NLME_NetworkDiscoveryRequest?relay
        MOV     A,R1
        MOV     ?V0 + 2,A
//  331     #if defined ( ZIGBEE_FREQ_AGILITY )
//  332       if ( !( ZDO_Config_Node_Descriptor.CapabilityFlags & CAPINFO_RCVR_ON_IDLE ) &&
//  333             ( ret == ZSuccess ) && ( ++discRetries == 4 ) )
//  334       {
//  335         // For devices with RxOnWhenIdle equals to FALSE, any network channel
//  336         // change will not be recieved. On these devices or routers that have
//  337         // lost the network, an active scan shall be conducted on the Default
//  338         // Channel list using the extended PANID to find the network. If the
//  339         // extended PANID isn't found using the Default Channel list, an scan
//  340         // should be completed using all channels.
//  341         zgDefaultChannelList = MAX_CHANNELS_24GHZ;
//  342       }
//  343     #endif // ZIGBEE_FREQ_AGILITY
//  344     #if defined ( ZIGBEE_COMMISSIONING )
//  345       if (startMode == MODE_REJOIN && scanCnt++ >= 5 )
        MOV     A,#0x3
        XRL     A,R7
        JNZ     ??ZDO_StartDevice_1
        MOV     DPTR,#??scanCnt
        MOVX    A,@DPTR
        MOV     R0,A
        MOV     A,#0x1
        ADD     A,R0
        MOV     DPTR,#??scanCnt
        MOVX    @DPTR,A
        MOV     A,R0
        CLR     C
        SUBB    A,#0x5
        JC      ??ZDO_StartDevice_1
//  346       {
//  347         // When ApsUseExtendedPanID is commissioned to a non zero value via
//  348         // application specific means, the device shall conduct an active scan
//  349         // on the Default Channel list and join the PAN with the same
//  350         // ExtendedPanID. If the PAN is not found, an scan should be completed
//  351         // on all channels.
//  352         // When devices rejoin the network and the PAN is not found from
//  353         zgDefaultChannelList = MAX_CHANNELS_24GHZ;
        MOV     DPTR,#__Constant_7fff800
        LCALL   ?XLOAD_R2345
        MOV     DPTR,#zgDefaultChannelList
        LCALL   ?XSTORE_R2345
        SJMP    ??ZDO_StartDevice_1
//  354       }
//  355     #endif // ZIGBEE_COMMISSIONING
//  356   #endif
//  357     }
//  358     else if ( startMode == MODE_RESUME )
??ZDO_StartDevice_3:
        MOV     A,#0x1
        XRL     A,R7
        JNZ     ??ZDO_StartDevice_1
//  359     {
//  360       if ( logicalType == NODETYPE_ROUTER )
        MOV     A,#0x1
        XRL     A,R6
        JNZ     ??ZDO_StartDevice_4
//  361       {
//  362         ZMacScanCnf_t scanCnf;
//  363         devState = DEV_NWK_ORPHAN;
        MOV     DPTR,#devState
        MOV     A,#0xa
        MOVX    @DPTR,A
//  364 
//  365         /* if router and nvram is available, fake successful orphan scan */
//  366         scanCnf.hdr.Status = ZSUCCESS;
        MOV     A,#0x1
        LCALL   ?XSTACK_DISP0_8
        MOV     A,#0x0
        MOVX    @DPTR,A
//  367         scanCnf.ScanType = ZMAC_ORPHAN_SCAN;
        MOV     A,#0x2
        LCALL   ?XSTACK_DISP0_8
        MOV     A,#0x3
        MOVX    @DPTR,A
//  368         scanCnf.UnscannedChannels = 0;
        MOV     DPTR,#__Constant_0
        LCALL   ?XLOAD_R2345
        MOV     A,#0x4
        LCALL   ?XSTACK_DISP0_8
        LCALL   ?XSTORE_R2345
//  369         scanCnf.ResultListSize = 0;
        MOV     A,#0x8
        LCALL   ?XSTACK_DISP0_8
        MOV     A,#0x0
        MOVX    @DPTR,A
//  370         nwk_ScanJoiningOrphan(&scanCnf);
        ; Setup parameters for call to function nwk_ScanJoiningOrphan
        MOV     DPL,?XSP + 0
        MOV     DPH,?XSP + 1
        MOV     R2,DPL
        MOV     R3,DPH
        LCALL   ??nwk_ScanJoiningOrphan?relay
//  371 
//  372         ret = ZSuccess;
        MOV     ?V0 + 2,#0x0
        SJMP    ??ZDO_StartDevice_1
//  373       }
//  374       else
//  375       {
//  376         devState = DEV_NWK_ORPHAN;
??ZDO_StartDevice_4:
        MOV     DPTR,#devState
        MOV     A,#0xa
        MOVX    @DPTR,A
//  377         ret = NLME_OrphanJoinRequest( zgDefaultChannelList,
//  378                                       zgDefaultStartingScanDuration );
        ; Setup parameters for call to function NLME_OrphanJoinRequest
        MOV     DPTR,#zgDefaultStartingScanDuration
        MOVX    A,@DPTR
        MOV     R1,A
        MOV     DPTR,#zgDefaultChannelList
        LCALL   ?XLOAD_R2345
        LCALL   ??NLME_OrphanJoinRequest?relay
        MOV     A,R1
        MOV     ?V0 + 2,A
//  379       }
//  380     }
//  381     else
//  382     {
//  383 #if defined( LCD_SUPPORTED )
//  384       HalLcdWriteScreen( "StartDevice ERR", "MODE unknown" );
//  385 #endif
//  386     }
//  387   }
//  388 
//  389   if ( ret != ZSuccess )
??ZDO_StartDevice_1:
        MOV     A,?V0 + 2
        JZ      ??ZDO_StartDevice_5
//  390   {
//  391     osal_start_timerEx(ZDAppTaskID, ZDO_NETWORK_INIT, NWK_RETRY_DELAY );
        ; Setup parameters for call to function osal_start_timerEx
        MOV     R4,#-0x18
        MOV     R5,#0x3
        MOV     R2,#0x1
        MOV     R3,#0x0
        MOV     DPTR,#ZDAppTaskID
        MOVX    A,@DPTR
        MOV     R1,A
        LCALL   ??osal_start_timerEx?relay
        MOV     A,R1
//  392   }
//  393 }
??ZDO_StartDevice_5:
        MOV     A,#0xb
        LCALL   ?DEALLOC_XSTACK8
        CFI CFA_XSP16 add(XSP16, 11)
        MOV     R7,#0x3
        LJMP    ?BANKED_LEAVE_XDATA
        CFI EndBlock cfiBlock2

        RSEG XDATA_Z:XDATA:NOROOT(0)
        DATA8
??scanCnt:
        DS 1
        REQUIRE __INIT_XDATA_Z
//  394 
//  395 /**************************************************************************************************
//  396  * @fn          zdoSendStateChangeMsg
//  397  *
//  398  * @brief       Helper function for ZDO_UpdateNwkStatus.
//  399  *
//  400  * input parameters
//  401  *
//  402  * @param       taskId - The OSAL task identifier to which to send the ZDO_STATE_CHANGE_EVT.
//  403  * @param       state - The current device state.
//  404  *
//  405  * output parameters
//  406  *
//  407  * None.
//  408  *
//  409  * @return      None.
//  410  **************************************************************************************************
//  411  */

        RSEG BANKED_CODE:CODE:NOROOT(0)
//  412 static void zdoSendStateChangeMsg(uint8 state, uint8 taskId)
zdoSendStateChangeMsg:
        CFI Block cfiBlock3 Using cfiCommon0
        CFI Function zdoSendStateChangeMsg
        CODE
//  413 {
        FUNCALL zdoSendStateChangeMsg, osal_msg_find
        LOCFRAME ISTACK, 0, STACK
        LOCFRAME PSTACK, 0, STACK
        LOCFRAME XSTACK, 13, STACK
        LOCFRAME IOVERLAY, 0, STATIC
        LOCFRAME DOVERLAY, 0, STATIC
        ARGFRAME ISTACK, 0, STACK
        ARGFRAME PSTACK, 0, STACK
        ARGFRAME XSTACK, 13, STACK
        ARGFRAME IOVERLAY, 0, STATIC
        ARGFRAME DOVERLAY, 0, STATIC
        FUNCALL zdoSendStateChangeMsg, osal_msg_allocate
        LOCFRAME ISTACK, 0, STACK
        LOCFRAME PSTACK, 0, STACK
        LOCFRAME XSTACK, 13, STACK
        LOCFRAME IOVERLAY, 0, STATIC
        LOCFRAME DOVERLAY, 0, STATIC
        ARGFRAME ISTACK, 0, STACK
        ARGFRAME PSTACK, 0, STACK
        ARGFRAME XSTACK, 13, STACK
        ARGFRAME IOVERLAY, 0, STATIC
        ARGFRAME DOVERLAY, 0, STATIC
        FUNCALL zdoSendStateChangeMsg, osal_set_event
        LOCFRAME ISTACK, 0, STACK
        LOCFRAME PSTACK, 0, STACK
        LOCFRAME XSTACK, 13, STACK
        LOCFRAME IOVERLAY, 0, STATIC
        LOCFRAME DOVERLAY, 0, STATIC
        ARGFRAME ISTACK, 0, STACK
        ARGFRAME PSTACK, 0, STACK
        ARGFRAME XSTACK, 13, STACK
        ARGFRAME IOVERLAY, 0, STATIC
        ARGFRAME DOVERLAY, 0, STATIC
        FUNCALL zdoSendStateChangeMsg, osal_msg_send
        LOCFRAME ISTACK, 0, STACK
        LOCFRAME PSTACK, 0, STACK
        LOCFRAME XSTACK, 13, STACK
        LOCFRAME IOVERLAY, 0, STATIC
        LOCFRAME DOVERLAY, 0, STATIC
        ARGFRAME ISTACK, 0, STACK
        ARGFRAME PSTACK, 0, STACK
        ARGFRAME XSTACK, 13, STACK
        ARGFRAME IOVERLAY, 0, STATIC
        ARGFRAME DOVERLAY, 0, STATIC
        MOV     A,#-0xc
        LCALL   ?BANKED_ENTER_XDATA
        CFI DPH0 load(1, XDATA, add(CFA_XSP16, literal(-1)))
        CFI DPL0 load(1, XDATA, add(CFA_XSP16, literal(-2)))
        CFI ?BRET_EXT load(1, XDATA, add(CFA_XSP16, literal(-3)))
        CFI ?RET_HIGH load(1, XDATA, add(CFA_XSP16, literal(-4)))
        CFI ?RET_LOW load(1, XDATA, add(CFA_XSP16, literal(-5)))
        CFI R7 load(1, XDATA, add(CFA_XSP16, literal(-6)))
        CFI V3 load(1, XDATA, add(CFA_XSP16, literal(-7)))
        CFI V2 load(1, XDATA, add(CFA_XSP16, literal(-8)))
        CFI V1 load(1, XDATA, add(CFA_XSP16, literal(-9)))
        CFI V0 load(1, XDATA, add(CFA_XSP16, literal(-10)))
        CFI VB load(1, XDATA, add(CFA_XSP16, literal(-11)))
        CFI R6 load(1, XDATA, add(CFA_XSP16, literal(-12)))
        CFI CFA_SP SP+0
        CFI CFA_XSP16 add(XSP16, 12)
        ; Saved register size: 12
        ; Auto size: 1
        MOV     A,#-0x1
        LCALL   ?ALLOC_XSTACK8
        CFI CFA_XSP16 add(XSP16, 13)
        MOV     ?V0 + 1,R1
        MOV     ?V0 + 0,R2
//  414   osal_event_hdr_t *pMsg = (osal_event_hdr_t *)osal_msg_find(taskId, ZDO_STATE_CHANGE);
        ; Setup parameters for call to function osal_msg_find
        MOV     R2,#-0x2f
        MOV     R1,?V0 + 0
        LCALL   ??osal_msg_find?relay
        MOV     ?V0 + 2,R2
        MOV     ?V0 + 3,R3
        MOV     R6,?V0 + 2
        MOV     R7,?V0 + 3
//  415 
//  416   if (NULL == pMsg)
        MOV     A,R6
        ORL     A,R7
        JNZ     ??zdoSendStateChangeMsg_0
//  417   {
//  418     if (NULL == (pMsg = (osal_event_hdr_t *)osal_msg_allocate(sizeof(osal_event_hdr_t))))
        ; Setup parameters for call to function osal_msg_allocate
        MOV     R2,#0x2
        MOV     R3,#0x0
        LCALL   ??osal_msg_allocate?relay
        MOV     ?V0 + 2,R2
        MOV     ?V0 + 3,R3
        MOV     R0,?V0 + 2
        MOV     R1,?V0 + 3
        MOV     A,R0
        MOV     R6,A
        MOV     A,R1
        MOV     R7,A
        MOV     A,R0
        ORL     A,R1
        JNZ     ??zdoSendStateChangeMsg_1
//  419     {
//  420       // Upon failure to notify any EndPoint of the state change, re-set the ZDO event to
//  421       // try again later when more Heap may be available.
//  422       osal_set_event(ZDAppTaskID, ZDO_STATE_CHANGE_EVT);
        ; Setup parameters for call to function osal_set_event
        MOV     R2,#0x10
        MOV     R3,#0x0
        MOV     DPTR,#ZDAppTaskID
        MOVX    A,@DPTR
        MOV     R1,A
        LCALL   ??osal_set_event?relay
        MOV     A,R1
        SJMP    ??zdoSendStateChangeMsg_2
//  423     }
//  424     else
//  425     {
//  426       pMsg->event = ZDO_STATE_CHANGE;
??zdoSendStateChangeMsg_1:
        MOV     DPL,R6
        MOV     DPH,R7
        MOV     A,#-0x2f
        MOVX    @DPTR,A
//  427       pMsg->status = state;
        MOV     A,?V0 + 1
        MOV     DPL,R6
        MOV     DPH,R7
        INC     DPTR
        MOV     A,?V0 + 1
        MOVX    @DPTR,A
//  428 
//  429       (void)osal_msg_send(taskId, (uint8 *)pMsg);
        ; Setup parameters for call to function osal_msg_send
        MOV     A,R6
        MOV     R2,A
        MOV     A,R7
        MOV     R3,A
        MOV     R1,?V0 + 0
        LCALL   ??osal_msg_send?relay
        MOV     A,R1
        MOV     DPL,?XSP + 0
        MOV     DPH,?XSP + 1
        MOVX    @DPTR,A
        SJMP    ??zdoSendStateChangeMsg_2
//  430     }
//  431   }
//  432   else
//  433   {
//  434     // Modify in place the status of an existing ZDO_STATE_CHANGE message to the EndPoint.
//  435     pMsg->status = state;
??zdoSendStateChangeMsg_0:
        MOV     A,?V0 + 1
        MOV     DPL,R6
        MOV     DPH,R7
        INC     DPTR
        MOV     A,?V0 + 1
        MOVX    @DPTR,A
//  436   }
//  437 }
??zdoSendStateChangeMsg_2:
        MOV     A,#0x1
        LCALL   ?DEALLOC_XSTACK8
        CFI CFA_XSP16 add(XSP16, 12)
        MOV     R7,#0x4
        LJMP    ?BANKED_LEAVE_XDATA
        CFI EndBlock cfiBlock3
//  438 
//  439 /**************************************************************************************************
//  440  * @fn          ZDO_UpdateNwkStatus
//  441  *
//  442  * @brief       This function sends a ZDO_STATE_CHANGE message to the task of every EndPoint
//  443  *              registered with AF (except, of course, the ZDO_EP). Even if a single task has more
//  444  *              than one registered EndPoint, it will only receive one notification per state
//  445  *              change. Although the device may go through a sequence of state changes, the
//  446  *              Application task may only receive notification of the final, steady-state state
//  447  *              because it has the lowest priority and never even runs to receive the intermediate
//  448  *              state change notifications.
//  449  *
//  450  * input parameters
//  451  *
//  452  * @param       state - The current device state.
//  453  *
//  454  * output parameters
//  455  *
//  456  * None.
//  457  *
//  458  * @return      None.
//  459  **************************************************************************************************
//  460  */

        RSEG BANKED_CODE:CODE:NOROOT(0)
//  461 void ZDO_UpdateNwkStatus(devStates_t state)
ZDO_UpdateNwkStatus:
        CFI Block cfiBlock4 Using cfiCommon0
        CFI Function ZDO_UpdateNwkStatus
        CODE
//  462 {
        FUNCALL ZDO_UpdateNwkStatus, zdoSendStateChangeMsg
        LOCFRAME ISTACK, 0, STACK
        LOCFRAME PSTACK, 0, STACK
        LOCFRAME XSTACK, 12, STACK
        LOCFRAME IOVERLAY, 0, STATIC
        LOCFRAME DOVERLAY, 0, STATIC
        ARGFRAME ISTACK, 0, STACK
        ARGFRAME PSTACK, 0, STACK
        ARGFRAME XSTACK, 12, STACK
        ARGFRAME IOVERLAY, 0, STATIC
        ARGFRAME DOVERLAY, 0, STATIC
        FUNCALL ZDO_UpdateNwkStatus, NLME_GetShortAddr
        LOCFRAME ISTACK, 0, STACK
        LOCFRAME PSTACK, 0, STACK
        LOCFRAME XSTACK, 12, STACK
        LOCFRAME IOVERLAY, 0, STATIC
        LOCFRAME DOVERLAY, 0, STATIC
        ARGFRAME ISTACK, 0, STACK
        ARGFRAME PSTACK, 0, STACK
        ARGFRAME XSTACK, 12, STACK
        ARGFRAME IOVERLAY, 0, STATIC
        ARGFRAME DOVERLAY, 0, STATIC
        FUNCALL ZDO_UpdateNwkStatus, NLME_GetExtAddr
        LOCFRAME ISTACK, 0, STACK
        LOCFRAME PSTACK, 0, STACK
        LOCFRAME XSTACK, 12, STACK
        LOCFRAME IOVERLAY, 0, STATIC
        LOCFRAME DOVERLAY, 0, STATIC
        ARGFRAME ISTACK, 0, STACK
        ARGFRAME PSTACK, 0, STACK
        ARGFRAME XSTACK, 12, STACK
        ARGFRAME IOVERLAY, 0, STATIC
        ARGFRAME DOVERLAY, 0, STATIC
        MOV     A,#-0xc
        LCALL   ?BANKED_ENTER_XDATA
        CFI DPH0 load(1, XDATA, add(CFA_XSP16, literal(-1)))
        CFI DPL0 load(1, XDATA, add(CFA_XSP16, literal(-2)))
        CFI ?BRET_EXT load(1, XDATA, add(CFA_XSP16, literal(-3)))
        CFI ?RET_HIGH load(1, XDATA, add(CFA_XSP16, literal(-4)))
        CFI ?RET_LOW load(1, XDATA, add(CFA_XSP16, literal(-5)))
        CFI R7 load(1, XDATA, add(CFA_XSP16, literal(-6)))
        CFI V3 load(1, XDATA, add(CFA_XSP16, literal(-7)))
        CFI V2 load(1, XDATA, add(CFA_XSP16, literal(-8)))
        CFI V1 load(1, XDATA, add(CFA_XSP16, literal(-9)))
        CFI V0 load(1, XDATA, add(CFA_XSP16, literal(-10)))
        CFI VB load(1, XDATA, add(CFA_XSP16, literal(-11)))
        CFI R6 load(1, XDATA, add(CFA_XSP16, literal(-12)))
        CFI CFA_SP SP+0
        CFI CFA_XSP16 add(XSP16, 12)
        ; Saved register size: 12
        ; Auto size: 0
        MOV     ?V0 + 0,R1
//  463   epList_t *pItem = epList;
        MOV     DPTR,#epList
        MOVX    A,@DPTR
        MOV     R6,A
        INC     DPTR
        MOVX    A,@DPTR
        MOV     R7,A
//  464 
//  465   while (pItem != NULL)
??ZDO_UpdateNwkStatus_0:
        MOV     A,R6
        ORL     A,R7
        JZ      ??ZDO_UpdateNwkStatus_1
//  466   {
//  467     if (pItem->epDesc->endPoint != ZDO_EP)
        MOV     DPL,R6
        MOV     DPH,R7
        INC     DPTR
        INC     DPTR
        MOVX    A,@DPTR
        MOV     R0,A
        INC     DPTR
        MOVX    A,@DPTR
        MOV     DPH,A
        MOV     DPL,R0
        MOVX    A,@DPTR
        JZ      ??ZDO_UpdateNwkStatus_2
//  468     {
//  469       zdoSendStateChangeMsg(state, *(pItem->epDesc->task_id));
        ; Setup parameters for call to function zdoSendStateChangeMsg
        MOV     DPL,R6
        MOV     DPH,R7
        INC     DPTR
        INC     DPTR
        MOVX    A,@DPTR
        MOV     R0,A
        INC     DPTR
        MOVX    A,@DPTR
        MOV     DPH,A
        MOV     DPL,R0
        INC     DPTR
        MOVX    A,@DPTR
        MOV     R0,A
        INC     DPTR
        MOVX    A,@DPTR
        MOV     DPH,A
        MOV     DPL,R0
        MOVX    A,@DPTR
        MOV     R2,A
        MOV     R1,?V0 + 0
        LCALL   ??zdoSendStateChangeMsg?relay
//  470     }
//  471 
//  472     pItem = pItem->nextDesc;
??ZDO_UpdateNwkStatus_2:
        MOV     DPL,R6
        MOV     DPH,R7
        MOVX    A,@DPTR
        MOV     R0,A
        INC     DPTR
        MOVX    A,@DPTR
        MOV     R1,A
        MOV     A,R0
        MOV     R6,A
        MOV     A,R1
        MOV     R7,A
        SJMP    ??ZDO_UpdateNwkStatus_0
//  473   }
//  474 #if defined MT_ZDO_CB_FUNC
//  475   zdoSendStateChangeMsg(state, MT_TaskID);
//  476 #endif
//  477 
//  478   ZDAppNwkAddr.addr.shortAddr = NLME_GetShortAddr();
??ZDO_UpdateNwkStatus_1:
        ; Setup parameters for call to function NLME_GetShortAddr
        LCALL   ??NLME_GetShortAddr?relay
        MOV     DPTR,#ZDAppNwkAddr
        MOV     A,R2
        MOVX    @DPTR,A
        INC     DPTR
        MOV     A,R3
        MOVX    @DPTR,A
//  479   (void)NLME_GetExtAddr();  // Load the saveExtAddr pointer.
        ; Setup parameters for call to function NLME_GetExtAddr
        LCALL   ??NLME_GetExtAddr?relay
        MOV     ?V0 + 2,R2
        MOV     ?V0 + 3,R3
        MOV     DPL,?V0 + 2
        MOV     DPH,?V0 + 3
//  480 }
        MOV     R7,#0x4
        LJMP    ?BANKED_LEAVE_XDATA
        CFI EndBlock cfiBlock4
//  481 
//  482 #if defined ( REFLECTOR )
//  483 /*********************************************************************
//  484  * @fn          ZDO_RemoveEndDeviceBind
//  485  *
//  486  * @brief       Remove the end device bind
//  487  *
//  488  * @param  none
//  489  *
//  490  * @return      none
//  491  */

        RSEG BANKED_CODE:CODE:NOROOT(0)
//  492 static void ZDO_RemoveEndDeviceBind( void )
ZDO_RemoveEndDeviceBind:
        CFI Block cfiBlock5 Using cfiCommon0
        CFI Function ZDO_RemoveEndDeviceBind
        CODE
//  493 {
        FUNCALL ZDO_RemoveEndDeviceBind, osal_mem_free
        LOCFRAME ISTACK, 2, STACK
        LOCFRAME PSTACK, 0, STACK
        LOCFRAME XSTACK, 0, STACK
        LOCFRAME IOVERLAY, 0, STATIC
        LOCFRAME DOVERLAY, 0, STATIC
        ARGFRAME ISTACK, 2, STACK
        ARGFRAME PSTACK, 0, STACK
        ARGFRAME XSTACK, 0, STACK
        ARGFRAME IOVERLAY, 0, STATIC
        ARGFRAME DOVERLAY, 0, STATIC
        FUNCALL ZDO_RemoveEndDeviceBind, osal_mem_free
        LOCFRAME ISTACK, 2, STACK
        LOCFRAME PSTACK, 0, STACK
        LOCFRAME XSTACK, 0, STACK
        LOCFRAME IOVERLAY, 0, STATIC
        LOCFRAME DOVERLAY, 0, STATIC
        ARGFRAME ISTACK, 2, STACK
        ARGFRAME PSTACK, 0, STACK
        ARGFRAME XSTACK, 0, STACK
        ARGFRAME IOVERLAY, 0, STATIC
        ARGFRAME DOVERLAY, 0, STATIC
        FUNCALL ZDO_RemoveEndDeviceBind, osal_mem_free
        LOCFRAME ISTACK, 2, STACK
        LOCFRAME PSTACK, 0, STACK
        LOCFRAME XSTACK, 0, STACK
        LOCFRAME IOVERLAY, 0, STATIC
        LOCFRAME DOVERLAY, 0, STATIC
        ARGFRAME ISTACK, 2, STACK
        ARGFRAME PSTACK, 0, STACK
        ARGFRAME XSTACK, 0, STACK
        ARGFRAME IOVERLAY, 0, STATIC
        ARGFRAME DOVERLAY, 0, STATIC
        PUSH    DPL
        CFI DPL0 Frame(CFA_SP, 4)
        CFI CFA_SP SP+-4
        PUSH    DPH
        CFI DPH0 Frame(CFA_SP, 5)
        CFI CFA_SP SP+-5
        ; Saved register size: 2
        ; Auto size: 0
//  494   if ( ZDO_EDBind != NULL )
        MOV     DPTR,#ZDO_EDBind
        MOVX    A,@DPTR
        MOV     R0,A
        INC     DPTR
        MOVX    A,@DPTR
        MOV     R1,A
        MOV     A,R0
        ORL     A,R1
        JZ      ??ZDO_RemoveEndDeviceBind_0
//  495   {
//  496     // Free the RAM
//  497     if ( ZDO_EDBind->inClusters != NULL )
        MOV     DPTR,#ZDO_EDBind
        MOVX    A,@DPTR
        ADD     A,#0x10
        MOV     R0,A
        INC     DPTR
        MOVX    A,@DPTR
        ADDC    A,#0x0
        MOV     R1,A
        MOV     DPL,R0
        MOV     DPH,R1
        MOVX    A,@DPTR
        MOV     R0,A
        INC     DPTR
        MOVX    A,@DPTR
        MOV     R1,A
        MOV     A,R0
        ORL     A,R1
        JZ      ??ZDO_RemoveEndDeviceBind_1
//  498     {
//  499       osal_mem_free( ZDO_EDBind->inClusters );
        ; Setup parameters for call to function osal_mem_free
        MOV     DPTR,#ZDO_EDBind
        MOVX    A,@DPTR
        ADD     A,#0x10
        MOV     R0,A
        INC     DPTR
        MOVX    A,@DPTR
        ADDC    A,#0x0
        MOV     R1,A
        MOV     DPL,R0
        MOV     DPH,R1
        MOVX    A,@DPTR
        MOV     R2,A
        INC     DPTR
        MOVX    A,@DPTR
        MOV     R3,A
        LCALL   ??osal_mem_free?relay
//  500     }
//  501     if ( ZDO_EDBind->outClusters != NULL )
??ZDO_RemoveEndDeviceBind_1:
        MOV     DPTR,#ZDO_EDBind
        MOVX    A,@DPTR
        ADD     A,#0x13
        MOV     R0,A
        INC     DPTR
        MOVX    A,@DPTR
        ADDC    A,#0x0
        MOV     R1,A
        MOV     DPL,R0
        MOV     DPH,R1
        MOVX    A,@DPTR
        MOV     R0,A
        INC     DPTR
        MOVX    A,@DPTR
        MOV     R1,A
        MOV     A,R0
        ORL     A,R1
        JZ      ??ZDO_RemoveEndDeviceBind_2
//  502     {
//  503       osal_mem_free( ZDO_EDBind->outClusters );
        ; Setup parameters for call to function osal_mem_free
        MOV     DPTR,#ZDO_EDBind
        MOVX    A,@DPTR
        ADD     A,#0x13
        MOV     R0,A
        INC     DPTR
        MOVX    A,@DPTR
        ADDC    A,#0x0
        MOV     R1,A
        MOV     DPL,R0
        MOV     DPH,R1
        MOVX    A,@DPTR
        MOV     R2,A
        INC     DPTR
        MOVX    A,@DPTR
        MOV     R3,A
        LCALL   ??osal_mem_free?relay
//  504     }
//  505     osal_mem_free( ZDO_EDBind );
??ZDO_RemoveEndDeviceBind_2:
        ; Setup parameters for call to function osal_mem_free
        MOV     DPTR,#ZDO_EDBind
        MOVX    A,@DPTR
        MOV     R2,A
        INC     DPTR
        MOVX    A,@DPTR
        MOV     R3,A
        LCALL   ??osal_mem_free?relay
//  506     ZDO_EDBind = NULL;
        MOV     DPTR,#ZDO_EDBind
        MOV     A,#0x0
        MOVX    @DPTR,A
        INC     DPTR
        MOV     A,#0x0
        MOVX    @DPTR,A
//  507   }
//  508 }
??ZDO_RemoveEndDeviceBind_0:
        POP     DPH
        CFI DPH0 SameValue
        CFI CFA_SP SP+-4
        POP     DPL
        CFI DPL0 SameValue
        CFI CFA_SP SP+-3
        LJMP    ?BRET
        CFI EndBlock cfiBlock5
//  509 #endif // REFLECTOR
//  510 
//  511 #if defined ( REFLECTOR )
//  512 /*********************************************************************
//  513  * @fn          ZDO_RemoveEndDeviceBind
//  514  *
//  515  * @brief       Remove the end device bind
//  516  *
//  517  * @param  none
//  518  *
//  519  * @return      none
//  520  */

        RSEG BANKED_CODE:CODE:NOROOT(0)
//  521 static void ZDO_SendEDBindRsp( byte TransSeq, zAddrType_t *dstAddr, byte Status, byte secUse )
ZDO_SendEDBindRsp:
        CFI Block cfiBlock6 Using cfiCommon0
        CFI Function ZDO_SendEDBindRsp
        CODE
//  522 {
        FUNCALL ZDO_SendEDBindRsp, ZDP_SendData
        LOCFRAME ISTACK, 0, STACK
        LOCFRAME PSTACK, 0, STACK
        LOCFRAME XSTACK, 18, STACK
        LOCFRAME IOVERLAY, 0, STATIC
        LOCFRAME DOVERLAY, 0, STATIC
        ARGFRAME ISTACK, 0, STACK
        ARGFRAME PSTACK, 0, STACK
        ARGFRAME XSTACK, 18, STACK
        ARGFRAME IOVERLAY, 0, STATIC
        ARGFRAME DOVERLAY, 0, STATIC
        MOV     A,#-0xb
        LCALL   ?BANKED_ENTER_XDATA
        CFI DPH0 load(1, XDATA, add(CFA_XSP16, literal(-1)))
        CFI DPL0 load(1, XDATA, add(CFA_XSP16, literal(-2)))
        CFI ?BRET_EXT load(1, XDATA, add(CFA_XSP16, literal(-3)))
        CFI ?RET_HIGH load(1, XDATA, add(CFA_XSP16, literal(-4)))
        CFI ?RET_LOW load(1, XDATA, add(CFA_XSP16, literal(-5)))
        CFI R7 load(1, XDATA, add(CFA_XSP16, literal(-6)))
        CFI V2 load(1, XDATA, add(CFA_XSP16, literal(-7)))
        CFI V1 load(1, XDATA, add(CFA_XSP16, literal(-8)))
        CFI V0 load(1, XDATA, add(CFA_XSP16, literal(-9)))
        CFI VB load(1, XDATA, add(CFA_XSP16, literal(-10)))
        CFI R6 load(1, XDATA, add(CFA_XSP16, literal(-11)))
        CFI CFA_SP SP+0
        CFI CFA_XSP16 add(XSP16, 11)
        ; Saved register size: 11
        ; Auto size: 2
        MOV     A,#-0x2
        LCALL   ?ALLOC_XSTACK8
        CFI CFA_XSP16 add(XSP16, 13)
        MOV     A,R1
        PUSH    A
        CFI CFA_SP SP+-1
        MOV     A,#0x1
        LCALL   ?XSTACK_DISP0_8
        POP     A
        CFI CFA_SP SP+0
        MOVX    @DPTR,A
        MOV     A,R4
        MOV     DPL,?XSP + 0
        MOV     DPH,?XSP + 1
        MOVX    @DPTR,A
        MOV     A,R2
        MOV     R6,A
        MOV     A,R3
        MOV     R7,A
        MOV     ?V0 + 2,R5
//  523   ZDP_EndDeviceBindRsp( TransSeq, dstAddr, Status, secUse );
        ; Setup parameters for call to function ZDP_SendData
        MOV     A,?V0 + 2
        MOV     ?V0 + 0,A
        MOV     R0,#?V0 + 0
        LCALL   ?PUSH_XSTACK_I_ONE
        CFI CFA_XSP16 add(XSP16, 14)
        MOV     A,#0x1
        LCALL   ?XSTACK_DISP0_8
        MOV     ?V0 + 0,DPL
        MOV     ?V0 + 1,DPH
        MOV     R0,#?V0 + 0
        LCALL   ?PUSH_XSTACK_I_TWO
        CFI CFA_XSP16 add(XSP16, 16)
        MOV     ?V0 + 0,#0x20
        MOV     ?V0 + 1,#-0x80
        MOV     R0,#?V0 + 0
        LCALL   ?PUSH_XSTACK_I_TWO
        CFI CFA_XSP16 add(XSP16, 18)
        MOV     R1,#0x1
        MOV     A,R6
        MOV     R4,A
        MOV     A,R7
        MOV     R5,A
        MOV     A,#0x6
        LCALL   ?XSTACK_DISP0_8
        MOV     R2,DPL
        MOV     R3,DPH
        LCALL   ??ZDP_SendData?relay
        MOV     A,#0x5
        LCALL   ?DEALLOC_XSTACK8
        CFI CFA_XSP16 add(XSP16, 13)
        MOV     A,R1
//  524 
//  525 #if defined( LCD_SUPPORTED )
//  526   HalLcdWriteString( "End Device Bind", HAL_LCD_LINE_1 );
//  527   if ( Status == ZDP_SUCCESS )
//  528   {
//  529     HalLcdWriteString( "Success Sent", HAL_LCD_LINE_2 );
//  530   }
//  531   else
//  532   {
//  533     HalLcdWriteString( "Timeout", HAL_LCD_LINE_2 );
//  534   }
//  535 #endif
//  536 
//  537 }
        MOV     A,#0x2
        LCALL   ?DEALLOC_XSTACK8
        CFI CFA_XSP16 add(XSP16, 11)
        MOV     R7,#0x3
        LJMP    ?BANKED_LEAVE_XDATA
        CFI EndBlock cfiBlock6
//  538 #endif // REFLECTOR
//  539 
//  540 /*********************************************************************
//  541  * @fn          ZDO_CompareClusterLists
//  542  *
//  543  * @brief       Compare one list to another list
//  544  *
//  545  * @param       numList1 - number of items in list 1
//  546  * @param       list1 - first list of cluster IDs
//  547  * @param       numList2 - number of items in list 2
//  548  * @param       list2 - second list of cluster IDs
//  549  * @param       pMatches - buffer to put matches
//  550  *
//  551  * @return      number of matches
//  552  */

        RSEG BANKED_CODE:CODE:NOROOT(0)
//  553 static byte ZDO_CompareClusterLists( byte numList1, uint16 *list1,
ZDO_CompareClusterLists:
        CFI Block cfiBlock7 Using cfiCommon0
        CFI Function ZDO_CompareClusterLists
        CODE
//  554                           byte numList2, uint16 *list2, uint16 *pMatches )
//  555 {
        MOV     A,#-0x10
        LCALL   ?BANKED_ENTER_XDATA
        CFI DPH0 load(1, XDATA, add(CFA_XSP16, literal(-1)))
        CFI DPL0 load(1, XDATA, add(CFA_XSP16, literal(-2)))
        CFI ?BRET_EXT load(1, XDATA, add(CFA_XSP16, literal(-3)))
        CFI ?RET_HIGH load(1, XDATA, add(CFA_XSP16, literal(-4)))
        CFI ?RET_LOW load(1, XDATA, add(CFA_XSP16, literal(-5)))
        CFI R7 load(1, XDATA, add(CFA_XSP16, literal(-6)))
        CFI V7 load(1, XDATA, add(CFA_XSP16, literal(-7)))
        CFI V6 load(1, XDATA, add(CFA_XSP16, literal(-8)))
        CFI V5 load(1, XDATA, add(CFA_XSP16, literal(-9)))
        CFI V4 load(1, XDATA, add(CFA_XSP16, literal(-10)))
        CFI V3 load(1, XDATA, add(CFA_XSP16, literal(-11)))
        CFI V2 load(1, XDATA, add(CFA_XSP16, literal(-12)))
        CFI V1 load(1, XDATA, add(CFA_XSP16, literal(-13)))
        CFI V0 load(1, XDATA, add(CFA_XSP16, literal(-14)))
        CFI VB load(1, XDATA, add(CFA_XSP16, literal(-15)))
        CFI R6 load(1, XDATA, add(CFA_XSP16, literal(-16)))
        CFI CFA_SP SP+0
        CFI CFA_XSP16 add(XSP16, 16)
        ; Saved register size: 16
        ; Auto size: 0
        MOV     ?V0 + 3,R1
        MOV     ?V0 + 2,R4
        MOV     A,#0x10
        LCALL   ?XSTACK_DISP0_8
        MOVX    A,@DPTR
        MOV     R0,A
        INC     DPTR
        MOVX    A,@DPTR
        MOV     R1,A
        MOV     A,R0
        MOV     R4,A
        MOV     A,R1
        MOV     R5,A
        MOV     A,#0x12
        LCALL   ?XSTACK_DISP0_8
        MOVX    A,@DPTR
        MOV     R0,A
        INC     DPTR
        MOVX    A,@DPTR
        MOV     R1,A
        MOV     A,R0
        MOV     R6,A
        MOV     A,R1
        MOV     R7,A
//  556   byte x, y;
//  557   uint16 z;
//  558   byte numMatches = 0;
        MOV     R1,#0x0
//  559 
//  560   // Check the first in against the seconds out
//  561   for ( x = 0; x < numList1; x++ )
        MOV     ?V0 + 7,#0x0
??ZDO_CompareClusterLists_0:
        MOV     A,?V0 + 7
        CLR     C
        SUBB    A,?V0 + 3
        JC      $+5
        LJMP    ??ZDO_CompareClusterLists_1 & 0xFFFF
//  562   {
//  563     for ( y = 0; y < numList2; y++ )
        MOV     ?V0 + 6,#0x0
??ZDO_CompareClusterLists_2:
        MOV     A,?V0 + 6
        CLR     C
        SUBB    A,?V0 + 2
        JC      $+5
        LJMP    ??ZDO_CompareClusterLists_3 & 0xFFFF
//  564     {
//  565       z = list2[y];
        MOV     A,?V0 + 6
        MOV     ?V0 + 0,A
        MOV     ?V0 + 1,#0x0
        MOV     A,?V0 + 0
        MOV     B,#0x2
        MUL     AB
        XCH     A,?V0 + 0
        MOV     R0,B
        MOV     B,#0x0
        MUL     AB
        ADD     A,R0
        MOV     R0,A
        MOV     B,#0x2
        MOV     A,?V0 + 1
        MUL     AB
        ADD     A,R0
        MOV     ?V0 + 1,A
        MOV     A,R4
        ADD     A,?V0 + 0
        MOV     DPL,A
        MOV     A,R5
        ADDC    A,?V0 + 1
        MOV     DPH,A
        MOVX    A,@DPTR
        MOV     ?V0 + 4,A
        INC     DPTR
        MOVX    A,@DPTR
        MOV     ?V0 + 5,A
//  566       if ( list1[x] == z )
        MOV     A,?V0 + 7
        MOV     ?V0 + 0,A
        MOV     ?V0 + 1,#0x0
        MOV     A,?V0 + 0
        MOV     B,#0x2
        MUL     AB
        XCH     A,?V0 + 0
        MOV     R0,B
        MOV     B,#0x0
        MUL     AB
        ADD     A,R0
        MOV     R0,A
        MOV     B,#0x2
        MOV     A,?V0 + 1
        MUL     AB
        ADD     A,R0
        MOV     ?V0 + 1,A
        MOV     A,R2
        ADD     A,?V0 + 0
        MOV     DPL,A
        MOV     A,R3
        ADDC    A,?V0 + 1
        MOV     DPH,A
        MOVX    A,@DPTR
        XRL     A,?V0 + 4
        JNZ     ??ZDO_CompareClusterLists_4
        INC     DPTR
        MOVX    A,@DPTR
        XRL     A,?V0 + 5
??ZDO_CompareClusterLists_4:
        JNZ     ??ZDO_CompareClusterLists_5
//  567       {
//  568         pMatches[numMatches++] = z;
        MOV     A,R1
        MOV     ?V0 + 0,A
        MOV     ?V0 + 1,#0x0
        MOV     A,?V0 + 0
        MOV     B,#0x2
        MUL     AB
        XCH     A,?V0 + 0
        MOV     R0,B
        MOV     B,#0x0
        MUL     AB
        ADD     A,R0
        MOV     R0,A
        MOV     B,#0x2
        MOV     A,?V0 + 1
        MUL     AB
        ADD     A,R0
        MOV     ?V0 + 1,A
        MOV     A,R6
        ADD     A,?V0 + 0
        MOV     DPL,A
        MOV     A,R7
        ADDC    A,?V0 + 1
        MOV     DPH,A
        MOV     A,?V0 + 4
        MOVX    @DPTR,A
        INC     DPTR
        MOV     A,?V0 + 5
        MOVX    @DPTR,A
        INC     R1
//  569       }
//  570     }
??ZDO_CompareClusterLists_5:
        INC     ?V0 + 6
        LJMP    ??ZDO_CompareClusterLists_2 & 0xFFFF
//  571   }
??ZDO_CompareClusterLists_3:
        INC     ?V0 + 7
        LJMP    ??ZDO_CompareClusterLists_0 & 0xFFFF
//  572 
//  573   return ( numMatches );
??ZDO_CompareClusterLists_1:
        MOV     R7,#0x8
        LJMP    ?BANKED_LEAVE_XDATA
        CFI EndBlock cfiBlock7
//  574 }
//  575 
//  576 /*********************************************************************
//  577  * Utility functions
//  578  */
//  579 
//  580 /*********************************************************************
//  581  * @fn          ZDO_CompareByteLists
//  582  *
//  583  * @brief       Compares two lists for matches.
//  584  *
//  585  * @param       ACnt  - number of entries in list A
//  586  * @param       AList  - List A
//  587  * @param       BCnt  - number of entries in list B
//  588  * @param       BList  - List B
//  589  *
//  590  * @return      true if a match is found
//  591  */

        RSEG BANKED_CODE:CODE:NOROOT(0)
//  592 byte ZDO_AnyClusterMatches( byte ACnt, uint16 *AList, byte BCnt, uint16 *BList )
ZDO_AnyClusterMatches:
        CFI Block cfiBlock8 Using cfiCommon0
        CFI Function ZDO_AnyClusterMatches
        CODE
//  593 {
        MOV     A,#-0xd
        LCALL   ?BANKED_ENTER_XDATA
        CFI DPH0 load(1, XDATA, add(CFA_XSP16, literal(-1)))
        CFI DPL0 load(1, XDATA, add(CFA_XSP16, literal(-2)))
        CFI ?BRET_EXT load(1, XDATA, add(CFA_XSP16, literal(-3)))
        CFI ?RET_HIGH load(1, XDATA, add(CFA_XSP16, literal(-4)))
        CFI ?RET_LOW load(1, XDATA, add(CFA_XSP16, literal(-5)))
        CFI R7 load(1, XDATA, add(CFA_XSP16, literal(-6)))
        CFI V4 load(1, XDATA, add(CFA_XSP16, literal(-7)))
        CFI V3 load(1, XDATA, add(CFA_XSP16, literal(-8)))
        CFI V2 load(1, XDATA, add(CFA_XSP16, literal(-9)))
        CFI V1 load(1, XDATA, add(CFA_XSP16, literal(-10)))
        CFI V0 load(1, XDATA, add(CFA_XSP16, literal(-11)))
        CFI VB load(1, XDATA, add(CFA_XSP16, literal(-12)))
        CFI R6 load(1, XDATA, add(CFA_XSP16, literal(-13)))
        CFI CFA_SP SP+0
        CFI CFA_XSP16 add(XSP16, 13)
        ; Saved register size: 13
        ; Auto size: 0
        MOV     ?V0 + 4,R1
        MOV     ?V0 + 0,R4
        MOV     A,#0xd
        LCALL   ?XSTACK_DISP0_8
        MOVX    A,@DPTR
        MOV     R0,A
        INC     DPTR
        MOVX    A,@DPTR
        MOV     R1,A
        MOV     A,R0
        MOV     R4,A
        MOV     A,R1
        MOV     R5,A
//  594   byte x, y;
//  595 
//  596   for ( x = 0; x < ACnt; x++ )
        MOV     ?V0 + 3,#0x0
??ZDO_AnyClusterMatches_0:
        MOV     A,?V0 + 3
        CLR     C
        SUBB    A,?V0 + 4
        JNC     ??ZDO_AnyClusterMatches_1
//  597   {
//  598     for ( y = 0; y < BCnt; y++ )
        MOV     ?V0 + 2,#0x0
??ZDO_AnyClusterMatches_2:
        MOV     A,?V0 + 2
        CLR     C
        SUBB    A,?V0 + 0
        JNC     ??ZDO_AnyClusterMatches_3
//  599     {
//  600       if ( AList[x] == BList[y] )
        MOV     A,?V0 + 3
        MOV     R0,?V0 + 3
        MOV     R1,#0x0
        MOV     A,R0
        MOV     B,#0x2
        MUL     AB
        XCH     A,R0
        MOV     R6,B
        MOV     B,#0x0
        MUL     AB
        ADD     A,R6
        MOV     R6,A
        MOV     B,#0x2
        MOV     A,R1
        MUL     AB
        ADD     A,R6
        MOV     R1,A
        MOV     A,R2
        ADD     A,R0
        MOV     DPL,A
        MOV     A,R3
        ADDC    A,R1
        MOV     DPH,A
        MOVX    A,@DPTR
        MOV     R0,A
        INC     DPTR
        MOVX    A,@DPTR
        MOV     R1,A
        MOV     A,?V0 + 2
        MOV     R6,?V0 + 2
        MOV     R7,#0x0
        MOV     A,R6
        MOV     B,#0x2
        MUL     AB
        XCH     A,R6
        MOV     ?V0 + 1,B
        MOV     B,#0x0
        MUL     AB
        ADD     A,?V0 + 1
        MOV     ?V0 + 1,A
        MOV     B,#0x2
        MOV     A,R7
        MUL     AB
        ADD     A,?V0 + 1
        MOV     R7,A
        MOV     A,R4
        ADD     A,R6
        MOV     DPL,A
        MOV     A,R5
        ADDC    A,R7
        MOV     DPH,A
        MOVX    A,@DPTR
        XRL     A,R0
        JNZ     ??ZDO_AnyClusterMatches_4
        INC     DPTR
        MOVX    A,@DPTR
        XRL     A,R1
??ZDO_AnyClusterMatches_4:
        JNZ     ??ZDO_AnyClusterMatches_5
//  601       {
//  602         return true;
        MOV     R1,#0x1
        SJMP    ??ZDO_AnyClusterMatches_6
//  603       }
//  604     }
??ZDO_AnyClusterMatches_5:
        INC     ?V0 + 2
        SJMP    ??ZDO_AnyClusterMatches_2
//  605   }
??ZDO_AnyClusterMatches_3:
        INC     ?V0 + 3
        SJMP    ??ZDO_AnyClusterMatches_0
//  606 
//  607   return false;
??ZDO_AnyClusterMatches_1:
        MOV     R1,#0x0
??ZDO_AnyClusterMatches_6:
        MOV     R7,#0x5
        LJMP    ?BANKED_LEAVE_XDATA
        CFI EndBlock cfiBlock8
//  608 }
//  609 
//  610 /*********************************************************************
//  611  * Callback functions from ZDProfile
//  612  */
//  613 
//  614 /*********************************************************************
//  615  * @fn          ZDO_ProcessNodeDescReq
//  616  *
//  617  * @brief       This function processes and responds to the
//  618  *              Node_Desc_req message.
//  619  *
//  620  * @param       inMsg - incoming message
//  621  *
//  622  * @return      none
//  623  */

        RSEG BANKED_CODE:CODE:NOROOT(0)
//  624 void ZDO_ProcessNodeDescReq( zdoIncomingMsg_t *inMsg )
ZDO_ProcessNodeDescReq:
        CFI Block cfiBlock9 Using cfiCommon0
        CFI Function ZDO_ProcessNodeDescReq
        CODE
//  625 {
        FUNCALL ZDO_ProcessNodeDescReq, ZDP_NodeDescMsg
        LOCFRAME ISTACK, 0, STACK
        LOCFRAME PSTACK, 0, STACK
        LOCFRAME XSTACK, 16, STACK
        LOCFRAME IOVERLAY, 0, STATIC
        LOCFRAME DOVERLAY, 0, STATIC
        ARGFRAME ISTACK, 0, STACK
        ARGFRAME PSTACK, 0, STACK
        ARGFRAME XSTACK, 16, STACK
        ARGFRAME IOVERLAY, 0, STATIC
        ARGFRAME DOVERLAY, 0, STATIC
        FUNCALL ZDO_ProcessNodeDescReq, ZDP_GenericRsp
        LOCFRAME ISTACK, 0, STACK
        LOCFRAME PSTACK, 0, STACK
        LOCFRAME XSTACK, 18, STACK
        LOCFRAME IOVERLAY, 0, STATIC
        LOCFRAME DOVERLAY, 0, STATIC
        ARGFRAME ISTACK, 0, STACK
        ARGFRAME PSTACK, 0, STACK
        ARGFRAME XSTACK, 18, STACK
        ARGFRAME IOVERLAY, 0, STATIC
        ARGFRAME DOVERLAY, 0, STATIC
        MOV     A,#-0xe
        LCALL   ?BANKED_ENTER_XDATA
        CFI DPH0 load(1, XDATA, add(CFA_XSP16, literal(-1)))
        CFI DPL0 load(1, XDATA, add(CFA_XSP16, literal(-2)))
        CFI ?BRET_EXT load(1, XDATA, add(CFA_XSP16, literal(-3)))
        CFI ?RET_HIGH load(1, XDATA, add(CFA_XSP16, literal(-4)))
        CFI ?RET_LOW load(1, XDATA, add(CFA_XSP16, literal(-5)))
        CFI R7 load(1, XDATA, add(CFA_XSP16, literal(-6)))
        CFI V5 load(1, XDATA, add(CFA_XSP16, literal(-7)))
        CFI V4 load(1, XDATA, add(CFA_XSP16, literal(-8)))
        CFI V3 load(1, XDATA, add(CFA_XSP16, literal(-9)))
        CFI V2 load(1, XDATA, add(CFA_XSP16, literal(-10)))
        CFI V1 load(1, XDATA, add(CFA_XSP16, literal(-11)))
        CFI V0 load(1, XDATA, add(CFA_XSP16, literal(-12)))
        CFI VB load(1, XDATA, add(CFA_XSP16, literal(-13)))
        CFI R6 load(1, XDATA, add(CFA_XSP16, literal(-14)))
        CFI CFA_SP SP+0
        CFI CFA_XSP16 add(XSP16, 14)
        ; Saved register size: 14
        ; Auto size: 0
        MOV     A,R2
        MOV     R6,A
        MOV     A,R3
        MOV     R7,A
//  626   uint16 aoi = BUILD_UINT16( inMsg->asdu[0], inMsg->asdu[1] );
        MOV     A,R6
        ADD     A,#0x13
        MOV     DPL,A
        MOV     A,R7
        ADDC    A,#0x0
        MOV     DPH,A
        MOVX    A,@DPTR
        MOV     R0,A
        INC     DPTR
        MOVX    A,@DPTR
        MOV     DPH,A
        MOV     DPL,R0
        MOVX    A,@DPTR
        MOV     R2,A
        MOV     R3,#0x0
        MOV     A,R6
        ADD     A,#0x13
        MOV     DPL,A
        MOV     A,R7
        ADDC    A,#0x0
        MOV     DPH,A
        MOVX    A,@DPTR
        MOV     R0,A
        INC     DPTR
        MOVX    A,@DPTR
        MOV     DPH,A
        MOV     DPL,R0
        INC     DPTR
        MOVX    A,@DPTR
        MOV     R0,A
        MOV     R1,#0x0
        CLR     A
        XCH     A,R0
        MOV     R1,A
        MOV     A,R2
        ADD     A,R0
        MOV     ?V0 + 0,A
        MOV     A,R3
        ADDC    A,R1
        MOV     ?V0 + 1,A
//  627   NodeDescriptorFormat_t *desc = NULL;
        MOV     ?V0 + 2,#0x0
        MOV     ?V0 + 3,#0x0
//  628 
//  629   if ( aoi == ZDAppNwkAddr.addr.shortAddr )
        MOV     DPTR,#ZDAppNwkAddr
        MOVX    A,@DPTR
        XRL     A,?V0 + 0
        JNZ     ??ZDO_ProcessNodeDescReq_0
        INC     DPTR
        MOVX    A,@DPTR
        XRL     A,?V0 + 1
??ZDO_ProcessNodeDescReq_0:
        JNZ     ??ZDO_ProcessNodeDescReq_1
//  630   {
//  631     desc = &ZDO_Config_Node_Descriptor;
        MOV     ?V0 + 2,#ZDO_Config_Node_Descriptor & 0xff
        MOV     ?V0 + 3,#(ZDO_Config_Node_Descriptor >> 8) & 0xff
//  632   }
//  633 
//  634   if ( desc != NULL )
??ZDO_ProcessNodeDescReq_1:
        MOV     A,?V0 + 2
        ORL     A,?V0 + 3
        JZ      ??ZDO_ProcessNodeDescReq_2
//  635   {
//  636     ZDP_NodeDescMsg( inMsg, aoi, desc );
        ; Setup parameters for call to function ZDP_NodeDescMsg
        MOV     R0,#?V0 + 2
        LCALL   ?PUSH_XSTACK_I_TWO
        CFI CFA_XSP16 add(XSP16, 16)
        MOV     R4,?V0 + 0
        MOV     R5,?V0 + 1
        MOV     A,R6
        MOV     R2,A
        MOV     A,R7
        MOV     R3,A
        LCALL   ??ZDP_NodeDescMsg?relay
        MOV     A,#0x2
        LCALL   ?DEALLOC_XSTACK8
        CFI CFA_XSP16 add(XSP16, 14)
        MOV     A,R1
        SJMP    ??ZDO_ProcessNodeDescReq_3
//  637   }
//  638   else
//  639   {
//  640     ZDP_GenericRsp( inMsg->TransSeq, &(inMsg->srcAddr),
//  641               ZDP_INVALID_REQTYPE, aoi, Node_Desc_rsp, inMsg->SecurityUse );
??ZDO_ProcessNodeDescReq_2:
        ; Setup parameters for call to function ZDP_GenericRsp
        MOV     ?V0 + 4,#0x2
        MOV     ?V0 + 5,#-0x80
        MOV     R0,#?V0 + 4
        LCALL   ?PUSH_XSTACK_I_TWO
        CFI CFA_XSP16 add(XSP16, 16)
        MOV     R0,#?V0 + 0
        LCALL   ?PUSH_XSTACK_I_TWO
        CFI CFA_XSP16 add(XSP16, 18)
        MOV     A,R6
        ADD     A,#0xe
        MOV     DPL,A
        MOV     A,R7
        ADDC    A,#0x0
        MOV     DPH,A
        MOVX    A,@DPTR
        MOV     R5,A
        MOV     R4,#-0x80
        MOV     A,R6
        ADD     A,#0x2
        MOV     R2,A
        MOV     A,R7
        ADDC    A,#0x0
        MOV     R3,A
        MOV     A,R6
        ADD     A,#0xf
        MOV     DPL,A
        MOV     A,R7
        ADDC    A,#0x0
        MOV     DPH,A
        MOVX    A,@DPTR
        MOV     R1,A
        LCALL   ??ZDP_GenericRsp?relay
        MOV     A,#0x4
        LCALL   ?DEALLOC_XSTACK8
        CFI CFA_XSP16 add(XSP16, 14)
        MOV     A,R1
//  642   }
//  643 }
??ZDO_ProcessNodeDescReq_3:
        MOV     R7,#0x6
        LJMP    ?BANKED_LEAVE_XDATA
        CFI EndBlock cfiBlock9
//  644 
//  645 /*********************************************************************
//  646  * @fn          ZDO_ProcessPowerDescReq
//  647  *
//  648  * @brief       This function processes and responds to the
//  649  *              Node_Power_req message.
//  650  *
//  651  * @param       inMsg  - incoming request
//  652  *
//  653  * @return      none
//  654  */

        RSEG BANKED_CODE:CODE:NOROOT(0)
//  655 void ZDO_ProcessPowerDescReq( zdoIncomingMsg_t *inMsg )
ZDO_ProcessPowerDescReq:
        CFI Block cfiBlock10 Using cfiCommon0
        CFI Function ZDO_ProcessPowerDescReq
        CODE
//  656 {
        FUNCALL ZDO_ProcessPowerDescReq, ZDP_PowerDescMsg
        LOCFRAME ISTACK, 0, STACK
        LOCFRAME PSTACK, 0, STACK
        LOCFRAME XSTACK, 16, STACK
        LOCFRAME IOVERLAY, 0, STATIC
        LOCFRAME DOVERLAY, 0, STATIC
        ARGFRAME ISTACK, 0, STACK
        ARGFRAME PSTACK, 0, STACK
        ARGFRAME XSTACK, 16, STACK
        ARGFRAME IOVERLAY, 0, STATIC
        ARGFRAME DOVERLAY, 0, STATIC
        FUNCALL ZDO_ProcessPowerDescReq, ZDP_GenericRsp
        LOCFRAME ISTACK, 0, STACK
        LOCFRAME PSTACK, 0, STACK
        LOCFRAME XSTACK, 18, STACK
        LOCFRAME IOVERLAY, 0, STATIC
        LOCFRAME DOVERLAY, 0, STATIC
        ARGFRAME ISTACK, 0, STACK
        ARGFRAME PSTACK, 0, STACK
        ARGFRAME XSTACK, 18, STACK
        ARGFRAME IOVERLAY, 0, STATIC
        ARGFRAME DOVERLAY, 0, STATIC
        MOV     A,#-0xe
        LCALL   ?BANKED_ENTER_XDATA
        CFI DPH0 load(1, XDATA, add(CFA_XSP16, literal(-1)))
        CFI DPL0 load(1, XDATA, add(CFA_XSP16, literal(-2)))
        CFI ?BRET_EXT load(1, XDATA, add(CFA_XSP16, literal(-3)))
        CFI ?RET_HIGH load(1, XDATA, add(CFA_XSP16, literal(-4)))
        CFI ?RET_LOW load(1, XDATA, add(CFA_XSP16, literal(-5)))
        CFI R7 load(1, XDATA, add(CFA_XSP16, literal(-6)))
        CFI V5 load(1, XDATA, add(CFA_XSP16, literal(-7)))
        CFI V4 load(1, XDATA, add(CFA_XSP16, literal(-8)))
        CFI V3 load(1, XDATA, add(CFA_XSP16, literal(-9)))
        CFI V2 load(1, XDATA, add(CFA_XSP16, literal(-10)))
        CFI V1 load(1, XDATA, add(CFA_XSP16, literal(-11)))
        CFI V0 load(1, XDATA, add(CFA_XSP16, literal(-12)))
        CFI VB load(1, XDATA, add(CFA_XSP16, literal(-13)))
        CFI R6 load(1, XDATA, add(CFA_XSP16, literal(-14)))
        CFI CFA_SP SP+0
        CFI CFA_XSP16 add(XSP16, 14)
        ; Saved register size: 14
        ; Auto size: 0
        MOV     A,R2
        MOV     R6,A
        MOV     A,R3
        MOV     R7,A
//  657   uint16 aoi = BUILD_UINT16( inMsg->asdu[0], inMsg->asdu[1] );
        MOV     A,R6
        ADD     A,#0x13
        MOV     DPL,A
        MOV     A,R7
        ADDC    A,#0x0
        MOV     DPH,A
        MOVX    A,@DPTR
        MOV     R0,A
        INC     DPTR
        MOVX    A,@DPTR
        MOV     DPH,A
        MOV     DPL,R0
        MOVX    A,@DPTR
        MOV     R2,A
        MOV     R3,#0x0
        MOV     A,R6
        ADD     A,#0x13
        MOV     DPL,A
        MOV     A,R7
        ADDC    A,#0x0
        MOV     DPH,A
        MOVX    A,@DPTR
        MOV     R0,A
        INC     DPTR
        MOVX    A,@DPTR
        MOV     DPH,A
        MOV     DPL,R0
        INC     DPTR
        MOVX    A,@DPTR
        MOV     R0,A
        MOV     R1,#0x0
        CLR     A
        XCH     A,R0
        MOV     R1,A
        MOV     A,R2
        ADD     A,R0
        MOV     ?V0 + 0,A
        MOV     A,R3
        ADDC    A,R1
        MOV     ?V0 + 1,A
//  658   NodePowerDescriptorFormat_t *desc = NULL;
        MOV     ?V0 + 2,#0x0
        MOV     ?V0 + 3,#0x0
//  659 
//  660   if ( aoi == ZDAppNwkAddr.addr.shortAddr )
        MOV     DPTR,#ZDAppNwkAddr
        MOVX    A,@DPTR
        XRL     A,?V0 + 0
        JNZ     ??ZDO_ProcessPowerDescReq_0
        INC     DPTR
        MOVX    A,@DPTR
        XRL     A,?V0 + 1
??ZDO_ProcessPowerDescReq_0:
        JNZ     ??ZDO_ProcessPowerDescReq_1
//  661   {
//  662     desc = &ZDO_Config_Power_Descriptor;
        MOV     ?V0 + 2,#ZDO_Config_Power_Descriptor & 0xff
        MOV     ?V0 + 3,#(ZDO_Config_Power_Descriptor >> 8) & 0xff
//  663   }
//  664 
//  665   if ( desc != NULL )
??ZDO_ProcessPowerDescReq_1:
        MOV     A,?V0 + 2
        ORL     A,?V0 + 3
        JZ      ??ZDO_ProcessPowerDescReq_2
//  666   {
//  667     ZDP_PowerDescMsg( inMsg, aoi, desc );
        ; Setup parameters for call to function ZDP_PowerDescMsg
        MOV     R0,#?V0 + 2
        LCALL   ?PUSH_XSTACK_I_TWO
        CFI CFA_XSP16 add(XSP16, 16)
        MOV     R4,?V0 + 0
        MOV     R5,?V0 + 1
        MOV     A,R6
        MOV     R2,A
        MOV     A,R7
        MOV     R3,A
        LCALL   ??ZDP_PowerDescMsg?relay
        MOV     A,#0x2
        LCALL   ?DEALLOC_XSTACK8
        CFI CFA_XSP16 add(XSP16, 14)
        MOV     A,R1
        SJMP    ??ZDO_ProcessPowerDescReq_3
//  668   }
//  669   else
//  670   {
//  671     ZDP_GenericRsp( inMsg->TransSeq, &(inMsg->srcAddr),
//  672               ZDP_INVALID_REQTYPE, aoi, Power_Desc_rsp, inMsg->SecurityUse );
??ZDO_ProcessPowerDescReq_2:
        ; Setup parameters for call to function ZDP_GenericRsp
        MOV     ?V0 + 4,#0x3
        MOV     ?V0 + 5,#-0x80
        MOV     R0,#?V0 + 4
        LCALL   ?PUSH_XSTACK_I_TWO
        CFI CFA_XSP16 add(XSP16, 16)
        MOV     R0,#?V0 + 0
        LCALL   ?PUSH_XSTACK_I_TWO
        CFI CFA_XSP16 add(XSP16, 18)
        MOV     A,R6
        ADD     A,#0xe
        MOV     DPL,A
        MOV     A,R7
        ADDC    A,#0x0
        MOV     DPH,A
        MOVX    A,@DPTR
        MOV     R5,A
        MOV     R4,#-0x80
        MOV     A,R6
        ADD     A,#0x2
        MOV     R2,A
        MOV     A,R7
        ADDC    A,#0x0
        MOV     R3,A
        MOV     A,R6
        ADD     A,#0xf
        MOV     DPL,A
        MOV     A,R7
        ADDC    A,#0x0
        MOV     DPH,A
        MOVX    A,@DPTR
        MOV     R1,A
        LCALL   ??ZDP_GenericRsp?relay
        MOV     A,#0x4
        LCALL   ?DEALLOC_XSTACK8
        CFI CFA_XSP16 add(XSP16, 14)
        MOV     A,R1
//  673   }
//  674 }
??ZDO_ProcessPowerDescReq_3:
        MOV     R7,#0x6
        LJMP    ?BANKED_LEAVE_XDATA
        CFI EndBlock cfiBlock10
//  675 
//  676 /*********************************************************************
//  677  * @fn          ZDO_ProcessSimpleDescReq
//  678  *
//  679  * @brief       This function processes and responds to the
//  680  *              Simple_Desc_req message.
//  681  *
//  682  * @param       inMsg - incoming message (request)
//  683  *
//  684  * @return      none
//  685  */

        RSEG BANKED_CODE:CODE:NOROOT(0)
//  686 void ZDO_ProcessSimpleDescReq( zdoIncomingMsg_t *inMsg )
ZDO_ProcessSimpleDescReq:
        CFI Block cfiBlock11 Using cfiCommon0
        CFI Function ZDO_ProcessSimpleDescReq
        CODE
//  687 {
        FUNCALL ZDO_ProcessSimpleDescReq, afFindSimpleDesc
        LOCFRAME ISTACK, 0, STACK
        LOCFRAME PSTACK, 0, STACK
        LOCFRAME XSTACK, 15, STACK
        LOCFRAME IOVERLAY, 0, STATIC
        LOCFRAME DOVERLAY, 0, STATIC
        ARGFRAME ISTACK, 0, STACK
        ARGFRAME PSTACK, 0, STACK
        ARGFRAME XSTACK, 15, STACK
        ARGFRAME IOVERLAY, 0, STATIC
        ARGFRAME DOVERLAY, 0, STATIC
        FUNCALL ZDO_ProcessSimpleDescReq, ZDP_SimpleDescMsg
        LOCFRAME ISTACK, 0, STACK
        LOCFRAME PSTACK, 0, STACK
        LOCFRAME XSTACK, 15, STACK
        LOCFRAME IOVERLAY, 0, STATIC
        LOCFRAME DOVERLAY, 0, STATIC
        ARGFRAME ISTACK, 0, STACK
        ARGFRAME PSTACK, 0, STACK
        ARGFRAME XSTACK, 15, STACK
        ARGFRAME IOVERLAY, 0, STATIC
        ARGFRAME DOVERLAY, 0, STATIC
        FUNCALL ZDO_ProcessSimpleDescReq, osal_mem_free
        LOCFRAME ISTACK, 0, STACK
        LOCFRAME PSTACK, 0, STACK
        LOCFRAME XSTACK, 15, STACK
        LOCFRAME IOVERLAY, 0, STATIC
        LOCFRAME DOVERLAY, 0, STATIC
        ARGFRAME ISTACK, 0, STACK
        ARGFRAME PSTACK, 0, STACK
        ARGFRAME XSTACK, 15, STACK
        ARGFRAME IOVERLAY, 0, STATIC
        ARGFRAME DOVERLAY, 0, STATIC
        MOV     A,#-0xd
        LCALL   ?BANKED_ENTER_XDATA
        CFI DPH0 load(1, XDATA, add(CFA_XSP16, literal(-1)))
        CFI DPL0 load(1, XDATA, add(CFA_XSP16, literal(-2)))
        CFI ?BRET_EXT load(1, XDATA, add(CFA_XSP16, literal(-3)))
        CFI ?RET_HIGH load(1, XDATA, add(CFA_XSP16, literal(-4)))
        CFI ?RET_LOW load(1, XDATA, add(CFA_XSP16, literal(-5)))
        CFI R7 load(1, XDATA, add(CFA_XSP16, literal(-6)))
        CFI V4 load(1, XDATA, add(CFA_XSP16, literal(-7)))
        CFI V3 load(1, XDATA, add(CFA_XSP16, literal(-8)))
        CFI V2 load(1, XDATA, add(CFA_XSP16, literal(-9)))
        CFI V1 load(1, XDATA, add(CFA_XSP16, literal(-10)))
        CFI V0 load(1, XDATA, add(CFA_XSP16, literal(-11)))
        CFI VB load(1, XDATA, add(CFA_XSP16, literal(-12)))
        CFI R6 load(1, XDATA, add(CFA_XSP16, literal(-13)))
        CFI CFA_SP SP+0
        CFI CFA_XSP16 add(XSP16, 13)
        ; Saved register size: 13
        ; Auto size: 2
        MOV     A,#-0x2
        LCALL   ?ALLOC_XSTACK8
        CFI CFA_XSP16 add(XSP16, 15)
        MOV     ?V0 + 0,R2
        MOV     ?V0 + 1,R3
//  688   SimpleDescriptionFormat_t *sDesc = NULL;
        MOV     DPL,?XSP + 0
        MOV     DPH,?XSP + 1
        MOV     A,#0x0
        MOVX    @DPTR,A
        INC     DPTR
        MOV     A,#0x0
        MOVX    @DPTR,A
//  689   uint16 aoi = BUILD_UINT16( inMsg->asdu[0], inMsg->asdu[1] );
        MOV     A,?V0 + 0
        ADD     A,#0x13
        MOV     DPL,A
        MOV     A,?V0 + 1
        ADDC    A,#0x0
        MOV     DPH,A
        MOVX    A,@DPTR
        MOV     R0,A
        INC     DPTR
        MOVX    A,@DPTR
        MOV     DPH,A
        MOV     DPL,R0
        MOVX    A,@DPTR
        MOV     R2,A
        MOV     R3,#0x0
        MOV     A,?V0 + 0
        ADD     A,#0x13
        MOV     DPL,A
        MOV     A,?V0 + 1
        ADDC    A,#0x0
        MOV     DPH,A
        MOVX    A,@DPTR
        MOV     R0,A
        INC     DPTR
        MOVX    A,@DPTR
        MOV     DPH,A
        MOV     DPL,R0
        INC     DPTR
        MOVX    A,@DPTR
        MOV     R0,A
        MOV     R1,#0x0
        CLR     A
        XCH     A,R0
        MOV     R1,A
        MOV     A,R2
        ADD     A,R0
        MOV     R6,A
        MOV     A,R3
        ADDC    A,R1
        MOV     R7,A
//  690   byte endPoint = inMsg->asdu[2];
        MOV     A,?V0 + 0
        ADD     A,#0x13
        MOV     DPL,A
        MOV     A,?V0 + 1
        ADDC    A,#0x0
        MOV     DPH,A
        MOVX    A,@DPTR
        MOV     R0,A
        INC     DPTR
        MOVX    A,@DPTR
        MOV     DPH,A
        MOV     DPL,R0
        INC     DPTR
        INC     DPTR
        MOVX    A,@DPTR
        MOV     ?V0 + 2,A
//  691   byte free = false;
        MOV     ?V0 + 3,#0x0
//  692   byte stat = ZDP_SUCCESS;
        MOV     ?V0 + 4,#0x0
//  693 
//  694   if ( (endPoint == ZDO_EP) || (endPoint > MAX_ENDPOINTS) )
        MOV     A,?V0 + 2
        JZ      ??ZDO_ProcessSimpleDescReq_0
        MOV     A,?V0 + 2
        CLR     C
        SUBB    A,#-0xf
        JC      ??ZDO_ProcessSimpleDescReq_1
//  695   {
//  696     stat = ZDP_INVALID_EP;
??ZDO_ProcessSimpleDescReq_0:
        MOV     ?V0 + 4,#-0x7e
        SJMP    ??ZDO_ProcessSimpleDescReq_2
//  697   }
//  698   else if ( aoi == ZDAppNwkAddr.addr.shortAddr )
??ZDO_ProcessSimpleDescReq_1:
        MOV     DPTR,#ZDAppNwkAddr
        MOVX    A,@DPTR
        XRL     A,R6
        JNZ     ??ZDO_ProcessSimpleDescReq_3
        INC     DPTR
        MOVX    A,@DPTR
        XRL     A,R7
??ZDO_ProcessSimpleDescReq_3:
        JNZ     ??ZDO_ProcessSimpleDescReq_4
//  699   {
//  700     free = afFindSimpleDesc( &sDesc, endPoint );
        ; Setup parameters for call to function afFindSimpleDesc
        MOV     R1,?V0 + 2
        MOV     DPL,?XSP + 0
        MOV     DPH,?XSP + 1
        MOV     R2,DPL
        MOV     R3,DPH
        LCALL   ??afFindSimpleDesc?relay
        MOV     A,R1
        MOV     ?V0 + 3,A
//  701     if ( sDesc == NULL )
        MOV     DPL,?XSP + 0
        MOV     DPH,?XSP + 1
        MOVX    A,@DPTR
        MOV     R0,A
        INC     DPTR
        MOVX    A,@DPTR
        MOV     R1,A
        MOV     A,R0
        ORL     A,R1
        JNZ     ??ZDO_ProcessSimpleDescReq_2
//  702     {
//  703       stat = ZDP_NOT_ACTIVE;
        MOV     ?V0 + 4,#-0x7d
        SJMP    ??ZDO_ProcessSimpleDescReq_2
//  704     }
//  705   }
//  706   else
//  707   {
//  708     if ( ZSTACK_ROUTER_BUILD )
//  709     {
//  710       stat = ZDP_DEVICE_NOT_FOUND;
//  711     }
//  712     else if ( ZSTACK_END_DEVICE_BUILD )
//  713     {
//  714       stat = ZDP_INVALID_REQTYPE;
??ZDO_ProcessSimpleDescReq_4:
        MOV     ?V0 + 4,#-0x80
//  715     }
//  716   }
//  717 
//  718   ZDP_SimpleDescMsg( inMsg, stat, sDesc );
??ZDO_ProcessSimpleDescReq_2:
        ; Setup parameters for call to function ZDP_SimpleDescMsg
        MOV     DPL,?XSP + 0
        MOV     DPH,?XSP + 1
        MOVX    A,@DPTR
        MOV     R4,A
        INC     DPTR
        MOVX    A,@DPTR
        MOV     R5,A
        MOV     R1,?V0 + 4
        MOV     R2,?V0 + 0
        MOV     R3,?V0 + 1
        LCALL   ??ZDP_SimpleDescMsg?relay
        MOV     A,R1
//  719 
//  720   if ( free && sDesc )
        MOV     A,?V0 + 3
        JZ      ??ZDO_ProcessSimpleDescReq_5
        MOV     DPL,?XSP + 0
        MOV     DPH,?XSP + 1
        MOVX    A,@DPTR
        MOV     R0,A
        INC     DPTR
        MOVX    A,@DPTR
        MOV     R1,A
        MOV     A,R0
        ORL     A,R1
        JZ      ??ZDO_ProcessSimpleDescReq_5
//  721   {
//  722     osal_mem_free( sDesc );
        ; Setup parameters for call to function osal_mem_free
        MOV     DPL,?XSP + 0
        MOV     DPH,?XSP + 1
        MOVX    A,@DPTR
        MOV     R2,A
        INC     DPTR
        MOVX    A,@DPTR
        MOV     R3,A
        LCALL   ??osal_mem_free?relay
//  723   }
//  724 }
??ZDO_ProcessSimpleDescReq_5:
        MOV     A,#0x2
        LCALL   ?DEALLOC_XSTACK8
        CFI CFA_XSP16 add(XSP16, 13)
        MOV     R7,#0x5
        LJMP    ?BANKED_LEAVE_XDATA
        CFI EndBlock cfiBlock11
//  725 
//  726 /*********************************************************************
//  727  * @fn          ZDO_ProcessActiveEPReq
//  728  *
//  729  * @brief       This function processes and responds to the
//  730  *              Active_EP_req message.
//  731  *
//  732  * @param       inMsg  - incoming message (request)
//  733  *
//  734  * @return      none
//  735  */

        RSEG BANKED_CODE:CODE:NOROOT(0)
//  736 void ZDO_ProcessActiveEPReq( zdoIncomingMsg_t *inMsg )
ZDO_ProcessActiveEPReq:
        CFI Block cfiBlock12 Using cfiCommon0
        CFI Function ZDO_ProcessActiveEPReq
        CODE
//  737 {
        FUNCALL ZDO_ProcessActiveEPReq, NLME_GetShortAddr
        LOCFRAME ISTACK, 0, STACK
        LOCFRAME PSTACK, 0, STACK
        LOCFRAME XSTACK, 14, STACK
        LOCFRAME IOVERLAY, 0, STATIC
        LOCFRAME DOVERLAY, 0, STATIC
        ARGFRAME ISTACK, 0, STACK
        ARGFRAME PSTACK, 0, STACK
        ARGFRAME XSTACK, 14, STACK
        ARGFRAME IOVERLAY, 0, STATIC
        ARGFRAME DOVERLAY, 0, STATIC
        FUNCALL ZDO_ProcessActiveEPReq, afNumEndPoints
        LOCFRAME ISTACK, 0, STACK
        LOCFRAME PSTACK, 0, STACK
        LOCFRAME XSTACK, 14, STACK
        LOCFRAME IOVERLAY, 0, STATIC
        LOCFRAME DOVERLAY, 0, STATIC
        ARGFRAME ISTACK, 0, STACK
        ARGFRAME PSTACK, 0, STACK
        ARGFRAME XSTACK, 14, STACK
        ARGFRAME IOVERLAY, 0, STATIC
        ARGFRAME DOVERLAY, 0, STATIC
        FUNCALL ZDO_ProcessActiveEPReq, afEndPoints
        LOCFRAME ISTACK, 0, STACK
        LOCFRAME PSTACK, 0, STACK
        LOCFRAME XSTACK, 14, STACK
        LOCFRAME IOVERLAY, 0, STATIC
        LOCFRAME DOVERLAY, 0, STATIC
        ARGFRAME ISTACK, 0, STACK
        ARGFRAME PSTACK, 0, STACK
        ARGFRAME XSTACK, 14, STACK
        ARGFRAME IOVERLAY, 0, STATIC
        ARGFRAME DOVERLAY, 0, STATIC
        FUNCALL ZDO_ProcessActiveEPReq, ZDP_EPRsp
        LOCFRAME ISTACK, 0, STACK
        LOCFRAME PSTACK, 0, STACK
        LOCFRAME XSTACK, 21, STACK
        LOCFRAME IOVERLAY, 0, STATIC
        LOCFRAME DOVERLAY, 0, STATIC
        ARGFRAME ISTACK, 0, STACK
        ARGFRAME PSTACK, 0, STACK
        ARGFRAME XSTACK, 21, STACK
        ARGFRAME IOVERLAY, 0, STATIC
        ARGFRAME DOVERLAY, 0, STATIC
        MOV     A,#-0xe
        LCALL   ?BANKED_ENTER_XDATA
        CFI DPH0 load(1, XDATA, add(CFA_XSP16, literal(-1)))
        CFI DPL0 load(1, XDATA, add(CFA_XSP16, literal(-2)))
        CFI ?BRET_EXT load(1, XDATA, add(CFA_XSP16, literal(-3)))
        CFI ?RET_HIGH load(1, XDATA, add(CFA_XSP16, literal(-4)))
        CFI ?RET_LOW load(1, XDATA, add(CFA_XSP16, literal(-5)))
        CFI R7 load(1, XDATA, add(CFA_XSP16, literal(-6)))
        CFI V5 load(1, XDATA, add(CFA_XSP16, literal(-7)))
        CFI V4 load(1, XDATA, add(CFA_XSP16, literal(-8)))
        CFI V3 load(1, XDATA, add(CFA_XSP16, literal(-9)))
        CFI V2 load(1, XDATA, add(CFA_XSP16, literal(-10)))
        CFI V1 load(1, XDATA, add(CFA_XSP16, literal(-11)))
        CFI V0 load(1, XDATA, add(CFA_XSP16, literal(-12)))
        CFI VB load(1, XDATA, add(CFA_XSP16, literal(-13)))
        CFI R6 load(1, XDATA, add(CFA_XSP16, literal(-14)))
        CFI CFA_SP SP+0
        CFI CFA_XSP16 add(XSP16, 14)
        ; Saved register size: 14
        ; Auto size: 0
        MOV     A,R2
        MOV     R6,A
        MOV     A,R3
        MOV     R7,A
//  738   byte cnt = 0;
        MOV     ?V0 + 0,#0x0
//  739   uint16 aoi;
//  740   byte stat = ZDP_SUCCESS;
        MOV     ?V0 + 1,#0x0
//  741 
//  742   aoi = BUILD_UINT16( inMsg->asdu[0], inMsg->asdu[1] );
        MOV     A,R6
        ADD     A,#0x13
        MOV     DPL,A
        MOV     A,R7
        ADDC    A,#0x0
        MOV     DPH,A
        MOVX    A,@DPTR
        MOV     R0,A
        INC     DPTR
        MOVX    A,@DPTR
        MOV     DPH,A
        MOV     DPL,R0
        MOVX    A,@DPTR
        MOV     R2,A
        MOV     R3,#0x0
        MOV     A,R6
        ADD     A,#0x13
        MOV     DPL,A
        MOV     A,R7
        ADDC    A,#0x0
        MOV     DPH,A
        MOVX    A,@DPTR
        MOV     R0,A
        INC     DPTR
        MOVX    A,@DPTR
        MOV     DPH,A
        MOV     DPL,R0
        INC     DPTR
        MOVX    A,@DPTR
        MOV     R0,A
        MOV     R1,#0x0
        CLR     A
        XCH     A,R0
        MOV     R1,A
        MOV     A,R2
        ADD     A,R0
        MOV     R0,A
        MOV     A,R3
        ADDC    A,R1
        MOV     R1,A
        MOV     ?V0 + 2,R0
        MOV     ?V0 + 3,R1
//  743 
//  744   if ( aoi == NLME_GetShortAddr() )
        ; Setup parameters for call to function NLME_GetShortAddr
        LCALL   ??NLME_GetShortAddr?relay
        MOV     ?V0 + 4,R2
        MOV     ?V0 + 5,R3
        MOV     A,?V0 + 4
        XRL     A,?V0 + 2
        JNZ     ??ZDO_ProcessActiveEPReq_0
        MOV     A,?V0 + 5
        XRL     A,?V0 + 3
??ZDO_ProcessActiveEPReq_0:
        JNZ     ??ZDO_ProcessActiveEPReq_1
//  745   {
//  746     cnt = afNumEndPoints() - 1;  // -1 for ZDO endpoint descriptor
        ; Setup parameters for call to function afNumEndPoints
        LCALL   ??afNumEndPoints?relay
        MOV     A,R1
        ADD     A,#-0x1
        MOV     ?V0 + 0,A
//  747     afEndPoints( (uint8 *)ZDOBuildBuf, true );
        ; Setup parameters for call to function afEndPoints
        MOV     R1,#0x1
        MOV     R2,#ZDOBuildBuf & 0xff
        MOV     R3,#(ZDOBuildBuf >> 8) & 0xff
        LCALL   ??afEndPoints?relay
        SJMP    ??ZDO_ProcessActiveEPReq_2
//  748   }
//  749   else
//  750   {
//  751     stat = ZDP_INVALID_REQTYPE;
??ZDO_ProcessActiveEPReq_1:
        MOV     ?V0 + 1,#-0x80
//  752   }
//  753 
//  754   ZDP_ActiveEPRsp( inMsg->TransSeq, &(inMsg->srcAddr), stat,
//  755                   aoi, cnt, (uint8 *)ZDOBuildBuf, inMsg->SecurityUse );
??ZDO_ProcessActiveEPReq_2:
        ; Setup parameters for call to function ZDP_EPRsp
        MOV     A,R6
        ADD     A,#0xe
        MOV     DPL,A
        MOV     A,R7
        ADDC    A,#0x0
        MOV     DPH,A
        MOVX    A,@DPTR
        MOV     ?V0 + 4,A
        MOV     R0,#?V0 + 4
        LCALL   ?PUSH_XSTACK_I_ONE
        CFI CFA_XSP16 add(XSP16, 15)
        MOV     ?V0 + 4,#ZDOBuildBuf & 0xff
        MOV     ?V0 + 5,#(ZDOBuildBuf >> 8) & 0xff
        MOV     R0,#?V0 + 4
        LCALL   ?PUSH_XSTACK_I_TWO
        CFI CFA_XSP16 add(XSP16, 17)
        MOV     A,?V0 + 0
        MOV     ?V0 + 4,A
        MOV     R0,#?V0 + 4
        LCALL   ?PUSH_XSTACK_I_ONE
        CFI CFA_XSP16 add(XSP16, 18)
        MOV     R0,#?V0 + 2
        LCALL   ?PUSH_XSTACK_I_TWO
        CFI CFA_XSP16 add(XSP16, 20)
        MOV     A,?V0 + 1
        MOV     ?V0 + 4,A
        MOV     R0,#?V0 + 4
        LCALL   ?PUSH_XSTACK_I_ONE
        CFI CFA_XSP16 add(XSP16, 21)
        MOV     A,R6
        ADD     A,#0x2
        MOV     R4,A
        MOV     A,R7
        ADDC    A,#0x0
        MOV     R5,A
        MOV     A,R6
        ADD     A,#0xf
        MOV     DPL,A
        MOV     A,R7
        ADDC    A,#0x0
        MOV     DPH,A
        MOVX    A,@DPTR
        MOV     R1,A
        MOV     R2,#0x5
        MOV     R3,#-0x80
        LCALL   ??ZDP_EPRsp?relay
        MOV     A,#0x7
        LCALL   ?DEALLOC_XSTACK8
        CFI CFA_XSP16 add(XSP16, 14)
        MOV     A,R1
//  756 }
        MOV     R7,#0x6
        LJMP    ?BANKED_LEAVE_XDATA
        CFI EndBlock cfiBlock12
//  757 
//  758 /*********************************************************************
//  759  * @fn          ZDO_ConvertOTAClusters
//  760  *
//  761  * @brief       This function will convert the over-the-air cluster list
//  762  *              format to an internal format.
//  763  *
//  764  * @param       inMsg  - incoming message (request)
//  765  *
//  766  * @return      pointer to incremented inBuf
//  767  */

        RSEG BANKED_CODE:CODE:NOROOT(0)
//  768 uint8 *ZDO_ConvertOTAClusters( uint8 cnt, uint8 *inBuf, uint16 *outList )
ZDO_ConvertOTAClusters:
        CFI Block cfiBlock13 Using cfiCommon0
        CFI Function ZDO_ConvertOTAClusters
        CODE
//  769 {
        MOV     A,#-0xb
        LCALL   ?BANKED_ENTER_XDATA
        CFI DPH0 load(1, XDATA, add(CFA_XSP16, literal(-1)))
        CFI DPL0 load(1, XDATA, add(CFA_XSP16, literal(-2)))
        CFI ?BRET_EXT load(1, XDATA, add(CFA_XSP16, literal(-3)))
        CFI ?RET_HIGH load(1, XDATA, add(CFA_XSP16, literal(-4)))
        CFI ?RET_LOW load(1, XDATA, add(CFA_XSP16, literal(-5)))
        CFI R7 load(1, XDATA, add(CFA_XSP16, literal(-6)))
        CFI V2 load(1, XDATA, add(CFA_XSP16, literal(-7)))
        CFI V1 load(1, XDATA, add(CFA_XSP16, literal(-8)))
        CFI V0 load(1, XDATA, add(CFA_XSP16, literal(-9)))
        CFI VB load(1, XDATA, add(CFA_XSP16, literal(-10)))
        CFI R6 load(1, XDATA, add(CFA_XSP16, literal(-11)))
        CFI CFA_SP SP+0
        CFI CFA_XSP16 add(XSP16, 11)
        ; Saved register size: 11
        ; Auto size: 0
        MOV     A,R1
        MOV     R6,A
//  770   uint8 x;
//  771 
//  772   for ( x = 0; x < cnt; x++ )
        MOV     ?V0 + 2,#0x0
??ZDO_ConvertOTAClusters_0:
        MOV     A,?V0 + 2
        CLR     C
        SUBB    A,R6
        JNC     ??ZDO_ConvertOTAClusters_1
//  773   {
//  774     // convert ota format to internal
//  775     outList[x] = BUILD_UINT16( inBuf[0], inBuf[1] );
        MOV     DPL,R2
        MOV     DPH,R3
        MOVX    A,@DPTR
        MOV     ?V0 + 0,A
        MOV     ?V0 + 1,#0x0
        MOV     DPL,R2
        MOV     DPH,R3
        INC     DPTR
        MOVX    A,@DPTR
        MOV     R0,A
        MOV     R1,#0x0
        CLR     A
        XCH     A,R0
        MOV     R1,A
        MOV     A,?V0 + 0
        ADD     A,R0
        MOV     ?V0 + 0,A
        MOV     A,?V0 + 1
        ADDC    A,R1
        MOV     ?V0 + 1,A
        MOV     A,?V0 + 2
        MOV     R0,?V0 + 2
        MOV     R1,#0x0
        MOV     A,R0
        MOV     B,#0x2
        MUL     AB
        XCH     A,R0
        MOV     R7,B
        MOV     B,#0x0
        MUL     AB
        ADD     A,R7
        MOV     R7,A
        MOV     B,#0x2
        MOV     A,R1
        MUL     AB
        ADD     A,R7
        MOV     R1,A
        MOV     A,R4
        ADD     A,R0
        MOV     DPL,A
        MOV     A,R5
        ADDC    A,R1
        MOV     DPH,A
        MOV     A,?V0 + 0
        MOVX    @DPTR,A
        INC     DPTR
        MOV     A,?V0 + 1
        MOVX    @DPTR,A
//  776     inBuf += sizeof( uint16 );
        MOV     A,R2
        ADD     A,#0x2
        MOV     R2,A
        MOV     A,R3
        ADDC    A,#0x0
        MOV     R3,A
//  777   }
        INC     ?V0 + 2
        SJMP    ??ZDO_ConvertOTAClusters_0
//  778   return ( inBuf );
??ZDO_ConvertOTAClusters_1:
        MOV     R7,#0x3
        LJMP    ?BANKED_LEAVE_XDATA
        CFI EndBlock cfiBlock13
//  779 }
//  780 
//  781 /*********************************************************************
//  782  * @fn          ZDO_ProcessMatchDescReq
//  783  *
//  784  * @brief       This function processes and responds to the
//  785  *              Match_Desc_req message.
//  786  *
//  787  * @param       inMsg  - incoming message (request)
//  788  *
//  789  * @return      none
//  790  */

        RSEG BANKED_CODE:CODE:NOROOT(0)
//  791 void ZDO_ProcessMatchDescReq( zdoIncomingMsg_t *inMsg )
ZDO_ProcessMatchDescReq:
        CFI Block cfiBlock14 Using cfiCommon0
        CFI Function ZDO_ProcessMatchDescReq
        CODE
//  792 {
        FUNCALL ZDO_ProcessMatchDescReq, NLME_IsAddressBroadcast
        LOCFRAME ISTACK, 0, STACK
        LOCFRAME PSTACK, 0, STACK
        LOCFRAME XSTACK, 34, STACK
        LOCFRAME IOVERLAY, 0, STATIC
        LOCFRAME DOVERLAY, 0, STATIC
        ARGFRAME ISTACK, 0, STACK
        ARGFRAME PSTACK, 0, STACK
        ARGFRAME XSTACK, 34, STACK
        ARGFRAME IOVERLAY, 0, STATIC
        ARGFRAME DOVERLAY, 0, STATIC
        FUNCALL ZDO_ProcessMatchDescReq, ZDP_EPRsp
        LOCFRAME ISTACK, 0, STACK
        LOCFRAME PSTACK, 0, STACK
        LOCFRAME XSTACK, 41, STACK
        LOCFRAME IOVERLAY, 0, STATIC
        LOCFRAME DOVERLAY, 0, STATIC
        ARGFRAME ISTACK, 0, STACK
        ARGFRAME PSTACK, 0, STACK
        ARGFRAME XSTACK, 41, STACK
        ARGFRAME IOVERLAY, 0, STATIC
        ARGFRAME DOVERLAY, 0, STATIC
        FUNCALL ZDO_ProcessMatchDescReq, NLME_IsAddressBroadcast
        LOCFRAME ISTACK, 0, STACK
        LOCFRAME PSTACK, 0, STACK
        LOCFRAME XSTACK, 34, STACK
        LOCFRAME IOVERLAY, 0, STATIC
        LOCFRAME DOVERLAY, 0, STATIC
        ARGFRAME ISTACK, 0, STACK
        ARGFRAME PSTACK, 0, STACK
        ARGFRAME XSTACK, 34, STACK
        ARGFRAME IOVERLAY, 0, STATIC
        ARGFRAME DOVERLAY, 0, STATIC
        FUNCALL ZDO_ProcessMatchDescReq, ZDP_EPRsp
        LOCFRAME ISTACK, 0, STACK
        LOCFRAME PSTACK, 0, STACK
        LOCFRAME XSTACK, 41, STACK
        LOCFRAME IOVERLAY, 0, STATIC
        LOCFRAME DOVERLAY, 0, STATIC
        ARGFRAME ISTACK, 0, STACK
        ARGFRAME PSTACK, 0, STACK
        ARGFRAME XSTACK, 41, STACK
        ARGFRAME IOVERLAY, 0, STATIC
        ARGFRAME DOVERLAY, 0, STATIC
        FUNCALL ZDO_ProcessMatchDescReq, osal_mem_alloc
        LOCFRAME ISTACK, 0, STACK
        LOCFRAME PSTACK, 0, STACK
        LOCFRAME XSTACK, 34, STACK
        LOCFRAME IOVERLAY, 0, STATIC
        LOCFRAME DOVERLAY, 0, STATIC
        ARGFRAME ISTACK, 0, STACK
        ARGFRAME PSTACK, 0, STACK
        ARGFRAME XSTACK, 34, STACK
        ARGFRAME IOVERLAY, 0, STATIC
        ARGFRAME DOVERLAY, 0, STATIC
        FUNCALL ZDO_ProcessMatchDescReq, ZDO_ConvertOTAClusters
        LOCFRAME ISTACK, 0, STACK
        LOCFRAME PSTACK, 0, STACK
        LOCFRAME XSTACK, 34, STACK
        LOCFRAME IOVERLAY, 0, STATIC
        LOCFRAME DOVERLAY, 0, STATIC
        ARGFRAME ISTACK, 0, STACK
        ARGFRAME PSTACK, 0, STACK
        ARGFRAME XSTACK, 34, STACK
        ARGFRAME IOVERLAY, 0, STATIC
        ARGFRAME DOVERLAY, 0, STATIC
        FUNCALL ZDO_ProcessMatchDescReq, osal_mem_alloc
        LOCFRAME ISTACK, 0, STACK
        LOCFRAME PSTACK, 0, STACK
        LOCFRAME XSTACK, 34, STACK
        LOCFRAME IOVERLAY, 0, STATIC
        LOCFRAME DOVERLAY, 0, STATIC
        ARGFRAME ISTACK, 0, STACK
        ARGFRAME PSTACK, 0, STACK
        ARGFRAME XSTACK, 34, STACK
        ARGFRAME IOVERLAY, 0, STATIC
        ARGFRAME DOVERLAY, 0, STATIC
        FUNCALL ZDO_ProcessMatchDescReq, ZDO_ConvertOTAClusters
        LOCFRAME ISTACK, 0, STACK
        LOCFRAME PSTACK, 0, STACK
        LOCFRAME XSTACK, 34, STACK
        LOCFRAME IOVERLAY, 0, STATIC
        LOCFRAME DOVERLAY, 0, STATIC
        ARGFRAME ISTACK, 0, STACK
        ARGFRAME PSTACK, 0, STACK
        ARGFRAME XSTACK, 34, STACK
        ARGFRAME IOVERLAY, 0, STATIC
        ARGFRAME DOVERLAY, 0, STATIC
        FUNCALL ZDO_ProcessMatchDescReq, ZDO_AnyClusterMatches
        LOCFRAME ISTACK, 0, STACK
        LOCFRAME PSTACK, 0, STACK
        LOCFRAME XSTACK, 36, STACK
        LOCFRAME IOVERLAY, 0, STATIC
        LOCFRAME DOVERLAY, 0, STATIC
        ARGFRAME ISTACK, 0, STACK
        ARGFRAME PSTACK, 0, STACK
        ARGFRAME XSTACK, 36, STACK
        ARGFRAME IOVERLAY, 0, STATIC
        ARGFRAME DOVERLAY, 0, STATIC
        FUNCALL ZDO_ProcessMatchDescReq, ZDO_AnyClusterMatches
        LOCFRAME ISTACK, 0, STACK
        LOCFRAME PSTACK, 0, STACK
        LOCFRAME XSTACK, 36, STACK
        LOCFRAME IOVERLAY, 0, STATIC
        LOCFRAME DOVERLAY, 0, STATIC
        ARGFRAME ISTACK, 0, STACK
        ARGFRAME PSTACK, 0, STACK
        ARGFRAME XSTACK, 36, STACK
        ARGFRAME IOVERLAY, 0, STATIC
        ARGFRAME DOVERLAY, 0, STATIC
        FUNCALL ZDO_ProcessMatchDescReq, osal_msg_allocate
        LOCFRAME ISTACK, 0, STACK
        LOCFRAME PSTACK, 0, STACK
        LOCFRAME XSTACK, 34, STACK
        LOCFRAME IOVERLAY, 0, STATIC
        LOCFRAME DOVERLAY, 0, STATIC
        ARGFRAME ISTACK, 0, STACK
        ARGFRAME PSTACK, 0, STACK
        ARGFRAME XSTACK, 34, STACK
        ARGFRAME IOVERLAY, 0, STATIC
        ARGFRAME DOVERLAY, 0, STATIC
        FUNCALL ZDO_ProcessMatchDescReq, osal_memcpy
        LOCFRAME ISTACK, 0, STACK
        LOCFRAME PSTACK, 0, STACK
        LOCFRAME XSTACK, 37, STACK
        LOCFRAME IOVERLAY, 0, STATIC
        LOCFRAME DOVERLAY, 0, STATIC
        ARGFRAME ISTACK, 0, STACK
        ARGFRAME PSTACK, 0, STACK
        ARGFRAME XSTACK, 37, STACK
        ARGFRAME IOVERLAY, 0, STATIC
        ARGFRAME DOVERLAY, 0, STATIC
        FUNCALL ZDO_ProcessMatchDescReq, osal_memcpy
        LOCFRAME ISTACK, 0, STACK
        LOCFRAME PSTACK, 0, STACK
        LOCFRAME XSTACK, 37, STACK
        LOCFRAME IOVERLAY, 0, STATIC
        LOCFRAME DOVERLAY, 0, STATIC
        ARGFRAME ISTACK, 0, STACK
        ARGFRAME PSTACK, 0, STACK
        ARGFRAME XSTACK, 37, STACK
        ARGFRAME IOVERLAY, 0, STATIC
        ARGFRAME DOVERLAY, 0, STATIC
        FUNCALL ZDO_ProcessMatchDescReq, osal_msg_send
        LOCFRAME ISTACK, 0, STACK
        LOCFRAME PSTACK, 0, STACK
        LOCFRAME XSTACK, 34, STACK
        LOCFRAME IOVERLAY, 0, STATIC
        LOCFRAME DOVERLAY, 0, STATIC
        ARGFRAME ISTACK, 0, STACK
        ARGFRAME PSTACK, 0, STACK
        ARGFRAME XSTACK, 34, STACK
        ARGFRAME IOVERLAY, 0, STATIC
        ARGFRAME DOVERLAY, 0, STATIC
        FUNCALL ZDO_ProcessMatchDescReq, osal_mem_free
        LOCFRAME ISTACK, 0, STACK
        LOCFRAME PSTACK, 0, STACK
        LOCFRAME XSTACK, 34, STACK
        LOCFRAME IOVERLAY, 0, STATIC
        LOCFRAME DOVERLAY, 0, STATIC
        ARGFRAME ISTACK, 0, STACK
        ARGFRAME PSTACK, 0, STACK
        ARGFRAME XSTACK, 34, STACK
        ARGFRAME IOVERLAY, 0, STATIC
        ARGFRAME DOVERLAY, 0, STATIC
        FUNCALL ZDO_ProcessMatchDescReq, ZDP_EPRsp
        LOCFRAME ISTACK, 0, STACK
        LOCFRAME PSTACK, 0, STACK
        LOCFRAME XSTACK, 41, STACK
        LOCFRAME IOVERLAY, 0, STATIC
        LOCFRAME DOVERLAY, 0, STATIC
        ARGFRAME ISTACK, 0, STACK
        ARGFRAME PSTACK, 0, STACK
        ARGFRAME XSTACK, 41, STACK
        ARGFRAME IOVERLAY, 0, STATIC
        ARGFRAME DOVERLAY, 0, STATIC
        FUNCALL ZDO_ProcessMatchDescReq, NLME_IsAddressBroadcast
        LOCFRAME ISTACK, 0, STACK
        LOCFRAME PSTACK, 0, STACK
        LOCFRAME XSTACK, 34, STACK
        LOCFRAME IOVERLAY, 0, STATIC
        LOCFRAME DOVERLAY, 0, STATIC
        ARGFRAME ISTACK, 0, STACK
        ARGFRAME PSTACK, 0, STACK
        ARGFRAME XSTACK, 34, STACK
        ARGFRAME IOVERLAY, 0, STATIC
        ARGFRAME DOVERLAY, 0, STATIC
        FUNCALL ZDO_ProcessMatchDescReq, ZDP_EPRsp
        LOCFRAME ISTACK, 0, STACK
        LOCFRAME PSTACK, 0, STACK
        LOCFRAME XSTACK, 41, STACK
        LOCFRAME IOVERLAY, 0, STATIC
        LOCFRAME DOVERLAY, 0, STATIC
        ARGFRAME ISTACK, 0, STACK
        ARGFRAME PSTACK, 0, STACK
        ARGFRAME XSTACK, 41, STACK
        ARGFRAME IOVERLAY, 0, STATIC
        ARGFRAME DOVERLAY, 0, STATIC
        FUNCALL ZDO_ProcessMatchDescReq, osal_mem_free
        LOCFRAME ISTACK, 0, STACK
        LOCFRAME PSTACK, 0, STACK
        LOCFRAME XSTACK, 34, STACK
        LOCFRAME IOVERLAY, 0, STATIC
        LOCFRAME DOVERLAY, 0, STATIC
        ARGFRAME ISTACK, 0, STACK
        ARGFRAME PSTACK, 0, STACK
        ARGFRAME XSTACK, 34, STACK
        ARGFRAME IOVERLAY, 0, STATIC
        ARGFRAME DOVERLAY, 0, STATIC
        FUNCALL ZDO_ProcessMatchDescReq, osal_mem_free
        LOCFRAME ISTACK, 0, STACK
        LOCFRAME PSTACK, 0, STACK
        LOCFRAME XSTACK, 34, STACK
        LOCFRAME IOVERLAY, 0, STATIC
        LOCFRAME DOVERLAY, 0, STATIC
        ARGFRAME ISTACK, 0, STACK
        ARGFRAME PSTACK, 0, STACK
        ARGFRAME XSTACK, 34, STACK
        ARGFRAME IOVERLAY, 0, STATIC
        ARGFRAME DOVERLAY, 0, STATIC
        MOV     A,#-0x18
        LCALL   ?BANKED_ENTER_XDATA
        CFI DPH0 load(1, XDATA, add(CFA_XSP16, literal(-1)))
        CFI DPL0 load(1, XDATA, add(CFA_XSP16, literal(-2)))
        CFI ?BRET_EXT load(1, XDATA, add(CFA_XSP16, literal(-3)))
        CFI ?RET_HIGH load(1, XDATA, add(CFA_XSP16, literal(-4)))
        CFI ?RET_LOW load(1, XDATA, add(CFA_XSP16, literal(-5)))
        CFI R7 load(1, XDATA, add(CFA_XSP16, literal(-6)))
        CFI V15 load(1, XDATA, add(CFA_XSP16, literal(-7)))
        CFI V14 load(1, XDATA, add(CFA_XSP16, literal(-8)))
        CFI V13 load(1, XDATA, add(CFA_XSP16, literal(-9)))
        CFI V12 load(1, XDATA, add(CFA_XSP16, literal(-10)))
        CFI V11 load(1, XDATA, add(CFA_XSP16, literal(-11)))
        CFI V10 load(1, XDATA, add(CFA_XSP16, literal(-12)))
        CFI V9 load(1, XDATA, add(CFA_XSP16, literal(-13)))
        CFI V8 load(1, XDATA, add(CFA_XSP16, literal(-14)))
        CFI V7 load(1, XDATA, add(CFA_XSP16, literal(-15)))
        CFI V6 load(1, XDATA, add(CFA_XSP16, literal(-16)))
        CFI V5 load(1, XDATA, add(CFA_XSP16, literal(-17)))
        CFI V4 load(1, XDATA, add(CFA_XSP16, literal(-18)))
        CFI V3 load(1, XDATA, add(CFA_XSP16, literal(-19)))
        CFI V2 load(1, XDATA, add(CFA_XSP16, literal(-20)))
        CFI V1 load(1, XDATA, add(CFA_XSP16, literal(-21)))
        CFI V0 load(1, XDATA, add(CFA_XSP16, literal(-22)))
        CFI VB load(1, XDATA, add(CFA_XSP16, literal(-23)))
        CFI R6 load(1, XDATA, add(CFA_XSP16, literal(-24)))
        CFI CFA_SP SP+0
        CFI CFA_XSP16 add(XSP16, 24)
        ; Saved register size: 24
        ; Auto size: 10
        MOV     A,#-0xa
        LCALL   ?ALLOC_XSTACK8
        CFI CFA_XSP16 add(XSP16, 34)
        MOV     ?V0 + 8,R2
        MOV     ?V0 + 9,R3
//  793   uint8 epCnt = 0;
        MOV     ?V0 + 14,#0x0
//  794   uint8 numInClusters;
//  795   uint16 *inClusters = NULL;
        MOV     A,#0x2
        LCALL   ?XSTACK_DISP0_8
        MOV     A,#0x0
        MOVX    @DPTR,A
        INC     DPTR
        MOV     A,#0x0
        MOVX    @DPTR,A
//  796   uint8 numOutClusters;
//  797   uint16 *outClusters = NULL;
        MOV     DPL,?XSP + 0
        MOV     DPH,?XSP + 1
        MOV     A,#0x0
        MOVX    @DPTR,A
        INC     DPTR
        MOV     A,#0x0
        MOVX    @DPTR,A
//  798   epList_t *epDesc;
//  799   SimpleDescriptionFormat_t *sDesc = NULL;
        MOV     ?V0 + 10,#0x0
        MOV     ?V0 + 11,#0x0
//  800   uint8 allocated;
//  801   uint8 *msg;
//  802   uint16 aoi;
//  803   uint16 profileID;
//  804 
//  805   // Parse the incoming message
//  806   msg = inMsg->asdu;
        MOV     A,?V0 + 8
        ADD     A,#0x13
        MOV     DPL,A
        MOV     A,?V0 + 9
        ADDC    A,#0x0
        MOV     DPH,A
        MOVX    A,@DPTR
        MOV     R0,A
        INC     DPTR
        MOVX    A,@DPTR
        MOV     R1,A
        MOV     A,R0
        MOV     R6,A
        MOV     A,R1
        MOV     R7,A
//  807   aoi = BUILD_UINT16( msg[0], msg[1] );
        MOV     DPL,R6
        MOV     DPH,R7
        MOVX    A,@DPTR
        MOV     R2,A
        MOV     R3,#0x0
        MOV     DPL,R6
        MOV     DPH,R7
        INC     DPTR
        MOVX    A,@DPTR
        MOV     R0,A
        MOV     R1,#0x0
        CLR     A
        XCH     A,R0
        MOV     R1,A
        MOV     A,R2
        ADD     A,R0
        MOV     R0,A
        MOV     A,R3
        ADDC    A,R1
        MOV     R1,A
        MOV     A,#0x4
        LCALL   ?XSTACK_DISP0_8
        MOV     A,R0
        MOVX    @DPTR,A
        INC     DPTR
        MOV     A,R1
        MOVX    @DPTR,A
//  808   profileID = BUILD_UINT16( msg[2], msg[3] );
        MOV     DPL,R6
        MOV     DPH,R7
        INC     DPTR
        INC     DPTR
        MOVX    A,@DPTR
        MOV     R2,A
        MOV     R3,#0x0
        MOV     DPL,R6
        MOV     DPH,R7
        INC     DPTR
        INC     DPTR
        INC     DPTR
        MOVX    A,@DPTR
        MOV     R0,A
        MOV     R1,#0x0
        CLR     A
        XCH     A,R0
        MOV     R1,A
        MOV     A,R2
        ADD     A,R0
        MOV     R0,A
        MOV     A,R3
        ADDC    A,R1
        MOV     R1,A
        MOV     A,#0x8
        LCALL   ?XSTACK_DISP0_8
        MOV     A,R0
        MOVX    @DPTR,A
        INC     DPTR
        MOV     A,R1
        MOVX    @DPTR,A
//  809   msg += 4;
        MOV     A,R6
        ADD     A,#0x4
        MOV     R6,A
        MOV     A,R7
        ADDC    A,#0x0
        MOV     R7,A
//  810 
//  811   if ( ADDR_BCAST_NOT_ME == NLME_IsAddressBroadcast(aoi) )
        ; Setup parameters for call to function NLME_IsAddressBroadcast
        MOV     A,#0x4
        LCALL   ?XSTACK_DISP0_8
        MOVX    A,@DPTR
        MOV     R2,A
        INC     DPTR
        MOVX    A,@DPTR
        MOV     R3,A
        LCALL   ??NLME_IsAddressBroadcast?relay
        MOV     A,R1
        XRL     A,#0x1
        JNZ     ??ZDO_ProcessMatchDescReq_0
//  812   {
//  813     ZDP_MatchDescRsp( inMsg->TransSeq, &(inMsg->srcAddr), ZDP_INVALID_REQTYPE,
//  814                           ZDAppNwkAddr.addr.shortAddr, 0, NULL, inMsg->SecurityUse );
        ; Setup parameters for call to function ZDP_EPRsp
        MOV     A,?V0 + 8
        ADD     A,#0xe
        MOV     DPL,A
        MOV     A,?V0 + 9
        ADDC    A,#0x0
        MOV     DPH,A
        MOVX    A,@DPTR
        MOV     ?V0 + 0,A
        MOV     R0,#?V0 + 0
        LCALL   ?PUSH_XSTACK_I_ONE
        CFI CFA_XSP16 add(XSP16, 35)
        CLR     A
        MOV     ?V0 + 0,A
        MOV     ?V0 + 1,A
        MOV     R0,#?V0 + 0
        LCALL   ?PUSH_XSTACK_I_TWO
        CFI CFA_XSP16 add(XSP16, 37)
        MOV     ?V0 + 0,#0x0
        MOV     R0,#?V0 + 0
        LCALL   ?PUSH_XSTACK_I_ONE
        CFI CFA_XSP16 add(XSP16, 38)
        MOV     DPTR,#ZDAppNwkAddr
        LCALL   ?PUSH_XSTACK8_X_TWO
        CFI CFA_XSP16 add(XSP16, 40)
        MOV     ?V0 + 0,#-0x80
        MOV     R0,#?V0 + 0
        LCALL   ?PUSH_XSTACK_I_ONE
        CFI CFA_XSP16 add(XSP16, 41)
        MOV     A,?V0 + 8
        ADD     A,#0x2
        MOV     R4,A
        MOV     A,?V0 + 9
        ADDC    A,#0x0
        MOV     R5,A
        MOV     A,?V0 + 8
        ADD     A,#0xf
        MOV     DPL,A
        MOV     A,?V0 + 9
        ADDC    A,#0x0
        MOV     DPH,A
        MOVX    A,@DPTR
        MOV     R1,A
        MOV     R2,#0x6
        MOV     R3,#-0x80
        LCALL   ??ZDP_EPRsp?relay
        MOV     A,#0x7
        LCALL   ?DEALLOC_XSTACK8
        CFI CFA_XSP16 add(XSP16, 34)
        MOV     A,R1
//  815     return;
        LJMP    ??ZDO_ProcessMatchDescReq_1 & 0xFFFF
//  816   }
//  817   else if ( (ADDR_NOT_BCAST == NLME_IsAddressBroadcast(aoi)) && (aoi != ZDAppNwkAddr.addr.shortAddr) )
??ZDO_ProcessMatchDescReq_0:
        ; Setup parameters for call to function NLME_IsAddressBroadcast
        MOV     A,#0x4
        LCALL   ?XSTACK_DISP0_8
        MOVX    A,@DPTR
        MOV     R2,A
        INC     DPTR
        MOVX    A,@DPTR
        MOV     R3,A
        LCALL   ??NLME_IsAddressBroadcast?relay
        MOV     A,R1
        JNZ     ??ZDO_ProcessMatchDescReq_2
        MOV     A,#0x4
        LCALL   ?XSTACK_DISP0_8
        MOVX    A,@DPTR
        MOV     R0,A
        INC     DPTR
        MOVX    A,@DPTR
        MOV     R1,A
        MOV     DPTR,#ZDAppNwkAddr
        MOVX    A,@DPTR
        XRL     A,R0
        JNZ     ??ZDO_ProcessMatchDescReq_3
        INC     DPTR
        MOVX    A,@DPTR
        XRL     A,R1
??ZDO_ProcessMatchDescReq_3:
        JZ      ??ZDO_ProcessMatchDescReq_2
//  818   {
//  819     ZDP_MatchDescRsp( inMsg->TransSeq, &(inMsg->srcAddr), ZDP_INVALID_REQTYPE,
//  820                              ZDAppNwkAddr.addr.shortAddr, 0, NULL, inMsg->SecurityUse );
        ; Setup parameters for call to function ZDP_EPRsp
        MOV     A,?V0 + 8
        ADD     A,#0xe
        MOV     DPL,A
        MOV     A,?V0 + 9
        ADDC    A,#0x0
        MOV     DPH,A
        MOVX    A,@DPTR
        MOV     ?V0 + 0,A
        MOV     R0,#?V0 + 0
        LCALL   ?PUSH_XSTACK_I_ONE
        CFI CFA_XSP16 add(XSP16, 35)
        CLR     A
        MOV     ?V0 + 0,A
        MOV     ?V0 + 1,A
        MOV     R0,#?V0 + 0
        LCALL   ?PUSH_XSTACK_I_TWO
        CFI CFA_XSP16 add(XSP16, 37)
        MOV     ?V0 + 0,#0x0
        MOV     R0,#?V0 + 0
        LCALL   ?PUSH_XSTACK_I_ONE
        CFI CFA_XSP16 add(XSP16, 38)
        MOV     DPTR,#ZDAppNwkAddr
        LCALL   ?PUSH_XSTACK8_X_TWO
        CFI CFA_XSP16 add(XSP16, 40)
        MOV     ?V0 + 0,#-0x80
        MOV     R0,#?V0 + 0
        LCALL   ?PUSH_XSTACK_I_ONE
        CFI CFA_XSP16 add(XSP16, 41)
        MOV     A,?V0 + 8
        ADD     A,#0x2
        MOV     R4,A
        MOV     A,?V0 + 9
        ADDC    A,#0x0
        MOV     R5,A
        MOV     A,?V0 + 8
        ADD     A,#0xf
        MOV     DPL,A
        MOV     A,?V0 + 9
        ADDC    A,#0x0
        MOV     DPH,A
        MOVX    A,@DPTR
        MOV     R1,A
        MOV     R2,#0x6
        MOV     R3,#-0x80
        LCALL   ??ZDP_EPRsp?relay
        MOV     A,#0x7
        LCALL   ?DEALLOC_XSTACK8
        CFI CFA_XSP16 add(XSP16, 34)
        MOV     A,R1
//  821     return;
        LJMP    ??ZDO_ProcessMatchDescReq_1 & 0xFFFF
//  822   }
//  823 
//  824   if ((numInClusters = *msg++) &&
//  825       (inClusters = (uint16*)osal_mem_alloc( numInClusters * sizeof( uint16 ) )))
??ZDO_ProcessMatchDescReq_2:
        MOV     DPL,R6
        MOV     DPH,R7
        MOVX    A,@DPTR
        MOV     R0,A
        MOV     DPL,R6
        MOV     DPH,R7
        INC     DPTR
        MOV     R6,DPL
        MOV     R7,DPH
        MOV     ?V0 + 2,R0
        MOV     A,R0
        JZ      ??ZDO_ProcessMatchDescReq_4
        ; Setup parameters for call to function osal_mem_alloc
        MOV     A,?V0 + 2
        MOV     R2,?V0 + 2
        MOV     R3,#0x0
        MOV     A,R2
        MOV     B,#0x2
        MUL     AB
        XCH     A,R2
        MOV     R0,B
        MOV     B,#0x0
        MUL     AB
        ADD     A,R0
        MOV     R0,A
        MOV     B,#0x2
        MOV     A,R3
        MUL     AB
        ADD     A,R0
        MOV     R3,A
        LCALL   ??osal_mem_alloc?relay
        MOV     ?V0 + 0,R2
        MOV     ?V0 + 1,R3
        MOV     R0,?V0 + 0
        MOV     R1,?V0 + 1
        MOV     A,#0x2
        LCALL   ?XSTACK_DISP0_8
        MOV     A,R0
        MOVX    @DPTR,A
        INC     DPTR
        MOV     A,R1
        MOVX    @DPTR,A
        MOV     A,R0
        ORL     A,R1
        JZ      ??ZDO_ProcessMatchDescReq_4
//  826   {
//  827     msg = ZDO_ConvertOTAClusters( numInClusters, msg, inClusters );
        ; Setup parameters for call to function ZDO_ConvertOTAClusters
        MOV     A,#0x2
        LCALL   ?XSTACK_DISP0_8
        MOVX    A,@DPTR
        MOV     R4,A
        INC     DPTR
        MOVX    A,@DPTR
        MOV     R5,A
        MOV     A,R6
        MOV     R2,A
        MOV     A,R7
        MOV     R3,A
        MOV     R1,?V0 + 2
        LCALL   ??ZDO_ConvertOTAClusters?relay
        MOV     ?V0 + 0,R2
        MOV     ?V0 + 1,R3
        MOV     R6,?V0 + 0
        MOV     R7,?V0 + 1
        SJMP    ??ZDO_ProcessMatchDescReq_5
//  828   }
//  829   else
//  830   {
//  831     numInClusters = 0;
??ZDO_ProcessMatchDescReq_4:
        MOV     ?V0 + 2,#0x0
//  832   }
//  833 
//  834   if ((numOutClusters = *msg++) &&
//  835       (outClusters = (uint16 *)osal_mem_alloc( numOutClusters * sizeof( uint16 ) )))
??ZDO_ProcessMatchDescReq_5:
        MOV     DPL,R6
        MOV     DPH,R7
        MOVX    A,@DPTR
        MOV     R0,A
        MOV     DPL,R6
        MOV     DPH,R7
        INC     DPTR
        MOV     R6,DPL
        MOV     R7,DPH
        MOV     ?V0 + 3,R0
        MOV     A,R0
        JZ      ??ZDO_ProcessMatchDescReq_6
        ; Setup parameters for call to function osal_mem_alloc
        MOV     A,?V0 + 3
        MOV     R2,?V0 + 3
        MOV     R3,#0x0
        MOV     A,R2
        MOV     B,#0x2
        MUL     AB
        XCH     A,R2
        MOV     R0,B
        MOV     B,#0x0
        MUL     AB
        ADD     A,R0
        MOV     R0,A
        MOV     B,#0x2
        MOV     A,R3
        MUL     AB
        ADD     A,R0
        MOV     R3,A
        LCALL   ??osal_mem_alloc?relay
        MOV     ?V0 + 0,R2
        MOV     ?V0 + 1,R3
        MOV     R0,?V0 + 0
        MOV     R1,?V0 + 1
        MOV     DPL,?XSP + 0
        MOV     DPH,?XSP + 1
        MOV     A,R0
        MOVX    @DPTR,A
        INC     DPTR
        MOV     A,R1
        MOVX    @DPTR,A
        MOV     A,R0
        ORL     A,R1
        JZ      ??ZDO_ProcessMatchDescReq_6
//  836   {
//  837     msg = ZDO_ConvertOTAClusters( numOutClusters, msg, outClusters );
        ; Setup parameters for call to function ZDO_ConvertOTAClusters
        MOV     DPL,?XSP + 0
        MOV     DPH,?XSP + 1
        MOVX    A,@DPTR
        MOV     R4,A
        INC     DPTR
        MOVX    A,@DPTR
        MOV     R5,A
        MOV     A,R6
        MOV     R2,A
        MOV     A,R7
        MOV     R3,A
        MOV     R1,?V0 + 3
        LCALL   ??ZDO_ConvertOTAClusters?relay
        MOV     ?V0 + 0,R2
        MOV     ?V0 + 1,R3
        MOV     R6,?V0 + 0
        MOV     R7,?V0 + 1
        SJMP    ??ZDO_ProcessMatchDescReq_7
//  838   }
//  839   else
//  840   {
//  841     numOutClusters = 0;
??ZDO_ProcessMatchDescReq_6:
        MOV     ?V0 + 3,#0x0
//  842   }
//  843 
//  844   // First count the number of endpoints that match.
//  845   epDesc = epList;
??ZDO_ProcessMatchDescReq_7:
        MOV     DPTR,#epList
        MOVX    A,@DPTR
        MOV     R0,A
        INC     DPTR
        MOVX    A,@DPTR
        MOV     R1,A
        MOV     ?V0 + 12,R0
        MOV     ?V0 + 13,R1
//  846   while ( epDesc )
??ZDO_ProcessMatchDescReq_8:
        MOV     A,?V0 + 12
        ORL     A,?V0 + 13
        JNZ     $+5
        LJMP    ??ZDO_ProcessMatchDescReq_9 & 0xFFFF
//  847   {
//  848     // Don't search endpoint 0 and check if response is allowed
//  849     if ( epDesc->epDesc->endPoint != ZDO_EP && (epDesc->flags&eEP_AllowMatch) )
        MOV     DPL,?V0 + 12
        MOV     DPH,?V0 + 13
        INC     DPTR
        INC     DPTR
        MOVX    A,@DPTR
        MOV     R0,A
        INC     DPTR
        MOVX    A,@DPTR
        MOV     DPH,A
        MOV     DPL,R0
        MOVX    A,@DPTR
        JNZ     $+5
        LJMP    ??ZDO_ProcessMatchDescReq_10 & 0xFFFF
        MOV     DPL,?V0 + 12
        MOV     DPH,?V0 + 13
        INC     DPTR
        INC     DPTR
        INC     DPTR
        INC     DPTR
        INC     DPTR
        INC     DPTR
        INC     DPTR
        INC     DPTR
        MOVX    A,@DPTR
        MOV     C,0xE0 /* A   */.0
        JC      $+5
        LJMP    ??ZDO_ProcessMatchDescReq_10 & 0xFFFF
//  850     {
//  851       if ( epDesc->pfnDescCB )
        MOV     DPL,?V0 + 12
        MOV     DPH,?V0 + 13
        INC     DPTR
        INC     DPTR
        INC     DPTR
        INC     DPTR
        MOVX    A,@DPTR
        MOV     R0,A
        INC     DPTR
        MOVX    A,@DPTR
        MOV     R1,A
        MOV     A,R0
        ORL     A,R1
        JZ      ??ZDO_ProcessMatchDescReq_11
//  852       {
//  853         sDesc = (SimpleDescriptionFormat_t *)epDesc->pfnDescCB( AF_DESCRIPTOR_SIMPLE, epDesc->epDesc->endPoint );
        ; Setup parameters for indirect call
        MOV     DPL,?V0 + 12
        MOV     DPH,?V0 + 13
        INC     DPTR
        INC     DPTR
        MOVX    A,@DPTR
        MOV     R0,A
        INC     DPTR
        MOVX    A,@DPTR
        MOV     DPH,A
        MOV     DPL,R0
        MOVX    A,@DPTR
        MOV     R2,A
        MOV     R1,#0x1
        MOV     DPL,?V0 + 12
        MOV     DPH,?V0 + 13
        INC     DPTR
        INC     DPTR
        INC     DPTR
        INC     DPTR
        MOVX    A,@DPTR
        MOV     R0,A
        INC     DPTR
        MOVX    A,@DPTR
        MOV     DPH,A
        MOV     DPL,R0
        LCALL   ?CALL_IND
        MOV     ?V0 + 0,R2
        MOV     ?V0 + 1,R3
        MOV     ?V0 + 10,?V0 + 0
        MOV     ?V0 + 11,?V0 + 1
//  854         allocated = TRUE;
        MOV     ?V0 + 15,#0x1
        SJMP    ??ZDO_ProcessMatchDescReq_12
//  855       }
//  856       else
//  857       {
//  858         sDesc = epDesc->epDesc->simpleDesc;
??ZDO_ProcessMatchDescReq_11:
        MOV     DPL,?V0 + 12
        MOV     DPH,?V0 + 13
        INC     DPTR
        INC     DPTR
        MOVX    A,@DPTR
        MOV     R0,A
        INC     DPTR
        MOVX    A,@DPTR
        MOV     DPH,A
        MOV     DPL,R0
        INC     DPTR
        INC     DPTR
        INC     DPTR
        MOVX    A,@DPTR
        MOV     R0,A
        INC     DPTR
        MOVX    A,@DPTR
        MOV     R1,A
        MOV     ?V0 + 10,R0
        MOV     ?V0 + 11,R1
//  859         allocated = FALSE;
        MOV     ?V0 + 15,#0x0
//  860       }
//  861 
//  862       if ( sDesc && sDesc->AppProfId == profileID )
??ZDO_ProcessMatchDescReq_12:
        MOV     A,?V0 + 10
        ORL     A,?V0 + 11
        JNZ     $+5
        LJMP    ??ZDO_ProcessMatchDescReq_13 & 0xFFFF
        MOV     DPL,?V0 + 10
        MOV     DPH,?V0 + 11
        INC     DPTR
        MOVX    A,@DPTR
        MOV     R0,A
        INC     DPTR
        MOVX    A,@DPTR
        MOV     R1,A
        MOV     A,#0x8
        LCALL   ?XSTACK_DISP0_8
        MOVX    A,@DPTR
        XRL     A,R0
        JNZ     ??ZDO_ProcessMatchDescReq_14
        INC     DPTR
        MOVX    A,@DPTR
        XRL     A,R1
??ZDO_ProcessMatchDescReq_14:
        JZ      $+5
        LJMP    ??ZDO_ProcessMatchDescReq_13 & 0xFFFF
//  863       {
//  864         uint8 *uint8Buf = (uint8 *)ZDOBuildBuf;
        MOV     A,#0x6
        LCALL   ?XSTACK_DISP0_8
        MOV     A,#ZDOBuildBuf & 0xff
        MOVX    @DPTR,A
        INC     DPTR
        MOV     A,#(ZDOBuildBuf >> 8) & 0xff
        MOVX    @DPTR,A
//  865 
//  866         // Are there matching input clusters?
//  867         if ((ZDO_AnyClusterMatches( numInClusters, inClusters,
//  868                    sDesc->AppNumInClusters, sDesc->pAppInClusterList )) ||
//  869             // Are there matching output clusters?
//  870             (ZDO_AnyClusterMatches( numOutClusters, outClusters,
//  871                    sDesc->AppNumOutClusters, sDesc->pAppOutClusterList )))
        ; Setup parameters for call to function ZDO_AnyClusterMatches
        MOV     DPL,?V0 + 10
        MOV     DPH,?V0 + 11
        INC     DPTR
        INC     DPTR
        INC     DPTR
        INC     DPTR
        INC     DPTR
        INC     DPTR
        INC     DPTR
        LCALL   ?PUSH_XSTACK8_X_TWO
        CFI CFA_XSP16 add(XSP16, 36)
        MOV     DPL,?V0 + 10
        MOV     DPH,?V0 + 11
        INC     DPTR
        INC     DPTR
        INC     DPTR
        INC     DPTR
        INC     DPTR
        INC     DPTR
        MOVX    A,@DPTR
        MOV     R4,A
        MOV     A,#0x4
        LCALL   ?XSTACK_DISP0_8
        MOVX    A,@DPTR
        MOV     R2,A
        INC     DPTR
        MOVX    A,@DPTR
        MOV     R3,A
        MOV     R1,?V0 + 2
        LCALL   ??ZDO_AnyClusterMatches?relay
        MOV     A,#0x2
        LCALL   ?DEALLOC_XSTACK8
        CFI CFA_XSP16 add(XSP16, 34)
        MOV     A,R1
        JNZ     ??ZDO_ProcessMatchDescReq_15
        ; Setup parameters for call to function ZDO_AnyClusterMatches
        MOV     DPL,?V0 + 10
        MOV     DPH,?V0 + 11
        INC     DPTR
        INC     DPTR
        INC     DPTR
        INC     DPTR
        INC     DPTR
        INC     DPTR
        INC     DPTR
        INC     DPTR
        INC     DPTR
        INC     DPTR
        LCALL   ?PUSH_XSTACK8_X_TWO
        CFI CFA_XSP16 add(XSP16, 36)
        MOV     DPL,?V0 + 10
        MOV     DPH,?V0 + 11
        INC     DPTR
        INC     DPTR
        INC     DPTR
        INC     DPTR
        INC     DPTR
        INC     DPTR
        INC     DPTR
        INC     DPTR
        INC     DPTR
        MOVX    A,@DPTR
        MOV     R4,A
        MOV     A,#0x2
        LCALL   ?XSTACK_DISP0_8
        MOVX    A,@DPTR
        MOV     R2,A
        INC     DPTR
        MOVX    A,@DPTR
        MOV     R3,A
        MOV     R1,?V0 + 3
        LCALL   ??ZDO_AnyClusterMatches?relay
        MOV     A,#0x2
        LCALL   ?DEALLOC_XSTACK8
        CFI CFA_XSP16 add(XSP16, 34)
        MOV     A,R1
        JNZ     $+5
        LJMP    ??ZDO_ProcessMatchDescReq_13 & 0xFFFF
//  872         {
//  873           // Notify the endpoint of the match.
//  874           uint8 bufLen = sizeof( ZDO_MatchDescRspSent_t ) + (numOutClusters + numInClusters) * sizeof(uint16);
??ZDO_ProcessMatchDescReq_15:
        MOV     B,#0x2
        MOV     ?V0 + 4,?V0 + 3
        MOV     ?V0 + 5,#0x0
        MOV     ?V0 + 0,?V0 + 2
        MOV     ?V0 + 1,#0x0
        MOV     A,?V0 + 4
        ADD     A,?V0 + 0
        MOV     R0,A
        MOV     A,?V0 + 5
        ADDC    A,?V0 + 1
        MOV     R1,A
        MOV     A,R0
        MUL     AB
        ADD     A,#0xa
        MOV     ?V0 + 7,A
//  875           ZDO_MatchDescRspSent_t *pRspSent = (ZDO_MatchDescRspSent_t *) osal_msg_allocate( bufLen );
        ; Setup parameters for call to function osal_msg_allocate
        MOV     ?V0 + 0,?V0 + 7
        MOV     ?V0 + 1,#0x0
        MOV     R2,?V0 + 0
        MOV     R3,?V0 + 1
        LCALL   ??osal_msg_allocate?relay
        MOV     ?V0 + 4,R2
        MOV     ?V0 + 5,R3
        MOV     ?V0 + 0,?V0 + 4
        MOV     ?V0 + 1,?V0 + 5
//  876 
//  877           if (pRspSent)
        MOV     A,?V0 + 0
        ORL     A,?V0 + 1
        JNZ     $+5
        LJMP    ??ZDO_ProcessMatchDescReq_16 & 0xFFFF
//  878           {
//  879             pRspSent->hdr.event = ZDO_MATCH_DESC_RSP_SENT;
        MOV     DPL,?V0 + 0
        MOV     DPH,?V0 + 1
        MOV     A,#-0x2e
        MOVX    @DPTR,A
//  880             pRspSent->nwkAddr = inMsg->srcAddr.addr.shortAddr;
        MOV     DPL,?V0 + 8
        MOV     DPH,?V0 + 9
        INC     DPTR
        INC     DPTR
        MOVX    A,@DPTR
        MOV     R0,A
        INC     DPTR
        MOVX    A,@DPTR
        MOV     R1,A
        MOV     DPL,?V0 + 0
        MOV     DPH,?V0 + 1
        INC     DPTR
        INC     DPTR
        MOV     A,R0
        MOVX    @DPTR,A
        INC     DPTR
        MOV     A,R1
        MOVX    @DPTR,A
//  881             pRspSent->numInClusters = numInClusters;
        MOV     A,?V0 + 2
        MOV     DPL,?V0 + 0
        MOV     DPH,?V0 + 1
        INC     DPTR
        INC     DPTR
        INC     DPTR
        INC     DPTR
        MOV     A,?V0 + 2
        MOVX    @DPTR,A
//  882             pRspSent->numOutClusters = numOutClusters;
        MOV     A,?V0 + 3
        MOV     DPL,?V0 + 0
        MOV     DPH,?V0 + 1
        INC     DPTR
        INC     DPTR
        INC     DPTR
        INC     DPTR
        INC     DPTR
        INC     DPTR
        INC     DPTR
        MOV     A,?V0 + 3
        MOVX    @DPTR,A
//  883 
//  884             if (numInClusters)
        MOV     A,?V0 + 2
        JZ      ??ZDO_ProcessMatchDescReq_17
//  885             {
//  886               pRspSent->pInClusters = (uint16*) (pRspSent + 1);
        MOV     A,?V0 + 0
        ADD     A,#0xa
        MOV     R0,A
        MOV     A,?V0 + 1
        ADDC    A,#0x0
        MOV     R1,A
        MOV     DPL,?V0 + 0
        MOV     DPH,?V0 + 1
        INC     DPTR
        INC     DPTR
        INC     DPTR
        INC     DPTR
        INC     DPTR
        MOV     A,R0
        MOVX    @DPTR,A
        INC     DPTR
        MOV     A,R1
        MOVX    @DPTR,A
//  887               osal_memcpy(pRspSent->pInClusters, inClusters, numInClusters * sizeof(uint16));
        ; Setup parameters for call to function osal_memcpy
        MOV     A,#0x2
        LCALL   ?XSTACK_DISP0_8
        MOVX    A,@DPTR
        MOV     ?V0 + 4,A
        INC     DPTR
        MOVX    A,@DPTR
        MOV     ?V0 + 5,A
        MOV     ?V0 + 6,#0x0
        MOV     R0,#?V0 + 4
        LCALL   ?PUSH_XSTACK_I_THREE
        CFI CFA_XSP16 add(XSP16, 37)
        MOV     A,?V0 + 2
        MOV     R4,?V0 + 2
        MOV     R5,#0x0
        MOV     A,R4
        MOV     B,#0x2
        MUL     AB
        XCH     A,R4
        MOV     R0,B
        MOV     B,#0x0
        MUL     AB
        ADD     A,R0
        MOV     R0,A
        MOV     B,#0x2
        MOV     A,R5
        MUL     AB
        ADD     A,R0
        MOV     R5,A
        MOV     DPL,?V0 + 0
        MOV     DPH,?V0 + 1
        INC     DPTR
        INC     DPTR
        INC     DPTR
        INC     DPTR
        INC     DPTR
        MOVX    A,@DPTR
        MOV     R2,A
        INC     DPTR
        MOVX    A,@DPTR
        MOV     R3,A
        LCALL   ??osal_memcpy?relay
        MOV     A,#0x3
        LCALL   ?DEALLOC_XSTACK8
        CFI CFA_XSP16 add(XSP16, 34)
        SJMP    ??ZDO_ProcessMatchDescReq_18
//  888             }
//  889             else
//  890             {
//  891               pRspSent->pInClusters = NULL;
??ZDO_ProcessMatchDescReq_17:
        MOV     DPL,?V0 + 0
        MOV     DPH,?V0 + 1
        INC     DPTR
        INC     DPTR
        INC     DPTR
        INC     DPTR
        INC     DPTR
        MOV     A,#0x0
        MOVX    @DPTR,A
        INC     DPTR
        MOV     A,#0x0
        MOVX    @DPTR,A
//  892             }
//  893 
//  894             if (numOutClusters)
??ZDO_ProcessMatchDescReq_18:
        MOV     A,?V0 + 3
        JNZ     $+5
        LJMP    ??ZDO_ProcessMatchDescReq_19 & 0xFFFF
//  895             {
//  896               pRspSent->pOutClusters = (uint16*)(pRspSent + 1) + numInClusters;
        MOV     A,?V0 + 2
        MOV     R0,?V0 + 2
        MOV     R1,#0x0
        MOV     A,R0
        MOV     B,#0x2
        MUL     AB
        XCH     A,R0
        MOV     R2,B
        MOV     B,#0x0
        MUL     AB
        ADD     A,R2
        MOV     R2,A
        MOV     B,#0x2
        MOV     A,R1
        MUL     AB
        ADD     A,R2
        MOV     R1,A
        MOV     A,?V0 + 0
        ADD     A,R0
        MOV     R0,A
        MOV     A,?V0 + 1
        ADDC    A,R1
        MOV     R1,A
        MOV     A,R0
        ADD     A,#0xa
        MOV     R0,A
        MOV     A,R1
        ADDC    A,#0x0
        MOV     R1,A
        MOV     DPL,?V0 + 0
        MOV     DPH,?V0 + 1
        INC     DPTR
        INC     DPTR
        INC     DPTR
        INC     DPTR
        INC     DPTR
        INC     DPTR
        INC     DPTR
        INC     DPTR
        MOV     A,R0
        MOVX    @DPTR,A
        INC     DPTR
        MOV     A,R1
        MOVX    @DPTR,A
//  897               osal_memcpy(pRspSent->pOutClusters, outClusters, numOutClusters * sizeof(uint16));
        ; Setup parameters for call to function osal_memcpy
        MOV     DPL,?XSP + 0
        MOV     DPH,?XSP + 1
        MOVX    A,@DPTR
        MOV     ?V0 + 4,A
        INC     DPTR
        MOVX    A,@DPTR
        MOV     ?V0 + 5,A
        MOV     ?V0 + 6,#0x0
        MOV     R0,#?V0 + 4
        LCALL   ?PUSH_XSTACK_I_THREE
        CFI CFA_XSP16 add(XSP16, 37)
        MOV     A,?V0 + 3
        MOV     R4,?V0 + 3
        MOV     R5,#0x0
        MOV     A,R4
        MOV     B,#0x2
        MUL     AB
        XCH     A,R4
        MOV     R0,B
        MOV     B,#0x0
        MUL     AB
        ADD     A,R0
        MOV     R0,A
        MOV     B,#0x2
        MOV     A,R5
        MUL     AB
        ADD     A,R0
        MOV     R5,A
        MOV     DPL,?V0 + 0
        MOV     DPH,?V0 + 1
        INC     DPTR
        INC     DPTR
        INC     DPTR
        INC     DPTR
        INC     DPTR
        INC     DPTR
        INC     DPTR
        INC     DPTR
        MOVX    A,@DPTR
        MOV     R2,A
        INC     DPTR
        MOVX    A,@DPTR
        MOV     R3,A
        LCALL   ??osal_memcpy?relay
        MOV     A,#0x3
        LCALL   ?DEALLOC_XSTACK8
        CFI CFA_XSP16 add(XSP16, 34)
        SJMP    ??ZDO_ProcessMatchDescReq_20
//  898             }
//  899             else
//  900             {
//  901               pRspSent->pOutClusters = NULL;
??ZDO_ProcessMatchDescReq_19:
        MOV     DPL,?V0 + 0
        MOV     DPH,?V0 + 1
        INC     DPTR
        INC     DPTR
        INC     DPTR
        INC     DPTR
        INC     DPTR
        INC     DPTR
        INC     DPTR
        INC     DPTR
        MOV     A,#0x0
        MOVX    @DPTR,A
        INC     DPTR
        MOV     A,#0x0
        MOVX    @DPTR,A
//  902             }
//  903 
//  904             osal_msg_send( *epDesc->epDesc->task_id, (uint8 *)pRspSent );
??ZDO_ProcessMatchDescReq_20:
        ; Setup parameters for call to function osal_msg_send
        MOV     R2,?V0 + 0
        MOV     R3,?V0 + 1
        MOV     DPL,?V0 + 12
        MOV     DPH,?V0 + 13
        INC     DPTR
        INC     DPTR
        MOVX    A,@DPTR
        MOV     R0,A
        INC     DPTR
        MOVX    A,@DPTR
        MOV     DPH,A
        MOV     DPL,R0
        INC     DPTR
        MOVX    A,@DPTR
        MOV     R0,A
        INC     DPTR
        MOVX    A,@DPTR
        MOV     DPH,A
        MOV     DPL,R0
        MOVX    A,@DPTR
        MOV     R1,A
        LCALL   ??osal_msg_send?relay
        MOV     A,R1
//  905           }
//  906 
//  907           uint8Buf[epCnt++] = sDesc->EndPoint;
??ZDO_ProcessMatchDescReq_16:
        MOV     DPL,?V0 + 10
        MOV     DPH,?V0 + 11
        MOVX    A,@DPTR
        PUSH    A
        CFI CFA_SP SP+-1
        MOV     A,?V0 + 14
        MOV     R0,?V0 + 14
        MOV     R1,#0x0
        MOV     A,#0x6
        LCALL   ?XSTACK_DISP0_8
        MOVX    A,@DPTR
        ADD     A,R0
        MOV     R2,A
        INC     DPTR
        MOVX    A,@DPTR
        ADDC    A,R1
        MOV     DPL,R2
        MOV     DPH,A
        POP     A
        CFI CFA_SP SP+0
        MOVX    @DPTR,A
        INC     ?V0 + 14
//  908         }
//  909       }
//  910 
//  911       if ( allocated )
??ZDO_ProcessMatchDescReq_13:
        MOV     A,?V0 + 15
        JZ      ??ZDO_ProcessMatchDescReq_10
//  912       {
//  913         osal_mem_free( sDesc );
        ; Setup parameters for call to function osal_mem_free
        MOV     R2,?V0 + 10
        MOV     R3,?V0 + 11
        LCALL   ??osal_mem_free?relay
//  914       }
//  915     }
//  916     epDesc = epDesc->nextDesc;
??ZDO_ProcessMatchDescReq_10:
        MOV     DPL,?V0 + 12
        MOV     DPH,?V0 + 13
        MOVX    A,@DPTR
        MOV     ?V0 + 12,A
        INC     DPTR
        MOVX    A,@DPTR
        MOV     ?V0 + 13,A
        LJMP    ??ZDO_ProcessMatchDescReq_8 & 0xFFFF
//  917   }
//  918 
//  919   if ( epCnt )
??ZDO_ProcessMatchDescReq_9:
        MOV     A,?V0 + 14
        JZ      ??ZDO_ProcessMatchDescReq_21
//  920   {
//  921     // Send the message if at least one match found.
//  922     if ( ZSuccess == ZDP_MatchDescRsp( inMsg->TransSeq, &(inMsg->srcAddr), ZDP_SUCCESS,
//  923               ZDAppNwkAddr.addr.shortAddr, epCnt, (uint8 *)ZDOBuildBuf, inMsg->SecurityUse ) )
        ; Setup parameters for call to function ZDP_EPRsp
        MOV     A,?V0 + 8
        ADD     A,#0xe
        MOV     DPL,A
        MOV     A,?V0 + 9
        ADDC    A,#0x0
        MOV     DPH,A
        MOVX    A,@DPTR
        MOV     ?V0 + 0,A
        MOV     R0,#?V0 + 0
        LCALL   ?PUSH_XSTACK_I_ONE
        CFI CFA_XSP16 add(XSP16, 35)
        MOV     ?V0 + 0,#ZDOBuildBuf & 0xff
        MOV     ?V0 + 1,#(ZDOBuildBuf >> 8) & 0xff
        MOV     R0,#?V0 + 0
        LCALL   ?PUSH_XSTACK_I_TWO
        CFI CFA_XSP16 add(XSP16, 37)
        MOV     A,?V0 + 14
        MOV     ?V0 + 0,A
        MOV     R0,#?V0 + 0
        LCALL   ?PUSH_XSTACK_I_ONE
        CFI CFA_XSP16 add(XSP16, 38)
        MOV     DPTR,#ZDAppNwkAddr
        LCALL   ?PUSH_XSTACK8_X_TWO
        CFI CFA_XSP16 add(XSP16, 40)
        MOV     ?V0 + 0,#0x0
        MOV     R0,#?V0 + 0
        LCALL   ?PUSH_XSTACK_I_ONE
        CFI CFA_XSP16 add(XSP16, 41)
        MOV     A,?V0 + 8
        ADD     A,#0x2
        MOV     R4,A
        MOV     A,?V0 + 9
        ADDC    A,#0x0
        MOV     R5,A
        MOV     A,?V0 + 8
        ADD     A,#0xf
        MOV     DPL,A
        MOV     A,?V0 + 9
        ADDC    A,#0x0
        MOV     DPH,A
        MOVX    A,@DPTR
        MOV     R1,A
        MOV     R2,#0x6
        MOV     R3,#-0x80
        LCALL   ??ZDP_EPRsp?relay
        MOV     A,#0x7
        LCALL   ?DEALLOC_XSTACK8
        CFI CFA_XSP16 add(XSP16, 34)
        MOV     A,R1
        SJMP    ??ZDO_ProcessMatchDescReq_22
//  924     {
//  925 #if defined( LCD_SUPPORTED )
//  926       HalLcdWriteScreen( "Match Desc Req", "Rsp Sent" );
//  927 #endif
//  928     }
//  929   }
//  930   else
//  931   {
//  932     // No match found
//  933     if (ADDR_NOT_BCAST == NLME_IsAddressBroadcast(aoi))
??ZDO_ProcessMatchDescReq_21:
        ; Setup parameters for call to function NLME_IsAddressBroadcast
        MOV     A,#0x4
        LCALL   ?XSTACK_DISP0_8
        MOVX    A,@DPTR
        MOV     R2,A
        INC     DPTR
        MOVX    A,@DPTR
        MOV     R3,A
        LCALL   ??NLME_IsAddressBroadcast?relay
        MOV     A,R1
        JNZ     ??ZDO_ProcessMatchDescReq_22
//  934     {
//  935       // send response message with match length = 0
//  936       ZDP_MatchDescRsp( inMsg->TransSeq, &(inMsg->srcAddr), ZDP_SUCCESS,
//  937                         ZDAppNwkAddr.addr.shortAddr, 0, (uint8 *)ZDOBuildBuf, inMsg->SecurityUse );
        ; Setup parameters for call to function ZDP_EPRsp
        MOV     A,?V0 + 8
        ADD     A,#0xe
        MOV     DPL,A
        MOV     A,?V0 + 9
        ADDC    A,#0x0
        MOV     DPH,A
        MOVX    A,@DPTR
        MOV     ?V0 + 0,A
        MOV     R0,#?V0 + 0
        LCALL   ?PUSH_XSTACK_I_ONE
        CFI CFA_XSP16 add(XSP16, 35)
        MOV     ?V0 + 0,#ZDOBuildBuf & 0xff
        MOV     ?V0 + 1,#(ZDOBuildBuf >> 8) & 0xff
        MOV     R0,#?V0 + 0
        LCALL   ?PUSH_XSTACK_I_TWO
        CFI CFA_XSP16 add(XSP16, 37)
        MOV     ?V0 + 0,#0x0
        MOV     R0,#?V0 + 0
        LCALL   ?PUSH_XSTACK_I_ONE
        CFI CFA_XSP16 add(XSP16, 38)
        MOV     DPTR,#ZDAppNwkAddr
        LCALL   ?PUSH_XSTACK8_X_TWO
        CFI CFA_XSP16 add(XSP16, 40)
        MOV     ?V0 + 0,#0x0
        MOV     R0,#?V0 + 0
        LCALL   ?PUSH_XSTACK_I_ONE
        CFI CFA_XSP16 add(XSP16, 41)
        MOV     A,?V0 + 8
        ADD     A,#0x2
        MOV     R4,A
        MOV     A,?V0 + 9
        ADDC    A,#0x0
        MOV     R5,A
        MOV     A,?V0 + 8
        ADD     A,#0xf
        MOV     DPL,A
        MOV     A,?V0 + 9
        ADDC    A,#0x0
        MOV     DPH,A
        MOVX    A,@DPTR
        MOV     R1,A
        MOV     R2,#0x6
        MOV     R3,#-0x80
        LCALL   ??ZDP_EPRsp?relay
        MOV     A,#0x7
        LCALL   ?DEALLOC_XSTACK8
        CFI CFA_XSP16 add(XSP16, 34)
        MOV     A,R1
//  938 #if defined( LCD_SUPPORTED )
//  939       HalLcdWriteScreen( "Match Desc Req", "Rsp Non Matched" );
//  940 #endif
//  941     }
//  942     else
//  943     {
//  944       // no response mesage for broadcast message
//  945 #if defined( LCD_SUPPORTED )
//  946       HalLcdWriteScreen( "Match Desc Req", "Non Matched" );
//  947 #endif
//  948     }
//  949   }
//  950 
//  951   if ( inClusters != NULL )
??ZDO_ProcessMatchDescReq_22:
        MOV     A,#0x2
        LCALL   ?XSTACK_DISP0_8
        MOVX    A,@DPTR
        MOV     R0,A
        INC     DPTR
        MOVX    A,@DPTR
        MOV     R1,A
        MOV     A,R0
        ORL     A,R1
        JZ      ??ZDO_ProcessMatchDescReq_23
//  952   {
//  953     osal_mem_free( inClusters );
        ; Setup parameters for call to function osal_mem_free
        MOV     A,#0x2
        LCALL   ?XSTACK_DISP0_8
        MOVX    A,@DPTR
        MOV     R2,A
        INC     DPTR
        MOVX    A,@DPTR
        MOV     R3,A
        LCALL   ??osal_mem_free?relay
//  954   }
//  955 
//  956   if ( outClusters != NULL )
??ZDO_ProcessMatchDescReq_23:
        MOV     DPL,?XSP + 0
        MOV     DPH,?XSP + 1
        MOVX    A,@DPTR
        MOV     R0,A
        INC     DPTR
        MOVX    A,@DPTR
        MOV     R1,A
        MOV     A,R0
        ORL     A,R1
        JZ      ??ZDO_ProcessMatchDescReq_1
//  957   {
//  958     osal_mem_free( outClusters );
        ; Setup parameters for call to function osal_mem_free
        MOV     DPL,?XSP + 0
        MOV     DPH,?XSP + 1
        MOVX    A,@DPTR
        MOV     R2,A
        INC     DPTR
        MOVX    A,@DPTR
        MOV     R3,A
        LCALL   ??osal_mem_free?relay
//  959   }
//  960 }
??ZDO_ProcessMatchDescReq_1:
        MOV     A,#0xa
        LCALL   ?DEALLOC_XSTACK8
        CFI CFA_XSP16 add(XSP16, 24)
        MOV     R7,#0x10
        LJMP    ?BANKED_LEAVE_XDATA
        CFI EndBlock cfiBlock14
//  961 
//  962 /*********************************************************************
//  963  * @fn      ZDO_ProcessBindUnbindReq()
//  964  *
//  965  * @brief   Called to process a Bind or Unbind Request message.
//  966  *
//  967  * @param   inMsg  - incoming message (request)
//  968  * @param   pReq - place to put parsed information
//  969  *
//  970  * @return  none
//  971  */

        RSEG BANKED_CODE:CODE:NOROOT(0)
//  972 void ZDO_ProcessBindUnbindReq( zdoIncomingMsg_t *inMsg, ZDO_BindUnbindReq_t *pReq )
ZDO_ProcessBindUnbindReq:
        CFI Block cfiBlock15 Using cfiCommon0
        CFI Function ZDO_ProcessBindUnbindReq
        CODE
//  973 {
        FUNCALL ZDO_ProcessBindUnbindReq, sAddrExtCpy
        LOCFRAME ISTACK, 0, STACK
        LOCFRAME PSTACK, 0, STACK
        LOCFRAME XSTACK, 24, STACK
        LOCFRAME IOVERLAY, 0, STATIC
        LOCFRAME DOVERLAY, 0, STATIC
        ARGFRAME ISTACK, 0, STACK
        ARGFRAME PSTACK, 0, STACK
        ARGFRAME XSTACK, 24, STACK
        ARGFRAME IOVERLAY, 0, STATIC
        ARGFRAME DOVERLAY, 0, STATIC
        FUNCALL ZDO_ProcessBindUnbindReq, NLME_GetExtAddr
        LOCFRAME ISTACK, 0, STACK
        LOCFRAME PSTACK, 0, STACK
        LOCFRAME XSTACK, 24, STACK
        LOCFRAME IOVERLAY, 0, STATIC
        LOCFRAME DOVERLAY, 0, STATIC
        ARGFRAME ISTACK, 0, STACK
        ARGFRAME PSTACK, 0, STACK
        ARGFRAME XSTACK, 24, STACK
        ARGFRAME IOVERLAY, 0, STATIC
        ARGFRAME DOVERLAY, 0, STATIC
        FUNCALL ZDO_ProcessBindUnbindReq, sAddrExtCmp
        LOCFRAME ISTACK, 0, STACK
        LOCFRAME PSTACK, 0, STACK
        LOCFRAME XSTACK, 24, STACK
        LOCFRAME IOVERLAY, 0, STATIC
        LOCFRAME DOVERLAY, 0, STATIC
        ARGFRAME ISTACK, 0, STACK
        ARGFRAME PSTACK, 0, STACK
        ARGFRAME XSTACK, 24, STACK
        ARGFRAME IOVERLAY, 0, STATIC
        ARGFRAME DOVERLAY, 0, STATIC
        FUNCALL ZDO_ProcessBindUnbindReq, APSME_BindRequest
        LOCFRAME ISTACK, 0, STACK
        LOCFRAME PSTACK, 0, STACK
        LOCFRAME XSTACK, 25, STACK
        LOCFRAME IOVERLAY, 0, STATIC
        LOCFRAME DOVERLAY, 0, STATIC
        ARGFRAME ISTACK, 0, STACK
        ARGFRAME PSTACK, 0, STACK
        ARGFRAME XSTACK, 25, STACK
        ARGFRAME IOVERLAY, 0, STATIC
        ARGFRAME DOVERLAY, 0, STATIC
        FUNCALL ZDO_ProcessBindUnbindReq, ZDApp_NVUpdate
        LOCFRAME ISTACK, 0, STACK
        LOCFRAME PSTACK, 0, STACK
        LOCFRAME XSTACK, 24, STACK
        LOCFRAME IOVERLAY, 0, STATIC
        LOCFRAME DOVERLAY, 0, STATIC
        ARGFRAME ISTACK, 0, STACK
        ARGFRAME PSTACK, 0, STACK
        ARGFRAME XSTACK, 24, STACK
        ARGFRAME IOVERLAY, 0, STATIC
        ARGFRAME DOVERLAY, 0, STATIC
        FUNCALL ZDO_ProcessBindUnbindReq, APSME_LookupNwkAddr
        LOCFRAME ISTACK, 0, STACK
        LOCFRAME PSTACK, 0, STACK
        LOCFRAME XSTACK, 24, STACK
        LOCFRAME IOVERLAY, 0, STATIC
        LOCFRAME DOVERLAY, 0, STATIC
        ARGFRAME ISTACK, 0, STACK
        ARGFRAME PSTACK, 0, STACK
        ARGFRAME XSTACK, 24, STACK
        ARGFRAME IOVERLAY, 0, STATIC
        ARGFRAME DOVERLAY, 0, STATIC
        FUNCALL ZDO_ProcessBindUnbindReq, ZDP_NwkAddrReq
        LOCFRAME ISTACK, 0, STACK
        LOCFRAME PSTACK, 0, STACK
        LOCFRAME XSTACK, 24, STACK
        LOCFRAME IOVERLAY, 0, STATIC
        LOCFRAME DOVERLAY, 0, STATIC
        ARGFRAME ISTACK, 0, STACK
        ARGFRAME PSTACK, 0, STACK
        ARGFRAME XSTACK, 24, STACK
        ARGFRAME IOVERLAY, 0, STATIC
        ARGFRAME DOVERLAY, 0, STATIC
        FUNCALL ZDO_ProcessBindUnbindReq, APSME_UnBindRequest
        LOCFRAME ISTACK, 0, STACK
        LOCFRAME PSTACK, 0, STACK
        LOCFRAME XSTACK, 25, STACK
        LOCFRAME IOVERLAY, 0, STATIC
        LOCFRAME DOVERLAY, 0, STATIC
        ARGFRAME ISTACK, 0, STACK
        ARGFRAME PSTACK, 0, STACK
        ARGFRAME XSTACK, 25, STACK
        ARGFRAME IOVERLAY, 0, STATIC
        ARGFRAME DOVERLAY, 0, STATIC
        FUNCALL ZDO_ProcessBindUnbindReq, ZDApp_NVUpdate
        LOCFRAME ISTACK, 0, STACK
        LOCFRAME PSTACK, 0, STACK
        LOCFRAME XSTACK, 24, STACK
        LOCFRAME IOVERLAY, 0, STATIC
        LOCFRAME DOVERLAY, 0, STATIC
        ARGFRAME ISTACK, 0, STACK
        ARGFRAME PSTACK, 0, STACK
        ARGFRAME XSTACK, 24, STACK
        ARGFRAME IOVERLAY, 0, STATIC
        ARGFRAME DOVERLAY, 0, STATIC
        FUNCALL ZDO_ProcessBindUnbindReq, ZDP_SendData
        LOCFRAME ISTACK, 0, STACK
        LOCFRAME PSTACK, 0, STACK
        LOCFRAME XSTACK, 29, STACK
        LOCFRAME IOVERLAY, 0, STATIC
        LOCFRAME DOVERLAY, 0, STATIC
        ARGFRAME ISTACK, 0, STACK
        ARGFRAME PSTACK, 0, STACK
        ARGFRAME XSTACK, 29, STACK
        ARGFRAME IOVERLAY, 0, STATIC
        ARGFRAME DOVERLAY, 0, STATIC
        MOV     A,#-0xc
        LCALL   ?BANKED_ENTER_XDATA
        CFI DPH0 load(1, XDATA, add(CFA_XSP16, literal(-1)))
        CFI DPL0 load(1, XDATA, add(CFA_XSP16, literal(-2)))
        CFI ?BRET_EXT load(1, XDATA, add(CFA_XSP16, literal(-3)))
        CFI ?RET_HIGH load(1, XDATA, add(CFA_XSP16, literal(-4)))
        CFI ?RET_LOW load(1, XDATA, add(CFA_XSP16, literal(-5)))
        CFI R7 load(1, XDATA, add(CFA_XSP16, literal(-6)))
        CFI V3 load(1, XDATA, add(CFA_XSP16, literal(-7)))
        CFI V2 load(1, XDATA, add(CFA_XSP16, literal(-8)))
        CFI V1 load(1, XDATA, add(CFA_XSP16, literal(-9)))
        CFI V0 load(1, XDATA, add(CFA_XSP16, literal(-10)))
        CFI VB load(1, XDATA, add(CFA_XSP16, literal(-11)))
        CFI R6 load(1, XDATA, add(CFA_XSP16, literal(-12)))
        CFI CFA_SP SP+0
        CFI CFA_XSP16 add(XSP16, 12)
        ; Saved register size: 12
        ; Auto size: 12
        MOV     A,#-0xc
        LCALL   ?ALLOC_XSTACK8
        CFI CFA_XSP16 add(XSP16, 24)
        MOV     ?V0 + 0,R2
        MOV     ?V0 + 1,R3
        MOV     A,R4
        MOV     R6,A
        MOV     A,R5
        MOV     R7,A
//  974   zAddrType_t SourceAddr;       // Binding Source addres
//  975   byte bindStat;
//  976 
//  977   SourceAddr.addrMode = Addr64Bit;
        MOV     A,#0xb
        LCALL   ?XSTACK_DISP0_8
        MOV     A,#0x3
        MOVX    @DPTR,A
//  978   osal_cpyExtAddr( SourceAddr.addr.extAddr, pReq->srcAddress );
        ; Setup parameters for call to function sAddrExtCpy
        MOV     A,R6
        MOV     R4,A
        MOV     A,R7
        MOV     R5,A
        MOV     A,#0x3
        LCALL   ?XSTACK_DISP0_8
        MOV     R2,DPL
        MOV     R3,DPH
        LCALL   ??sAddrExtCpy?relay
//  979 
//  980   // If the local device is not the primary binding cache
//  981   // check the src address of the bind request.
//  982   // If it is not the local device's extended address
//  983   // discard the request.
//  984   if ( !osal_ExtAddrEqual( SourceAddr.addr.extAddr, NLME_GetExtAddr()) ||
//  985         (pReq->dstAddress.addrMode != Addr64Bit &&
//  986          pReq->dstAddress.addrMode != AddrGroup) )
        ; Setup parameters for call to function sAddrExtCmp
        ; Setup parameters for call to function NLME_GetExtAddr
        LCALL   ??NLME_GetExtAddr?relay
        MOV     A,R2
        MOV     R4,A
        MOV     A,R3
        MOV     R5,A
        MOV     A,#0x3
        LCALL   ?XSTACK_DISP0_8
        MOV     R2,DPL
        MOV     R3,DPH
        LCALL   ??sAddrExtCmp?relay
        MOV     A,R1
        JZ      ??ZDO_ProcessBindUnbindReq_0
        MOV     A,R6
        ADD     A,#0x13
        MOV     DPL,A
        MOV     A,R7
        ADDC    A,#0x0
        MOV     DPH,A
        MOVX    A,@DPTR
        XRL     A,#0x3
        JZ      ??ZDO_ProcessBindUnbindReq_1
        MOV     A,R6
        ADD     A,#0x13
        MOV     DPL,A
        MOV     A,R7
        ADDC    A,#0x0
        MOV     DPH,A
        MOVX    A,@DPTR
        XRL     A,#0x1
        JZ      ??ZDO_ProcessBindUnbindReq_1
//  987   {
//  988     bindStat = ZDP_NOT_SUPPORTED;
??ZDO_ProcessBindUnbindReq_0:
        MOV     DPL,?XSP + 0
        MOV     DPH,?XSP + 1
        MOV     A,#-0x7c
        MOVX    @DPTR,A
        LJMP    ??ZDO_ProcessBindUnbindReq_2 & 0xFFFF
//  989   }
//  990   else
//  991   {
//  992     // Check source & destination endpoints
//  993     if ( (pReq->srcEndpoint == 0 || pReq->srcEndpoint > MAX_ENDPOINTS)
//  994         || (( pReq->dstAddress.addrMode == Addr64Bit ) &&
//  995             (pReq->dstEndpoint == 0 || pReq->dstEndpoint > MAX_ENDPOINTS)) )
??ZDO_ProcessBindUnbindReq_1:
        MOV     DPL,R6
        MOV     DPH,R7
        INC     DPTR
        INC     DPTR
        INC     DPTR
        INC     DPTR
        INC     DPTR
        INC     DPTR
        INC     DPTR
        INC     DPTR
        MOVX    A,@DPTR
        JZ      ??ZDO_ProcessBindUnbindReq_3
        MOV     DPL,R6
        MOV     DPH,R7
        INC     DPTR
        INC     DPTR
        INC     DPTR
        INC     DPTR
        INC     DPTR
        INC     DPTR
        INC     DPTR
        INC     DPTR
        MOVX    A,@DPTR
        CLR     C
        SUBB    A,#-0xf
        JNC     ??ZDO_ProcessBindUnbindReq_3
        MOV     A,R6
        ADD     A,#0x13
        MOV     DPL,A
        MOV     A,R7
        ADDC    A,#0x0
        MOV     DPH,A
        MOVX    A,@DPTR
        XRL     A,#0x3
        JNZ     ??ZDO_ProcessBindUnbindReq_4
        MOV     A,R6
        ADD     A,#0x14
        MOV     DPL,A
        MOV     A,R7
        ADDC    A,#0x0
        MOV     DPH,A
        MOVX    A,@DPTR
        JZ      ??ZDO_ProcessBindUnbindReq_3
        MOV     A,R6
        ADD     A,#0x14
        MOV     DPL,A
        MOV     A,R7
        ADDC    A,#0x0
        MOV     DPH,A
        MOVX    A,@DPTR
        CLR     C
        SUBB    A,#-0xf
        JC      ??ZDO_ProcessBindUnbindReq_4
//  996     {
//  997       bindStat = ZDP_INVALID_EP;
??ZDO_ProcessBindUnbindReq_3:
        MOV     DPL,?XSP + 0
        MOV     DPH,?XSP + 1
        MOV     A,#-0x7e
        MOVX    @DPTR,A
        LJMP    ??ZDO_ProcessBindUnbindReq_2 & 0xFFFF
//  998     }
//  999     else
// 1000     {
// 1001       if ( inMsg->clusterID == Bind_req )
??ZDO_ProcessBindUnbindReq_4:
        MOV     A,?V0 + 0
        ADD     A,#0xc
        MOV     DPL,A
        MOV     A,?V0 + 1
        ADDC    A,#0x0
        MOV     DPH,A
        MOVX    A,@DPTR
        XRL     A,#0x21
        JNZ     ??ZDO_ProcessBindUnbindReq_5
        INC     DPTR
        MOVX    A,@DPTR
        XRL     A,#0x0
??ZDO_ProcessBindUnbindReq_5:
        JZ      $+5
        LJMP    ??ZDO_ProcessBindUnbindReq_6 & 0xFFFF
// 1002       {
// 1003         // Assume the table is full
// 1004         bindStat = ZDP_TABLE_FULL;
        MOV     DPL,?XSP + 0
        MOV     DPH,?XSP + 1
        MOV     A,#-0x74
        MOVX    @DPTR,A
// 1005 
// 1006 #if defined( APP_TP ) || defined( APP_TP2 )
// 1007         // For ZigBee Conformance Testing
// 1008         if ( bindNumOfEntries() < gNWK_MAX_BINDING_ENTRIES )
// 1009 #endif
// 1010         {
// 1011           if ( APSME_BindRequest( pReq->srcEndpoint, pReq->clusterID,
// 1012                          &(pReq->dstAddress), pReq->dstEndpoint ) == ZSuccess )
        ; Setup parameters for call to function APSME_BindRequest
        MOV     A,R6
        ADD     A,#0x14
        MOV     DPL,A
        MOV     A,R7
        ADDC    A,#0x0
        MOV     DPH,A
        MOVX    A,@DPTR
        MOV     ?V0 + 2,A
        MOV     R0,#?V0 + 2
        LCALL   ?PUSH_XSTACK_I_ONE
        CFI CFA_XSP16 add(XSP16, 25)
        MOV     A,R6
        ADD     A,#0xb
        MOV     R4,A
        MOV     A,R7
        ADDC    A,#0x0
        MOV     R5,A
        MOV     DPL,R6
        MOV     DPH,R7
        INC     DPTR
        INC     DPTR
        INC     DPTR
        INC     DPTR
        INC     DPTR
        INC     DPTR
        INC     DPTR
        INC     DPTR
        INC     DPTR
        MOVX    A,@DPTR
        MOV     R2,A
        INC     DPTR
        MOVX    A,@DPTR
        MOV     R3,A
        MOV     DPL,R6
        MOV     DPH,R7
        INC     DPTR
        INC     DPTR
        INC     DPTR
        INC     DPTR
        INC     DPTR
        INC     DPTR
        INC     DPTR
        INC     DPTR
        MOVX    A,@DPTR
        MOV     R1,A
        LCALL   ??APSME_BindRequest?relay
        MOV     A,#0x1
        LCALL   ?DEALLOC_XSTACK8
        CFI CFA_XSP16 add(XSP16, 24)
        MOV     A,R1
        JZ      $+5
        LJMP    ??ZDO_ProcessBindUnbindReq_2 & 0xFFFF
// 1013           {
// 1014             uint16 nwkAddr;
// 1015 
// 1016             // valid entry
// 1017             bindStat = ZDP_SUCCESS;
        MOV     DPL,?XSP + 0
        MOV     DPH,?XSP + 1
        MOV     A,#0x0
        MOVX    @DPTR,A
// 1018 
// 1019             // Notify to save info into NV
// 1020             ZDApp_NVUpdate();
        ; Setup parameters for call to function ZDApp_NVUpdate
        LCALL   ??ZDApp_NVUpdate?relay
// 1021 
// 1022             // Check for the destination address
// 1023             if ( pReq->dstAddress.addrMode == Addr64Bit )
        MOV     A,R6
        ADD     A,#0x13
        MOV     DPL,A
        MOV     A,R7
        ADDC    A,#0x0
        MOV     DPH,A
        MOVX    A,@DPTR
        XRL     A,#0x3
        JZ      $+5
        LJMP    ??ZDO_ProcessBindUnbindReq_2 & 0xFFFF
// 1024             {
// 1025               if ( APSME_LookupNwkAddr( pReq->dstAddress.addr.extAddr, &nwkAddr ) == FALSE )
        ; Setup parameters for call to function APSME_LookupNwkAddr
        MOV     A,#0x1
        LCALL   ?XSTACK_DISP0_8
        MOV     R4,DPL
        MOV     R5,DPH
        MOV     A,R6
        ADD     A,#0xb
        MOV     R2,A
        MOV     A,R7
        ADDC    A,#0x0
        MOV     R3,A
        LCALL   ??APSME_LookupNwkAddr?relay
        MOV     A,R1
        JNZ     ??ZDO_ProcessBindUnbindReq_2
// 1026               {
// 1027                 ZDP_NwkAddrReq( pReq->dstAddress.addr.extAddr, ZDP_ADDR_REQTYPE_SINGLE, 0, 0 );
        ; Setup parameters for call to function ZDP_NwkAddrReq
        MOV     R5,#0x0
        MOV     R4,#0x0
        MOV     R1,#0x0
        MOV     A,R6
        ADD     A,#0xb
        MOV     R2,A
        MOV     A,R7
        ADDC    A,#0x0
        MOV     R3,A
        LCALL   ??ZDP_NwkAddrReq?relay
        MOV     A,R1
        SJMP    ??ZDO_ProcessBindUnbindReq_2
// 1028               }
// 1029             }
// 1030           }
// 1031         }
// 1032       }
// 1033       else // Unbind_req
// 1034       {
// 1035         if ( APSME_UnBindRequest( pReq->srcEndpoint, pReq->clusterID,
// 1036                        &(pReq->dstAddress), pReq->dstEndpoint ) == ZSuccess )
??ZDO_ProcessBindUnbindReq_6:
        ; Setup parameters for call to function APSME_UnBindRequest
        MOV     A,R6
        ADD     A,#0x14
        MOV     DPL,A
        MOV     A,R7
        ADDC    A,#0x0
        MOV     DPH,A
        MOVX    A,@DPTR
        MOV     ?V0 + 2,A
        MOV     R0,#?V0 + 2
        LCALL   ?PUSH_XSTACK_I_ONE
        CFI CFA_XSP16 add(XSP16, 25)
        MOV     A,R6
        ADD     A,#0xb
        MOV     R4,A
        MOV     A,R7
        ADDC    A,#0x0
        MOV     R5,A
        MOV     DPL,R6
        MOV     DPH,R7
        INC     DPTR
        INC     DPTR
        INC     DPTR
        INC     DPTR
        INC     DPTR
        INC     DPTR
        INC     DPTR
        INC     DPTR
        INC     DPTR
        MOVX    A,@DPTR
        MOV     R2,A
        INC     DPTR
        MOVX    A,@DPTR
        MOV     R3,A
        MOV     DPL,R6
        MOV     DPH,R7
        INC     DPTR
        INC     DPTR
        INC     DPTR
        INC     DPTR
        INC     DPTR
        INC     DPTR
        INC     DPTR
        INC     DPTR
        MOVX    A,@DPTR
        MOV     R1,A
        LCALL   ??APSME_UnBindRequest?relay
        MOV     A,#0x1
        LCALL   ?DEALLOC_XSTACK8
        CFI CFA_XSP16 add(XSP16, 24)
        MOV     A,R1
        JNZ     ??ZDO_ProcessBindUnbindReq_7
// 1037         {
// 1038           bindStat = ZDP_SUCCESS;
        MOV     DPL,?XSP + 0
        MOV     DPH,?XSP + 1
        MOV     A,#0x0
        MOVX    @DPTR,A
// 1039 
// 1040           // Notify to save info into NV
// 1041           ZDApp_NVUpdate();
        ; Setup parameters for call to function ZDApp_NVUpdate
        LCALL   ??ZDApp_NVUpdate?relay
        SJMP    ??ZDO_ProcessBindUnbindReq_2
// 1042         }
// 1043         else
// 1044           bindStat = ZDP_NO_ENTRY;
??ZDO_ProcessBindUnbindReq_7:
        MOV     DPL,?XSP + 0
        MOV     DPH,?XSP + 1
        MOV     A,#-0x78
        MOVX    @DPTR,A
// 1045       }
// 1046     }
// 1047   }
// 1048 
// 1049   // Send back a response message
// 1050   ZDP_SendData( &(inMsg->TransSeq), &(inMsg->srcAddr),
// 1051                (inMsg->clusterID | ZDO_RESPONSE_BIT), 1, &bindStat,
// 1052                inMsg->SecurityUse );
??ZDO_ProcessBindUnbindReq_2:
        ; Setup parameters for call to function ZDP_SendData
        MOV     A,?V0 + 0
        ADD     A,#0xe
        MOV     DPL,A
        MOV     A,?V0 + 1
        ADDC    A,#0x0
        MOV     DPH,A
        MOVX    A,@DPTR
        MOV     ?V0 + 2,A
        MOV     R0,#?V0 + 2
        LCALL   ?PUSH_XSTACK_I_ONE
        CFI CFA_XSP16 add(XSP16, 25)
        MOV     A,#0x1
        LCALL   ?XSTACK_DISP0_8
        MOV     ?V0 + 2,DPL
        MOV     ?V0 + 3,DPH
        MOV     R0,#?V0 + 2
        LCALL   ?PUSH_XSTACK_I_TWO
        CFI CFA_XSP16 add(XSP16, 27)
        MOV     A,?V0 + 0
        ADD     A,#0xc
        MOV     DPL,A
        MOV     A,?V0 + 1
        ADDC    A,#0x0
        MOV     DPH,A
        MOVX    A,@DPTR
        ORL     A,#0x0
        MOV     ?V0 + 2,A
        INC     DPTR
        MOVX    A,@DPTR
        ORL     A,#0x80
        MOV     ?V0 + 3,A
        MOV     R0,#?V0 + 2
        LCALL   ?PUSH_XSTACK_I_TWO
        CFI CFA_XSP16 add(XSP16, 29)
        MOV     R1,#0x1
        MOV     A,?V0 + 0
        ADD     A,#0x2
        MOV     R4,A
        MOV     A,?V0 + 1
        ADDC    A,#0x0
        MOV     R5,A
        MOV     A,?V0 + 0
        ADD     A,#0xf
        MOV     R2,A
        MOV     A,?V0 + 1
        ADDC    A,#0x0
        MOV     R3,A
        LCALL   ??ZDP_SendData?relay
        MOV     A,#0x5
        LCALL   ?DEALLOC_XSTACK8
        CFI CFA_XSP16 add(XSP16, 24)
        MOV     A,R1
// 1053 }
        MOV     A,#0xc
        LCALL   ?DEALLOC_XSTACK8
        CFI CFA_XSP16 add(XSP16, 12)
        MOV     R7,#0x4
        LJMP    ?BANKED_LEAVE_XDATA
        CFI EndBlock cfiBlock15
// 1054 
// 1055 /*********************************************************************
// 1056  * @fn      ZDO_UpdateAddrManager
// 1057  *
// 1058  * @brief   Update the Address Manager.
// 1059  *
// 1060  * @param   nwkAddr - network address
// 1061  * @param   extAddr - extended address
// 1062  *
// 1063  * @return  none
// 1064  */

        RSEG BANKED_CODE:CODE:NOROOT(0)
// 1065 void ZDO_UpdateAddrManager( uint16 nwkAddr, uint8 *extAddr )
ZDO_UpdateAddrManager:
        CFI Block cfiBlock16 Using cfiCommon0
        CFI Function ZDO_UpdateAddrManager
        CODE
// 1066 {
        FUNCALL ZDO_UpdateAddrManager, AddrMgrExtAddrSet
        LOCFRAME ISTACK, 0, STACK
        LOCFRAME PSTACK, 0, STACK
        LOCFRAME XSTACK, 23, STACK
        LOCFRAME IOVERLAY, 0, STATIC
        LOCFRAME DOVERLAY, 0, STATIC
        ARGFRAME ISTACK, 0, STACK
        ARGFRAME PSTACK, 0, STACK
        ARGFRAME XSTACK, 23, STACK
        ARGFRAME IOVERLAY, 0, STATIC
        ARGFRAME DOVERLAY, 0, STATIC
        FUNCALL ZDO_UpdateAddrManager, AddrMgrEntryUpdate
        LOCFRAME ISTACK, 0, STACK
        LOCFRAME PSTACK, 0, STACK
        LOCFRAME XSTACK, 23, STACK
        LOCFRAME IOVERLAY, 0, STATIC
        LOCFRAME DOVERLAY, 0, STATIC
        ARGFRAME ISTACK, 0, STACK
        ARGFRAME PSTACK, 0, STACK
        ARGFRAME XSTACK, 23, STACK
        ARGFRAME IOVERLAY, 0, STATIC
        ARGFRAME DOVERLAY, 0, STATIC
        MOV     A,#-0xa
        LCALL   ?BANKED_ENTER_XDATA
        CFI DPH0 load(1, XDATA, add(CFA_XSP16, literal(-1)))
        CFI DPL0 load(1, XDATA, add(CFA_XSP16, literal(-2)))
        CFI ?BRET_EXT load(1, XDATA, add(CFA_XSP16, literal(-3)))
        CFI ?RET_HIGH load(1, XDATA, add(CFA_XSP16, literal(-4)))
        CFI ?RET_LOW load(1, XDATA, add(CFA_XSP16, literal(-5)))
        CFI R7 load(1, XDATA, add(CFA_XSP16, literal(-6)))
        CFI V1 load(1, XDATA, add(CFA_XSP16, literal(-7)))
        CFI V0 load(1, XDATA, add(CFA_XSP16, literal(-8)))
        CFI VB load(1, XDATA, add(CFA_XSP16, literal(-9)))
        CFI R6 load(1, XDATA, add(CFA_XSP16, literal(-10)))
        CFI CFA_SP SP+0
        CFI CFA_XSP16 add(XSP16, 10)
        ; Saved register size: 10
        ; Auto size: 13
        MOV     A,#-0xd
        LCALL   ?ALLOC_XSTACK8
        CFI CFA_XSP16 add(XSP16, 23)
        MOV     ?V0 + 0,R2
        MOV     ?V0 + 1,R3
        MOV     A,R4
        MOV     R6,A
        MOV     A,R5
        MOV     R7,A
// 1067   AddrMgrEntry_t addrEntry;
// 1068 
// 1069   // Update the address manager
// 1070   addrEntry.user = ADDRMGR_USER_DEFAULT;
        MOV     DPL,?XSP + 0
        MOV     DPH,?XSP + 1
        MOV     A,#0x0
        MOVX    @DPTR,A
// 1071   addrEntry.nwkAddr = nwkAddr;
        MOV     A,#0x1
        LCALL   ?XSTACK_DISP0_8
        MOV     A,?V0 + 0
        MOVX    @DPTR,A
        INC     DPTR
        MOV     A,?V0 + 1
        MOVX    @DPTR,A
// 1072   AddrMgrExtAddrSet( addrEntry.extAddr, extAddr );
        ; Setup parameters for call to function AddrMgrExtAddrSet
        MOV     A,R6
        MOV     R4,A
        MOV     A,R7
        MOV     R5,A
        MOV     A,#0x3
        LCALL   ?XSTACK_DISP0_8
        MOV     R2,DPL
        MOV     R3,DPH
        LCALL   ??AddrMgrExtAddrSet?relay
// 1073   AddrMgrEntryUpdate( &addrEntry );
        ; Setup parameters for call to function AddrMgrEntryUpdate
        MOV     DPL,?XSP + 0
        MOV     DPH,?XSP + 1
        MOV     R2,DPL
        MOV     R3,DPH
        LCALL   ??AddrMgrEntryUpdate?relay
        MOV     A,R1
// 1074 }
        MOV     A,#0xd
        LCALL   ?DEALLOC_XSTACK8
        CFI CFA_XSP16 add(XSP16, 10)
        MOV     R7,#0x2
        LJMP    ?BANKED_LEAVE_XDATA
        CFI EndBlock cfiBlock16
// 1075 
// 1076 /*********************************************************************
// 1077  * @fn      ZDO_ProcessServerDiscReq
// 1078  *
// 1079  * @brief   Process the Server_Discovery_req message.
// 1080  *
// 1081  * @param   inMsg  - incoming message (request)
// 1082  *
// 1083  * @return  none
// 1084  */

        RSEG BANKED_CODE:CODE:NOROOT(0)
// 1085 void ZDO_ProcessServerDiscReq( zdoIncomingMsg_t *inMsg )
ZDO_ProcessServerDiscReq:
        CFI Block cfiBlock17 Using cfiCommon0
        CFI Function ZDO_ProcessServerDiscReq
        CODE
// 1086 {
        FUNCALL ZDO_ProcessServerDiscReq, ZDP_ServerDiscRsp
        LOCFRAME ISTACK, 0, STACK
        LOCFRAME PSTACK, 0, STACK
        LOCFRAME XSTACK, 16, STACK
        LOCFRAME IOVERLAY, 0, STATIC
        LOCFRAME DOVERLAY, 0, STATIC
        ARGFRAME ISTACK, 0, STACK
        ARGFRAME PSTACK, 0, STACK
        ARGFRAME XSTACK, 16, STACK
        ARGFRAME IOVERLAY, 0, STATIC
        ARGFRAME DOVERLAY, 0, STATIC
        MOV     A,#-0xc
        LCALL   ?BANKED_ENTER_XDATA
        CFI DPH0 load(1, XDATA, add(CFA_XSP16, literal(-1)))
        CFI DPL0 load(1, XDATA, add(CFA_XSP16, literal(-2)))
        CFI ?BRET_EXT load(1, XDATA, add(CFA_XSP16, literal(-3)))
        CFI ?RET_HIGH load(1, XDATA, add(CFA_XSP16, literal(-4)))
        CFI ?RET_LOW load(1, XDATA, add(CFA_XSP16, literal(-5)))
        CFI R7 load(1, XDATA, add(CFA_XSP16, literal(-6)))
        CFI V3 load(1, XDATA, add(CFA_XSP16, literal(-7)))
        CFI V2 load(1, XDATA, add(CFA_XSP16, literal(-8)))
        CFI V1 load(1, XDATA, add(CFA_XSP16, literal(-9)))
        CFI V0 load(1, XDATA, add(CFA_XSP16, literal(-10)))
        CFI VB load(1, XDATA, add(CFA_XSP16, literal(-11)))
        CFI R6 load(1, XDATA, add(CFA_XSP16, literal(-12)))
        CFI CFA_SP SP+0
        CFI CFA_XSP16 add(XSP16, 12)
        ; Saved register size: 12
        ; Auto size: 0
        MOV     A,R2
        MOV     R6,A
        MOV     A,R3
        MOV     R7,A
// 1087   uint16 serverMask = BUILD_UINT16( inMsg->asdu[0], inMsg->asdu[1] );
        MOV     A,R6
        ADD     A,#0x13
        MOV     DPL,A
        MOV     A,R7
        ADDC    A,#0x0
        MOV     DPH,A
        MOVX    A,@DPTR
        MOV     R0,A
        INC     DPTR
        MOVX    A,@DPTR
        MOV     DPH,A
        MOV     DPL,R0
        MOVX    A,@DPTR
        MOV     R2,A
        MOV     R3,#0x0
        MOV     A,R6
        ADD     A,#0x13
        MOV     DPL,A
        MOV     A,R7
        ADDC    A,#0x0
        MOV     DPH,A
        MOVX    A,@DPTR
        MOV     R0,A
        INC     DPTR
        MOVX    A,@DPTR
        MOV     DPH,A
        MOV     DPL,R0
        INC     DPTR
        MOVX    A,@DPTR
        MOV     R0,A
        MOV     R1,#0x0
        CLR     A
        XCH     A,R0
        MOV     R1,A
        MOV     A,R2
        ADD     A,R0
        MOV     ?V0 + 0,A
        MOV     A,R3
        ADDC    A,R1
        MOV     ?V0 + 1,A
// 1088   uint16 matchMask = serverMask & ZDO_Config_Node_Descriptor.ServerMask;
        MOV     DPTR,#ZDO_Config_Node_Descriptor + 8
        MOVX    A,@DPTR
        ANL     A,?V0 + 0
        MOV     ?V0 + 2,A
        INC     DPTR
        MOVX    A,@DPTR
        ANL     A,?V0 + 1
        MOV     ?V0 + 3,A
// 1089 
// 1090   if ( matchMask )
        MOV     A,?V0 + 2
        ORL     A,?V0 + 3
        JZ      ??ZDO_ProcessServerDiscReq_0
// 1091   {
// 1092     ZDP_ServerDiscRsp( inMsg->TransSeq, &(inMsg->srcAddr), ZSUCCESS,
// 1093                 ZDAppNwkAddr.addr.shortAddr, matchMask, inMsg->SecurityUse );
        ; Setup parameters for call to function ZDP_ServerDiscRsp
        MOV     R0,#?V0 + 2
        LCALL   ?PUSH_XSTACK_I_TWO
        CFI CFA_XSP16 add(XSP16, 14)
        MOV     DPTR,#ZDAppNwkAddr
        LCALL   ?PUSH_XSTACK8_X_TWO
        CFI CFA_XSP16 add(XSP16, 16)
        MOV     A,R6
        ADD     A,#0xe
        MOV     DPL,A
        MOV     A,R7
        ADDC    A,#0x0
        MOV     DPH,A
        MOVX    A,@DPTR
        MOV     R5,A
        MOV     R4,#0x0
        MOV     A,R6
        ADD     A,#0x2
        MOV     R2,A
        MOV     A,R7
        ADDC    A,#0x0
        MOV     R3,A
        MOV     A,R6
        ADD     A,#0xf
        MOV     DPL,A
        MOV     A,R7
        ADDC    A,#0x0
        MOV     DPH,A
        MOVX    A,@DPTR
        MOV     R1,A
        LCALL   ??ZDP_ServerDiscRsp?relay
        MOV     A,#0x4
        LCALL   ?DEALLOC_XSTACK8
        CFI CFA_XSP16 add(XSP16, 12)
        MOV     A,R1
// 1094   }
// 1095 }
??ZDO_ProcessServerDiscReq_0:
        MOV     R7,#0x4
        LJMP    ?BANKED_LEAVE_XDATA
        CFI EndBlock cfiBlock17
// 1096 
// 1097 /*********************************************************************
// 1098  * Call Back Functions from APS  - API
// 1099  */
// 1100 
// 1101 /*********************************************************************
// 1102  * @fn          ZDO_EndDeviceTimeoutCB
// 1103  *
// 1104  * @brief       This function handles the binding timer for the End
// 1105  *              Device Bind command.
// 1106  *
// 1107  * @param       none
// 1108  *
// 1109  * @return      none
// 1110  */

        RSEG BANKED_CODE:CODE:NOROOT(0)
// 1111 void ZDO_EndDeviceTimeoutCB( void )
ZDO_EndDeviceTimeoutCB:
        CFI Block cfiBlock18 Using cfiCommon0
        CFI Function ZDO_EndDeviceTimeoutCB
        CODE
// 1112 {
        FUNCALL ZDO_EndDeviceTimeoutCB, ZDO_SendEDBindRsp
        LOCFRAME ISTACK, 0, STACK
        LOCFRAME PSTACK, 0, STACK
        LOCFRAME XSTACK, 9, STACK
        LOCFRAME IOVERLAY, 0, STATIC
        LOCFRAME DOVERLAY, 0, STATIC
        ARGFRAME ISTACK, 0, STACK
        ARGFRAME PSTACK, 0, STACK
        ARGFRAME XSTACK, 9, STACK
        ARGFRAME IOVERLAY, 0, STATIC
        ARGFRAME DOVERLAY, 0, STATIC
        FUNCALL ZDO_EndDeviceTimeoutCB, ZDO_RemoveEndDeviceBind
        LOCFRAME ISTACK, 0, STACK
        LOCFRAME PSTACK, 0, STACK
        LOCFRAME XSTACK, 9, STACK
        LOCFRAME IOVERLAY, 0, STATIC
        LOCFRAME DOVERLAY, 0, STATIC
        ARGFRAME ISTACK, 0, STACK
        ARGFRAME PSTACK, 0, STACK
        ARGFRAME XSTACK, 9, STACK
        ARGFRAME IOVERLAY, 0, STATIC
        ARGFRAME DOVERLAY, 0, STATIC
        MOV     A,#-0x9
        LCALL   ?BANKED_ENTER_XDATA
        CFI DPH0 load(1, XDATA, add(CFA_XSP16, literal(-1)))
        CFI DPL0 load(1, XDATA, add(CFA_XSP16, literal(-2)))
        CFI ?BRET_EXT load(1, XDATA, add(CFA_XSP16, literal(-3)))
        CFI ?RET_HIGH load(1, XDATA, add(CFA_XSP16, literal(-4)))
        CFI ?RET_LOW load(1, XDATA, add(CFA_XSP16, literal(-5)))
        CFI R7 load(1, XDATA, add(CFA_XSP16, literal(-6)))
        CFI V0 load(1, XDATA, add(CFA_XSP16, literal(-7)))
        CFI VB load(1, XDATA, add(CFA_XSP16, literal(-8)))
        CFI R6 load(1, XDATA, add(CFA_XSP16, literal(-9)))
        CFI CFA_SP SP+0
        CFI CFA_XSP16 add(XSP16, 9)
        ; Saved register size: 9
        ; Auto size: 0
// 1113 #if defined ( REFLECTOR )
// 1114   byte stat;
// 1115   if ( ZDO_EDBind )
        MOV     DPTR,#ZDO_EDBind
        MOVX    A,@DPTR
        MOV     R0,A
        INC     DPTR
        MOVX    A,@DPTR
        MOV     R1,A
        MOV     A,R0
        ORL     A,R1
        JZ      ??ZDO_EndDeviceTimeoutCB_0
// 1116   {
// 1117     stat = ZDO_EDBind->status;
        MOV     DPTR,#ZDO_EDBind
        MOVX    A,@DPTR
        ADD     A,#0x16
        MOV     R0,A
        INC     DPTR
        MOVX    A,@DPTR
        ADDC    A,#0x0
        MOV     R1,A
        MOV     DPL,R0
        MOV     DPH,R1
        MOVX    A,@DPTR
        MOV     R6,A
// 1118 
// 1119     // Send the response message to the first sent
// 1120     ZDO_SendEDBindRsp( ZDO_EDBind->SrcTransSeq, &(ZDO_EDBind->SrcAddr),
// 1121                         stat, ZDO_EDBind->SecurityUse );
        ; Setup parameters for call to function ZDO_SendEDBindRsp
        MOV     DPTR,#ZDO_EDBind
        MOVX    A,@DPTR
        ADD     A,#0x15
        MOV     R0,A
        INC     DPTR
        MOVX    A,@DPTR
        ADDC    A,#0x0
        MOV     R1,A
        MOV     DPL,R0
        MOV     DPH,R1
        MOVX    A,@DPTR
        MOV     R5,A
        MOV     A,R6
        MOV     R4,A
        MOV     DPTR,#ZDO_EDBind
        MOVX    A,@DPTR
        ADD     A,#0x1
        MOV     R2,A
        INC     DPTR
        MOVX    A,@DPTR
        ADDC    A,#0x0
        MOV     R3,A
        MOV     DPTR,#ZDO_EDBind
        MOVX    A,@DPTR
        MOV     R0,A
        INC     DPTR
        MOVX    A,@DPTR
        MOV     DPH,A
        MOV     DPL,R0
        MOVX    A,@DPTR
        MOV     R1,A
        LCALL   ??ZDO_SendEDBindRsp?relay
// 1122 
// 1123     ZDO_RemoveEndDeviceBind();
        ; Setup parameters for call to function ZDO_RemoveEndDeviceBind
        LCALL   ??ZDO_RemoveEndDeviceBind?relay
// 1124   }
// 1125 #endif  // REFLECTOR
// 1126 }
??ZDO_EndDeviceTimeoutCB_0:
        MOV     R7,#0x1
        LJMP    ?BANKED_LEAVE_XDATA
        CFI EndBlock cfiBlock18
// 1127 
// 1128 /*********************************************************************
// 1129  * Optional Management Messages
// 1130  */
// 1131 
// 1132 /*********************************************************************
// 1133  * @fn          ZDO_ProcessMgmtLqiReq
// 1134  *
// 1135  * @brief       This function handles parsing the incoming Management
// 1136  *              LQI request and generate the response.
// 1137  *
// 1138  *   Note:      This function will limit the number of items returned
// 1139  *              to ZDO_MAX_LQI_ITEMS items.
// 1140  *
// 1141  * @param       inMsg - incoming message (request)
// 1142  *
// 1143  * @return      none
// 1144  */

        RSEG BANKED_CODE:CODE:NOROOT(0)
// 1145 void ZDO_ProcessMgmtLqiReq( zdoIncomingMsg_t *inMsg )
ZDO_ProcessMgmtLqiReq:
        CFI Block cfiBlock19 Using cfiCommon0
        CFI Function ZDO_ProcessMgmtLqiReq
        CODE
// 1146 {
        FUNCALL ZDO_ProcessMgmtLqiReq, NLME_GetRequest
        LOCFRAME ISTACK, 0, STACK
        LOCFRAME PSTACK, 0, STACK
        LOCFRAME XSTACK, 59, STACK
        LOCFRAME IOVERLAY, 0, STATIC
        LOCFRAME DOVERLAY, 0, STATIC
        ARGFRAME ISTACK, 0, STACK
        ARGFRAME PSTACK, 0, STACK
        ARGFRAME XSTACK, 59, STACK
        ARGFRAME IOVERLAY, 0, STATIC
        ARGFRAME DOVERLAY, 0, STATIC
        FUNCALL ZDO_ProcessMgmtLqiReq, AssocCount
        LOCFRAME ISTACK, 0, STACK
        LOCFRAME PSTACK, 0, STACK
        LOCFRAME XSTACK, 59, STACK
        LOCFRAME IOVERLAY, 0, STATIC
        LOCFRAME DOVERLAY, 0, STATIC
        ARGFRAME ISTACK, 0, STACK
        ARGFRAME PSTACK, 0, STACK
        ARGFRAME XSTACK, 59, STACK
        ARGFRAME IOVERLAY, 0, STATIC
        ARGFRAME DOVERLAY, 0, STATIC
        FUNCALL ZDO_ProcessMgmtLqiReq, osal_mem_alloc
        LOCFRAME ISTACK, 0, STACK
        LOCFRAME PSTACK, 0, STACK
        LOCFRAME XSTACK, 59, STACK
        LOCFRAME IOVERLAY, 0, STATIC
        LOCFRAME DOVERLAY, 0, STATIC
        ARGFRAME ISTACK, 0, STACK
        ARGFRAME PSTACK, 0, STACK
        ARGFRAME XSTACK, 59, STACK
        ARGFRAME IOVERLAY, 0, STATIC
        ARGFRAME DOVERLAY, 0, STATIC
        FUNCALL ZDO_ProcessMgmtLqiReq, AssocFindDevice
        LOCFRAME ISTACK, 0, STACK
        LOCFRAME PSTACK, 0, STACK
        LOCFRAME XSTACK, 59, STACK
        LOCFRAME IOVERLAY, 0, STATIC
        LOCFRAME DOVERLAY, 0, STATIC
        ARGFRAME ISTACK, 0, STACK
        ARGFRAME PSTACK, 0, STACK
        ARGFRAME XSTACK, 59, STACK
        ARGFRAME IOVERLAY, 0, STATIC
        ARGFRAME DOVERLAY, 0, STATIC
        FUNCALL ZDO_ProcessMgmtLqiReq, sAddrExtCpy
        LOCFRAME ISTACK, 0, STACK
        LOCFRAME PSTACK, 0, STACK
        LOCFRAME XSTACK, 59, STACK
        LOCFRAME IOVERLAY, 0, STATIC
        LOCFRAME DOVERLAY, 0, STATIC
        ARGFRAME ISTACK, 0, STACK
        ARGFRAME PSTACK, 0, STACK
        ARGFRAME XSTACK, 59, STACK
        ARGFRAME IOVERLAY, 0, STATIC
        ARGFRAME DOVERLAY, 0, STATIC
        FUNCALL ZDO_ProcessMgmtLqiReq, AddrMgrEntryLookupNwk
        LOCFRAME ISTACK, 0, STACK
        LOCFRAME PSTACK, 0, STACK
        LOCFRAME XSTACK, 59, STACK
        LOCFRAME IOVERLAY, 0, STATIC
        LOCFRAME DOVERLAY, 0, STATIC
        ARGFRAME ISTACK, 0, STACK
        ARGFRAME PSTACK, 0, STACK
        ARGFRAME XSTACK, 59, STACK
        ARGFRAME IOVERLAY, 0, STATIC
        ARGFRAME DOVERLAY, 0, STATIC
        FUNCALL ZDO_ProcessMgmtLqiReq, sAddrExtCpy
        LOCFRAME ISTACK, 0, STACK
        LOCFRAME PSTACK, 0, STACK
        LOCFRAME XSTACK, 59, STACK
        LOCFRAME IOVERLAY, 0, STATIC
        LOCFRAME DOVERLAY, 0, STATIC
        ARGFRAME ISTACK, 0, STACK
        ARGFRAME PSTACK, 0, STACK
        ARGFRAME XSTACK, 59, STACK
        ARGFRAME IOVERLAY, 0, STATIC
        ARGFRAME DOVERLAY, 0, STATIC
        FUNCALL ZDO_ProcessMgmtLqiReq, osal_memset
        LOCFRAME ISTACK, 0, STACK
        LOCFRAME PSTACK, 0, STACK
        LOCFRAME XSTACK, 59, STACK
        LOCFRAME IOVERLAY, 0, STATIC
        LOCFRAME DOVERLAY, 0, STATIC
        ARGFRAME ISTACK, 0, STACK
        ARGFRAME PSTACK, 0, STACK
        ARGFRAME XSTACK, 59, STACK
        ARGFRAME IOVERLAY, 0, STATIC
        ARGFRAME DOVERLAY, 0, STATIC
        FUNCALL ZDO_ProcessMgmtLqiReq, NLME_GetRequest
        LOCFRAME ISTACK, 0, STACK
        LOCFRAME PSTACK, 0, STACK
        LOCFRAME XSTACK, 59, STACK
        LOCFRAME IOVERLAY, 0, STATIC
        LOCFRAME DOVERLAY, 0, STATIC
        ARGFRAME ISTACK, 0, STACK
        ARGFRAME PSTACK, 0, STACK
        ARGFRAME XSTACK, 59, STACK
        ARGFRAME IOVERLAY, 0, STATIC
        ARGFRAME DOVERLAY, 0, STATIC
        FUNCALL ZDO_ProcessMgmtLqiReq, sAddrExtCpy
        LOCFRAME ISTACK, 0, STACK
        LOCFRAME PSTACK, 0, STACK
        LOCFRAME XSTACK, 59, STACK
        LOCFRAME IOVERLAY, 0, STATIC
        LOCFRAME DOVERLAY, 0, STATIC
        ARGFRAME ISTACK, 0, STACK
        ARGFRAME PSTACK, 0, STACK
        ARGFRAME XSTACK, 59, STACK
        ARGFRAME IOVERLAY, 0, STATIC
        ARGFRAME DOVERLAY, 0, STATIC
        FUNCALL ZDO_ProcessMgmtLqiReq, osal_memset
        LOCFRAME ISTACK, 0, STACK
        LOCFRAME PSTACK, 0, STACK
        LOCFRAME XSTACK, 59, STACK
        LOCFRAME IOVERLAY, 0, STATIC
        LOCFRAME DOVERLAY, 0, STATIC
        ARGFRAME ISTACK, 0, STACK
        ARGFRAME PSTACK, 0, STACK
        ARGFRAME XSTACK, 59, STACK
        ARGFRAME IOVERLAY, 0, STATIC
        ARGFRAME DOVERLAY, 0, STATIC
        FUNCALL ZDO_ProcessMgmtLqiReq, ZDP_MgmtLqiRsp
        LOCFRAME ISTACK, 0, STACK
        LOCFRAME PSTACK, 0, STACK
        LOCFRAME XSTACK, 64, STACK
        LOCFRAME IOVERLAY, 0, STATIC
        LOCFRAME DOVERLAY, 0, STATIC
        ARGFRAME ISTACK, 0, STACK
        ARGFRAME PSTACK, 0, STACK
        ARGFRAME XSTACK, 64, STACK
        ARGFRAME IOVERLAY, 0, STATIC
        ARGFRAME DOVERLAY, 0, STATIC
        FUNCALL ZDO_ProcessMgmtLqiReq, osal_mem_free
        LOCFRAME ISTACK, 0, STACK
        LOCFRAME PSTACK, 0, STACK
        LOCFRAME XSTACK, 59, STACK
        LOCFRAME IOVERLAY, 0, STATIC
        LOCFRAME DOVERLAY, 0, STATIC
        ARGFRAME ISTACK, 0, STACK
        ARGFRAME PSTACK, 0, STACK
        ARGFRAME XSTACK, 59, STACK
        ARGFRAME IOVERLAY, 0, STATIC
        ARGFRAME DOVERLAY, 0, STATIC
        MOV     A,#-0x16
        LCALL   ?BANKED_ENTER_XDATA
        CFI DPH0 load(1, XDATA, add(CFA_XSP16, literal(-1)))
        CFI DPL0 load(1, XDATA, add(CFA_XSP16, literal(-2)))
        CFI ?BRET_EXT load(1, XDATA, add(CFA_XSP16, literal(-3)))
        CFI ?RET_HIGH load(1, XDATA, add(CFA_XSP16, literal(-4)))
        CFI ?RET_LOW load(1, XDATA, add(CFA_XSP16, literal(-5)))
        CFI R7 load(1, XDATA, add(CFA_XSP16, literal(-6)))
        CFI V13 load(1, XDATA, add(CFA_XSP16, literal(-7)))
        CFI V12 load(1, XDATA, add(CFA_XSP16, literal(-8)))
        CFI V11 load(1, XDATA, add(CFA_XSP16, literal(-9)))
        CFI V10 load(1, XDATA, add(CFA_XSP16, literal(-10)))
        CFI V9 load(1, XDATA, add(CFA_XSP16, literal(-11)))
        CFI V8 load(1, XDATA, add(CFA_XSP16, literal(-12)))
        CFI V7 load(1, XDATA, add(CFA_XSP16, literal(-13)))
        CFI V6 load(1, XDATA, add(CFA_XSP16, literal(-14)))
        CFI V5 load(1, XDATA, add(CFA_XSP16, literal(-15)))
        CFI V4 load(1, XDATA, add(CFA_XSP16, literal(-16)))
        CFI V3 load(1, XDATA, add(CFA_XSP16, literal(-17)))
        CFI V2 load(1, XDATA, add(CFA_XSP16, literal(-18)))
        CFI V1 load(1, XDATA, add(CFA_XSP16, literal(-19)))
        CFI V0 load(1, XDATA, add(CFA_XSP16, literal(-20)))
        CFI VB load(1, XDATA, add(CFA_XSP16, literal(-21)))
        CFI R6 load(1, XDATA, add(CFA_XSP16, literal(-22)))
        CFI CFA_SP SP+0
        CFI CFA_XSP16 add(XSP16, 22)
        ; Saved register size: 22
        ; Auto size: 37
        MOV     A,#-0x25
        LCALL   ?ALLOC_XSTACK8
        CFI CFA_XSP16 add(XSP16, 59)
        MOV     ?V0 + 12,R2
        MOV     ?V0 + 13,R3
// 1147   byte x;
// 1148   byte index;
// 1149   byte numItems;
// 1150   byte maxItems;
// 1151   ZDP_MgmtLqiItem_t* table = NULL;
        MOV     ?V0 + 6,#0x0
        MOV     ?V0 + 7,#0x0
// 1152   ZDP_MgmtLqiItem_t* item;
// 1153   neighborEntry_t    entry;
// 1154   byte aItems;
// 1155   associated_devices_t *aDevice;
// 1156   AddrMgrEntry_t  nwkEntry;
// 1157   uint8 StartIndex = inMsg->asdu[0];
        MOV     A,?V0 + 12
        ADD     A,#0x13
        MOV     DPL,A
        MOV     A,?V0 + 13
        ADDC    A,#0x0
        MOV     DPH,A
        MOVX    A,@DPTR
        MOV     R0,A
        INC     DPTR
        MOVX    A,@DPTR
        MOV     DPH,A
        MOV     DPL,R0
        MOVX    A,@DPTR
        MOV     ?V0 + 2,A
// 1158 
// 1159   // Get the number of neighbor items
// 1160   NLME_GetRequest( nwkNumNeighborTableEntries, 0, &maxItems );
        ; Setup parameters for call to function NLME_GetRequest
        MOV     DPL,?XSP + 0
        MOV     DPH,?XSP + 1
        MOV     R4,DPL
        MOV     R5,DPH
        MOV     R2,#0x0
        MOV     R3,#0x0
        MOV     R1,#-0x64
        LCALL   ??NLME_GetRequest?relay
        MOV     A,R1
// 1161 
// 1162   // Get the number of associated items
// 1163   aItems = (uint8)AssocCount( PARENT, CHILD_FFD_RX_IDLE );
        ; Setup parameters for call to function AssocCount
        MOV     R2,#0x4
        MOV     R1,#0x0
        LCALL   ??AssocCount?relay
        MOV     A,R2
        MOV     ?V0 + 10,A
// 1164 
// 1165   // Total number of items
// 1166   maxItems += aItems;
        MOV     DPL,?XSP + 0
        MOV     DPH,?XSP + 1
        MOVX    A,@DPTR
        ADD     A,?V0 + 10
        MOVX    @DPTR,A
// 1167 
// 1168   // Start with the supplied index
// 1169   if ( maxItems > StartIndex )
        MOV     DPL,?XSP + 0
        MOV     DPH,?XSP + 1
        MOVX    A,@DPTR
        MOV     R0,A
        MOV     A,?V0 + 2
        CLR     C
        SUBB    A,R0
        JC      $+5
        LJMP    ??ZDO_ProcessMgmtLqiReq_0 & 0xFFFF
// 1170   {
// 1171     numItems = maxItems - StartIndex;
        MOV     DPL,?XSP + 0
        MOV     DPH,?XSP + 1
        MOVX    A,@DPTR
        CLR     C
        SUBB    A,?V0 + 2
        MOV     ?V0 + 1,A
// 1172 
// 1173     // limit the size of the list
// 1174     if ( numItems > ZDO_MAX_LQI_ITEMS )
        MOV     A,?V0 + 1
        CLR     C
        SUBB    A,#0x4
        JC      ??ZDO_ProcessMgmtLqiReq_1
// 1175       numItems = ZDO_MAX_LQI_ITEMS;
        MOV     ?V0 + 1,#0x3
// 1176 
// 1177     // Allocate the memory to build the table
// 1178     table = (ZDP_MgmtLqiItem_t*)osal_mem_alloc( (short)
// 1179               ( numItems * sizeof( ZDP_MgmtLqiItem_t ) ) );
??ZDO_ProcessMgmtLqiReq_1:
        ; Setup parameters for call to function osal_mem_alloc
        MOV     A,?V0 + 1
        MOV     R2,?V0 + 1
        MOV     R3,#0x0
        MOV     A,R2
        MOV     B,#0x1a
        MUL     AB
        XCH     A,R2
        MOV     R0,B
        MOV     B,#0x0
        MUL     AB
        ADD     A,R0
        MOV     R0,A
        MOV     B,#0x1a
        MOV     A,R3
        MUL     AB
        ADD     A,R0
        MOV     R3,A
        LCALL   ??osal_mem_alloc?relay
        MOV     ?V0 + 8,R2
        MOV     ?V0 + 9,R3
        MOV     ?V0 + 6,?V0 + 8
        MOV     ?V0 + 7,?V0 + 9
// 1180 
// 1181     if ( table != NULL )
        MOV     A,?V0 + 6
        ORL     A,?V0 + 7
        JNZ     $+5
        LJMP    ??ZDO_ProcessMgmtLqiReq_2 & 0xFFFF
// 1182     {
// 1183       x = 0;
        MOV     ?V0 + 3,#0x0
// 1184       item = table;
        MOV     R6,?V0 + 6
        MOV     R7,?V0 + 7
// 1185       index = StartIndex;
        MOV     ?V0 + 0,?V0 + 2
// 1186 
// 1187       // Loop through associated items and build list
// 1188       for ( ; x < numItems; x++ )
??ZDO_ProcessMgmtLqiReq_3:
        MOV     A,?V0 + 3
        CLR     C
        SUBB    A,?V0 + 1
        JC      $+5
        LJMP    ??ZDO_ProcessMgmtLqiReq_4 & 0xFFFF
// 1189       {
// 1190         if ( index < aItems )
        MOV     A,?V0 + 0
        CLR     C
        SUBB    A,?V0 + 10
        JC      $+5
        LJMP    ??ZDO_ProcessMgmtLqiReq_5 & 0xFFFF
// 1191         {
// 1192           // get next associated device
// 1193           aDevice = AssocFindDevice( index++ );
        ; Setup parameters for call to function AssocFindDevice
        MOV     R1,?V0 + 0
        LCALL   ??AssocFindDevice?relay
        MOV     ?V0 + 8,R2
        MOV     ?V0 + 9,R3
        MOV     ?V0 + 4,?V0 + 8
        MOV     ?V0 + 5,?V0 + 9
        INC     ?V0 + 0
// 1194 
// 1195           // set basic fields
// 1196           item->panID   = _NIB.nwkPanId;
        MOV     DPTR,#_NIB + 33
        MOVX    A,@DPTR
        MOV     R0,A
        INC     DPTR
        MOVX    A,@DPTR
        MOV     R1,A
        MOV     DPL,R6
        MOV     DPH,R7
        MOV     A,R0
        MOVX    @DPTR,A
        INC     DPTR
        MOV     A,R1
        MOVX    @DPTR,A
// 1197           osal_cpyExtAddr( item->extPanID, _NIB.extendedPANID );
        ; Setup parameters for call to function sAddrExtCpy
        MOV     R4,#(_NIB + 53) & 0xff
        MOV     R5,#((_NIB + 53) >> 8) & 0xff
        MOV     A,R6
        ADD     A,#0x2
        MOV     R2,A
        MOV     A,R7
        ADDC    A,#0x0
        MOV     R3,A
        LCALL   ??sAddrExtCpy?relay
// 1198           item->nwkAddr = aDevice->shortAddr;
        MOV     DPL,?V0 + 4
        MOV     DPH,?V0 + 5
        MOVX    A,@DPTR
        MOV     R0,A
        INC     DPTR
        MOVX    A,@DPTR
        MOV     R1,A
        MOV     A,R6
        ADD     A,#0x12
        MOV     DPL,A
        MOV     A,R7
        ADDC    A,#0x0
        MOV     DPH,A
        MOV     A,R0
        MOVX    @DPTR,A
        INC     DPTR
        MOV     A,R1
        MOVX    @DPTR,A
// 1199           item->permit  = ZDP_MGMT_BOOL_UNKNOWN;
        MOV     A,R6
        ADD     A,#0x17
        MOV     DPL,A
        MOV     A,R7
        ADDC    A,#0x0
        MOV     DPH,A
        MOV     A,#0x2
        MOVX    @DPTR,A
// 1200           item->depth   = 0xFF;
        MOV     A,R6
        ADD     A,#0x18
        MOV     DPL,A
        MOV     A,R7
        ADDC    A,#0x0
        MOV     DPH,A
        MOV     A,#-0x1
        MOVX    @DPTR,A
// 1201           item->lqi     = aDevice->linkInfo.rxLqi;
        MOV     DPL,?V0 + 4
        MOV     DPH,?V0 + 5
        INC     DPTR
        INC     DPTR
        INC     DPTR
        INC     DPTR
        INC     DPTR
        INC     DPTR
        INC     DPTR
        INC     DPTR
        INC     DPTR
        INC     DPTR
        MOVX    A,@DPTR
        PUSH    A
        CFI CFA_SP SP+-1
        MOV     A,R6
        ADD     A,#0x19
        MOV     DPL,A
        MOV     A,R7
        ADDC    A,#0x0
        MOV     DPH,A
        POP     A
        CFI CFA_SP SP+0
        MOVX    @DPTR,A
// 1202 
// 1203           // set extented address
// 1204           nwkEntry.user    = ADDRMGR_USER_DEFAULT;
        MOV     A,#0x1
        LCALL   ?XSTACK_DISP0_8
        MOV     A,#0x0
        MOVX    @DPTR,A
// 1205           nwkEntry.nwkAddr = aDevice->shortAddr;
        MOV     DPL,?V0 + 4
        MOV     DPH,?V0 + 5
        MOVX    A,@DPTR
        MOV     R0,A
        INC     DPTR
        MOVX    A,@DPTR
        MOV     R1,A
        MOV     A,#0x2
        LCALL   ?XSTACK_DISP0_8
        MOV     A,R0
        MOVX    @DPTR,A
        INC     DPTR
        MOV     A,R1
        MOVX    @DPTR,A
// 1206 
// 1207           if ( AddrMgrEntryLookupNwk( &nwkEntry ) == TRUE )
        ; Setup parameters for call to function AddrMgrEntryLookupNwk
        MOV     A,#0x1
        LCALL   ?XSTACK_DISP0_8
        MOV     R2,DPL
        MOV     R3,DPH
        LCALL   ??AddrMgrEntryLookupNwk?relay
        MOV     A,R1
        XRL     A,#0x1
        JNZ     ??ZDO_ProcessMgmtLqiReq_6
// 1208           {
// 1209             osal_cpyExtAddr( item->extAddr, nwkEntry.extAddr );
        ; Setup parameters for call to function sAddrExtCpy
        MOV     A,#0x4
        LCALL   ?XSTACK_DISP0_8
        MOV     R4,DPL
        MOV     R5,DPH
        MOV     A,R6
        ADD     A,#0xa
        MOV     R2,A
        MOV     A,R7
        ADDC    A,#0x0
        MOV     R3,A
        LCALL   ??sAddrExtCpy?relay
        SJMP    ??ZDO_ProcessMgmtLqiReq_7
// 1210           }
// 1211           else
// 1212           {
// 1213             osal_memset( item->extAddr, 0xFF, Z_EXTADDR_LEN );
??ZDO_ProcessMgmtLqiReq_6:
        ; Setup parameters for call to function osal_memset
        MOV     R4,#0x8
        MOV     R5,#0x0
        MOV     R1,#-0x1
        MOV     A,R6
        ADD     A,#0xa
        MOV     R2,A
        MOV     A,R7
        ADDC    A,#0x0
        MOV     R3,A
        LCALL   ??osal_memset?relay
// 1214           }
// 1215 
// 1216           // use association info to set other fields
// 1217           if ( aDevice->nodeRelation == PARENT )
??ZDO_ProcessMgmtLqiReq_7:
        MOV     DPL,?V0 + 4
        MOV     DPH,?V0 + 5
        INC     DPTR
        INC     DPTR
        INC     DPTR
        INC     DPTR
        MOVX    A,@DPTR
        JNZ     ??ZDO_ProcessMgmtLqiReq_8
// 1218           {
// 1219             if (  aDevice->shortAddr == 0 )
        MOV     DPL,?V0 + 4
        MOV     DPH,?V0 + 5
        MOVX    A,@DPTR
        MOV     R0,A
        INC     DPTR
        MOVX    A,@DPTR
        MOV     R1,A
        MOV     A,R0
        ORL     A,R1
        JNZ     ??ZDO_ProcessMgmtLqiReq_9
// 1220             {
// 1221               item->devType = ZDP_MGMT_DT_COORD;
        MOV     A,R6
        ADD     A,#0x14
        MOV     DPL,A
        MOV     A,R7
        ADDC    A,#0x0
        MOV     DPH,A
        MOV     A,#0x0
        MOVX    @DPTR,A
// 1222               item->depth = 0;
        MOV     A,R6
        ADD     A,#0x18
        MOV     DPL,A
        MOV     A,R7
        ADDC    A,#0x0
        MOV     DPH,A
        MOV     A,#0x0
        MOVX    @DPTR,A
        SJMP    ??ZDO_ProcessMgmtLqiReq_10
// 1223             }
// 1224             else
// 1225             {
// 1226               item->devType = ZDP_MGMT_DT_ROUTER;
??ZDO_ProcessMgmtLqiReq_9:
        MOV     A,R6
        ADD     A,#0x14
        MOV     DPL,A
        MOV     A,R7
        ADDC    A,#0x0
        MOV     DPH,A
        MOV     A,#0x1
        MOVX    @DPTR,A
// 1227               item->depth = _NIB.nodeDepth - 1;
        MOV     DPTR,#_NIB + 52
        MOVX    A,@DPTR
        ADD     A,#-0x1
        PUSH    A
        CFI CFA_SP SP+-1
        MOV     A,R6
        ADD     A,#0x18
        MOV     DPL,A
        MOV     A,R7
        ADDC    A,#0x0
        MOV     DPH,A
        POP     A
        CFI CFA_SP SP+0
        MOVX    @DPTR,A
// 1228             }
// 1229 
// 1230             item->rxOnIdle = ZDP_MGMT_BOOL_UNKNOWN;
??ZDO_ProcessMgmtLqiReq_10:
        MOV     A,R6
        ADD     A,#0x15
        MOV     DPL,A
        MOV     A,R7
        ADDC    A,#0x0
        MOV     DPH,A
        MOV     A,#0x2
        MOVX    @DPTR,A
// 1231             item->relation = ZDP_MGMT_REL_PARENT;
        MOV     A,R6
        ADD     A,#0x16
        MOV     DPL,A
        MOV     A,R7
        ADDC    A,#0x0
        MOV     DPH,A
        MOV     A,#0x0
        MOVX    @DPTR,A
        LJMP    ??ZDO_ProcessMgmtLqiReq_11 & 0xFFFF
// 1232           }
