###############################################################################
#                                                                             #
# IAR C/C++ Compiler V8.10.1.10194/W32 for 8051         13/Jul/2015  17:23:47 #
# Copyright 2004-2011 IAR Systems AB.                                         #
#                                                                             #
#    Core               =  plain                                              #
#    Code model         =  banked                                             #
#    Data model         =  large                                              #
#    Calling convention =  xdata reentrant                                    #
#    Constant location  =  data_rom                                           #
#    Dptr setup         =  1,16                                               #
#    Source file        =  C:\Texas Instruments\ZStack-CC2530-2.5.1a\Componen #
#                          ts\stack\zdo\ZDProfile.c                           #
#    Command line       =  -f "C:\Texas Instruments\ZStack-CC2530-2.5.1a\Proj #
#                          ects\zstack\Samples\WirelessMonitorSystem\CC2530DB #
#                          \..\..\..\Tools\CC2530DB\f8wEndev.cfg"             #
#                          (-DCPU32MHZ -DROOT=__near_func                     #
#                          -DMAC_CFG_TX_DATA_MAX=3 -DMAC_CFG_TX_MAX=6         #
#                          -DMAC_CFG_RX_MAX=3) -f "C:\Texas                   #
#                          Instruments\ZStack-CC2530-2.5.1a\Projects\zstack\S #
#                          amples\WirelessMonitorSystem\CC2530DB\..\..\..\Too #
#                          ls\CC2530DB\f8wConfig.cfg" (-DZIGBEEPRO            #
#                          -DSECURE=0 -DZG_SECURE_DYNAMIC=0 -DREFLECTOR       #
#                          -DDEFAULT_CHANLIST=0x00000800                      #
#                          -DZDAPP_CONFIG_PAN_ID=0xFFFF                       #
#                          -DNWK_START_DELAY=100 -DEXTENDED_JOINING_RANDOM_MA #
#                          SK=0x007F -DBEACON_REQUEST_DELAY=100               #
#                          -DBEACON_REQ_DELAY_MASK=0x00FF                     #
#                          -DLINK_STATUS_JITTER_MASK=0x007F                   #
#                          -DROUTE_EXPIRY_TIME=30 -DAPSC_ACK_WAIT_DURATION_PO #
#                          LLED=3000 -DNWK_INDIRECT_MSG_TIMEOUT=7             #
#                          -DMAX_RREQ_ENTRIES=8 -DAPSC_MAX_FRAME_RETRIES=3    #
#                          -DNWK_MAX_DATA_RETRIES=2                           #
#                          -DMAX_POLL_FAILURE_RETRIES=2 -DMAX_BCAST=9         #
#                          -DAPS_MAX_GROUPS=16 -DMAX_RTG_ENTRIES=40           #
#                          -DNWK_MAX_BINDING_ENTRIES=4                        #
#                          -DMAX_BINDING_CLUSTER_IDS=4 "-DDEFAULT_KEY={0x01,  #
#                          0x03, 0x05, 0x07, 0x09, 0x0B, 0x0D, 0x0F, 0x00,    #
#                          0x02, 0x04, 0x06, 0x08, 0x0A, 0x0C, 0x0D}"         #
#                          -DMAC_MAX_FRAME_SIZE=116                           #
#                          -DZDNWKMGR_MIN_TRANSMISSIONS=20 "-DCONST=const     #
#                          __code" -DGENERIC=__generic                        #
#                          -DRFD_RCVC_ALWAYS_ON=FALSE -DPOLL_RATE=500         #
#                          -DQUEUED_POLL_RATE=30 -DRESPONSE_POLL_RATE=100)    #
#                          -DREJOIN_POLL_RATE=440 "C:\Texas                   #
#                          Instruments\ZStack-CC2530-2.5.1a\Components\stack\ #
#                          zdo\ZDProfile.c" -D HAL_UART -lC "C:\Texas         #
#                          Instruments\ZStack-CC2530-2.5.1a\Projects\zstack\S #
#                          amples\WirelessMonitorSystem\CC2530DB\Camera\List\ #
#                          " -lA "C:\Texas Instruments\ZStack-CC2530-2.5.1a\P #
#                          rojects\zstack\Samples\WirelessMonitorSystem\CC253 #
#                          0DB\Camera\List\" --diag_suppress Pe001,Pa010 -o   #
#                          "C:\Texas Instruments\ZStack-CC2530-2.5.1a\Project #
#                          s\zstack\Samples\WirelessMonitorSystem\CC2530DB\Ca #
#                          mera\Obj\" -e --no_cse --no_unroll --no_inline     #
#                          --no_code_motion --no_tbaa --debug --core=plain    #
#                          --dptr=16,1 --data_model=large                     #
#                          --code_model=banked --calling_convention=xdata_ree #
#                          ntrant --place_constants=data_rom                  #
#                          --nr_virtual_regs 16 -I "C:\Texas                  #
#                          Instruments\ZStack-CC2530-2.5.1a\Projects\zstack\S #
#                          amples\WirelessMonitorSystem\CC2530DB\" -I         #
#                          "C:\Texas Instruments\ZStack-CC2530-2.5.1a\Project #
#                          s\zstack\Samples\WirelessMonitorSystem\CC2530DB\.. #
#                          \Source\" -I "C:\Texas Instruments\ZStack-CC2530-2 #
#                          .5.1a\Projects\zstack\Samples\WirelessMonitorSyste #
#                          m\CC2530DB\..\..\..\ZMain\TI2530DB\" -I "C:\Texas  #
#                          Instruments\ZStack-CC2530-2.5.1a\Projects\zstack\S #
#                          amples\WirelessMonitorSystem\CC2530DB\..\..\..\..\ #
#                          ..\Components\hal\include\" -I "C:\Texas           #
#                          Instruments\ZStack-CC2530-2.5.1a\Projects\zstack\S #
#                          amples\WirelessMonitorSystem\CC2530DB\..\..\..\..\ #
#                          ..\Components\hal\target\CC2530EB\" -I "C:\Texas   #
#                          Instruments\ZStack-CC2530-2.5.1a\Projects\zstack\S #
#                          amples\WirelessMonitorSystem\CC2530DB\..\..\..\..\ #
#                          ..\Components\mac\include\" -I "C:\Texas           #
#                          Instruments\ZStack-CC2530-2.5.1a\Projects\zstack\S #
#                          amples\WirelessMonitorSystem\CC2530DB\..\..\..\..\ #
#                          ..\Components\mac\high_level\" -I "C:\Texas        #
#                          Instruments\ZStack-CC2530-2.5.1a\Projects\zstack\S #
#                          amples\WirelessMonitorSystem\CC2530DB\..\..\..\..\ #
#                          ..\Components\mac\low_level\srf04\" -I "C:\Texas   #
#                          Instruments\ZStack-CC2530-2.5.1a\Projects\zstack\S #
#                          amples\WirelessMonitorSystem\CC2530DB\..\..\..\..\ #
#                          ..\Components\mac\low_level\srf04\single_chip\"    #
#                          -I "C:\Texas Instruments\ZStack-CC2530-2.5.1a\Proj #
#                          ects\zstack\Samples\WirelessMonitorSystem\CC2530DB #
#                          \..\..\..\..\..\Components\mt\" -I "C:\Texas       #
#                          Instruments\ZStack-CC2530-2.5.1a\Projects\zstack\S #
#                          amples\WirelessMonitorSystem\CC2530DB\..\..\..\..\ #
#                          ..\Components\osal\include\" -I "C:\Texas          #
#                          Instruments\ZStack-CC2530-2.5.1a\Projects\zstack\S #
#                          amples\WirelessMonitorSystem\CC2530DB\..\..\..\..\ #
#                          ..\Components\services\saddr\" -I "C:\Texas        #
#                          Instruments\ZStack-CC2530-2.5.1a\Projects\zstack\S #
#                          amples\WirelessMonitorSystem\CC2530DB\..\..\..\..\ #
#                          ..\Components\services\sdata\" -I "C:\Texas        #
#                          Instruments\ZStack-CC2530-2.5.1a\Projects\zstack\S #
#                          amples\WirelessMonitorSystem\CC2530DB\..\..\..\..\ #
#                          ..\Components\stack\af\" -I "C:\Texas              #
#                          Instruments\ZStack-CC2530-2.5.1a\Projects\zstack\S #
#                          amples\WirelessMonitorSystem\CC2530DB\..\..\..\..\ #
#                          ..\Components\stack\nwk\" -I "C:\Texas             #
#                          Instruments\ZStack-CC2530-2.5.1a\Projects\zstack\S #
#                          amples\WirelessMonitorSystem\CC2530DB\..\..\..\..\ #
#                          ..\Components\stack\sapi\" -I "C:\Texas            #
#                          Instruments\ZStack-CC2530-2.5.1a\Projects\zstack\S #
#                          amples\WirelessMonitorSystem\CC2530DB\..\..\..\..\ #
#                          ..\Components\stack\sec\" -I "C:\Texas             #
#                          Instruments\ZStack-CC2530-2.5.1a\Projects\zstack\S #
#                          amples\WirelessMonitorSystem\CC2530DB\..\..\..\..\ #
#                          ..\Components\stack\sys\" -I "C:\Texas             #
#                          Instruments\ZStack-CC2530-2.5.1a\Projects\zstack\S #
#                          amples\WirelessMonitorSystem\CC2530DB\..\..\..\..\ #
#                          ..\Components\stack\zdo\" -I "C:\Texas             #
#                          Instruments\ZStack-CC2530-2.5.1a\Projects\zstack\S #
#                          amples\WirelessMonitorSystem\CC2530DB\..\..\..\..\ #
#                          ..\Components\zmac\" -I "C:\Texas                  #
#                          Instruments\ZStack-CC2530-2.5.1a\Projects\zstack\S #
#                          amples\WirelessMonitorSystem\CC2530DB\..\..\..\..\ #
#                          ..\Components\zmac\f8w\" -On --require_prototypes  #
#    List file          =  C:\Texas Instruments\ZStack-CC2530-2.5.1a\Projects #
#                          \zstack\Samples\WirelessMonitorSystem\CC2530DB\Cam #
#                          era\List\ZDProfile.lst                             #
#    Object file        =  C:\Texas Instruments\ZStack-CC2530-2.5.1a\Projects #
#                          \zstack\Samples\WirelessMonitorSystem\CC2530DB\Cam #
#                          era\Obj\ZDProfile.r51                              #
#                                                                             #
#                                                                             #
###############################################################################

C:\Texas Instruments\ZStack-CC2530-2.5.1a\Components\stack\zdo\ZDProfile.c
      1          /**************************************************************************************************
      2            Filename:       ZDProfile.c
      3            Revised:        $Date: 2010-10-13 10:54:13 -0700 (Wed, 13 Oct 2010) $
      4            Revision:       $Revision: 24112 $
      5          
      6            Description:    This is the Zigbee Device Profile.
      7          
      8          
      9            Copyright 2004-2010 Texas Instruments Incorporated. All rights reserved.
     10          
     11            IMPORTANT: Your use of this Software is limited to those specific rights
     12            granted under the terms of a software license agreement between the user
     13            who downloaded the software, his/her employer (which must be your employer)
     14            and Texas Instruments Incorporated (the "License").  You may not use this
     15            Software unless you agree to abide by the terms of the License. The License
     16            limits your use, and you acknowledge, that the Software may not be modified,
     17            copied or distributed unless embedded on a Texas Instruments microcontroller
     18            or used solely and exclusively in conjunction with a Texas Instruments radio
     19            frequency transceiver, which is integrated into your product.  Other than for
     20            the foregoing purpose, you may not use, reproduce, copy, prepare derivative
     21            works of, modify, distribute, perform, display or sell this Software and/or
     22            its documentation for any purpose.
     23          
     24            YOU FURTHER ACKNOWLEDGE AND AGREE THAT THE SOFTWARE AND DOCUMENTATION ARE
     25            PROVIDED “AS IS” WITHOUT WARRANTY OF ANY KIND, EITHER EXPRESS OR IMPLIED,
     26            INCLUDING WITHOUT LIMITATION, ANY WARRANTY OF MERCHANTABILITY, TITLE,
     27            NON-INFRINGEMENT AND FITNESS FOR A PARTICULAR PURPOSE. IN NO EVENT SHALL
     28            TEXAS INSTRUMENTS OR ITS LICENSORS BE LIABLE OR OBLIGATED UNDER CONTRACT,
     29            NEGLIGENCE, STRICT LIABILITY, CONTRIBUTION, BREACH OF WARRANTY, OR OTHER
     30            LEGAL EQUITABLE THEORY ANY DIRECT OR INDIRECT DAMAGES OR EXPENSES
     31            INCLUDING BUT NOT LIMITED TO ANY INCIDENTAL, SPECIAL, INDIRECT, PUNITIVE
     32            OR CONSEQUENTIAL DAMAGES, LOST PROFITS OR LOST DATA, COST OF PROCUREMENT
     33            OF SUBSTITUTE GOODS, TECHNOLOGY, SERVICES, OR ANY CLAIMS BY THIRD PARTIES
     34            (INCLUDING BUT NOT LIMITED TO ANY DEFENSE THEREOF), OR OTHER SIMILAR COSTS.
     35          
     36            Should you have any questions regarding your right to use this Software,
     37            contact Texas Instruments Incorporated at www.TI.com.
     38          **************************************************************************************************/
     39          
     40          /*********************************************************************
     41           * INCLUDES
     42           */
     43          #include "ZComdef.h"
     44          #include "OSAL.h"
     45          #include "AF.h"
     46          #include "NLMEDE.h"
     47          #include "nwk_util.h"
     48          #include "APS.h"
     49          
     50          #include "AddrMgr.h"
     51          #include "ZDConfig.h"
     52          #include "ZDProfile.h"
     53          #include "ZDObject.h"
     54          #include "ZDNwkMgr.h"
     55          
     56          #if defined( LCD_SUPPORTED )
     57            #include "OnBoard.h"
     58          #endif
     59          
     60          #include "nwk_util.h"
     61          
     62          #if defined( MT_ZDO_FUNC )
     63            #include "MT_ZDO.h"
     64          #endif
     65          
     66          /*********************************************************************
     67           * MACROS
     68           */
     69          
     70          #define ZADDR_TO_AFADDR( pZADDR, AFADDR ) {                            \
     71            (AFADDR).endPoint = ZDP_AF_ENDPOINT;                                 \
     72            (AFADDR).addrMode = (afAddrMode_t)(pZADDR)->addrMode;                \
     73            (AFADDR).addr.shortAddr = (pZADDR)->addr.shortAddr;                  \
     74          }
     75          
     76          #define FillAndSendBuffer( TRANSSEQ, ADDR, ID, LEN, BUF ) {     \
     77            afStatus_t stat;                                    \
     78            ZDP_TmpBuf = (BUF)+1;                               \
     79            stat = fillAndSend( (TRANSSEQ), (ADDR), (ID), (LEN) );          \
     80            osal_mem_free( (BUF) );                             \
     81            ZDP_TmpBuf = ZDP_Buf+1;                             \
     82            return stat;                                        \
     83          }
     84          
     85          #define FillAndSendTxOptions( TRANSSEQ, ADDR, ID, LEN, TxO ) {  \
     86            afStatus_t stat;                                    \
     87            ZDP_TxOptions = (TxO);                              \
     88            stat = fillAndSend( (TRANSSEQ), (ADDR), (ID), (LEN) );          \
     89            ZDP_TxOptions = AF_TX_OPTIONS_NONE;                 \
     90            return stat;                                        \
     91          }
     92          
     93          #define FillAndSendBufferTxOptions( TRANSSEQ, ADDR, ID, LEN, BUF, TxO ) { \
     94            afStatus_t stat;                                    \
     95            ZDP_TmpBuf = (BUF)+1;                               \
     96            ZDP_TxOptions = (TxO);                              \
     97            stat = fillAndSend( (TRANSSEQ), (ADDR), (ID), (LEN) );          \
     98            osal_mem_free( (BUF) );                             \
     99            ZDP_TmpBuf = ZDP_Buf+1;                             \
    100            ZDP_TxOptions = AF_TX_OPTIONS_NONE;                 \
    101            return stat;                                        \
    102          }
    103          
    104          /*********************************************************************
    105           * CONSTANTS
    106           */
    107          
    108          #define ZDP_BUF_SZ          80
    109          

   \                                 In  segment CODE_C, align 1
    110          CONST byte ZDP_AF_ENDPOINT = 0;
   \                     ZDP_AF_ENDPOINT:
   \   000000   00           DB 0
    111          
    112          /*********************************************************************
    113           * TYPEDEFS
    114           */
    115          typedef struct
    116          {
    117            void *next;
    118            uint8 taskID;
    119            uint16 clusterID;
    120          } ZDO_MsgCB_t;
    121          
    122          
    123          /*********************************************************************
    124           * GLOBAL VARIABLES
    125           */
    126          

   \                                 In  segment XDATA_Z, align 1, keep-with-next
    127          byte ZDP_TransID = 0;
   \                     ZDP_TransID:
   \   000000                DS 1
   \   000001                REQUIRE __INIT_XDATA_Z
    128          
    129          /*********************************************************************
    130           * EXTERNAL VARIABLES
    131           */
    132          
    133          extern endPointDesc_t ZDApp_epDesc;
    134          
    135          /*********************************************************************
    136           * EXTERNAL FUNCTIONS
    137           */
    138          
    139          /*********************************************************************
    140           * LOCAL FUNCTIONS
    141           */
    142          
    143          static afStatus_t fillAndSend( uint8 *transSeq, zAddrType_t *addr, cId_t clusterID, byte len );
    144          uint8 ZDO_SendMsgCBs( zdoIncomingMsg_t *inMsg );
    145          void zdpProcessAddrReq( zdoIncomingMsg_t *inMsg );
    146          
    147          /*********************************************************************
    148           * LOCAL VARIABLES
    149           */
    150          

   \                                 In  segment XDATA_Z, align 1, keep-with-next
    151          static uint8  ZDP_Buf[ ZDP_BUF_SZ ];
   \                     ZDP_Buf:
   \   000000                DS 80
   \   000050                REQUIRE __INIT_XDATA_Z

   \                                 In  segment XDATA_I, align 1, keep-with-next
    152          static uint8 *ZDP_TmpBuf = ZDP_Buf+1;
   \                     ZDP_TmpBuf:
   \   000000                DS 2
   \   000002                REQUIRE `?<Initializer for ZDP_TmpBuf>`
   \   000002                REQUIRE __INIT_XDATA_I
    153          

   \                                 In  segment XDATA_Z, align 1, keep-with-next
    154          byte ZDP_TxOptions = AF_TX_OPTIONS_NONE;
   \                     ZDP_TxOptions:
   \   000000                DS 1
   \   000001                REQUIRE __INIT_XDATA_Z

   \                                 In  segment XDATA_Z, align 1, keep-with-next
    155          ZDO_MsgCB_t *zdoMsgCBs = (ZDO_MsgCB_t *)NULL;
   \                     zdoMsgCBs:
   \   000000                DS 2
   \   000002                REQUIRE __INIT_XDATA_Z
    156          
    157          /*********************************************************************
    158           * ZDO Message Processing table
    159           */
    160          
    161          typedef void (*pfnZDPMsgProcessor)( zdoIncomingMsg_t *inMsg );
    162          
    163          typedef struct
    164          {
    165            uint16                clusterID;
    166            pfnZDPMsgProcessor    pFn;
    167          } zdpMsgProcItem_t;
    168          

   \                                 In  segment CODE_C, align 1
    169          CONST zdpMsgProcItem_t zdpMsgProcs[] =
   \                     zdpMsgProcs:
   \   000000   0100         DW 1
   \   000002   ....         DW ??zdpProcessAddrReq?relay
   \   000004   0200         DW 2
   \   000006   ....         DW ??ZDO_ProcessNodeDescReq?relay
   \   000008   0300         DW 3
   \   00000A   ....         DW ??ZDO_ProcessPowerDescReq?relay
   \   00000C   0400         DW 4
   \   00000E   ....         DW ??ZDO_ProcessSimpleDescReq?relay
   \   000010   0500         DW 5
   \   000012   ....         DW ??ZDO_ProcessActiveEPReq?relay
   \   000014   0600         DW 6
   \   000016   ....         DW ??ZDO_ProcessMatchDescReq?relay
   \   000018   FFFF         DW 65535
   \   00001A   0000         DW 0H
    170          {
    171          #if ( RFD_RCVC_ALWAYS_ON==TRUE ) || ( ZG_BUILD_RTR_TYPE )
    172            // These aren't processed by sleeping end devices.
    173            { NWK_addr_req,           zdpProcessAddrReq },
    174            { Device_annce,           ZDO_ProcessDeviceAnnce },
    175          #endif
    176            { IEEE_addr_req,          zdpProcessAddrReq },
    177            { Node_Desc_req,          ZDO_ProcessNodeDescReq },
    178            { Power_Desc_req,         ZDO_ProcessPowerDescReq },
    179            { Simple_Desc_req,        ZDO_ProcessSimpleDescReq },
    180            { Active_EP_req,          ZDO_ProcessActiveEPReq },
    181            { Match_Desc_req,         ZDO_ProcessMatchDescReq },
    182          #if defined ( ZDO_MGMT_NWKDISC_RESPONSE )
    183            { Mgmt_NWK_Disc_req,      ZDO_ProcessMgmtNwkDiscReq },
    184          #endif
    185          #if defined ( ZDO_MGMT_LQI_RESPONSE ) && ( ZG_BUILD_RTR_TYPE )
    186            { Mgmt_Lqi_req,           ZDO_ProcessMgmtLqiReq },
    187          #endif
    188          #if defined ( ZDO_MGMT_RTG_RESPONSE ) && ( ZG_BUILD_RTR_TYPE )
    189            { Mgmt_Rtg_req,           ZDO_ProcessMgmtRtgReq },
    190          #endif
    191          #if defined ( ZDO_MGMT_BIND_RESPONSE ) && defined ( REFLECTOR )
    192            { Mgmt_Bind_req,          ZDO_ProcessMgmtBindReq },
    193          #endif
    194          #if defined ( ZDO_MGMT_JOINDIRECT_RESPONSE ) && ( ZG_BUILD_RTR_TYPE )
    195            { Mgmt_Direct_Join_req,   ZDO_ProcessMgmtDirectJoinReq },
    196          #endif
    197          #if defined ( ZDO_MGMT_LEAVE_RESPONSE )
    198            { Mgmt_Leave_req,         ZDO_ProcessMgmtLeaveReq },
    199          #endif
    200          #if defined ( ZDO_MGMT_PERMIT_JOIN_RESPONSE )  && ( ZG_BUILD_RTR_TYPE )
    201            { Mgmt_Permit_Join_req,   ZDO_ProcessMgmtPermitJoinReq },
    202          #endif
    203          #if defined ( ZDO_USERDESC_RESPONSE )
    204            { User_Desc_req,          ZDO_ProcessUserDescReq },
    205          #endif
    206          #if defined ( ZDO_USERDESCSET_RESPONSE )
    207            { User_Desc_set,          ZDO_ProcessUserDescSet },
    208          #endif
    209          #if defined ( ZDO_SERVERDISC_RESPONSE )
    210            { Server_Discovery_req,   ZDO_ProcessServerDiscReq },
    211          #endif
    212            {0xFFFF, NULL} // Last
    213          };
    214          
    215          /*********************************************************************
    216           * @fn          fillAndSend
    217           *
    218           * @brief       Combined to reduce space
    219           *
    220           * @param
    221           * @param
    222           *
    223           * @return      afStatus_t
    224           */

   \                                 In  segment BANKED_CODE, align 1, keep-with-next
    225          static afStatus_t fillAndSend( uint8 *transSeq, zAddrType_t *addr, cId_t clusterID, byte len )
   \                     fillAndSend:
    226          {
   \   000000   74F0         MOV     A,#-0x10
   \   000002   12....       LCALL   ?BANKED_ENTER_XDATA
   \   000005                ; Saved register size: 16
   \   000005                ; Auto size: 12
   \   000005   74F4         MOV     A,#-0xc
   \   000007   12....       LCALL   ?ALLOC_XSTACK8
   \   00000A   8A..         MOV     ?V0 + 2,R2
   \   00000C   8B..         MOV     ?V0 + 3,R3
   \   00000E   EC           MOV     A,R4
   \   00000F   FE           MOV     R6,A
   \   000010   ED           MOV     A,R5
   \   000011   FF           MOV     R7,A
   \   000012   89..         MOV     ?V0 + 0,R1
   \   000014   741C         MOV     A,#0x1c
   \   000016   12....       LCALL   ?XSTACK_DISP0_8
   \   000019   E0           MOVX    A,@DPTR
   \   00001A   F5..         MOV     ?V0 + 4,A
   \   00001C   A3           INC     DPTR
   \   00001D   E0           MOVX    A,@DPTR
   \   00001E   F5..         MOV     ?V0 + 5,A
    227            afAddrType_t afAddr;
    228          
    229            osal_memset( &afAddr, 0, sizeof(afAddrType_t) );
   \   000020                ; Setup parameters for call to function osal_memset
   \   000020   7C0C         MOV     R4,#0xc
   \   000022   7D00         MOV     R5,#0x0
   \   000024   7900         MOV     R1,#0x0
   \   000026   85..82       MOV     DPL,?XSP + 0
   \   000029   85..83       MOV     DPH,?XSP + 1
   \   00002C   AA82         MOV     R2,DPL
   \   00002E   AB83         MOV     R3,DPH
   \   000030   12....       LCALL   ??osal_memset?relay
    230            ZADDR_TO_AFADDR( addr, afAddr );
   \   000033   90....       MOV     DPTR,#ZDP_AF_ENDPOINT
   \   000036   E4           CLR     A
   \   000037   93           MOVC    A,@A+DPTR
   \   000038   C0E0         PUSH    A
   \   00003A   7409         MOV     A,#0x9
   \   00003C   12....       LCALL   ?XSTACK_DISP0_8
   \   00003F   D0E0         POP     A
   \   000041   F0           MOVX    @DPTR,A
   \   000042   8E82         MOV     DPL,R6
   \   000044   8F83         MOV     DPH,R7
   \   000046   A3           INC     DPTR
   \   000047   A3           INC     DPTR
   \   000048   A3           INC     DPTR
   \   000049   A3           INC     DPTR
   \   00004A   A3           INC     DPTR
   \   00004B   A3           INC     DPTR
   \   00004C   A3           INC     DPTR
   \   00004D   A3           INC     DPTR
   \   00004E   E0           MOVX    A,@DPTR
   \   00004F   C0E0         PUSH    A
   \   000051   7408         MOV     A,#0x8
   \   000053   12....       LCALL   ?XSTACK_DISP0_8
   \   000056   D0E0         POP     A
   \   000058   F0           MOVX    @DPTR,A
   \   000059   8E82         MOV     DPL,R6
   \   00005B   8F83         MOV     DPH,R7
   \   00005D   E0           MOVX    A,@DPTR
   \   00005E   F8           MOV     R0,A
   \   00005F   A3           INC     DPTR
   \   000060   E0           MOVX    A,@DPTR
   \   000061   F9           MOV     R1,A
   \   000062   85..82       MOV     DPL,?XSP + 0
   \   000065   85..83       MOV     DPH,?XSP + 1
   \   000068   E8           MOV     A,R0
   \   000069   F0           MOVX    @DPTR,A
   \   00006A   A3           INC     DPTR
   \   00006B   E9           MOV     A,R1
   \   00006C   F0           MOVX    @DPTR,A
    231          
    232            *(ZDP_TmpBuf-1) = *transSeq;
   \   00006D   85..82       MOV     DPL,?V0 + 2
   \   000070   85..83       MOV     DPH,?V0 + 3
   \   000073   E0           MOVX    A,@DPTR
   \   000074   C0E0         PUSH    A
   \   000076   90....       MOV     DPTR,#ZDP_TmpBuf
   \   000079   E0           MOVX    A,@DPTR
   \   00007A   24FF         ADD     A,#-0x1
   \   00007C   F8           MOV     R0,A
   \   00007D   A3           INC     DPTR
   \   00007E   E0           MOVX    A,@DPTR
   \   00007F   34FF         ADDC    A,#-0x1
   \   000081   F9           MOV     R1,A
   \   000082   8882         MOV     DPL,R0
   \   000084   8983         MOV     DPH,R1
   \   000086   D0E0         POP     A
   \   000088   F0           MOVX    @DPTR,A
    233          
    234            return AF_DataRequest( &afAddr, &ZDApp_epDesc, clusterID,
    235                                     (uint16)(len+1), (uint8*)(ZDP_TmpBuf-1),
    236                                     transSeq, ZDP_TxOptions,  AF_DEFAULT_RADIUS );
   \   000089                ; Setup parameters for call to function AF_DataRequest
   \   000089   75..1E       MOV     ?V0 + 1,#0x1e
   \   00008C   78..         MOV     R0,#?V0 + 1
   \   00008E   12....       LCALL   ?PUSH_XSTACK_I_ONE
   \   000091   78..         MOV     R0,#?V0 + 2
   \   000093   12....       LCALL   ?PUSH_XSTACK_I_TWO
   \   000096   90....       MOV     DPTR,#ZDP_TmpBuf
   \   000099   E0           MOVX    A,@DPTR
   \   00009A   24FF         ADD     A,#-0x1
   \   00009C   F5..         MOV     ?V0 + 6,A
   \   00009E   A3           INC     DPTR
   \   00009F   E0           MOVX    A,@DPTR
   \   0000A0   34FF         ADDC    A,#-0x1
   \   0000A2   F5..         MOV     ?V0 + 7,A
   \   0000A4   78..         MOV     R0,#?V0 + 6
   \   0000A6   12....       LCALL   ?PUSH_XSTACK_I_TWO
   \   0000A9   85....       MOV     ?V0 + 6,?V0 + 0
   \   0000AC   75..00       MOV     ?V0 + 7,#0x0
   \   0000AF   E5..         MOV     A,?V0 + 6
   \   0000B1   2401         ADD     A,#0x1
   \   0000B3   F5..         MOV     ?V0 + 6,A
   \   0000B5   E5..         MOV     A,?V0 + 7
   \   0000B7   3400         ADDC    A,#0x0
   \   0000B9   F5..         MOV     ?V0 + 7,A
   \   0000BB   78..         MOV     R0,#?V0 + 6
   \   0000BD   12....       LCALL   ?PUSH_XSTACK_I_TWO
   \   0000C0   78..         MOV     R0,#?V0 + 4
   \   0000C2   12....       LCALL   ?PUSH_XSTACK_I_TWO
   \   0000C5   90....       MOV     DPTR,#ZDP_TxOptions
   \   0000C8   E0           MOVX    A,@DPTR
   \   0000C9   F9           MOV     R1,A
   \   0000CA   7C..         MOV     R4,#ZDApp_epDesc & 0xff
   \   0000CC   7D..         MOV     R5,#(ZDApp_epDesc >> 8) & 0xff
   \   0000CE   7409         MOV     A,#0x9
   \   0000D0   12....       LCALL   ?XSTACK_DISP0_8
   \   0000D3   AA82         MOV     R2,DPL
   \   0000D5   AB83         MOV     R3,DPH
   \   0000D7   12....       LCALL   ??AF_DataRequest?relay
   \   0000DA   7409         MOV     A,#0x9
   \   0000DC   12....       LCALL   ?DEALLOC_XSTACK8
   \   0000DF   740C         MOV     A,#0xc
   \   0000E1   12....       LCALL   ?DEALLOC_XSTACK8
   \   0000E4   7F08         MOV     R7,#0x8
   \   0000E6   02....       LJMP    ?BANKED_LEAVE_XDATA
    237          
    238          }
    239          
    240          /*********************************************************************
    241           * @fn          ZDP_SendData
    242           *
    243           * @brief       This builds and send a request message that has
    244           *              NWKAddrOfInterest as its only parameter.
    245           *
    246           * @param       dstAddr - destination address
    247           * @param       cmd - clusterID
    248           * @param       dataLen - number of bytes of data
    249           * @param       data - pointer to the data
    250           * @param       SecurityEnable - Security Options
    251           *
    252           * @return      afStatus_t
    253           */

   \                                 In  segment BANKED_CODE, align 1, keep-with-next
    254          afStatus_t ZDP_SendData( uint8 *TransSeq, zAddrType_t *dstAddr, uint16 cmd,
   \                     ZDP_SendData:
    255                                  byte len, uint8 *buf, byte SecurityEnable )
    256          {
   \   000000   74EA         MOV     A,#-0x16
   \   000002   12....       LCALL   ?BANKED_ENTER_XDATA
   \   000005                ; Saved register size: 22
   \   000005                ; Auto size: 0
   \   000005   8A..         MOV     ?V0 + 12,R2
   \   000007   8B..         MOV     ?V0 + 13,R3
   \   000009   8C..         MOV     ?V0 + 10,R4
   \   00000B   8D..         MOV     ?V0 + 11,R5
   \   00000D   89..         MOV     ?V0 + 2,R1
   \   00000F   7416         MOV     A,#0x16
   \   000011   12....       LCALL   ?XSTACK_DISP0_8
   \   000014   E0           MOVX    A,@DPTR
   \   000015   F5..         MOV     ?V0 + 8,A
   \   000017   A3           INC     DPTR
   \   000018   E0           MOVX    A,@DPTR
   \   000019   F5..         MOV     ?V0 + 9,A
   \   00001B   7418         MOV     A,#0x18
   \   00001D   12....       LCALL   ?XSTACK_DISP0_8
   \   000020   E0           MOVX    A,@DPTR
   \   000021   F5..         MOV     ?V0 + 0,A
   \   000023   A3           INC     DPTR
   \   000024   E0           MOVX    A,@DPTR
   \   000025   F5..         MOV     ?V0 + 1,A
   \   000027   741A         MOV     A,#0x1a
   \   000029   12....       LCALL   ?XSTACK_DISP0_8
   \   00002C   E0           MOVX    A,@DPTR
   \   00002D   F5..         MOV     ?V0 + 6,A
    257            uint8 *pBuf = ZDP_TmpBuf;
   \   00002F   90....       MOV     DPTR,#ZDP_TmpBuf
   \   000032   E0           MOVX    A,@DPTR
   \   000033   FE           MOV     R6,A
   \   000034   A3           INC     DPTR
   \   000035   E0           MOVX    A,@DPTR
   \   000036   FF           MOV     R7,A
    258            byte cnt = len;
   \   000037   85....       MOV     ?V0 + 3,?V0 + 2
    259          
    260            while ( cnt-- )
   \                     ??ZDP_SendData_0:
   \   00003A   85....       MOV     ?V0 + 4,?V0 + 3
   \   00003D   74FF         MOV     A,#-0x1
   \   00003F   25..         ADD     A,?V0 + 4
   \   000041   F5..         MOV     ?V0 + 3,A
   \   000043   E5..         MOV     A,?V0 + 4
   \   000045   6024         JZ      ??ZDP_SendData_1
    261            {
    262              *pBuf++ = *buf++;
   \   000047   85..82       MOV     DPL,?V0 + 0
   \   00004A   85..83       MOV     DPH,?V0 + 1
   \   00004D   E0           MOVX    A,@DPTR
   \   00004E   8E82         MOV     DPL,R6
   \   000050   8F83         MOV     DPH,R7
   \   000052   F0           MOVX    @DPTR,A
   \   000053   85..82       MOV     DPL,?V0 + 0
   \   000056   85..83       MOV     DPH,?V0 + 1
   \   000059   A3           INC     DPTR
   \   00005A   8582..       MOV     ?V0 + 0,DPL
   \   00005D   8583..       MOV     ?V0 + 1,DPH
   \   000060   8E82         MOV     DPL,R6
   \   000062   8F83         MOV     DPH,R7
   \   000064   A3           INC     DPTR
   \   000065   AE82         MOV     R6,DPL
   \   000067   AF83         MOV     R7,DPH
   \   000069   80CF         SJMP    ??ZDP_SendData_0
    263            }
    264          
    265            FillAndSendTxOptions( TransSeq, dstAddr, cmd, len, ((SecurityEnable) ? AF_EN_SECURITY : 0) );
   \                     ??ZDP_SendData_1:
   \   00006B   E5..         MOV     A,?V0 + 6
   \   00006D   6004         JZ      ??ZDP_SendData_2
   \   00006F   7440         MOV     A,#0x40
   \   000071   8002         SJMP    ??ZDP_SendData_3
   \                     ??ZDP_SendData_2:
   \   000073   7400         MOV     A,#0x0
   \                     ??ZDP_SendData_3:
   \   000075   90....       MOV     DPTR,#ZDP_TxOptions
   \   000078   F0           MOVX    @DPTR,A
   \   000079                ; Setup parameters for call to function fillAndSend
   \   000079   78..         MOV     R0,#?V0 + 8
   \   00007B   12....       LCALL   ?PUSH_XSTACK_I_TWO
   \   00007E   A9..         MOV     R1,?V0 + 2
   \   000080   AC..         MOV     R4,?V0 + 10
   \   000082   AD..         MOV     R5,?V0 + 11
   \   000084   AA..         MOV     R2,?V0 + 12
   \   000086   AB..         MOV     R3,?V0 + 13
   \   000088   12....       LCALL   ??fillAndSend?relay
   \   00008B   7402         MOV     A,#0x2
   \   00008D   12....       LCALL   ?DEALLOC_XSTACK8
   \   000090   E9           MOV     A,R1
   \   000091   F5..         MOV     ?V0 + 5,A
   \   000093   90....       MOV     DPTR,#ZDP_TxOptions
   \   000096   7400         MOV     A,#0x0
   \   000098   F0           MOVX    @DPTR,A
   \   000099   A9..         MOV     R1,?V0 + 5
   \   00009B   7F0E         MOV     R7,#0xe
   \   00009D   02....       LJMP    ?BANKED_LEAVE_XDATA
    266          }
    267          
    268          /*********************************************************************
    269           * @fn          ZDP_NWKAddrOfInterestReq
    270           *
    271           * @brief       This builds and send a request message that has
    272           *              NWKAddrOfInterest as its only parameter.
    273           *
    274           * @param       dstAddr - destination address
    275           * @param       nwkAddr - 16 bit address
    276           * @param       SecurityEnable - Security Options
    277           *
    278           * @return      afStatus_t
    279           */

   \                                 In  segment BANKED_CODE, align 1, keep-with-next
    280          afStatus_t ZDP_NWKAddrOfInterestReq( zAddrType_t *dstAddr, uint16 nwkAddr,
   \                     ZDP_NWKAddrOfInterestReq:
    281                                               byte cmd, byte SecurityEnable )
    282          {
   \   000000   74F2         MOV     A,#-0xe
   \   000002   12....       LCALL   ?BANKED_ENTER_XDATA
   \   000005                ; Saved register size: 14
   \   000005                ; Auto size: 0
   \   000005   EA           MOV     A,R2
   \   000006   FE           MOV     R6,A
   \   000007   EB           MOV     A,R3
   \   000008   FF           MOV     R7,A
   \   000009   8C..         MOV     ?V0 + 0,R4
   \   00000B   8D..         MOV     ?V0 + 1,R5
   \   00000D   89..         MOV     ?V0 + 3,R1
   \   00000F   740E         MOV     A,#0xe
   \   000011   12....       LCALL   ?XSTACK_DISP0_8
   \   000014   E0           MOVX    A,@DPTR
   \   000015   F5..         MOV     ?V0 + 2,A
    283            (void)SecurityEnable;  // Intentionally unreferenced parameter
    284          
    285            ZDP_TmpBuf[0] = LO_UINT16( nwkAddr );
   \   000017   E5..         MOV     A,?V0 + 0
   \   000019   90....       MOV     DPTR,#ZDP_TmpBuf
   \   00001C   E0           MOVX    A,@DPTR
   \   00001D   F8           MOV     R0,A
   \   00001E   A3           INC     DPTR
   \   00001F   E0           MOVX    A,@DPTR
   \   000020   F583         MOV     DPH,A
   \   000022   8882         MOV     DPL,R0
   \   000024   E5..         MOV     A,?V0 + 0
   \   000026   F0           MOVX    @DPTR,A
    286            ZDP_TmpBuf[1] = HI_UINT16( nwkAddr );
   \   000027   A8..         MOV     R0,?V0 + 0
   \   000029   A9..         MOV     R1,?V0 + 1
   \   00002B   E4           CLR     A
   \   00002C   E5..         MOV     A,?V0 + 1
   \   00002E   A8..         MOV     R0,?V0 + 1
   \   000030   E5..         MOV     A,?V0 + 1
   \   000032   90....       MOV     DPTR,#ZDP_TmpBuf
   \   000035   E0           MOVX    A,@DPTR
   \   000036   F8           MOV     R0,A
   \   000037   A3           INC     DPTR
   \   000038   E0           MOVX    A,@DPTR
   \   000039   F583         MOV     DPH,A
   \   00003B   8882         MOV     DPL,R0
   \   00003D   A3           INC     DPTR
   \   00003E   E5..         MOV     A,?V0 + 1
   \   000040   F0           MOVX    @DPTR,A
    287          
    288            return fillAndSend( &ZDP_TransID, dstAddr, cmd, 2 );
   \   000041                ; Setup parameters for call to function fillAndSend
   \   000041   85....       MOV     ?V0 + 4,?V0 + 3
   \   000044   75..00       MOV     ?V0 + 5,#0x0
   \   000047   78..         MOV     R0,#?V0 + 4
   \   000049   12....       LCALL   ?PUSH_XSTACK_I_TWO
   \   00004C   7902         MOV     R1,#0x2
   \   00004E   EE           MOV     A,R6
   \   00004F   FC           MOV     R4,A
   \   000050   EF           MOV     A,R7
   \   000051   FD           MOV     R5,A
   \   000052   7A..         MOV     R2,#ZDP_TransID & 0xff
   \   000054   7B..         MOV     R3,#(ZDP_TransID >> 8) & 0xff
   \   000056   12....       LCALL   ??fillAndSend?relay
   \   000059   7402         MOV     A,#0x2
   \   00005B   12....       LCALL   ?DEALLOC_XSTACK8
   \   00005E   7F06         MOV     R7,#0x6
   \   000060   02....       LJMP    ?BANKED_LEAVE_XDATA
    289          }
    290          
    291          /*********************************************************************
    292           * Address Requests
    293           */
    294          
    295          /*********************************************************************
    296           * @fn          ZDP_NwkAddrReq
    297           *
    298           * @brief       This builds and send a NWK_addr_req message.  This
    299           *              function sends a broadcast message looking for a 16
    300           *              bit address with a 64 bit address as bait.
    301           *
    302           * @param       IEEEAddress - looking for this device
    303           * @param       SecurityEnable - Security Options
    304           *
    305           * @return      afStatus_t
    306           */

   \                                 In  segment BANKED_CODE, align 1, keep-with-next
    307          afStatus_t ZDP_NwkAddrReq( uint8 *IEEEAddress, byte ReqType,
   \                     ZDP_NwkAddrReq:
    308                                     byte StartIndex, byte SecurityEnable )
    309          {
   \   000000   74F0         MOV     A,#-0x10
   \   000002   12....       LCALL   ?BANKED_ENTER_XDATA
   \   000005                ; Saved register size: 16
   \   000005                ; Auto size: 9
   \   000005   74F7         MOV     A,#-0x9
   \   000007   12....       LCALL   ?ALLOC_XSTACK8
   \   00000A   8A..         MOV     ?V0 + 4,R2
   \   00000C   8B..         MOV     ?V0 + 5,R3
   \   00000E   89..         MOV     ?V0 + 1,R1
   \   000010   8C..         MOV     ?V0 + 2,R4
   \   000012   8D..         MOV     ?V0 + 3,R5
    310            uint8 *pBuf = ZDP_TmpBuf;
   \   000014   90....       MOV     DPTR,#ZDP_TmpBuf
   \   000017   E0           MOVX    A,@DPTR
   \   000018   FE           MOV     R6,A
   \   000019   A3           INC     DPTR
   \   00001A   E0           MOVX    A,@DPTR
   \   00001B   FF           MOV     R7,A
    311            byte len = Z_EXTADDR_LEN + 1 + 1;  // IEEEAddress + ReqType + StartIndex.
   \   00001C   75..0A       MOV     ?V0 + 0,#0xa
    312            zAddrType_t dstAddr;
    313          
    314            (void)SecurityEnable;  // Intentionally unreferenced parameter
    315          
    316            if ( osal_ExtAddrEqual( saveExtAddr, IEEEAddress ) == FALSE )
   \   00001F                ; Setup parameters for call to function sAddrExtCmp
   \   00001F   AC..         MOV     R4,?V0 + 4
   \   000021   AD..         MOV     R5,?V0 + 5
   \   000023   7A..         MOV     R2,#saveExtAddr & 0xff
   \   000025   7B..         MOV     R3,#(saveExtAddr >> 8) & 0xff
   \   000027   12....       LCALL   ??sAddrExtCmp?relay
   \   00002A   E9           MOV     A,R1
   \   00002B   7017         JNZ     ??ZDP_NwkAddrReq_0
    317            {
    318              dstAddr.addrMode = AddrBroadcast;
   \   00002D   7408         MOV     A,#0x8
   \   00002F   12....       LCALL   ?XSTACK_DISP0_8
   \   000032   740F         MOV     A,#0xf
   \   000034   F0           MOVX    @DPTR,A
    319              dstAddr.addr.shortAddr = NWK_BROADCAST_SHORTADDR_DEVRXON;
   \   000035   85..82       MOV     DPL,?XSP + 0
   \   000038   85..83       MOV     DPH,?XSP + 1
   \   00003B   74FD         MOV     A,#-0x3
   \   00003D   F0           MOVX    @DPTR,A
   \   00003E   A3           INC     DPTR
   \   00003F   74FF         MOV     A,#-0x1
   \   000041   F0           MOVX    @DPTR,A
   \   000042   801B         SJMP    ??ZDP_NwkAddrReq_1
    320            }
    321            else
    322            {
    323              dstAddr.addrMode = Addr16Bit;
   \                     ??ZDP_NwkAddrReq_0:
   \   000044   7408         MOV     A,#0x8
   \   000046   12....       LCALL   ?XSTACK_DISP0_8
   \   000049   7402         MOV     A,#0x2
   \   00004B   F0           MOVX    @DPTR,A
    324              dstAddr.addr.shortAddr = ZDAppNwkAddr.addr.shortAddr;
   \   00004C   90....       MOV     DPTR,#ZDAppNwkAddr
   \   00004F   E0           MOVX    A,@DPTR
   \   000050   F8           MOV     R0,A
   \   000051   A3           INC     DPTR
   \   000052   E0           MOVX    A,@DPTR
   \   000053   F9           MOV     R1,A
   \   000054   85..82       MOV     DPL,?XSP + 0
   \   000057   85..83       MOV     DPH,?XSP + 1
   \   00005A   E8           MOV     A,R0
   \   00005B   F0           MOVX    @DPTR,A
   \   00005C   A3           INC     DPTR
   \   00005D   E9           MOV     A,R1
   \   00005E   F0           MOVX    @DPTR,A
    325            }
    326          
    327            pBuf = osal_cpyExtAddr( pBuf, IEEEAddress );
   \                     ??ZDP_NwkAddrReq_1:
   \   00005F                ; Setup parameters for call to function sAddrExtCpy
   \   00005F   AC..         MOV     R4,?V0 + 4
   \   000061   AD..         MOV     R5,?V0 + 5
   \   000063   EE           MOV     A,R6
   \   000064   FA           MOV     R2,A
   \   000065   EF           MOV     A,R7
   \   000066   FB           MOV     R3,A
   \   000067   12....       LCALL   ??sAddrExtCpy?relay
   \   00006A   8A..         MOV     ?V0 + 6,R2
   \   00006C   8B..         MOV     ?V0 + 7,R3
   \   00006E   AE..         MOV     R6,?V0 + 6
   \   000070   AF..         MOV     R7,?V0 + 7
    328          
    329            *pBuf++ = ReqType;
   \   000072   E5..         MOV     A,?V0 + 1
   \   000074   8E82         MOV     DPL,R6
   \   000076   8F83         MOV     DPH,R7
   \   000078   E5..         MOV     A,?V0 + 1
   \   00007A   F0           MOVX    @DPTR,A
   \   00007B   8E82         MOV     DPL,R6
   \   00007D   8F83         MOV     DPH,R7
   \   00007F   A3           INC     DPTR
   \   000080   AE82         MOV     R6,DPL
   \   000082   AF83         MOV     R7,DPH
    330            *pBuf++ = StartIndex;
   \   000084   E5..         MOV     A,?V0 + 2
   \   000086   8E82         MOV     DPL,R6
   \   000088   8F83         MOV     DPH,R7
   \   00008A   E5..         MOV     A,?V0 + 2
   \   00008C   F0           MOVX    @DPTR,A
   \   00008D   8E82         MOV     DPL,R6
   \   00008F   8F83         MOV     DPH,R7
   \   000091   A3           INC     DPTR
   \   000092   AE82         MOV     R6,DPL
   \   000094   AF83         MOV     R7,DPH
    331          
    332            return fillAndSend( &ZDP_TransID, &dstAddr, NWK_addr_req, len );
   \   000096                ; Setup parameters for call to function fillAndSend
   \   000096   E4           CLR     A
   \   000097   F5..         MOV     ?V0 + 6,A
   \   000099   F5..         MOV     ?V0 + 7,A
   \   00009B   78..         MOV     R0,#?V0 + 6
   \   00009D   12....       LCALL   ?PUSH_XSTACK_I_TWO
   \   0000A0   A9..         MOV     R1,?V0 + 0
   \   0000A2   7402         MOV     A,#0x2
   \   0000A4   12....       LCALL   ?XSTACK_DISP0_8
   \   0000A7   AC82         MOV     R4,DPL
   \   0000A9   AD83         MOV     R5,DPH
   \   0000AB   7A..         MOV     R2,#ZDP_TransID & 0xff
   \   0000AD   7B..         MOV     R3,#(ZDP_TransID >> 8) & 0xff
   \   0000AF   12....       LCALL   ??fillAndSend?relay
   \   0000B2   7402         MOV     A,#0x2
   \   0000B4   12....       LCALL   ?DEALLOC_XSTACK8
   \   0000B7   7409         MOV     A,#0x9
   \   0000B9   12....       LCALL   ?DEALLOC_XSTACK8
   \   0000BC   7F08         MOV     R7,#0x8
   \   0000BE   02....       LJMP    ?BANKED_LEAVE_XDATA
    333          }
    334          
    335          /*********************************************************************
    336           * @fn          ZDP_IEEEAddrReq
    337           *
    338           * @brief       This builds and send a IEEE_addr_req message.  This
    339           *              function sends a unicast message looking for a 64
    340           *              bit IEEE address with a 16 bit address as bait.
    341           *
    342           * @param       ReqType - ZDP_IEEEADDR_REQTYPE_SINGLE or
    343           *                        ZDP_IEEEADDR_REQTYPE_EXTENDED
    344           * @param       SecurityEnable - Security Options
    345           *
    346           * @return      afStatus_t
    347           */

   \                                 In  segment BANKED_CODE, align 1, keep-with-next
    348          afStatus_t ZDP_IEEEAddrReq( uint16 shortAddr, byte ReqType,
   \                     ZDP_IEEEAddrReq:
    349                                      byte StartIndex, byte SecurityEnable )
    350          {
   \   000000   74F0         MOV     A,#-0x10
   \   000002   12....       LCALL   ?BANKED_ENTER_XDATA
   \   000005                ; Saved register size: 16
   \   000005                ; Auto size: 9
   \   000005   74F7         MOV     A,#-0x9
   \   000007   12....       LCALL   ?ALLOC_XSTACK8
   \   00000A   8A..         MOV     ?V0 + 0,R2
   \   00000C   8B..         MOV     ?V0 + 1,R3
   \   00000E   89..         MOV     ?V0 + 2,R1
   \   000010   8C..         MOV     ?V0 + 3,R4
   \   000012   8D..         MOV     ?V0 + 4,R5
    351            uint8 *pBuf = ZDP_TmpBuf;
   \   000014   90....       MOV     DPTR,#ZDP_TmpBuf
   \   000017   E0           MOVX    A,@DPTR
   \   000018   FE           MOV     R6,A
   \   000019   A3           INC     DPTR
   \   00001A   E0           MOVX    A,@DPTR
   \   00001B   FF           MOV     R7,A
    352            byte len = 2 + 1 + 1;  // shortAddr + ReqType + StartIndex.
   \   00001C   75..04       MOV     ?V0 + 5,#0x4
    353            zAddrType_t dstAddr;
    354          
    355            (void)SecurityEnable;  // Intentionally unreferenced parameter
    356          
    357            dstAddr.addrMode = (afAddrMode_t)Addr16Bit;
   \   00001F   7408         MOV     A,#0x8
   \   000021   12....       LCALL   ?XSTACK_DISP0_8
   \   000024   7402         MOV     A,#0x2
   \   000026   F0           MOVX    @DPTR,A
    358            dstAddr.addr.shortAddr = shortAddr;
   \   000027   85..82       MOV     DPL,?XSP + 0
   \   00002A   85..83       MOV     DPH,?XSP + 1
   \   00002D   E5..         MOV     A,?V0 + 0
   \   00002F   F0           MOVX    @DPTR,A
   \   000030   A3           INC     DPTR
   \   000031   E5..         MOV     A,?V0 + 1
   \   000033   F0           MOVX    @DPTR,A
    359          
    360            *pBuf++ = LO_UINT16( shortAddr );
   \   000034   E5..         MOV     A,?V0 + 0
   \   000036   8E82         MOV     DPL,R6
   \   000038   8F83         MOV     DPH,R7
   \   00003A   E5..         MOV     A,?V0 + 0
   \   00003C   F0           MOVX    @DPTR,A
   \   00003D   8E82         MOV     DPL,R6
   \   00003F   8F83         MOV     DPH,R7
   \   000041   A3           INC     DPTR
   \   000042   AE82         MOV     R6,DPL
   \   000044   AF83         MOV     R7,DPH
    361            *pBuf++ = HI_UINT16( shortAddr );
   \   000046   A8..         MOV     R0,?V0 + 0
   \   000048   A9..         MOV     R1,?V0 + 1
   \   00004A   E4           CLR     A
   \   00004B   E5..         MOV     A,?V0 + 1
   \   00004D   A8..         MOV     R0,?V0 + 1
   \   00004F   E5..         MOV     A,?V0 + 1
   \   000051   8E82         MOV     DPL,R6
   \   000053   8F83         MOV     DPH,R7
   \   000055   E5..         MOV     A,?V0 + 1
   \   000057   F0           MOVX    @DPTR,A
   \   000058   8E82         MOV     DPL,R6
   \   00005A   8F83         MOV     DPH,R7
   \   00005C   A3           INC     DPTR
   \   00005D   AE82         MOV     R6,DPL
   \   00005F   AF83         MOV     R7,DPH
    362          
    363            *pBuf++ = ReqType;
   \   000061   E5..         MOV     A,?V0 + 2
   \   000063   8E82         MOV     DPL,R6
   \   000065   8F83         MOV     DPH,R7
   \   000067   E5..         MOV     A,?V0 + 2
   \   000069   F0           MOVX    @DPTR,A
   \   00006A   8E82         MOV     DPL,R6
   \   00006C   8F83         MOV     DPH,R7
   \   00006E   A3           INC     DPTR
   \   00006F   AE82         MOV     R6,DPL
   \   000071   AF83         MOV     R7,DPH
    364            *pBuf++ = StartIndex;
   \   000073   E5..         MOV     A,?V0 + 3
   \   000075   8E82         MOV     DPL,R6
   \   000077   8F83         MOV     DPH,R7
   \   000079   E5..         MOV     A,?V0 + 3
   \   00007B   F0           MOVX    @DPTR,A
   \   00007C   8E82         MOV     DPL,R6
   \   00007E   8F83         MOV     DPH,R7
   \   000080   A3           INC     DPTR
   \   000081   AE82         MOV     R6,DPL
   \   000083   AF83         MOV     R7,DPH
    365          
    366            return fillAndSend( &ZDP_TransID, &dstAddr, IEEE_addr_req, len );
   \   000085                ; Setup parameters for call to function fillAndSend
   \   000085   75..01       MOV     ?V0 + 6,#0x1
   \   000088   75..00       MOV     ?V0 + 7,#0x0
   \   00008B   78..         MOV     R0,#?V0 + 6
   \   00008D   12....       LCALL   ?PUSH_XSTACK_I_TWO
   \   000090   A9..         MOV     R1,?V0 + 5
   \   000092   7402         MOV     A,#0x2
   \   000094   12....       LCALL   ?XSTACK_DISP0_8
   \   000097   AC82         MOV     R4,DPL
   \   000099   AD83         MOV     R5,DPH
   \   00009B   7A..         MOV     R2,#ZDP_TransID & 0xff
   \   00009D   7B..         MOV     R3,#(ZDP_TransID >> 8) & 0xff
   \   00009F   12....       LCALL   ??fillAndSend?relay
   \   0000A2   7402         MOV     A,#0x2
   \   0000A4   12....       LCALL   ?DEALLOC_XSTACK8
   \   0000A7   7409         MOV     A,#0x9
   \   0000A9   12....       LCALL   ?DEALLOC_XSTACK8
   \   0000AC   7F08         MOV     R7,#0x8
   \   0000AE   02....       LJMP    ?BANKED_LEAVE_XDATA
    367          }
    368          
    369          /*********************************************************************
    370           * @fn          ZDP_MatchDescReq
    371           *
    372           * @brief       This builds and send a Match_Desc_req message.  This
    373           *              function sends a broadcast or unicast message
    374           *              requesting the list of endpoint/interfaces that
    375           *              match profile ID and cluster IDs.
    376           *
    377           * @param       dstAddr - destination address
    378           * @param       nwkAddr - network address of interest
    379           * @param       ProfileID - Profile ID
    380           * @param       NumInClusters - number of input clusters
    381           * @param       InClusterList - input cluster ID list
    382           * @param       NumOutClusters - number of output clusters
    383           * @param       OutClusterList - output cluster ID list
    384           * @param       SecurityEnable - Security Options
    385           *
    386           * @return      afStatus_t
    387           */

   \                                 In  segment BANKED_CODE, align 1, keep-with-next
    388          afStatus_t ZDP_MatchDescReq( zAddrType_t *dstAddr, uint16 nwkAddr,
   \                     ZDP_MatchDescReq:
    389                                          uint16 ProfileID,
    390                                          byte NumInClusters, cId_t *InClusterList,
    391                                          byte NumOutClusters, cId_t *OutClusterList,
    392                                          byte SecurityEnable )
    393          {
   \   000000   74E8         MOV     A,#-0x18
   \   000002   12....       LCALL   ?BANKED_ENTER_XDATA
   \   000005                ; Saved register size: 24
   \   000005                ; Auto size: 0
   \   000005   8A..         MOV     ?V0 + 6,R2
   \   000007   8B..         MOV     ?V0 + 7,R3
   \   000009   8C..         MOV     ?V0 + 0,R4
   \   00000B   8D..         MOV     ?V0 + 1,R5
   \   00000D   89..         MOV     ?V0 + 12,R1
   \   00000F   7418         MOV     A,#0x18
   \   000011   12....       LCALL   ?XSTACK_DISP0_8
   \   000014   E0           MOVX    A,@DPTR
   \   000015   F5..         MOV     ?V0 + 2,A
   \   000017   A3           INC     DPTR
   \   000018   E0           MOVX    A,@DPTR
   \   000019   F5..         MOV     ?V0 + 3,A
   \   00001B   741C         MOV     A,#0x1c
   \   00001D   12....       LCALL   ?XSTACK_DISP0_8
   \   000020   E0           MOVX    A,@DPTR
   \   000021   F5..         MOV     ?V0 + 5,A
   \   000023   741D         MOV     A,#0x1d
   \   000025   12....       LCALL   ?XSTACK_DISP0_8
   \   000028   E0           MOVX    A,@DPTR
   \   000029   F5..         MOV     ?V0 + 14,A
   \   00002B   A3           INC     DPTR
   \   00002C   E0           MOVX    A,@DPTR
   \   00002D   F5..         MOV     ?V0 + 15,A
    394            uint8 *pBuf = ZDP_TmpBuf;
   \   00002F   90....       MOV     DPTR,#ZDP_TmpBuf
   \   000032   E0           MOVX    A,@DPTR
   \   000033   FE           MOV     R6,A
   \   000034   A3           INC     DPTR
   \   000035   E0           MOVX    A,@DPTR
   \   000036   FF           MOV     R7,A
    395            // nwkAddr+ProfileID+NumInClusters+NumOutClusters.
    396            byte i, len = 2 + 2 + 1 + 1;  // nwkAddr+ProfileID+NumInClusters+NumOutClusters.
   \   000037   75..06       MOV     ?V0 + 13,#0x6
    397          
    398            (void)SecurityEnable;  // Intentionally unreferenced parameter
    399          
    400            len += (NumInClusters + NumOutClusters) * sizeof(uint16);
   \   00003A   75F002       MOV     B,#0x2
   \   00003D   85....       MOV     ?V0 + 10,?V0 + 12
   \   000040   75..00       MOV     ?V0 + 11,#0x0
   \   000043   85....       MOV     ?V0 + 8,?V0 + 5
   \   000046   75..00       MOV     ?V0 + 9,#0x0
   \   000049   E5..         MOV     A,?V0 + 10
   \   00004B   25..         ADD     A,?V0 + 8
   \   00004D   F8           MOV     R0,A
   \   00004E   E5..         MOV     A,?V0 + 11
   \   000050   35..         ADDC    A,?V0 + 9
   \   000052   F9           MOV     R1,A
   \   000053   E8           MOV     A,R0
   \   000054   A4           MUL     AB
   \   000055   25..         ADD     A,?V0 + 13
   \   000057   F5..         MOV     ?V0 + 13,A
    401          
    402            if ( len >= ZDP_BUF_SZ-1 )
   \   000059   E5..         MOV     A,?V0 + 13
   \   00005B   C3           CLR     C
   \   00005C   944F         SUBB    A,#0x4f
   \   00005E   4005         JC      ??ZDP_MatchDescReq_0
    403            {
    404              return afStatus_MEM_FAIL;
   \   000060   7910         MOV     R1,#0x10
   \   000062   02....       LJMP    ??ZDP_MatchDescReq_1 & 0xFFFF
    405            }
    406          
    407            // The spec changed in Zigbee 2007 (2.4.3.1.7.1) to not allow sending
    408            // this command to 0xFFFF.  So, here we will filter this and replace 
    409            // with 0xFFFD to only send to devices with RX ON.  This includes the 
    410            // network address of interest.
    411            if ( ((dstAddr->addrMode == AddrBroadcast) || (dstAddr->addrMode == Addr16Bit))
    412                && (dstAddr->addr.shortAddr == NWK_BROADCAST_SHORTADDR_DEVALL) )
   \                     ??ZDP_MatchDescReq_0:
   \   000065   85..82       MOV     DPL,?V0 + 6
   \   000068   85..83       MOV     DPH,?V0 + 7
   \   00006B   A3           INC     DPTR
   \   00006C   A3           INC     DPTR
   \   00006D   A3           INC     DPTR
   \   00006E   A3           INC     DPTR
   \   00006F   A3           INC     DPTR
   \   000070   A3           INC     DPTR
   \   000071   A3           INC     DPTR
   \   000072   A3           INC     DPTR
   \   000073   E0           MOVX    A,@DPTR
   \   000074   640F         XRL     A,#0xf
   \   000076   6013         JZ      ??ZDP_MatchDescReq_2
   \   000078   85..82       MOV     DPL,?V0 + 6
   \   00007B   85..83       MOV     DPH,?V0 + 7
   \   00007E   A3           INC     DPTR
   \   00007F   A3           INC     DPTR
   \   000080   A3           INC     DPTR
   \   000081   A3           INC     DPTR
   \   000082   A3           INC     DPTR
   \   000083   A3           INC     DPTR
   \   000084   A3           INC     DPTR
   \   000085   A3           INC     DPTR
   \   000086   E0           MOVX    A,@DPTR
   \   000087   6402         XRL     A,#0x2
   \   000089   701E         JNZ     ??ZDP_MatchDescReq_3
   \                     ??ZDP_MatchDescReq_2:
   \   00008B   85..82       MOV     DPL,?V0 + 6
   \   00008E   85..83       MOV     DPH,?V0 + 7
   \   000091   E0           MOVX    A,@DPTR
   \   000092   64FF         XRL     A,#0xff
   \   000094   7004         JNZ     ??ZDP_MatchDescReq_4
   \   000096   A3           INC     DPTR
   \   000097   E0           MOVX    A,@DPTR
   \   000098   64FF         XRL     A,#0xff
   \                     ??ZDP_MatchDescReq_4:
   \   00009A   700D         JNZ     ??ZDP_MatchDescReq_3
    413            {
    414              dstAddr->addr.shortAddr = NWK_BROADCAST_SHORTADDR_DEVRXON;
   \   00009C   85..82       MOV     DPL,?V0 + 6
   \   00009F   85..83       MOV     DPH,?V0 + 7
   \   0000A2   74FD         MOV     A,#-0x3
   \   0000A4   F0           MOVX    @DPTR,A
   \   0000A5   A3           INC     DPTR
   \   0000A6   74FF         MOV     A,#-0x1
   \   0000A8   F0           MOVX    @DPTR,A
    415            }
    416            if ( nwkAddr == NWK_BROADCAST_SHORTADDR_DEVALL )
   \                     ??ZDP_MatchDescReq_3:
   \   0000A9   74FF         MOV     A,#-0x1
   \   0000AB   65..         XRL     A,?V0 + 0
   \   0000AD   7004         JNZ     ??ZDP_MatchDescReq_5
   \   0000AF   74FF         MOV     A,#-0x1
   \   0000B1   65..         XRL     A,?V0 + 1
   \                     ??ZDP_MatchDescReq_5:
   \   0000B3   7006         JNZ     ??ZDP_MatchDescReq_6
    417            {
    418              nwkAddr = NWK_BROADCAST_SHORTADDR_DEVRXON;
   \   0000B5   75..FD       MOV     ?V0 + 0,#-0x3
   \   0000B8   75..FF       MOV     ?V0 + 1,#-0x1
    419            }
    420            
    421            *pBuf++ = LO_UINT16( nwkAddr );   // NWKAddrOfInterest
   \                     ??ZDP_MatchDescReq_6:
   \   0000BB   E5..         MOV     A,?V0 + 0
   \   0000BD   8E82         MOV     DPL,R6
   \   0000BF   8F83         MOV     DPH,R7
   \   0000C1   E5..         MOV     A,?V0 + 0
   \   0000C3   F0           MOVX    @DPTR,A
   \   0000C4   8E82         MOV     DPL,R6
   \   0000C6   8F83         MOV     DPH,R7
   \   0000C8   A3           INC     DPTR
   \   0000C9   AE82         MOV     R6,DPL
   \   0000CB   AF83         MOV     R7,DPH
    422            *pBuf++ = HI_UINT16( nwkAddr );
   \   0000CD   A8..         MOV     R0,?V0 + 0
   \   0000CF   A9..         MOV     R1,?V0 + 1
   \   0000D1   E4           CLR     A
   \   0000D2   E5..         MOV     A,?V0 + 1
   \   0000D4   A8..         MOV     R0,?V0 + 1
   \   0000D6   E5..         MOV     A,?V0 + 1
   \   0000D8   8E82         MOV     DPL,R6
   \   0000DA   8F83         MOV     DPH,R7
   \   0000DC   E5..         MOV     A,?V0 + 1
   \   0000DE   F0           MOVX    @DPTR,A
   \   0000DF   8E82         MOV     DPL,R6
   \   0000E1   8F83         MOV     DPH,R7
   \   0000E3   A3           INC     DPTR
   \   0000E4   AE82         MOV     R6,DPL
   \   0000E6   AF83         MOV     R7,DPH
    423          
    424            *pBuf++ = LO_UINT16( ProfileID );   // Profile ID
   \   0000E8   E5..         MOV     A,?V0 + 2
   \   0000EA   8E82         MOV     DPL,R6
   \   0000EC   8F83         MOV     DPH,R7
   \   0000EE   E5..         MOV     A,?V0 + 2
   \   0000F0   F0           MOVX    @DPTR,A
   \   0000F1   8E82         MOV     DPL,R6
   \   0000F3   8F83         MOV     DPH,R7
   \   0000F5   A3           INC     DPTR
   \   0000F6   AE82         MOV     R6,DPL
   \   0000F8   AF83         MOV     R7,DPH
    425            *pBuf++ = HI_UINT16( ProfileID );
   \   0000FA   A8..         MOV     R0,?V0 + 2
   \   0000FC   A9..         MOV     R1,?V0 + 3
   \   0000FE   E4           CLR     A
   \   0000FF   E5..         MOV     A,?V0 + 3
   \   000101   A8..         MOV     R0,?V0 + 3
   \   000103   E5..         MOV     A,?V0 + 3
   \   000105   8E82         MOV     DPL,R6
   \   000107   8F83         MOV     DPH,R7
   \   000109   E5..         MOV     A,?V0 + 3
   \   00010B   F0           MOVX    @DPTR,A
   \   00010C   8E82         MOV     DPL,R6
   \   00010E   8F83         MOV     DPH,R7
   \   000110   A3           INC     DPTR
   \   000111   AE82         MOV     R6,DPL
   \   000113   AF83         MOV     R7,DPH
    426          
    427            *pBuf++ = NumInClusters; // Input cluster list
   \   000115   E5..         MOV     A,?V0 + 12
   \   000117   8E82         MOV     DPL,R6
   \   000119   8F83         MOV     DPH,R7
   \   00011B   E5..         MOV     A,?V0 + 12
   \   00011D   F0           MOVX    @DPTR,A
   \   00011E   8E82         MOV     DPL,R6
   \   000120   8F83         MOV     DPH,R7
   \   000122   A3           INC     DPTR
   \   000123   AE82         MOV     R6,DPL
   \   000125   AF83         MOV     R7,DPH
    428            if ( NumInClusters )
   \   000127   E5..         MOV     A,?V0 + 12
   \   000129   7003         JNZ     $+5
   \   00012B   02....       LJMP    ??ZDP_MatchDescReq_7 & 0xFFFF
    429            {
    430              for (i=0; i<NumInClusters; ++i)  {
   \   00012E   75..00       MOV     ?V0 + 4,#0x0
   \                     ??ZDP_MatchDescReq_8:
   \   000131   E5..         MOV     A,?V0 + 4
   \   000133   C3           CLR     C
   \   000134   95..         SUBB    A,?V0 + 12
   \   000136   4003         JC      $+5
   \   000138   02....       LJMP    ??ZDP_MatchDescReq_7 & 0xFFFF
    431                *pBuf++ = LO_UINT16( InClusterList[i] );
   \   00013B   E5..         MOV     A,?V0 + 4
   \   00013D   A8..         MOV     R0,?V0 + 4
   \   00013F   7900         MOV     R1,#0x0
   \   000141   E8           MOV     A,R0
   \   000142   75F002       MOV     B,#0x2
   \   000145   A4           MUL     AB
   \   000146   C8           XCH     A,R0
   \   000147   AAF0         MOV     R2,B
   \   000149   75F000       MOV     B,#0x0
   \   00014C   A4           MUL     AB
   \   00014D   2A           ADD     A,R2
   \   00014E   FA           MOV     R2,A
   \   00014F   75F002       MOV     B,#0x2
   \   000152   E9           MOV     A,R1
   \   000153   A4           MUL     AB
   \   000154   2A           ADD     A,R2
   \   000155   F9           MOV     R1,A
   \   000156   741A         MOV     A,#0x1a
   \   000158   12....       LCALL   ?XSTACK_DISP0_8
   \   00015B   E0           MOVX    A,@DPTR
   \   00015C   28           ADD     A,R0
   \   00015D   FA           MOV     R2,A
   \   00015E   A3           INC     DPTR
   \   00015F   E0           MOVX    A,@DPTR
   \   000160   39           ADDC    A,R1
   \   000161   8A82         MOV     DPL,R2
   \   000163   F583         MOV     DPH,A
   \   000165   E0           MOVX    A,@DPTR
   \   000166   F8           MOV     R0,A
   \   000167   A3           INC     DPTR
   \   000168   E0           MOVX    A,@DPTR
   \   000169   F9           MOV     R1,A
   \   00016A   E8           MOV     A,R0
   \   00016B   8E82         MOV     DPL,R6
   \   00016D   8F83         MOV     DPH,R7
   \   00016F   F0           MOVX    @DPTR,A
   \   000170   8E82         MOV     DPL,R6
   \   000172   8F83         MOV     DPH,R7
   \   000174   A3           INC     DPTR
   \   000175   AE82         MOV     R6,DPL
   \   000177   AF83         MOV     R7,DPH
    432                *pBuf++ = HI_UINT16( InClusterList[i] );
   \   000179   E5..         MOV     A,?V0 + 4
   \   00017B   A8..         MOV     R0,?V0 + 4
   \   00017D   7900         MOV     R1,#0x0
   \   00017F   E8           MOV     A,R0
   \   000180   75F002       MOV     B,#0x2
   \   000183   A4           MUL     AB
   \   000184   C8           XCH     A,R0
   \   000185   AAF0         MOV     R2,B
   \   000187   75F000       MOV     B,#0x0
   \   00018A   A4           MUL     AB
   \   00018B   2A           ADD     A,R2
   \   00018C   FA           MOV     R2,A
   \   00018D   75F002       MOV     B,#0x2
   \   000190   E9           MOV     A,R1
   \   000191   A4           MUL     AB
   \   000192   2A           ADD     A,R2
   \   000193   F9           MOV     R1,A
   \   000194   741A         MOV     A,#0x1a
   \   000196   12....       LCALL   ?XSTACK_DISP0_8
   \   000199   E0           MOVX    A,@DPTR
   \   00019A   28           ADD     A,R0
   \   00019B   FA           MOV     R2,A
   \   00019C   A3           INC     DPTR
   \   00019D   E0           MOVX    A,@DPTR
   \   00019E   39           ADDC    A,R1
   \   00019F   8A82         MOV     DPL,R2
   \   0001A1   F583         MOV     DPH,A
   \   0001A3   E0           MOVX    A,@DPTR
   \   0001A4   F8           MOV     R0,A
   \   0001A5   A3           INC     DPTR
   \   0001A6   E0           MOVX    A,@DPTR
   \   0001A7   F9           MOV     R1,A
   \   0001A8   E4           CLR     A
   \   0001A9   E9           MOV     A,R1
   \   0001AA   F8           MOV     R0,A
   \   0001AB   8E82         MOV     DPL,R6
   \   0001AD   8F83         MOV     DPH,R7
   \   0001AF   F0           MOVX    @DPTR,A
   \   0001B0   8E82         MOV     DPL,R6
   \   0001B2   8F83         MOV     DPH,R7
   \   0001B4   A3           INC     DPTR
   \   0001B5   AE82         MOV     R6,DPL
   \   0001B7   AF83         MOV     R7,DPH
    433              }
   \   0001B9   05..         INC     ?V0 + 4
   \   0001BB   02....       LJMP    ??ZDP_MatchDescReq_8 & 0xFFFF
    434            }
    435          
    436            *pBuf++ = NumOutClusters; // Output cluster list
   \                     ??ZDP_MatchDescReq_7:
   \   0001BE   E5..         MOV     A,?V0 + 5
   \   0001C0   8E82         MOV     DPL,R6
   \   0001C2   8F83         MOV     DPH,R7
   \   0001C4   E5..         MOV     A,?V0 + 5
   \   0001C6   F0           MOVX    @DPTR,A
   \   0001C7   8E82         MOV     DPL,R6
   \   0001C9   8F83         MOV     DPH,R7
   \   0001CB   A3           INC     DPTR
   \   0001CC   AE82         MOV     R6,DPL
   \   0001CE   AF83         MOV     R7,DPH
    437            if ( NumOutClusters )
   \   0001D0   E5..         MOV     A,?V0 + 5
   \   0001D2   7003         JNZ     $+5
   \   0001D4   02....       LJMP    ??ZDP_MatchDescReq_9 & 0xFFFF
    438            {
    439              for (i=0; i<NumOutClusters; ++i)  {
   \   0001D7   75..00       MOV     ?V0 + 4,#0x0
   \                     ??ZDP_MatchDescReq_10:
   \   0001DA   E5..         MOV     A,?V0 + 4
   \   0001DC   C3           CLR     C
   \   0001DD   95..         SUBB    A,?V0 + 5
   \   0001DF   5078         JNC     ??ZDP_MatchDescReq_9
    440                *pBuf++ = LO_UINT16( OutClusterList[i] );
   \   0001E1   E5..         MOV     A,?V0 + 4
   \   0001E3   A8..         MOV     R0,?V0 + 4
   \   0001E5   7900         MOV     R1,#0x0
   \   0001E7   E8           MOV     A,R0
   \   0001E8   75F002       MOV     B,#0x2
   \   0001EB   A4           MUL     AB
   \   0001EC   C8           XCH     A,R0
   \   0001ED   AAF0         MOV     R2,B
   \   0001EF   75F000       MOV     B,#0x0
   \   0001F2   A4           MUL     AB
   \   0001F3   2A           ADD     A,R2
   \   0001F4   FA           MOV     R2,A
   \   0001F5   75F002       MOV     B,#0x2
   \   0001F8   E9           MOV     A,R1
   \   0001F9   A4           MUL     AB
   \   0001FA   2A           ADD     A,R2
   \   0001FB   F9           MOV     R1,A
   \   0001FC   E5..         MOV     A,?V0 + 14
   \   0001FE   28           ADD     A,R0
   \   0001FF   F582         MOV     DPL,A
   \   000201   E5..         MOV     A,?V0 + 15
   \   000203   39           ADDC    A,R1
   \   000204   F583         MOV     DPH,A
   \   000206   E0           MOVX    A,@DPTR
   \   000207   F8           MOV     R0,A
   \   000208   A3           INC     DPTR
   \   000209   E0           MOVX    A,@DPTR
   \   00020A   F9           MOV     R1,A
   \   00020B   E8           MOV     A,R0
   \   00020C   8E82         MOV     DPL,R6
   \   00020E   8F83         MOV     DPH,R7
   \   000210   F0           MOVX    @DPTR,A
   \   000211   8E82         MOV     DPL,R6
   \   000213   8F83         MOV     DPH,R7
   \   000215   A3           INC     DPTR
   \   000216   AE82         MOV     R6,DPL
   \   000218   AF83         MOV     R7,DPH
    441                *pBuf++ = HI_UINT16( OutClusterList[i] );
   \   00021A   E5..         MOV     A,?V0 + 4
   \   00021C   A8..         MOV     R0,?V0 + 4
   \   00021E   7900         MOV     R1,#0x0
   \   000220   E8           MOV     A,R0
   \   000221   75F002       MOV     B,#0x2
   \   000224   A4           MUL     AB
   \   000225   C8           XCH     A,R0
   \   000226   AAF0         MOV     R2,B
   \   000228   75F000       MOV     B,#0x0
   \   00022B   A4           MUL     AB
   \   00022C   2A           ADD     A,R2
   \   00022D   FA           MOV     R2,A
   \   00022E   75F002       MOV     B,#0x2
   \   000231   E9           MOV     A,R1
   \   000232   A4           MUL     AB
   \   000233   2A           ADD     A,R2
   \   000234   F9           MOV     R1,A
   \   000235   E5..         MOV     A,?V0 + 14
   \   000237   28           ADD     A,R0
   \   000238   F582         MOV     DPL,A
   \   00023A   E5..         MOV     A,?V0 + 15
   \   00023C   39           ADDC    A,R1
   \   00023D   F583         MOV     DPH,A
   \   00023F   E0           MOVX    A,@DPTR
   \   000240   F8           MOV     R0,A
   \   000241   A3           INC     DPTR
   \   000242   E0           MOVX    A,@DPTR
   \   000243   F9           MOV     R1,A
   \   000244   E4           CLR     A
   \   000245   E9           MOV     A,R1
   \   000246   F8           MOV     R0,A
   \   000247   8E82         MOV     DPL,R6
   \   000249   8F83         MOV     DPH,R7
   \   00024B   F0           MOVX    @DPTR,A
   \   00024C   8E82         MOV     DPL,R6
   \   00024E   8F83         MOV     DPH,R7
   \   000250   A3           INC     DPTR
   \   000251   AE82         MOV     R6,DPL
   \   000253   AF83         MOV     R7,DPH
    442              }
   \   000255   05..         INC     ?V0 + 4
   \   000257   8081         SJMP    ??ZDP_MatchDescReq_10
    443            }
    444          
    445            return fillAndSend( &ZDP_TransID, dstAddr, Match_Desc_req, len );
   \                     ??ZDP_MatchDescReq_9:
   \   000259                ; Setup parameters for call to function fillAndSend
   \   000259   75..06       MOV     ?V0 + 8,#0x6
   \   00025C   75..00       MOV     ?V0 + 9,#0x0
   \   00025F   78..         MOV     R0,#?V0 + 8
   \   000261   12....       LCALL   ?PUSH_XSTACK_I_TWO
   \   000264   A9..         MOV     R1,?V0 + 13
   \   000266   AC..         MOV     R4,?V0 + 6
   \   000268   AD..         MOV     R5,?V0 + 7
   \   00026A   7A..         MOV     R2,#ZDP_TransID & 0xff
   \   00026C   7B..         MOV     R3,#(ZDP_TransID >> 8) & 0xff
   \   00026E   12....       LCALL   ??fillAndSend?relay
   \   000271   7402         MOV     A,#0x2
   \   000273   12....       LCALL   ?DEALLOC_XSTACK8
   \                     ??ZDP_MatchDescReq_1:
   \   000276   7F10         MOV     R7,#0x10
   \   000278   02....       LJMP    ?BANKED_LEAVE_XDATA
    446          }
    447          
    448          /*********************************************************************
    449           * @fn          ZDP_SimpleDescReq
    450           *
    451           * @brief       This builds and send a NWK_Simple_Desc_req
    452           *              message.  This function sends unicast message to the
    453           *              destination device.
    454           *
    455           * @param       dstAddr - destination address
    456           * @param       nwkAddr - 16 bit address
    457           * @param       epIntf - endpoint/interface
    458           * @param       SecurityEnable - Security Options
    459           *
    460           * @return      afStatus_t
    461           */

   \                                 In  segment BANKED_CODE, align 1, keep-with-next
    462          afStatus_t ZDP_SimpleDescReq( zAddrType_t *dstAddr, uint16 nwkAddr,
   \                     ZDP_SimpleDescReq:
    463                                              byte endPoint, byte SecurityEnable )
    464          
    465          {
   \   000000   74F2         MOV     A,#-0xe
   \   000002   12....       LCALL   ?BANKED_ENTER_XDATA
   \   000005                ; Saved register size: 14
   \   000005                ; Auto size: 0
   \   000005   EA           MOV     A,R2
   \   000006   FE           MOV     R6,A
   \   000007   EB           MOV     A,R3
   \   000008   FF           MOV     R7,A
   \   000009   8C..         MOV     ?V0 + 0,R4
   \   00000B   8D..         MOV     ?V0 + 1,R5
   \   00000D   89..         MOV     ?V0 + 3,R1
   \   00000F   740E         MOV     A,#0xe
   \   000011   12....       LCALL   ?XSTACK_DISP0_8
   \   000014   E0           MOVX    A,@DPTR
   \   000015   F5..         MOV     ?V0 + 2,A
    466            (void)SecurityEnable;  // Intentionally unreferenced parameter
    467          
    468            ZDP_TmpBuf[0] = LO_UINT16( nwkAddr );
   \   000017   E5..         MOV     A,?V0 + 0
   \   000019   90....       MOV     DPTR,#ZDP_TmpBuf
   \   00001C   E0           MOVX    A,@DPTR
   \   00001D   F8           MOV     R0,A
   \   00001E   A3           INC     DPTR
   \   00001F   E0           MOVX    A,@DPTR
   \   000020   F583         MOV     DPH,A
   \   000022   8882         MOV     DPL,R0
   \   000024   E5..         MOV     A,?V0 + 0
   \   000026   F0           MOVX    @DPTR,A
    469            ZDP_TmpBuf[1] = HI_UINT16( nwkAddr );
   \   000027   A8..         MOV     R0,?V0 + 0
   \   000029   A9..         MOV     R1,?V0 + 1
   \   00002B   E4           CLR     A
   \   00002C   E5..         MOV     A,?V0 + 1
   \   00002E   A8..         MOV     R0,?V0 + 1
   \   000030   E5..         MOV     A,?V0 + 1
   \   000032   90....       MOV     DPTR,#ZDP_TmpBuf
   \   000035   E0           MOVX    A,@DPTR
   \   000036   F8           MOV     R0,A
   \   000037   A3           INC     DPTR
   \   000038   E0           MOVX    A,@DPTR
   \   000039   F583         MOV     DPH,A
   \   00003B   8882         MOV     DPL,R0
   \   00003D   A3           INC     DPTR
   \   00003E   E5..         MOV     A,?V0 + 1
   \   000040   F0           MOVX    @DPTR,A
    470            ZDP_TmpBuf[2] = endPoint;
   \   000041   E5..         MOV     A,?V0 + 3
   \   000043   90....       MOV     DPTR,#ZDP_TmpBuf
   \   000046   E0           MOVX    A,@DPTR
   \   000047   F8           MOV     R0,A
   \   000048   A3           INC     DPTR
   \   000049   E0           MOVX    A,@DPTR
   \   00004A   F583         MOV     DPH,A
   \   00004C   8882         MOV     DPL,R0
   \   00004E   A3           INC     DPTR
   \   00004F   A3           INC     DPTR
   \   000050   E5..         MOV     A,?V0 + 3
   \   000052   F0           MOVX    @DPTR,A
    471          
    472            return fillAndSend( &ZDP_TransID, dstAddr, Simple_Desc_req, 3 );
   \   000053                ; Setup parameters for call to function fillAndSend
   \   000053   75..04       MOV     ?V0 + 4,#0x4
   \   000056   75..00       MOV     ?V0 + 5,#0x0
   \   000059   78..         MOV     R0,#?V0 + 4
   \   00005B   12....       LCALL   ?PUSH_XSTACK_I_TWO
   \   00005E   7903         MOV     R1,#0x3
   \   000060   EE           MOV     A,R6
   \   000061   FC           MOV     R4,A
   \   000062   EF           MOV     A,R7
   \   000063   FD           MOV     R5,A
   \   000064   7A..         MOV     R2,#ZDP_TransID & 0xff
   \   000066   7B..         MOV     R3,#(ZDP_TransID >> 8) & 0xff
   \   000068   12....       LCALL   ??fillAndSend?relay
   \   00006B   7402         MOV     A,#0x2
   \   00006D   12....       LCALL   ?DEALLOC_XSTACK8
   \   000070   7F06         MOV     R7,#0x6
   \   000072   02....       LJMP    ?BANKED_LEAVE_XDATA
    473          }
    474          
    475          /*********************************************************************
    476           * @fn          ZDP_UserDescSet
    477           *
    478           * @brief       This builds and send a User_Desc_set message to set
    479           *              the user descriptor.  This function sends unicast
    480           *              message to the destination device.
    481           *
    482           * @param       dstAddr - destination address
    483           * @param       nwkAddr - 16 bit address
    484           * @param       UserDescriptor - user descriptor
    485           * @param       SecurityEnable - Security Options
    486           *
    487           * @return      afStatus_t
    488           */

   \                                 In  segment BANKED_CODE, align 1, keep-with-next
    489          afStatus_t ZDP_UserDescSet( zAddrType_t *dstAddr, uint16 nwkAddr,
   \                     ZDP_UserDescSet:
    490                                    UserDescriptorFormat_t *UserDescriptor,
    491                                    byte SecurityEnable )
    492          {
   \   000000   74EC         MOV     A,#-0x14
   \   000002   12....       LCALL   ?BANKED_ENTER_XDATA
   \   000005                ; Saved register size: 20
   \   000005                ; Auto size: 0
   \   000005   8A..         MOV     ?V0 + 10,R2
   \   000007   8B..         MOV     ?V0 + 11,R3
   \   000009   8C..         MOV     ?V0 + 0,R4
   \   00000B   8D..         MOV     ?V0 + 1,R5
   \   00000D   89..         MOV     ?V0 + 7,R1
   \   00000F   7414         MOV     A,#0x14
   \   000011   12....       LCALL   ?XSTACK_DISP0_8
   \   000014   E0           MOVX    A,@DPTR
   \   000015   F5..         MOV     ?V0 + 8,A
   \   000017   A3           INC     DPTR
   \   000018   E0           MOVX    A,@DPTR
   \   000019   F5..         MOV     ?V0 + 9,A
    493            uint8 *pBuf = ZDP_TmpBuf;
   \   00001B   90....       MOV     DPTR,#ZDP_TmpBuf
   \   00001E   E0           MOVX    A,@DPTR
   \   00001F   FE           MOV     R6,A
   \   000020   A3           INC     DPTR
   \   000021   E0           MOVX    A,@DPTR
   \   000022   FF           MOV     R7,A
    494            byte len = (UserDescriptor->len < AF_MAX_USER_DESCRIPTOR_LEN) ?
    495                        UserDescriptor->len : AF_MAX_USER_DESCRIPTOR_LEN;
   \   000023   85..82       MOV     DPL,?V0 + 8
   \   000026   85..83       MOV     DPH,?V0 + 9
   \   000029   E0           MOVX    A,@DPTR
   \   00002A   C3           CLR     C
   \   00002B   9410         SUBB    A,#0x10
   \   00002D   5009         JNC     ??ZDP_UserDescSet_0
   \   00002F   85..82       MOV     DPL,?V0 + 8
   \   000032   85..83       MOV     DPH,?V0 + 9
   \   000035   E0           MOVX    A,@DPTR
   \   000036   8002         SJMP    ??ZDP_UserDescSet_1
   \                     ??ZDP_UserDescSet_0:
   \   000038   7410         MOV     A,#0x10
   \                     ??ZDP_UserDescSet_1:
   \   00003A   F5..         MOV     ?V0 + 3,A
    496            byte addrLen = 2;
   \   00003C   75..02       MOV     ?V0 + 2,#0x2
    497          
    498            (void)SecurityEnable;  // Intentionally unreferenced parameter
    499          
    500            *pBuf++ = LO_UINT16( nwkAddr );
   \   00003F   E5..         MOV     A,?V0 + 0
   \   000041   8E82         MOV     DPL,R6
   \   000043   8F83         MOV     DPH,R7
   \   000045   E5..         MOV     A,?V0 + 0
   \   000047   F0           MOVX    @DPTR,A
   \   000048   8E82         MOV     DPL,R6
   \   00004A   8F83         MOV     DPH,R7
   \   00004C   A3           INC     DPTR
   \   00004D   AE82         MOV     R6,DPL
   \   00004F   AF83         MOV     R7,DPH
    501            *pBuf++ = HI_UINT16( nwkAddr );
   \   000051   A8..         MOV     R0,?V0 + 0
   \   000053   A9..         MOV     R1,?V0 + 1
   \   000055   E4           CLR     A
   \   000056   E5..         MOV     A,?V0 + 1
   \   000058   A8..         MOV     R0,?V0 + 1
   \   00005A   E5..         MOV     A,?V0 + 1
   \   00005C   8E82         MOV     DPL,R6
   \   00005E   8F83         MOV     DPH,R7
   \   000060   E5..         MOV     A,?V0 + 1
   \   000062   F0           MOVX    @DPTR,A
   \   000063   8E82         MOV     DPL,R6
   \   000065   8F83         MOV     DPH,R7
   \   000067   A3           INC     DPTR
   \   000068   AE82         MOV     R6,DPL
   \   00006A   AF83         MOV     R7,DPH
    502          
    503            *pBuf++ = len;
   \   00006C   E5..         MOV     A,?V0 + 3
   \   00006E   8E82         MOV     DPL,R6
   \   000070   8F83         MOV     DPH,R7
   \   000072   E5..         MOV     A,?V0 + 3
   \   000074   F0           MOVX    @DPTR,A
   \   000075   8E82         MOV     DPL,R6
   \   000077   8F83         MOV     DPH,R7
   \   000079   A3           INC     DPTR
   \   00007A   AE82         MOV     R6,DPL
   \   00007C   AF83         MOV     R7,DPH
    504            addrLen = 3;
   \   00007E   75..03       MOV     ?V0 + 2,#0x3
    505          
    506            pBuf = osal_memcpy( pBuf, UserDescriptor->desc, len );
   \   000081                ; Setup parameters for call to function osal_memcpy
   \   000081   85..82       MOV     DPL,?V0 + 8
   \   000084   85..83       MOV     DPH,?V0 + 9
   \   000087   A3           INC     DPTR
   \   000088   A982         MOV     R1,DPL
   \   00008A   AA83         MOV     R2,DPH
   \   00008C   7B00         MOV     R3,#0x0
   \   00008E   89..         MOV     ?V0 + 4,R1
   \   000090   8A..         MOV     ?V0 + 5,R2
   \   000092   8B..         MOV     ?V0 + 6,R3
   \   000094   78..         MOV     R0,#?V0 + 4
   \   000096   12....       LCALL   ?PUSH_XSTACK_I_THREE
   \   000099   85....       MOV     ?V0 + 4,?V0 + 3
   \   00009C   75..00       MOV     ?V0 + 5,#0x0
   \   00009F   AC..         MOV     R4,?V0 + 4
   \   0000A1   AD..         MOV     R5,?V0 + 5
   \   0000A3   EE           MOV     A,R6
   \   0000A4   FA           MOV     R2,A
   \   0000A5   EF           MOV     A,R7
   \   0000A6   FB           MOV     R3,A
   \   0000A7   12....       LCALL   ??osal_memcpy?relay
   \   0000AA   7403         MOV     A,#0x3
   \   0000AC   12....       LCALL   ?DEALLOC_XSTACK8
   \   0000AF   8A..         MOV     ?V0 + 4,R2
   \   0000B1   8B..         MOV     ?V0 + 5,R3
   \   0000B3   AE..         MOV     R6,?V0 + 4
   \   0000B5   AF..         MOV     R7,?V0 + 5
    507            osal_memset( pBuf, AF_USER_DESCRIPTOR_FILL, AF_MAX_USER_DESCRIPTOR_LEN-len );
   \   0000B7                ; Setup parameters for call to function osal_memset
   \   0000B7   85....       MOV     ?V0 + 4,?V0 + 3
   \   0000BA   75..00       MOV     ?V0 + 5,#0x0
   \   0000BD   7410         MOV     A,#0x10
   \   0000BF   C3           CLR     C
   \   0000C0   95..         SUBB    A,?V0 + 4
   \   0000C2   FC           MOV     R4,A
   \   0000C3   7400         MOV     A,#0x0
   \   0000C5   95..         SUBB    A,?V0 + 5
   \   0000C7   FD           MOV     R5,A
   \   0000C8   7920         MOV     R1,#0x20
   \   0000CA   EE           MOV     A,R6
   \   0000CB   FA           MOV     R2,A
   \   0000CC   EF           MOV     A,R7
   \   0000CD   FB           MOV     R3,A
   \   0000CE   12....       LCALL   ??osal_memset?relay
    508          
    509            return fillAndSend( &ZDP_TransID, dstAddr, User_Desc_set, (AF_MAX_USER_DESCRIPTOR_LEN + addrLen) );
   \   0000D1                ; Setup parameters for call to function fillAndSend
   \   0000D1   75..14       MOV     ?V0 + 4,#0x14
   \   0000D4   75..00       MOV     ?V0 + 5,#0x0
   \   0000D7   78..         MOV     R0,#?V0 + 4
   \   0000D9   12....       LCALL   ?PUSH_XSTACK_I_TWO
   \   0000DC   7410         MOV     A,#0x10
   \   0000DE   25..         ADD     A,?V0 + 2
   \   0000E0   F9           MOV     R1,A
   \   0000E1   AC..         MOV     R4,?V0 + 10
   \   0000E3   AD..         MOV     R5,?V0 + 11
   \   0000E5   7A..         MOV     R2,#ZDP_TransID & 0xff
   \   0000E7   7B..         MOV     R3,#(ZDP_TransID >> 8) & 0xff
   \   0000E9   12....       LCALL   ??fillAndSend?relay
   \   0000EC   7402         MOV     A,#0x2
   \   0000EE   12....       LCALL   ?DEALLOC_XSTACK8
   \   0000F1   7F0C         MOV     R7,#0xc
   \   0000F3   02....       LJMP    ?BANKED_LEAVE_XDATA
    510          }
    511          
    512          /*********************************************************************
    513           * @fn          ZDP_ServerDiscReq
    514           *
    515           * @brief       Build and send a Server_Discovery_req request message.
    516           *
    517           * @param       serverMask - 16-bit bit-mask of server services being sought.
    518           * @param       SecurityEnable - Security Options
    519           *
    520           * @return      afStatus_t
    521           */

   \                                 In  segment BANKED_CODE, align 1, keep-with-next
    522          afStatus_t ZDP_ServerDiscReq( uint16 serverMask, byte SecurityEnable )
   \                     ZDP_ServerDiscReq:
    523          {
   \   000000   74F2         MOV     A,#-0xe
   \   000002   12....       LCALL   ?BANKED_ENTER_XDATA
   \   000005                ; Saved register size: 14
   \   000005                ; Auto size: 9
   \   000005   74F7         MOV     A,#-0x9
   \   000007   12....       LCALL   ?ALLOC_XSTACK8
   \   00000A   8A..         MOV     ?V0 + 0,R2
   \   00000C   8B..         MOV     ?V0 + 1,R3
   \   00000E   89..         MOV     ?V0 + 2,R1
    524            uint8 *pBuf = ZDP_TmpBuf;
   \   000010   90....       MOV     DPTR,#ZDP_TmpBuf
   \   000013   E0           MOVX    A,@DPTR
   \   000014   FE           MOV     R6,A
   \   000015   A3           INC     DPTR
   \   000016   E0           MOVX    A,@DPTR
   \   000017   FF           MOV     R7,A
    525            zAddrType_t dstAddr;
    526          
    527            dstAddr.addrMode = AddrBroadcast;
   \   000018   7408         MOV     A,#0x8
   \   00001A   12....       LCALL   ?XSTACK_DISP0_8
   \   00001D   740F         MOV     A,#0xf
   \   00001F   F0           MOVX    @DPTR,A
    528            dstAddr.addr.shortAddr = NWK_BROADCAST_SHORTADDR_DEVRXON;
   \   000020   85..82       MOV     DPL,?XSP + 0
   \   000023   85..83       MOV     DPH,?XSP + 1
   \   000026   74FD         MOV     A,#-0x3
   \   000028   F0           MOVX    @DPTR,A
   \   000029   A3           INC     DPTR
   \   00002A   74FF         MOV     A,#-0x1
   \   00002C   F0           MOVX    @DPTR,A
    529          
    530            *pBuf++ = LO_UINT16( serverMask );
   \   00002D   E5..         MOV     A,?V0 + 0
   \   00002F   8E82         MOV     DPL,R6
   \   000031   8F83         MOV     DPH,R7
   \   000033   E5..         MOV     A,?V0 + 0
   \   000035   F0           MOVX    @DPTR,A
   \   000036   8E82         MOV     DPL,R6
   \   000038   8F83         MOV     DPH,R7
   \   00003A   A3           INC     DPTR
   \   00003B   AE82         MOV     R6,DPL
   \   00003D   AF83         MOV     R7,DPH
    531            *pBuf = HI_UINT16( serverMask );
   \   00003F   A8..         MOV     R0,?V0 + 0
   \   000041   A9..         MOV     R1,?V0 + 1
   \   000043   E4           CLR     A
   \   000044   E5..         MOV     A,?V0 + 1
   \   000046   A8..         MOV     R0,?V0 + 1
   \   000048   E5..         MOV     A,?V0 + 1
   \   00004A   8E82         MOV     DPL,R6
   \   00004C   8F83         MOV     DPH,R7
   \   00004E   E5..         MOV     A,?V0 + 1
   \   000050   F0           MOVX    @DPTR,A
    532          
    533            FillAndSendTxOptions( &ZDP_TransID, &dstAddr, Server_Discovery_req, 2,
    534                       ((SecurityEnable) ? AF_EN_SECURITY : AF_TX_OPTIONS_NONE) );
   \   000051   E5..         MOV     A,?V0 + 2
   \   000053   6004         JZ      ??ZDP_ServerDiscReq_0
   \   000055   7440         MOV     A,#0x40
   \   000057   8002         SJMP    ??ZDP_ServerDiscReq_1
   \                     ??ZDP_ServerDiscReq_0:
   \   000059   7400         MOV     A,#0x0
   \                     ??ZDP_ServerDiscReq_1:
   \   00005B   90....       MOV     DPTR,#ZDP_TxOptions
   \   00005E   F0           MOVX    @DPTR,A
   \   00005F                ; Setup parameters for call to function fillAndSend
   \   00005F   75..15       MOV     ?V0 + 4,#0x15
   \   000062   75..00       MOV     ?V0 + 5,#0x0
   \   000065   78..         MOV     R0,#?V0 + 4
   \   000067   12....       LCALL   ?PUSH_XSTACK_I_TWO
   \   00006A   7902         MOV     R1,#0x2
   \   00006C   7402         MOV     A,#0x2
   \   00006E   12....       LCALL   ?XSTACK_DISP0_8
   \   000071   AC82         MOV     R4,DPL
   \   000073   AD83         MOV     R5,DPH
   \   000075   7A..         MOV     R2,#ZDP_TransID & 0xff
   \   000077   7B..         MOV     R3,#(ZDP_TransID >> 8) & 0xff
   \   000079   12....       LCALL   ??fillAndSend?relay
   \   00007C   7402         MOV     A,#0x2
   \   00007E   12....       LCALL   ?DEALLOC_XSTACK8
   \   000081   E9           MOV     A,R1
   \   000082   F5..         MOV     ?V0 + 3,A
   \   000084   90....       MOV     DPTR,#ZDP_TxOptions
   \   000087   7400         MOV     A,#0x0
   \   000089   F0           MOVX    @DPTR,A
   \   00008A   A9..         MOV     R1,?V0 + 3
   \   00008C   7409         MOV     A,#0x9
   \   00008E   12....       LCALL   ?DEALLOC_XSTACK8
   \   000091   7F06         MOV     R7,#0x6
   \   000093   02....       LJMP    ?BANKED_LEAVE_XDATA
    535          }
    536          
    537          /*********************************************************************
    538           * @fn          ZDP_DeviceAnnce
    539           *
    540           * @brief       This builds and send a Device_Annce message.  This
    541           *              function sends a broadcast message.
    542           *
    543           * @param       nwkAddr - 16 bit address of the device
    544           * @param       IEEEAddr - 64 bit address of the device
    545           * @param       capabilities - device capabilities.  This field is only
    546           *                 sent for v1.1 networks.
    547           * @param       SecurityEnable - Security Options
    548           *
    549           * @return      afStatus_t
    550           */

   \                                 In  segment BANKED_CODE, align 1, keep-with-next
    551          afStatus_t ZDP_DeviceAnnce( uint16 nwkAddr, uint8 *IEEEAddr,
   \                     ZDP_DeviceAnnce:
    552                                        byte capabilities, byte SecurityEnable )
    553          {
   \   000000   74F0         MOV     A,#-0x10
   \   000002   12....       LCALL   ?BANKED_ENTER_XDATA
   \   000005                ; Saved register size: 16
   \   000005                ; Auto size: 9
   \   000005   74F7         MOV     A,#-0x9
   \   000007   12....       LCALL   ?ALLOC_XSTACK8
   \   00000A   EA           MOV     A,R2
   \   00000B   FE           MOV     R6,A
   \   00000C   EB           MOV     A,R3
   \   00000D   FF           MOV     R7,A
   \   00000E   8C..         MOV     ?V0 + 4,R4
   \   000010   8D..         MOV     ?V0 + 5,R5
   \   000012   89..         MOV     ?V0 + 1,R1
   \   000014   7419         MOV     A,#0x19
   \   000016   12....       LCALL   ?XSTACK_DISP0_8
   \   000019   E0           MOVX    A,@DPTR
   \   00001A   F5..         MOV     ?V0 + 2,A
    554            zAddrType_t dstAddr;
    555            uint8 len;
    556          
    557            (void)SecurityEnable;  // Intentionally unreferenced parameter
    558          
    559            dstAddr.addrMode = (afAddrMode_t)AddrBroadcast;
   \   00001C   7408         MOV     A,#0x8
   \   00001E   12....       LCALL   ?XSTACK_DISP0_8
   \   000021   740F         MOV     A,#0xf
   \   000023   F0           MOVX    @DPTR,A
    560            dstAddr.addr.shortAddr = NWK_BROADCAST_SHORTADDR_DEVRXON;
   \   000024   85..82       MOV     DPL,?XSP + 0
   \   000027   85..83       MOV     DPH,?XSP + 1
   \   00002A   74FD         MOV     A,#-0x3
   \   00002C   F0           MOVX    @DPTR,A
   \   00002D   A3           INC     DPTR
   \   00002E   74FF         MOV     A,#-0x1
   \   000030   F0           MOVX    @DPTR,A
    561          
    562            ZDP_TmpBuf[0] = LO_UINT16( nwkAddr );
   \   000031   EE           MOV     A,R6
   \   000032   C0E0         PUSH    A
   \   000034   90....       MOV     DPTR,#ZDP_TmpBuf
   \   000037   E0           MOVX    A,@DPTR
   \   000038   F8           MOV     R0,A
   \   000039   A3           INC     DPTR
   \   00003A   E0           MOVX    A,@DPTR
   \   00003B   F583         MOV     DPH,A
   \   00003D   8882         MOV     DPL,R0
   \   00003F   D0E0         POP     A
   \   000041   F0           MOVX    @DPTR,A
    563            ZDP_TmpBuf[1] = HI_UINT16( nwkAddr );
   \   000042   EE           MOV     A,R6
   \   000043   F8           MOV     R0,A
   \   000044   EF           MOV     A,R7
   \   000045   F9           MOV     R1,A
   \   000046   E4           CLR     A
   \   000047   E9           MOV     A,R1
   \   000048   F8           MOV     R0,A
   \   000049   C0E0         PUSH    A
   \   00004B   90....       MOV     DPTR,#ZDP_TmpBuf
   \   00004E   E0           MOVX    A,@DPTR
   \   00004F   F8           MOV     R0,A
   \   000050   A3           INC     DPTR
   \   000051   E0           MOVX    A,@DPTR
   \   000052   F583         MOV     DPH,A
   \   000054   8882         MOV     DPL,R0
   \   000056   A3           INC     DPTR
   \   000057   D0E0         POP     A
   \   000059   F0           MOVX    @DPTR,A
    564            osal_cpyExtAddr( &ZDP_TmpBuf[2], IEEEAddr );
   \   00005A                ; Setup parameters for call to function sAddrExtCpy
   \   00005A   AC..         MOV     R4,?V0 + 4
   \   00005C   AD..         MOV     R5,?V0 + 5
   \   00005E   90....       MOV     DPTR,#ZDP_TmpBuf
   \   000061   E0           MOVX    A,@DPTR
   \   000062   2402         ADD     A,#0x2
   \   000064   FA           MOV     R2,A
   \   000065   A3           INC     DPTR
   \   000066   E0           MOVX    A,@DPTR
   \   000067   3400         ADDC    A,#0x0
   \   000069   FB           MOV     R3,A
   \   00006A   12....       LCALL   ??sAddrExtCpy?relay
    565            len = 2 + Z_EXTADDR_LEN;
   \   00006D   75..0A       MOV     ?V0 + 0,#0xa
    566          
    567            ZDP_TmpBuf[10] = capabilities;
   \   000070   E5..         MOV     A,?V0 + 1
   \   000072   90....       MOV     DPTR,#ZDP_TmpBuf
   \   000075   E0           MOVX    A,@DPTR
   \   000076   F8           MOV     R0,A
   \   000077   A3           INC     DPTR
   \   000078   E0           MOVX    A,@DPTR
   \   000079   F583         MOV     DPH,A
   \   00007B   8882         MOV     DPL,R0
   \   00007D   A3           INC     DPTR
   \   00007E   A3           INC     DPTR
   \   00007F   A3           INC     DPTR
   \   000080   A3           INC     DPTR
   \   000081   A3           INC     DPTR
   \   000082   A3           INC     DPTR
   \   000083   A3           INC     DPTR
   \   000084   A3           INC     DPTR
   \   000085   A3           INC     DPTR
   \   000086   A3           INC     DPTR
   \   000087   E5..         MOV     A,?V0 + 1
   \   000089   F0           MOVX    @DPTR,A
    568            len++;
   \   00008A   05..         INC     ?V0 + 0
    569          
    570            return fillAndSend( &ZDP_TransID, &dstAddr, Device_annce, len );
   \   00008C                ; Setup parameters for call to function fillAndSend
   \   00008C   75..13       MOV     ?V0 + 6,#0x13
   \   00008F   75..00       MOV     ?V0 + 7,#0x0
   \   000092   78..         MOV     R0,#?V0 + 6
   \   000094   12....       LCALL   ?PUSH_XSTACK_I_TWO
   \   000097   A9..         MOV     R1,?V0 + 0
   \   000099   7402         MOV     A,#0x2
   \   00009B   12....       LCALL   ?XSTACK_DISP0_8
   \   00009E   AC82         MOV     R4,DPL
   \   0000A0   AD83         MOV     R5,DPH
   \   0000A2   7A..         MOV     R2,#ZDP_TransID & 0xff
   \   0000A4   7B..         MOV     R3,#(ZDP_TransID >> 8) & 0xff
   \   0000A6   12....       LCALL   ??fillAndSend?relay
   \   0000A9   7402         MOV     A,#0x2
   \   0000AB   12....       LCALL   ?DEALLOC_XSTACK8
   \   0000AE   7409         MOV     A,#0x9
   \   0000B0   12....       LCALL   ?DEALLOC_XSTACK8
   \   0000B3   7F08         MOV     R7,#0x8
   \   0000B5   02....       LJMP    ?BANKED_LEAVE_XDATA
    571          }
    572          
    573          /*********************************************************************
    574           * Address Responses
    575           */
    576          
    577          /*********************************************************************
    578           * @fn      zdpProcessAddrReq
    579           *
    580           * @brief   Process an incoming NWK_addr_req or IEEE_addr_req message and then
    581           *          build and send a corresponding NWK_addr_rsp or IEEE_addr_rsp msg.
    582           *
    583           * @param   inMsg - incoming message
    584           *
    585           * @return  none
    586           */

   \                                 In  segment BANKED_CODE, align 1, keep-with-next
    587          void zdpProcessAddrReq( zdoIncomingMsg_t *inMsg )
   \                     zdpProcessAddrReq:
    588          {
   \   000000   74EC         MOV     A,#-0x14
   \   000002   12....       LCALL   ?BANKED_ENTER_XDATA
   \   000005                ; Saved register size: 20
   \   000005                ; Auto size: 0
   \   000005   8A..         MOV     ?V0 + 2,R2
   \   000007   8B..         MOV     ?V0 + 3,R3
    589            associated_devices_t *pAssoc;
    590            uint8 reqType;
    591            uint16 aoi = INVALID_NODE_ADDR;
   \   000009   7EFE         MOV     R6,#-0x2
   \   00000B   7FFF         MOV     R7,#-0x1
    592            uint8 *ieee = NULL;
   \   00000D   75..00       MOV     ?V0 + 4,#0x0
   \   000010   75..00       MOV     ?V0 + 5,#0x0
    593          
    594            reqType = inMsg->asdu[(inMsg->clusterID == NWK_addr_req) ? Z_EXTADDR_LEN : sizeof( uint16 ) ];
   \   000013   E5..         MOV     A,?V0 + 2
   \   000015   240C         ADD     A,#0xc
   \   000017   F582         MOV     DPL,A
   \   000019   E5..         MOV     A,?V0 + 3
   \   00001B   3400         ADDC    A,#0x0
   \   00001D   F583         MOV     DPH,A
   \   00001F   E0           MOVX    A,@DPTR
   \   000020   F8           MOV     R0,A
   \   000021   A3           INC     DPTR
   \   000022   E0           MOVX    A,@DPTR
   \   000023   F9           MOV     R1,A
   \   000024   E8           MOV     A,R0
   \   000025   49           ORL     A,R1
   \   000026   7006         JNZ     ??zdpProcessAddrReq_0
   \   000028   7808         MOV     R0,#0x8
   \   00002A   7900         MOV     R1,#0x0
   \   00002C   8004         SJMP    ??zdpProcessAddrReq_1
   \                     ??zdpProcessAddrReq_0:
   \   00002E   7802         MOV     R0,#0x2
   \   000030   7900         MOV     R1,#0x0
   \                     ??zdpProcessAddrReq_1:
   \   000032   E5..         MOV     A,?V0 + 2
   \   000034   2413         ADD     A,#0x13
   \   000036   F582         MOV     DPL,A
   \   000038   E5..         MOV     A,?V0 + 3
   \   00003A   3400         ADDC    A,#0x0
   \   00003C   F583         MOV     DPH,A
   \   00003E   E0           MOVX    A,@DPTR
   \   00003F   28           ADD     A,R0
   \   000040   FA           MOV     R2,A
   \   000041   A3           INC     DPTR
   \   000042   E0           MOVX    A,@DPTR
   \   000043   39           ADDC    A,R1
   \   000044   8A82         MOV     DPL,R2
   \   000046   F583         MOV     DPH,A
   \   000048   E0           MOVX    A,@DPTR
   \   000049   F5..         MOV     ?V0 + 7,A
    595          
    596            if ( inMsg->clusterID == NWK_addr_req )
   \   00004B   E5..         MOV     A,?V0 + 2
   \   00004D   240C         ADD     A,#0xc
   \   00004F   F582         MOV     DPL,A
   \   000051   E5..         MOV     A,?V0 + 3
   \   000053   3400         ADDC    A,#0x0
   \   000055   F583         MOV     DPH,A
   \   000057   E0           MOVX    A,@DPTR
   \   000058   F8           MOV     R0,A
   \   000059   A3           INC     DPTR
   \   00005A   E0           MOVX    A,@DPTR
   \   00005B   F9           MOV     R1,A
   \   00005C   E8           MOV     A,R0
   \   00005D   49           ORL     A,R1
   \   00005E   702D         JNZ     ??zdpProcessAddrReq_2
    597          
    598            {
    599              ieee = inMsg->asdu;
   \   000060   E5..         MOV     A,?V0 + 2
   \   000062   2413         ADD     A,#0x13
   \   000064   F582         MOV     DPL,A
   \   000066   E5..         MOV     A,?V0 + 3
   \   000068   3400         ADDC    A,#0x0
   \   00006A   F583         MOV     DPH,A
   \   00006C   E0           MOVX    A,@DPTR
   \   00006D   F8           MOV     R0,A
   \   00006E   A3           INC     DPTR
   \   00006F   E0           MOVX    A,@DPTR
   \   000070   F9           MOV     R1,A
   \   000071   88..         MOV     ?V0 + 4,R0
   \   000073   89..         MOV     ?V0 + 5,R1
    600          
    601              if ( osal_ExtAddrEqual( saveExtAddr, ieee ) )
   \   000075                ; Setup parameters for call to function sAddrExtCmp
   \   000075   AC..         MOV     R4,?V0 + 4
   \   000077   AD..         MOV     R5,?V0 + 5
   \   000079   7A..         MOV     R2,#saveExtAddr & 0xff
   \   00007B   7B..         MOV     R3,#(saveExtAddr >> 8) & 0xff
   \   00007D   12....       LCALL   ??sAddrExtCmp?relay
   \   000080   E9           MOV     A,R1
   \   000081   605A         JZ      ??zdpProcessAddrReq_3
    602              {
    603                aoi = ZDAppNwkAddr.addr.shortAddr;
   \   000083   90....       MOV     DPTR,#ZDAppNwkAddr
   \   000086   E0           MOVX    A,@DPTR
   \   000087   FE           MOV     R6,A
   \   000088   A3           INC     DPTR
   \   000089   E0           MOVX    A,@DPTR
   \   00008A   FF           MOV     R7,A
   \   00008B   8050         SJMP    ??zdpProcessAddrReq_3
    604              }
    605              // Handle response for sleeping end devices
    606              else if ( (ZSTACK_ROUTER_BUILD)
    607                && (((pAssoc = AssocGetWithExt( ieee )) != NULL)
    608                       && (pAssoc->nodeRelation == CHILD_RFD)) )
    609              {
    610                aoi = pAssoc->shortAddr;
    611                if ( reqType != ZDP_ADDR_REQTYPE_SINGLE )
    612                  reqType = 0xFF; // Force Invalid
    613              }
    614            }
    615            else  // if ( inMsg->clusterID == IEEE_addr_req )
    616            {
    617              aoi = BUILD_UINT16( inMsg->asdu[0], inMsg->asdu[1] );
   \                     ??zdpProcessAddrReq_2:
   \   00008D   E5..         MOV     A,?V0 + 2
   \   00008F   2413         ADD     A,#0x13
   \   000091   F582         MOV     DPL,A
   \   000093   E5..         MOV     A,?V0 + 3
   \   000095   3400         ADDC    A,#0x0
   \   000097   F583         MOV     DPH,A
   \   000099   E0           MOVX    A,@DPTR
   \   00009A   F8           MOV     R0,A
   \   00009B   A3           INC     DPTR
   \   00009C   E0           MOVX    A,@DPTR
   \   00009D   F583         MOV     DPH,A
   \   00009F   8882         MOV     DPL,R0
   \   0000A1   E0           MOVX    A,@DPTR
   \   0000A2   FA           MOV     R2,A
   \   0000A3   7B00         MOV     R3,#0x0
   \   0000A5   E5..         MOV     A,?V0 + 2
   \   0000A7   2413         ADD     A,#0x13
   \   0000A9   F582         MOV     DPL,A
   \   0000AB   E5..         MOV     A,?V0 + 3
   \   0000AD   3400         ADDC    A,#0x0
   \   0000AF   F583         MOV     DPH,A
   \   0000B1   E0           MOVX    A,@DPTR
   \   0000B2   F8           MOV     R0,A
   \   0000B3   A3           INC     DPTR
   \   0000B4   E0           MOVX    A,@DPTR
   \   0000B5   F583         MOV     DPH,A
   \   0000B7   8882         MOV     DPL,R0
   \   0000B9   A3           INC     DPTR
   \   0000BA   E0           MOVX    A,@DPTR
   \   0000BB   F8           MOV     R0,A
   \   0000BC   7900         MOV     R1,#0x0
   \   0000BE   E4           CLR     A
   \   0000BF   C8           XCH     A,R0
   \   0000C0   F9           MOV     R1,A
   \   0000C1   EA           MOV     A,R2
   \   0000C2   28           ADD     A,R0
   \   0000C3   F8           MOV     R0,A
   \   0000C4   EB           MOV     A,R3
   \   0000C5   39           ADDC    A,R1
   \   0000C6   F9           MOV     R1,A
   \   0000C7   E8           MOV     A,R0
   \   0000C8   FE           MOV     R6,A
   \   0000C9   E9           MOV     A,R1
   \   0000CA   FF           MOV     R7,A
    618          
    619              if ( aoi == ZDAppNwkAddr.addr.shortAddr )
   \   0000CB   90....       MOV     DPTR,#ZDAppNwkAddr
   \   0000CE   E0           MOVX    A,@DPTR
   \   0000CF   6E           XRL     A,R6
   \   0000D0   7003         JNZ     ??zdpProcessAddrReq_4
   \   0000D2   A3           INC     DPTR
   \   0000D3   E0           MOVX    A,@DPTR
   \   0000D4   6F           XRL     A,R7
   \                     ??zdpProcessAddrReq_4:
   \   0000D5   7006         JNZ     ??zdpProcessAddrReq_3
    620              {
    621                ieee = saveExtAddr;
   \   0000D7   75....       MOV     ?V0 + 4,#saveExtAddr & 0xff
   \   0000DA   75....       MOV     ?V0 + 5,#(saveExtAddr >> 8) & 0xff
    622              }
    623              else if ( (ZSTACK_ROUTER_BUILD)
    624                && (((pAssoc = AssocGetWithShort( aoi )) != NULL)
    625                       && (pAssoc->nodeRelation == CHILD_RFD)) )
    626              {
    627                AddrMgrEntry_t addrEntry;
    628                addrEntry.user = ADDRMGR_USER_DEFAULT;
    629                addrEntry.index = pAssoc->addrIdx;
    630                if ( AddrMgrEntryGet( &addrEntry ) )
    631                {
    632                  ieee = addrEntry.extAddr;
    633                }
    634          
    635                if ( reqType != ZDP_ADDR_REQTYPE_SINGLE )
    636                  reqType = 0xFF; // Force Invalid
    637              }
    638            }
    639          
    640            if ( ((aoi != INVALID_NODE_ADDR) && (ieee != NULL)) || (inMsg->wasBroadcast == FALSE) )
   \                     ??zdpProcessAddrReq_3:
   \   0000DD   74FE         MOV     A,#-0x2
   \   0000DF   6E           XRL     A,R6
   \   0000E0   7003         JNZ     ??zdpProcessAddrReq_5
   \   0000E2   74FF         MOV     A,#-0x1
   \   0000E4   6F           XRL     A,R7
   \                     ??zdpProcessAddrReq_5:
   \   0000E5   6006         JZ      ??zdpProcessAddrReq_6
   \   0000E7   E5..         MOV     A,?V0 + 4
   \   0000E9   45..         ORL     A,?V0 + 5
   \   0000EB   7012         JNZ     ??zdpProcessAddrReq_7
   \                     ??zdpProcessAddrReq_6:
   \   0000ED   E5..         MOV     A,?V0 + 2
   \   0000EF   240B         ADD     A,#0xb
   \   0000F1   F582         MOV     DPL,A
   \   0000F3   E5..         MOV     A,?V0 + 3
   \   0000F5   3400         ADDC    A,#0x0
   \   0000F7   F583         MOV     DPH,A
   \   0000F9   E0           MOVX    A,@DPTR
   \   0000FA   6003         JZ      $+5
   \   0000FC   02....       LJMP    ??zdpProcessAddrReq_8 & 0xFFFF
    641            {
    642              uint8 stat;
    643              uint8 *pBuf = ZDP_TmpBuf;
   \                     ??zdpProcessAddrReq_7:
   \   0000FF   90....       MOV     DPTR,#ZDP_TmpBuf
   \   000102   E0           MOVX    A,@DPTR
   \   000103   F5..         MOV     ?V0 + 0,A
   \   000105   A3           INC     DPTR
   \   000106   E0           MOVX    A,@DPTR
   \   000107   F5..         MOV     ?V0 + 1,A
    644              // Status + IEEE-Addr + Nwk-Addr.
    645              uint8 len = 1 + Z_EXTADDR_LEN + 2;
   \   000109   75..0B       MOV     ?V0 + 8,#0xb
    646              
    647              // If aoi and iee are both setup, we found results
    648              if ( (aoi != INVALID_NODE_ADDR) && (ieee != NULL) )
   \   00010C   74FE         MOV     A,#-0x2
   \   00010E   6E           XRL     A,R6
   \   00010F   7003         JNZ     ??zdpProcessAddrReq_9
   \   000111   74FF         MOV     A,#-0x1
   \   000113   6F           XRL     A,R7
   \                     ??zdpProcessAddrReq_9:
   \   000114   601A         JZ      ??zdpProcessAddrReq_10
   \   000116   E5..         MOV     A,?V0 + 4
   \   000118   45..         ORL     A,?V0 + 5
   \   00011A   6014         JZ      ??zdpProcessAddrReq_10
    649              {
    650                stat = ((reqType == ZDP_ADDR_REQTYPE_SINGLE) || (reqType == ZDP_ADDR_REQTYPE_EXTENDED)) 
    651                              ? ZDP_SUCCESS : ZDP_INVALID_REQTYPE;
   \   00011C   E5..         MOV     A,?V0 + 7
   \   00011E   6006         JZ      ??zdpProcessAddrReq_11
   \   000120   7401         MOV     A,#0x1
   \   000122   65..         XRL     A,?V0 + 7
   \   000124   7004         JNZ     ??zdpProcessAddrReq_12
   \                     ??zdpProcessAddrReq_11:
   \   000126   7400         MOV     A,#0x0
   \   000128   8002         SJMP    ??zdpProcessAddrReq_13
   \                     ??zdpProcessAddrReq_12:
   \   00012A   7480         MOV     A,#-0x80
   \                     ??zdpProcessAddrReq_13:
   \   00012C   F5..         MOV     ?V0 + 6,A
   \   00012E   8028         SJMP    ??zdpProcessAddrReq_14
    652              }
    653              else 
    654              {
    655                // not found and the req was unicast to this device
    656                stat = ZDP_DEVICE_NOT_FOUND;
   \                     ??zdpProcessAddrReq_10:
   \   000130   75..81       MOV     ?V0 + 6,#-0x7f
    657                
    658                // Fill in the missing field with this device's address
    659                if ( inMsg->clusterID == NWK_addr_req )
   \   000133   E5..         MOV     A,?V0 + 2
   \   000135   240C         ADD     A,#0xc
   \   000137   F582         MOV     DPL,A
   \   000139   E5..         MOV     A,?V0 + 3
   \   00013B   3400         ADDC    A,#0x0
   \   00013D   F583         MOV     DPH,A
   \   00013F   E0           MOVX    A,@DPTR
   \   000140   F8           MOV     R0,A
   \   000141   A3           INC     DPTR
   \   000142   E0           MOVX    A,@DPTR
   \   000143   F9           MOV     R1,A
   \   000144   E8           MOV     A,R0
   \   000145   49           ORL     A,R1
   \   000146   700A         JNZ     ??zdpProcessAddrReq_15
    660                {
    661                  aoi = ZDAppNwkAddr.addr.shortAddr;
   \   000148   90....       MOV     DPTR,#ZDAppNwkAddr
   \   00014B   E0           MOVX    A,@DPTR
   \   00014C   FE           MOV     R6,A
   \   00014D   A3           INC     DPTR
   \   00014E   E0           MOVX    A,@DPTR
   \   00014F   FF           MOV     R7,A
   \   000150   8006         SJMP    ??zdpProcessAddrReq_14
    662                }
    663                else
    664                {
    665                  ieee = saveExtAddr;
   \                     ??zdpProcessAddrReq_15:
   \   000152   75....       MOV     ?V0 + 4,#saveExtAddr & 0xff
   \   000155   75....       MOV     ?V0 + 5,#(saveExtAddr >> 8) & 0xff
    666                }
    667              }
    668          
    669              *pBuf++ = stat;
   \                     ??zdpProcessAddrReq_14:
   \   000158   E5..         MOV     A,?V0 + 6
   \   00015A   85..82       MOV     DPL,?V0 + 0
   \   00015D   85..83       MOV     DPH,?V0 + 1
   \   000160   E5..         MOV     A,?V0 + 6
   \   000162   F0           MOVX    @DPTR,A
   \   000163   85..82       MOV     DPL,?V0 + 0
   \   000166   85..83       MOV     DPH,?V0 + 1
   \   000169   A3           INC     DPTR
   \   00016A   8582..       MOV     ?V0 + 0,DPL
   \   00016D   8583..       MOV     ?V0 + 1,DPH
    670          
    671              pBuf = osal_cpyExtAddr( pBuf, ieee );
   \   000170                ; Setup parameters for call to function sAddrExtCpy
   \   000170   AC..         MOV     R4,?V0 + 4
   \   000172   AD..         MOV     R5,?V0 + 5
   \   000174   AA..         MOV     R2,?V0 + 0
   \   000176   AB..         MOV     R3,?V0 + 1
   \   000178   12....       LCALL   ??sAddrExtCpy?relay
   \   00017B   8A..         MOV     ?V0 + 10,R2
   \   00017D   8B..         MOV     ?V0 + 11,R3
   \   00017F   85....       MOV     ?V0 + 0,?V0 + 10
   \   000182   85....       MOV     ?V0 + 1,?V0 + 11
    672          
    673              *pBuf++ = LO_UINT16( aoi );
   \   000185   EE           MOV     A,R6
   \   000186   85..82       MOV     DPL,?V0 + 0
   \   000189   85..83       MOV     DPH,?V0 + 1
   \   00018C   F0           MOVX    @DPTR,A
   \   00018D   85..82       MOV     DPL,?V0 + 0
   \   000190   85..83       MOV     DPH,?V0 + 1
   \   000193   A3           INC     DPTR
   \   000194   8582..       MOV     ?V0 + 0,DPL
   \   000197   8583..       MOV     ?V0 + 1,DPH
    674              *pBuf++ = HI_UINT16( aoi );
   \   00019A   EE           MOV     A,R6
   \   00019B   F8           MOV     R0,A
   \   00019C   EF           MOV     A,R7
   \   00019D   F9           MOV     R1,A
   \   00019E   E4           CLR     A
   \   00019F   E9           MOV     A,R1
   \   0001A0   F8           MOV     R0,A
   \   0001A1   85..82       MOV     DPL,?V0 + 0
   \   0001A4   85..83       MOV     DPH,?V0 + 1
   \   0001A7   F0           MOVX    @DPTR,A
   \   0001A8   85..82       MOV     DPL,?V0 + 0
   \   0001AB   85..83       MOV     DPH,?V0 + 1
   \   0001AE   A3           INC     DPTR
   \   0001AF   8582..       MOV     ?V0 + 0,DPL
   \   0001B2   8583..       MOV     ?V0 + 1,DPH
    675          
    676              if ( ZSTACK_ROUTER_BUILD )
    677              {
    678                if ( (reqType == ZDP_ADDR_REQTYPE_EXTENDED) && (aoi == ZDAppNwkAddr.addr.shortAddr)
    679                     && (stat == ZDP_SUCCESS) )
    680                {
    681                  uint8  cnt = 0;
    682                  uint16 *list = AssocMakeList( &cnt );
    683          
    684                  if ( list != NULL )
    685                  {
    686                    byte idx = inMsg->asdu[(((inMsg->clusterID == NWK_addr_req) ? Z_EXTADDR_LEN : sizeof( uint16 )) + 1)];
    687                    uint16 *pList = list + idx;
    688          
    689                    // NumAssocDev field is only present on success.
    690                    if ( cnt > idx )
    691                    {
    692                      cnt -= idx;
    693                      len += (cnt * sizeof( uint16 ));
    694                    }
    695                    else
    696                    {
    697                      cnt = 0;
    698                    }
    699                    *pBuf++ = cnt;
    700                    len++;
    701          
    702                    // StartIndex field is only present if NumAssocDev field is non-zero.
    703                    *pBuf++ = idx;
    704                    len++;
    705          
    706                    while ( cnt != 0 )
    707                    {
    708                      *pBuf++ = LO_UINT16( *pList );
    709                      *pBuf++ = HI_UINT16( *pList );
    710                      pList++;
    711                      cnt--;
    712                    }
    713          
    714                    osal_mem_free( (uint8 *)list );
    715                  }
    716                  else
    717                  {
    718                    // NumAssocDev field is only present on success.
    719                    *pBuf++ = 0;
    720                    len++;
    721                  }
    722                }
    723              }
    724          
    725              ZDP_TxOptions = AF_MSG_ACK_REQUEST;
   \   0001B5   90....       MOV     DPTR,#ZDP_TxOptions
   \   0001B8   7410         MOV     A,#0x10
   \   0001BA   F0           MOVX    @DPTR,A
    726              fillAndSend( &(inMsg->TransSeq), &(inMsg->srcAddr), (cId_t)(inMsg->clusterID | ZDO_RESPONSE_BIT), len );
   \   0001BB                ; Setup parameters for call to function fillAndSend
   \   0001BB   E5..         MOV     A,?V0 + 2
   \   0001BD   240C         ADD     A,#0xc
   \   0001BF   F582         MOV     DPL,A
   \   0001C1   E5..         MOV     A,?V0 + 3
   \   0001C3   3400         ADDC    A,#0x0
   \   0001C5   F583         MOV     DPH,A
   \   0001C7   E0           MOVX    A,@DPTR
   \   0001C8   4400         ORL     A,#0x0
   \   0001CA   F5..         MOV     ?V0 + 10,A
   \   0001CC   A3           INC     DPTR
   \   0001CD   E0           MOVX    A,@DPTR
   \   0001CE   4480         ORL     A,#0x80
   \   0001D0   F5..         MOV     ?V0 + 11,A
   \   0001D2   78..         MOV     R0,#?V0 + 10
   \   0001D4   12....       LCALL   ?PUSH_XSTACK_I_TWO
   \   0001D7   A9..         MOV     R1,?V0 + 8
   \   0001D9   E5..         MOV     A,?V0 + 2
   \   0001DB   2402         ADD     A,#0x2
   \   0001DD   FC           MOV     R4,A
   \   0001DE   E5..         MOV     A,?V0 + 3
   \   0001E0   3400         ADDC    A,#0x0
   \   0001E2   FD           MOV     R5,A
   \   0001E3   E5..         MOV     A,?V0 + 2
   \   0001E5   240F         ADD     A,#0xf
   \   0001E7   FA           MOV     R2,A
   \   0001E8   E5..         MOV     A,?V0 + 3
   \   0001EA   3400         ADDC    A,#0x0
   \   0001EC   FB           MOV     R3,A
   \   0001ED   12....       LCALL   ??fillAndSend?relay
   \   0001F0   7402         MOV     A,#0x2
   \   0001F2   12....       LCALL   ?DEALLOC_XSTACK8
   \   0001F5   E9           MOV     A,R1
    727              ZDP_TxOptions = AF_TX_OPTIONS_NONE;
   \   0001F6   90....       MOV     DPTR,#ZDP_TxOptions
   \   0001F9   7400         MOV     A,#0x0
   \   0001FB   F0           MOVX    @DPTR,A
    728            }
    729          }
   \                     ??zdpProcessAddrReq_8:
   \   0001FC   7F0C         MOV     R7,#0xc
   \   0001FE   02....       LJMP    ?BANKED_LEAVE_XDATA
    730          
    731          /*********************************************************************
    732           * @fn          ZDP_NodeDescMsg
    733           *
    734           * @brief       Builds and sends a Node Descriptor message, unicast to the
    735           *              specified device.
    736           *
    737           * @param       inMsg - incoming message
    738           * @param       nwkAddr - 16 bit network address for device
    739           * @param       pNodeDesc - pointer to the node descriptor
    740           *
    741           * @return      afStatus_t
    742           */

   \                                 In  segment BANKED_CODE, align 1, keep-with-next
    743          afStatus_t ZDP_NodeDescMsg( zdoIncomingMsg_t *inMsg,
   \                     ZDP_NodeDescMsg:
    744                                     uint16 nwkAddr, NodeDescriptorFormat_t *pNodeDesc )
    745          {
   \   000000   74EE         MOV     A,#-0x12
   \   000002   12....       LCALL   ?BANKED_ENTER_XDATA
   \   000005                ; Saved register size: 18
   \   000005                ; Auto size: 0
   \   000005   8A..         MOV     ?V0 + 4,R2
   \   000007   8B..         MOV     ?V0 + 5,R3
   \   000009   8C..         MOV     ?V0 + 2,R4
   \   00000B   8D..         MOV     ?V0 + 3,R5
   \   00000D   7412         MOV     A,#0x12
   \   00000F   12....       LCALL   ?XSTACK_DISP0_8
   \   000012   E0           MOVX    A,@DPTR
   \   000013   F5..         MOV     ?V0 + 0,A
   \   000015   A3           INC     DPTR
   \   000016   E0           MOVX    A,@DPTR
   \   000017   F5..         MOV     ?V0 + 1,A
    746            uint8 *pBuf = ZDP_TmpBuf;
   \   000019   90....       MOV     DPTR,#ZDP_TmpBuf
   \   00001C   E0           MOVX    A,@DPTR
   \   00001D   FE           MOV     R6,A
   \   00001E   A3           INC     DPTR
   \   00001F   E0           MOVX    A,@DPTR
   \   000020   FF           MOV     R7,A
    747            byte len;
    748          
    749            len = 1 + 2 + 13;  // Status + nwkAddr + Node descriptor
   \   000021   75..10       MOV     ?V0 + 6,#0x10
    750          
    751            *pBuf++ = ZDP_SUCCESS;
   \   000024   8E82         MOV     DPL,R6
   \   000026   8F83         MOV     DPH,R7
   \   000028   7400         MOV     A,#0x0
   \   00002A   F0           MOVX    @DPTR,A
   \   00002B   8E82         MOV     DPL,R6
   \   00002D   8F83         MOV     DPH,R7
   \   00002F   A3           INC     DPTR
   \   000030   AE82         MOV     R6,DPL
   \   000032   AF83         MOV     R7,DPH
    752          
    753            *pBuf++ = LO_UINT16( nwkAddr );
   \   000034   E5..         MOV     A,?V0 + 2
   \   000036   8E82         MOV     DPL,R6
   \   000038   8F83         MOV     DPH,R7
   \   00003A   E5..         MOV     A,?V0 + 2
   \   00003C   F0           MOVX    @DPTR,A
   \   00003D   8E82         MOV     DPL,R6
   \   00003F   8F83         MOV     DPH,R7
   \   000041   A3           INC     DPTR
   \   000042   AE82         MOV     R6,DPL
   \   000044   AF83         MOV     R7,DPH
    754            *pBuf++ = HI_UINT16( nwkAddr );
   \   000046   A8..         MOV     R0,?V0 + 2
   \   000048   A9..         MOV     R1,?V0 + 3
   \   00004A   E4           CLR     A
   \   00004B   E5..         MOV     A,?V0 + 3
   \   00004D   A8..         MOV     R0,?V0 + 3
   \   00004F   E5..         MOV     A,?V0 + 3
   \   000051   8E82         MOV     DPL,R6
   \   000053   8F83         MOV     DPH,R7
   \   000055   E5..         MOV     A,?V0 + 3
   \   000057   F0           MOVX    @DPTR,A
   \   000058   8E82         MOV     DPL,R6
   \   00005A   8F83         MOV     DPH,R7
   \   00005C   A3           INC     DPTR
   \   00005D   AE82         MOV     R6,DPL
   \   00005F   AF83         MOV     R7,DPH
    755          
    756            *pBuf++ = (byte)((pNodeDesc->ComplexDescAvail << 3) |
    757                               (pNodeDesc->UserDescAvail << 4) |
    758                               (pNodeDesc->LogicalType & 0x07));
   \   000061   85..82       MOV     DPL,?V0 + 0
   \   000064   85..83       MOV     DPH,?V0 + 1
   \   000067   E0           MOVX    A,@DPTR
   \   000068   5407         ANL     A,#0x7
   \   00006A   F9           MOV     R1,A
   \   00006B   85..82       MOV     DPL,?V0 + 0
   \   00006E   85..83       MOV     DPH,?V0 + 1
   \   000071   E0           MOVX    A,@DPTR
   \   000072   5410         ANL     A,#0x10
   \   000074   F8           MOV     R0,A
   \   000075   85..82       MOV     DPL,?V0 + 0
   \   000078   85..83       MOV     DPH,?V0 + 1
   \   00007B   E0           MOVX    A,@DPTR
   \   00007C   5408         ANL     A,#0x8
   \   00007E   48           ORL     A,R0
   \   00007F   49           ORL     A,R1
   \   000080   8E82         MOV     DPL,R6
   \   000082   8F83         MOV     DPH,R7
   \   000084   F0           MOVX    @DPTR,A
   \   000085   8E82         MOV     DPL,R6
   \   000087   8F83         MOV     DPH,R7
   \   000089   A3           INC     DPTR
   \   00008A   AE82         MOV     R6,DPL
   \   00008C   AF83         MOV     R7,DPH
    759          
    760            *pBuf++ = (byte)((pNodeDesc->FrequencyBand << 3) | (pNodeDesc->APSFlags & 0x07));
   \   00008E   85..82       MOV     DPL,?V0 + 0
   \   000091   85..83       MOV     DPH,?V0 + 1
   \   000094   A3           INC     DPTR
   \   000095   E0           MOVX    A,@DPTR
   \   000096   5407         ANL     A,#0x7
   \   000098   F8           MOV     R0,A
   \   000099   85..82       MOV     DPL,?V0 + 0
   \   00009C   85..83       MOV     DPH,?V0 + 1
   \   00009F   A3           INC     DPTR
   \   0000A0   E0           MOVX    A,@DPTR
   \   0000A1   54F8         ANL     A,#0xf8
   \   0000A3   48           ORL     A,R0
   \   0000A4   8E82         MOV     DPL,R6
   \   0000A6   8F83         MOV     DPH,R7
   \   0000A8   F0           MOVX    @DPTR,A
   \   0000A9   8E82         MOV     DPL,R6
   \   0000AB   8F83         MOV     DPH,R7
   \   0000AD   A3           INC     DPTR
   \   0000AE   AE82         MOV     R6,DPL
   \   0000B0   AF83         MOV     R7,DPH
    761            *pBuf++ = pNodeDesc->CapabilityFlags;
   \   0000B2   85..82       MOV     DPL,?V0 + 0
   \   0000B5   85..83       MOV     DPH,?V0 + 1
   \   0000B8   A3           INC     DPTR
   \   0000B9   A3           INC     DPTR
   \   0000BA   E0           MOVX    A,@DPTR
   \   0000BB   8E82         MOV     DPL,R6
   \   0000BD   8F83         MOV     DPH,R7
   \   0000BF   F0           MOVX    @DPTR,A
   \   0000C0   8E82         MOV     DPL,R6
   \   0000C2   8F83         MOV     DPH,R7
   \   0000C4   A3           INC     DPTR
   \   0000C5   AE82         MOV     R6,DPL
   \   0000C7   AF83         MOV     R7,DPH
    762            *pBuf++ = pNodeDesc->ManufacturerCode[0];
   \   0000C9   85..82       MOV     DPL,?V0 + 0
   \   0000CC   85..83       MOV     DPH,?V0 + 1
   \   0000CF   A3           INC     DPTR
   \   0000D0   A3           INC     DPTR
   \   0000D1   A3           INC     DPTR
   \   0000D2   E0           MOVX    A,@DPTR
   \   0000D3   8E82         MOV     DPL,R6
   \   0000D5   8F83         MOV     DPH,R7
   \   0000D7   F0           MOVX    @DPTR,A
   \   0000D8   8E82         MOV     DPL,R6
   \   0000DA   8F83         MOV     DPH,R7
   \   0000DC   A3           INC     DPTR
   \   0000DD   AE82         MOV     R6,DPL
   \   0000DF   AF83         MOV     R7,DPH
    763            *pBuf++ = pNodeDesc->ManufacturerCode[1];
   \   0000E1   85..82       MOV     DPL,?V0 + 0
   \   0000E4   85..83       MOV     DPH,?V0 + 1
   \   0000E7   A3           INC     DPTR
   \   0000E8   A3           INC     DPTR
   \   0000E9   A3           INC     DPTR
   \   0000EA   A3           INC     DPTR
   \   0000EB   E0           MOVX    A,@DPTR
   \   0000EC   8E82         MOV     DPL,R6
   \   0000EE   8F83         MOV     DPH,R7
   \   0000F0   F0           MOVX    @DPTR,A
   \   0000F1   8E82         MOV     DPL,R6
   \   0000F3   8F83         MOV     DPH,R7
   \   0000F5   A3           INC     DPTR
   \   0000F6   AE82         MOV     R6,DPL
   \   0000F8   AF83         MOV     R7,DPH
    764            *pBuf++ = pNodeDesc->MaxBufferSize;
   \   0000FA   85..82       MOV     DPL,?V0 + 0
   \   0000FD   85..83       MOV     DPH,?V0 + 1
   \   000100   A3           INC     DPTR
   \   000101   A3           INC     DPTR
   \   000102   A3           INC     DPTR
   \   000103   A3           INC     DPTR
   \   000104   A3           INC     DPTR
   \   000105   E0           MOVX    A,@DPTR
   \   000106   8E82         MOV     DPL,R6
   \   000108   8F83         MOV     DPH,R7
   \   00010A   F0           MOVX    @DPTR,A
   \   00010B   8E82         MOV     DPL,R6
   \   00010D   8F83         MOV     DPH,R7
   \   00010F   A3           INC     DPTR
   \   000110   AE82         MOV     R6,DPL
   \   000112   AF83         MOV     R7,DPH
    765            *pBuf++ = pNodeDesc->MaxInTransferSize[0];
   \   000114   85..82       MOV     DPL,?V0 + 0
   \   000117   85..83       MOV     DPH,?V0 + 1
   \   00011A   A3           INC     DPTR
   \   00011B   A3           INC     DPTR
   \   00011C   A3           INC     DPTR
   \   00011D   A3           INC     DPTR
   \   00011E   A3           INC     DPTR
   \   00011F   A3           INC     DPTR
   \   000120   E0           MOVX    A,@DPTR
   \   000121   8E82         MOV     DPL,R6
   \   000123   8F83         MOV     DPH,R7
   \   000125   F0           MOVX    @DPTR,A
   \   000126   8E82         MOV     DPL,R6
   \   000128   8F83         MOV     DPH,R7
   \   00012A   A3           INC     DPTR
   \   00012B   AE82         MOV     R6,DPL
   \   00012D   AF83         MOV     R7,DPH
    766            *pBuf++ = pNodeDesc->MaxInTransferSize[1];
   \   00012F   85..82       MOV     DPL,?V0 + 0
   \   000132   85..83       MOV     DPH,?V0 + 1
   \   000135   A3           INC     DPTR
   \   000136   A3           INC     DPTR
   \   000137   A3           INC     DPTR
   \   000138   A3           INC     DPTR
   \   000139   A3           INC     DPTR
   \   00013A   A3           INC     DPTR
   \   00013B   A3           INC     DPTR
   \   00013C   E0           MOVX    A,@DPTR
   \   00013D   8E82         MOV     DPL,R6
   \   00013F   8F83         MOV     DPH,R7
   \   000141   F0           MOVX    @DPTR,A
   \   000142   8E82         MOV     DPL,R6
   \   000144   8F83         MOV     DPH,R7
   \   000146   A3           INC     DPTR
   \   000147   AE82         MOV     R6,DPL
   \   000149   AF83         MOV     R7,DPH
    767          
    768            *pBuf++ = LO_UINT16( pNodeDesc->ServerMask );
   \   00014B   85..82       MOV     DPL,?V0 + 0
   \   00014E   85..83       MOV     DPH,?V0 + 1
   \   000151   A3           INC     DPTR
   \   000152   A3           INC     DPTR
   \   000153   A3           INC     DPTR
   \   000154   A3           INC     DPTR
   \   000155   A3           INC     DPTR
   \   000156   A3           INC     DPTR
   \   000157   A3           INC     DPTR
   \   000158   A3           INC     DPTR
   \   000159   E0           MOVX    A,@DPTR
   \   00015A   F8           MOV     R0,A
   \   00015B   A3           INC     DPTR
   \   00015C   E0           MOVX    A,@DPTR
   \   00015D   F9           MOV     R1,A
   \   00015E   E8           MOV     A,R0
   \   00015F   8E82         MOV     DPL,R6
   \   000161   8F83         MOV     DPH,R7
   \   000163   F0           MOVX    @DPTR,A
   \   000164   8E82         MOV     DPL,R6
   \   000166   8F83         MOV     DPH,R7
   \   000168   A3           INC     DPTR
   \   000169   AE82         MOV     R6,DPL
   \   00016B   AF83         MOV     R7,DPH
    769            *pBuf++ = HI_UINT16( pNodeDesc->ServerMask );
   \   00016D   85..82       MOV     DPL,?V0 + 0
   \   000170   85..83       MOV     DPH,?V0 + 1
   \   000173   A3           INC     DPTR
   \   000174   A3           INC     DPTR
   \   000175   A3           INC     DPTR
   \   000176   A3           INC     DPTR
   \   000177   A3           INC     DPTR
   \   000178   A3           INC     DPTR
   \   000179   A3           INC     DPTR
   \   00017A   A3           INC     DPTR
   \   00017B   E0           MOVX    A,@DPTR
   \   00017C   F8           MOV     R0,A
   \   00017D   A3           INC     DPTR
   \   00017E   E0           MOVX    A,@DPTR
   \   00017F   F9           MOV     R1,A
   \   000180   E4           CLR     A
   \   000181   E9           MOV     A,R1
   \   000182   F8           MOV     R0,A
   \   000183   8E82         MOV     DPL,R6
   \   000185   8F83         MOV     DPH,R7
   \   000187   F0           MOVX    @DPTR,A
   \   000188   8E82         MOV     DPL,R6
   \   00018A   8F83         MOV     DPH,R7
   \   00018C   A3           INC     DPTR
   \   00018D   AE82         MOV     R6,DPL
   \   00018F   AF83         MOV     R7,DPH
    770            *pBuf++ = pNodeDesc->MaxOutTransferSize[0];
   \   000191   85..82       MOV     DPL,?V0 + 0
   \   000194   85..83       MOV     DPH,?V0 + 1
   \   000197   A3           INC     DPTR
   \   000198   A3           INC     DPTR
   \   000199   A3           INC     DPTR
   \   00019A   A3           INC     DPTR
   \   00019B   A3           INC     DPTR
   \   00019C   A3           INC     DPTR
   \   00019D   A3           INC     DPTR
   \   00019E   A3           INC     DPTR
   \   00019F   A3           INC     DPTR
   \   0001A0   A3           INC     DPTR
   \   0001A1   E0           MOVX    A,@DPTR
   \   0001A2   8E82         MOV     DPL,R6
   \   0001A4   8F83         MOV     DPH,R7
   \   0001A6   F0           MOVX    @DPTR,A
   \   0001A7   8E82         MOV     DPL,R6
   \   0001A9   8F83         MOV     DPH,R7
   \   0001AB   A3           INC     DPTR
   \   0001AC   AE82         MOV     R6,DPL
   \   0001AE   AF83         MOV     R7,DPH
    771            *pBuf++ = pNodeDesc->MaxOutTransferSize[1];
   \   0001B0   E5..         MOV     A,?V0 + 0
   \   0001B2   240B         ADD     A,#0xb
   \   0001B4   F582         MOV     DPL,A
   \   0001B6   E5..         MOV     A,?V0 + 1
   \   0001B8   3400         ADDC    A,#0x0
   \   0001BA   F583         MOV     DPH,A
   \   0001BC   E0           MOVX    A,@DPTR
   \   0001BD   8E82         MOV     DPL,R6
   \   0001BF   8F83         MOV     DPH,R7
   \   0001C1   F0           MOVX    @DPTR,A
   \   0001C2   8E82         MOV     DPL,R6
   \   0001C4   8F83         MOV     DPH,R7
   \   0001C6   A3           INC     DPTR
   \   0001C7   AE82         MOV     R6,DPL
   \   0001C9   AF83         MOV     R7,DPH
    772            *pBuf = pNodeDesc->DescriptorCapability;
   \   0001CB   E5..         MOV     A,?V0 + 0
   \   0001CD   240C         ADD     A,#0xc
   \   0001CF   F582         MOV     DPL,A
   \   0001D1   E5..         MOV     A,?V0 + 1
   \   0001D3   3400         ADDC    A,#0x0
   \   0001D5   F583         MOV     DPH,A
   \   0001D7   E0           MOVX    A,@DPTR
   \   0001D8   8E82         MOV     DPL,R6
   \   0001DA   8F83         MOV     DPH,R7
   \   0001DC   F0           MOVX    @DPTR,A
    773          
    774            return fillAndSend( &(inMsg->TransSeq), &(inMsg->srcAddr), Node_Desc_rsp, len );
   \   0001DD                ; Setup parameters for call to function fillAndSend
   \   0001DD   75..02       MOV     ?V0 + 8,#0x2
   \   0001E0   75..80       MOV     ?V0 + 9,#-0x80
   \   0001E3   78..         MOV     R0,#?V0 + 8
   \   0001E5   12....       LCALL   ?PUSH_XSTACK_I_TWO
   \   0001E8   A9..         MOV     R1,?V0 + 6
   \   0001EA   E5..         MOV     A,?V0 + 4
   \   0001EC   2402         ADD     A,#0x2
   \   0001EE   FC           MOV     R4,A
   \   0001EF   E5..         MOV     A,?V0 + 5
   \   0001F1   3400         ADDC    A,#0x0
   \   0001F3   FD           MOV     R5,A
   \   0001F4   E5..         MOV     A,?V0 + 4
   \   0001F6   240F         ADD     A,#0xf
   \   0001F8   FA           MOV     R2,A
   \   0001F9   E5..         MOV     A,?V0 + 5
   \   0001FB   3400         ADDC    A,#0x0
   \   0001FD   FB           MOV     R3,A
   \   0001FE   12....       LCALL   ??fillAndSend?relay
   \   000201   7402         MOV     A,#0x2
   \   000203   12....       LCALL   ?DEALLOC_XSTACK8
   \   000206   7F0A         MOV     R7,#0xa
   \   000208   02....       LJMP    ?BANKED_LEAVE_XDATA
    775          }
    776          
    777          /*********************************************************************
    778           * @fn          ZDP_PowerDescMsg
    779           *
    780           * @brief       Builds and sends a Power Descriptor message, unicast to the
    781           *              specified device.
    782           *
    783           * @param       inMsg - incoming message (request)
    784           * @param       nwkAddr - 16 bit network address for device
    785           * @param       pPowerDesc - pointer to the node descriptor
    786           *
    787           * @return      afStatus_t
    788           */

   \                                 In  segment BANKED_CODE, align 1, keep-with-next
    789          afStatus_t ZDP_PowerDescMsg( zdoIncomingMsg_t *inMsg,
   \                     ZDP_PowerDescMsg:
    790                               uint16 nwkAddr, NodePowerDescriptorFormat_t *pPowerDesc )
    791          {
   \   000000   74EE         MOV     A,#-0x12
   \   000002   12....       LCALL   ?BANKED_ENTER_XDATA
   \   000005                ; Saved register size: 18
   \   000005                ; Auto size: 0
   \   000005   8A..         MOV     ?V0 + 4,R2
   \   000007   8B..         MOV     ?V0 + 5,R3
   \   000009   8C..         MOV     ?V0 + 0,R4
   \   00000B   8D..         MOV     ?V0 + 1,R5
   \   00000D   7412         MOV     A,#0x12
   \   00000F   12....       LCALL   ?XSTACK_DISP0_8
   \   000012   E0           MOVX    A,@DPTR
   \   000013   F5..         MOV     ?V0 + 2,A
   \   000015   A3           INC     DPTR
   \   000016   E0           MOVX    A,@DPTR
   \   000017   F5..         MOV     ?V0 + 3,A
    792            uint8 *pBuf = ZDP_TmpBuf;
   \   000019   90....       MOV     DPTR,#ZDP_TmpBuf
   \   00001C   E0           MOVX    A,@DPTR
   \   00001D   FE           MOV     R6,A
   \   00001E   A3           INC     DPTR
   \   00001F   E0           MOVX    A,@DPTR
   \   000020   FF           MOV     R7,A
    793            byte len = 1 + 2 + 2;  // Status + nwkAddr + Node Power descriptor.
   \   000021   75..05       MOV     ?V0 + 6,#0x5
    794          
    795            *pBuf++ = ZDP_SUCCESS;
   \   000024   8E82         MOV     DPL,R6
   \   000026   8F83         MOV     DPH,R7
   \   000028   7400         MOV     A,#0x0
   \   00002A   F0           MOVX    @DPTR,A
   \   00002B   8E82         MOV     DPL,R6
   \   00002D   8F83         MOV     DPH,R7
   \   00002F   A3           INC     DPTR
   \   000030   AE82         MOV     R6,DPL
   \   000032   AF83         MOV     R7,DPH
    796          
    797            *pBuf++ = LO_UINT16( nwkAddr );
   \   000034   E5..         MOV     A,?V0 + 0
   \   000036   8E82         MOV     DPL,R6
   \   000038   8F83         MOV     DPH,R7
   \   00003A   E5..         MOV     A,?V0 + 0
   \   00003C   F0           MOVX    @DPTR,A
   \   00003D   8E82         MOV     DPL,R6
   \   00003F   8F83         MOV     DPH,R7
   \   000041   A3           INC     DPTR
   \   000042   AE82         MOV     R6,DPL
   \   000044   AF83         MOV     R7,DPH
    798            *pBuf++ = HI_UINT16( nwkAddr );
   \   000046   A8..         MOV     R0,?V0 + 0
   \   000048   A9..         MOV     R1,?V0 + 1
   \   00004A   E4           CLR     A
   \   00004B   E5..         MOV     A,?V0 + 1
   \   00004D   A8..         MOV     R0,?V0 + 1
   \   00004F   E5..         MOV     A,?V0 + 1
   \   000051   8E82         MOV     DPL,R6
   \   000053   8F83         MOV     DPH,R7
   \   000055   E5..         MOV     A,?V0 + 1
   \   000057   F0           MOVX    @DPTR,A
   \   000058   8E82         MOV     DPL,R6
   \   00005A   8F83         MOV     DPH,R7
   \   00005C   A3           INC     DPTR
   \   00005D   AE82         MOV     R6,DPL
   \   00005F   AF83         MOV     R7,DPH
    799          
    800            *pBuf++ = (byte)((pPowerDesc->AvailablePowerSources << 4)
    801                              | (pPowerDesc->PowerMode & 0x0F));
   \   000061   85..82       MOV     DPL,?V0 + 2
   \   000064   85..83       MOV     DPH,?V0 + 3
   \   000067   E0           MOVX    A,@DPTR
   \   000068   F8           MOV     R0,A
   \   000069   A3           INC     DPTR
   \   00006A   E0           MOVX    A,@DPTR
   \   00006B   F9           MOV     R1,A
   \   00006C   E8           MOV     A,R0
   \   00006D   540F         ANL     A,#0xf
   \   00006F   FA           MOV     R2,A
   \   000070   85..82       MOV     DPL,?V0 + 2
   \   000073   85..83       MOV     DPH,?V0 + 3
   \   000076   E0           MOVX    A,@DPTR
   \   000077   F8           MOV     R0,A
   \   000078   A3           INC     DPTR
   \   000079   E0           MOVX    A,@DPTR
   \   00007A   F9           MOV     R1,A
   \   00007B   E8           MOV     A,R0
   \   00007C   54F0         ANL     A,#0xf0
   \   00007E   4A           ORL     A,R2
   \   00007F   8E82         MOV     DPL,R6
   \   000081   8F83         MOV     DPH,R7
   \   000083   F0           MOVX    @DPTR,A
   \   000084   8E82         MOV     DPL,R6
   \   000086   8F83         MOV     DPH,R7
   \   000088   A3           INC     DPTR
   \   000089   AE82         MOV     R6,DPL
   \   00008B   AF83         MOV     R7,DPH
    802            *pBuf++ = (byte)((pPowerDesc->CurrentPowerSourceLevel << 4)
    803                              | (pPowerDesc->CurrentPowerSource & 0x0F));
   \   00008D   85..82       MOV     DPL,?V0 + 2
   \   000090   85..83       MOV     DPH,?V0 + 3
   \   000093   E0           MOVX    A,@DPTR
   \   000094   F8           MOV     R0,A
   \   000095   A3           INC     DPTR
   \   000096   E0           MOVX    A,@DPTR
   \   000097   F9           MOV     R1,A
   \   000098   E4           CLR     A
   \   000099   E9           MOV     A,R1
   \   00009A   F8           MOV     R0,A
   \   00009B   540F         ANL     A,#0xf
   \   00009D   F9           MOV     R1,A
   \   00009E   85..82       MOV     DPL,?V0 + 2
   \   0000A1   85..83       MOV     DPH,?V0 + 3
   \   0000A4   E0           MOVX    A,@DPTR
   \   0000A5   F5..         MOV     ?V0 + 8,A
   \   0000A7   A3           INC     DPTR
   \   0000A8   E0           MOVX    A,@DPTR
   \   0000A9   F5..         MOV     ?V0 + 9,A
   \   0000AB   740C         MOV     A,#0xc
   \   0000AD   78..         MOV     R0,#?V0 + 8
   \   0000AF   12....       LCALL   ?US_SHR
   \   0000B2   E5..         MOV     A,?V0 + 8
   \   0000B4   C4           SWAP    A
   \   0000B5   54F0         ANL     A,#0xf0
   \   0000B7   49           ORL     A,R1
   \   0000B8   8E82         MOV     DPL,R6
   \   0000BA   8F83         MOV     DPH,R7
   \   0000BC   F0           MOVX    @DPTR,A
   \   0000BD   8E82         MOV     DPL,R6
   \   0000BF   8F83         MOV     DPH,R7
   \   0000C1   A3           INC     DPTR
   \   0000C2   AE82         MOV     R6,DPL
   \   0000C4   AF83         MOV     R7,DPH
    804          
    805            return fillAndSend( &(inMsg->TransSeq), &(inMsg->srcAddr), Power_Desc_rsp, len );
   \   0000C6                ; Setup parameters for call to function fillAndSend
   \   0000C6   75..03       MOV     ?V0 + 8,#0x3
   \   0000C9   75..80       MOV     ?V0 + 9,#-0x80
   \   0000CC   78..         MOV     R0,#?V0 + 8
   \   0000CE   12....       LCALL   ?PUSH_XSTACK_I_TWO
   \   0000D1   A9..         MOV     R1,?V0 + 6
   \   0000D3   E5..         MOV     A,?V0 + 4
   \   0000D5   2402         ADD     A,#0x2
   \   0000D7   FC           MOV     R4,A
   \   0000D8   E5..         MOV     A,?V0 + 5
   \   0000DA   3400         ADDC    A,#0x0
   \   0000DC   FD           MOV     R5,A
   \   0000DD   E5..         MOV     A,?V0 + 4
   \   0000DF   240F         ADD     A,#0xf
   \   0000E1   FA           MOV     R2,A
   \   0000E2   E5..         MOV     A,?V0 + 5
   \   0000E4   3400         ADDC    A,#0x0
   \   0000E6   FB           MOV     R3,A
   \   0000E7   12....       LCALL   ??fillAndSend?relay
   \   0000EA   7402         MOV     A,#0x2
   \   0000EC   12....       LCALL   ?DEALLOC_XSTACK8
   \   0000EF   7F0A         MOV     R7,#0xa
   \   0000F1   02....       LJMP    ?BANKED_LEAVE_XDATA
    806          }
    807          
    808          /*********************************************************************
    809           * @fn          ZDP_SimpleDescMsg
    810           *
    811           * @brief       Builds and sends a Simple Descriptor message, unicast to the
    812           *              specified device.
    813           *
    814           * @param       inMsg - incoming message (request)
    815           * @param       Status - message status (ZDP_SUCCESS or other)
    816           * @param       pSimpleDesc - pointer to the node descriptor
    817           *
    818           * @return      afStatus_t
    819           */

   \                                 In  segment BANKED_CODE, align 1, keep-with-next
    820          afStatus_t ZDP_SimpleDescMsg( zdoIncomingMsg_t *inMsg, byte Status,
   \                     ZDP_SimpleDescMsg:
    821                                        SimpleDescriptionFormat_t *pSimpleDesc )
    822          {
   \   000000   74EE         MOV     A,#-0x12
   \   000002   12....       LCALL   ?BANKED_ENTER_XDATA
   \   000005                ; Saved register size: 18
   \   000005                ; Auto size: 0
   \   000005   8A..         MOV     ?V0 + 4,R2
   \   000007   8B..         MOV     ?V0 + 5,R3
   \   000009   89..         MOV     ?V0 + 6,R1
   \   00000B   8C..         MOV     ?V0 + 0,R4
   \   00000D   8D..         MOV     ?V0 + 1,R5
    823            uint8 *pBuf = ZDP_TmpBuf;
   \   00000F   90....       MOV     DPTR,#ZDP_TmpBuf
   \   000012   E0           MOVX    A,@DPTR
   \   000013   FE           MOV     R6,A
   \   000014   A3           INC     DPTR
   \   000015   E0           MOVX    A,@DPTR
   \   000016   FF           MOV     R7,A
    824            uint8 i, len;
    825          
    826            if ( Status == ZDP_SUCCESS && pSimpleDesc )
   \   000017   E5..         MOV     A,?V0 + 6
   \   000019   703D         JNZ     ??ZDP_SimpleDescMsg_0
   \   00001B   E5..         MOV     A,?V0 + 0
   \   00001D   45..         ORL     A,?V0 + 1
   \   00001F   6037         JZ      ??ZDP_SimpleDescMsg_0
    827            {
    828              // Status + NWKAddrOfInterest + desc length + empty simple descriptor.
    829              len = 1 + 2 + 1 + 8;
   \   000021   75..0C       MOV     ?V0 + 3,#0xc
    830              len += (pSimpleDesc->AppNumInClusters + pSimpleDesc->AppNumOutClusters) * sizeof ( uint16 );
   \   000024   75F002       MOV     B,#0x2
   \   000027   85..82       MOV     DPL,?V0 + 0
   \   00002A   85..83       MOV     DPH,?V0 + 1
   \   00002D   A3           INC     DPTR
   \   00002E   A3           INC     DPTR
   \   00002F   A3           INC     DPTR
   \   000030   A3           INC     DPTR
   \   000031   A3           INC     DPTR
   \   000032   A3           INC     DPTR
   \   000033   E0           MOVX    A,@DPTR
   \   000034   F8           MOV     R0,A
   \   000035   7900         MOV     R1,#0x0
   \   000037   85..82       MOV     DPL,?V0 + 0
   \   00003A   85..83       MOV     DPH,?V0 + 1
   \   00003D   A3           INC     DPTR
   \   00003E   A3           INC     DPTR
   \   00003F   A3           INC     DPTR
   \   000040   A3           INC     DPTR
   \   000041   A3           INC     DPTR
   \   000042   A3           INC     DPTR
   \   000043   A3           INC     DPTR
   \   000044   A3           INC     DPTR
   \   000045   A3           INC     DPTR
   \   000046   E0           MOVX    A,@DPTR
   \   000047   FA           MOV     R2,A
   \   000048   7B00         MOV     R3,#0x0
   \   00004A   E8           MOV     A,R0
   \   00004B   2A           ADD     A,R2
   \   00004C   F8           MOV     R0,A
   \   00004D   E9           MOV     A,R1
   \   00004E   3B           ADDC    A,R3
   \   00004F   F9           MOV     R1,A
   \   000050   E8           MOV     A,R0
   \   000051   A4           MUL     AB
   \   000052   25..         ADD     A,?V0 + 3
   \   000054   F5..         MOV     ?V0 + 3,A
   \   000056   8003         SJMP    ??ZDP_SimpleDescMsg_1
    831            }
    832            else
    833            {
    834              len = 1 + 2 + 1; // Status + desc length
   \                     ??ZDP_SimpleDescMsg_0:
   \   000058   75..04       MOV     ?V0 + 3,#0x4
    835            }
    836            if ( len >= ZDP_BUF_SZ-1 )
   \                     ??ZDP_SimpleDescMsg_1:
   \   00005B   E5..         MOV     A,?V0 + 3
   \   00005D   C3           CLR     C
   \   00005E   944F         SUBB    A,#0x4f
   \   000060   4005         JC      ??ZDP_SimpleDescMsg_2
    837            {
    838              return afStatus_MEM_FAIL;
   \   000062   7910         MOV     R1,#0x10
   \   000064   02....       LJMP    ??ZDP_SimpleDescMsg_3 & 0xFFFF
    839            }
    840          
    841            *pBuf++ = Status;
   \                     ??ZDP_SimpleDescMsg_2:
   \   000067   E5..         MOV     A,?V0 + 6
   \   000069   8E82         MOV     DPL,R6
   \   00006B   8F83         MOV     DPH,R7
   \   00006D   E5..         MOV     A,?V0 + 6
   \   00006F   F0           MOVX    @DPTR,A
   \   000070   8E82         MOV     DPL,R6
   \   000072   8F83         MOV     DPH,R7
   \   000074   A3           INC     DPTR
   \   000075   AE82         MOV     R6,DPL
   \   000077   AF83         MOV     R7,DPH
    842          
    843            *pBuf++ = LO_UINT16( ZDAppNwkAddr.addr.shortAddr );
   \   000079   90....       MOV     DPTR,#ZDAppNwkAddr
   \   00007C   E0           MOVX    A,@DPTR
   \   00007D   F8           MOV     R0,A
   \   00007E   A3           INC     DPTR
   \   00007F   E0           MOVX    A,@DPTR
   \   000080   F9           MOV     R1,A
   \   000081   E8           MOV     A,R0
   \   000082   8E82         MOV     DPL,R6
   \   000084   8F83         MOV     DPH,R7
   \   000086   F0           MOVX    @DPTR,A
   \   000087   8E82         MOV     DPL,R6
   \   000089   8F83         MOV     DPH,R7
   \   00008B   A3           INC     DPTR
   \   00008C   AE82         MOV     R6,DPL
   \   00008E   AF83         MOV     R7,DPH
    844            *pBuf++ = HI_UINT16( ZDAppNwkAddr.addr.shortAddr );
   \   000090   90....       MOV     DPTR,#ZDAppNwkAddr
   \   000093   E0           MOVX    A,@DPTR
   \   000094   F8           MOV     R0,A
   \   000095   A3           INC     DPTR
   \   000096   E0           MOVX    A,@DPTR
   \   000097   F9           MOV     R1,A
   \   000098   E4           CLR     A
   \   000099   E9           MOV     A,R1
   \   00009A   F8           MOV     R0,A
   \   00009B   8E82         MOV     DPL,R6
   \   00009D   8F83         MOV     DPH,R7
   \   00009F   F0           MOVX    @DPTR,A
   \   0000A0   8E82         MOV     DPL,R6
   \   0000A2   8F83         MOV     DPH,R7
   \   0000A4   A3           INC     DPTR
   \   0000A5   AE82         MOV     R6,DPL
   \   0000A7   AF83         MOV     R7,DPH
    845          
    846            if ( len > 4 )
   \   0000A9   E5..         MOV     A,?V0 + 3
   \   0000AB   C3           CLR     C
   \   0000AC   9405         SUBB    A,#0x5
   \   0000AE   5003         JNC     $+5
   \   0000B0   02....       LJMP    ??ZDP_SimpleDescMsg_4 & 0xFFFF
    847            {
    848              *pBuf++ = len - 4;   // Simple descriptor length
   \   0000B3   74FC         MOV     A,#-0x4
   \   0000B5   25..         ADD     A,?V0 + 3
   \   0000B7   8E82         MOV     DPL,R6
   \   0000B9   8F83         MOV     DPH,R7
   \   0000BB   F0           MOVX    @DPTR,A
   \   0000BC   8E82         MOV     DPL,R6
   \   0000BE   8F83         MOV     DPH,R7
   \   0000C0   A3           INC     DPTR
   \   0000C1   AE82         MOV     R6,DPL
   \   0000C3   AF83         MOV     R7,DPH
    849          
    850              *pBuf++ = pSimpleDesc->EndPoint;
   \   0000C5   85..82       MOV     DPL,?V0 + 0
   \   0000C8   85..83       MOV     DPH,?V0 + 1
   \   0000CB   E0           MOVX    A,@DPTR
   \   0000CC   8E82         MOV     DPL,R6
   \   0000CE   8F83         MOV     DPH,R7
   \   0000D0   F0           MOVX    @DPTR,A
   \   0000D1   8E82         MOV     DPL,R6
   \   0000D3   8F83         MOV     DPH,R7
   \   0000D5   A3           INC     DPTR
   \   0000D6   AE82         MOV     R6,DPL
   \   0000D8   AF83         MOV     R7,DPH
    851              *pBuf++ = LO_UINT16( pSimpleDesc->AppProfId );
   \   0000DA   85..82       MOV     DPL,?V0 + 0
   \   0000DD   85..83       MOV     DPH,?V0 + 1
   \   0000E0   A3           INC     DPTR
   \   0000E1   E0           MOVX    A,@DPTR
   \   0000E2   F8           MOV     R0,A
   \   0000E3   A3           INC     DPTR
   \   0000E4   E0           MOVX    A,@DPTR
   \   0000E5   F9           MOV     R1,A
   \   0000E6   E8           MOV     A,R0
   \   0000E7   8E82         MOV     DPL,R6
   \   0000E9   8F83         MOV     DPH,R7
   \   0000EB   F0           MOVX    @DPTR,A
   \   0000EC   8E82         MOV     DPL,R6
   \   0000EE   8F83         MOV     DPH,R7
   \   0000F0   A3           INC     DPTR
   \   0000F1   AE82         MOV     R6,DPL
   \   0000F3   AF83         MOV     R7,DPH
    852              *pBuf++ = HI_UINT16( pSimpleDesc->AppProfId );
   \   0000F5   85..82       MOV     DPL,?V0 + 0
   \   0000F8   85..83       MOV     DPH,?V0 + 1
   \   0000FB   A3           INC     DPTR
   \   0000FC   E0           MOVX    A,@DPTR
   \   0000FD   F8           MOV     R0,A
   \   0000FE   A3           INC     DPTR
   \   0000FF   E0           MOVX    A,@DPTR
   \   000100   F9           MOV     R1,A
   \   000101   E4           CLR     A
   \   000102   E9           MOV     A,R1
   \   000103   F8           MOV     R0,A
   \   000104   8E82         MOV     DPL,R6
   \   000106   8F83         MOV     DPH,R7
   \   000108   F0           MOVX    @DPTR,A
   \   000109   8E82         MOV     DPL,R6
   \   00010B   8F83         MOV     DPH,R7
   \   00010D   A3           INC     DPTR
   \   00010E   AE82         MOV     R6,DPL
   \   000110   AF83         MOV     R7,DPH
    853              *pBuf++ = LO_UINT16( pSimpleDesc->AppDeviceId );
   \   000112   85..82       MOV     DPL,?V0 + 0
   \   000115   85..83       MOV     DPH,?V0 + 1
   \   000118   A3           INC     DPTR
   \   000119   A3           INC     DPTR
   \   00011A   A3           INC     DPTR
   \   00011B   E0           MOVX    A,@DPTR
   \   00011C   F8           MOV     R0,A
   \   00011D   A3           INC     DPTR
   \   00011E   E0           MOVX    A,@DPTR
   \   00011F   F9           MOV     R1,A
   \   000120   E8           MOV     A,R0
   \   000121   8E82         MOV     DPL,R6
   \   000123   8F83         MOV     DPH,R7
   \   000125   F0           MOVX    @DPTR,A
   \   000126   8E82         MOV     DPL,R6
   \   000128   8F83         MOV     DPH,R7
   \   00012A   A3           INC     DPTR
   \   00012B   AE82         MOV     R6,DPL
   \   00012D   AF83         MOV     R7,DPH
    854              *pBuf++ = HI_UINT16( pSimpleDesc->AppDeviceId );
   \   00012F   85..82       MOV     DPL,?V0 + 0
   \   000132   85..83       MOV     DPH,?V0 + 1
   \   000135   A3           INC     DPTR
   \   000136   A3           INC     DPTR
   \   000137   A3           INC     DPTR
   \   000138   E0           MOVX    A,@DPTR
   \   000139   F8           MOV     R0,A
   \   00013A   A3           INC     DPTR
   \   00013B   E0           MOVX    A,@DPTR
   \   00013C   F9           MOV     R1,A
   \   00013D   E4           CLR     A
   \   00013E   E9           MOV     A,R1
   \   00013F   F8           MOV     R0,A
   \   000140   8E82         MOV     DPL,R6
   \   000142   8F83         MOV     DPH,R7
   \   000144   F0           MOVX    @DPTR,A
   \   000145   8E82         MOV     DPL,R6
   \   000147   8F83         MOV     DPH,R7
   \   000149   A3           INC     DPTR
   \   00014A   AE82         MOV     R6,DPL
   \   00014C   AF83         MOV     R7,DPH
    855          
    856              *pBuf++ = (byte)(pSimpleDesc->AppDevVer << 4);
   \   00014E   85..82       MOV     DPL,?V0 + 0
   \   000151   85..83       MOV     DPH,?V0 + 1
   \   000154   A3           INC     DPTR
   \   000155   A3           INC     DPTR
   \   000156   A3           INC     DPTR
   \   000157   A3           INC     DPTR
   \   000158   A3           INC     DPTR
   \   000159   E0           MOVX    A,@DPTR
   \   00015A   C4           SWAP    A
   \   00015B   54F0         ANL     A,#0xf0
   \   00015D   8E82         MOV     DPL,R6
   \   00015F   8F83         MOV     DPH,R7
   \   000161   F0           MOVX    @DPTR,A
   \   000162   8E82         MOV     DPL,R6
   \   000164   8F83         MOV     DPH,R7
   \   000166   A3           INC     DPTR
   \   000167   AE82         MOV     R6,DPL
   \   000169   AF83         MOV     R7,DPH
    857          
    858              *pBuf++ = pSimpleDesc->AppNumInClusters;
   \   00016B   85..82       MOV     DPL,?V0 + 0
   \   00016E   85..83       MOV     DPH,?V0 + 1
   \   000171   A3           INC     DPTR
   \   000172   A3           INC     DPTR
   \   000173   A3           INC     DPTR
   \   000174   A3           INC     DPTR
   \   000175   A3           INC     DPTR
   \   000176   A3           INC     DPTR
   \   000177   E0           MOVX    A,@DPTR
   \   000178   8E82         MOV     DPL,R6
   \   00017A   8F83         MOV     DPH,R7
   \   00017C   F0           MOVX    @DPTR,A
   \   00017D   8E82         MOV     DPL,R6
   \   00017F   8F83         MOV     DPH,R7
   \   000181   A3           INC     DPTR
   \   000182   AE82         MOV     R6,DPL
   \   000184   AF83         MOV     R7,DPH
    859              if ( pSimpleDesc->AppNumInClusters )
   \   000186   85..82       MOV     DPL,?V0 + 0
   \   000189   85..83       MOV     DPH,?V0 + 1
   \   00018C   A3           INC     DPTR
   \   00018D   A3           INC     DPTR
   \   00018E   A3           INC     DPTR
   \   00018F   A3           INC     DPTR
   \   000190   A3           INC     DPTR
   \   000191   A3           INC     DPTR
   \   000192   E0           MOVX    A,@DPTR
   \   000193   7003         JNZ     $+5
   \   000195   02....       LJMP    ??ZDP_SimpleDescMsg_5 & 0xFFFF
    860              {
    861                for (i=0; i<pSimpleDesc->AppNumInClusters; ++i)
   \   000198   75..00       MOV     ?V0 + 2,#0x0
   \                     ??ZDP_SimpleDescMsg_6:
   \   00019B   85..82       MOV     DPL,?V0 + 0
   \   00019E   85..83       MOV     DPH,?V0 + 1
   \   0001A1   A3           INC     DPTR
   \   0001A2   A3           INC     DPTR
   \   0001A3   A3           INC     DPTR
   \   0001A4   A3           INC     DPTR
   \   0001A5   A3           INC     DPTR
   \   0001A6   A3           INC     DPTR
   \   0001A7   E0           MOVX    A,@DPTR
   \   0001A8   F8           MOV     R0,A
   \   0001A9   E5..         MOV     A,?V0 + 2
   \   0001AB   C3           CLR     C
   \   0001AC   98           SUBB    A,R0
   \   0001AD   4003         JC      $+5
   \   0001AF   02....       LJMP    ??ZDP_SimpleDescMsg_5 & 0xFFFF
    862                {
    863                  *pBuf++ = LO_UINT16( pSimpleDesc->pAppInClusterList[i] );
   \   0001B2   E5..         MOV     A,?V0 + 2
   \   0001B4   A8..         MOV     R0,?V0 + 2
   \   0001B6   7900         MOV     R1,#0x0
   \   0001B8   E8           MOV     A,R0
   \   0001B9   75F002       MOV     B,#0x2
   \   0001BC   A4           MUL     AB
   \   0001BD   C8           XCH     A,R0
   \   0001BE   AAF0         MOV     R2,B
   \   0001C0   75F000       MOV     B,#0x0
   \   0001C3   A4           MUL     AB
   \   0001C4   2A           ADD     A,R2
   \   0001C5   FA           MOV     R2,A
   \   0001C6   75F002       MOV     B,#0x2
   \   0001C9   E9           MOV     A,R1
   \   0001CA   A4           MUL     AB
   \   0001CB   2A           ADD     A,R2
   \   0001CC   F9           MOV     R1,A
   \   0001CD   85..82       MOV     DPL,?V0 + 0
   \   0001D0   85..83       MOV     DPH,?V0 + 1
   \   0001D3   A3           INC     DPTR
   \   0001D4   A3           INC     DPTR
   \   0001D5   A3           INC     DPTR
   \   0001D6   A3           INC     DPTR
   \   0001D7   A3           INC     DPTR
   \   0001D8   A3           INC     DPTR
   \   0001D9   A3           INC     DPTR
   \   0001DA   E0           MOVX    A,@DPTR
   \   0001DB   28           ADD     A,R0
   \   0001DC   FA           MOV     R2,A
   \   0001DD   A3           INC     DPTR
   \   0001DE   E0           MOVX    A,@DPTR
   \   0001DF   39           ADDC    A,R1
   \   0001E0   8A82         MOV     DPL,R2
   \   0001E2   F583         MOV     DPH,A
   \   0001E4   E0           MOVX    A,@DPTR
   \   0001E5   F8           MOV     R0,A
   \   0001E6   A3           INC     DPTR
   \   0001E7   E0           MOVX    A,@DPTR
   \   0001E8   F9           MOV     R1,A
   \   0001E9   E8           MOV     A,R0
   \   0001EA   8E82         MOV     DPL,R6
   \   0001EC   8F83         MOV     DPH,R7
   \   0001EE   F0           MOVX    @DPTR,A
   \   0001EF   8E82         MOV     DPL,R6
   \   0001F1   8F83         MOV     DPH,R7
   \   0001F3   A3           INC     DPTR
   \   0001F4   AE82         MOV     R6,DPL
   \   0001F6   AF83         MOV     R7,DPH
    864                  *pBuf++ = HI_UINT16( pSimpleDesc->pAppInClusterList[i] );
   \   0001F8   E5..         MOV     A,?V0 + 2
   \   0001FA   A8..         MOV     R0,?V0 + 2
   \   0001FC   7900         MOV     R1,#0x0
   \   0001FE   E8           MOV     A,R0
   \   0001FF   75F002       MOV     B,#0x2
   \   000202   A4           MUL     AB
   \   000203   C8           XCH     A,R0
   \   000204   AAF0         MOV     R2,B
   \   000206   75F000       MOV     B,#0x0
   \   000209   A4           MUL     AB
   \   00020A   2A           ADD     A,R2
   \   00020B   FA           MOV     R2,A
   \   00020C   75F002       MOV     B,#0x2
   \   00020F   E9           MOV     A,R1
   \   000210   A4           MUL     AB
   \   000211   2A           ADD     A,R2
   \   000212   F9           MOV     R1,A
   \   000213   85..82       MOV     DPL,?V0 + 0
   \   000216   85..83       MOV     DPH,?V0 + 1
   \   000219   A3           INC     DPTR
   \   00021A   A3           INC     DPTR
   \   00021B   A3           INC     DPTR
   \   00021C   A3           INC     DPTR
   \   00021D   A3           INC     DPTR
   \   00021E   A3           INC     DPTR
   \   00021F   A3           INC     DPTR
   \   000220   E0           MOVX    A,@DPTR
   \   000221   28           ADD     A,R0
   \   000222   FA           MOV     R2,A
   \   000223   A3           INC     DPTR
   \   000224   E0           MOVX    A,@DPTR
   \   000225   39           ADDC    A,R1
   \   000226   8A82         MOV     DPL,R2
   \   000228   F583         MOV     DPH,A
   \   00022A   E0           MOVX    A,@DPTR
   \   00022B   F8           MOV     R0,A
   \   00022C   A3           INC     DPTR
   \   00022D   E0           MOVX    A,@DPTR
   \   00022E   F9           MOV     R1,A
   \   00022F   E4           CLR     A
   \   000230   E9           MOV     A,R1
   \   000231   F8           MOV     R0,A
   \   000232   8E82         MOV     DPL,R6
   \   000234   8F83         MOV     DPH,R7
   \   000236   F0           MOVX    @DPTR,A
   \   000237   8E82         MOV     DPL,R6
   \   000239   8F83         MOV     DPH,R7
   \   00023B   A3           INC     DPTR
   \   00023C   AE82         MOV     R6,DPL
   \   00023E   AF83         MOV     R7,DPH
    865                }
   \   000240   05..         INC     ?V0 + 2
   \   000242   02....       LJMP    ??ZDP_SimpleDescMsg_6 & 0xFFFF
    866              }
    867          
    868              *pBuf++ = pSimpleDesc->AppNumOutClusters;
   \                     ??ZDP_SimpleDescMsg_5:
   \   000245   85..82       MOV     DPL,?V0 + 0
   \   000248   85..83       MOV     DPH,?V0 + 1
   \   00024B   A3           INC     DPTR
   \   00024C   A3           INC     DPTR
   \   00024D   A3           INC     DPTR
   \   00024E   A3           INC     DPTR
   \   00024F   A3           INC     DPTR
   \   000250   A3           INC     DPTR
   \   000251   A3           INC     DPTR
   \   000252   A3           INC     DPTR
   \   000253   A3           INC     DPTR
   \   000254   E0           MOVX    A,@DPTR
   \   000255   8E82         MOV     DPL,R6
   \   000257   8F83         MOV     DPH,R7
   \   000259   F0           MOVX    @DPTR,A
   \   00025A   8E82         MOV     DPL,R6
   \   00025C   8F83         MOV     DPH,R7
   \   00025E   A3           INC     DPTR
   \   00025F   AE82         MOV     R6,DPL
   \   000261   AF83         MOV     R7,DPH
    869              if ( pSimpleDesc->AppNumOutClusters )
   \   000263   85..82       MOV     DPL,?V0 + 0
   \   000266   85..83       MOV     DPH,?V0 + 1
   \   000269   A3           INC     DPTR
   \   00026A   A3           INC     DPTR
   \   00026B   A3           INC     DPTR
   \   00026C   A3           INC     DPTR
   \   00026D   A3           INC     DPTR
   \   00026E   A3           INC     DPTR
   \   00026F   A3           INC     DPTR
   \   000270   A3           INC     DPTR
   \   000271   A3           INC     DPTR
   \   000272   E0           MOVX    A,@DPTR
   \   000273   7003         JNZ     $+5
   \   000275   02....       LJMP    ??ZDP_SimpleDescMsg_7 & 0xFFFF
    870              {
    871                for (i=0; i<pSimpleDesc->AppNumOutClusters; ++i)
   \   000278   75..00       MOV     ?V0 + 2,#0x0
   \                     ??ZDP_SimpleDescMsg_8:
   \   00027B   85..82       MOV     DPL,?V0 + 0
   \   00027E   85..83       MOV     DPH,?V0 + 1
   \   000281   A3           INC     DPTR
   \   000282   A3           INC     DPTR
   \   000283   A3           INC     DPTR
   \   000284   A3           INC     DPTR
   \   000285   A3           INC     DPTR
   \   000286   A3           INC     DPTR
   \   000287   A3           INC     DPTR
   \   000288   A3           INC     DPTR
   \   000289   A3           INC     DPTR
   \   00028A   E0           MOVX    A,@DPTR
   \   00028B   F8           MOV     R0,A
   \   00028C   E5..         MOV     A,?V0 + 2
   \   00028E   C3           CLR     C
   \   00028F   98           SUBB    A,R0
   \   000290   4003         JC      $+5
   \   000292   02....       LJMP    ??ZDP_SimpleDescMsg_7 & 0xFFFF
    872                {
    873                  *pBuf++ = LO_UINT16( pSimpleDesc->pAppOutClusterList[i] );
   \   000295   E5..         MOV     A,?V0 + 2
   \   000297   A8..         MOV     R0,?V0 + 2
   \   000299   7900         MOV     R1,#0x0
   \   00029B   E8           MOV     A,R0
   \   00029C   75F002       MOV     B,#0x2
   \   00029F   A4           MUL     AB
   \   0002A0   C8           XCH     A,R0
   \   0002A1   AAF0         MOV     R2,B
   \   0002A3   75F000       MOV     B,#0x0
   \   0002A6   A4           MUL     AB
   \   0002A7   2A           ADD     A,R2
   \   0002A8   FA           MOV     R2,A
   \   0002A9   75F002       MOV     B,#0x2
   \   0002AC   E9           MOV     A,R1
   \   0002AD   A4           MUL     AB
   \   0002AE   2A           ADD     A,R2
   \   0002AF   F9           MOV     R1,A
   \   0002B0   85..82       MOV     DPL,?V0 + 0
   \   0002B3   85..83       MOV     DPH,?V0 + 1
   \   0002B6   A3           INC     DPTR
   \   0002B7   A3           INC     DPTR
   \   0002B8   A3           INC     DPTR
   \   0002B9   A3           INC     DPTR
   \   0002BA   A3           INC     DPTR
   \   0002BB   A3           INC     DPTR
   \   0002BC   A3           INC     DPTR
   \   0002BD   A3           INC     DPTR
   \   0002BE   A3           INC     DPTR
   \   0002BF   A3           INC     DPTR
   \   0002C0   E0           MOVX    A,@DPTR
   \   0002C1   28           ADD     A,R0
   \   0002C2   FA           MOV     R2,A
   \   0002C3   A3           INC     DPTR
   \   0002C4   E0           MOVX    A,@DPTR
   \   0002C5   39           ADDC    A,R1
   \   0002C6   8A82         MOV     DPL,R2
   \   0002C8   F583         MOV     DPH,A
   \   0002CA   E0           MOVX    A,@DPTR
   \   0002CB   F8           MOV     R0,A
   \   0002CC   A3           INC     DPTR
   \   0002CD   E0           MOVX    A,@DPTR
   \   0002CE   F9           MOV     R1,A
   \   0002CF   E8           MOV     A,R0
   \   0002D0   8E82         MOV     DPL,R6
   \   0002D2   8F83         MOV     DPH,R7
   \   0002D4   F0           MOVX    @DPTR,A
   \   0002D5   8E82         MOV     DPL,R6
   \   0002D7   8F83         MOV     DPH,R7
   \   0002D9   A3           INC     DPTR
   \   0002DA   AE82         MOV     R6,DPL
   \   0002DC   AF83         MOV     R7,DPH
    874                  *pBuf++ = HI_UINT16( pSimpleDesc->pAppOutClusterList[i] );
   \   0002DE   E5..         MOV     A,?V0 + 2
   \   0002E0   A8..         MOV     R0,?V0 + 2
   \   0002E2   7900         MOV     R1,#0x0
   \   0002E4   E8           MOV     A,R0
   \   0002E5   75F002       MOV     B,#0x2
   \   0002E8   A4           MUL     AB
   \   0002E9   C8           XCH     A,R0
   \   0002EA   AAF0         MOV     R2,B
   \   0002EC   75F000       MOV     B,#0x0
   \   0002EF   A4           MUL     AB
   \   0002F0   2A           ADD     A,R2
   \   0002F1   FA           MOV     R2,A
   \   0002F2   75F002       MOV     B,#0x2
   \   0002F5   E9           MOV     A,R1
   \   0002F6   A4           MUL     AB
   \   0002F7   2A           ADD     A,R2
   \   0002F8   F9           MOV     R1,A
   \   0002F9   85..82       MOV     DPL,?V0 + 0
   \   0002FC   85..83       MOV     DPH,?V0 + 1
   \   0002FF   A3           INC     DPTR
   \   000300   A3           INC     DPTR
   \   000301   A3           INC     DPTR
   \   000302   A3           INC     DPTR
   \   000303   A3           INC     DPTR
   \   000304   A3           INC     DPTR
   \   000305   A3           INC     DPTR
   \   000306   A3           INC     DPTR
   \   000307   A3           INC     DPTR
   \   000308   A3           INC     DPTR
   \   000309   E0           MOVX    A,@DPTR
   \   00030A   28           ADD     A,R0
   \   00030B   FA           MOV     R2,A
   \   00030C   A3           INC     DPTR
   \   00030D   E0           MOVX    A,@DPTR
   \   00030E   39           ADDC    A,R1
   \   00030F   8A82         MOV     DPL,R2
   \   000311   F583         MOV     DPH,A
   \   000313   E0           MOVX    A,@DPTR
   \   000314   F8           MOV     R0,A
   \   000315   A3           INC     DPTR
   \   000316   E0           MOVX    A,@DPTR
   \   000317   F9           MOV     R1,A
   \   000318   E4           CLR     A
   \   000319   E9           MOV     A,R1
   \   00031A   F8           MOV     R0,A
   \   00031B   8E82         MOV     DPL,R6
   \   00031D   8F83         MOV     DPH,R7
   \   00031F   F0           MOVX    @DPTR,A
   \   000320   8E82         MOV     DPL,R6
   \   000322   8F83         MOV     DPH,R7
   \   000324   A3           INC     DPTR
   \   000325   AE82         MOV     R6,DPL
   \   000327   AF83         MOV     R7,DPH
    875                }
   \   000329   05..         INC     ?V0 + 2
   \   00032B   02....       LJMP    ??ZDP_SimpleDescMsg_8 & 0xFFFF
    876              }
    877            }
    878          
    879            else
    880            {
    881              *pBuf = 0; // Description Length = 0;
   \                     ??ZDP_SimpleDescMsg_4:
   \   00032E   8E82         MOV     DPL,R6
   \   000330   8F83         MOV     DPH,R7
   \   000332   7400         MOV     A,#0x0
   \   000334   F0           MOVX    @DPTR,A
    882            }
    883          
    884            return fillAndSend( &(inMsg->TransSeq), &(inMsg->srcAddr), Simple_Desc_rsp, len );
   \                     ??ZDP_SimpleDescMsg_7:
   \   000335                ; Setup parameters for call to function fillAndSend
   \   000335   75..04       MOV     ?V0 + 8,#0x4
   \   000338   75..80       MOV     ?V0 + 9,#-0x80
   \   00033B   78..         MOV     R0,#?V0 + 8
   \   00033D   12....       LCALL   ?PUSH_XSTACK_I_TWO
   \   000340   A9..         MOV     R1,?V0 + 3
   \   000342   E5..         MOV     A,?V0 + 4
   \   000344   2402         ADD     A,#0x2
   \   000346   FC           MOV     R4,A
   \   000347   E5..         MOV     A,?V0 + 5
   \   000349   3400         ADDC    A,#0x0
   \   00034B   FD           MOV     R5,A
   \   00034C   E5..         MOV     A,?V0 + 4
   \   00034E   240F         ADD     A,#0xf
   \   000350   FA           MOV     R2,A
   \   000351   E5..         MOV     A,?V0 + 5
   \   000353   3400         ADDC    A,#0x0
   \   000355   FB           MOV     R3,A
   \   000356   12....       LCALL   ??fillAndSend?relay
   \   000359   7402         MOV     A,#0x2
   \   00035B   12....       LCALL   ?DEALLOC_XSTACK8
   \                     ??ZDP_SimpleDescMsg_3:
   \   00035E   7F0A         MOV     R7,#0xa
   \   000360   02....       LJMP    ?BANKED_LEAVE_XDATA
    885          }
    886          
    887          /*********************************************************************
    888           * @fn          ZDP_EPRsp
    889           *
    890           * @brief       This builds and send an endpoint list. Used in
    891           *              Active_EP_rsp and Match_Desc_Rsp
    892           *              message.  This function sends unicast message to the
    893           *              requesting device.
    894           *
    895           * @param       MsgType - either Active_EP_rsp or Match_Desc_Rsp
    896           * @param       dstAddr - destination address
    897           * @param       Status - message status (ZDP_SUCCESS or other)
    898           * @param       nwkAddr - Device's short address that this response describes
    899           * @param       Count - number of endpoint/interfaces in list
    900           * @param       pEPIntfList - Array of Endpoint/Interfaces
    901           * @param       SecurityEnable - Security Options
    902           *
    903           * @return      afStatus_t
    904           */

   \                                 In  segment BANKED_CODE, align 1, keep-with-next
    905          afStatus_t ZDP_EPRsp( uint16 MsgType, byte TransSeq, zAddrType_t *dstAddr,
   \                     ZDP_EPRsp:
    906                                  byte Status, uint16 nwkAddr, byte Count,
    907                                  uint8 *pEPList,
    908                                  byte SecurityEnable )
    909          {
   \   000000   74E8         MOV     A,#-0x18
   \   000002   12....       LCALL   ?BANKED_ENTER_XDATA
   \   000005                ; Saved register size: 24
   \   000005                ; Auto size: 1
   \   000005   74FF         MOV     A,#-0x1
   \   000007   12....       LCALL   ?ALLOC_XSTACK8
   \   00000A   E9           MOV     A,R1
   \   00000B   85..82       MOV     DPL,?XSP + 0
   \   00000E   85..83       MOV     DPH,?XSP + 1
   \   000011   F0           MOVX    @DPTR,A
   \   000012   8A..         MOV     ?V0 + 2,R2
   \   000014   8B..         MOV     ?V0 + 3,R3
   \   000016   8C..         MOV     ?V0 + 14,R4
   \   000018   8D..         MOV     ?V0 + 15,R5
   \   00001A   7419         MOV     A,#0x19
   \   00001C   12....       LCALL   ?XSTACK_DISP0_8
   \   00001F   E0           MOVX    A,@DPTR
   \   000020   F5..         MOV     ?V0 + 10,A
   \   000022   741A         MOV     A,#0x1a
   \   000024   12....       LCALL   ?XSTACK_DISP0_8
   \   000027   E0           MOVX    A,@DPTR
   \   000028   F5..         MOV     ?V0 + 0,A
   \   00002A   A3           INC     DPTR
   \   00002B   E0           MOVX    A,@DPTR
   \   00002C   F5..         MOV     ?V0 + 1,A
   \   00002E   741C         MOV     A,#0x1c
   \   000030   12....       LCALL   ?XSTACK_DISP0_8
   \   000033   E0           MOVX    A,@DPTR
   \   000034   F5..         MOV     ?V0 + 7,A
   \   000036   741D         MOV     A,#0x1d
   \   000038   12....       LCALL   ?XSTACK_DISP0_8
   \   00003B   E0           MOVX    A,@DPTR
   \   00003C   F5..         MOV     ?V0 + 12,A
   \   00003E   A3           INC     DPTR
   \   00003F   E0           MOVX    A,@DPTR
   \   000040   F5..         MOV     ?V0 + 13,A
   \   000042   741F         MOV     A,#0x1f
   \   000044   12....       LCALL   ?XSTACK_DISP0_8
   \   000047   E0           MOVX    A,@DPTR
   \   000048   F5..         MOV     ?V0 + 11,A
    910            uint8 *pBuf = ZDP_TmpBuf;
   \   00004A   90....       MOV     DPTR,#ZDP_TmpBuf
   \   00004D   E0           MOVX    A,@DPTR
   \   00004E   FE           MOV     R6,A
   \   00004F   A3           INC     DPTR
   \   000050   E0           MOVX    A,@DPTR
   \   000051   FF           MOV     R7,A
    911            byte len = 1 + 2 + 1;  // Status + nwkAddr + endpoint/interface count.
   \   000052   75..04       MOV     ?V0 + 9,#0x4
    912            byte txOptions;
    913          
    914            (void)SecurityEnable;  // Intentionally unreferenced parameter
    915          
    916            if ( MsgType == Match_Desc_rsp )
   \   000055   7406         MOV     A,#0x6
   \   000057   65..         XRL     A,?V0 + 2
   \   000059   7004         JNZ     ??ZDP_EPRsp_0
   \   00005B   7480         MOV     A,#-0x80
   \   00005D   65..         XRL     A,?V0 + 3
   \                     ??ZDP_EPRsp_0:
   \   00005F   7005         JNZ     ??ZDP_EPRsp_1
    917              txOptions = AF_MSG_ACK_REQUEST;
   \   000061   75..10       MOV     ?V0 + 8,#0x10
   \   000064   8003         SJMP    ??ZDP_EPRsp_2
    918            else
    919              txOptions = 0;
   \                     ??ZDP_EPRsp_1:
   \   000066   75..00       MOV     ?V0 + 8,#0x0
    920          
    921              *pBuf++ = Status;
   \                     ??ZDP_EPRsp_2:
   \   000069   E5..         MOV     A,?V0 + 10
   \   00006B   8E82         MOV     DPL,R6
   \   00006D   8F83         MOV     DPH,R7
   \   00006F   E5..         MOV     A,?V0 + 10
   \   000071   F0           MOVX    @DPTR,A
   \   000072   8E82         MOV     DPL,R6
   \   000074   8F83         MOV     DPH,R7
   \   000076   A3           INC     DPTR
   \   000077   AE82         MOV     R6,DPL
   \   000079   AF83         MOV     R7,DPH
    922            *pBuf++ = LO_UINT16( nwkAddr );
   \   00007B   E5..         MOV     A,?V0 + 0
   \   00007D   8E82         MOV     DPL,R6
   \   00007F   8F83         MOV     DPH,R7
   \   000081   E5..         MOV     A,?V0 + 0
   \   000083   F0           MOVX    @DPTR,A
   \   000084   8E82         MOV     DPL,R6
   \   000086   8F83         MOV     DPH,R7
   \   000088   A3           INC     DPTR
   \   000089   AE82         MOV     R6,DPL
   \   00008B   AF83         MOV     R7,DPH
    923            *pBuf++ = HI_UINT16( nwkAddr );
   \   00008D   A8..         MOV     R0,?V0 + 0
   \   00008F   A9..         MOV     R1,?V0 + 1
   \   000091   E4           CLR     A
   \   000092   E5..         MOV     A,?V0 + 1
   \   000094   A8..         MOV     R0,?V0 + 1
   \   000096   E5..         MOV     A,?V0 + 1
   \   000098   8E82         MOV     DPL,R6
   \   00009A   8F83         MOV     DPH,R7
   \   00009C   E5..         MOV     A,?V0 + 1
   \   00009E   F0           MOVX    @DPTR,A
   \   00009F   8E82         MOV     DPL,R6
   \   0000A1   8F83         MOV     DPH,R7
   \   0000A3   A3           INC     DPTR
   \   0000A4   AE82         MOV     R6,DPL
   \   0000A6   AF83         MOV     R7,DPH
    924          
    925            *pBuf++ = Count;   // Endpoint/Interface count
   \   0000A8   E5..         MOV     A,?V0 + 7
   \   0000AA   8E82         MOV     DPL,R6
   \   0000AC   8F83         MOV     DPH,R7
   \   0000AE   E5..         MOV     A,?V0 + 7
   \   0000B0   F0           MOVX    @DPTR,A
   \   0000B1   8E82         MOV     DPL,R6
   \   0000B3   8F83         MOV     DPH,R7
   \   0000B5   A3           INC     DPTR
   \   0000B6   AE82         MOV     R6,DPL
   \   0000B8   AF83         MOV     R7,DPH
    926          
    927            if ( Count )
   \   0000BA   E5..         MOV     A,?V0 + 7
   \   0000BC   602A         JZ      ??ZDP_EPRsp_3
    928            {
    929              len += Count;
   \   0000BE   E5..         MOV     A,?V0 + 7
   \   0000C0   25..         ADD     A,?V0 + 9
   \   0000C2   F5..         MOV     ?V0 + 9,A
    930              osal_memcpy( pBuf, pEPList, Count );
   \   0000C4                ; Setup parameters for call to function osal_memcpy
   \   0000C4   85....       MOV     ?V0 + 4,?V0 + 12
   \   0000C7   85....       MOV     ?V0 + 5,?V0 + 13
   \   0000CA   75..00       MOV     ?V0 + 6,#0x0
   \   0000CD   78..         MOV     R0,#?V0 + 4
   \   0000CF   12....       LCALL   ?PUSH_XSTACK_I_THREE
   \   0000D2   85....       MOV     ?V0 + 4,?V0 + 7
   \   0000D5   75..00       MOV     ?V0 + 5,#0x0
   \   0000D8   AC..         MOV     R4,?V0 + 4
   \   0000DA   AD..         MOV     R5,?V0 + 5
   \   0000DC   EE           MOV     A,R6
   \   0000DD   FA           MOV     R2,A
   \   0000DE   EF           MOV     A,R7
   \   0000DF   FB           MOV     R3,A
   \   0000E0   12....       LCALL   ??osal_memcpy?relay
   \   0000E3   7403         MOV     A,#0x3
   \   0000E5   12....       LCALL   ?DEALLOC_XSTACK8
    931            }
    932          
    933            FillAndSendTxOptions( &TransSeq, dstAddr, MsgType, len, txOptions );
   \                     ??ZDP_EPRsp_3:
   \   0000E8   E5..         MOV     A,?V0 + 8
   \   0000EA   90....       MOV     DPTR,#ZDP_TxOptions
   \   0000ED   F0           MOVX    @DPTR,A
   \   0000EE                ; Setup parameters for call to function fillAndSend
   \   0000EE   78..         MOV     R0,#?V0 + 2
   \   0000F0   12....       LCALL   ?PUSH_XSTACK_I_TWO
   \   0000F3   A9..         MOV     R1,?V0 + 9
   \   0000F5   AC..         MOV     R4,?V0 + 14
   \   0000F7   AD..         MOV     R5,?V0 + 15
   \   0000F9   7402         MOV     A,#0x2
   \   0000FB   12....       LCALL   ?XSTACK_DISP0_8
   \   0000FE   AA82         MOV     R2,DPL
   \   000100   AB83         MOV     R3,DPH
   \   000102   12....       LCALL   ??fillAndSend?relay
   \   000105   7402         MOV     A,#0x2
   \   000107   12....       LCALL   ?DEALLOC_XSTACK8
   \   00010A   E9           MOV     A,R1
   \   00010B   F5..         MOV     ?V0 + 4,A
   \   00010D   90....       MOV     DPTR,#ZDP_TxOptions
   \   000110   7400         MOV     A,#0x0
   \   000112   F0           MOVX    @DPTR,A
   \   000113   A9..         MOV     R1,?V0 + 4
   \   000115   7401         MOV     A,#0x1
   \   000117   12....       LCALL   ?DEALLOC_XSTACK8
   \   00011A   7F10         MOV     R7,#0x10
   \   00011C   02....       LJMP    ?BANKED_LEAVE_XDATA
    934          }
    935          
    936          /*********************************************************************
    937           * @fn          ZDP_UserDescRsp
    938           *
    939           * @brief       Build and send the User Decriptor Response.
    940           *
    941           *
    942           * @param       dstAddr - destination address
    943           * @param       nwkAddrOfInterest -
    944           * @param       userDesc -
    945           * @param       SecurityEnable - Security Options
    946           *
    947           * @return      ZStatus_t
    948           */

   \                                 In  segment BANKED_CODE, align 1, keep-with-next
    949          ZStatus_t ZDP_UserDescRsp( byte TransSeq, zAddrType_t *dstAddr,
   \                     ZDP_UserDescRsp:
    950                          uint16 nwkAddrOfInterest, UserDescriptorFormat_t *userDesc,
    951                          byte SecurityEnable )
    952          {
   \   000000   74EC         MOV     A,#-0x14
   \   000002   12....       LCALL   ?BANKED_ENTER_XDATA
   \   000005                ; Saved register size: 20
   \   000005                ; Auto size: 1
   \   000005   74FF         MOV     A,#-0x1
   \   000007   12....       LCALL   ?ALLOC_XSTACK8
   \   00000A   E9           MOV     A,R1
   \   00000B   85..82       MOV     DPL,?XSP + 0
   \   00000E   85..83       MOV     DPH,?XSP + 1
   \   000011   F0           MOVX    @DPTR,A
   \   000012   8A..         MOV     ?V0 + 10,R2
   \   000014   8B..         MOV     ?V0 + 11,R3
   \   000016   8C..         MOV     ?V0 + 0,R4
   \   000018   8D..         MOV     ?V0 + 1,R5
   \   00001A   7415         MOV     A,#0x15
   \   00001C   12....       LCALL   ?XSTACK_DISP0_8
   \   00001F   E0           MOVX    A,@DPTR
   \   000020   F5..         MOV     ?V0 + 8,A
   \   000022   A3           INC     DPTR
   \   000023   E0           MOVX    A,@DPTR
   \   000024   F5..         MOV     ?V0 + 9,A
   \   000026   7417         MOV     A,#0x17
   \   000028   12....       LCALL   ?XSTACK_DISP0_8
   \   00002B   E0           MOVX    A,@DPTR
   \   00002C   F5..         MOV     ?V0 + 3,A
    953            uint8 *pBuf = ZDP_TmpBuf;
   \   00002E   90....       MOV     DPTR,#ZDP_TmpBuf
   \   000031   E0           MOVX    A,@DPTR
   \   000032   FE           MOV     R6,A
   \   000033   A3           INC     DPTR
   \   000034   E0           MOVX    A,@DPTR
   \   000035   FF           MOV     R7,A
    954            byte len = 1 + 2 + 1;  // Status + nwkAddr + descriptor length.
   \   000036   75..04       MOV     ?V0 + 2,#0x4
    955          
    956            (void)SecurityEnable;  // Intentionally unreferenced parameter
    957          
    958            len += userDesc->len;
   \   000039   85..82       MOV     DPL,?V0 + 8
   \   00003C   85..83       MOV     DPH,?V0 + 9
   \   00003F   E0           MOVX    A,@DPTR
   \   000040   25..         ADD     A,?V0 + 2
   \   000042   F5..         MOV     ?V0 + 2,A
    959          
    960            *pBuf++ = ZSUCCESS;
   \   000044   8E82         MOV     DPL,R6
   \   000046   8F83         MOV     DPH,R7
   \   000048   7400         MOV     A,#0x0
   \   00004A   F0           MOVX    @DPTR,A
   \   00004B   8E82         MOV     DPL,R6
   \   00004D   8F83         MOV     DPH,R7
   \   00004F   A3           INC     DPTR
   \   000050   AE82         MOV     R6,DPL
   \   000052   AF83         MOV     R7,DPH
    961          
    962            *pBuf++ = LO_UINT16( nwkAddrOfInterest );
   \   000054   E5..         MOV     A,?V0 + 0
   \   000056   8E82         MOV     DPL,R6
   \   000058   8F83         MOV     DPH,R7
   \   00005A   E5..         MOV     A,?V0 + 0
   \   00005C   F0           MOVX    @DPTR,A
   \   00005D   8E82         MOV     DPL,R6
   \   00005F   8F83         MOV     DPH,R7
   \   000061   A3           INC     DPTR
   \   000062   AE82         MOV     R6,DPL
   \   000064   AF83         MOV     R7,DPH
    963            *pBuf++ = HI_UINT16( nwkAddrOfInterest );
   \   000066   A8..         MOV     R0,?V0 + 0
   \   000068   A9..         MOV     R1,?V0 + 1
   \   00006A   E4           CLR     A
   \   00006B   E5..         MOV     A,?V0 + 1
   \   00006D   A8..         MOV     R0,?V0 + 1
   \   00006F   E5..         MOV     A,?V0 + 1
   \   000071   8E82         MOV     DPL,R6
   \   000073   8F83         MOV     DPH,R7
   \   000075   E5..         MOV     A,?V0 + 1
   \   000077   F0           MOVX    @DPTR,A
   \   000078   8E82         MOV     DPL,R6
   \   00007A   8F83         MOV     DPH,R7
   \   00007C   A3           INC     DPTR
   \   00007D   AE82         MOV     R6,DPL
   \   00007F   AF83         MOV     R7,DPH
    964          
    965            *pBuf++ = userDesc->len;
   \   000081   85..82       MOV     DPL,?V0 + 8
   \   000084   85..83       MOV     DPH,?V0 + 9
   \   000087   E0           MOVX    A,@DPTR
   \   000088   8E82         MOV     DPL,R6
   \   00008A   8F83         MOV     DPH,R7
   \   00008C   F0           MOVX    @DPTR,A
   \   00008D   8E82         MOV     DPL,R6
   \   00008F   8F83         MOV     DPH,R7
   \   000091   A3           INC     DPTR
   \   000092   AE82         MOV     R6,DPL
   \   000094   AF83         MOV     R7,DPH
    966            osal_memcpy( pBuf, userDesc->desc, userDesc->len );
   \   000096                ; Setup parameters for call to function osal_memcpy
   \   000096   85..82       MOV     DPL,?V0 + 8
   \   000099   85..83       MOV     DPH,?V0 + 9
   \   00009C   A3           INC     DPTR
   \   00009D   A982         MOV     R1,DPL
   \   00009F   AA83         MOV     R2,DPH
   \   0000A1   7B00         MOV     R3,#0x0
   \   0000A3   89..         MOV     ?V0 + 4,R1
   \   0000A5   8A..         MOV     ?V0 + 5,R2
   \   0000A7   8B..         MOV     ?V0 + 6,R3
   \   0000A9   78..         MOV     R0,#?V0 + 4
   \   0000AB   12....       LCALL   ?PUSH_XSTACK_I_THREE
   \   0000AE   85..82       MOV     DPL,?V0 + 8
   \   0000B1   85..83       MOV     DPH,?V0 + 9
   \   0000B4   E0           MOVX    A,@DPTR
   \   0000B5   FC           MOV     R4,A
   \   0000B6   7D00         MOV     R5,#0x0
   \   0000B8   EE           MOV     A,R6
   \   0000B9   FA           MOV     R2,A
   \   0000BA   EF           MOV     A,R7
   \   0000BB   FB           MOV     R3,A
   \   0000BC   12....       LCALL   ??osal_memcpy?relay
   \   0000BF   7403         MOV     A,#0x3
   \   0000C1   12....       LCALL   ?DEALLOC_XSTACK8
    967          
    968            return (ZStatus_t)fillAndSend( &TransSeq, dstAddr, User_Desc_rsp, len );
   \   0000C4                ; Setup parameters for call to function fillAndSend
   \   0000C4   75..11       MOV     ?V0 + 4,#0x11
   \   0000C7   75..80       MOV     ?V0 + 5,#-0x80
   \   0000CA   78..         MOV     R0,#?V0 + 4
   \   0000CC   12....       LCALL   ?PUSH_XSTACK_I_TWO
   \   0000CF   A9..         MOV     R1,?V0 + 2
   \   0000D1   AC..         MOV     R4,?V0 + 10
   \   0000D3   AD..         MOV     R5,?V0 + 11
   \   0000D5   7402         MOV     A,#0x2
   \   0000D7   12....       LCALL   ?XSTACK_DISP0_8
   \   0000DA   AA82         MOV     R2,DPL
   \   0000DC   AB83         MOV     R3,DPH
   \   0000DE   12....       LCALL   ??fillAndSend?relay
   \   0000E1   7402         MOV     A,#0x2
   \   0000E3   12....       LCALL   ?DEALLOC_XSTACK8
   \   0000E6   7401         MOV     A,#0x1
   \   0000E8   12....       LCALL   ?DEALLOC_XSTACK8
   \   0000EB   7F0C         MOV     R7,#0xc
   \   0000ED   02....       LJMP    ?BANKED_LEAVE_XDATA
    969          }
    970          
    971          /*********************************************************************
    972           * @fn          ZDP_ServerDiscRsp
    973           *
    974           * @brief       Build and send the Server_Discovery_rsp response.
    975           *
    976           * @param       transID - Transaction sequence number of request.
    977           * @param       dstAddr - Network Destination Address.
    978           * @param       status - Status of response to request.
    979           * @param       aoi - Network Address of Interest of request.
    980           * @param       serverMask - Bit map of service(s) being sought.
    981           * @param       SecurityEnable - Security Options
    982           *
    983           * @return      ZStatus_t
    984           */

   \                                 In  segment BANKED_CODE, align 1, keep-with-next
    985          ZStatus_t ZDP_ServerDiscRsp( byte transID, zAddrType_t *dstAddr, byte status,
   \                     ZDP_ServerDiscRsp:
    986                                     uint16 aoi, uint16 serverMask, byte SecurityEnable )
    987          {
   \   000000   74EC         MOV     A,#-0x14
   \   000002   12....       LCALL   ?BANKED_ENTER_XDATA
   \   000005                ; Saved register size: 20
   \   000005                ; Auto size: 1
   \   000005   74FF         MOV     A,#-0x1
   \   000007   12....       LCALL   ?ALLOC_XSTACK8
   \   00000A   E9           MOV     A,R1
   \   00000B   85..82       MOV     DPL,?XSP + 0
   \   00000E   85..83       MOV     DPH,?XSP + 1
   \   000011   F0           MOVX    @DPTR,A
   \   000012   8A..         MOV     ?V0 + 6,R2
   \   000014   8B..         MOV     ?V0 + 7,R3
   \   000016   8C..         MOV     ?V0 + 3,R4
   \   000018   8D..         MOV     ?V0 + 5,R5
   \   00001A   7415         MOV     A,#0x15
   \   00001C   12....       LCALL   ?XSTACK_DISP0_8
   \   00001F   E0           MOVX    A,@DPTR
   \   000020   F5..         MOV     ?V0 + 10,A
   \   000022   A3           INC     DPTR
   \   000023   E0           MOVX    A,@DPTR
   \   000024   F5..         MOV     ?V0 + 11,A
   \   000026   7417         MOV     A,#0x17
   \   000028   12....       LCALL   ?XSTACK_DISP0_8
   \   00002B   E0           MOVX    A,@DPTR
   \   00002C   F5..         MOV     ?V0 + 0,A
   \   00002E   A3           INC     DPTR
   \   00002F   E0           MOVX    A,@DPTR
   \   000030   F5..         MOV     ?V0 + 1,A
    988            const byte len = 1  + 2;  // status + aoi + mask.
   \   000032   75..03       MOV     ?V0 + 4,#0x3
    989            uint8 *pBuf = ZDP_TmpBuf;
   \   000035   90....       MOV     DPTR,#ZDP_TmpBuf
   \   000038   E0           MOVX    A,@DPTR
   \   000039   FE           MOV     R6,A
   \   00003A   A3           INC     DPTR
   \   00003B   E0           MOVX    A,@DPTR
   \   00003C   FF           MOV     R7,A
    990            ZStatus_t stat;
    991          
    992            // Intentionally unreferenced parameters
    993            (void)aoi;
    994            (void)SecurityEnable;
    995          
    996            *pBuf++ = status;
   \   00003D   E5..         MOV     A,?V0 + 3
   \   00003F   8E82         MOV     DPL,R6
   \   000041   8F83         MOV     DPH,R7
   \   000043   E5..         MOV     A,?V0 + 3
   \   000045   F0           MOVX    @DPTR,A
   \   000046   8E82         MOV     DPL,R6
   \   000048   8F83         MOV     DPH,R7
   \   00004A   A3           INC     DPTR
   \   00004B   AE82         MOV     R6,DPL
   \   00004D   AF83         MOV     R7,DPH
    997          
    998            *pBuf++ = LO_UINT16( serverMask );
   \   00004F   E5..         MOV     A,?V0 + 0
   \   000051   8E82         MOV     DPL,R6
   \   000053   8F83         MOV     DPH,R7
   \   000055   E5..         MOV     A,?V0 + 0
   \   000057   F0           MOVX    @DPTR,A
   \   000058   8E82         MOV     DPL,R6
   \   00005A   8F83         MOV     DPH,R7
   \   00005C   A3           INC     DPTR
   \   00005D   AE82         MOV     R6,DPL
   \   00005F   AF83         MOV     R7,DPH
    999            *pBuf++ = HI_UINT16( serverMask );
   \   000061   A8..         MOV     R0,?V0 + 0
   \   000063   A9..         MOV     R1,?V0 + 1
   \   000065   E4           CLR     A
   \   000066   E5..         MOV     A,?V0 + 1
   \   000068   A8..         MOV     R0,?V0 + 1
   \   00006A   E5..         MOV     A,?V0 + 1
   \   00006C   8E82         MOV     DPL,R6
   \   00006E   8F83         MOV     DPH,R7
   \   000070   E5..         MOV     A,?V0 + 1
   \   000072   F0           MOVX    @DPTR,A
   \   000073   8E82         MOV     DPL,R6
   \   000075   8F83         MOV     DPH,R7
   \   000077   A3           INC     DPTR
   \   000078   AE82         MOV     R6,DPL
   \   00007A   AF83         MOV     R7,DPH
   1000          
   1001            ZDP_TxOptions = AF_MSG_ACK_REQUEST;
   \   00007C   90....       MOV     DPTR,#ZDP_TxOptions
   \   00007F   7410         MOV     A,#0x10
   \   000081   F0           MOVX    @DPTR,A
   1002            stat = fillAndSend( &transID, dstAddr, Server_Discovery_rsp, len );
   \   000082                ; Setup parameters for call to function fillAndSend
   \   000082   75..15       MOV     ?V0 + 8,#0x15
   \   000085   75..80       MOV     ?V0 + 9,#-0x80
   \   000088   78..         MOV     R0,#?V0 + 8
   \   00008A   12....       LCALL   ?PUSH_XSTACK_I_TWO
   \   00008D   A9..         MOV     R1,?V0 + 4
   \   00008F   AC..         MOV     R4,?V0 + 6
   \   000091   AD..         MOV     R5,?V0 + 7
   \   000093   7402         MOV     A,#0x2
   \   000095   12....       LCALL   ?XSTACK_DISP0_8
   \   000098   AA82         MOV     R2,DPL
   \   00009A   AB83         MOV     R3,DPH
   \   00009C   12....       LCALL   ??fillAndSend?relay
   \   00009F   7402         MOV     A,#0x2
   \   0000A1   12....       LCALL   ?DEALLOC_XSTACK8
   \   0000A4   E9           MOV     A,R1
   \   0000A5   F5..         MOV     ?V0 + 2,A
   1003            ZDP_TxOptions = AF_TX_OPTIONS_NONE;
   \   0000A7   90....       MOV     DPTR,#ZDP_TxOptions
   \   0000AA   7400         MOV     A,#0x0
   \   0000AC   F0           MOVX    @DPTR,A
   1004          
   1005            return ( stat );
   \   0000AD   A9..         MOV     R1,?V0 + 2
   \   0000AF   7401         MOV     A,#0x1
   \   0000B1   12....       LCALL   ?DEALLOC_XSTACK8
   \   0000B4   7F0C         MOV     R7,#0xc
   \   0000B6   02....       LJMP    ?BANKED_LEAVE_XDATA
   1006          }
   1007          
   1008          /*********************************************************************
   1009           * @fn          ZDP_GenericRsp
   1010           *
   1011           * @brief       Sends a response message with only the parameter status
   1012           *              byte and the addr of interest for data.
   1013           *              This function sends unicast message to the
   1014           *              requesting device.
   1015           *
   1016           * @param       dstAddr - destination address
   1017           * @param       status  - generic status for response
   1018           * @param       aoi     - address of interest
   1019           * @param       dstAddr - destination address
   1020           * @param       rspId   - response cluster ID
   1021           * @param       SecurityEnable - Security Options
   1022           *
   1023           * @return      afStatus_t
   1024           */

   \                                 In  segment BANKED_CODE, align 1, keep-with-next
   1025          afStatus_t ZDP_GenericRsp( byte TransSeq, zAddrType_t *dstAddr,
   \                     ZDP_GenericRsp:
   1026                               byte status, uint16 aoi, uint16 rspID, byte SecurityEnable )
   1027          {
   \   000000   74F0         MOV     A,#-0x10
   \   000002   12....       LCALL   ?BANKED_ENTER_XDATA
   \   000005                ; Saved register size: 16
   \   000005                ; Auto size: 1
   \   000005   74FF         MOV     A,#-0x1
   \   000007   12....       LCALL   ?ALLOC_XSTACK8
   \   00000A   E9           MOV     A,R1
   \   00000B   85..82       MOV     DPL,?XSP + 0
   \   00000E   85..83       MOV     DPH,?XSP + 1
   \   000011   F0           MOVX    @DPTR,A
   \   000012   8A..         MOV     ?V0 + 0,R2
   \   000014   8B..         MOV     ?V0 + 1,R3
   \   000016   8C..         MOV     ?V0 + 3,R4
   \   000018   8D..         MOV     ?V0 + 2,R5
   \   00001A   7411         MOV     A,#0x11
   \   00001C   12....       LCALL   ?XSTACK_DISP0_8
   \   00001F   E0           MOVX    A,@DPTR
   \   000020   FE           MOV     R6,A
   \   000021   A3           INC     DPTR
   \   000022   E0           MOVX    A,@DPTR
   \   000023   FF           MOV     R7,A
   \   000024   7413         MOV     A,#0x13
   \   000026   12....       LCALL   ?XSTACK_DISP0_8
   \   000029   E0           MOVX    A,@DPTR
   \   00002A   F5..         MOV     ?V0 + 6,A
   \   00002C   A3           INC     DPTR
   \   00002D   E0           MOVX    A,@DPTR
   \   00002E   F5..         MOV     ?V0 + 7,A
   1028            uint8 len;
   1029          
   1030            (void)SecurityEnable;  // Intentionally unreferenced parameter
   1031          
   1032            ZDP_TmpBuf[0] = status;
   \   000030   E5..         MOV     A,?V0 + 3
   \   000032   90....       MOV     DPTR,#ZDP_TmpBuf
   \   000035   E0           MOVX    A,@DPTR
   \   000036   F8           MOV     R0,A
   \   000037   A3           INC     DPTR
   \   000038   E0           MOVX    A,@DPTR
   \   000039   F583         MOV     DPH,A
   \   00003B   8882         MOV     DPL,R0
   \   00003D   E5..         MOV     A,?V0 + 3
   \   00003F   F0           MOVX    @DPTR,A
   1033            ZDP_TmpBuf[1] = LO_UINT16( aoi );
   \   000040   EE           MOV     A,R6
   \   000041   C0E0         PUSH    A
   \   000043   90....       MOV     DPTR,#ZDP_TmpBuf
   \   000046   E0           MOVX    A,@DPTR
   \   000047   F8           MOV     R0,A
   \   000048   A3           INC     DPTR
   \   000049   E0           MOVX    A,@DPTR
   \   00004A   F583         MOV     DPH,A
   \   00004C   8882         MOV     DPL,R0
   \   00004E   A3           INC     DPTR
   \   00004F   D0E0         POP     A
   \   000051   F0           MOVX    @DPTR,A
   1034            ZDP_TmpBuf[2] = HI_UINT16( aoi );
   \   000052   EE           MOV     A,R6
   \   000053   F8           MOV     R0,A
   \   000054   EF           MOV     A,R7
   \   000055   F9           MOV     R1,A
   \   000056   E4           CLR     A
   \   000057   E9           MOV     A,R1
   \   000058   F8           MOV     R0,A
   \   000059   C0E0         PUSH    A
   \   00005B   90....       MOV     DPTR,#ZDP_TmpBuf
   \   00005E   E0           MOVX    A,@DPTR
   \   00005F   F8           MOV     R0,A
   \   000060   A3           INC     DPTR
   \   000061   E0           MOVX    A,@DPTR
   \   000062   F583         MOV     DPH,A
   \   000064   8882         MOV     DPL,R0
   \   000066   A3           INC     DPTR
   \   000067   A3           INC     DPTR
   \   000068   D0E0         POP     A
   \   00006A   F0           MOVX    @DPTR,A
   1035          
   1036            // Length byte
   1037            ZDP_TmpBuf[3] = 0;
   \   00006B   90....       MOV     DPTR,#ZDP_TmpBuf
   \   00006E   E0           MOVX    A,@DPTR
   \   00006F   F8           MOV     R0,A
   \   000070   A3           INC     DPTR
   \   000071   E0           MOVX    A,@DPTR
   \   000072   F583         MOV     DPH,A
   \   000074   8882         MOV     DPL,R0
   \   000076   A3           INC     DPTR
   \   000077   A3           INC     DPTR
   \   000078   A3           INC     DPTR
   \   000079   7400         MOV     A,#0x0
   \   00007B   F0           MOVX    @DPTR,A
   1038            len = 4;
   \   00007C   75..04       MOV     ?V0 + 4,#0x4
   1039          
   1040            return fillAndSend( &TransSeq, dstAddr, rspID, len );
   \   00007F                ; Setup parameters for call to function fillAndSend
   \   00007F   78..         MOV     R0,#?V0 + 6
   \   000081   12....       LCALL   ?PUSH_XSTACK_I_TWO
   \   000084   A9..         MOV     R1,?V0 + 4
   \   000086   AC..         MOV     R4,?V0 + 0
   \   000088   AD..         MOV     R5,?V0 + 1
   \   00008A   7402         MOV     A,#0x2
   \   00008C   12....       LCALL   ?XSTACK_DISP0_8
   \   00008F   AA82         MOV     R2,DPL
   \   000091   AB83         MOV     R3,DPH
   \   000093   12....       LCALL   ??fillAndSend?relay
   \   000096   7402         MOV     A,#0x2
   \   000098   12....       LCALL   ?DEALLOC_XSTACK8
   \   00009B   7401         MOV     A,#0x1
   \   00009D   12....       LCALL   ?DEALLOC_XSTACK8
   \   0000A0   7F08         MOV     R7,#0x8
   \   0000A2   02....       LJMP    ?BANKED_LEAVE_XDATA
   1041          }
   1042          
   1043          /*********************************************************************
   1044           * Binding
   1045           */
   1046          /*********************************************************************
   1047           * @fn          ZDP_EndDeviceBindReq
   1048           *
   1049           * @brief       This builds and sends a End_Device_Bind_req message.
   1050           *              This function sends a unicast message.
   1051           *
   1052           * @param       dstAddr - destination address
   1053           * @param       LocalCoordinator - short address of local coordinator
   1054           * @param       epIntf - Endpoint/Interface of Simple Desc
   1055           * @param       ProfileID - Profile ID
   1056           *
   1057           *   The Input cluster list is the opposite of what you would think.
   1058           *   This is the output cluster list of this device
   1059           * @param       NumInClusters - number of input clusters
   1060           * @param       InClusterList - input cluster ID list
   1061           *
   1062           *   The Output cluster list is the opposite of what you would think.
   1063           *   This is the input cluster list of this device
   1064           * @param       NumOutClusters - number of output clusters
   1065           * @param       OutClusterList - output cluster ID list
   1066           *
   1067           * @param       SecurityEnable - Security Options
   1068           *
   1069           * @return      afStatus_t
   1070           */

   \                                 In  segment BANKED_CODE, align 1, keep-with-next
   1071          afStatus_t ZDP_EndDeviceBindReq( zAddrType_t *dstAddr,
   \                     ZDP_EndDeviceBindReq:
   1072                                           uint16 LocalCoordinator,
   1073                                           byte endPoint,
   1074                                           uint16 ProfileID,
   1075                                           byte NumInClusters, cId_t *InClusterList,
   1076                                           byte NumOutClusters, cId_t *OutClusterList,
   1077                                           byte SecurityEnable )
   1078          {
   \   000000   74E8         MOV     A,#-0x18
   \   000002   12....       LCALL   ?BANKED_ENTER_XDATA
   \   000005                ; Saved register size: 24
   \   000005                ; Auto size: 5
   \   000005   74FB         MOV     A,#-0x5
   \   000007   12....       LCALL   ?ALLOC_XSTACK8
   \   00000A   7403         MOV     A,#0x3
   \   00000C   12....       LCALL   ?XSTACK_DISP0_8
   \   00000F   EA           MOV     A,R2
   \   000010   F0           MOVX    @DPTR,A
   \   000011   A3           INC     DPTR
   \   000012   EB           MOV     A,R3
   \   000013   F0           MOVX    @DPTR,A
   \   000014   E9           MOV     A,R1
   \   000015   85..82       MOV     DPL,?XSP + 0
   \   000018   85..83       MOV     DPH,?XSP + 1
   \   00001B   F0           MOVX    @DPTR,A
   \   00001C   8C..         MOV     ?V0 + 0,R4
   \   00001E   8D..         MOV     ?V0 + 1,R5
   \   000020   741D         MOV     A,#0x1d
   \   000022   12....       LCALL   ?XSTACK_DISP0_8
   \   000025   E0           MOVX    A,@DPTR
   \   000026   F5..         MOV     ?V0 + 2,A
   \   000028   A3           INC     DPTR
   \   000029   E0           MOVX    A,@DPTR
   \   00002A   F5..         MOV     ?V0 + 3,A
   \   00002C   741F         MOV     A,#0x1f
   \   00002E   12....       LCALL   ?XSTACK_DISP0_8
   \   000031   E0           MOVX    A,@DPTR
   \   000032   F5..         MOV     ?V0 + 7,A
   \   000034   7420         MOV     A,#0x20
   \   000036   12....       LCALL   ?XSTACK_DISP0_8
   \   000039   E0           MOVX    A,@DPTR
   \   00003A   F5..         MOV     ?V0 + 14,A
   \   00003C   A3           INC     DPTR
   \   00003D   E0           MOVX    A,@DPTR
   \   00003E   F5..         MOV     ?V0 + 15,A
   \   000040   7422         MOV     A,#0x22
   \   000042   12....       LCALL   ?XSTACK_DISP0_8
   \   000045   E0           MOVX    A,@DPTR
   \   000046   F5..         MOV     ?V0 + 6,A
   \   000048   7423         MOV     A,#0x23
   \   00004A   12....       LCALL   ?XSTACK_DISP0_8
   \   00004D   E0           MOVX    A,@DPTR
   \   00004E   F5..         MOV     ?V0 + 12,A
   \   000050   A3           INC     DPTR
   \   000051   E0           MOVX    A,@DPTR
   \   000052   F5..         MOV     ?V0 + 13,A
   1079            uint8 *pBuf = ZDP_TmpBuf;
   \   000054   90....       MOV     DPTR,#ZDP_TmpBuf
   \   000057   E0           MOVX    A,@DPTR
   \   000058   FE           MOV     R6,A
   \   000059   A3           INC     DPTR
   \   00005A   E0           MOVX    A,@DPTR
   \   00005B   FF           MOV     R7,A
   1080            uint8 i, len;
   1081            uint8 *ieeeAddr;
   1082          
   1083            (void)SecurityEnable;  // Intentionally unreferenced parameter
   1084          
   1085            // LocalCoordinator + SrcExtAddr + ep + ProfileID +  NumInClusters + NumOutClusters.
   1086            len = 2 + Z_EXTADDR_LEN + 1 + 2 + 1 + 1;
   \   00005C   75..0F       MOV     ?V0 + 5,#0xf
   1087            len += (NumInClusters + NumOutClusters) * sizeof ( uint16 );
   \   00005F   75F002       MOV     B,#0x2
   \   000062   85....       MOV     ?V0 + 10,?V0 + 7
   \   000065   75..00       MOV     ?V0 + 11,#0x0
   \   000068   85....       MOV     ?V0 + 8,?V0 + 6
   \   00006B   75..00       MOV     ?V0 + 9,#0x0
   \   00006E   E5..         MOV     A,?V0 + 10
   \   000070   25..         ADD     A,?V0 + 8
   \   000072   F8           MOV     R0,A
   \   000073   E5..         MOV     A,?V0 + 11
   \   000075   35..         ADDC    A,?V0 + 9
   \   000077   F9           MOV     R1,A
   \   000078   E8           MOV     A,R0
   \   000079   A4           MUL     AB
   \   00007A   25..         ADD     A,?V0 + 5
   \   00007C   F5..         MOV     ?V0 + 5,A
   1088          
   1089            if ( len >= ZDP_BUF_SZ-1 )
   \   00007E   E5..         MOV     A,?V0 + 5
   \   000080   C3           CLR     C
   \   000081   944F         SUBB    A,#0x4f
   \   000083   4005         JC      ??ZDP_EndDeviceBindReq_0
   1090            {
   1091              return afStatus_MEM_FAIL;
   \   000085   7910         MOV     R1,#0x10
   \   000087   02....       LJMP    ??ZDP_EndDeviceBindReq_1 & 0xFFFF
   1092            }
   1093          
   1094            if ( LocalCoordinator != NLME_GetShortAddr() )
   \                     ??ZDP_EndDeviceBindReq_0:
   \   00008A                ; Setup parameters for call to function NLME_GetShortAddr
   \   00008A   12....       LCALL   ??NLME_GetShortAddr?relay
   \   00008D   8A..         MOV     ?V0 + 8,R2
   \   00008F   8B..         MOV     ?V0 + 9,R3
   \   000091   E5..         MOV     A,?V0 + 8
   \   000093   65..         XRL     A,?V0 + 0
   \   000095   7004         JNZ     ??ZDP_EndDeviceBindReq_2
   \   000097   E5..         MOV     A,?V0 + 9
   \   000099   65..         XRL     A,?V0 + 1
   \                     ??ZDP_EndDeviceBindReq_2:
   \   00009B   6005         JZ      ??ZDP_EndDeviceBindReq_3
   1095            {
   1096              return afStatus_INVALID_PARAMETER;
   \   00009D   7902         MOV     R1,#0x2
   \   00009F   02....       LJMP    ??ZDP_EndDeviceBindReq_1 & 0xFFFF
   1097            }
   1098          
   1099            *pBuf++ = LO_UINT16( LocalCoordinator );
   \                     ??ZDP_EndDeviceBindReq_3:
   \   0000A2   E5..         MOV     A,?V0 + 0
   \   0000A4   8E82         MOV     DPL,R6
   \   0000A6   8F83         MOV     DPH,R7
   \   0000A8   E5..         MOV     A,?V0 + 0
   \   0000AA   F0           MOVX    @DPTR,A
   \   0000AB   8E82         MOV     DPL,R6
   \   0000AD   8F83         MOV     DPH,R7
   \   0000AF   A3           INC     DPTR
   \   0000B0   AE82         MOV     R6,DPL
   \   0000B2   AF83         MOV     R7,DPH
   1100            *pBuf++ = HI_UINT16( LocalCoordinator );
   \   0000B4   A8..         MOV     R0,?V0 + 0
   \   0000B6   A9..         MOV     R1,?V0 + 1
   \   0000B8   E4           CLR     A
   \   0000B9   E5..         MOV     A,?V0 + 1
   \   0000BB   A8..         MOV     R0,?V0 + 1
   \   0000BD   E5..         MOV     A,?V0 + 1
   \   0000BF   8E82         MOV     DPL,R6
   \   0000C1   8F83         MOV     DPH,R7
   \   0000C3   E5..         MOV     A,?V0 + 1
   \   0000C5   F0           MOVX    @DPTR,A
   \   0000C6   8E82         MOV     DPL,R6
   \   0000C8   8F83         MOV     DPH,R7
   \   0000CA   A3           INC     DPTR
   \   0000CB   AE82         MOV     R6,DPL
   \   0000CD   AF83         MOV     R7,DPH
   1101          
   1102            ieeeAddr = NLME_GetExtAddr();
   \   0000CF                ; Setup parameters for call to function NLME_GetExtAddr
   \   0000CF   12....       LCALL   ??NLME_GetExtAddr?relay
   \   0000D2   7401         MOV     A,#0x1
   \   0000D4   12....       LCALL   ?XSTACK_DISP0_8
   \   0000D7   EA           MOV     A,R2
   \   0000D8   F0           MOVX    @DPTR,A
   \   0000D9   A3           INC     DPTR
   \   0000DA   EB           MOV     A,R3
   \   0000DB   F0           MOVX    @DPTR,A
   1103            pBuf = osal_cpyExtAddr( pBuf, ieeeAddr );
   \   0000DC                ; Setup parameters for call to function sAddrExtCpy
   \   0000DC   7401         MOV     A,#0x1
   \   0000DE   12....       LCALL   ?XSTACK_DISP0_8
   \   0000E1   E0           MOVX    A,@DPTR
   \   0000E2   FC           MOV     R4,A
   \   0000E3   A3           INC     DPTR
   \   0000E4   E0           MOVX    A,@DPTR
   \   0000E5   FD           MOV     R5,A
   \   0000E6   EE           MOV     A,R6
   \   0000E7   FA           MOV     R2,A
   \   0000E8   EF           MOV     A,R7
   \   0000E9   FB           MOV     R3,A
   \   0000EA   12....       LCALL   ??sAddrExtCpy?relay
   \   0000ED   8A..         MOV     ?V0 + 8,R2
   \   0000EF   8B..         MOV     ?V0 + 9,R3
   \   0000F1   AE..         MOV     R6,?V0 + 8
   \   0000F3   AF..         MOV     R7,?V0 + 9
   1104          
   1105            *pBuf++ = endPoint;
   \   0000F5   85..82       MOV     DPL,?XSP + 0
   \   0000F8   85..83       MOV     DPH,?XSP + 1
   \   0000FB   E0           MOVX    A,@DPTR
   \   0000FC   8E82         MOV     DPL,R6
   \   0000FE   8F83         MOV     DPH,R7
   \   000100   F0           MOVX    @DPTR,A
   \   000101   8E82         MOV     DPL,R6
   \   000103   8F83         MOV     DPH,R7
   \   000105   A3           INC     DPTR
   \   000106   AE82         MOV     R6,DPL
   \   000108   AF83         MOV     R7,DPH
   1106          
   1107            *pBuf++ = LO_UINT16( ProfileID );   // Profile ID
   \   00010A   E5..         MOV     A,?V0 + 2
   \   00010C   8E82         MOV     DPL,R6
   \   00010E   8F83         MOV     DPH,R7
   \   000110   E5..         MOV     A,?V0 + 2
   \   000112   F0           MOVX    @DPTR,A
   \   000113   8E82         MOV     DPL,R6
   \   000115   8F83         MOV     DPH,R7
   \   000117   A3           INC     DPTR
   \   000118   AE82         MOV     R6,DPL
   \   00011A   AF83         MOV     R7,DPH
   1108            *pBuf++ = HI_UINT16( ProfileID );
   \   00011C   A8..         MOV     R0,?V0 + 2
   \   00011E   A9..         MOV     R1,?V0 + 3
   \   000120   E4           CLR     A
   \   000121   E5..         MOV     A,?V0 + 3
   \   000123   A8..         MOV     R0,?V0 + 3
   \   000125   E5..         MOV     A,?V0 + 3
   \   000127   8E82         MOV     DPL,R6
   \   000129   8F83         MOV     DPH,R7
   \   00012B   E5..         MOV     A,?V0 + 3
   \   00012D   F0           MOVX    @DPTR,A
   \   00012E   8E82         MOV     DPL,R6
   \   000130   8F83         MOV     DPH,R7
   \   000132   A3           INC     DPTR
   \   000133   AE82         MOV     R6,DPL
   \   000135   AF83         MOV     R7,DPH
   1109          
   1110            *pBuf++ = NumInClusters; // Input cluster list
   \   000137   E5..         MOV     A,?V0 + 7
   \   000139   8E82         MOV     DPL,R6
   \   00013B   8F83         MOV     DPH,R7
   \   00013D   E5..         MOV     A,?V0 + 7
   \   00013F   F0           MOVX    @DPTR,A
   \   000140   8E82         MOV     DPL,R6
   \   000142   8F83         MOV     DPH,R7
   \   000144   A3           INC     DPTR
   \   000145   AE82         MOV     R6,DPL
   \   000147   AF83         MOV     R7,DPH
   1111            for ( i = 0; i < NumInClusters; ++i )
   \   000149   75..00       MOV     ?V0 + 4,#0x0
   \                     ??ZDP_EndDeviceBindReq_4:
   \   00014C   E5..         MOV     A,?V0 + 4
   \   00014E   C3           CLR     C
   \   00014F   95..         SUBB    A,?V0 + 7
   \   000151   5078         JNC     ??ZDP_EndDeviceBindReq_5
   1112            {
   1113              *pBuf++ = LO_UINT16(InClusterList[i]);
   \   000153   E5..         MOV     A,?V0 + 4
   \   000155   A8..         MOV     R0,?V0 + 4
   \   000157   7900         MOV     R1,#0x0
   \   000159   E8           MOV     A,R0
   \   00015A   75F002       MOV     B,#0x2
   \   00015D   A4           MUL     AB
   \   00015E   C8           XCH     A,R0
   \   00015F   AAF0         MOV     R2,B
   \   000161   75F000       MOV     B,#0x0
   \   000164   A4           MUL     AB
   \   000165   2A           ADD     A,R2
   \   000166   FA           MOV     R2,A
   \   000167   75F002       MOV     B,#0x2
   \   00016A   E9           MOV     A,R1
   \   00016B   A4           MUL     AB
   \   00016C   2A           ADD     A,R2
   \   00016D   F9           MOV     R1,A
   \   00016E   E5..         MOV     A,?V0 + 14
   \   000170   28           ADD     A,R0
   \   000171   F582         MOV     DPL,A
   \   000173   E5..         MOV     A,?V0 + 15
   \   000175   39           ADDC    A,R1
   \   000176   F583         MOV     DPH,A
   \   000178   E0           MOVX    A,@DPTR
   \   000179   F8           MOV     R0,A
   \   00017A   A3           INC     DPTR
   \   00017B   E0           MOVX    A,@DPTR
   \   00017C   F9           MOV     R1,A
   \   00017D   E8           MOV     A,R0
   \   00017E   8E82         MOV     DPL,R6
   \   000180   8F83         MOV     DPH,R7
   \   000182   F0           MOVX    @DPTR,A
   \   000183   8E82         MOV     DPL,R6
   \   000185   8F83         MOV     DPH,R7
   \   000187   A3           INC     DPTR
   \   000188   AE82         MOV     R6,DPL
   \   00018A   AF83         MOV     R7,DPH
   1114              *pBuf++ = HI_UINT16(InClusterList[i]);
   \   00018C   E5..         MOV     A,?V0 + 4
   \   00018E   A8..         MOV     R0,?V0 + 4
   \   000190   7900         MOV     R1,#0x0
   \   000192   E8           MOV     A,R0
   \   000193   75F002       MOV     B,#0x2
   \   000196   A4           MUL     AB
   \   000197   C8           XCH     A,R0
   \   000198   AAF0         MOV     R2,B
   \   00019A   75F000       MOV     B,#0x0
   \   00019D   A4           MUL     AB
   \   00019E   2A           ADD     A,R2
   \   00019F   FA           MOV     R2,A
   \   0001A0   75F002       MOV     B,#0x2
   \   0001A3   E9           MOV     A,R1
   \   0001A4   A4           MUL     AB
   \   0001A5   2A           ADD     A,R2
   \   0001A6   F9           MOV     R1,A
   \   0001A7   E5..         MOV     A,?V0 + 14
   \   0001A9   28           ADD     A,R0
   \   0001AA   F582         MOV     DPL,A
   \   0001AC   E5..         MOV     A,?V0 + 15
   \   0001AE   39           ADDC    A,R1
   \   0001AF   F583         MOV     DPH,A
   \   0001B1   E0           MOVX    A,@DPTR
   \   0001B2   F8           MOV     R0,A
   \   0001B3   A3           INC     DPTR
   \   0001B4   E0           MOVX    A,@DPTR
   \   0001B5   F9           MOV     R1,A
   \   0001B6   E4           CLR     A
   \   0001B7   E9           MOV     A,R1
   \   0001B8   F8           MOV     R0,A
   \   0001B9   8E82         MOV     DPL,R6
   \   0001BB   8F83         MOV     DPH,R7
   \   0001BD   F0           MOVX    @DPTR,A
   \   0001BE   8E82         MOV     DPL,R6
   \   0001C0   8F83         MOV     DPH,R7
   \   0001C2   A3           INC     DPTR
   \   0001C3   AE82         MOV     R6,DPL
   \   0001C5   AF83         MOV     R7,DPH
   1115            }
   \   0001C7   05..         INC     ?V0 + 4
   \   0001C9   8081         SJMP    ??ZDP_EndDeviceBindReq_4
   1116          
   1117            *pBuf++ = NumOutClusters; // Output cluster list
   \                     ??ZDP_EndDeviceBindReq_5:
   \   0001CB   E5..         MOV     A,?V0 + 6
   \   0001CD   8E82         MOV     DPL,R6
   \   0001CF   8F83         MOV     DPH,R7
   \   0001D1   E5..         MOV     A,?V0 + 6
   \   0001D3   F0           MOVX    @DPTR,A
   \   0001D4   8E82         MOV     DPL,R6
   \   0001D6   8F83         MOV     DPH,R7
   \   0001D8   A3           INC     DPTR
   \   0001D9   AE82         MOV     R6,DPL
   \   0001DB   AF83         MOV     R7,DPH
   1118            for ( i = 0; i < NumOutClusters; ++i )
   \   0001DD   75..00       MOV     ?V0 + 4,#0x0
   \                     ??ZDP_EndDeviceBindReq_6:
   \   0001E0   E5..         MOV     A,?V0 + 4
   \   0001E2   C3           CLR     C
   \   0001E3   95..         SUBB    A,?V0 + 6
   \   0001E5   5078         JNC     ??ZDP_EndDeviceBindReq_7
   1119            {
   1120              *pBuf++ = LO_UINT16(OutClusterList[i]);
   \   0001E7   E5..         MOV     A,?V0 + 4
   \   0001E9   A8..         MOV     R0,?V0 + 4
   \   0001EB   7900         MOV     R1,#0x0
   \   0001ED   E8           MOV     A,R0
   \   0001EE   75F002       MOV     B,#0x2
   \   0001F1   A4           MUL     AB
   \   0001F2   C8           XCH     A,R0
   \   0001F3   AAF0         MOV     R2,B
   \   0001F5   75F000       MOV     B,#0x0
   \   0001F8   A4           MUL     AB
   \   0001F9   2A           ADD     A,R2
   \   0001FA   FA           MOV     R2,A
   \   0001FB   75F002       MOV     B,#0x2
   \   0001FE   E9           MOV     A,R1
   \   0001FF   A4           MUL     AB
   \   000200   2A           ADD     A,R2
   \   000201   F9           MOV     R1,A
   \   000202   E5..         MOV     A,?V0 + 12
   \   000204   28           ADD     A,R0
   \   000205   F582         MOV     DPL,A
   \   000207   E5..         MOV     A,?V0 + 13
   \   000209   39           ADDC    A,R1
   \   00020A   F583         MOV     DPH,A
   \   00020C   E0           MOVX    A,@DPTR
   \   00020D   F8           MOV     R0,A
   \   00020E   A3           INC     DPTR
   \   00020F   E0           MOVX    A,@DPTR
   \   000210   F9           MOV     R1,A
   \   000211   E8           MOV     A,R0
   \   000212   8E82         MOV     DPL,R6
   \   000214   8F83         MOV     DPH,R7
   \   000216   F0           MOVX    @DPTR,A
   \   000217   8E82         MOV     DPL,R6
   \   000219   8F83         MOV     DPH,R7
   \   00021B   A3           INC     DPTR
   \   00021C   AE82         MOV     R6,DPL
   \   00021E   AF83         MOV     R7,DPH
   1121              *pBuf++ = HI_UINT16(OutClusterList[i]);
   \   000220   E5..         MOV     A,?V0 + 4
   \   000222   A8..         MOV     R0,?V0 + 4
   \   000224   7900         MOV     R1,#0x0
   \   000226   E8           MOV     A,R0
   \   000227   75F002       MOV     B,#0x2
   \   00022A   A4           MUL     AB
   \   00022B   C8           XCH     A,R0
   \   00022C   AAF0         MOV     R2,B
   \   00022E   75F000       MOV     B,#0x0
   \   000231   A4           MUL     AB
   \   000232   2A           ADD     A,R2
   \   000233   FA           MOV     R2,A
   \   000234   75F002       MOV     B,#0x2
   \   000237   E9           MOV     A,R1
   \   000238   A4           MUL     AB
   \   000239   2A           ADD     A,R2
   \   00023A   F9           MOV     R1,A
   \   00023B   E5..         MOV     A,?V0 + 12
   \   00023D   28           ADD     A,R0
   \   00023E   F582         MOV     DPL,A
   \   000240   E5..         MOV     A,?V0 + 13
   \   000242   39           ADDC    A,R1
   \   000243   F583         MOV     DPH,A
   \   000245   E0           MOVX    A,@DPTR
   \   000246   F8           MOV     R0,A
   \   000247   A3           INC     DPTR
   \   000248   E0           MOVX    A,@DPTR
   \   000249   F9           MOV     R1,A
   \   00024A   E4           CLR     A
   \   00024B   E9           MOV     A,R1
   \   00024C   F8           MOV     R0,A
   \   00024D   8E82         MOV     DPL,R6
   \   00024F   8F83         MOV     DPH,R7
   \   000251   F0           MOVX    @DPTR,A
   \   000252   8E82         MOV     DPL,R6
   \   000254   8F83         MOV     DPH,R7
   \   000256   A3           INC     DPTR
   \   000257   AE82         MOV     R6,DPL
   \   000259   AF83         MOV     R7,DPH
   1122            }
   \   00025B   05..         INC     ?V0 + 4
   \   00025D   8081         SJMP    ??ZDP_EndDeviceBindReq_6
   1123          
   1124            return fillAndSend( &ZDP_TransID, dstAddr, End_Device_Bind_req, len );
   \                     ??ZDP_EndDeviceBindReq_7:
   \   00025F                ; Setup parameters for call to function fillAndSend
   \   00025F   75..20       MOV     ?V0 + 8,#0x20
   \   000262   75..00       MOV     ?V0 + 9,#0x0
   \   000265   78..         MOV     R0,#?V0 + 8
   \   000267   12....       LCALL   ?PUSH_XSTACK_I_TWO
   \   00026A   A9..         MOV     R1,?V0 + 5
   \   00026C   7405         MOV     A,#0x5
   \   00026E   12....       LCALL   ?XSTACK_DISP0_8
   \   000271   E0           MOVX    A,@DPTR
   \   000272   FC           MOV     R4,A
   \   000273   A3           INC     DPTR
   \   000274   E0           MOVX    A,@DPTR
   \   000275   FD           MOV     R5,A
   \   000276   7A..         MOV     R2,#ZDP_TransID & 0xff
   \   000278   7B..         MOV     R3,#(ZDP_TransID >> 8) & 0xff
   \   00027A   12....       LCALL   ??fillAndSend?relay
   \   00027D   7402         MOV     A,#0x2
   \   00027F   12....       LCALL   ?DEALLOC_XSTACK8
   \                     ??ZDP_EndDeviceBindReq_1:
   \   000282   7405         MOV     A,#0x5
   \   000284   12....       LCALL   ?DEALLOC_XSTACK8
   \   000287   7F10         MOV     R7,#0x10
   \   000289   02....       LJMP    ?BANKED_LEAVE_XDATA
   1125          }
   1126          
   1127          /*********************************************************************
   1128           * @fn          ZDP_BindUnbindReq
   1129           *
   1130           * @brief       This builds and send a Bind_req or Unbind_req message
   1131           *              Depending on the ClusterID. This function
   1132           *              sends a unicast message to the local coordinator.
   1133           *
   1134           * @param       BindOrUnbind - either Bind_req or Unbind_req
   1135           * @param       dstAddr - destination address of the message
   1136           * @param       SourceAddr - source 64 bit address of the binding
   1137           * @param       SrcEPIntf - Source endpoint/interface
   1138           * @param       ClusterID - Binding cluster ID
   1139           * @param       DestinationAddr - destination 64 bit addr of binding
   1140           * @param       DstEPIntf - destination endpoint/interface
   1141           * @param       SecurityEnable - Security Options
   1142           *
   1143           * @return      afStatus_t
   1144           */

   \                                 In  segment BANKED_CODE, align 1, keep-with-next
   1145          afStatus_t ZDP_BindUnbindReq( uint16 BindOrUnbind, zAddrType_t *dstAddr,
   \                     ZDP_BindUnbindReq:
   1146                                        uint8 *SourceAddr, byte SrcEndPoint,
   1147                                        cId_t ClusterID,
   1148                                        zAddrType_t *destinationAddr, byte DstEndPoint,
   1149                                        byte SecurityEnable )
   1150          {
   \   000000   74E8         MOV     A,#-0x18
   \   000002   12....       LCALL   ?BANKED_ENTER_XDATA
   \   000005                ; Saved register size: 24
   \   000005                ; Auto size: 0
   \   000005   8A..         MOV     ?V0 + 2,R2
   \   000007   8B..         MOV     ?V0 + 3,R3
   \   000009   8C..         MOV     ?V0 + 12,R4
   \   00000B   8D..         MOV     ?V0 + 13,R5
   \   00000D   89..         MOV     ?V0 + 9,R1
   \   00000F   7418         MOV     A,#0x18
   \   000011   12....       LCALL   ?XSTACK_DISP0_8
   \   000014   E0           MOVX    A,@DPTR
   \   000015   F5..         MOV     ?V0 + 14,A
   \   000017   A3           INC     DPTR
   \   000018   E0           MOVX    A,@DPTR
   \   000019   F5..         MOV     ?V0 + 15,A
   \   00001B   741A         MOV     A,#0x1a
   \   00001D   12....       LCALL   ?XSTACK_DISP0_8
   \   000020   E0           MOVX    A,@DPTR
   \   000021   F5..         MOV     ?V0 + 0,A
   \   000023   A3           INC     DPTR
   \   000024   E0           MOVX    A,@DPTR
   \   000025   F5..         MOV     ?V0 + 1,A
   \   000027   741C         MOV     A,#0x1c
   \   000029   12....       LCALL   ?XSTACK_DISP0_8
   \   00002C   E0           MOVX    A,@DPTR
   \   00002D   F5..         MOV     ?V0 + 4,A
   \   00002F   A3           INC     DPTR
   \   000030   E0           MOVX    A,@DPTR
   \   000031   F5..         MOV     ?V0 + 5,A
   \   000033   741E         MOV     A,#0x1e
   \   000035   12....       LCALL   ?XSTACK_DISP0_8
   \   000038   E0           MOVX    A,@DPTR
   \   000039   F5..         MOV     ?V0 + 8,A
   1151            uint8 *pBuf = ZDP_TmpBuf;
   \   00003B   90....       MOV     DPTR,#ZDP_TmpBuf
   \   00003E   E0           MOVX    A,@DPTR
   \   00003F   FE           MOV     R6,A
   \   000040   A3           INC     DPTR
   \   000041   E0           MOVX    A,@DPTR
   \   000042   FF           MOV     R7,A
   1152            byte len;
   1153          
   1154            (void)SecurityEnable;  // Intentionally unreferenced parameter
   1155          
   1156            // SourceAddr + SrcEPIntf + ClusterID +  addrMode.
   1157            len = Z_EXTADDR_LEN + 1 + sizeof( cId_t ) + sizeof( uint8 );
   \   000043   75..0C       MOV     ?V0 + 6,#0xc
   1158            if ( destinationAddr->addrMode == Addr64Bit )
   \   000046   85..82       MOV     DPL,?V0 + 4
   \   000049   85..83       MOV     DPH,?V0 + 5
   \   00004C   A3           INC     DPTR
   \   00004D   A3           INC     DPTR
   \   00004E   A3           INC     DPTR
   \   00004F   A3           INC     DPTR
   \   000050   A3           INC     DPTR
   \   000051   A3           INC     DPTR
   \   000052   A3           INC     DPTR
   \   000053   A3           INC     DPTR
   \   000054   E0           MOVX    A,@DPTR
   \   000055   6403         XRL     A,#0x3
   \   000057   7008         JNZ     ??ZDP_BindUnbindReq_0
   1159              len += Z_EXTADDR_LEN + 1;     // +1 for DstEPIntf
   \   000059   7409         MOV     A,#0x9
   \   00005B   25..         ADD     A,?V0 + 6
   \   00005D   F5..         MOV     ?V0 + 6,A
   \   00005F   8017         SJMP    ??ZDP_BindUnbindReq_1
   1160            else if ( destinationAddr->addrMode == AddrGroup )
   \                     ??ZDP_BindUnbindReq_0:
   \   000061   85..82       MOV     DPL,?V0 + 4
   \   000064   85..83       MOV     DPH,?V0 + 5
   \   000067   A3           INC     DPTR
   \   000068   A3           INC     DPTR
   \   000069   A3           INC     DPTR
   \   00006A   A3           INC     DPTR
   \   00006B   A3           INC     DPTR
   \   00006C   A3           INC     DPTR
   \   00006D   A3           INC     DPTR
   \   00006E   A3           INC     DPTR
   \   00006F   E0           MOVX    A,@DPTR
   \   000070   6401         XRL     A,#0x1
   \   000072   7004         JNZ     ??ZDP_BindUnbindReq_1
   1161              len += sizeof ( uint16 );
   \   000074   05..         INC     ?V0 + 6
   \   000076   05..         INC     ?V0 + 6
   1162          
   1163            pBuf = osal_cpyExtAddr( pBuf, SourceAddr );
   \                     ??ZDP_BindUnbindReq_1:
   \   000078                ; Setup parameters for call to function sAddrExtCpy
   \   000078   AC..         MOV     R4,?V0 + 14
   \   00007A   AD..         MOV     R5,?V0 + 15
   \   00007C   EE           MOV     A,R6
   \   00007D   FA           MOV     R2,A
   \   00007E   EF           MOV     A,R7
   \   00007F   FB           MOV     R3,A
   \   000080   12....       LCALL   ??sAddrExtCpy?relay
   \   000083   8A..         MOV     ?V0 + 10,R2
   \   000085   8B..         MOV     ?V0 + 11,R3
   \   000087   AE..         MOV     R6,?V0 + 10
   \   000089   AF..         MOV     R7,?V0 + 11
   1164            *pBuf++ = SrcEndPoint;
   \   00008B   E5..         MOV     A,?V0 + 9
   \   00008D   8E82         MOV     DPL,R6
   \   00008F   8F83         MOV     DPH,R7
   \   000091   E5..         MOV     A,?V0 + 9
   \   000093   F0           MOVX    @DPTR,A
   \   000094   8E82         MOV     DPL,R6
   \   000096   8F83         MOV     DPH,R7
   \   000098   A3           INC     DPTR
   \   000099   AE82         MOV     R6,DPL
   \   00009B   AF83         MOV     R7,DPH
   1165          
   1166            *pBuf++ = LO_UINT16( ClusterID );
   \   00009D   E5..         MOV     A,?V0 + 0
   \   00009F   8E82         MOV     DPL,R6
   \   0000A1   8F83         MOV     DPH,R7
   \   0000A3   E5..         MOV     A,?V0 + 0
   \   0000A5   F0           MOVX    @DPTR,A
   \   0000A6   8E82         MOV     DPL,R6
   \   0000A8   8F83         MOV     DPH,R7
   \   0000AA   A3           INC     DPTR
   \   0000AB   AE82         MOV     R6,DPL
   \   0000AD   AF83         MOV     R7,DPH
   1167          
   1168            *pBuf++ = HI_UINT16( ClusterID );
   \   0000AF   A8..         MOV     R0,?V0 + 0
   \   0000B1   A9..         MOV     R1,?V0 + 1
   \   0000B3   E4           CLR     A
   \   0000B4   E5..         MOV     A,?V0 + 1
   \   0000B6   A8..         MOV     R0,?V0 + 1
   \   0000B8   E5..         MOV     A,?V0 + 1
   \   0000BA   8E82         MOV     DPL,R6
   \   0000BC   8F83         MOV     DPH,R7
   \   0000BE   E5..         MOV     A,?V0 + 1
   \   0000C0   F0           MOVX    @DPTR,A
   \   0000C1   8E82         MOV     DPL,R6
   \   0000C3   8F83         MOV     DPH,R7
   \   0000C5   A3           INC     DPTR
   \   0000C6   AE82         MOV     R6,DPL
   \   0000C8   AF83         MOV     R7,DPH
   1169            *pBuf++ = destinationAddr->addrMode;
   \   0000CA   85..82       MOV     DPL,?V0 + 4
   \   0000CD   85..83       MOV     DPH,?V0 + 5
   \   0000D0   A3           INC     DPTR
   \   0000D1   A3           INC     DPTR
   \   0000D2   A3           INC     DPTR
   \   0000D3   A3           INC     DPTR
   \   0000D4   A3           INC     DPTR
   \   0000D5   A3           INC     DPTR
   \   0000D6   A3           INC     DPTR
   \   0000D7   A3           INC     DPTR
   \   0000D8   E0           MOVX    A,@DPTR
   \   0000D9   8E82         MOV     DPL,R6
   \   0000DB   8F83         MOV     DPH,R7
   \   0000DD   F0           MOVX    @DPTR,A
   \   0000DE   8E82         MOV     DPL,R6
   \   0000E0   8F83         MOV     DPH,R7
   \   0000E2   A3           INC     DPTR
   \   0000E3   AE82         MOV     R6,DPL
   \   0000E5   AF83         MOV     R7,DPH
   1170            if ( destinationAddr->addrMode == Addr64Bit )
   \   0000E7   85..82       MOV     DPL,?V0 + 4
   \   0000EA   85..83       MOV     DPH,?V0 + 5
   \   0000ED   A3           INC     DPTR
   \   0000EE   A3           INC     DPTR
   \   0000EF   A3           INC     DPTR
   \   0000F0   A3           INC     DPTR
   \   0000F1   A3           INC     DPTR
   \   0000F2   A3           INC     DPTR
   \   0000F3   A3           INC     DPTR
   \   0000F4   A3           INC     DPTR
   \   0000F5   E0           MOVX    A,@DPTR
   \   0000F6   6403         XRL     A,#0x3
   \   0000F8   701E         JNZ     ??ZDP_BindUnbindReq_2
   1171            {
   1172              pBuf = osal_cpyExtAddr( pBuf, destinationAddr->addr.extAddr );
   \   0000FA                ; Setup parameters for call to function sAddrExtCpy
   \   0000FA   AC..         MOV     R4,?V0 + 4
   \   0000FC   AD..         MOV     R5,?V0 + 5
   \   0000FE   EE           MOV     A,R6
   \   0000FF   FA           MOV     R2,A
   \   000100   EF           MOV     A,R7
   \   000101   FB           MOV     R3,A
   \   000102   12....       LCALL   ??sAddrExtCpy?relay
   \   000105   8A..         MOV     ?V0 + 10,R2
   \   000107   8B..         MOV     ?V0 + 11,R3
   \   000109   AE..         MOV     R6,?V0 + 10
   \   00010B   AF..         MOV     R7,?V0 + 11
   1173              *pBuf = DstEndPoint;
   \   00010D   E5..         MOV     A,?V0 + 8
   \   00010F   8E82         MOV     DPL,R6
   \   000111   8F83         MOV     DPH,R7
   \   000113   E5..         MOV     A,?V0 + 8
   \   000115   F0           MOVX    @DPTR,A
   \   000116   8049         SJMP    ??ZDP_BindUnbindReq_3
   1174            }
   1175            else if ( destinationAddr->addrMode == AddrGroup )
   \                     ??ZDP_BindUnbindReq_2:
   \   000118   85..82       MOV     DPL,?V0 + 4
   \   00011B   85..83       MOV     DPH,?V0 + 5
   \   00011E   A3           INC     DPTR
   \   00011F   A3           INC     DPTR
   \   000120   A3           INC     DPTR
   \   000121   A3           INC     DPTR
   \   000122   A3           INC     DPTR
   \   000123   A3           INC     DPTR
   \   000124   A3           INC     DPTR
   \   000125   A3           INC     DPTR
   \   000126   E0           MOVX    A,@DPTR
   \   000127   6401         XRL     A,#0x1
   \   000129   7036         JNZ     ??ZDP_BindUnbindReq_3
   1176            {
   1177              *pBuf++ = LO_UINT16( destinationAddr->addr.shortAddr );
   \   00012B   85..82       MOV     DPL,?V0 + 4
   \   00012E   85..83       MOV     DPH,?V0 + 5
   \   000131   E0           MOVX    A,@DPTR
   \   000132   F8           MOV     R0,A
   \   000133   A3           INC     DPTR
   \   000134   E0           MOVX    A,@DPTR
   \   000135   F9           MOV     R1,A
   \   000136   E8           MOV     A,R0
   \   000137   8E82         MOV     DPL,R6
   \   000139   8F83         MOV     DPH,R7
   \   00013B   F0           MOVX    @DPTR,A
   \   00013C   8E82         MOV     DPL,R6
   \   00013E   8F83         MOV     DPH,R7
   \   000140   A3           INC     DPTR
   \   000141   AE82         MOV     R6,DPL
   \   000143   AF83         MOV     R7,DPH
   1178              *pBuf++ = HI_UINT16( destinationAddr->addr.shortAddr );
   \   000145   85..82       MOV     DPL,?V0 + 4
   \   000148   85..83       MOV     DPH,?V0 + 5
   \   00014B   E0           MOVX    A,@DPTR
   \   00014C   F8           MOV     R0,A
   \   00014D   A3           INC     DPTR
   \   00014E   E0           MOVX    A,@DPTR
   \   00014F   F9           MOV     R1,A
   \   000150   E4           CLR     A
   \   000151   E9           MOV     A,R1
   \   000152   F8           MOV     R0,A
   \   000153   8E82         MOV     DPL,R6
   \   000155   8F83         MOV     DPH,R7
   \   000157   F0           MOVX    @DPTR,A
   \   000158   8E82         MOV     DPL,R6
   \   00015A   8F83         MOV     DPH,R7
   \   00015C   A3           INC     DPTR
   \   00015D   AE82         MOV     R6,DPL
   \   00015F   AF83         MOV     R7,DPH
   1179            }
   1180          
   1181            FillAndSendTxOptions( &ZDP_TransID, dstAddr, BindOrUnbind, len, AF_MSG_ACK_REQUEST );
   \                     ??ZDP_BindUnbindReq_3:
   \   000161   90....       MOV     DPTR,#ZDP_TxOptions
   \   000164   7410         MOV     A,#0x10
   \   000166   F0           MOVX    @DPTR,A
   \   000167                ; Setup parameters for call to function fillAndSend
   \   000167   78..         MOV     R0,#?V0 + 2
   \   000169   12....       LCALL   ?PUSH_XSTACK_I_TWO
   \   00016C   A9..         MOV     R1,?V0 + 6
   \   00016E   AC..         MOV     R4,?V0 + 12
   \   000170   AD..         MOV     R5,?V0 + 13
   \   000172   7A..         MOV     R2,#ZDP_TransID & 0xff
   \   000174   7B..         MOV     R3,#(ZDP_TransID >> 8) & 0xff
   \   000176   12....       LCALL   ??fillAndSend?relay
   \   000179   7402         MOV     A,#0x2
   \   00017B   12....       LCALL   ?DEALLOC_XSTACK8
   \   00017E   E9           MOV     A,R1
   \   00017F   F5..         MOV     ?V0 + 7,A
   \   000181   90....       MOV     DPTR,#ZDP_TxOptions
   \   000184   7400         MOV     A,#0x0
   \   000186   F0           MOVX    @DPTR,A
   \   000187   A9..         MOV     R1,?V0 + 7
   \   000189   7F10         MOV     R7,#0x10
   \   00018B   02....       LJMP    ?BANKED_LEAVE_XDATA
   1182          }
   1183          
   1184          /*********************************************************************
   1185           * Network Management
   1186           */
   1187          
   1188          /*********************************************************************
   1189           * @fn          ZDP_MgmtNwkDiscReq
   1190           *
   1191           * @brief       This builds and send a Mgmt_NWK_Disc_req message. This
   1192           *              function sends a unicast message.
   1193           *
   1194           * @param       dstAddr - destination address of the message
   1195           * @param       ScanChannels - 32 bit address bit map
   1196           * @param       StartIndex - Starting index within the reporting network
   1197           *                           list
   1198           * @param       SecurityEnable - Security Options
   1199           *
   1200           * @return      afStatus_t
   1201           */

   \                                 In  segment BANKED_CODE, align 1, keep-with-next
   1202          afStatus_t ZDP_MgmtNwkDiscReq( zAddrType_t *dstAddr,
   \                     ZDP_MgmtNwkDiscReq:
   1203                                         uint32 ScanChannels,
   1204                                         byte ScanDuration,
   1205                                         byte StartIndex,
   1206                                         byte SecurityEnable )
   1207          {
   \   000000   74EA         MOV     A,#-0x16
   \   000002   12....       LCALL   ?BANKED_ENTER_XDATA
   \   000005                ; Saved register size: 22
   \   000005                ; Auto size: 0
   \   000005   8A..         MOV     ?V0 + 12,R2
   \   000007   8B..         MOV     ?V0 + 13,R3
   \   000009   E9           MOV     A,R1
   \   00000A   FE           MOV     R6,A
   \   00000B   EC           MOV     A,R4
   \   00000C   FF           MOV     R7,A
   \   00000D   8D..         MOV     ?V0 + 8,R5
   \   00000F   7416         MOV     A,#0x16
   \   000011   12....       LCALL   ?XSTACK_DISP0_8
   \   000014   78..         MOV     R0,#?V0 + 0
   \   000016   12....       LCALL   ?L_MOV_X
   \   000019   85....       MOV     ?V0 + 4,?V0 + 0
   \   00001C   85....       MOV     ?V0 + 5,?V0 + 1
   \   00001F   85....       MOV     ?V0 + 6,?V0 + 2
   \   000022   85....       MOV     ?V0 + 7,?V0 + 3
   1208            uint8 *pBuf = ZDP_TmpBuf;
   \   000025   90....       MOV     DPTR,#ZDP_TmpBuf
   \   000028   E0           MOVX    A,@DPTR
   \   000029   F5..         MOV     ?V0 + 0,A
   \   00002B   A3           INC     DPTR
   \   00002C   E0           MOVX    A,@DPTR
   \   00002D   F5..         MOV     ?V0 + 1,A
   1209            byte len = sizeof( uint32 )+1+1;  // ScanChannels + ScanDuration + StartIndex.
   \   00002F   75..06       MOV     ?V0 + 2,#0x6
   1210          
   1211            (void)SecurityEnable;  // Intentionally unreferenced parameter
   1212          
   1213            pBuf = osal_buffer_uint32( pBuf, ScanChannels );
   \   000032                ; Setup parameters for call to function osal_buffer_uint32
   \   000032   78..         MOV     R0,#?V0 + 4
   \   000034   12....       LCALL   ?PUSH_XSTACK_I_FOUR
   \   000037   AA..         MOV     R2,?V0 + 0
   \   000039   AB..         MOV     R3,?V0 + 1
   \   00003B   12....       LCALL   ??osal_buffer_uint32?relay
   \   00003E   7404         MOV     A,#0x4
   \   000040   12....       LCALL   ?DEALLOC_XSTACK8
   \   000043   8A..         MOV     ?V0 + 10,R2
   \   000045   8B..         MOV     ?V0 + 11,R3
   \   000047   85....       MOV     ?V0 + 0,?V0 + 10
   \   00004A   85....       MOV     ?V0 + 1,?V0 + 11
   1214          
   1215            *pBuf++ = ScanDuration;
   \   00004D   EE           MOV     A,R6
   \   00004E   85..82       MOV     DPL,?V0 + 0
   \   000051   85..83       MOV     DPH,?V0 + 1
   \   000054   F0           MOVX    @DPTR,A
   \   000055   85..82       MOV     DPL,?V0 + 0
   \   000058   85..83       MOV     DPH,?V0 + 1
   \   00005B   A3           INC     DPTR
   \   00005C   8582..       MOV     ?V0 + 0,DPL
   \   00005F   8583..       MOV     ?V0 + 1,DPH
   1216            *pBuf = StartIndex;
   \   000062   EF           MOV     A,R7
   \   000063   85..82       MOV     DPL,?V0 + 0
   \   000066   85..83       MOV     DPH,?V0 + 1
   \   000069   F0           MOVX    @DPTR,A
   1217          
   1218            return fillAndSend( &ZDP_TransID, dstAddr, Mgmt_NWK_Disc_req, len );
   \   00006A                ; Setup parameters for call to function fillAndSend
   \   00006A   75..30       MOV     ?V0 + 10,#0x30
   \   00006D   75..00       MOV     ?V0 + 11,#0x0
   \   000070   78..         MOV     R0,#?V0 + 10
   \   000072   12....       LCALL   ?PUSH_XSTACK_I_TWO
   \   000075   A9..         MOV     R1,?V0 + 2
   \   000077   AC..         MOV     R4,?V0 + 12
   \   000079   AD..         MOV     R5,?V0 + 13
   \   00007B   7A..         MOV     R2,#ZDP_TransID & 0xff
   \   00007D   7B..         MOV     R3,#(ZDP_TransID >> 8) & 0xff
   \   00007F   12....       LCALL   ??fillAndSend?relay
   \   000082   7402         MOV     A,#0x2
   \   000084   12....       LCALL   ?DEALLOC_XSTACK8
   \   000087   7F0E         MOV     R7,#0xe
   \   000089   02....       LJMP    ?BANKED_LEAVE_XDATA
   1219          }
   1220          
   1221          /*********************************************************************
   1222           * @fn          ZDP_MgmtDirectJoinReq
   1223           *
   1224           * @brief       This builds and send a Mgmt_Direct_Join_req message. This
   1225           *              function sends a unicast message.
   1226           *
   1227           * @param       dstAddr - destination address of the message
   1228           * @param       deviceAddr - 64 bit IEEE Address
   1229           * @param       SecurityEnable - Security Options
   1230           *
   1231           * @return      afStatus_t
   1232           */

   \                                 In  segment BANKED_CODE, align 1, keep-with-next
   1233          afStatus_t ZDP_MgmtDirectJoinReq( zAddrType_t *dstAddr,
   \                     ZDP_MgmtDirectJoinReq:
   1234                                         uint8 *deviceAddr,
   1235                                         byte capInfo,
   1236                                         byte SecurityEnable )
   1237          {
   \   000000   74F2         MOV     A,#-0xe
   \   000002   12....       LCALL   ?BANKED_ENTER_XDATA
   \   000005                ; Saved register size: 14
   \   000005                ; Auto size: 0
   \   000005   EA           MOV     A,R2
   \   000006   FE           MOV     R6,A
   \   000007   EB           MOV     A,R3
   \   000008   FF           MOV     R7,A
   \   000009   8C..         MOV     ?V0 + 0,R4
   \   00000B   8D..         MOV     ?V0 + 1,R5
   \   00000D   89..         MOV     ?V0 + 3,R1
   \   00000F   740E         MOV     A,#0xe
   \   000011   12....       LCALL   ?XSTACK_DISP0_8
   \   000014   E0           MOVX    A,@DPTR
   \   000015   F5..         MOV     ?V0 + 2,A
   1238            (void)SecurityEnable;  // Intentionally unreferenced parameter
   1239          
   1240            osal_cpyExtAddr( ZDP_TmpBuf, deviceAddr );
   \   000017                ; Setup parameters for call to function sAddrExtCpy
   \   000017   AC..         MOV     R4,?V0 + 0
   \   000019   AD..         MOV     R5,?V0 + 1
   \   00001B   90....       MOV     DPTR,#ZDP_TmpBuf
   \   00001E   E0           MOVX    A,@DPTR
   \   00001F   FA           MOV     R2,A
   \   000020   A3           INC     DPTR
   \   000021   E0           MOVX    A,@DPTR
   \   000022   FB           MOV     R3,A
   \   000023   12....       LCALL   ??sAddrExtCpy?relay
   1241            ZDP_TmpBuf[Z_EXTADDR_LEN] = capInfo;
   \   000026   E5..         MOV     A,?V0 + 3
   \   000028   90....       MOV     DPTR,#ZDP_TmpBuf
   \   00002B   E0           MOVX    A,@DPTR
   \   00002C   F8           MOV     R0,A
   \   00002D   A3           INC     DPTR
   \   00002E   E0           MOVX    A,@DPTR
   \   00002F   F583         MOV     DPH,A
   \   000031   8882         MOV     DPL,R0
   \   000033   A3           INC     DPTR
   \   000034   A3           INC     DPTR
   \   000035   A3           INC     DPTR
   \   000036   A3           INC     DPTR
   \   000037   A3           INC     DPTR
   \   000038   A3           INC     DPTR
   \   000039   A3           INC     DPTR
   \   00003A   A3           INC     DPTR
   \   00003B   E5..         MOV     A,?V0 + 3
   \   00003D   F0           MOVX    @DPTR,A
   1242          
   1243            return fillAndSend( &ZDP_TransID, dstAddr, Mgmt_Direct_Join_req, (Z_EXTADDR_LEN + 1) );
   \   00003E                ; Setup parameters for call to function fillAndSend
   \   00003E   75..35       MOV     ?V0 + 4,#0x35
   \   000041   75..00       MOV     ?V0 + 5,#0x0
   \   000044   78..         MOV     R0,#?V0 + 4
   \   000046   12....       LCALL   ?PUSH_XSTACK_I_TWO
   \   000049   7909         MOV     R1,#0x9
   \   00004B   EE           MOV     A,R6
   \   00004C   FC           MOV     R4,A
   \   00004D   EF           MOV     A,R7
   \   00004E   FD           MOV     R5,A
   \   00004F   7A..         MOV     R2,#ZDP_TransID & 0xff
   \   000051   7B..         MOV     R3,#(ZDP_TransID >> 8) & 0xff
   \   000053   12....       LCALL   ??fillAndSend?relay
   \   000056   7402         MOV     A,#0x2
   \   000058   12....       LCALL   ?DEALLOC_XSTACK8
   \   00005B   7F06         MOV     R7,#0x6
   \   00005D   02....       LJMP    ?BANKED_LEAVE_XDATA
   1244          }
   1245          
   1246          /*********************************************************************
   1247           * @fn          ZDP_MgmtPermitJoinReq
   1248           *
   1249           * @brief       This builds and send a Mgmt_Permit_Join_req message.
   1250           *
   1251           * @param       dstAddr - destination address of the message
   1252           * @param       duration - Permit duration
   1253           * @param       TcSignificance - Trust Center Significance
   1254           *
   1255           * @return      afStatus_t
   1256           */

   \                                 In  segment BANKED_CODE, align 1, keep-with-next
   1257          afStatus_t ZDP_MgmtPermitJoinReq( zAddrType_t *dstAddr, byte duration,
   \                     ZDP_MgmtPermitJoinReq:
   1258                                            byte TcSignificance, byte SecurityEnable )
   1259          {
   \   000000   74F2         MOV     A,#-0xe
   \   000002   12....       LCALL   ?BANKED_ENTER_XDATA
   \   000005                ; Saved register size: 14
   \   000005                ; Auto size: 0
   \   000005   EA           MOV     A,R2
   \   000006   FE           MOV     R6,A
   \   000007   EB           MOV     A,R3
   \   000008   FF           MOV     R7,A
   \   000009   89..         MOV     ?V0 + 0,R1
   \   00000B   8C..         MOV     ?V0 + 1,R4
   \   00000D   8D..         MOV     ?V0 + 2,R5
   1260            (void)SecurityEnable;  // Intentionally unreferenced parameter
   1261          
   1262            // Build buffer
   1263            ZDP_TmpBuf[ZDP_MGMT_PERMIT_JOIN_REQ_DURATION] = duration;
   \   00000F   E5..         MOV     A,?V0 + 0
   \   000011   90....       MOV     DPTR,#ZDP_TmpBuf
   \   000014   E0           MOVX    A,@DPTR
   \   000015   F8           MOV     R0,A
   \   000016   A3           INC     DPTR
   \   000017   E0           MOVX    A,@DPTR
   \   000018   F583         MOV     DPH,A
   \   00001A   8882         MOV     DPL,R0
   \   00001C   E5..         MOV     A,?V0 + 0
   \   00001E   F0           MOVX    @DPTR,A
   1264            ZDP_TmpBuf[ZDP_MGMT_PERMIT_JOIN_REQ_TC_SIG]   = TcSignificance;
   \   00001F   E5..         MOV     A,?V0 + 1
   \   000021   90....       MOV     DPTR,#ZDP_TmpBuf
   \   000024   E0           MOVX    A,@DPTR
   \   000025   F8           MOV     R0,A
   \   000026   A3           INC     DPTR
   \   000027   E0           MOVX    A,@DPTR
   \   000028   F583         MOV     DPH,A
   \   00002A   8882         MOV     DPL,R0
   \   00002C   A3           INC     DPTR
   \   00002D   E5..         MOV     A,?V0 + 1
   \   00002F   F0           MOVX    @DPTR,A
   1265          
   1266            // Send the message
   1267            return fillAndSend( &ZDP_TransID, dstAddr, Mgmt_Permit_Join_req,
   1268                                ZDP_MGMT_PERMIT_JOIN_REQ_SIZE );
   \   000030                ; Setup parameters for call to function fillAndSend
   \   000030   75..36       MOV     ?V0 + 4,#0x36
   \   000033   75..00       MOV     ?V0 + 5,#0x0
   \   000036   78..         MOV     R0,#?V0 + 4
   \   000038   12....       LCALL   ?PUSH_XSTACK_I_TWO
   \   00003B   7902         MOV     R1,#0x2
   \   00003D   EE           MOV     A,R6
   \   00003E   FC           MOV     R4,A
   \   00003F   EF           MOV     A,R7
   \   000040   FD           MOV     R5,A
   \   000041   7A..         MOV     R2,#ZDP_TransID & 0xff
   \   000043   7B..         MOV     R3,#(ZDP_TransID >> 8) & 0xff
   \   000045   12....       LCALL   ??fillAndSend?relay
   \   000048   7402         MOV     A,#0x2
   \   00004A   12....       LCALL   ?DEALLOC_XSTACK8
   \   00004D   7F06         MOV     R7,#0x6
   \   00004F   02....       LJMP    ?BANKED_LEAVE_XDATA
   1269          }
   1270          
   1271          /*********************************************************************
   1272           * @fn          ZDP_MgmtLeaveReq
   1273           *
   1274           * @brief       This builds and send a Mgmt_Leave_req message.
   1275           *
   1276           * @param       dstAddr - destination address of the message
   1277           *              IEEEAddr - IEEE adddress of device that is removed
   1278           *              RemoveChildren - set to 1 to remove the children of the
   1279           *                                device as well. 0 otherwise.
   1280           *              Rejoin - set to 1 if the removed device should rejoin
   1281                                   afterwards. 0 otherwise.
   1282           *
   1283           * @return      afStatus_t
   1284           */

   \                                 In  segment BANKED_CODE, align 1, keep-with-next
   1285          afStatus_t ZDP_MgmtLeaveReq( zAddrType_t *dstAddr, uint8 *IEEEAddr, uint8 RemoveChildren,
   \                     ZDP_MgmtLeaveReq:
   1286                           uint8 Rejoin, uint8 SecurityEnable )
   1287          
   1288          {
   \   000000   74F0         MOV     A,#-0x10
   \   000002   12....       LCALL   ?BANKED_ENTER_XDATA
   \   000005                ; Saved register size: 16
   \   000005                ; Auto size: 0
   \   000005   EA           MOV     A,R2
   \   000006   FE           MOV     R6,A
   \   000007   EB           MOV     A,R3
   \   000008   FF           MOV     R7,A
   \   000009   8C..         MOV     ?V0 + 4,R4
   \   00000B   8D..         MOV     ?V0 + 5,R5
   \   00000D   89..         MOV     ?V0 + 0,R1
   \   00000F   7410         MOV     A,#0x10
   \   000011   12....       LCALL   ?XSTACK_DISP0_8
   \   000014   E0           MOVX    A,@DPTR
   \   000015   F5..         MOV     ?V0 + 1,A
   \   000017   7411         MOV     A,#0x11
   \   000019   12....       LCALL   ?XSTACK_DISP0_8
   \   00001C   E0           MOVX    A,@DPTR
   \   00001D   F5..         MOV     ?V0 + 2,A
   1289            (void)SecurityEnable;  // Intentionally unreferenced parameter
   1290          
   1291            osal_cpyExtAddr( ZDP_TmpBuf, IEEEAddr );
   \   00001F                ; Setup parameters for call to function sAddrExtCpy
   \   00001F   AC..         MOV     R4,?V0 + 4
   \   000021   AD..         MOV     R5,?V0 + 5
   \   000023   90....       MOV     DPTR,#ZDP_TmpBuf
   \   000026   E0           MOVX    A,@DPTR
   \   000027   FA           MOV     R2,A
   \   000028   A3           INC     DPTR
   \   000029   E0           MOVX    A,@DPTR
   \   00002A   FB           MOV     R3,A
   \   00002B   12....       LCALL   ??sAddrExtCpy?relay
   1292            ZDP_TmpBuf[Z_EXTADDR_LEN] = 0;
   \   00002E   90....       MOV     DPTR,#ZDP_TmpBuf
   \   000031   E0           MOVX    A,@DPTR
   \   000032   F8           MOV     R0,A
   \   000033   A3           INC     DPTR
   \   000034   E0           MOVX    A,@DPTR
   \   000035   F583         MOV     DPH,A
   \   000037   8882         MOV     DPL,R0
   \   000039   A3           INC     DPTR
   \   00003A   A3           INC     DPTR
   \   00003B   A3           INC     DPTR
   \   00003C   A3           INC     DPTR
   \   00003D   A3           INC     DPTR
   \   00003E   A3           INC     DPTR
   \   00003F   A3           INC     DPTR
   \   000040   A3           INC     DPTR
   \   000041   7400         MOV     A,#0x0
   \   000043   F0           MOVX    @DPTR,A
   1293          
   1294            if ( RemoveChildren == TRUE )
   \   000044   7401         MOV     A,#0x1
   \   000046   65..         XRL     A,?V0 + 0
   \   000048   7017         JNZ     ??ZDP_MgmtLeaveReq_0
   1295            {
   1296              ZDP_TmpBuf[Z_EXTADDR_LEN] |= ZDP_MGMT_LEAVE_REQ_RC;
   \   00004A   90....       MOV     DPTR,#ZDP_TmpBuf
   \   00004D   E0           MOVX    A,@DPTR
   \   00004E   F8           MOV     R0,A
   \   00004F   A3           INC     DPTR
   \   000050   E0           MOVX    A,@DPTR
   \   000051   F583         MOV     DPH,A
   \   000053   8882         MOV     DPL,R0
   \   000055   A3           INC     DPTR
   \   000056   A3           INC     DPTR
   \   000057   A3           INC     DPTR
   \   000058   A3           INC     DPTR
   \   000059   A3           INC     DPTR
   \   00005A   A3           INC     DPTR
   \   00005B   A3           INC     DPTR
   \   00005C   A3           INC     DPTR
   \   00005D   E0           MOVX    A,@DPTR
   \   00005E   D2E6         SETB    0xE0 /* A   */.6
   \   000060   F0           MOVX    @DPTR,A
   1297            }
   1298            if ( Rejoin == TRUE )
   \                     ??ZDP_MgmtLeaveReq_0:
   \   000061   7401         MOV     A,#0x1
   \   000063   65..         XRL     A,?V0 + 1
   \   000065   7017         JNZ     ??ZDP_MgmtLeaveReq_1
   1299            {
   1300              ZDP_TmpBuf[Z_EXTADDR_LEN] |= ZDP_MGMT_LEAVE_REQ_REJOIN;
   \   000067   90....       MOV     DPTR,#ZDP_TmpBuf
   \   00006A   E0           MOVX    A,@DPTR
   \   00006B   F8           MOV     R0,A
   \   00006C   A3           INC     DPTR
   \   00006D   E0           MOVX    A,@DPTR
   \   00006E   F583         MOV     DPH,A
   \   000070   8882         MOV     DPL,R0
   \   000072   A3           INC     DPTR
   \   000073   A3           INC     DPTR
   \   000074   A3           INC     DPTR
   \   000075   A3           INC     DPTR
   \   000076   A3           INC     DPTR
   \   000077   A3           INC     DPTR
   \   000078   A3           INC     DPTR
   \   000079   A3           INC     DPTR
   \   00007A   E0           MOVX    A,@DPTR
   \   00007B   D2E7         SETB    0xE0 /* A   */.7
   \   00007D   F0           MOVX    @DPTR,A
   1301            }
   1302          
   1303            return fillAndSend( &ZDP_TransID, dstAddr, Mgmt_Leave_req, (Z_EXTADDR_LEN + 1) );
   \                     ??ZDP_MgmtLeaveReq_1:
   \   00007E                ; Setup parameters for call to function fillAndSend
   \   00007E   75..34       MOV     ?V0 + 6,#0x34
   \   000081   75..00       MOV     ?V0 + 7,#0x0
   \   000084   78..         MOV     R0,#?V0 + 6
   \   000086   12....       LCALL   ?PUSH_XSTACK_I_TWO
   \   000089   7909         MOV     R1,#0x9
   \   00008B   EE           MOV     A,R6
   \   00008C   FC           MOV     R4,A
   \   00008D   EF           MOV     A,R7
   \   00008E   FD           MOV     R5,A
   \   00008F   7A..         MOV     R2,#ZDP_TransID & 0xff
   \   000091   7B..         MOV     R3,#(ZDP_TransID >> 8) & 0xff
   \   000093   12....       LCALL   ??fillAndSend?relay
   \   000096   7402         MOV     A,#0x2
   \   000098   12....       LCALL   ?DEALLOC_XSTACK8
   \   00009B   7F08         MOV     R7,#0x8
   \   00009D   02....       LJMP    ?BANKED_LEAVE_XDATA
   1304          }
   1305          
   1306          /*********************************************************************
   1307           * @fn          ZDP_MgmtNwkUpdateReq
   1308           *
   1309           * @brief       This builds and send a Mgmt_NWK_Update_req message. This
   1310           *              function sends a unicast or broadcast message.
   1311           *
   1312           * @param       dstAddr - destination address of the message
   1313           * @param       ChannelMask - 32 bit address bit map
   1314           * @param       ScanDuration - length of time to spend scanning each channel
   1315           * @param       ScanCount - number of energy scans to be conducted
   1316           * @param       NwkUpdateId - NWk Update Id value
   1317           * @param       NwkManagerAddr - NWK address for device with Network Manager
   1318           *                               bit set in its Node Descriptor
   1319           *
   1320           * @return      afStatus_t
   1321           */

   \                                 In  segment BANKED_CODE, align 1, keep-with-next
   1322          afStatus_t ZDP_MgmtNwkUpdateReq( zAddrType_t *dstAddr,
   \                     ZDP_MgmtNwkUpdateReq:
   1323                                           uint32 ChannelMask,
   1324                                           uint8 ScanDuration,
   1325                                           uint8 ScanCount,
   1326                                           uint8 NwkUpdateId,
   1327                                           uint16 NwkManagerAddr )
   1328          {
   \   000000   74EA         MOV     A,#-0x16
   \   000002   12....       LCALL   ?BANKED_ENTER_XDATA
   \   000005                ; Saved register size: 22
   \   000005                ; Auto size: 0
   \   000005   8A..         MOV     ?V0 + 12,R2
   \   000007   8B..         MOV     ?V0 + 13,R3
   \   000009   89..         MOV     ?V0 + 3,R1
   \   00000B   8C..         MOV     ?V0 + 9,R4
   \   00000D   8D..         MOV     ?V0 + 8,R5
   \   00000F   7416         MOV     A,#0x16
   \   000011   12....       LCALL   ?XSTACK_DISP0_8
   \   000014   78..         MOV     R0,#?V0 + 4
   \   000016   12....       LCALL   ?L_MOV_X
   \   000019   741A         MOV     A,#0x1a
   \   00001B   12....       LCALL   ?XSTACK_DISP0_8
   \   00001E   E0           MOVX    A,@DPTR
   \   00001F   F5..         MOV     ?V0 + 0,A
   \   000021   A3           INC     DPTR
   \   000022   E0           MOVX    A,@DPTR
   \   000023   F5..         MOV     ?V0 + 1,A
   1329            uint8 *pBuf = ZDP_TmpBuf;
   \   000025   90....       MOV     DPTR,#ZDP_TmpBuf
   \   000028   E0           MOVX    A,@DPTR
   \   000029   FE           MOV     R6,A
   \   00002A   A3           INC     DPTR
   \   00002B   E0           MOVX    A,@DPTR
   \   00002C   FF           MOV     R7,A
   1330            byte len = sizeof( uint32 ) + 1;  // ChannelMask + ScanDuration
   \   00002D   75..05       MOV     ?V0 + 2,#0x5
   1331          
   1332            pBuf = osal_buffer_uint32( pBuf, ChannelMask );
   \   000030                ; Setup parameters for call to function osal_buffer_uint32
   \   000030   78..         MOV     R0,#?V0 + 4
   \   000032   12....       LCALL   ?PUSH_XSTACK_I_FOUR
   \   000035   EE           MOV     A,R6
   \   000036   FA           MOV     R2,A
   \   000037   EF           MOV     A,R7
   \   000038   FB           MOV     R3,A
   \   000039   12....       LCALL   ??osal_buffer_uint32?relay
   \   00003C   7404         MOV     A,#0x4
   \   00003E   12....       LCALL   ?DEALLOC_XSTACK8
   \   000041   8A..         MOV     ?V0 + 10,R2
   \   000043   8B..         MOV     ?V0 + 11,R3
   \   000045   AE..         MOV     R6,?V0 + 10
   \   000047   AF..         MOV     R7,?V0 + 11
   1333          
   1334            *pBuf++ = ScanDuration;
   \   000049   E5..         MOV     A,?V0 + 3
   \   00004B   8E82         MOV     DPL,R6
   \   00004D   8F83         MOV     DPH,R7
   \   00004F   E5..         MOV     A,?V0 + 3
   \   000051   F0           MOVX    @DPTR,A
   \   000052   8E82         MOV     DPL,R6
   \   000054   8F83         MOV     DPH,R7
   \   000056   A3           INC     DPTR
   \   000057   AE82         MOV     R6,DPL
   \   000059   AF83         MOV     R7,DPH
   1335          
   1336            if ( ScanDuration <= 0x05 )
   \   00005B   E5..         MOV     A,?V0 + 3
   \   00005D   C3           CLR     C
   \   00005E   9406         SUBB    A,#0x6
   \   000060   5016         JNC     ??ZDP_MgmtNwkUpdateReq_0
   1337            {
   1338              // Request is to scan over channelMask
   1339              len += sizeof( uint8 );
   \   000062   05..         INC     ?V0 + 2
   1340          
   1341              *pBuf++ = ScanCount;
   \   000064   E5..         MOV     A,?V0 + 9
   \   000066   8E82         MOV     DPL,R6
   \   000068   8F83         MOV     DPH,R7
   \   00006A   E5..         MOV     A,?V0 + 9
   \   00006C   F0           MOVX    @DPTR,A
   \   00006D   8E82         MOV     DPL,R6
   \   00006F   8F83         MOV     DPH,R7
   \   000071   A3           INC     DPTR
   \   000072   AE82         MOV     R6,DPL
   \   000074   AF83         MOV     R7,DPH
   \   000076   8057         SJMP    ??ZDP_MgmtNwkUpdateReq_1
   1342            }
   1343            else if ( ( ScanDuration == 0xFE ) || ( ScanDuration == 0xFF ) )
   \                     ??ZDP_MgmtNwkUpdateReq_0:
   \   000078   74FE         MOV     A,#-0x2
   \   00007A   65..         XRL     A,?V0 + 3
   \   00007C   6006         JZ      ??ZDP_MgmtNwkUpdateReq_2
   \   00007E   74FF         MOV     A,#-0x1
   \   000080   65..         XRL     A,?V0 + 3
   \   000082   704B         JNZ     ??ZDP_MgmtNwkUpdateReq_1
   1344            {
   1345              // Request is to change Channel (0xFE) or apsChannelMask and NwkManagerAddr (0xFF)
   1346              len += sizeof( uint8 );
   \                     ??ZDP_MgmtNwkUpdateReq_2:
   \   000084   05..         INC     ?V0 + 2
   1347          
   1348              *pBuf++ = NwkUpdateId;
   \   000086   E5..         MOV     A,?V0 + 8
   \   000088   8E82         MOV     DPL,R6
   \   00008A   8F83         MOV     DPH,R7
   \   00008C   E5..         MOV     A,?V0 + 8
   \   00008E   F0           MOVX    @DPTR,A
   \   00008F   8E82         MOV     DPL,R6
   \   000091   8F83         MOV     DPH,R7
   \   000093   A3           INC     DPTR
   \   000094   AE82         MOV     R6,DPL
   \   000096   AF83         MOV     R7,DPH
   1349          
   1350              if ( ScanDuration == 0xFF )
   \   000098   74FF         MOV     A,#-0x1
   \   00009A   65..         XRL     A,?V0 + 3
   \   00009C   7031         JNZ     ??ZDP_MgmtNwkUpdateReq_1
   1351              {
   1352                len += sizeof( uint16 );
   \   00009E   05..         INC     ?V0 + 2
   \   0000A0   05..         INC     ?V0 + 2
   1353          
   1354                *pBuf++  = LO_UINT16( NwkManagerAddr );
   \   0000A2   E5..         MOV     A,?V0 + 0
   \   0000A4   8E82         MOV     DPL,R6
   \   0000A6   8F83         MOV     DPH,R7
   \   0000A8   E5..         MOV     A,?V0 + 0
   \   0000AA   F0           MOVX    @DPTR,A
   \   0000AB   8E82         MOV     DPL,R6
   \   0000AD   8F83         MOV     DPH,R7
   \   0000AF   A3           INC     DPTR
   \   0000B0   AE82         MOV     R6,DPL
   \   0000B2   AF83         MOV     R7,DPH
   1355                *pBuf++  = HI_UINT16( NwkManagerAddr );
   \   0000B4   A8..         MOV     R0,?V0 + 0
   \   0000B6   A9..         MOV     R1,?V0 + 1
   \   0000B8   E4           CLR     A
   \   0000B9   E5..         MOV     A,?V0 + 1
   \   0000BB   A8..         MOV     R0,?V0 + 1
   \   0000BD   E5..         MOV     A,?V0 + 1
   \   0000BF   8E82         MOV     DPL,R6
   \   0000C1   8F83         MOV     DPH,R7
   \   0000C3   E5..         MOV     A,?V0 + 1
   \   0000C5   F0           MOVX    @DPTR,A
   \   0000C6   8E82         MOV     DPL,R6
   \   0000C8   8F83         MOV     DPH,R7
   \   0000CA   A3           INC     DPTR
   \   0000CB   AE82         MOV     R6,DPL
   \   0000CD   AF83         MOV     R7,DPH
   1356              }
   1357            }
   1358          
   1359            return fillAndSend( &ZDP_TransID, dstAddr, Mgmt_NWK_Update_req, len );
   \                     ??ZDP_MgmtNwkUpdateReq_1:
   \   0000CF                ; Setup parameters for call to function fillAndSend
   \   0000CF   75..38       MOV     ?V0 + 10,#0x38
   \   0000D2   75..00       MOV     ?V0 + 11,#0x0
   \   0000D5   78..         MOV     R0,#?V0 + 10
   \   0000D7   12....       LCALL   ?PUSH_XSTACK_I_TWO
   \   0000DA   A9..         MOV     R1,?V0 + 2
   \   0000DC   AC..         MOV     R4,?V0 + 12
   \   0000DE   AD..         MOV     R5,?V0 + 13
   \   0000E0   7A..         MOV     R2,#ZDP_TransID & 0xff
   \   0000E2   7B..         MOV     R3,#(ZDP_TransID >> 8) & 0xff
   \   0000E4   12....       LCALL   ??fillAndSend?relay
   \   0000E7   7402         MOV     A,#0x2
   \   0000E9   12....       LCALL   ?DEALLOC_XSTACK8
   \   0000EC   7F0E         MOV     R7,#0xe
   \   0000EE   02....       LJMP    ?BANKED_LEAVE_XDATA
   1360          }
   1361          
   1362          
   1363          /*********************************************************************
   1364           * Network Management Responses
   1365           */
   1366          
   1367          /*********************************************************************
   1368           * @fn          ZDP_MgmtNwkDiscRsp
   1369           *
   1370           * @brief       This builds and send a Mgmt_NWK_Disc_rsp message. This
   1371           *              function sends a unicast message.
   1372           *
   1373           * @param       dstAddr - destination address of the message
   1374           * @param       Status - message status (ZDP_SUCCESS or other)
   1375           * @param       NetworkCount - Total number of networks found
   1376           * @param       StartIndex - Starting index within the reporting network
   1377           *                           list
   1378           * @param       NetworkListCount - number of network lists included
   1379           *                                 in this message
   1380           * @param       NetworkList - List of network descriptors
   1381           * @param       SecurityEnable - Security Options
   1382           *
   1383           * @return      afStatus_t
   1384           */

   \                                 In  segment BANKED_CODE, align 1, keep-with-next
   1385          afStatus_t ZDP_MgmtNwkDiscRsp( byte TransSeq, zAddrType_t *dstAddr,
   \                     ZDP_MgmtNwkDiscRsp:
   1386                                      byte Status,
   1387                                      byte NetworkCount,
   1388                                      byte StartIndex,
   1389                                      byte NetworkListCount,
   1390                                      networkDesc_t *NetworkList,
   1391                                      byte SecurityEnable )
   1392          {
   \   000000   74E8         MOV     A,#-0x18
   \   000002   12....       LCALL   ?BANKED_ENTER_XDATA
   \   000005                ; Saved register size: 24
   \   000005                ; Auto size: 1
   \   000005   74FF         MOV     A,#-0x1
   \   000007   12....       LCALL   ?ALLOC_XSTACK8
   \   00000A   E9           MOV     A,R1
   \   00000B   85..82       MOV     DPL,?XSP + 0
   \   00000E   85..83       MOV     DPH,?XSP + 1
   \   000011   F0           MOVX    @DPTR,A
   \   000012   8A..         MOV     ?V0 + 14,R2
   \   000014   8B..         MOV     ?V0 + 15,R3
   \   000016   8C..         MOV     ?V0 + 12,R4
   \   000018   8D..         MOV     ?V0 + 11,R5
   \   00001A   7419         MOV     A,#0x19
   \   00001C   12....       LCALL   ?XSTACK_DISP0_8
   \   00001F   E0           MOVX    A,@DPTR
   \   000020   F5..         MOV     ?V0 + 10,A
   \   000022   741A         MOV     A,#0x1a
   \   000024   12....       LCALL   ?XSTACK_DISP0_8
   \   000027   E0           MOVX    A,@DPTR
   \   000028   F5..         MOV     ?V0 + 3,A
   \   00002A   741B         MOV     A,#0x1b
   \   00002C   12....       LCALL   ?XSTACK_DISP0_8
   \   00002F   E0           MOVX    A,@DPTR
   \   000030   F5..         MOV     ?V0 + 0,A
   \   000032   A3           INC     DPTR
   \   000033   E0           MOVX    A,@DPTR
   \   000034   F5..         MOV     ?V0 + 1,A
   \   000036   741D         MOV     A,#0x1d
   \   000038   12....       LCALL   ?XSTACK_DISP0_8
   \   00003B   E0           MOVX    A,@DPTR
   \   00003C   F5..         MOV     ?V0 + 13,A
   1393            uint8 *buf;
   1394            uint8 *pBuf;
   1395            byte len = 1+1+1+1;  // Status + NetworkCount + StartIndex + NetworkCountList.
   \   00003E   75..04       MOV     ?V0 + 2,#0x4
   1396            byte idx;
   1397          
   1398            (void)SecurityEnable;  // Intentionally unreferenced parameter
   1399          
   1400            len += (NetworkListCount * ( ZDP_NETWORK_EXTENDED_DISCRIPTOR_SIZE - 2 ));
   \   000041   75F00C       MOV     B,#0xc
   \   000044   E5..         MOV     A,?V0 + 3
   \   000046   A4           MUL     AB
   \   000047   25..         ADD     A,?V0 + 2
   \   000049   F5..         MOV     ?V0 + 2,A
   1401          
   1402            buf = osal_mem_alloc( len+1 );
   \   00004B                ; Setup parameters for call to function osal_mem_alloc
   \   00004B   85....       MOV     ?V0 + 8,?V0 + 2
   \   00004E   75..00       MOV     ?V0 + 9,#0x0
   \   000051   E5..         MOV     A,?V0 + 8
   \   000053   2401         ADD     A,#0x1
   \   000055   FA           MOV     R2,A
   \   000056   E5..         MOV     A,?V0 + 9
   \   000058   3400         ADDC    A,#0x0
   \   00005A   FB           MOV     R3,A
   \   00005B   12....       LCALL   ??osal_mem_alloc?relay
   \   00005E   8A..         MOV     ?V0 + 8,R2
   \   000060   8B..         MOV     ?V0 + 9,R3
   \   000062   85....       MOV     ?V0 + 6,?V0 + 8
   \   000065   85....       MOV     ?V0 + 7,?V0 + 9
   1403            if ( buf == NULL )
   \   000068   E5..         MOV     A,?V0 + 6
   \   00006A   45..         ORL     A,?V0 + 7
   \   00006C   7005         JNZ     ??ZDP_MgmtNwkDiscRsp_0
   1404            {
   1405              return afStatus_MEM_FAIL;
   \   00006E   7910         MOV     R1,#0x10
   \   000070   02....       LJMP    ??ZDP_MgmtNwkDiscRsp_1 & 0xFFFF
   1406            }
   1407          
   1408            pBuf = buf+1;
   \                     ??ZDP_MgmtNwkDiscRsp_0:
   \   000073   85..82       MOV     DPL,?V0 + 6
   \   000076   85..83       MOV     DPH,?V0 + 7
   \   000079   A3           INC     DPTR
   \   00007A   AE82         MOV     R6,DPL
   \   00007C   AF83         MOV     R7,DPH
   1409          
   1410            *pBuf++ = Status;
   \   00007E   E5..         MOV     A,?V0 + 12
   \   000080   8E82         MOV     DPL,R6
   \   000082   8F83         MOV     DPH,R7
   \   000084   E5..         MOV     A,?V0 + 12
   \   000086   F0           MOVX    @DPTR,A
   \   000087   8E82         MOV     DPL,R6
   \   000089   8F83         MOV     DPH,R7
   \   00008B   A3           INC     DPTR
   \   00008C   AE82         MOV     R6,DPL
   \   00008E   AF83         MOV     R7,DPH
   1411            *pBuf++ = NetworkCount;
   \   000090   E5..         MOV     A,?V0 + 11
   \   000092   8E82         MOV     DPL,R6
   \   000094   8F83         MOV     DPH,R7
   \   000096   E5..         MOV     A,?V0 + 11
   \   000098   F0           MOVX    @DPTR,A
   \   000099   8E82         MOV     DPL,R6
   \   00009B   8F83         MOV     DPH,R7
   \   00009D   A3           INC     DPTR
   \   00009E   AE82         MOV     R6,DPL
   \   0000A0   AF83         MOV     R7,DPH
   1412            *pBuf++ = StartIndex;
   \   0000A2   E5..         MOV     A,?V0 + 10
   \   0000A4   8E82         MOV     DPL,R6
   \   0000A6   8F83         MOV     DPH,R7
   \   0000A8   E5..         MOV     A,?V0 + 10
   \   0000AA   F0           MOVX    @DPTR,A
   \   0000AB   8E82         MOV     DPL,R6
   \   0000AD   8F83         MOV     DPH,R7
   \   0000AF   A3           INC     DPTR
   \   0000B0   AE82         MOV     R6,DPL
   \   0000B2   AF83         MOV     R7,DPH
   1413            *pBuf++ = NetworkListCount;
   \   0000B4   E5..         MOV     A,?V0 + 3
   \   0000B6   8E82         MOV     DPL,R6
   \   0000B8   8F83         MOV     DPH,R7
   \   0000BA   E5..         MOV     A,?V0 + 3
   \   0000BC   F0           MOVX    @DPTR,A
   \   0000BD   8E82         MOV     DPL,R6
   \   0000BF   8F83         MOV     DPH,R7
   \   0000C1   A3           INC     DPTR
   \   0000C2   AE82         MOV     R6,DPL
   \   0000C4   AF83         MOV     R7,DPH
   1414          
   1415            for ( idx = 0; idx < NetworkListCount; idx++ )
   \   0000C6   75..00       MOV     ?V0 + 4,#0x0
   \                     ??ZDP_MgmtNwkDiscRsp_2:
   \   0000C9   E5..         MOV     A,?V0 + 4
   \   0000CB   C3           CLR     C
   \   0000CC   95..         SUBB    A,?V0 + 3
   \   0000CE   4003         JC      $+5
   \   0000D0   02....       LJMP    ??ZDP_MgmtNwkDiscRsp_3 & 0xFFFF
   1416            {
   1417              osal_cpyExtAddr( pBuf, NetworkList->extendedPANID);
   \   0000D3                ; Setup parameters for call to function sAddrExtCpy
   \   0000D3   E5..         MOV     A,?V0 + 0
   \   0000D5   240B         ADD     A,#0xb
   \   0000D7   FC           MOV     R4,A
   \   0000D8   E5..         MOV     A,?V0 + 1
   \   0000DA   3400         ADDC    A,#0x0
   \   0000DC   FD           MOV     R5,A
   \   0000DD   EE           MOV     A,R6
   \   0000DE   FA           MOV     R2,A
   \   0000DF   EF           MOV     A,R7
   \   0000E0   FB           MOV     R3,A
   \   0000E1   12....       LCALL   ??sAddrExtCpy?relay
   1418              pBuf += Z_EXTADDR_LEN;
   \   0000E4   EE           MOV     A,R6
   \   0000E5   2408         ADD     A,#0x8
   \   0000E7   FE           MOV     R6,A
   \   0000E8   EF           MOV     A,R7
   \   0000E9   3400         ADDC    A,#0x0
   \   0000EB   FF           MOV     R7,A
   1419          
   1420              *pBuf++  = NetworkList->logicalChannel;                // LogicalChannel
   \   0000EC   85..82       MOV     DPL,?V0 + 0
   \   0000EF   85..83       MOV     DPH,?V0 + 1
   \   0000F2   A3           INC     DPTR
   \   0000F3   A3           INC     DPTR
   \   0000F4   E0           MOVX    A,@DPTR
   \   0000F5   8E82         MOV     DPL,R6
   \   0000F7   8F83         MOV     DPH,R7
   \   0000F9   F0           MOVX    @DPTR,A
   \   0000FA   8E82         MOV     DPL,R6
   \   0000FC   8F83         MOV     DPH,R7
   \   0000FE   A3           INC     DPTR
   \   0000FF   AE82         MOV     R6,DPL
   \   000101   AF83         MOV     R7,DPH
   1421              *pBuf    = NetworkList->stackProfile;                  // Stack profile
   \   000103   85..82       MOV     DPL,?V0 + 0
   \   000106   85..83       MOV     DPH,?V0 + 1
   \   000109   A3           INC     DPTR
   \   00010A   A3           INC     DPTR
   \   00010B   A3           INC     DPTR
   \   00010C   A3           INC     DPTR
   \   00010D   A3           INC     DPTR
   \   00010E   A3           INC     DPTR
   \   00010F   E0           MOVX    A,@DPTR
   \   000110   8E82         MOV     DPL,R6
   \   000112   8F83         MOV     DPH,R7
   \   000114   F0           MOVX    @DPTR,A
   1422              *pBuf++ |= (byte)(NetworkList->version << 4);          // ZigBee Version
   \   000115   EE           MOV     A,R6
   \   000116   F8           MOV     R0,A
   \   000117   EF           MOV     A,R7
   \   000118   F9           MOV     R1,A
   \   000119   8882         MOV     DPL,R0
   \   00011B   8983         MOV     DPH,R1
   \   00011D   A3           INC     DPTR
   \   00011E   AE82         MOV     R6,DPL
   \   000120   AF83         MOV     R7,DPH
   \   000122   85..82       MOV     DPL,?V0 + 0
   \   000125   85..83       MOV     DPH,?V0 + 1
   \   000128   A3           INC     DPTR
   \   000129   A3           INC     DPTR
   \   00012A   A3           INC     DPTR
   \   00012B   A3           INC     DPTR
   \   00012C   A3           INC     DPTR
   \   00012D   E0           MOVX    A,@DPTR
   \   00012E   C4           SWAP    A
   \   00012F   54F0         ANL     A,#0xf0
   \   000131   FA           MOV     R2,A
   \   000132   8882         MOV     DPL,R0
   \   000134   8983         MOV     DPH,R1
   \   000136   E0           MOVX    A,@DPTR
   \   000137   4A           ORL     A,R2
   \   000138   F0           MOVX    @DPTR,A
   1423              *pBuf    = BEACON_ORDER_NO_BEACONS;                    // Beacon Order
   \   000139   8E82         MOV     DPL,R6
   \   00013B   8F83         MOV     DPH,R7
   \   00013D   740F         MOV     A,#0xf
   \   00013F   F0           MOVX    @DPTR,A
   1424              *pBuf++ |= (uint8)(BEACON_ORDER_NO_BEACONS << 4);      // Superframe Order
   \   000140   EE           MOV     A,R6
   \   000141   F8           MOV     R0,A
   \   000142   EF           MOV     A,R7
   \   000143   F9           MOV     R1,A
   \   000144   8882         MOV     DPL,R0
   \   000146   8983         MOV     DPH,R1
   \   000148   A3           INC     DPTR
   \   000149   AE82         MOV     R6,DPL
   \   00014B   AF83         MOV     R7,DPH
   \   00014D   8882         MOV     DPL,R0
   \   00014F   8983         MOV     DPH,R1
   \   000151   E0           MOVX    A,@DPTR
   \   000152   44F0         ORL     A,#0xf0
   \   000154   F0           MOVX    @DPTR,A
   1425          
   1426              if ( NetworkList->chosenRouter != INVALID_NODE_ADDR )
   \   000155   85..82       MOV     DPL,?V0 + 0
   \   000158   85..83       MOV     DPH,?V0 + 1
   \   00015B   A3           INC     DPTR
   \   00015C   A3           INC     DPTR
   \   00015D   A3           INC     DPTR
   \   00015E   A3           INC     DPTR
   \   00015F   A3           INC     DPTR
   \   000160   A3           INC     DPTR
   \   000161   A3           INC     DPTR
   \   000162   E0           MOVX    A,@DPTR
   \   000163   64FE         XRL     A,#0xfe
   \   000165   7004         JNZ     ??ZDP_MgmtNwkDiscRsp_4
   \   000167   A3           INC     DPTR
   \   000168   E0           MOVX    A,@DPTR
   \   000169   64FF         XRL     A,#0xff
   \                     ??ZDP_MgmtNwkDiscRsp_4:
   \   00016B   6012         JZ      ??ZDP_MgmtNwkDiscRsp_5
   1427              {
   1428                *pBuf++ = TRUE;                         // Permit Joining
   \   00016D   8E82         MOV     DPL,R6
   \   00016F   8F83         MOV     DPH,R7
   \   000171   7401         MOV     A,#0x1
   \   000173   F0           MOVX    @DPTR,A
   \   000174   8E82         MOV     DPL,R6
   \   000176   8F83         MOV     DPH,R7
   \   000178   A3           INC     DPTR
   \   000179   AE82         MOV     R6,DPL
   \   00017B   AF83         MOV     R7,DPH
   \   00017D   8010         SJMP    ??ZDP_MgmtNwkDiscRsp_6
   1429              }
   1430              else
   1431              {
   1432                *pBuf++ = FALSE;
   \                     ??ZDP_MgmtNwkDiscRsp_5:
   \   00017F   8E82         MOV     DPL,R6
   \   000181   8F83         MOV     DPH,R7
   \   000183   7400         MOV     A,#0x0
   \   000185   F0           MOVX    @DPTR,A
   \   000186   8E82         MOV     DPL,R6
   \   000188   8F83         MOV     DPH,R7
   \   00018A   A3           INC     DPTR
   \   00018B   AE82         MOV     R6,DPL
   \   00018D   AF83         MOV     R7,DPH
   1433              }
   1434          
   1435              NetworkList = NetworkList->nextDesc;    // Move to next list entry
   \                     ??ZDP_MgmtNwkDiscRsp_6:
   \   00018F   E5..         MOV     A,?V0 + 0
   \   000191   2414         ADD     A,#0x14
   \   000193   F582         MOV     DPL,A
   \   000195   E5..         MOV     A,?V0 + 1
   \   000197   3400         ADDC    A,#0x0
   \   000199   F583         MOV     DPH,A
   \   00019B   E0           MOVX    A,@DPTR
   \   00019C   F5..         MOV     ?V0 + 0,A
   \   00019E   A3           INC     DPTR
   \   00019F   E0           MOVX    A,@DPTR
   \   0001A0   F5..         MOV     ?V0 + 1,A
   1436            }
   \   0001A2   05..         INC     ?V0 + 4
   \   0001A4   02....       LJMP    ??ZDP_MgmtNwkDiscRsp_2 & 0xFFFF
   1437          
   1438            FillAndSendBuffer( &TransSeq, dstAddr, Mgmt_NWK_Disc_rsp, len, buf );
   \                     ??ZDP_MgmtNwkDiscRsp_3:
   \   0001A7   85..82       MOV     DPL,?V0 + 6
   \   0001AA   85..83       MOV     DPH,?V0 + 7
   \   0001AD   A3           INC     DPTR
   \   0001AE   A882         MOV     R0,DPL
   \   0001B0   A983         MOV     R1,DPH
   \   0001B2   90....       MOV     DPTR,#ZDP_TmpBuf
   \   0001B5   E8           MOV     A,R0
   \   0001B6   F0           MOVX    @DPTR,A
   \   0001B7   A3           INC     DPTR
   \   0001B8   E9           MOV     A,R1
   \   0001B9   F0           MOVX    @DPTR,A
   \   0001BA                ; Setup parameters for call to function fillAndSend
   \   0001BA   75..30       MOV     ?V0 + 8,#0x30
   \   0001BD   75..80       MOV     ?V0 + 9,#-0x80
   \   0001C0   78..         MOV     R0,#?V0 + 8
   \   0001C2   12....       LCALL   ?PUSH_XSTACK_I_TWO
   \   0001C5   A9..         MOV     R1,?V0 + 2
   \   0001C7   AC..         MOV     R4,?V0 + 14
   \   0001C9   AD..         MOV     R5,?V0 + 15
   \   0001CB   7402         MOV     A,#0x2
   \   0001CD   12....       LCALL   ?XSTACK_DISP0_8
   \   0001D0   AA82         MOV     R2,DPL
   \   0001D2   AB83         MOV     R3,DPH
   \   0001D4   12....       LCALL   ??fillAndSend?relay
   \   0001D7   7402         MOV     A,#0x2
   \   0001D9   12....       LCALL   ?DEALLOC_XSTACK8
   \   0001DC   E9           MOV     A,R1
   \   0001DD   F5..         MOV     ?V0 + 5,A
   \   0001DF                ; Setup parameters for call to function osal_mem_free
   \   0001DF   AA..         MOV     R2,?V0 + 6
   \   0001E1   AB..         MOV     R3,?V0 + 7
   \   0001E3   12....       LCALL   ??osal_mem_free?relay
   \   0001E6   90....       MOV     DPTR,#ZDP_TmpBuf
   \   0001E9   74..         MOV     A,#(ZDP_Buf + 1) & 0xff
   \   0001EB   F0           MOVX    @DPTR,A
   \   0001EC   A3           INC     DPTR
   \   0001ED   74..         MOV     A,#((ZDP_Buf + 1) >> 8) & 0xff
   \   0001EF   F0           MOVX    @DPTR,A
   \   0001F0   A9..         MOV     R1,?V0 + 5
   \                     ??ZDP_MgmtNwkDiscRsp_1:
   \   0001F2   7401         MOV     A,#0x1
   \   0001F4   12....       LCALL   ?DEALLOC_XSTACK8
   \   0001F7   7F10         MOV     R7,#0x10
   \   0001F9   02....       LJMP    ?BANKED_LEAVE_XDATA
   1439          }
   1440          
   1441          /*********************************************************************
   1442           * @fn          ZDP_MgmtLqiRsp
   1443           *
   1444           * @brief       This builds and send a Mgmt_Lqi_rsp message. This
   1445           *              function sends a unicast message.
   1446           *
   1447           * @param       dstAddr - destination address of the message
   1448           * @param       Status - message status (ZDP_SUCCESS or other)
   1449           * @param       NeighborLqiEntries - Total number of entries found
   1450           * @param       StartIndex - Starting index within the reporting list
   1451           * @param       NeighborLqiCount - number of lists included
   1452           *                                 in this message
   1453           * @param       NeighborLqiList - List of NeighborLqiItems.  This list
   1454           *                is the list to be sent, not the entire list
   1455           * @param       SecurityEnable - true if secure
   1456           *
   1457           * @return      ZStatus_t
   1458           */

   \                                 In  segment BANKED_CODE, align 1, keep-with-next
   1459          ZStatus_t ZDP_MgmtLqiRsp( byte TransSeq, zAddrType_t *dstAddr,
   \                     ZDP_MgmtLqiRsp:
   1460                                    byte Status,
   1461                                    byte NeighborLqiEntries,
   1462                                    byte StartIndex,
   1463                                    byte NeighborLqiCount,
   1464                                    ZDP_MgmtLqiItem_t* NeighborList,
   1465                                    byte SecurityEnable )
   1466          {
   \   000000   74E8         MOV     A,#-0x18
   \   000002   12....       LCALL   ?BANKED_ENTER_XDATA
   \   000005                ; Saved register size: 24
   \   000005                ; Auto size: 1
   \   000005   74FF         MOV     A,#-0x1
   \   000007   12....       LCALL   ?ALLOC_XSTACK8
   \   00000A   E9           MOV     A,R1
   \   00000B   85..82       MOV     DPL,?XSP + 0
   \   00000E   85..83       MOV     DPH,?XSP + 1
   \   000011   F0           MOVX    @DPTR,A
   \   000012   8A..         MOV     ?V0 + 14,R2
   \   000014   8B..         MOV     ?V0 + 15,R3
   \   000016   8C..         MOV     ?V0 + 4,R4
   \   000018   8D..         MOV     ?V0 + 12,R5
   \   00001A   7419         MOV     A,#0x19
   \   00001C   12....       LCALL   ?XSTACK_DISP0_8
   \   00001F   E0           MOVX    A,@DPTR
   \   000020   F5..         MOV     ?V0 + 11,A
   \   000022   741A         MOV     A,#0x1a
   \   000024   12....       LCALL   ?XSTACK_DISP0_8
   \   000027   E0           MOVX    A,@DPTR
   \   000028   F5..         MOV     ?V0 + 6,A
   \   00002A   741D         MOV     A,#0x1d
   \   00002C   12....       LCALL   ?XSTACK_DISP0_8
   \   00002F   E0           MOVX    A,@DPTR
   \   000030   F5..         MOV     ?V0 + 13,A
   1467            ZDP_MgmtLqiItem_t* list = NeighborList;
   \   000032   741B         MOV     A,#0x1b
   \   000034   12....       LCALL   ?XSTACK_DISP0_8
   \   000037   E0           MOVX    A,@DPTR
   \   000038   F5..         MOV     ?V0 + 0,A
   \   00003A   A3           INC     DPTR
   \   00003B   E0           MOVX    A,@DPTR
   \   00003C   F5..         MOV     ?V0 + 1,A
   1468            uint8 *buf, *pBuf;
   1469            byte len, x;
   1470          
   1471            (void)SecurityEnable;  // Intentionally unreferenced parameter
   1472          
   1473            if ( ZSuccess != Status )
   \   00003E   E5..         MOV     A,?V0 + 4
   \   000040   6035         JZ      ??ZDP_MgmtLqiRsp_0
   1474            {
   1475              ZDP_TmpBuf[0] = Status;
   \   000042   E5..         MOV     A,?V0 + 4
   \   000044   90....       MOV     DPTR,#ZDP_TmpBuf
   \   000047   E0           MOVX    A,@DPTR
   \   000048   F8           MOV     R0,A
   \   000049   A3           INC     DPTR
   \   00004A   E0           MOVX    A,@DPTR
   \   00004B   F583         MOV     DPH,A
   \   00004D   8882         MOV     DPL,R0
   \   00004F   E5..         MOV     A,?V0 + 4
   \   000051   F0           MOVX    @DPTR,A
   1476              return fillAndSend( &TransSeq, dstAddr, Mgmt_Lqi_rsp, 1 );
   \   000052                ; Setup parameters for call to function fillAndSend
   \   000052   75..31       MOV     ?V0 + 8,#0x31
   \   000055   75..80       MOV     ?V0 + 9,#-0x80
   \   000058   78..         MOV     R0,#?V0 + 8
   \   00005A   12....       LCALL   ?PUSH_XSTACK_I_TWO
   \   00005D   7901         MOV     R1,#0x1
   \   00005F   AC..         MOV     R4,?V0 + 14
   \   000061   AD..         MOV     R5,?V0 + 15
   \   000063   7402         MOV     A,#0x2
   \   000065   12....       LCALL   ?XSTACK_DISP0_8
   \   000068   AA82         MOV     R2,DPL
   \   00006A   AB83         MOV     R3,DPH
   \   00006C   12....       LCALL   ??fillAndSend?relay
   \   00006F   7402         MOV     A,#0x2
   \   000071   12....       LCALL   ?DEALLOC_XSTACK8
   \   000074   02....       LJMP    ??ZDP_MgmtLqiRsp_1 & 0xFFFF
   1477            }
   1478          
   1479            // (Status + NeighborLqiEntries + StartIndex + NeighborLqiCount) +
   1480            //  neighbor LQI data.
   1481            len = (1 + 1 + 1 + 1) + (NeighborLqiCount * ZDP_MGMTLQI_EXTENDED_SIZE);
   \                     ??ZDP_MgmtLqiRsp_0:
   \   000077   75F016       MOV     B,#0x16
   \   00007A   E5..         MOV     A,?V0 + 6
   \   00007C   A4           MUL     AB
   \   00007D   2404         ADD     A,#0x4
   \   00007F   F5..         MOV     ?V0 + 10,A
   1482          
   1483            buf = osal_mem_alloc( len+1 );
   \   000081                ; Setup parameters for call to function osal_mem_alloc
   \   000081   85....       MOV     ?V0 + 8,?V0 + 10
   \   000084   75..00       MOV     ?V0 + 9,#0x0
   \   000087   E5..         MOV     A,?V0 + 8
   \   000089   2401         ADD     A,#0x1
   \   00008B   FA           MOV     R2,A
   \   00008C   E5..         MOV     A,?V0 + 9
   \   00008E   3400         ADDC    A,#0x0
   \   000090   FB           MOV     R3,A
   \   000091   12....       LCALL   ??osal_mem_alloc?relay
   \   000094   8A..         MOV     ?V0 + 8,R2
   \   000096   8B..         MOV     ?V0 + 9,R3
   \   000098   85....       MOV     ?V0 + 2,?V0 + 8
   \   00009B   85....       MOV     ?V0 + 3,?V0 + 9
   1484            if ( buf == NULL )
   \   00009E   E5..         MOV     A,?V0 + 2
   \   0000A0   45..         ORL     A,?V0 + 3
   \   0000A2   7005         JNZ     ??ZDP_MgmtLqiRsp_2
   1485            {
   1486              return afStatus_MEM_FAIL;
   \   0000A4   7910         MOV     R1,#0x10
   \   0000A6   02....       LJMP    ??ZDP_MgmtLqiRsp_1 & 0xFFFF
   1487            }
   1488          
   1489            pBuf = buf+1;
   \                     ??ZDP_MgmtLqiRsp_2:
   \   0000A9   85..82       MOV     DPL,?V0 + 2
   \   0000AC   85..83       MOV     DPH,?V0 + 3
   \   0000AF   A3           INC     DPTR
   \   0000B0   AE82         MOV     R6,DPL
   \   0000B2   AF83         MOV     R7,DPH
   1490          
   1491            *pBuf++ = Status;
   \   0000B4   E5..         MOV     A,?V0 + 4
   \   0000B6   8E82         MOV     DPL,R6
   \   0000B8   8F83         MOV     DPH,R7
   \   0000BA   E5..         MOV     A,?V0 + 4
   \   0000BC   F0           MOVX    @DPTR,A
   \   0000BD   8E82         MOV     DPL,R6
   \   0000BF   8F83         MOV     DPH,R7
   \   0000C1   A3           INC     DPTR
   \   0000C2   AE82         MOV     R6,DPL
   \   0000C4   AF83         MOV     R7,DPH
   1492            *pBuf++ = NeighborLqiEntries;
   \   0000C6   E5..         MOV     A,?V0 + 12
   \   0000C8   8E82         MOV     DPL,R6
   \   0000CA   8F83         MOV     DPH,R7
   \   0000CC   E5..         MOV     A,?V0 + 12
   \   0000CE   F0           MOVX    @DPTR,A
   \   0000CF   8E82         MOV     DPL,R6
   \   0000D1   8F83         MOV     DPH,R7
   \   0000D3   A3           INC     DPTR
   \   0000D4   AE82         MOV     R6,DPL
   \   0000D6   AF83         MOV     R7,DPH
   1493            *pBuf++ = StartIndex;
   \   0000D8   E5..         MOV     A,?V0 + 11
   \   0000DA   8E82         MOV     DPL,R6
   \   0000DC   8F83         MOV     DPH,R7
   \   0000DE   E5..         MOV     A,?V0 + 11
   \   0000E0   F0           MOVX    @DPTR,A
   \   0000E1   8E82         MOV     DPL,R6
   \   0000E3   8F83         MOV     DPH,R7
   \   0000E5   A3           INC     DPTR
   \   0000E6   AE82         MOV     R6,DPL
   \   0000E8   AF83         MOV     R7,DPH
   1494            *pBuf++ = NeighborLqiCount;
   \   0000EA   E5..         MOV     A,?V0 + 6
   \   0000EC   8E82         MOV     DPL,R6
   \   0000EE   8F83         MOV     DPH,R7
   \   0000F0   E5..         MOV     A,?V0 + 6
   \   0000F2   F0           MOVX    @DPTR,A
   \   0000F3   8E82         MOV     DPL,R6
   \   0000F5   8F83         MOV     DPH,R7
   \   0000F7   A3           INC     DPTR
   \   0000F8   AE82         MOV     R6,DPL
   \   0000FA   AF83         MOV     R7,DPH
   1495          
   1496            for ( x = 0; x < NeighborLqiCount; x++ )
   \   0000FC   75..00       MOV     ?V0 + 7,#0x0
   \                     ??ZDP_MgmtLqiRsp_3:
   \   0000FF   E5..         MOV     A,?V0 + 7
   \   000101   C3           CLR     C
   \   000102   95..         SUBB    A,?V0 + 6
   \   000104   4003         JC      $+5
   \   000106   02....       LJMP    ??ZDP_MgmtLqiRsp_4 & 0xFFFF
   1497            {
   1498              osal_cpyExtAddr( pBuf, list->extPanID);         // Extended PanID
   \   000109                ; Setup parameters for call to function sAddrExtCpy
   \   000109   E5..         MOV     A,?V0 + 0
   \   00010B   2402         ADD     A,#0x2
   \   00010D   FC           MOV     R4,A
   \   00010E   E5..         MOV     A,?V0 + 1
   \   000110   3400         ADDC    A,#0x0
   \   000112   FD           MOV     R5,A
   \   000113   EE           MOV     A,R6
   \   000114   FA           MOV     R2,A
   \   000115   EF           MOV     A,R7
   \   000116   FB           MOV     R3,A
   \   000117   12....       LCALL   ??sAddrExtCpy?relay
   1499              pBuf += Z_EXTADDR_LEN;
   \   00011A   EE           MOV     A,R6
   \   00011B   2408         ADD     A,#0x8
   \   00011D   FE           MOV     R6,A
   \   00011E   EF           MOV     A,R7
   \   00011F   3400         ADDC    A,#0x0
   \   000121   FF           MOV     R7,A
   1500          
   1501              // EXTADDR
   1502              pBuf = osal_cpyExtAddr( pBuf, list->extAddr );
   \   000122                ; Setup parameters for call to function sAddrExtCpy
   \   000122   E5..         MOV     A,?V0 + 0
   \   000124   240A         ADD     A,#0xa
   \   000126   FC           MOV     R4,A
   \   000127   E5..         MOV     A,?V0 + 1
   \   000129   3400         ADDC    A,#0x0
   \   00012B   FD           MOV     R5,A
   \   00012C   EE           MOV     A,R6
   \   00012D   FA           MOV     R2,A
   \   00012E   EF           MOV     A,R7
   \   00012F   FB           MOV     R3,A
   \   000130   12....       LCALL   ??sAddrExtCpy?relay
   \   000133   8A..         MOV     ?V0 + 8,R2
   \   000135   8B..         MOV     ?V0 + 9,R3
   \   000137   AE..         MOV     R6,?V0 + 8
   \   000139   AF..         MOV     R7,?V0 + 9
   1503          
   1504              // NWKADDR
   1505              *pBuf++ = LO_UINT16( list->nwkAddr );
   \   00013B   E5..         MOV     A,?V0 + 0
   \   00013D   2412         ADD     A,#0x12
   \   00013F   F582         MOV     DPL,A
   \   000141   E5..         MOV     A,?V0 + 1
   \   000143   3400         ADDC    A,#0x0
   \   000145   F583         MOV     DPH,A
   \   000147   E0           MOVX    A,@DPTR
   \   000148   F8           MOV     R0,A
   \   000149   A3           INC     DPTR
   \   00014A   E0           MOVX    A,@DPTR
   \   00014B   F9           MOV     R1,A
   \   00014C   E8           MOV     A,R0
   \   00014D   8E82         MOV     DPL,R6
   \   00014F   8F83         MOV     DPH,R7
   \   000151   F0           MOVX    @DPTR,A
   \   000152   8E82         MOV     DPL,R6
   \   000154   8F83         MOV     DPH,R7
   \   000156   A3           INC     DPTR
   \   000157   AE82         MOV     R6,DPL
   \   000159   AF83         MOV     R7,DPH
   1506              *pBuf++ = HI_UINT16( list->nwkAddr );
   \   00015B   E5..         MOV     A,?V0 + 0
   \   00015D   2412         ADD     A,#0x12
   \   00015F   F582         MOV     DPL,A
   \   000161   E5..         MOV     A,?V0 + 1
   \   000163   3400         ADDC    A,#0x0
   \   000165   F583         MOV     DPH,A
   \   000167   E0           MOVX    A,@DPTR
   \   000168   F8           MOV     R0,A
   \   000169   A3           INC     DPTR
   \   00016A   E0           MOVX    A,@DPTR
   \   00016B   F9           MOV     R1,A
   \   00016C   E4           CLR     A
   \   00016D   E9           MOV     A,R1
   \   00016E   F8           MOV     R0,A
   \   00016F   8E82         MOV     DPL,R6
   \   000171   8F83         MOV     DPH,R7
   \   000173   F0           MOVX    @DPTR,A
   \   000174   8E82         MOV     DPL,R6
   \   000176   8F83         MOV     DPH,R7
   \   000178   A3           INC     DPTR
   \   000179   AE82         MOV     R6,DPL
   \   00017B   AF83         MOV     R7,DPH
   1507          
   1508              // DEVICETYPE
   1509              *pBuf = list->devType;
   \   00017D   E5..         MOV     A,?V0 + 0
   \   00017F   2414         ADD     A,#0x14
   \   000181   F582         MOV     DPL,A
   \   000183   E5..         MOV     A,?V0 + 1
   \   000185   3400         ADDC    A,#0x0
   \   000187   F583         MOV     DPH,A
   \   000189   E0           MOVX    A,@DPTR
   \   00018A   8E82         MOV     DPL,R6
   \   00018C   8F83         MOV     DPH,R7
   \   00018E   F0           MOVX    @DPTR,A
   1510          
   1511              // RXONIDLE
   1512              *pBuf |= (uint8)(list->rxOnIdle << 2);
   \   00018F   E5..         MOV     A,?V0 + 0
   \   000191   2415         ADD     A,#0x15
   \   000193   F582         MOV     DPL,A
   \   000195   E5..         MOV     A,?V0 + 1
   \   000197   3400         ADDC    A,#0x0
   \   000199   F583         MOV     DPH,A
   \   00019B   E0           MOVX    A,@DPTR
   \   00019C   33           RLC     A
   \   00019D   33           RLC     A
   \   00019E   54FC         ANL     A,#0xfc
   \   0001A0   F8           MOV     R0,A
   \   0001A1   8E82         MOV     DPL,R6
   \   0001A3   8F83         MOV     DPH,R7
   \   0001A5   E0           MOVX    A,@DPTR
   \   0001A6   48           ORL     A,R0
   \   0001A7   F0           MOVX    @DPTR,A
   1513          
   1514              // RELATIONSHIP
   1515              *pBuf++ |= (uint8)(list->relation << 4);
   \   0001A8   EE           MOV     A,R6
   \   0001A9   F8           MOV     R0,A
   \   0001AA   EF           MOV     A,R7
   \   0001AB   F9           MOV     R1,A
   \   0001AC   8882         MOV     DPL,R0
   \   0001AE   8983         MOV     DPH,R1
   \   0001B0   A3           INC     DPTR
   \   0001B1   AE82         MOV     R6,DPL
   \   0001B3   AF83         MOV     R7,DPH
   \   0001B5   E5..         MOV     A,?V0 + 0
   \   0001B7   2416         ADD     A,#0x16
   \   0001B9   F582         MOV     DPL,A
   \   0001BB   E5..         MOV     A,?V0 + 1
   \   0001BD   3400         ADDC    A,#0x0
   \   0001BF   F583         MOV     DPH,A
   \   0001C1   E0           MOVX    A,@DPTR
   \   0001C2   C4           SWAP    A
   \   0001C3   54F0         ANL     A,#0xf0
   \   0001C5   FA           MOV     R2,A
   \   0001C6   8882         MOV     DPL,R0
   \   0001C8   8983         MOV     DPH,R1
   \   0001CA   E0           MOVX    A,@DPTR
   \   0001CB   4A           ORL     A,R2
   \   0001CC   F0           MOVX    @DPTR,A
   1516          
   1517              // PERMITJOINING
   1518              *pBuf++ = (uint8)(list->permit);
   \   0001CD   E5..         MOV     A,?V0 + 0
   \   0001CF   2417         ADD     A,#0x17
   \   0001D1   F582         MOV     DPL,A
   \   0001D3   E5..         MOV     A,?V0 + 1
   \   0001D5   3400         ADDC    A,#0x0
   \   0001D7   F583         MOV     DPH,A
   \   0001D9   E0           MOVX    A,@DPTR
   \   0001DA   8E82         MOV     DPL,R6
   \   0001DC   8F83         MOV     DPH,R7
   \   0001DE   F0           MOVX    @DPTR,A
   \   0001DF   8E82         MOV     DPL,R6
   \   0001E1   8F83         MOV     DPH,R7
   \   0001E3   A3           INC     DPTR
   \   0001E4   AE82         MOV     R6,DPL
   \   0001E6   AF83         MOV     R7,DPH
   1519          
   1520              // DEPTH
   1521              *pBuf++ = list->depth;
   \   0001E8   E5..         MOV     A,?V0 + 0
   \   0001EA   2418         ADD     A,#0x18
   \   0001EC   F582         MOV     DPL,A
   \   0001EE   E5..         MOV     A,?V0 + 1
   \   0001F0   3400         ADDC    A,#0x0
   \   0001F2   F583         MOV     DPH,A
   \   0001F4   E0           MOVX    A,@DPTR
   \   0001F5   8E82         MOV     DPL,R6
   \   0001F7   8F83         MOV     DPH,R7
   \   0001F9   F0           MOVX    @DPTR,A
   \   0001FA   8E82         MOV     DPL,R6
   \   0001FC   8F83         MOV     DPH,R7
   \   0001FE   A3           INC     DPTR
   \   0001FF   AE82         MOV     R6,DPL
   \   000201   AF83         MOV     R7,DPH
   1522          
   1523              // LQI
   1524              *pBuf++ = list->lqi;
   \   000203   E5..         MOV     A,?V0 + 0
   \   000205   2419         ADD     A,#0x19
   \   000207   F582         MOV     DPL,A
   \   000209   E5..         MOV     A,?V0 + 1
   \   00020B   3400         ADDC    A,#0x0
   \   00020D   F583         MOV     DPH,A
   \   00020F   E0           MOVX    A,@DPTR
   \   000210   8E82         MOV     DPL,R6
   \   000212   8F83         MOV     DPH,R7
   \   000214   F0           MOVX    @DPTR,A
   \   000215   8E82         MOV     DPL,R6
   \   000217   8F83         MOV     DPH,R7
   \   000219   A3           INC     DPTR
   \   00021A   AE82         MOV     R6,DPL
   \   00021C   AF83         MOV     R7,DPH
   1525          
   1526              list++; // next list entry
   \   00021E   E5..         MOV     A,?V0 + 0
   \   000220   241A         ADD     A,#0x1a
   \   000222   F5..         MOV     ?V0 + 0,A
   \   000224   E5..         MOV     A,?V0 + 1
   \   000226   3400         ADDC    A,#0x0
   \   000228   F5..         MOV     ?V0 + 1,A
   1527            }
   \   00022A   05..         INC     ?V0 + 7
   \   00022C   02....       LJMP    ??ZDP_MgmtLqiRsp_3 & 0xFFFF
   1528          
   1529            FillAndSendBuffer( &TransSeq, dstAddr, Mgmt_Lqi_rsp, len, buf );
   \                     ??ZDP_MgmtLqiRsp_4:
   \   00022F   85..82       MOV     DPL,?V0 + 2
   \   000232   85..83       MOV     DPH,?V0 + 3
   \   000235   A3           INC     DPTR
   \   000236   A882         MOV     R0,DPL
   \   000238   A983         MOV     R1,DPH
   \   00023A   90....       MOV     DPTR,#ZDP_TmpBuf
   \   00023D   E8           MOV     A,R0
   \   00023E   F0           MOVX    @DPTR,A
   \   00023F   A3           INC     DPTR
   \   000240   E9           MOV     A,R1
   \   000241   F0           MOVX    @DPTR,A
   \   000242                ; Setup parameters for call to function fillAndSend
   \   000242   75..31       MOV     ?V0 + 8,#0x31
   \   000245   75..80       MOV     ?V0 + 9,#-0x80
   \   000248   78..         MOV     R0,#?V0 + 8
   \   00024A   12....       LCALL   ?PUSH_XSTACK_I_TWO
   \   00024D   A9..         MOV     R1,?V0 + 10
   \   00024F   AC..         MOV     R4,?V0 + 14
   \   000251   AD..         MOV     R5,?V0 + 15
   \   000253   7402         MOV     A,#0x2
   \   000255   12....       LCALL   ?XSTACK_DISP0_8
   \   000258   AA82         MOV     R2,DPL
   \   00025A   AB83         MOV     R3,DPH
   \   00025C   12....       LCALL   ??fillAndSend?relay
   \   00025F   7402         MOV     A,#0x2
   \   000261   12....       LCALL   ?DEALLOC_XSTACK8
   \   000264   E9           MOV     A,R1
   \   000265   F5..         MOV     ?V0 + 5,A
   \   000267                ; Setup parameters for call to function osal_mem_free
   \   000267   AA..         MOV     R2,?V0 + 2
   \   000269   AB..         MOV     R3,?V0 + 3
   \   00026B   12....       LCALL   ??osal_mem_free?relay
   \   00026E   90....       MOV     DPTR,#ZDP_TmpBuf
   \   000271   74..         MOV     A,#(ZDP_Buf + 1) & 0xff
   \   000273   F0           MOVX    @DPTR,A
   \   000274   A3           INC     DPTR
   \   000275   74..         MOV     A,#((ZDP_Buf + 1) >> 8) & 0xff
   \   000277   F0           MOVX    @DPTR,A
   \   000278   A9..         MOV     R1,?V0 + 5
   \                     ??ZDP_MgmtLqiRsp_1:
   \   00027A   7401         MOV     A,#0x1
   \   00027C   12....       LCALL   ?DEALLOC_XSTACK8
   \   00027F   7F10         MOV     R7,#0x10
   \   000281   02....       LJMP    ?BANKED_LEAVE_XDATA
   1530          }
   1531          
   1532          /*********************************************************************
   1533           * @fn          ZDP_MgmtRtgRsp
   1534           *
   1535           * @brief       This builds and send a Mgmt_Rtg_rsp message. This
   1536           *              function sends a unicast message.
   1537           *
   1538           * @param       dstAddr - destination address of the message
   1539           * @param       Status - message status (ZDP_SUCCESS or other)
   1540           * @param       RoutingTableEntries - Total number of entries
   1541           * @param       StartIndex - Starting index within the reporting list
   1542           * @param       RoutingTableListCount - number of entries included
   1543           *                                      in this message
   1544           * @param       RoutingTableList - List of Routing Table entries
   1545           * @param       SecurityEnable - true to enable security for this message
   1546           *
   1547           * @return      ZStatus_t
   1548           */

   \                                 In  segment BANKED_CODE, align 1, keep-with-next
   1549          ZStatus_t ZDP_MgmtRtgRsp( byte TransSeq, zAddrType_t *dstAddr,
   \                     ZDP_MgmtRtgRsp:
   1550                                      byte Status,
   1551                                      byte RoutingTableEntries,
   1552                                      byte StartIndex,
   1553                                      byte RoutingListCount,
   1554                                      rtgItem_t *RoutingTableList,
   1555                                      byte SecurityEnable )
   1556          {
   \   000000   74E8         MOV     A,#-0x18
   \   000002   12....       LCALL   ?BANKED_ENTER_XDATA
   \   000005                ; Saved register size: 24
   \   000005                ; Auto size: 1
   \   000005   74FF         MOV     A,#-0x1
   \   000007   12....       LCALL   ?ALLOC_XSTACK8
   \   00000A   E9           MOV     A,R1
   \   00000B   85..82       MOV     DPL,?XSP + 0
   \   00000E   85..83       MOV     DPH,?XSP + 1
   \   000011   F0           MOVX    @DPTR,A
   \   000012   8A..         MOV     ?V0 + 14,R2
   \   000014   8B..         MOV     ?V0 + 15,R3
   \   000016   8C..         MOV     ?V0 + 12,R4
   \   000018   8D..         MOV     ?V0 + 11,R5
   \   00001A   7419         MOV     A,#0x19
   \   00001C   12....       LCALL   ?XSTACK_DISP0_8
   \   00001F   E0           MOVX    A,@DPTR
   \   000020   F5..         MOV     ?V0 + 10,A
   \   000022   741A         MOV     A,#0x1a
   \   000024   12....       LCALL   ?XSTACK_DISP0_8
   \   000027   E0           MOVX    A,@DPTR
   \   000028   F5..         MOV     ?V0 + 3,A
   \   00002A   741B         MOV     A,#0x1b
   \   00002C   12....       LCALL   ?XSTACK_DISP0_8
   \   00002F   E0           MOVX    A,@DPTR
   \   000030   F5..         MOV     ?V0 + 0,A
   \   000032   A3           INC     DPTR
   \   000033   E0           MOVX    A,@DPTR
   \   000034   F5..         MOV     ?V0 + 1,A
   \   000036   741D         MOV     A,#0x1d
   \   000038   12....       LCALL   ?XSTACK_DISP0_8
   \   00003B   E0           MOVX    A,@DPTR
   \   00003C   F5..         MOV     ?V0 + 13,A
   1557            uint8 *buf;
   1558            uint8 *pBuf;
   1559            // Status + RoutingTableEntries + StartIndex + RoutingListCount.
   1560            byte len = 1 + 1 + 1 + 1;
   \   00003E   75..04       MOV     ?V0 + 2,#0x4
   1561            byte x;
   1562          
   1563            (void)SecurityEnable;  // Intentionally unreferenced parameter
   1564          
   1565            // Add an array for Routing List data
   1566            len += (RoutingListCount * ZDP_ROUTINGENTRY_SIZE);
   \   000041   75F005       MOV     B,#0x5
   \   000044   E5..         MOV     A,?V0 + 3
   \   000046   A4           MUL     AB
   \   000047   25..         ADD     A,?V0 + 2
   \   000049   F5..         MOV     ?V0 + 2,A
   1567          
   1568            buf = osal_mem_alloc( (short)(len+1) );
   \   00004B                ; Setup parameters for call to function osal_mem_alloc
   \   00004B   85....       MOV     ?V0 + 8,?V0 + 2
   \   00004E   75..00       MOV     ?V0 + 9,#0x0
   \   000051   E5..         MOV     A,?V0 + 8
   \   000053   2401         ADD     A,#0x1
   \   000055   FA           MOV     R2,A
   \   000056   E5..         MOV     A,?V0 + 9
   \   000058   3400         ADDC    A,#0x0
   \   00005A   FB           MOV     R3,A
   \   00005B   12....       LCALL   ??osal_mem_alloc?relay
   \   00005E   8A..         MOV     ?V0 + 8,R2
   \   000060   8B..         MOV     ?V0 + 9,R3
   \   000062   85....       MOV     ?V0 + 4,?V0 + 8
   \   000065   85....       MOV     ?V0 + 5,?V0 + 9
   1569            if ( buf == NULL )
   \   000068   E5..         MOV     A,?V0 + 4
   \   00006A   45..         ORL     A,?V0 + 5
   \   00006C   7005         JNZ     ??ZDP_MgmtRtgRsp_0
   1570            {
   1571              return afStatus_MEM_FAIL;
   \   00006E   7910         MOV     R1,#0x10
   \   000070   02....       LJMP    ??ZDP_MgmtRtgRsp_1 & 0xFFFF
   1572            }
   1573          
   1574            pBuf = buf+1;
   \                     ??ZDP_MgmtRtgRsp_0:
   \   000073   85..82       MOV     DPL,?V0 + 4
   \   000076   85..83       MOV     DPH,?V0 + 5
   \   000079   A3           INC     DPTR
   \   00007A   AE82         MOV     R6,DPL
   \   00007C   AF83         MOV     R7,DPH
   1575          
   1576            *pBuf++ = Status;
   \   00007E   E5..         MOV     A,?V0 + 12
   \   000080   8E82         MOV     DPL,R6
   \   000082   8F83         MOV     DPH,R7
   \   000084   E5..         MOV     A,?V0 + 12
   \   000086   F0           MOVX    @DPTR,A
   \   000087   8E82         MOV     DPL,R6
   \   000089   8F83         MOV     DPH,R7
   \   00008B   A3           INC     DPTR
   \   00008C   AE82         MOV     R6,DPL
   \   00008E   AF83         MOV     R7,DPH
   1577            *pBuf++ = RoutingTableEntries;
   \   000090   E5..         MOV     A,?V0 + 11
   \   000092   8E82         MOV     DPL,R6
   \   000094   8F83         MOV     DPH,R7
   \   000096   E5..         MOV     A,?V0 + 11
   \   000098   F0           MOVX    @DPTR,A
   \   000099   8E82         MOV     DPL,R6
   \   00009B   8F83         MOV     DPH,R7
   \   00009D   A3           INC     DPTR
   \   00009E   AE82         MOV     R6,DPL
   \   0000A0   AF83         MOV     R7,DPH
   1578            *pBuf++ = StartIndex;
   \   0000A2   E5..         MOV     A,?V0 + 10
   \   0000A4   8E82         MOV     DPL,R6
   \   0000A6   8F83         MOV     DPH,R7
   \   0000A8   E5..         MOV     A,?V0 + 10
   \   0000AA   F0           MOVX    @DPTR,A
   \   0000AB   8E82         MOV     DPL,R6
   \   0000AD   8F83         MOV     DPH,R7
   \   0000AF   A3           INC     DPTR
   \   0000B0   AE82         MOV     R6,DPL
   \   0000B2   AF83         MOV     R7,DPH
   1579            *pBuf++ = RoutingListCount;
   \   0000B4   E5..         MOV     A,?V0 + 3
   \   0000B6   8E82         MOV     DPL,R6
   \   0000B8   8F83         MOV     DPH,R7
   \   0000BA   E5..         MOV     A,?V0 + 3
   \   0000BC   F0           MOVX    @DPTR,A
   \   0000BD   8E82         MOV     DPL,R6
   \   0000BF   8F83         MOV     DPH,R7
   \   0000C1   A3           INC     DPTR
   \   0000C2   AE82         MOV     R6,DPL
   \   0000C4   AF83         MOV     R7,DPH
   1580          
   1581            for ( x = 0; x < RoutingListCount; x++ )
   \   0000C6   75..00       MOV     ?V0 + 6,#0x0
   \                     ??ZDP_MgmtRtgRsp_2:
   \   0000C9   E5..         MOV     A,?V0 + 6
   \   0000CB   C3           CLR     C
   \   0000CC   95..         SUBB    A,?V0 + 3
   \   0000CE   4003         JC      $+5
   \   0000D0   02....       LJMP    ??ZDP_MgmtRtgRsp_3 & 0xFFFF
   1582            {
   1583              *pBuf++ = LO_UINT16( RoutingTableList->dstAddress );  // Destination Address
   \   0000D3   85..82       MOV     DPL,?V0 + 0
   \   0000D6   85..83       MOV     DPH,?V0 + 1
   \   0000D9   E0           MOVX    A,@DPTR
   \   0000DA   F8           MOV     R0,A
   \   0000DB   A3           INC     DPTR
   \   0000DC   E0           MOVX    A,@DPTR
   \   0000DD   F9           MOV     R1,A
   \   0000DE   E8           MOV     A,R0
   \   0000DF   8E82         MOV     DPL,R6
   \   0000E1   8F83         MOV     DPH,R7
   \   0000E3   F0           MOVX    @DPTR,A
   \   0000E4   8E82         MOV     DPL,R6
   \   0000E6   8F83         MOV     DPH,R7
   \   0000E8   A3           INC     DPTR
   \   0000E9   AE82         MOV     R6,DPL
   \   0000EB   AF83         MOV     R7,DPH
   1584              *pBuf++ = HI_UINT16( RoutingTableList->dstAddress );
   \   0000ED   85..82       MOV     DPL,?V0 + 0
   \   0000F0   85..83       MOV     DPH,?V0 + 1
   \   0000F3   E0           MOVX    A,@DPTR
   \   0000F4   F8           MOV     R0,A
   \   0000F5   A3           INC     DPTR
   \   0000F6   E0           MOVX    A,@DPTR
   \   0000F7   F9           MOV     R1,A
   \   0000F8   E4           CLR     A
   \   0000F9   E9           MOV     A,R1
   \   0000FA   F8           MOV     R0,A
   \   0000FB   8E82         MOV     DPL,R6
   \   0000FD   8F83         MOV     DPH,R7
   \   0000FF   F0           MOVX    @DPTR,A
   \   000100   8E82         MOV     DPL,R6
   \   000102   8F83         MOV     DPH,R7
   \   000104   A3           INC     DPTR
   \   000105   AE82         MOV     R6,DPL
   \   000107   AF83         MOV     R7,DPH
   1585              *pBuf++ = RoutingTableList->status;
   \   000109   85..82       MOV     DPL,?V0 + 0
   \   00010C   85..83       MOV     DPH,?V0 + 1
   \   00010F   A3           INC     DPTR
   \   000110   A3           INC     DPTR
   \   000111   A3           INC     DPTR
   \   000112   A3           INC     DPTR
   \   000113   A3           INC     DPTR
   \   000114   E0           MOVX    A,@DPTR
   \   000115   8E82         MOV     DPL,R6
   \   000117   8F83         MOV     DPH,R7
   \   000119   F0           MOVX    @DPTR,A
   \   00011A   8E82         MOV     DPL,R6
   \   00011C   8F83         MOV     DPH,R7
   \   00011E   A3           INC     DPTR
   \   00011F   AE82         MOV     R6,DPL
   \   000121   AF83         MOV     R7,DPH
   1586              *pBuf++ = LO_UINT16( RoutingTableList->nextHopAddress );  // Next hop
   \   000123   85..82       MOV     DPL,?V0 + 0
   \   000126   85..83       MOV     DPH,?V0 + 1
   \   000129   A3           INC     DPTR
   \   00012A   A3           INC     DPTR
   \   00012B   E0           MOVX    A,@DPTR
   \   00012C   F8           MOV     R0,A
   \   00012D   A3           INC     DPTR
   \   00012E   E0           MOVX    A,@DPTR
   \   00012F   F9           MOV     R1,A
   \   000130   E8           MOV     A,R0
   \   000131   8E82         MOV     DPL,R6
   \   000133   8F83         MOV     DPH,R7
   \   000135   F0           MOVX    @DPTR,A
   \   000136   8E82         MOV     DPL,R6
   \   000138   8F83         MOV     DPH,R7
   \   00013A   A3           INC     DPTR
   \   00013B   AE82         MOV     R6,DPL
   \   00013D   AF83         MOV     R7,DPH
   1587              *pBuf++ = HI_UINT16( RoutingTableList->nextHopAddress );
   \   00013F   85..82       MOV     DPL,?V0 + 0
   \   000142   85..83       MOV     DPH,?V0 + 1
   \   000145   A3           INC     DPTR
   \   000146   A3           INC     DPTR
   \   000147   E0           MOVX    A,@DPTR
   \   000148   F8           MOV     R0,A
   \   000149   A3           INC     DPTR
   \   00014A   E0           MOVX    A,@DPTR
   \   00014B   F9           MOV     R1,A
   \   00014C   E4           CLR     A
   \   00014D   E9           MOV     A,R1
   \   00014E   F8           MOV     R0,A
   \   00014F   8E82         MOV     DPL,R6
   \   000151   8F83         MOV     DPH,R7
   \   000153   F0           MOVX    @DPTR,A
   \   000154   8E82         MOV     DPL,R6
   \   000156   8F83         MOV     DPH,R7
   \   000158   A3           INC     DPTR
   \   000159   AE82         MOV     R6,DPL
   \   00015B   AF83         MOV     R7,DPH
   1588              RoutingTableList++;    // Move to next list entry
   \   00015D   E5..         MOV     A,?V0 + 0
   \   00015F   2407         ADD     A,#0x7
   \   000161   F5..         MOV     ?V0 + 0,A
   \   000163   E5..         MOV     A,?V0 + 1
   \   000165   3400         ADDC    A,#0x0
   \   000167   F5..         MOV     ?V0 + 1,A
   1589            }
   \   000169   05..         INC     ?V0 + 6
   \   00016B   02....       LJMP    ??ZDP_MgmtRtgRsp_2 & 0xFFFF
   1590          
   1591            FillAndSendBuffer( &TransSeq, dstAddr, Mgmt_Rtg_rsp, len, buf );
   \                     ??ZDP_MgmtRtgRsp_3:
   \   00016E   85..82       MOV     DPL,?V0 + 4
   \   000171   85..83       MOV     DPH,?V0 + 5
   \   000174   A3           INC     DPTR
   \   000175   A882         MOV     R0,DPL
   \   000177   A983         MOV     R1,DPH
   \   000179   90....       MOV     DPTR,#ZDP_TmpBuf
   \   00017C   E8           MOV     A,R0
   \   00017D   F0           MOVX    @DPTR,A
   \   00017E   A3           INC     DPTR
   \   00017F   E9           MOV     A,R1
   \   000180   F0           MOVX    @DPTR,A
   \   000181                ; Setup parameters for call to function fillAndSend
   \   000181   75..32       MOV     ?V0 + 8,#0x32
   \   000184   75..80       MOV     ?V0 + 9,#-0x80
   \   000187   78..         MOV     R0,#?V0 + 8
   \   000189   12....       LCALL   ?PUSH_XSTACK_I_TWO
   \   00018C   A9..         MOV     R1,?V0 + 2
   \   00018E   AC..         MOV     R4,?V0 + 14
   \   000190   AD..         MOV     R5,?V0 + 15
   \   000192   7402         MOV     A,#0x2
   \   000194   12....       LCALL   ?XSTACK_DISP0_8
   \   000197   AA82         MOV     R2,DPL
   \   000199   AB83         MOV     R3,DPH
   \   00019B   12....       LCALL   ??fillAndSend?relay
   \   00019E   7402         MOV     A,#0x2
   \   0001A0   12....       LCALL   ?DEALLOC_XSTACK8
   \   0001A3   E9           MOV     A,R1
   \   0001A4   F5..         MOV     ?V0 + 7,A
   \   0001A6                ; Setup parameters for call to function osal_mem_free
   \   0001A6   AA..         MOV     R2,?V0 + 4
   \   0001A8   AB..         MOV     R3,?V0 + 5
   \   0001AA   12....       LCALL   ??osal_mem_free?relay
   \   0001AD   90....       MOV     DPTR,#ZDP_TmpBuf
   \   0001B0   74..         MOV     A,#(ZDP_Buf + 1) & 0xff
   \   0001B2   F0           MOVX    @DPTR,A
   \   0001B3   A3           INC     DPTR
   \   0001B4   74..         MOV     A,#((ZDP_Buf + 1) >> 8) & 0xff
   \   0001B6   F0           MOVX    @DPTR,A
   \   0001B7   A9..         MOV     R1,?V0 + 7
   \                     ??ZDP_MgmtRtgRsp_1:
   \   0001B9   7401         MOV     A,#0x1
   \   0001BB   12....       LCALL   ?DEALLOC_XSTACK8
   \   0001BE   7F10         MOV     R7,#0x10
   \   0001C0   02....       LJMP    ?BANKED_LEAVE_XDATA
   1592          }
   1593          
   1594          /*********************************************************************
   1595           * @fn          ZDP_MgmtBindRsp
   1596           *
   1597           * @brief       This builds and send a Mgmt_Bind_rsp message. This
   1598           *              function sends a unicast message.
   1599           *
   1600           * @param       dstAddr - destination address of the message
   1601           * @param       Status - message status (ZDP_SUCCESS or other)
   1602           * @param       BindingTableEntries - Total number of entries
   1603           * @param       StartIndex - Starting index within the reporting list
   1604           * @param       BindingTableListCount - number of entries included
   1605           *                                 in this message
   1606           * @param       BindingTableList - List of Binding Table entries
   1607           * @param       SecurityEnable - Security Options
   1608           *
   1609           * @return      ZStatus_t
   1610           */

   \                                 In  segment BANKED_CODE, align 1, keep-with-next
   1611          ZStatus_t ZDP_MgmtBindRsp( byte TransSeq, zAddrType_t *dstAddr,
   \                     ZDP_MgmtBindRsp:
   1612                                      byte Status,
   1613                                      byte BindingTableEntries,
   1614                                      byte StartIndex,
   1615                                      byte BindingTableListCount,
   1616                                      apsBindingItem_t *BindingTableList,
   1617                                      byte SecurityEnable )
   1618          {
   \   000000   74E8         MOV     A,#-0x18
   \   000002   12....       LCALL   ?BANKED_ENTER_XDATA
   \   000005                ; Saved register size: 24
   \   000005                ; Auto size: 3
   \   000005   74FD         MOV     A,#-0x3
   \   000007   12....       LCALL   ?ALLOC_XSTACK8
   \   00000A   E9           MOV     A,R1
   \   00000B   85..82       MOV     DPL,?XSP + 0
   \   00000E   85..83       MOV     DPH,?XSP + 1
   \   000011   F0           MOVX    @DPTR,A
   \   000012   7401         MOV     A,#0x1
   \   000014   12....       LCALL   ?XSTACK_DISP0_8
   \   000017   EA           MOV     A,R2
   \   000018   F0           MOVX    @DPTR,A
   \   000019   A3           INC     DPTR
   \   00001A   EB           MOV     A,R3
   \   00001B   F0           MOVX    @DPTR,A
   \   00001C   8C..         MOV     ?V0 + 14,R4
   \   00001E   8D..         MOV     ?V0 + 13,R5
   \   000020   741B         MOV     A,#0x1b
   \   000022   12....       LCALL   ?XSTACK_DISP0_8
   \   000025   E0           MOVX    A,@DPTR
   \   000026   F5..         MOV     ?V0 + 12,A
   \   000028   741C         MOV     A,#0x1c
   \   00002A   12....       LCALL   ?XSTACK_DISP0_8
   \   00002D   E0           MOVX    A,@DPTR
   \   00002E   F5..         MOV     ?V0 + 6,A
   \   000030   741D         MOV     A,#0x1d
   \   000032   12....       LCALL   ?XSTACK_DISP0_8
   \   000035   E0           MOVX    A,@DPTR
   \   000036   F5..         MOV     ?V0 + 0,A
   \   000038   A3           INC     DPTR
   \   000039   E0           MOVX    A,@DPTR
   \   00003A   F5..         MOV     ?V0 + 1,A
   1619            uint8 *buf;
   1620            uint8 *pBuf;
   1621            uint8 maxLen; // maxLen is the maximum packet length to allocate enough memory space
   1622            uint8 len;    // Actual length varies due to different addrMode
   1623            uint8 x;
   1624            byte extZdpBindEntrySize = ZDP_BINDINGENTRY_SIZE + 1 + 1; // One more byte for cluserID and DstAddrMode
   \   00003C   75..15       MOV     ?V0 + 11,#0x15
   1625            byte shortZdpBindEntrySize = ZDP_BINDINGENTRY_SIZE + 1 + 1 + 2 - 8 - 1; // clusterID + DstAddrMode + shortAddr - ExtAddr - DstEndpoint
   \   00003F   75..0E       MOV     ?V0 + 15,#0xe
   1626          
   1627            (void)SecurityEnable;  // Intentionally unreferenced parameter
   1628          
   1629            // Status + BindingTableEntries + StartIndex + BindingTableListCount.
   1630            maxLen = 1 + 1 + 1 + 1;
   \   000042   75..04       MOV     ?V0 + 10,#0x4
   1631            maxLen += (BindingTableListCount * extZdpBindEntrySize );  //max length
   \   000045   E5..         MOV     A,?V0 + 11
   \   000047   F5F0         MOV     B,A
   \   000049   E5..         MOV     A,?V0 + 6
   \   00004B   A4           MUL     AB
   \   00004C   25..         ADD     A,?V0 + 10
   \   00004E   F5..         MOV     ?V0 + 10,A
   1632            buf = osal_mem_alloc( maxLen + 1 );  // +1 for transaction ID
   \   000050                ; Setup parameters for call to function osal_mem_alloc
   \   000050   85....       MOV     ?V0 + 8,?V0 + 10
   \   000053   75..00       MOV     ?V0 + 9,#0x0
   \   000056   E5..         MOV     A,?V0 + 8
   \   000058   2401         ADD     A,#0x1
   \   00005A   FA           MOV     R2,A
   \   00005B   E5..         MOV     A,?V0 + 9
   \   00005D   3400         ADDC    A,#0x0
   \   00005F   FB           MOV     R3,A
   \   000060   12....       LCALL   ??osal_mem_alloc?relay
   \   000063   8A..         MOV     ?V0 + 8,R2
   \   000065   8B..         MOV     ?V0 + 9,R3
   \   000067   85....       MOV     ?V0 + 4,?V0 + 8
   \   00006A   85....       MOV     ?V0 + 5,?V0 + 9
   1633          
   1634            if ( buf == NULL )
   \   00006D   E5..         MOV     A,?V0 + 4
   \   00006F   45..         ORL     A,?V0 + 5
   \   000071   7005         JNZ     ??ZDP_MgmtBindRsp_0
   1635            {
   1636              return afStatus_MEM_FAIL;
   \   000073   7910         MOV     R1,#0x10
   \   000075   02....       LJMP    ??ZDP_MgmtBindRsp_1 & 0xFFFF
   1637            }
   1638          
   1639            pBuf = buf+1;
   \                     ??ZDP_MgmtBindRsp_0:
   \   000078   85..82       MOV     DPL,?V0 + 4
   \   00007B   85..83       MOV     DPH,?V0 + 5
   \   00007E   A3           INC     DPTR
   \   00007F   AE82         MOV     R6,DPL
   \   000081   AF83         MOV     R7,DPH
   1640          
   1641            *pBuf++ = Status;
   \   000083   E5..         MOV     A,?V0 + 14
   \   000085   8E82         MOV     DPL,R6
   \   000087   8F83         MOV     DPH,R7
   \   000089   E5..         MOV     A,?V0 + 14
   \   00008B   F0           MOVX    @DPTR,A
   \   00008C   8E82         MOV     DPL,R6
   \   00008E   8F83         MOV     DPH,R7
   \   000090   A3           INC     DPTR
   \   000091   AE82         MOV     R6,DPL
   \   000093   AF83         MOV     R7,DPH
   1642            *pBuf++ = BindingTableEntries;
   \   000095   E5..         MOV     A,?V0 + 13
   \   000097   8E82         MOV     DPL,R6
   \   000099   8F83         MOV     DPH,R7
   \   00009B   E5..         MOV     A,?V0 + 13
   \   00009D   F0           MOVX    @DPTR,A
   \   00009E   8E82         MOV     DPL,R6
   \   0000A0   8F83         MOV     DPH,R7
   \   0000A2   A3           INC     DPTR
   \   0000A3   AE82         MOV     R6,DPL
   \   0000A5   AF83         MOV     R7,DPH
   1643            *pBuf++ = StartIndex;
   \   0000A7   E5..         MOV     A,?V0 + 12
   \   0000A9   8E82         MOV     DPL,R6
   \   0000AB   8F83         MOV     DPH,R7
   \   0000AD   E5..         MOV     A,?V0 + 12
   \   0000AF   F0           MOVX    @DPTR,A
   \   0000B0   8E82         MOV     DPL,R6
   \   0000B2   8F83         MOV     DPH,R7
   \   0000B4   A3           INC     DPTR
   \   0000B5   AE82         MOV     R6,DPL
   \   0000B7   AF83         MOV     R7,DPH
   1644            *pBuf++ = BindingTableListCount;
   \   0000B9   E5..         MOV     A,?V0 + 6
   \   0000BB   8E82         MOV     DPL,R6
   \   0000BD   8F83         MOV     DPH,R7
   \   0000BF   E5..         MOV     A,?V0 + 6
   \   0000C1   F0           MOVX    @DPTR,A
   \   0000C2   8E82         MOV     DPL,R6
   \   0000C4   8F83         MOV     DPH,R7
   \   0000C6   A3           INC     DPTR
   \   0000C7   AE82         MOV     R6,DPL
   \   0000C9   AF83         MOV     R7,DPH
   1645          
   1646            // Initial length = Status + BindingTableEntries + StartIndex + BindingTableListCount.
   1647            // length += ZDP_BINDINGENTRY_SIZE   -- Version 1.0
   1648            //           extZdpBindEntrySize     -- Version 1.1 extended address mode
   1649            //           shortZdpBindEntrySize   -- Version 1.1 group address mode
   1650          
   1651            len = 1 + 1 + 1 + 1;
   \   0000CB   75..04       MOV     ?V0 + 2,#0x4
   1652            for ( x = 0; x < BindingTableListCount; x++ )
   \   0000CE   75..00       MOV     ?V0 + 7,#0x0
   \                     ??ZDP_MgmtBindRsp_2:
   \   0000D1   E5..         MOV     A,?V0 + 7
   \   0000D3   C3           CLR     C
   \   0000D4   95..         SUBB    A,?V0 + 6
   \   0000D6   4003         JC      $+5
   \   0000D8   02....       LJMP    ??ZDP_MgmtBindRsp_3 & 0xFFFF
   1653            {
   1654              pBuf = osal_cpyExtAddr( pBuf, BindingTableList->srcAddr );
   \   0000DB                ; Setup parameters for call to function sAddrExtCpy
   \   0000DB   AC..         MOV     R4,?V0 + 0
   \   0000DD   AD..         MOV     R5,?V0 + 1
   \   0000DF   EE           MOV     A,R6
   \   0000E0   FA           MOV     R2,A
   \   0000E1   EF           MOV     A,R7
   \   0000E2   FB           MOV     R3,A
   \   0000E3   12....       LCALL   ??sAddrExtCpy?relay
   \   0000E6   8A..         MOV     ?V0 + 8,R2
   \   0000E8   8B..         MOV     ?V0 + 9,R3
   \   0000EA   AE..         MOV     R6,?V0 + 8
   \   0000EC   AF..         MOV     R7,?V0 + 9
   1655              *pBuf++ = BindingTableList->srcEP;
   \   0000EE   85..82       MOV     DPL,?V0 + 0
   \   0000F1   85..83       MOV     DPH,?V0 + 1
   \   0000F4   A3           INC     DPTR
   \   0000F5   A3           INC     DPTR
   \   0000F6   A3           INC     DPTR
   \   0000F7   A3           INC     DPTR
   \   0000F8   A3           INC     DPTR
   \   0000F9   A3           INC     DPTR
   \   0000FA   A3           INC     DPTR
   \   0000FB   A3           INC     DPTR
   \   0000FC   E0           MOVX    A,@DPTR
   \   0000FD   8E82         MOV     DPL,R6
   \   0000FF   8F83         MOV     DPH,R7
   \   000101   F0           MOVX    @DPTR,A
   \   000102   8E82         MOV     DPL,R6
   \   000104   8F83         MOV     DPH,R7
   \   000106   A3           INC     DPTR
   \   000107   AE82         MOV     R6,DPL
   \   000109   AF83         MOV     R7,DPH
   1656          
   1657              // Cluster ID
   1658              *pBuf++ = LO_UINT16( BindingTableList->clusterID );
   \   00010B   85..82       MOV     DPL,?V0 + 0
   \   00010E   85..83       MOV     DPH,?V0 + 1
   \   000111   A3           INC     DPTR
   \   000112   A3           INC     DPTR
   \   000113   A3           INC     DPTR
   \   000114   A3           INC     DPTR
   \   000115   A3           INC     DPTR
   \   000116   A3           INC     DPTR
   \   000117   A3           INC     DPTR
   \   000118   A3           INC     DPTR
   \   000119   A3           INC     DPTR
   \   00011A   E0           MOVX    A,@DPTR
   \   00011B   F8           MOV     R0,A
   \   00011C   A3           INC     DPTR
   \   00011D   E0           MOVX    A,@DPTR
   \   00011E   F9           MOV     R1,A
   \   00011F   E8           MOV     A,R0
   \   000120   8E82         MOV     DPL,R6
   \   000122   8F83         MOV     DPH,R7
   \   000124   F0           MOVX    @DPTR,A
   \   000125   8E82         MOV     DPL,R6
   \   000127   8F83         MOV     DPH,R7
   \   000129   A3           INC     DPTR
   \   00012A   AE82         MOV     R6,DPL
   \   00012C   AF83         MOV     R7,DPH
   1659              *pBuf++ = HI_UINT16( BindingTableList->clusterID );
   \   00012E   85..82       MOV     DPL,?V0 + 0
   \   000131   85..83       MOV     DPH,?V0 + 1
   \   000134   A3           INC     DPTR
   \   000135   A3           INC     DPTR
   \   000136   A3           INC     DPTR
   \   000137   A3           INC     DPTR
   \   000138   A3           INC     DPTR
   \   000139   A3           INC     DPTR
   \   00013A   A3           INC     DPTR
   \   00013B   A3           INC     DPTR
   \   00013C   A3           INC     DPTR
   \   00013D   E0           MOVX    A,@DPTR
   \   00013E   F8           MOV     R0,A
   \   00013F   A3           INC     DPTR
   \   000140   E0           MOVX    A,@DPTR
   \   000141   F9           MOV     R1,A
   \   000142   E4           CLR     A
   \   000143   E9           MOV     A,R1
   \   000144   F8           MOV     R0,A
   \   000145   8E82         MOV     DPL,R6
   \   000147   8F83         MOV     DPH,R7
   \   000149   F0           MOVX    @DPTR,A
   \   00014A   8E82         MOV     DPL,R6
   \   00014C   8F83         MOV     DPH,R7
   \   00014E   A3           INC     DPTR
   \   00014F   AE82         MOV     R6,DPL
   \   000151   AF83         MOV     R7,DPH
   1660          
   1661              *pBuf++ = BindingTableList->dstAddr.addrMode;
   \   000153   E5..         MOV     A,?V0 + 0
   \   000155   2413         ADD     A,#0x13
   \   000157   F582         MOV     DPL,A
   \   000159   E5..         MOV     A,?V0 + 1
   \   00015B   3400         ADDC    A,#0x0
   \   00015D   F583         MOV     DPH,A
   \   00015F   E0           MOVX    A,@DPTR
   \   000160   8E82         MOV     DPL,R6
   \   000162   8F83         MOV     DPH,R7
   \   000164   F0           MOVX    @DPTR,A
   \   000165   8E82         MOV     DPL,R6
   \   000167   8F83         MOV     DPH,R7
   \   000169   A3           INC     DPTR
   \   00016A   AE82         MOV     R6,DPL
   \   00016C   AF83         MOV     R7,DPH
   1662              if ( BindingTableList->dstAddr.addrMode == Addr64Bit )
   \   00016E   E5..         MOV     A,?V0 + 0
   \   000170   2413         ADD     A,#0x13
   \   000172   F582         MOV     DPL,A
   \   000174   E5..         MOV     A,?V0 + 1
   \   000176   3400         ADDC    A,#0x0
   \   000178   F583         MOV     DPH,A
   \   00017A   E0           MOVX    A,@DPTR
   \   00017B   6403         XRL     A,#0x3
   \   00017D   703C         JNZ     ??ZDP_MgmtBindRsp_4
   1663              {
   1664                len += extZdpBindEntrySize;
   \   00017F   E5..         MOV     A,?V0 + 11
   \   000181   25..         ADD     A,?V0 + 2
   \   000183   F5..         MOV     ?V0 + 2,A
   1665                pBuf = osal_cpyExtAddr( pBuf, BindingTableList->dstAddr.addr.extAddr );
   \   000185                ; Setup parameters for call to function sAddrExtCpy
   \   000185   E5..         MOV     A,?V0 + 0
   \   000187   240B         ADD     A,#0xb
   \   000189   FC           MOV     R4,A
   \   00018A   E5..         MOV     A,?V0 + 1
   \   00018C   3400         ADDC    A,#0x0
   \   00018E   FD           MOV     R5,A
   \   00018F   EE           MOV     A,R6
   \   000190   FA           MOV     R2,A
   \   000191   EF           MOV     A,R7
   \   000192   FB           MOV     R3,A
   \   000193   12....       LCALL   ??sAddrExtCpy?relay
   \   000196   8A..         MOV     ?V0 + 8,R2
   \   000198   8B..         MOV     ?V0 + 9,R3
   \   00019A   AE..         MOV     R6,?V0 + 8
   \   00019C   AF..         MOV     R7,?V0 + 9
   1666                *pBuf++ = BindingTableList->dstEP;
   \   00019E   E5..         MOV     A,?V0 + 0
   \   0001A0   2414         ADD     A,#0x14
   \   0001A2   F582         MOV     DPL,A
   \   0001A4   E5..         MOV     A,?V0 + 1
   \   0001A6   3400         ADDC    A,#0x0
   \   0001A8   F583         MOV     DPH,A
   \   0001AA   E0           MOVX    A,@DPTR
   \   0001AB   8E82         MOV     DPL,R6
   \   0001AD   8F83         MOV     DPH,R7
   \   0001AF   F0           MOVX    @DPTR,A
   \   0001B0   8E82         MOV     DPL,R6
   \   0001B2   8F83         MOV     DPH,R7
   \   0001B4   A3           INC     DPTR
   \   0001B5   AE82         MOV     R6,DPL
   \   0001B7   AF83         MOV     R7,DPH
   \   0001B9   8048         SJMP    ??ZDP_MgmtBindRsp_5
   1667              }
   1668              else
   1669              {
   1670                len += shortZdpBindEntrySize;
   \                     ??ZDP_MgmtBindRsp_4:
   \   0001BB   E5..         MOV     A,?V0 + 15
   \   0001BD   25..         ADD     A,?V0 + 2
   \   0001BF   F5..         MOV     ?V0 + 2,A
   1671                *pBuf++ = LO_UINT16( BindingTableList->dstAddr.addr.shortAddr );
   \   0001C1   E5..         MOV     A,?V0 + 0
   \   0001C3   240B         ADD     A,#0xb
   \   0001C5   F582         MOV     DPL,A
   \   0001C7   E5..         MOV     A,?V0 + 1
   \   0001C9   3400         ADDC    A,#0x0
   \   0001CB   F583         MOV     DPH,A
   \   0001CD   E0           MOVX    A,@DPTR
   \   0001CE   F8           MOV     R0,A
   \   0001CF   A3           INC     DPTR
   \   0001D0   E0           MOVX    A,@DPTR
   \   0001D1   F9           MOV     R1,A
   \   0001D2   E8           MOV     A,R0
   \   0001D3   8E82         MOV     DPL,R6
   \   0001D5   8F83         MOV     DPH,R7
   \   0001D7   F0           MOVX    @DPTR,A
   \   0001D8   8E82         MOV     DPL,R6
   \   0001DA   8F83         MOV     DPH,R7
   \   0001DC   A3           INC     DPTR
   \   0001DD   AE82         MOV     R6,DPL
   \   0001DF   AF83         MOV     R7,DPH
   1672                *pBuf++ = HI_UINT16( BindingTableList->dstAddr.addr.shortAddr );
   \   0001E1   E5..         MOV     A,?V0 + 0
   \   0001E3   240B         ADD     A,#0xb
   \   0001E5   F582         MOV     DPL,A
   \   0001E7   E5..         MOV     A,?V0 + 1
   \   0001E9   3400         ADDC    A,#0x0
   \   0001EB   F583         MOV     DPH,A
   \   0001ED   E0           MOVX    A,@DPTR
   \   0001EE   F8           MOV     R0,A
   \   0001EF   A3           INC     DPTR
   \   0001F0   E0           MOVX    A,@DPTR
   \   0001F1   F9           MOV     R1,A
   \   0001F2   E4           CLR     A
   \   0001F3   E9           MOV     A,R1
   \   0001F4   F8           MOV     R0,A
   \   0001F5   8E82         MOV     DPL,R6
   \   0001F7   8F83         MOV     DPH,R7
   \   0001F9   F0           MOVX    @DPTR,A
   \   0001FA   8E82         MOV     DPL,R6
   \   0001FC   8F83         MOV     DPH,R7
   \   0001FE   A3           INC     DPTR
   \   0001FF   AE82         MOV     R6,DPL
   \   000201   AF83         MOV     R7,DPH
   1673              }
   1674              BindingTableList++;    // Move to next list entry
   \                     ??ZDP_MgmtBindRsp_5:
   \   000203   E5..         MOV     A,?V0 + 0
   \   000205   2415         ADD     A,#0x15
   \   000207   F5..         MOV     ?V0 + 0,A
   \   000209   E5..         MOV     A,?V0 + 1
   \   00020B   3400         ADDC    A,#0x0
   \   00020D   F5..         MOV     ?V0 + 1,A
   1675            }
   \   00020F   05..         INC     ?V0 + 7
   \   000211   02....       LJMP    ??ZDP_MgmtBindRsp_2 & 0xFFFF
   1676          
   1677            FillAndSendBuffer( &TransSeq, dstAddr, Mgmt_Bind_rsp, len, buf );
   \                     ??ZDP_MgmtBindRsp_3:
   \   000214   85..82       MOV     DPL,?V0 + 4
   \   000217   85..83       MOV     DPH,?V0 + 5
   \   00021A   A3           INC     DPTR
   \   00021B   A882         MOV     R0,DPL
   \   00021D   A983         MOV     R1,DPH
   \   00021F   90....       MOV     DPTR,#ZDP_TmpBuf
   \   000222   E8           MOV     A,R0
   \   000223   F0           MOVX    @DPTR,A
   \   000224   A3           INC     DPTR
   \   000225   E9           MOV     A,R1
   \   000226   F0           MOVX    @DPTR,A
   \   000227                ; Setup parameters for call to function fillAndSend
   \   000227   75..33       MOV     ?V0 + 8,#0x33
   \   00022A   75..80       MOV     ?V0 + 9,#-0x80
   \   00022D   78..         MOV     R0,#?V0 + 8
   \   00022F   12....       LCALL   ?PUSH_XSTACK_I_TWO
   \   000232   A9..         MOV     R1,?V0 + 2
   \   000234   7403         MOV     A,#0x3
   \   000236   12....       LCALL   ?XSTACK_DISP0_8
   \   000239   E0           MOVX    A,@DPTR
   \   00023A   FC           MOV     R4,A
   \   00023B   A3           INC     DPTR
   \   00023C   E0           MOVX    A,@DPTR
   \   00023D   FD           MOV     R5,A
   \   00023E   7402         MOV     A,#0x2
   \   000240   12....       LCALL   ?XSTACK_DISP0_8
   \   000243   AA82         MOV     R2,DPL
   \   000245   AB83         MOV     R3,DPH
   \   000247   12....       LCALL   ??fillAndSend?relay
   \   00024A   7402         MOV     A,#0x2
   \   00024C   12....       LCALL   ?DEALLOC_XSTACK8
   \   00024F   E9           MOV     A,R1
   \   000250   F5..         MOV     ?V0 + 3,A
   \   000252                ; Setup parameters for call to function osal_mem_free
   \   000252   AA..         MOV     R2,?V0 + 4
   \   000254   AB..         MOV     R3,?V0 + 5
   \   000256   12....       LCALL   ??osal_mem_free?relay
   \   000259   90....       MOV     DPTR,#ZDP_TmpBuf
   \   00025C   74..         MOV     A,#(ZDP_Buf + 1) & 0xff
   \   00025E   F0           MOVX    @DPTR,A
   \   00025F   A3           INC     DPTR
   \   000260   74..         MOV     A,#((ZDP_Buf + 1) >> 8) & 0xff
   \   000262   F0           MOVX    @DPTR,A
   \   000263   A9..         MOV     R1,?V0 + 3
   \                     ??ZDP_MgmtBindRsp_1:
   \   000265   7403         MOV     A,#0x3
   \   000267   12....       LCALL   ?DEALLOC_XSTACK8
   \   00026A   7F10         MOV     R7,#0x10
   \   00026C   02....       LJMP    ?BANKED_LEAVE_XDATA
   1678          }
   1679          
   1680          /*********************************************************************
   1681           * @fn          ZDP_MgmtNwkUpdateNotify
   1682           *
   1683           * @brief       This builds and send a Mgmt_NWK_Update_notify message. This
   1684           *              function sends a unicast message.
   1685           *
   1686           * @param       dstAddr - destination address of the message
   1687           * @param       status - message status (ZDP_SUCCESS or other)
   1688           * @param       scannedChannels - List of channels scanned by the request
   1689           * @param       totalTransmissions - Total transmissions
   1690           * @param       transmissionFailures - Sum of transmission failures
   1691           * @param       listCount - Number of records contained in the energyValues list
   1692           * @param       energyValues - List of descriptors, one for each of ListCount,
   1693           *                             of the enegry detect descriptors
   1694           * @param       txOptions - Transmit options
   1695           * @param       securityEnable - Security options
   1696           *
   1697           * @return      afStatus_t
   1698           */

   \                                 In  segment BANKED_CODE, align 1, keep-with-next
   1699          afStatus_t ZDP_MgmtNwkUpdateNotify( uint8 TransSeq, zAddrType_t *dstAddr,
   \                     ZDP_MgmtNwkUpdateNotify:
   1700                                              uint8 status, uint32 scannedChannels,
   1701                                              uint16 totalTransmissions, uint16 transmissionFailures,
   1702                                              uint8 listCount, uint8 *energyValues, uint8 txOptions,
   1703                                              uint8 securityEnable )
   1704          {
   \   000000   74E8         MOV     A,#-0x18
   \   000002   12....       LCALL   ?BANKED_ENTER_XDATA
   \   000005                ; Saved register size: 24
   \   000005                ; Auto size: 3
   \   000005   74FD         MOV     A,#-0x3
   \   000007   12....       LCALL   ?ALLOC_XSTACK8
   \   00000A   E9           MOV     A,R1
   \   00000B   85..82       MOV     DPL,?XSP + 0
   \   00000E   85..83       MOV     DPH,?XSP + 1
   \   000011   F0           MOVX    @DPTR,A
   \   000012   7401         MOV     A,#0x1
   \   000014   12....       LCALL   ?XSTACK_DISP0_8
   \   000017   EA           MOV     A,R2
   \   000018   F0           MOVX    @DPTR,A
   \   000019   A3           INC     DPTR
   \   00001A   EB           MOV     A,R3
   \   00001B   F0           MOVX    @DPTR,A
   \   00001C   8C..         MOV     ?V0 + 15,R4
   \   00001E   8D..         MOV     ?V0 + 11,R5
   \   000020   741B         MOV     A,#0x1b
   \   000022   12....       LCALL   ?XSTACK_DISP0_8
   \   000025   78..         MOV     R0,#?V0 + 4
   \   000027   12....       LCALL   ?L_MOV_X
   \   00002A   741F         MOV     A,#0x1f
   \   00002C   12....       LCALL   ?XSTACK_DISP0_8
   \   00002F   E0           MOVX    A,@DPTR
   \   000030   F5..         MOV     ?V0 + 2,A
   \   000032   A3           INC     DPTR
   \   000033   E0           MOVX    A,@DPTR
   \   000034   F5..         MOV     ?V0 + 3,A
   \   000036   7421         MOV     A,#0x21
   \   000038   12....       LCALL   ?XSTACK_DISP0_8
   \   00003B   E0           MOVX    A,@DPTR
   \   00003C   F5..         MOV     ?V0 + 0,A
   \   00003E   A3           INC     DPTR
   \   00003F   E0           MOVX    A,@DPTR
   \   000040   F5..         MOV     ?V0 + 1,A
   1705            uint8 *buf;
   1706            uint8 *pBuf;
   1707            uint8 len;
   1708          
   1709            (void)securityEnable;  // Intentionally unreferenced parameter
   1710          
   1711            // Status + ScannedChannels + totalTransmissions + transmissionFailures + ListCount + energyValues
   1712            len = 1 + 4 + 2 + 2 + 1 + listCount;
   \   000042   740A         MOV     A,#0xa
   \   000044   25..         ADD     A,?V0 + 11
   \   000046   F5..         MOV     ?V0 + 14,A
   1713          
   1714            buf = osal_mem_alloc( len+1 ); // +1 for transaction ID
   \   000048                ; Setup parameters for call to function osal_mem_alloc
   \   000048   85....       MOV     ?V0 + 8,?V0 + 14
   \   00004B   75..00       MOV     ?V0 + 9,#0x0
   \   00004E   E5..         MOV     A,?V0 + 8
   \   000050   2401         ADD     A,#0x1
   \   000052   FA           MOV     R2,A
   \   000053   E5..         MOV     A,?V0 + 9
   \   000055   3400         ADDC    A,#0x0
   \   000057   FB           MOV     R3,A
   \   000058   12....       LCALL   ??osal_mem_alloc?relay
   \   00005B   8A..         MOV     ?V0 + 8,R2
   \   00005D   8B..         MOV     ?V0 + 9,R3
   \   00005F   85....       MOV     ?V0 + 12,?V0 + 8
   \   000062   85....       MOV     ?V0 + 13,?V0 + 9
   1715            if ( buf == NULL )
   \   000065   E5..         MOV     A,?V0 + 12
   \   000067   45..         ORL     A,?V0 + 13
   \   000069   7005         JNZ     ??ZDP_MgmtNwkUpdateNotify_0
   1716            {
   1717              return afStatus_MEM_FAIL;
   \   00006B   7910         MOV     R1,#0x10
   \   00006D   02....       LJMP    ??ZDP_MgmtNwkUpdateNotify_1 & 0xFFFF
   1718            }
   1719          
   1720            pBuf = buf+1;
   \                     ??ZDP_MgmtNwkUpdateNotify_0:
   \   000070   85..82       MOV     DPL,?V0 + 12
   \   000073   85..83       MOV     DPH,?V0 + 13
   \   000076   A3           INC     DPTR
   \   000077   AE82         MOV     R6,DPL
   \   000079   AF83         MOV     R7,DPH
   1721          
   1722            *pBuf++ = status;
   \   00007B   E5..         MOV     A,?V0 + 15
   \   00007D   8E82         MOV     DPL,R6
   \   00007F   8F83         MOV     DPH,R7
   \   000081   E5..         MOV     A,?V0 + 15
   \   000083   F0           MOVX    @DPTR,A
   \   000084   8E82         MOV     DPL,R6
   \   000086   8F83         MOV     DPH,R7
   \   000088   A3           INC     DPTR
   \   000089   AE82         MOV     R6,DPL
   \   00008B   AF83         MOV     R7,DPH
   1723          
   1724            pBuf = osal_buffer_uint32( pBuf, scannedChannels );
   \   00008D                ; Setup parameters for call to function osal_buffer_uint32
   \   00008D   78..         MOV     R0,#?V0 + 4
   \   00008F   12....       LCALL   ?PUSH_XSTACK_I_FOUR
   \   000092   EE           MOV     A,R6
   \   000093   FA           MOV     R2,A
   \   000094   EF           MOV     A,R7
   \   000095   FB           MOV     R3,A
   \   000096   12....       LCALL   ??osal_buffer_uint32?relay
   \   000099   7404         MOV     A,#0x4
   \   00009B   12....       LCALL   ?DEALLOC_XSTACK8
   \   00009E   8A..         MOV     ?V0 + 8,R2
   \   0000A0   8B..         MOV     ?V0 + 9,R3
   \   0000A2   AE..         MOV     R6,?V0 + 8
   \   0000A4   AF..         MOV     R7,?V0 + 9
   1725          
   1726            *pBuf++ = LO_UINT16( totalTransmissions );
   \   0000A6   E5..         MOV     A,?V0 + 2
   \   0000A8   8E82         MOV     DPL,R6
   \   0000AA   8F83         MOV     DPH,R7
   \   0000AC   E5..         MOV     A,?V0 + 2
   \   0000AE   F0           MOVX    @DPTR,A
   \   0000AF   8E82         MOV     DPL,R6
   \   0000B1   8F83         MOV     DPH,R7
   \   0000B3   A3           INC     DPTR
   \   0000B4   AE82         MOV     R6,DPL
   \   0000B6   AF83         MOV     R7,DPH
   1727            *pBuf++ = HI_UINT16( totalTransmissions );
   \   0000B8   A8..         MOV     R0,?V0 + 2
   \   0000BA   A9..         MOV     R1,?V0 + 3
   \   0000BC   E4           CLR     A
   \   0000BD   E5..         MOV     A,?V0 + 3
   \   0000BF   A8..         MOV     R0,?V0 + 3
   \   0000C1   E5..         MOV     A,?V0 + 3
   \   0000C3   8E82         MOV     DPL,R6
   \   0000C5   8F83         MOV     DPH,R7
   \   0000C7   E5..         MOV     A,?V0 + 3
   \   0000C9   F0           MOVX    @DPTR,A
   \   0000CA   8E82         MOV     DPL,R6
   \   0000CC   8F83         MOV     DPH,R7
   \   0000CE   A3           INC     DPTR
   \   0000CF   AE82         MOV     R6,DPL
   \   0000D1   AF83         MOV     R7,DPH
   1728          
   1729            *pBuf++ = LO_UINT16( transmissionFailures );
   \   0000D3   E5..         MOV     A,?V0 + 0
   \   0000D5   8E82         MOV     DPL,R6
   \   0000D7   8F83         MOV     DPH,R7
   \   0000D9   E5..         MOV     A,?V0 + 0
   \   0000DB   F0           MOVX    @DPTR,A
   \   0000DC   8E82         MOV     DPL,R6
   \   0000DE   8F83         MOV     DPH,R7
   \   0000E0   A3           INC     DPTR
   \   0000E1   AE82         MOV     R6,DPL
   \   0000E3   AF83         MOV     R7,DPH
   1730            *pBuf++ = HI_UINT16( transmissionFailures );
   \   0000E5   A8..         MOV     R0,?V0 + 0
   \   0000E7   A9..         MOV     R1,?V0 + 1
   \   0000E9   E4           CLR     A
   \   0000EA   E5..         MOV     A,?V0 + 1
   \   0000EC   A8..         MOV     R0,?V0 + 1
   \   0000EE   E5..         MOV     A,?V0 + 1
   \   0000F0   8E82         MOV     DPL,R6
   \   0000F2   8F83         MOV     DPH,R7
   \   0000F4   E5..         MOV     A,?V0 + 1
   \   0000F6   F0           MOVX    @DPTR,A
   \   0000F7   8E82         MOV     DPL,R6
   \   0000F9   8F83         MOV     DPH,R7
   \   0000FB   A3           INC     DPTR
   \   0000FC   AE82         MOV     R6,DPL
   \   0000FE   AF83         MOV     R7,DPH
   1731          
   1732            *pBuf++ = listCount;
   \   000100   E5..         MOV     A,?V0 + 11
   \   000102   8E82         MOV     DPL,R6
   \   000104   8F83         MOV     DPH,R7
   \   000106   E5..         MOV     A,?V0 + 11
   \   000108   F0           MOVX    @DPTR,A
   \   000109   8E82         MOV     DPL,R6
   \   00010B   8F83         MOV     DPH,R7
   \   00010D   A3           INC     DPTR
   \   00010E   AE82         MOV     R6,DPL
   \   000110   AF83         MOV     R7,DPH
   1733          
   1734            if ( listCount > 0 )
   \   000112   E5..         MOV     A,?V0 + 11
   \   000114   C3           CLR     C
   \   000115   9401         SUBB    A,#0x1
   \   000117   402A         JC      ??ZDP_MgmtNwkUpdateNotify_2
   1735              osal_memcpy( pBuf, energyValues, listCount );
   \   000119                ; Setup parameters for call to function osal_memcpy
   \   000119   7423         MOV     A,#0x23
   \   00011B   12....       LCALL   ?XSTACK_DISP0_8
   \   00011E   E0           MOVX    A,@DPTR
   \   00011F   F5..         MOV     ?V0 + 8,A
   \   000121   A3           INC     DPTR
   \   000122   E0           MOVX    A,@DPTR
   \   000123   F5..         MOV     ?V0 + 9,A
   \   000125   75..00       MOV     ?V0 + 10,#0x0
   \   000128   78..         MOV     R0,#?V0 + 8
   \   00012A   12....       LCALL   ?PUSH_XSTACK_I_THREE
   \   00012D   85....       MOV     ?V0 + 8,?V0 + 11
   \   000130   75..00       MOV     ?V0 + 9,#0x0
   \   000133   AC..         MOV     R4,?V0 + 8
   \   000135   AD..         MOV     R5,?V0 + 9
   \   000137   EE           MOV     A,R6
   \   000138   FA           MOV     R2,A
   \   000139   EF           MOV     A,R7
   \   00013A   FB           MOV     R3,A
   \   00013B   12....       LCALL   ??osal_memcpy?relay
   \   00013E   7403         MOV     A,#0x3
   \   000140   12....       LCALL   ?DEALLOC_XSTACK8
   1736          
   1737            FillAndSendBufferTxOptions( &TransSeq, dstAddr, Mgmt_NWK_Update_notify, len, buf, txOptions );
   \                     ??ZDP_MgmtNwkUpdateNotify_2:
   \   000143   85..82       MOV     DPL,?V0 + 12
   \   000146   85..83       MOV     DPH,?V0 + 13
   \   000149   A3           INC     DPTR
   \   00014A   A882         MOV     R0,DPL
   \   00014C   A983         MOV     R1,DPH
   \   00014E   90....       MOV     DPTR,#ZDP_TmpBuf
   \   000151   E8           MOV     A,R0
   \   000152   F0           MOVX    @DPTR,A
   \   000153   A3           INC     DPTR
   \   000154   E9           MOV     A,R1
   \   000155   F0           MOVX    @DPTR,A
   \   000156   7425         MOV     A,#0x25
   \   000158   12....       LCALL   ?XSTACK_DISP0_8
   \   00015B   E0           MOVX    A,@DPTR
   \   00015C   90....       MOV     DPTR,#ZDP_TxOptions
   \   00015F   F0           MOVX    @DPTR,A
   \   000160                ; Setup parameters for call to function fillAndSend
   \   000160   75..38       MOV     ?V0 + 8,#0x38
   \   000163   75..80       MOV     ?V0 + 9,#-0x80
   \   000166   78..         MOV     R0,#?V0 + 8
   \   000168   12....       LCALL   ?PUSH_XSTACK_I_TWO
   \   00016B   A9..         MOV     R1,?V0 + 14
   \   00016D   7403         MOV     A,#0x3
   \   00016F   12....       LCALL   ?XSTACK_DISP0_8
   \   000172   E0           MOVX    A,@DPTR
   \   000173   FC           MOV     R4,A
   \   000174   A3           INC     DPTR
   \   000175   E0           MOVX    A,@DPTR
   \   000176   FD           MOV     R5,A
   \   000177   7402         MOV     A,#0x2
   \   000179   12....       LCALL   ?XSTACK_DISP0_8
   \   00017C   AA82         MOV     R2,DPL
   \   00017E   AB83         MOV     R3,DPH
   \   000180   12....       LCALL   ??fillAndSend?relay
   \   000183   7402         MOV     A,#0x2
   \   000185   12....       LCALL   ?DEALLOC_XSTACK8
   \   000188   E9           MOV     A,R1
   \   000189   F5..         MOV     ?V0 + 10,A
   \   00018B                ; Setup parameters for call to function osal_mem_free
   \   00018B   AA..         MOV     R2,?V0 + 12
   \   00018D   AB..         MOV     R3,?V0 + 13
   \   00018F   12....       LCALL   ??osal_mem_free?relay
   \   000192   90....       MOV     DPTR,#ZDP_TmpBuf
   \   000195   74..         MOV     A,#(ZDP_Buf + 1) & 0xff
   \   000197   F0           MOVX    @DPTR,A
   \   000198   A3           INC     DPTR
   \   000199   74..         MOV     A,#((ZDP_Buf + 1) >> 8) & 0xff
   \   00019B   F0           MOVX    @DPTR,A
   \   00019C   90....       MOV     DPTR,#ZDP_TxOptions
   \   00019F   7400         MOV     A,#0x0
   \   0001A1   F0           MOVX    @DPTR,A
   \   0001A2   A9..         MOV     R1,?V0 + 10
   \                     ??ZDP_MgmtNwkUpdateNotify_1:
   \   0001A4   7403         MOV     A,#0x3
   \   0001A6   12....       LCALL   ?DEALLOC_XSTACK8
   \   0001A9   7F10         MOV     R7,#0x10
   \   0001AB   02....       LJMP    ?BANKED_LEAVE_XDATA
   1738          }
   1739          
   1740          /*********************************************************************
   1741           * Functions to register for ZDO Over-the-air messages
   1742           */
   1743          
   1744          /*********************************************************************
   1745           * @fn          ZDO_RegisterForZDOMsg
   1746           *
   1747           * @brief       Call this function to register of an incoming over
   1748           *              the air ZDO message - probably a response message
   1749           *              but requests can also be received.
   1750           *              Messages are delivered to the task with ZDO_CB_MSG
   1751           *              as the message ID.
   1752           *
   1753           * @param       taskID - Where you would like the message delivered
   1754           * @param       clusterID - What message?
   1755           *
   1756           * @return      ZSuccess - successful, ZMemError if not
   1757           */

   \                                 In  segment BANKED_CODE, align 1, keep-with-next
   1758          ZStatus_t ZDO_RegisterForZDOMsg( uint8 taskID, uint16 clusterID )
   \                     ZDO_RegisterForZDOMsg:
   1759          {
   \   000000   74EE         MOV     A,#-0x12
   \   000002   12....       LCALL   ?BANKED_ENTER_XDATA
   \   000005                ; Saved register size: 18
   \   000005                ; Auto size: 0
   \   000005   89..         MOV     ?V0 + 6,R1
   \   000007   8A..         MOV     ?V0 + 4,R2
   \   000009   8B..         MOV     ?V0 + 5,R3
   1760            ZDO_MsgCB_t *pList;
   1761            ZDO_MsgCB_t *pLast;
   1762            ZDO_MsgCB_t *pNew;
   1763          
   1764            // Look for duplicate
   1765            pList = pLast = zdoMsgCBs;
   \   00000B   90....       MOV     DPTR,#zdoMsgCBs
   \   00000E   E0           MOVX    A,@DPTR
   \   00000F   F8           MOV     R0,A
   \   000010   A3           INC     DPTR
   \   000011   E0           MOVX    A,@DPTR
   \   000012   F9           MOV     R1,A
   \   000013   88..         MOV     ?V0 + 2,R0
   \   000015   89..         MOV     ?V0 + 3,R1
   \   000017   E8           MOV     A,R0
   \   000018   FE           MOV     R6,A
   \   000019   E9           MOV     A,R1
   \   00001A   FF           MOV     R7,A
   1766            while ( pList )
   \                     ??ZDO_RegisterForZDOMsg_0:
   \   00001B   EE           MOV     A,R6
   \   00001C   4F           ORL     A,R7
   \   00001D   6034         JZ      ??ZDO_RegisterForZDOMsg_1
   1767            {
   1768              if ( pList->taskID == taskID && pList->clusterID == clusterID )
   \   00001F   8E82         MOV     DPL,R6
   \   000021   8F83         MOV     DPH,R7
   \   000023   A3           INC     DPTR
   \   000024   A3           INC     DPTR
   \   000025   E0           MOVX    A,@DPTR
   \   000026   65..         XRL     A,?V0 + 6
   \   000028   7016         JNZ     ??ZDO_RegisterForZDOMsg_2
   \   00002A   8E82         MOV     DPL,R6
   \   00002C   8F83         MOV     DPH,R7
   \   00002E   A3           INC     DPTR
   \   00002F   A3           INC     DPTR
   \   000030   A3           INC     DPTR
   \   000031   E0           MOVX    A,@DPTR
   \   000032   65..         XRL     A,?V0 + 4
   \   000034   7004         JNZ     ??ZDO_RegisterForZDOMsg_3
   \   000036   A3           INC     DPTR
   \   000037   E0           MOVX    A,@DPTR
   \   000038   65..         XRL     A,?V0 + 5
   \                     ??ZDO_RegisterForZDOMsg_3:
   \   00003A   7004         JNZ     ??ZDO_RegisterForZDOMsg_2
   1769                return ( ZSuccess );
   \   00003C   7900         MOV     R1,#0x0
   \   00003E   807F         SJMP    ??ZDO_RegisterForZDOMsg_4
   1770              pLast = pList;
   \                     ??ZDO_RegisterForZDOMsg_2:
   \   000040   EE           MOV     A,R6
   \   000041   F8           MOV     R0,A
   \   000042   EF           MOV     A,R7
   \   000043   F9           MOV     R1,A
   \   000044   88..         MOV     ?V0 + 2,R0
   \   000046   89..         MOV     ?V0 + 3,R1
   1771              pList = (ZDO_MsgCB_t *)pList->next;
   \   000048   8E82         MOV     DPL,R6
   \   00004A   8F83         MOV     DPH,R7
   \   00004C   E0           MOVX    A,@DPTR
   \   00004D   FE           MOV     R6,A
   \   00004E   A3           INC     DPTR
   \   00004F   E0           MOVX    A,@DPTR
   \   000050   FF           MOV     R7,A
   \   000051   80C8         SJMP    ??ZDO_RegisterForZDOMsg_0
   1772            }
   1773          
   1774            // Add to the list
   1775            pNew = (ZDO_MsgCB_t *)osal_mem_alloc( sizeof ( ZDO_MsgCB_t ) );
   \                     ??ZDO_RegisterForZDOMsg_1:
   \   000053                ; Setup parameters for call to function osal_mem_alloc
   \   000053   7A05         MOV     R2,#0x5
   \   000055   7B00         MOV     R3,#0x0
   \   000057   12....       LCALL   ??osal_mem_alloc?relay
   \   00005A   8A..         MOV     ?V0 + 8,R2
   \   00005C   8B..         MOV     ?V0 + 9,R3
   \   00005E   85....       MOV     ?V0 + 0,?V0 + 8
   \   000061   85....       MOV     ?V0 + 1,?V0 + 9
   1776            if ( pNew )
   \   000064   E5..         MOV     A,?V0 + 0
   \   000066   45..         ORL     A,?V0 + 1
   \   000068   6053         JZ      ??ZDO_RegisterForZDOMsg_5
   1777            {
   1778              pNew->taskID = taskID;
   \   00006A   E5..         MOV     A,?V0 + 6
   \   00006C   85..82       MOV     DPL,?V0 + 0
   \   00006F   85..83       MOV     DPH,?V0 + 1
   \   000072   A3           INC     DPTR
   \   000073   A3           INC     DPTR
   \   000074   E5..         MOV     A,?V0 + 6
   \   000076   F0           MOVX    @DPTR,A
   1779              pNew->clusterID = clusterID;
   \   000077   85..82       MOV     DPL,?V0 + 0
   \   00007A   85..83       MOV     DPH,?V0 + 1
   \   00007D   A3           INC     DPTR
   \   00007E   A3           INC     DPTR
   \   00007F   A3           INC     DPTR
   \   000080   E5..         MOV     A,?V0 + 4
   \   000082   F0           MOVX    @DPTR,A
   \   000083   A3           INC     DPTR
   \   000084   E5..         MOV     A,?V0 + 5
   \   000086   F0           MOVX    @DPTR,A
   1780              pNew->next = NULL;
   \   000087   85..82       MOV     DPL,?V0 + 0
   \   00008A   85..83       MOV     DPH,?V0 + 1
   \   00008D   7400         MOV     A,#0x0
   \   00008F   F0           MOVX    @DPTR,A
   \   000090   A3           INC     DPTR
   \   000091   7400         MOV     A,#0x0
   \   000093   F0           MOVX    @DPTR,A
   1781              if ( zdoMsgCBs )
   \   000094   90....       MOV     DPTR,#zdoMsgCBs
   \   000097   E0           MOVX    A,@DPTR
   \   000098   F8           MOV     R0,A
   \   000099   A3           INC     DPTR
   \   00009A   E0           MOVX    A,@DPTR
   \   00009B   F9           MOV     R1,A
   \   00009C   E8           MOV     A,R0
   \   00009D   49           ORL     A,R1
   \   00009E   600F         JZ      ??ZDO_RegisterForZDOMsg_6
   1782              {
   1783                pLast->next = pNew;
   \   0000A0   85..82       MOV     DPL,?V0 + 2
   \   0000A3   85..83       MOV     DPH,?V0 + 3
   \   0000A6   E5..         MOV     A,?V0 + 0
   \   0000A8   F0           MOVX    @DPTR,A
   \   0000A9   A3           INC     DPTR
   \   0000AA   E5..         MOV     A,?V0 + 1
   \   0000AC   F0           MOVX    @DPTR,A
   \   0000AD   800A         SJMP    ??ZDO_RegisterForZDOMsg_7
   1784              }
   1785              else
   1786                zdoMsgCBs = pNew;
   \                     ??ZDO_RegisterForZDOMsg_6:
   \   0000AF   90....       MOV     DPTR,#zdoMsgCBs
   \   0000B2   E5..         MOV     A,?V0 + 0
   \   0000B4   F0           MOVX    @DPTR,A
   \   0000B5   A3           INC     DPTR
   \   0000B6   E5..         MOV     A,?V0 + 1
   \   0000B8   F0           MOVX    @DPTR,A
   1787              return ( ZSuccess );
   \                     ??ZDO_RegisterForZDOMsg_7:
   \   0000B9   7900         MOV     R1,#0x0
   \   0000BB   8002         SJMP    ??ZDO_RegisterForZDOMsg_4
   1788            }
   1789            else
   1790              return ( ZMemError );
   \                     ??ZDO_RegisterForZDOMsg_5:
   \   0000BD   7910         MOV     R1,#0x10
   \                     ??ZDO_RegisterForZDOMsg_4:
   \   0000BF   7F0A         MOV     R7,#0xa
   \   0000C1   02....       LJMP    ?BANKED_LEAVE_XDATA
   1791          }
   1792          
   1793          /*********************************************************************
   1794           * @fn          ZDO_RemoveRegisteredCB
   1795           *
   1796           * @brief       Call this function if you don't want to receive the
   1797           *              incoming message.
   1798           *
   1799           * @param       taskID - Where the messages are being delivered.
   1800           * @param       clusterID - What message?
   1801           *
   1802           * @return      ZSuccess - successful, ZFailure if not found
   1803           */

   \                                 In  segment BANKED_CODE, align 1, keep-with-next
   1804          ZStatus_t ZDO_RemoveRegisteredCB( uint8 taskID, uint16 clusterID )
   \                     ZDO_RemoveRegisteredCB:
   1805          {
   \   000000   74F3         MOV     A,#-0xd
   \   000002   12....       LCALL   ?BANKED_ENTER_XDATA
   \   000005                ; Saved register size: 13
   \   000005                ; Auto size: 0
   \   000005   89..         MOV     ?V0 + 4,R1
   \   000007   8A..         MOV     ?V0 + 2,R2
   \   000009   8B..         MOV     ?V0 + 3,R3
   1806            ZDO_MsgCB_t *pList;
   1807            ZDO_MsgCB_t *pLast = NULL;
   \   00000B   75..00       MOV     ?V0 + 0,#0x0
   \   00000E   75..00       MOV     ?V0 + 1,#0x0
   1808          
   1809            pList = zdoMsgCBs;
   \   000011   90....       MOV     DPTR,#zdoMsgCBs
   \   000014   E0           MOVX    A,@DPTR
   \   000015   F8           MOV     R0,A
   \   000016   A3           INC     DPTR
   \   000017   E0           MOVX    A,@DPTR
   \   000018   F9           MOV     R1,A
   \   000019   E8           MOV     A,R0
   \   00001A   FE           MOV     R6,A
   \   00001B   E9           MOV     A,R1
   \   00001C   FF           MOV     R7,A
   1810            while ( pList )
   \                     ??ZDO_RemoveRegisteredCB_0:
   \   00001D   EE           MOV     A,R6
   \   00001E   4F           ORL     A,R7
   \   00001F   7003         JNZ     $+5
   \   000021   02....       LJMP    ??ZDO_RemoveRegisteredCB_1 & 0xFFFF
   1811            {
   1812              if ( pList->taskID == taskID && pList->clusterID == clusterID )
   \   000024   8E82         MOV     DPL,R6
   \   000026   8F83         MOV     DPH,R7
   \   000028   A3           INC     DPTR
   \   000029   A3           INC     DPTR
   \   00002A   E0           MOVX    A,@DPTR
   \   00002B   65..         XRL     A,?V0 + 4
   \   00002D   7063         JNZ     ??ZDO_RemoveRegisteredCB_2
   \   00002F   8E82         MOV     DPL,R6
   \   000031   8F83         MOV     DPH,R7
   \   000033   A3           INC     DPTR
   \   000034   A3           INC     DPTR
   \   000035   A3           INC     DPTR
   \   000036   E0           MOVX    A,@DPTR
   \   000037   65..         XRL     A,?V0 + 2
   \   000039   7004         JNZ     ??ZDO_RemoveRegisteredCB_3
   \   00003B   A3           INC     DPTR
   \   00003C   E0           MOVX    A,@DPTR
   \   00003D   65..         XRL     A,?V0 + 3
   \                     ??ZDO_RemoveRegisteredCB_3:
   \   00003F   7051         JNZ     ??ZDO_RemoveRegisteredCB_2
   1813              {
   1814                if ( pLast )
   \   000041   E5..         MOV     A,?V0 + 0
   \   000043   45..         ORL     A,?V0 + 1
   \   000045   6016         JZ      ??ZDO_RemoveRegisteredCB_4
   1815                {
   1816                  // remove this one from the linked list
   1817                  pLast->next = pList->next;
   \   000047   8E82         MOV     DPL,R6
   \   000049   8F83         MOV     DPH,R7
   \   00004B   E0           MOVX    A,@DPTR
   \   00004C   F8           MOV     R0,A
   \   00004D   A3           INC     DPTR
   \   00004E   E0           MOVX    A,@DPTR
   \   00004F   F9           MOV     R1,A
   \   000050   85..82       MOV     DPL,?V0 + 0
   \   000053   85..83       MOV     DPH,?V0 + 1
   \   000056   E8           MOV     A,R0
   \   000057   F0           MOVX    @DPTR,A
   \   000058   A3           INC     DPTR
   \   000059   E9           MOV     A,R1
   \   00005A   F0           MOVX    @DPTR,A
   \   00005B   802A         SJMP    ??ZDO_RemoveRegisteredCB_5
   1818                }
   1819                else if ( pList->next )
   \                     ??ZDO_RemoveRegisteredCB_4:
   \   00005D   8E82         MOV     DPL,R6
   \   00005F   8F83         MOV     DPH,R7
   \   000061   E0           MOVX    A,@DPTR
   \   000062   F8           MOV     R0,A
   \   000063   A3           INC     DPTR
   \   000064   E0           MOVX    A,@DPTR
   \   000065   F9           MOV     R1,A
   \   000066   E8           MOV     A,R0
   \   000067   49           ORL     A,R1
   \   000068   6013         JZ      ??ZDO_RemoveRegisteredCB_6
   1820                {
   1821                  // remove the first one from the linked list
   1822                  zdoMsgCBs = pList->next;
   \   00006A   8E82         MOV     DPL,R6
   \   00006C   8F83         MOV     DPH,R7
   \   00006E   E0           MOVX    A,@DPTR
   \   00006F   F8           MOV     R0,A
   \   000070   A3           INC     DPTR
   \   000071   E0           MOVX    A,@DPTR
   \   000072   F9           MOV     R1,A
   \   000073   90....       MOV     DPTR,#zdoMsgCBs
   \   000076   E8           MOV     A,R0
   \   000077   F0           MOVX    @DPTR,A
   \   000078   A3           INC     DPTR
   \   000079   E9           MOV     A,R1
   \   00007A   F0           MOVX    @DPTR,A
   \   00007B   800A         SJMP    ??ZDO_RemoveRegisteredCB_5
   1823                }
   1824                else
   1825                {
   1826                  // remove the only item from the list
   1827                  zdoMsgCBs = (ZDO_MsgCB_t *)NULL;
   \                     ??ZDO_RemoveRegisteredCB_6:
   \   00007D   90....       MOV     DPTR,#zdoMsgCBs
   \   000080   7400         MOV     A,#0x0
   \   000082   F0           MOVX    @DPTR,A
   \   000083   A3           INC     DPTR
   \   000084   7400         MOV     A,#0x0
   \   000086   F0           MOVX    @DPTR,A
   1828                }
   1829                osal_mem_free( pList );
   \                     ??ZDO_RemoveRegisteredCB_5:
   \   000087                ; Setup parameters for call to function osal_mem_free
   \   000087   EE           MOV     A,R6
   \   000088   FA           MOV     R2,A
   \   000089   EF           MOV     A,R7
   \   00008A   FB           MOV     R3,A
   \   00008B   12....       LCALL   ??osal_mem_free?relay
   1830                return ( ZSuccess );
   \   00008E   7900         MOV     R1,#0x0
   \   000090   8016         SJMP    ??ZDO_RemoveRegisteredCB_7
   1831              }
   1832              pLast = pList;
   \                     ??ZDO_RemoveRegisteredCB_2:
   \   000092   EE           MOV     A,R6
   \   000093   F8           MOV     R0,A
   \   000094   EF           MOV     A,R7
   \   000095   F9           MOV     R1,A
   \   000096   88..         MOV     ?V0 + 0,R0
   \   000098   89..         MOV     ?V0 + 1,R1
   1833              pList = pList->next;
   \   00009A   8E82         MOV     DPL,R6
   \   00009C   8F83         MOV     DPH,R7
   \   00009E   E0           MOVX    A,@DPTR
   \   00009F   FE           MOV     R6,A
   \   0000A0   A3           INC     DPTR
   \   0000A1   E0           MOVX    A,@DPTR
   \   0000A2   FF           MOV     R7,A
   \   0000A3   02....       LJMP    ??ZDO_RemoveRegisteredCB_0 & 0xFFFF
   1834            }
   1835          
   1836            return ( ZFailure );
   \                     ??ZDO_RemoveRegisteredCB_1:
   \   0000A6   7901         MOV     R1,#0x1
   \                     ??ZDO_RemoveRegisteredCB_7:
   \   0000A8   7F05         MOV     R7,#0x5
   \   0000AA   02....       LJMP    ?BANKED_LEAVE_XDATA
   1837          }
   1838          
   1839          /*********************************************************************
   1840           * @fn          ZDO_SendMsgCBs
   1841           *
   1842           * @brief       This function sends messages to registered tasks.
   1843           *              Local to ZDO and shouldn't be called outside of ZDO.
   1844           *
   1845           * @param       inMsg - incoming message
   1846           *
   1847           * @return      TRUE if sent to at least 1 task, FALSE if not
   1848           */

   \                                 In  segment BANKED_CODE, align 1, keep-with-next
   1849          uint8 ZDO_SendMsgCBs( zdoIncomingMsg_t *inMsg )
   \                     ZDO_SendMsgCBs:
   1850          {
   \   000000   74F0         MOV     A,#-0x10
   \   000002   12....       LCALL   ?BANKED_ENTER_XDATA
   \   000005                ; Saved register size: 16
   \   000005                ; Auto size: 0
   \   000005   8A..         MOV     ?V0 + 2,R2
   \   000007   8B..         MOV     ?V0 + 3,R3
   1851            uint8 ret = FALSE;
   \   000009   75..00       MOV     ?V0 + 7,#0x0
   1852            ZDO_MsgCB_t *pList = zdoMsgCBs;
   \   00000C   90....       MOV     DPTR,#zdoMsgCBs
   \   00000F   E0           MOVX    A,@DPTR
   \   000010   F5..         MOV     ?V0 + 0,A
   \   000012   A3           INC     DPTR
   \   000013   E0           MOVX    A,@DPTR
   \   000014   F5..         MOV     ?V0 + 1,A
   1853            while ( pList )
   \                     ??ZDO_SendMsgCBs_0:
   \   000016   E5..         MOV     A,?V0 + 0
   \   000018   45..         ORL     A,?V0 + 1
   \   00001A   7003         JNZ     $+5
   \   00001C   02....       LJMP    ??ZDO_SendMsgCBs_1 & 0xFFFF
   1854            {
   1855              if ( pList->clusterID == inMsg->clusterID )
   \   00001F   85..82       MOV     DPL,?V0 + 0
   \   000022   85..83       MOV     DPH,?V0 + 1
   \   000025   A3           INC     DPTR
   \   000026   A3           INC     DPTR
   \   000027   A3           INC     DPTR
   \   000028   E0           MOVX    A,@DPTR
   \   000029   F8           MOV     R0,A
   \   00002A   A3           INC     DPTR
   \   00002B   E0           MOVX    A,@DPTR
   \   00002C   F9           MOV     R1,A
   \   00002D   E5..         MOV     A,?V0 + 2
   \   00002F   240C         ADD     A,#0xc
   \   000031   F582         MOV     DPL,A
   \   000033   E5..         MOV     A,?V0 + 3
   \   000035   3400         ADDC    A,#0x0
   \   000037   F583         MOV     DPH,A
   \   000039   E0           MOVX    A,@DPTR
   \   00003A   68           XRL     A,R0
   \   00003B   7003         JNZ     ??ZDO_SendMsgCBs_2
   \   00003D   A3           INC     DPTR
   \   00003E   E0           MOVX    A,@DPTR
   \   00003F   69           XRL     A,R1
   \                     ??ZDO_SendMsgCBs_2:
   \   000040   6003         JZ      $+5
   \   000042   02....       LJMP    ??ZDO_SendMsgCBs_3 & 0xFFFF
   1856              {
   1857                zdoIncomingMsg_t *msgPtr;
   1858          
   1859                // Send the address to the task
   1860                msgPtr = (zdoIncomingMsg_t *)osal_msg_allocate( sizeof( zdoIncomingMsg_t ) + inMsg->asduLen );
   \   000045                ; Setup parameters for call to function osal_msg_allocate
   \   000045   E5..         MOV     A,?V0 + 2
   \   000047   2410         ADD     A,#0x10
   \   000049   F582         MOV     DPL,A
   \   00004B   E5..         MOV     A,?V0 + 3
   \   00004D   3400         ADDC    A,#0x0
   \   00004F   F583         MOV     DPH,A
   \   000051   E0           MOVX    A,@DPTR
   \   000052   F8           MOV     R0,A
   \   000053   7900         MOV     R1,#0x0
   \   000055   2415         ADD     A,#0x15
   \   000057   FA           MOV     R2,A
   \   000058   E9           MOV     A,R1
   \   000059   3400         ADDC    A,#0x0
   \   00005B   FB           MOV     R3,A
   \   00005C   12....       LCALL   ??osal_msg_allocate?relay
   \   00005F   8A..         MOV     ?V0 + 4,R2
   \   000061   8B..         MOV     ?V0 + 5,R3
   \   000063   AE..         MOV     R6,?V0 + 4
   \   000065   AF..         MOV     R7,?V0 + 5
   1861                if ( msgPtr )
   \   000067   EE           MOV     A,R6
   \   000068   4F           ORL     A,R7
   \   000069   7003         JNZ     $+5
   \   00006B   02....       LJMP    ??ZDO_SendMsgCBs_3 & 0xFFFF
   1862                {
   1863                  // copy struct
   1864                  osal_memcpy( msgPtr, inMsg, sizeof( zdoIncomingMsg_t ));
   \   00006E                ; Setup parameters for call to function osal_memcpy
   \   00006E   85....       MOV     ?V0 + 4,?V0 + 2
   \   000071   85....       MOV     ?V0 + 5,?V0 + 3
   \   000074   75..00       MOV     ?V0 + 6,#0x0
   \   000077   78..         MOV     R0,#?V0 + 4
   \   000079   12....       LCALL   ?PUSH_XSTACK_I_THREE
   \   00007C   7C15         MOV     R4,#0x15
   \   00007E   7D00         MOV     R5,#0x0
   \   000080   EE           MOV     A,R6
   \   000081   FA           MOV     R2,A
   \   000082   EF           MOV     A,R7
   \   000083   FB           MOV     R3,A
   \   000084   12....       LCALL   ??osal_memcpy?relay
   \   000087   7403         MOV     A,#0x3
   \   000089   12....       LCALL   ?DEALLOC_XSTACK8
   1865          
   1866                  if ( inMsg->asduLen )
   \   00008C   E5..         MOV     A,?V0 + 2
   \   00008E   2410         ADD     A,#0x10
   \   000090   F582         MOV     DPL,A
   \   000092   E5..         MOV     A,?V0 + 3
   \   000094   3400         ADDC    A,#0x0
   \   000096   F583         MOV     DPH,A
   \   000098   E0           MOVX    A,@DPTR
   \   000099   6059         JZ      ??ZDO_SendMsgCBs_4
   1867                  {
   1868                    msgPtr->asdu = (byte*)(((byte*)msgPtr) + sizeof( zdoIncomingMsg_t ));
   \   00009B   EE           MOV     A,R6
   \   00009C   2415         ADD     A,#0x15
   \   00009E   F8           MOV     R0,A
   \   00009F   EF           MOV     A,R7
   \   0000A0   3400         ADDC    A,#0x0
   \   0000A2   F9           MOV     R1,A
   \   0000A3   EE           MOV     A,R6
   \   0000A4   2413         ADD     A,#0x13
   \   0000A6   F582         MOV     DPL,A
   \   0000A8   EF           MOV     A,R7
   \   0000A9   3400         ADDC    A,#0x0
   \   0000AB   F583         MOV     DPH,A
   \   0000AD   E8           MOV     A,R0
   \   0000AE   F0           MOVX    @DPTR,A
   \   0000AF   A3           INC     DPTR
   \   0000B0   E9           MOV     A,R1
   \   0000B1   F0           MOVX    @DPTR,A
   1869                    osal_memcpy( msgPtr->asdu, inMsg->asdu, inMsg->asduLen );
   \   0000B2                ; Setup parameters for call to function osal_memcpy
   \   0000B2   E5..         MOV     A,?V0 + 2
   \   0000B4   2413         ADD     A,#0x13
   \   0000B6   F582         MOV     DPL,A
   \   0000B8   E5..         MOV     A,?V0 + 3
   \   0000BA   3400         ADDC    A,#0x0
   \   0000BC   F583         MOV     DPH,A
   \   0000BE   E0           MOVX    A,@DPTR
   \   0000BF   F5..         MOV     ?V0 + 4,A
   \   0000C1   A3           INC     DPTR
   \   0000C2   E0           MOVX    A,@DPTR
   \   0000C3   F5..         MOV     ?V0 + 5,A
   \   0000C5   75..00       MOV     ?V0 + 6,#0x0
   \   0000C8   78..         MOV     R0,#?V0 + 4
   \   0000CA   12....       LCALL   ?PUSH_XSTACK_I_THREE
   \   0000CD   E5..         MOV     A,?V0 + 2
   \   0000CF   2410         ADD     A,#0x10
   \   0000D1   F582         MOV     DPL,A
   \   0000D3   E5..         MOV     A,?V0 + 3
   \   0000D5   3400         ADDC    A,#0x0
   \   0000D7   F583         MOV     DPH,A
   \   0000D9   E0           MOVX    A,@DPTR
   \   0000DA   FC           MOV     R4,A
   \   0000DB   7D00         MOV     R5,#0x0
   \   0000DD   EE           MOV     A,R6
   \   0000DE   2413         ADD     A,#0x13
   \   0000E0   F582         MOV     DPL,A
   \   0000E2   EF           MOV     A,R7
   \   0000E3   3400         ADDC    A,#0x0
   \   0000E5   F583         MOV     DPH,A
   \   0000E7   E0           MOVX    A,@DPTR
   \   0000E8   FA           MOV     R2,A
   \   0000E9   A3           INC     DPTR
   \   0000EA   E0           MOVX    A,@DPTR
   \   0000EB   FB           MOV     R3,A
   \   0000EC   12....       LCALL   ??osal_memcpy?relay
   \   0000EF   7403         MOV     A,#0x3
   \   0000F1   12....       LCALL   ?DEALLOC_XSTACK8
   1870                  }
   1871          
   1872                  msgPtr->hdr.event = ZDO_CB_MSG;
   \                     ??ZDO_SendMsgCBs_4:
   \   0000F4   8E82         MOV     DPL,R6
   \   0000F6   8F83         MOV     DPH,R7
   \   0000F8   74D3         MOV     A,#-0x2d
   \   0000FA   F0           MOVX    @DPTR,A
   1873                  osal_msg_send( pList->taskID, (uint8 *)msgPtr );
   \   0000FB                ; Setup parameters for call to function osal_msg_send
   \   0000FB   EE           MOV     A,R6
   \   0000FC   FA           MOV     R2,A
   \   0000FD   EF           MOV     A,R7
   \   0000FE   FB           MOV     R3,A
   \   0000FF   85..82       MOV     DPL,?V0 + 0
   \   000102   85..83       MOV     DPH,?V0 + 1
   \   000105   A3           INC     DPTR
   \   000106   A3           INC     DPTR
   \   000107   E0           MOVX    A,@DPTR
   \   000108   F9           MOV     R1,A
   \   000109   12....       LCALL   ??osal_msg_send?relay
   \   00010C   E9           MOV     A,R1
   1874                  ret = TRUE;
   \   00010D   75..01       MOV     ?V0 + 7,#0x1
   1875                }
   1876              }
   1877              pList = (ZDO_MsgCB_t *)pList->next;
   \                     ??ZDO_SendMsgCBs_3:
   \   000110   85..82       MOV     DPL,?V0 + 0
   \   000113   85..83       MOV     DPH,?V0 + 1
   \   000116   E0           MOVX    A,@DPTR
   \   000117   F5..         MOV     ?V0 + 0,A
   \   000119   A3           INC     DPTR
   \   00011A   E0           MOVX    A,@DPTR
   \   00011B   F5..         MOV     ?V0 + 1,A
   \   00011D   02....       LJMP    ??ZDO_SendMsgCBs_0 & 0xFFFF
   1878            }
   1879            return ( ret );
   \                     ??ZDO_SendMsgCBs_1:
   \   000120   A9..         MOV     R1,?V0 + 7
   \   000122   7F08         MOV     R7,#0x8
   \   000124   02....       LJMP    ?BANKED_LEAVE_XDATA
   1880          }
   1881          
   1882          /*********************************************************************
   1883           * Incoming message processor
   1884           */
   1885          
   1886          /*********************************************************************
   1887           * @fn          ZDP_IncomingData
   1888           *
   1889           * @brief       This function indicates the transfer of a data PDU (ASDU)
   1890           *              from the APS sub-layer to the ZDO.
   1891           *
   1892           * @param       pData - Incoming Message
   1893           *
   1894           * @return      none
   1895           */

   \                                 In  segment BANKED_CODE, align 1, keep-with-next
   1896          void ZDP_IncomingData( afIncomingMSGPacket_t *pData )
   \                     ZDP_IncomingData:
   1897          {
   \   000000   74F6         MOV     A,#-0xa
   \   000002   12....       LCALL   ?BANKED_ENTER_XDATA
   \   000005                ; Saved register size: 10
   \   000005                ; Auto size: 21
   \   000005   74EB         MOV     A,#-0x15
   \   000007   12....       LCALL   ?ALLOC_XSTACK8
   \   00000A   EA           MOV     A,R2
   \   00000B   FE           MOV     R6,A
   \   00000C   EB           MOV     A,R3
   \   00000D   FF           MOV     R7,A
   1898            uint8 x = 0;
   \   00000E   75..00       MOV     ?V0 + 0,#0x0
   1899            uint8 handled;
   1900            zdoIncomingMsg_t inMsg;
   1901          
   1902            inMsg.srcAddr.addrMode = Addr16Bit;
   \   000011   740A         MOV     A,#0xa
   \   000013   12....       LCALL   ?XSTACK_DISP0_8
   \   000016   7402         MOV     A,#0x2
   \   000018   F0           MOVX    @DPTR,A
   1903            inMsg.srcAddr.addr.shortAddr = pData->srcAddr.addr.shortAddr;
   \   000019   8E82         MOV     DPL,R6
   \   00001B   8F83         MOV     DPH,R7
   \   00001D   A3           INC     DPTR
   \   00001E   A3           INC     DPTR
   \   00001F   A3           INC     DPTR
   \   000020   A3           INC     DPTR
   \   000021   A3           INC     DPTR
   \   000022   A3           INC     DPTR
   \   000023   E0           MOVX    A,@DPTR
   \   000024   F8           MOV     R0,A
   \   000025   A3           INC     DPTR
   \   000026   E0           MOVX    A,@DPTR
   \   000027   F9           MOV     R1,A
   \   000028   7402         MOV     A,#0x2
   \   00002A   12....       LCALL   ?XSTACK_DISP0_8
   \   00002D   E8           MOV     A,R0
   \   00002E   F0           MOVX    @DPTR,A
   \   00002F   A3           INC     DPTR
   \   000030   E9           MOV     A,R1
   \   000031   F0           MOVX    @DPTR,A
   1904            inMsg.wasBroadcast = pData->wasBroadcast;
   \   000032   EE           MOV     A,R6
   \   000033   2415         ADD     A,#0x15
   \   000035   F582         MOV     DPL,A
   \   000037   EF           MOV     A,R7
   \   000038   3400         ADDC    A,#0x0
   \   00003A   F583         MOV     DPH,A
   \   00003C   E0           MOVX    A,@DPTR
   \   00003D   C0E0         PUSH    A
   \   00003F   740B         MOV     A,#0xb
   \   000041   12....       LCALL   ?XSTACK_DISP0_8
   \   000044   D0E0         POP     A
   \   000046   F0           MOVX    @DPTR,A
   1905            inMsg.clusterID = pData->clusterId;
   \   000047   8E82         MOV     DPL,R6
   \   000049   8F83         MOV     DPH,R7
   \   00004B   A3           INC     DPTR
   \   00004C   A3           INC     DPTR
   \   00004D   A3           INC     DPTR
   \   00004E   A3           INC     DPTR
   \   00004F   E0           MOVX    A,@DPTR
   \   000050   F8           MOV     R0,A
   \   000051   A3           INC     DPTR
   \   000052   E0           MOVX    A,@DPTR
   \   000053   F9           MOV     R1,A
   \   000054   740C         MOV     A,#0xc
   \   000056   12....       LCALL   ?XSTACK_DISP0_8
   \   000059   E8           MOV     A,R0
   \   00005A   F0           MOVX    @DPTR,A
   \   00005B   A3           INC     DPTR
   \   00005C   E9           MOV     A,R1
   \   00005D   F0           MOVX    @DPTR,A
   1906            inMsg.SecurityUse = pData->SecurityUse;
   \   00005E   EE           MOV     A,R6
   \   00005F   2419         ADD     A,#0x19
   \   000061   F582         MOV     DPL,A
   \   000063   EF           MOV     A,R7
   \   000064   3400         ADDC    A,#0x0
   \   000066   F583         MOV     DPH,A
   \   000068   E0           MOVX    A,@DPTR
   \   000069   C0E0         PUSH    A
   \   00006B   740E         MOV     A,#0xe
   \   00006D   12....       LCALL   ?XSTACK_DISP0_8
   \   000070   D0E0         POP     A
   \   000072   F0           MOVX    @DPTR,A
   1907          
   1908            inMsg.asduLen = pData->cmd.DataLength-1;
   \   000073   EE           MOV     A,R6
   \   000074   2420         ADD     A,#0x20
   \   000076   F582         MOV     DPL,A
   \   000078   EF           MOV     A,R7
   \   000079   3400         ADDC    A,#0x0
   \   00007B   F583         MOV     DPH,A
   \   00007D   E0           MOVX    A,@DPTR
   \   00007E   F8           MOV     R0,A
   \   00007F   A3           INC     DPTR
   \   000080   E0           MOVX    A,@DPTR
   \   000081   F9           MOV     R1,A
   \   000082   E8           MOV     A,R0
   \   000083   24FF         ADD     A,#-0x1
   \   000085   C0E0         PUSH    A
   \   000087   7410         MOV     A,#0x10
   \   000089   12....       LCALL   ?XSTACK_DISP0_8
   \   00008C   D0E0         POP     A
   \   00008E   F0           MOVX    @DPTR,A
   1909            inMsg.asdu = pData->cmd.Data+1;
   \   00008F   EE           MOV     A,R6
   \   000090   2422         ADD     A,#0x22
   \   000092   F582         MOV     DPL,A
   \   000094   EF           MOV     A,R7
   \   000095   3400         ADDC    A,#0x0
   \   000097   F583         MOV     DPH,A
   \   000099   E0           MOVX    A,@DPTR
   \   00009A   2401         ADD     A,#0x1
   \   00009C   F8           MOV     R0,A
   \   00009D   A3           INC     DPTR
   \   00009E   E0           MOVX    A,@DPTR
   \   00009F   3400         ADDC    A,#0x0
   \   0000A1   F9           MOV     R1,A
   \   0000A2   7413         MOV     A,#0x13
   \   0000A4   12....       LCALL   ?XSTACK_DISP0_8
   \   0000A7   E8           MOV     A,R0
   \   0000A8   F0           MOVX    @DPTR,A
   \   0000A9   A3           INC     DPTR
   \   0000AA   E9           MOV     A,R1
   \   0000AB   F0           MOVX    @DPTR,A
   1910            inMsg.TransSeq = pData->cmd.Data[0];
   \   0000AC   EE           MOV     A,R6
   \   0000AD   2422         ADD     A,#0x22
   \   0000AF   F582         MOV     DPL,A
   \   0000B1   EF           MOV     A,R7
   \   0000B2   3400         ADDC    A,#0x0
   \   0000B4   F583         MOV     DPH,A
   \   0000B6   E0           MOVX    A,@DPTR
   \   0000B7   F8           MOV     R0,A
   \   0000B8   A3           INC     DPTR
   \   0000B9   E0           MOVX    A,@DPTR
   \   0000BA   F583         MOV     DPH,A
   \   0000BC   8882         MOV     DPL,R0
   \   0000BE   E0           MOVX    A,@DPTR
   \   0000BF   C0E0         PUSH    A
   \   0000C1   740F         MOV     A,#0xf
   \   0000C3   12....       LCALL   ?XSTACK_DISP0_8
   \   0000C6   D0E0         POP     A
   \   0000C8   F0           MOVX    @DPTR,A
   1911            inMsg.macDestAddr = pData->macDestAddr;
   \   0000C9   EE           MOV     A,R6
   \   0000CA   2412         ADD     A,#0x12
   \   0000CC   F582         MOV     DPL,A
   \   0000CE   EF           MOV     A,R7
   \   0000CF   3400         ADDC    A,#0x0
   \   0000D1   F583         MOV     DPH,A
   \   0000D3   E0           MOVX    A,@DPTR
   \   0000D4   F8           MOV     R0,A
   \   0000D5   A3           INC     DPTR
   \   0000D6   E0           MOVX    A,@DPTR
   \   0000D7   F9           MOV     R1,A
   \   0000D8   7411         MOV     A,#0x11
   \   0000DA   12....       LCALL   ?XSTACK_DISP0_8
   \   0000DD   E8           MOV     A,R0
   \   0000DE   F0           MOVX    @DPTR,A
   \   0000DF   A3           INC     DPTR
   \   0000E0   E9           MOV     A,R1
   \   0000E1   F0           MOVX    @DPTR,A
   1912          
   1913            handled = ZDO_SendMsgCBs( &inMsg );
   \   0000E2                ; Setup parameters for call to function ZDO_SendMsgCBs
   \   0000E2   85..82       MOV     DPL,?XSP + 0
   \   0000E5   85..83       MOV     DPH,?XSP + 1
   \   0000E8   AA82         MOV     R2,DPL
   \   0000EA   AB83         MOV     R3,DPH
   \   0000EC   12....       LCALL   ??ZDO_SendMsgCBs?relay
   \   0000EF   E9           MOV     A,R1
   \   0000F0   F5..         MOV     ?V0 + 1,A
   1914          
   1915          #if (defined MT_ZDO_CB_FUNC)
   1916          #if !defined MT_TASK
   1917            if (zgZdoDirectCB)
   1918          #endif
   1919            {
   1920              MT_ZdoDirectCB( pData, &inMsg );
   1921            }
   1922          #endif
   1923          
   1924            while ( zdpMsgProcs[x].clusterID != 0xFFFF )
   \                     ??ZDP_IncomingData_0:
   \   0000F2   E5..         MOV     A,?V0 + 0
   \   0000F4   A8..         MOV     R0,?V0 + 0
   \   0000F6   7900         MOV     R1,#0x0
   \   0000F8   E8           MOV     A,R0
   \   0000F9   75F004       MOV     B,#0x4
   \   0000FC   A4           MUL     AB
   \   0000FD   C8           XCH     A,R0
   \   0000FE   AAF0         MOV     R2,B
   \   000100   75F000       MOV     B,#0x0
   \   000103   A4           MUL     AB
   \   000104   2A           ADD     A,R2
   \   000105   FA           MOV     R2,A
   \   000106   75F004       MOV     B,#0x4
   \   000109   E9           MOV     A,R1
   \   00010A   A4           MUL     AB
   \   00010B   2A           ADD     A,R2
   \   00010C   F9           MOV     R1,A
   \   00010D   74..         MOV     A,#zdpMsgProcs & 0xff
   \   00010F   28           ADD     A,R0
   \   000110   F582         MOV     DPL,A
   \   000112   74..         MOV     A,#(zdpMsgProcs >> 8) & 0xff
   \   000114   39           ADDC    A,R1
   \   000115   F583         MOV     DPH,A
   \   000117   E4           CLR     A
   \   000118   93           MOVC    A,@A+DPTR
   \   000119   F8           MOV     R0,A
   \   00011A   7401         MOV     A,#0x1
   \   00011C   93           MOVC    A,@A+DPTR
   \   00011D   F9           MOV     R1,A
   \   00011E   74FF         MOV     A,#-0x1
   \   000120   68           XRL     A,R0
   \   000121   7003         JNZ     ??ZDP_IncomingData_1
   \   000123   74FF         MOV     A,#-0x1
   \   000125   69           XRL     A,R1
   \                     ??ZDP_IncomingData_1:
   \   000126   607E         JZ      ??ZDP_IncomingData_2
   1925            {
   1926              if ( zdpMsgProcs[x].clusterID == inMsg.clusterID )
   \   000128   E5..         MOV     A,?V0 + 0
   \   00012A   A8..         MOV     R0,?V0 + 0
   \   00012C   7900         MOV     R1,#0x0
   \   00012E   E8           MOV     A,R0
   \   00012F   75F004       MOV     B,#0x4
   \   000132   A4           MUL     AB
   \   000133   C8           XCH     A,R0
   \   000134   AAF0         MOV     R2,B
   \   000136   75F000       MOV     B,#0x0
   \   000139   A4           MUL     AB
   \   00013A   2A           ADD     A,R2
   \   00013B   FA           MOV     R2,A
   \   00013C   75F004       MOV     B,#0x4
   \   00013F   E9           MOV     A,R1
   \   000140   A4           MUL     AB
   \   000141   2A           ADD     A,R2
   \   000142   F9           MOV     R1,A
   \   000143   74..         MOV     A,#zdpMsgProcs & 0xff
   \   000145   28           ADD     A,R0
   \   000146   F582         MOV     DPL,A
   \   000148   74..         MOV     A,#(zdpMsgProcs >> 8) & 0xff
   \   00014A   39           ADDC    A,R1
   \   00014B   F583         MOV     DPH,A
   \   00014D   E4           CLR     A
   \   00014E   93           MOVC    A,@A+DPTR
   \   00014F   F8           MOV     R0,A
   \   000150   7401         MOV     A,#0x1
   \   000152   93           MOVC    A,@A+DPTR
   \   000153   F9           MOV     R1,A
   \   000154   740C         MOV     A,#0xc
   \   000156   12....       LCALL   ?XSTACK_DISP0_8
   \   000159   E0           MOVX    A,@DPTR
   \   00015A   68           XRL     A,R0
   \   00015B   7003         JNZ     ??ZDP_IncomingData_3
   \   00015D   A3           INC     DPTR
   \   00015E   E0           MOVX    A,@DPTR
   \   00015F   69           XRL     A,R1
   \                     ??ZDP_IncomingData_3:
   \   000160   703F         JNZ     ??ZDP_IncomingData_4
   1927              {
   1928                zdpMsgProcs[x].pFn( &inMsg );
   \   000162                ; Setup parameters for indirect call
   \   000162   85..82       MOV     DPL,?XSP + 0
   \   000165   85..83       MOV     DPH,?XSP + 1
   \   000168   AA82         MOV     R2,DPL
   \   00016A   AB83         MOV     R3,DPH
   \   00016C   E5..         MOV     A,?V0 + 0
   \   00016E   A8..         MOV     R0,?V0 + 0
   \   000170   7900         MOV     R1,#0x0
   \   000172   E8           MOV     A,R0
   \   000173   75F004       MOV     B,#0x4
   \   000176   A4           MUL     AB
   \   000177   C8           XCH     A,R0
   \   000178   ACF0         MOV     R4,B
   \   00017A   75F000       MOV     B,#0x0
   \   00017D   A4           MUL     AB
   \   00017E   2C           ADD     A,R4
   \   00017F   FC           MOV     R4,A
   \   000180   75F004       MOV     B,#0x4
   \   000183   E9           MOV     A,R1
   \   000184   A4           MUL     AB
   \   000185   2C           ADD     A,R4
   \   000186   F9           MOV     R1,A
   \   000187   74..         MOV     A,#(zdpMsgProcs + 2) & 0xff
   \   000189   28           ADD     A,R0
   \   00018A   F582         MOV     DPL,A
   \   00018C   74..         MOV     A,#((zdpMsgProcs + 2) >> 8) & 0xff
   \   00018E   39           ADDC    A,R1
   \   00018F   F583         MOV     DPH,A
   \   000191   E4           CLR     A
   \   000192   93           MOVC    A,@A+DPTR
   \   000193   C0E0         PUSH    A
   \   000195   7401         MOV     A,#0x1
   \   000197   93           MOVC    A,@A+DPTR
   \   000198   F583         MOV     DPH,A
   \   00019A   D082         POP     DPL
   \   00019C   12....       LCALL   ?CALL_IND
   1929                return;
   \   00019F   8016         SJMP    ??ZDP_IncomingData_5
   1930              }
   1931              x++;
   \                     ??ZDP_IncomingData_4:
   \   0001A1   05..         INC     ?V0 + 0
   \   0001A3   02....       LJMP    ??ZDP_IncomingData_0 & 0xFFFF
   1932            }
   1933          
   1934            // Handle unhandled messages
   1935            if ( !handled )
   \                     ??ZDP_IncomingData_2:
   \   0001A6   E5..         MOV     A,?V0 + 1
   \   0001A8   700D         JNZ     ??ZDP_IncomingData_5
   1936              ZDApp_InMsgCB( &inMsg );
   \   0001AA                ; Setup parameters for call to function ZDApp_InMsgCB
   \   0001AA   85..82       MOV     DPL,?XSP + 0
   \   0001AD   85..83       MOV     DPH,?XSP + 1
   \   0001B0   AA82         MOV     R2,DPL
   \   0001B2   AB83         MOV     R3,DPH
   \   0001B4   12....       LCALL   ??ZDApp_InMsgCB?relay
   1937          }
   \                     ??ZDP_IncomingData_5:
   \   0001B7   7415         MOV     A,#0x15
   \   0001B9   12....       LCALL   ?DEALLOC_XSTACK8
   \   0001BC   7F02         MOV     R7,#0x2
   \   0001BE   02....       LJMP    ?BANKED_LEAVE_XDATA

   \                                 In  segment XDATA_ID, align 1, keep-with-next
   \                     `?<Initializer for ZDP_TmpBuf>`:
   \   000000   ....         DW ZDP_Buf + 1H

   \                                 In  segment BANK_RELAYS, align 1
   \                     ??fillAndSend?relay:
   \   000000   12....       LCALL   ?BDISPATCH
   \   000003   ......       DC24    fillAndSend

   \                                 In  segment BANK_RELAYS, align 1
   \                     ??ZDP_SendData?relay:
   \   000000   12....       LCALL   ?BDISPATCH
   \   000003   ......       DC24    ZDP_SendData

   \                                 In  segment BANK_RELAYS, align 1
   \                     ??ZDP_NWKAddrOfInterestReq?relay:
   \   000000   12....       LCALL   ?BDISPATCH
   \   000003   ......       DC24    ZDP_NWKAddrOfInterestReq

   \                                 In  segment BANK_RELAYS, align 1
   \                     ??ZDP_NwkAddrReq?relay:
   \   000000   12....       LCALL   ?BDISPATCH
   \   000003   ......       DC24    ZDP_NwkAddrReq

   \                                 In  segment BANK_RELAYS, align 1
   \                     ??ZDP_IEEEAddrReq?relay:
   \   000000   12....       LCALL   ?BDISPATCH
   \   000003   ......       DC24    ZDP_IEEEAddrReq

   \                                 In  segment BANK_RELAYS, align 1
   \                     ??ZDP_MatchDescReq?relay:
   \   000000   12....       LCALL   ?BDISPATCH
   \   000003   ......       DC24    ZDP_MatchDescReq

   \                                 In  segment BANK_RELAYS, align 1
   \                     ??ZDP_SimpleDescReq?relay:
   \   000000   12....       LCALL   ?BDISPATCH
   \   000003   ......       DC24    ZDP_SimpleDescReq

   \                                 In  segment BANK_RELAYS, align 1
   \                     ??ZDP_UserDescSet?relay:
   \   000000   12....       LCALL   ?BDISPATCH
   \   000003   ......       DC24    ZDP_UserDescSet

   \                                 In  segment BANK_RELAYS, align 1
   \                     ??ZDP_ServerDiscReq?relay:
   \   000000   12....       LCALL   ?BDISPATCH
   \   000003   ......       DC24    ZDP_ServerDiscReq

   \                                 In  segment BANK_RELAYS, align 1
   \                     ??ZDP_DeviceAnnce?relay:
   \   000000   12....       LCALL   ?BDISPATCH
   \   000003   ......       DC24    ZDP_DeviceAnnce

   \                                 In  segment BANK_RELAYS, align 1
   \                     ??zdpProcessAddrReq?relay:
   \   000000   12....       LCALL   ?BDISPATCH
   \   000003   ......       DC24    zdpProcessAddrReq

   \                                 In  segment BANK_RELAYS, align 1
   \                     ??ZDP_NodeDescMsg?relay:
   \   000000   12....       LCALL   ?BDISPATCH
   \   000003   ......       DC24    ZDP_NodeDescMsg

   \                                 In  segment BANK_RELAYS, align 1
   \                     ??ZDP_PowerDescMsg?relay:
   \   000000   12....       LCALL   ?BDISPATCH
   \   000003   ......       DC24    ZDP_PowerDescMsg

   \                                 In  segment BANK_RELAYS, align 1
   \                     ??ZDP_SimpleDescMsg?relay:
   \   000000   12....       LCALL   ?BDISPATCH
   \   000003   ......       DC24    ZDP_SimpleDescMsg

   \                                 In  segment BANK_RELAYS, align 1
   \                     ??ZDP_EPRsp?relay:
   \   000000   12....       LCALL   ?BDISPATCH
   \   000003   ......       DC24    ZDP_EPRsp

   \                                 In  segment BANK_RELAYS, align 1
   \                     ??ZDP_UserDescRsp?relay:
   \   000000   12....       LCALL   ?BDISPATCH
   \   000003   ......       DC24    ZDP_UserDescRsp

   \                                 In  segment BANK_RELAYS, align 1
   \                     ??ZDP_ServerDiscRsp?relay:
   \   000000   12....       LCALL   ?BDISPATCH
   \   000003   ......       DC24    ZDP_ServerDiscRsp

   \                                 In  segment BANK_RELAYS, align 1
   \                     ??ZDP_GenericRsp?relay:
   \   000000   12....       LCALL   ?BDISPATCH
   \   000003   ......       DC24    ZDP_GenericRsp

   \                                 In  segment BANK_RELAYS, align 1
   \                     ??ZDP_EndDeviceBindReq?relay:
   \   000000   12....       LCALL   ?BDISPATCH
   \   000003   ......       DC24    ZDP_EndDeviceBindReq

   \                                 In  segment BANK_RELAYS, align 1
   \                     ??ZDP_BindUnbindReq?relay:
   \   000000   12....       LCALL   ?BDISPATCH
   \   000003   ......       DC24    ZDP_BindUnbindReq

   \                                 In  segment BANK_RELAYS, align 1
   \                     ??ZDP_MgmtNwkDiscReq?relay:
   \   000000   12....       LCALL   ?BDISPATCH
   \   000003   ......       DC24    ZDP_MgmtNwkDiscReq

   \                                 In  segment BANK_RELAYS, align 1
   \                     ??ZDP_MgmtDirectJoinReq?relay:
   \   000000   12....       LCALL   ?BDISPATCH
   \   000003   ......       DC24    ZDP_MgmtDirectJoinReq

   \                                 In  segment BANK_RELAYS, align 1
   \                     ??ZDP_MgmtPermitJoinReq?relay:
   \   000000   12....       LCALL   ?BDISPATCH
   \   000003   ......       DC24    ZDP_MgmtPermitJoinReq

   \                                 In  segment BANK_RELAYS, align 1
   \                     ??ZDP_MgmtLeaveReq?relay:
   \   000000   12....       LCALL   ?BDISPATCH
   \   000003   ......       DC24    ZDP_MgmtLeaveReq

   \                                 In  segment BANK_RELAYS, align 1
   \                     ??ZDP_MgmtNwkUpdateReq?relay:
   \   000000   12....       LCALL   ?BDISPATCH
   \   000003   ......       DC24    ZDP_MgmtNwkUpdateReq

   \                                 In  segment BANK_RELAYS, align 1
   \                     ??ZDP_MgmtNwkDiscRsp?relay:
   \   000000   12....       LCALL   ?BDISPATCH
   \   000003   ......       DC24    ZDP_MgmtNwkDiscRsp

   \                                 In  segment BANK_RELAYS, align 1
   \                     ??ZDP_MgmtLqiRsp?relay:
   \   000000   12....       LCALL   ?BDISPATCH
   \   000003   ......       DC24    ZDP_MgmtLqiRsp

   \                                 In  segment BANK_RELAYS, align 1
   \                     ??ZDP_MgmtRtgRsp?relay:
   \   000000   12....       LCALL   ?BDISPATCH
   \   000003   ......       DC24    ZDP_MgmtRtgRsp

   \                                 In  segment BANK_RELAYS, align 1
   \                     ??ZDP_MgmtBindRsp?relay:
   \   000000   12....       LCALL   ?BDISPATCH
   \   000003   ......       DC24    ZDP_MgmtBindRsp

   \                                 In  segment BANK_RELAYS, align 1
   \                     ??ZDP_MgmtNwkUpdateNotify?relay:
   \   000000   12....       LCALL   ?BDISPATCH
   \   000003   ......       DC24    ZDP_MgmtNwkUpdateNotify

   \                                 In  segment BANK_RELAYS, align 1
   \                     ??ZDO_RegisterForZDOMsg?relay:
   \   000000   12....       LCALL   ?BDISPATCH
   \   000003   ......       DC24    ZDO_RegisterForZDOMsg

   \                                 In  segment BANK_RELAYS, align 1
   \                     ??ZDO_RemoveRegisteredCB?relay:
   \   000000   12....       LCALL   ?BDISPATCH
   \   000003   ......       DC24    ZDO_RemoveRegisteredCB

   \                                 In  segment BANK_RELAYS, align 1
   \                     ??ZDO_SendMsgCBs?relay:
   \   000000   12....       LCALL   ?BDISPATCH
   \   000003   ......       DC24    ZDO_SendMsgCBs

   \                                 In  segment BANK_RELAYS, align 1
   \                     ??ZDP_IncomingData?relay:
   \   000000   12....       LCALL   ?BDISPATCH
   \   000003   ......       DC24    ZDP_IncomingData
   1938          
   1939          /*********************************************************************
   1940          *********************************************************************/
   1941          

   Maximum stack usage in bytes:

     Function                 ISTACK PSTACK XSTACK
     --------                 ------ ------ ------
     ZDO_RegisterForZDOMsg        1      0     18
       -> osal_mem_alloc          0      0     36
     ZDO_RemoveRegisteredCB       0      0     13
       -> osal_mem_free           0      0     26
     ZDO_SendMsgCBs               0      0     50
       -> osal_msg_allocate       0      0     32
       -> osal_memcpy             0      0     38
       -> osal_memcpy             0      0     38
       -> osal_msg_send           0      0     32
     ZDP_BindUnbindReq            1      0     34
       -> sAddrExtCpy             0      0     48
       -> sAddrExtCpy             0      0     48
       -> fillAndSend             0      0     52
     ZDP_DeviceAnnce              1      0     28
       -> sAddrExtCpy             0      0     50
       -> fillAndSend             0      0     54
     ZDP_EPRsp                    1      0     35
       -> osal_memcpy             0      0     56
       -> fillAndSend             0      0     54
     ZDP_EndDeviceBindReq         1      0     40
       -> NLME_GetShortAddr       0      0     58
       -> NLME_GetExtAddr         0      0     58
       -> sAddrExtCpy             0      0     58
       -> fillAndSend             0      0     62
     ZDP_GenericRsp               1      0     23
       -> fillAndSend             0      0     38
     ZDP_IEEEAddrReq              1      0     27
       -> fillAndSend             0      0     54
     ZDP_IncomingData             1      0     31
       -> ZDO_SendMsgCBs          0      0     62
       -> ZDApp_InMsgCB           0      0     62
     ZDP_MatchDescReq             1      0     34
       -> fillAndSend             0      0     52
     ZDP_MgmtBindRsp              1      0     34
       -> osal_mem_alloc          0      0     54
       -> sAddrExtCpy             0      0     54
       -> sAddrExtCpy             0      0     54
       -> fillAndSend             0      0     58
       -> osal_mem_free           0      0     54
     ZDP_MgmtDirectJoinReq        1      0     17
       -> sAddrExtCpy             0      0     28
       -> fillAndSend             0      0     32
     ZDP_MgmtLeaveReq             0      0     20
       -> sAddrExtCpy             0      0     32
       -> fillAndSend             0      0     36
     ZDP_MgmtLqiRsp               1      0     32
       -> fillAndSend             0      0     54
       -> osal_mem_alloc          0      0     50
       -> sAddrExtCpy             0      0     50
       -> sAddrExtCpy             0      0     50
       -> fillAndSend             0      0     54
       -> osal_mem_free           0      0     50
     ZDP_MgmtNwkDiscReq           1      0     30
       -> osal_buffer_uint32      0      0     52
       -> fillAndSend             0      0     48
     ZDP_MgmtNwkDiscRsp           1      0     32
       -> osal_mem_alloc          0      0     50
       -> sAddrExtCpy             0      0     50
       -> fillAndSend             0      0     54
       -> osal_mem_free           0      0     50
     ZDP_MgmtNwkUpdateNotify      1      0     43
       -> osal_mem_alloc          0      0     54
       -> osal_buffer_uint32      0      0     62
       -> osal_memcpy             0      0     60
       -> fillAndSend             0      0     58
       -> osal_mem_free           0      0     54
     ZDP_MgmtNwkUpdateReq         1      0     32
       -> osal_buffer_uint32      0      0     52
       -> fillAndSend             0      0     48
     ZDP_MgmtPermitJoinReq        1      0     16
       -> fillAndSend             0      0     32
     ZDP_MgmtRtgRsp               1      0     32
       -> osal_mem_alloc          0      0     50
       -> fillAndSend             0      0     54
       -> osal_mem_free           0      0     50
     ZDP_NWKAddrOfInterestReq     1      0     17
       -> fillAndSend             0      0     32
     ZDP_NodeDescMsg              1      0     22
       -> fillAndSend             0      0     40
     ZDP_NwkAddrReq               1      0     27
       -> sAddrExtCmp             0      0     50
       -> sAddrExtCpy             0      0     50
       -> fillAndSend             0      0     54
     ZDP_PowerDescMsg             1      0     22
       -> fillAndSend             0      0     40
     ZDP_SendData                 1      0     29
       -> fillAndSend             0      0     48
     ZDP_ServerDiscReq            1      0     25
       -> fillAndSend             0      0     50
     ZDP_ServerDiscRsp            1      0     27
       -> fillAndSend             0      0     46
     ZDP_SimpleDescMsg            1      0     20
       -> fillAndSend             0      0     40
     ZDP_SimpleDescReq            1      0     17
       -> fillAndSend             0      0     32
     ZDP_UserDescRsp              1      0     27
       -> osal_memcpy             0      0     48
       -> fillAndSend             0      0     46
     ZDP_UserDescSet              1      0     25
       -> osal_memcpy             0      0     46
       -> osal_memset             0      0     40
       -> fillAndSend             0      0     44
     fillAndSend                  1      0     68
       -> osal_memset             0      0     56
       -> AF_DataRequest          0      0     74
     zdpProcessAddrReq            1      0     22
       -> sAddrExtCmp             0      0     40
       -> sAddrExtCpy             0      0     40
       -> fillAndSend             0      0     44


   Segment part sizes:

     Function/Label                   Bytes
     --------------                   -----
     ZDP_AF_ENDPOINT                     1
     ZDP_TransID                         1
     ZDP_Buf                            80
     ZDP_TmpBuf                          2
     ZDP_TxOptions                       1
     zdoMsgCBs                           2
     zdpMsgProcs                        28
     fillAndSend                       233
     ZDP_SendData                      160
     ZDP_NWKAddrOfInterestReq           99
     ZDP_NwkAddrReq                    193
     ZDP_IEEEAddrReq                   177
     ZDP_MatchDescReq                  635
     ZDP_SimpleDescReq                 117
     ZDP_UserDescSet                   246
     ZDP_ServerDiscReq                 150
     ZDP_DeviceAnnce                   184
     zdpProcessAddrReq                 513
     ZDP_NodeDescMsg                   523
     ZDP_PowerDescMsg                  244
     ZDP_SimpleDescMsg                 867
     ZDP_EPRsp                         287
     ZDP_UserDescRsp                   240
     ZDP_ServerDiscRsp                 185
     ZDP_GenericRsp                    165
     ZDP_EndDeviceBindReq              652
     ZDP_BindUnbindReq                 398
     ZDP_MgmtNwkDiscReq                140
     ZDP_MgmtDirectJoinReq              96
     ZDP_MgmtPermitJoinReq              82
     ZDP_MgmtLeaveReq                  160
     ZDP_MgmtNwkUpdateReq              241
     ZDP_MgmtNwkDiscRsp                508
     ZDP_MgmtLqiRsp                    644
     ZDP_MgmtRtgRsp                    451
     ZDP_MgmtBindRsp                   623
     ZDP_MgmtNwkUpdateNotify           430
     ZDO_RegisterForZDOMsg             196
     ZDO_RemoveRegisteredCB            173
     ZDO_SendMsgCBs                    295
     ZDP_IncomingData                  449
     ?<Initializer for ZDP_TmpBuf>       2
     ??fillAndSend?relay                 6
     ??ZDP_SendData?relay                6
     ??ZDP_NWKAddrOfInterestReq?relay    6
     ??ZDP_NwkAddrReq?relay              6
     ??ZDP_IEEEAddrReq?relay             6
     ??ZDP_MatchDescReq?relay            6
     ??ZDP_SimpleDescReq?relay           6
     ??ZDP_UserDescSet?relay             6
     ??ZDP_ServerDiscReq?relay           6
     ??ZDP_DeviceAnnce?relay             6
     ??zdpProcessAddrReq?relay           6
     ??ZDP_NodeDescMsg?relay             6
     ??ZDP_PowerDescMsg?relay            6
     ??ZDP_SimpleDescMsg?relay           6
     ??ZDP_EPRsp?relay                   6
     ??ZDP_UserDescRsp?relay             6
     ??ZDP_ServerDiscRsp?relay           6
     ??ZDP_GenericRsp?relay              6
     ??ZDP_EndDeviceBindReq?relay        6
     ??ZDP_BindUnbindReq?relay           6
     ??ZDP_MgmtNwkDiscReq?relay          6
     ??ZDP_MgmtDirectJoinReq?relay       6
     ??ZDP_MgmtPermitJoinReq?relay       6
     ??ZDP_MgmtLeaveReq?relay            6
     ??ZDP_MgmtNwkUpdateReq?relay        6
     ??ZDP_MgmtNwkDiscRsp?relay          6
     ??ZDP_MgmtLqiRsp?relay              6
     ??ZDP_MgmtRtgRsp?relay              6
     ??ZDP_MgmtBindRsp?relay             6
     ??ZDP_MgmtNwkUpdateNotify?relay     6
     ??ZDO_RegisterForZDOMsg?relay       6
     ??ZDO_RemoveRegisteredCB?relay      6
     ??ZDO_SendMsgCBs?relay              6
     ??ZDP_IncomingData?relay            6

 
 10 756 bytes in segment BANKED_CODE
    204 bytes in segment BANK_RELAYS
     29 bytes in segment CODE_C
      2 bytes in segment XDATA_I
      2 bytes in segment XDATA_ID
     84 bytes in segment XDATA_Z
 
 10 991 bytes of CODE  memory
     86 bytes of XDATA memory

Errors: none
Warnings: none
