###############################################################################
#                                                                             #
# IAR C/C++ Compiler V8.10.1.10194/W32 for 8051         14/Jul/2015  13:43:47 #
# Copyright 2004-2011 IAR Systems AB.                                         #
#                                                                             #
#    Core               =  plain                                              #
#    Code model         =  banked                                             #
#    Data model         =  large                                              #
#    Calling convention =  xdata reentrant                                    #
#    Constant location  =  data_rom                                           #
#    Dptr setup         =  1,16                                               #
#    Source file        =  C:\Texas Instruments\ZStack-CC2530-2.5.1a\Componen #
#                          ts\stack\nwk\BindingTable.c                        #
#    Command line       =  -f "C:\Texas Instruments\ZStack-CC2530-2.5.1a\Proj #
#                          ects\zstack\Samples\WirelessMonitorSystem\CC2530DB #
#                          \..\..\..\Tools\CC2530DB\f8wEndev.cfg"             #
#                          (-DCPU32MHZ -DROOT=__near_func                     #
#                          -DMAC_CFG_TX_DATA_MAX=3 -DMAC_CFG_TX_MAX=6         #
#                          -DMAC_CFG_RX_MAX=3) -f "C:\Texas                   #
#                          Instruments\ZStack-CC2530-2.5.1a\Projects\zstack\S #
#                          amples\WirelessMonitorSystem\CC2530DB\..\..\..\Too #
#                          ls\CC2530DB\f8wConfig.cfg" (-DZIGBEEPRO            #
#                          -DSECURE=0 -DZG_SECURE_DYNAMIC=0 -DREFLECTOR       #
#                          -DDEFAULT_CHANLIST=0x00000800                      #
#                          -DZDAPP_CONFIG_PAN_ID=0xFFFF                       #
#                          -DNWK_START_DELAY=100 -DEXTENDED_JOINING_RANDOM_MA #
#                          SK=0x007F -DBEACON_REQUEST_DELAY=100               #
#                          -DBEACON_REQ_DELAY_MASK=0x00FF                     #
#                          -DLINK_STATUS_JITTER_MASK=0x007F                   #
#                          -DROUTE_EXPIRY_TIME=30 -DAPSC_ACK_WAIT_DURATION_PO #
#                          LLED=3000 -DNWK_INDIRECT_MSG_TIMEOUT=7             #
#                          -DMAX_RREQ_ENTRIES=8 -DAPSC_MAX_FRAME_RETRIES=3    #
#                          -DNWK_MAX_DATA_RETRIES=2                           #
#                          -DMAX_POLL_FAILURE_RETRIES=2 -DMAX_BCAST=9         #
#                          -DAPS_MAX_GROUPS=16 -DMAX_RTG_ENTRIES=40           #
#                          -DNWK_MAX_BINDING_ENTRIES=4                        #
#                          -DMAX_BINDING_CLUSTER_IDS=4 "-DDEFAULT_KEY={0x01,  #
#                          0x03, 0x05, 0x07, 0x09, 0x0B, 0x0D, 0x0F, 0x00,    #
#                          0x02, 0x04, 0x06, 0x08, 0x0A, 0x0C, 0x0D}"         #
#                          -DMAC_MAX_FRAME_SIZE=116                           #
#                          -DZDNWKMGR_MIN_TRANSMISSIONS=20 "-DCONST=const     #
#                          __code" -DGENERIC=__generic                        #
#                          -DRFD_RCVC_ALWAYS_ON=FALSE -DPOLL_RATE=500         #
#                          -DQUEUED_POLL_RATE=30 -DRESPONSE_POLL_RATE=100)    #
#                          -DREJOIN_POLL_RATE=440 "C:\Texas                   #
#                          Instruments\ZStack-CC2530-2.5.1a\Components\stack\ #
#                          nwk\BindingTable.c" -D HAL_UART -lC "C:\Texas      #
#                          Instruments\ZStack-CC2530-2.5.1a\Projects\zstack\S #
#                          amples\WirelessMonitorSystem\CC2530DB\LCD\List\"   #
#                          -lA "C:\Texas Instruments\ZStack-CC2530-2.5.1a\Pro #
#                          jects\zstack\Samples\WirelessMonitorSystem\CC2530D #
#                          B\LCD\List\" --diag_suppress Pe001,Pa010 -o        #
#                          "C:\Texas Instruments\ZStack-CC2530-2.5.1a\Project #
#                          s\zstack\Samples\WirelessMonitorSystem\CC2530DB\LC #
#                          D\Obj\" -e --no_cse --no_unroll --no_inline        #
#                          --no_code_motion --no_tbaa --debug --core=plain    #
#                          --dptr=16,1 --data_model=large                     #
#                          --code_model=banked --calling_convention=xdata_ree #
#                          ntrant --place_constants=data_rom                  #
#                          --nr_virtual_regs 16 -I "C:\Texas                  #
#                          Instruments\ZStack-CC2530-2.5.1a\Projects\zstack\S #
#                          amples\WirelessMonitorSystem\CC2530DB\" -I         #
#                          "C:\Texas Instruments\ZStack-CC2530-2.5.1a\Project #
#                          s\zstack\Samples\WirelessMonitorSystem\CC2530DB\.. #
#                          \Source\" -I "C:\Texas Instruments\ZStack-CC2530-2 #
#                          .5.1a\Projects\zstack\Samples\WirelessMonitorSyste #
#                          m\CC2530DB\..\..\..\ZMain\TI2530DB\" -I "C:\Texas  #
#                          Instruments\ZStack-CC2530-2.5.1a\Projects\zstack\S #
#                          amples\WirelessMonitorSystem\CC2530DB\..\..\..\..\ #
#                          ..\Components\hal\include\" -I "C:\Texas           #
#                          Instruments\ZStack-CC2530-2.5.1a\Projects\zstack\S #
#                          amples\WirelessMonitorSystem\CC2530DB\..\..\..\..\ #
#                          ..\Components\hal\target\CC2530EB\" -I "C:\Texas   #
#                          Instruments\ZStack-CC2530-2.5.1a\Projects\zstack\S #
#                          amples\WirelessMonitorSystem\CC2530DB\..\..\..\..\ #
#                          ..\Components\mac\include\" -I "C:\Texas           #
#                          Instruments\ZStack-CC2530-2.5.1a\Projects\zstack\S #
#                          amples\WirelessMonitorSystem\CC2530DB\..\..\..\..\ #
#                          ..\Components\mac\high_level\" -I "C:\Texas        #
#                          Instruments\ZStack-CC2530-2.5.1a\Projects\zstack\S #
#                          amples\WirelessMonitorSystem\CC2530DB\..\..\..\..\ #
#                          ..\Components\mac\low_level\srf04\" -I "C:\Texas   #
#                          Instruments\ZStack-CC2530-2.5.1a\Projects\zstack\S #
#                          amples\WirelessMonitorSystem\CC2530DB\..\..\..\..\ #
#                          ..\Components\mac\low_level\srf04\single_chip\"    #
#                          -I "C:\Texas Instruments\ZStack-CC2530-2.5.1a\Proj #
#                          ects\zstack\Samples\WirelessMonitorSystem\CC2530DB #
#                          \..\..\..\..\..\Components\mt\" -I "C:\Texas       #
#                          Instruments\ZStack-CC2530-2.5.1a\Projects\zstack\S #
#                          amples\WirelessMonitorSystem\CC2530DB\..\..\..\..\ #
#                          ..\Components\osal\include\" -I "C:\Texas          #
#                          Instruments\ZStack-CC2530-2.5.1a\Projects\zstack\S #
#                          amples\WirelessMonitorSystem\CC2530DB\..\..\..\..\ #
#                          ..\Components\services\saddr\" -I "C:\Texas        #
#                          Instruments\ZStack-CC2530-2.5.1a\Projects\zstack\S #
#                          amples\WirelessMonitorSystem\CC2530DB\..\..\..\..\ #
#                          ..\Components\services\sdata\" -I "C:\Texas        #
#                          Instruments\ZStack-CC2530-2.5.1a\Projects\zstack\S #
#                          amples\WirelessMonitorSystem\CC2530DB\..\..\..\..\ #
#                          ..\Components\stack\af\" -I "C:\Texas              #
#                          Instruments\ZStack-CC2530-2.5.1a\Projects\zstack\S #
#                          amples\WirelessMonitorSystem\CC2530DB\..\..\..\..\ #
#                          ..\Components\stack\nwk\" -I "C:\Texas             #
#                          Instruments\ZStack-CC2530-2.5.1a\Projects\zstack\S #
#                          amples\WirelessMonitorSystem\CC2530DB\..\..\..\..\ #
#                          ..\Components\stack\sapi\" -I "C:\Texas            #
#                          Instruments\ZStack-CC2530-2.5.1a\Projects\zstack\S #
#                          amples\WirelessMonitorSystem\CC2530DB\..\..\..\..\ #
#                          ..\Components\stack\sec\" -I "C:\Texas             #
#                          Instruments\ZStack-CC2530-2.5.1a\Projects\zstack\S #
#                          amples\WirelessMonitorSystem\CC2530DB\..\..\..\..\ #
#                          ..\Components\stack\sys\" -I "C:\Texas             #
#                          Instruments\ZStack-CC2530-2.5.1a\Projects\zstack\S #
#                          amples\WirelessMonitorSystem\CC2530DB\..\..\..\..\ #
#                          ..\Components\stack\zdo\" -I "C:\Texas             #
#                          Instruments\ZStack-CC2530-2.5.1a\Projects\zstack\S #
#                          amples\WirelessMonitorSystem\CC2530DB\..\..\..\..\ #
#                          ..\Components\zmac\" -I "C:\Texas                  #
#                          Instruments\ZStack-CC2530-2.5.1a\Projects\zstack\S #
#                          amples\WirelessMonitorSystem\CC2530DB\..\..\..\..\ #
#                          ..\Components\zmac\f8w\" -On --require_prototypes  #
#    List file          =  C:\Texas Instruments\ZStack-CC2530-2.5.1a\Projects #
#                          \zstack\Samples\WirelessMonitorSystem\CC2530DB\LCD #
#                          \List\BindingTable.lst                             #
#    Object file        =  C:\Texas Instruments\ZStack-CC2530-2.5.1a\Projects #
#                          \zstack\Samples\WirelessMonitorSystem\CC2530DB\LCD #
#                          \Obj\BindingTable.r51                              #
#                                                                             #
#                                                                             #
###############################################################################

C:\Texas Instruments\ZStack-CC2530-2.5.1a\Components\stack\nwk\BindingTable.c
      1          /**************************************************************************************************
      2            Filename:       BindingTable.c
      3            Revised:        $Date: 2012-03-28 15:40:50 -0700 (Wed, 28 Mar 2012) $
      4            Revision:       $Revision: 29930 $
      5          
      6            Description:    Device binding table functions.
      7          
      8          
      9            Copyright 2004-2012 Texas Instruments Incorporated. All rights reserved.
     10          
     11            IMPORTANT: Your use of this Software is limited to those specific rights
     12            granted under the terms of a software license agreement between the user
     13            who downloaded the software, his/her employer (which must be your employer)
     14            and Texas Instruments Incorporated (the "License"). You may not use this
     15            Software unless you agree to abide by the terms of the License. The License
     16            limits your use, and you acknowledge, that the Software may not be modified,
     17            copied or distributed unless embedded on a Texas Instruments microcontroller
     18            or used solely and exclusively in conjunction with a Texas Instruments radio
     19            frequency transceiver, which is integrated into your product. Other than for
     20            the foregoing purpose, you may not use, reproduce, copy, prepare derivative
     21            works of, modify, distribute, perform, display or sell this Software and/or
     22            its documentation for any purpose.
     23          
     24            YOU FURTHER ACKNOWLEDGE AND AGREE THAT THE SOFTWARE AND DOCUMENTATION ARE
     25            PROVIDED “AS IS” WITHOUT WARRANTY OF ANY KIND, EITHER EXPRESS OR IMPLIED,
     26            INCLUDING WITHOUT LIMITATION, ANY WARRANTY OF MERCHANTABILITY, TITLE,
     27            NON-INFRINGEMENT AND FITNESS FOR A PARTICULAR PURPOSE. IN NO EVENT SHALL
     28            TEXAS INSTRUMENTS OR ITS LICENSORS BE LIABLE OR OBLIGATED UNDER CONTRACT,
     29            NEGLIGENCE, STRICT LIABILITY, CONTRIBUTION, BREACH OF WARRANTY, OR OTHER
     30            LEGAL EQUITABLE THEORY ANY DIRECT OR INDIRECT DAMAGES OR EXPENSES
     31            INCLUDING BUT NOT LIMITED TO ANY INCIDENTAL, SPECIAL, INDIRECT, PUNITIVE
     32            OR CONSEQUENTIAL DAMAGES, LOST PROFITS OR LOST DATA, COST OF PROCUREMENT
     33            OF SUBSTITUTE GOODS, TECHNOLOGY, SERVICES, OR ANY CLAIMS BY THIRD PARTIES
     34            (INCLUDING BUT NOT LIMITED TO ANY DEFENSE THEREOF), OR OTHER SIMILAR COSTS.
     35          
     36            Should you have any questions regarding your right to use this Software,
     37            contact Texas Instruments Incorporated at www.TI.com.
     38          **************************************************************************************************/
     39          
     40          /*********************************************************************
     41           * INCLUDES
     42           */
     43          #include "ZComDef.h"
     44          #include "OSAL.h"
     45          #include "OSAL_Nv.h"
     46          #include "nwk_globals.h"
     47          #include "AddrMgr.h"
     48          #include "BindingTable.h"
     49          
     50          /*********************************************************************
     51           * MACROS
     52           */
     53          
     54          /*********************************************************************
     55           * CONSTANTS
     56           */
     57          #define NV_BIND_EMPTY   0xFF
     58          #define NV_BIND_REC_SIZE (gBIND_REC_SIZE)
     59          #define NV_BIND_ITEM_SIZE  (gBIND_REC_SIZE * gNWK_MAX_BINDING_ENTRIES)
     60          
     61          /*********************************************************************
     62           * TYPEDEFS
     63           */
     64          typedef struct
     65          {
     66            uint8        srcEP;
     67            uint16       srcIndex;
     68            uint16       dstIndex;
     69            uint8        dstEP;
     70            uint8        dstAddrMode;
     71            uint8        clusterIDs;
     72            uint16*      clusterIDList;
     73          } bindFields_t;
     74          
     75          /*********************************************************************
     76           * GLOBAL VARIABLES
     77           */
     78          
     79          /*********************************************************************
     80           * LOCAL FUNCTIONS
     81           */
     82          void BindAddrMgrCB( uint8 update, AddrMgrEntry_t *entryOld,
     83                              AddrMgrEntry_t *entryNew );
     84          BindingEntry_t *bindFindEmpty( void );
     85          uint16 bindingAddrMgsHelperFind( zAddrType_t *addr );
     86          uint8 bindingAddrMgsHelperConvert( uint16 idx, zAddrType_t *addr );
     87          void bindAddrMgrLocalLoad( void );
     88          uint16 bindAddrIndexGet( zAddrType_t* addr );
     89          
     90          /*********************************************************************
     91           * LOCAL VARIABLES
     92           */

   \                                 In  segment XDATA_Z, align 1, keep-with-next
     93          static uint8 bindAddrMgrLocalLoaded = FALSE;
   \                     bindAddrMgrLocalLoaded:
   \   000000                DS 1
   \   000001                REQUIRE __INIT_XDATA_Z
     94          
     95          /*********************************************************************
     96           * Function Pointers
     97           */
     98          

   \                                 In  segment XDATA_Z, align 1, keep-with-next
     99          BindingEntry_t *(*pbindAddEntry)( byte srcEpInt,
   \                     pbindAddEntry:
   \   000000                DS 2
   \   000002                REQUIRE __INIT_XDATA_Z
    100                                            zAddrType_t *dstAddr, byte dstEpInt,
    101                                            byte numClusterIds, uint16 *clusterIds ) = (void*)NULL;

   \                                 In  segment XDATA_Z, align 1, keep-with-next
    102          uint16 (*pbindNumOfEntries)( void ) = (void*)NULL;
   \                     pbindNumOfEntries:
   \   000000                DS 2
   \   000002                REQUIRE __INIT_XDATA_Z

   \                                 In  segment XDATA_Z, align 1, keep-with-next
    103          void (*pbindRemoveDev)( zAddrType_t *Addr ) = (void*)NULL;
   \                     pbindRemoveDev:
   \   000000                DS 2
   \   000002                REQUIRE __INIT_XDATA_Z

   \                                 In  segment XDATA_Z, align 1, keep-with-next
    104          byte (*pBindInitNV)( void ) = (void*)NULL;
   \                     pBindInitNV:
   \   000000                DS 2
   \   000002                REQUIRE __INIT_XDATA_Z

   \                                 In  segment XDATA_Z, align 1, keep-with-next
    105          void (*pBindSetDefaultNV)( void ) = (void*)NULL;
   \                     pBindSetDefaultNV:
   \   000000                DS 2
   \   000002                REQUIRE __INIT_XDATA_Z

   \                                 In  segment XDATA_Z, align 1, keep-with-next
    106          uint16 (*pBindRestoreFromNV)( void ) = (void*)NULL;
   \                     pBindRestoreFromNV:
   \   000000                DS 2
   \   000002                REQUIRE __INIT_XDATA_Z

   \                                 In  segment XDATA_Z, align 1, keep-with-next
    107          void (*pBindWriteNV)( void ) = (void*)NULL;
   \                     pBindWriteNV:
   \   000000                DS 2
   \   000002                REQUIRE __INIT_XDATA_Z
    108          
    109          #if ( ADDRMGR_CALLBACK_ENABLED == 1 )
    110          /*********************************************************************
    111           * @fn      BindAddrMgrCB()
    112           *
    113           * @brief   Address Manager Callback function
    114           *
    115           * @param   update -
    116           * @param   entry -
    117           *
    118           * @return  pointer to
    119           */
    120          void BindAddrMgrCB( uint8 update, AddrMgrEntry_t *entryNew,
    121                              AddrMgrEntry_t *entryOld )
    122          {
    123            // Check for either deleted items or changed Extended (Duplicate) addresses
    124          }
    125          #endif // ( ADDRMGR_CALLBACK_ENABLED == 1 )
    126          
    127          /*********************************************************************
    128           * @fn      InitBindingTable()
    129           *
    130           * @brief
    131           *
    132           *   This function is used to initialise the binding table
    133           *
    134           * @param   none
    135           *
    136           * @return  none
    137           */

   \                                 In  segment BANKED_CODE, align 1, keep-with-next
    138          void InitBindingTable( void )
   \                     InitBindingTable:
    139          {
   \   000000   74F6         MOV     A,#-0xa
   \   000002   12....       LCALL   ?BANKED_ENTER_XDATA
   \   000005                ; Saved register size: 10
   \   000005                ; Auto size: 0
    140            osal_memset( BindingTable, 0xFF, gBIND_REC_SIZE * gNWK_MAX_BINDING_ENTRIES );
   \   000005                ; Setup parameters for call to function osal_memset
   \   000005   90....       MOV     DPTR,#gBIND_REC_SIZE
   \   000008   E4           CLR     A
   \   000009   93           MOVC    A,@A+DPTR
   \   00000A   FC           MOV     R4,A
   \   00000B   7401         MOV     A,#0x1
   \   00000D   93           MOVC    A,@A+DPTR
   \   00000E   FD           MOV     R5,A
   \   00000F   90....       MOV     DPTR,#gNWK_MAX_BINDING_ENTRIES
   \   000012   E4           CLR     A
   \   000013   93           MOVC    A,@A+DPTR
   \   000014   F5..         MOV     ?V0 + 0,A
   \   000016   7401         MOV     A,#0x1
   \   000018   93           MOVC    A,@A+DPTR
   \   000019   F5..         MOV     ?V0 + 1,A
   \   00001B   EC           MOV     A,R4
   \   00001C   85..F0       MOV     B,?V0 + 0
   \   00001F   A4           MUL     AB
   \   000020   CC           XCH     A,R4
   \   000021   A8F0         MOV     R0,B
   \   000023   85..F0       MOV     B,?V0 + 1
   \   000026   A4           MUL     AB
   \   000027   28           ADD     A,R0
   \   000028   F8           MOV     R0,A
   \   000029   85..F0       MOV     B,?V0 + 0
   \   00002C   ED           MOV     A,R5
   \   00002D   A4           MUL     AB
   \   00002E   28           ADD     A,R0
   \   00002F   FD           MOV     R5,A
   \   000030   79FF         MOV     R1,#-0x1
   \   000032   7A..         MOV     R2,#BindingTable & 0xff
   \   000034   7B..         MOV     R3,#(BindingTable >> 8) & 0xff
   \   000036   12....       LCALL   ??osal_memset?relay
    141          
    142            pbindAddEntry = bindAddEntry;
   \   000039   90....       MOV     DPTR,#pbindAddEntry
   \   00003C   74..         MOV     A,#??bindAddEntry?relay & 0xff
   \   00003E   F0           MOVX    @DPTR,A
   \   00003F   A3           INC     DPTR
   \   000040   74..         MOV     A,#(??bindAddEntry?relay >> 8) & 0xff
   \   000042   F0           MOVX    @DPTR,A
    143            pbindNumOfEntries = bindNumOfEntries;
   \   000043   90....       MOV     DPTR,#pbindNumOfEntries
   \   000046   74..         MOV     A,#??bindNumOfEntries?relay & 0xff
   \   000048   F0           MOVX    @DPTR,A
   \   000049   A3           INC     DPTR
   \   00004A   74..         MOV     A,#(??bindNumOfEntries?relay >> 8) & 0xff
   \   00004C   F0           MOVX    @DPTR,A
    144            pbindRemoveDev = bindRemoveDev;
   \   00004D   90....       MOV     DPTR,#pbindRemoveDev
   \   000050   74..         MOV     A,#??bindRemoveDev?relay & 0xff
   \   000052   F0           MOVX    @DPTR,A
   \   000053   A3           INC     DPTR
   \   000054   74..         MOV     A,#(??bindRemoveDev?relay >> 8) & 0xff
   \   000056   F0           MOVX    @DPTR,A
    145            pBindInitNV = BindInitNV;
   \   000057   90....       MOV     DPTR,#pBindInitNV
   \   00005A   74..         MOV     A,#??BindInitNV?relay & 0xff
   \   00005C   F0           MOVX    @DPTR,A
   \   00005D   A3           INC     DPTR
   \   00005E   74..         MOV     A,#(??BindInitNV?relay >> 8) & 0xff
   \   000060   F0           MOVX    @DPTR,A
    146            pBindSetDefaultNV = BindSetDefaultNV;
   \   000061   90....       MOV     DPTR,#pBindSetDefaultNV
   \   000064   74..         MOV     A,#??BindSetDefaultNV?relay & 0xff
   \   000066   F0           MOVX    @DPTR,A
   \   000067   A3           INC     DPTR
   \   000068   74..         MOV     A,#(??BindSetDefaultNV?relay >> 8) & 0xff
   \   00006A   F0           MOVX    @DPTR,A
    147            pBindRestoreFromNV = BindRestoreFromNV;
   \   00006B   90....       MOV     DPTR,#pBindRestoreFromNV
   \   00006E   74..         MOV     A,#??BindRestoreFromNV?relay & 0xff
   \   000070   F0           MOVX    @DPTR,A
   \   000071   A3           INC     DPTR
   \   000072   74..         MOV     A,#(??BindRestoreFromNV?relay >> 8) & 0xff
   \   000074   F0           MOVX    @DPTR,A
    148            pBindWriteNV = BindWriteNV;
   \   000075   90....       MOV     DPTR,#pBindWriteNV
   \   000078   74..         MOV     A,#??BindWriteNV?relay & 0xff
   \   00007A   F0           MOVX    @DPTR,A
   \   00007B   A3           INC     DPTR
   \   00007C   74..         MOV     A,#(??BindWriteNV?relay >> 8) & 0xff
   \   00007E   F0           MOVX    @DPTR,A
    149          
    150            bindAddrMgrLocalLoaded = FALSE;
   \   00007F   90....       MOV     DPTR,#bindAddrMgrLocalLoaded
   \   000082   7400         MOV     A,#0x0
   \   000084   F0           MOVX    @DPTR,A
    151          
    152          #if ( ADDRMGR_CALLBACK_ENABLED == 1 )
    153            // Register with the address manager
    154            AddrMgrRegister( ADDRMGR_REG_BINDING, BindAddrMgrCB );
    155          #endif
    156          }
   \   000085   7F02         MOV     R7,#0x2
   \   000087   02....       LJMP    ?BANKED_LEAVE_XDATA
    157          
    158          /*********************************************************************
    159           * @fn      bindFindEmpty()
    160           *
    161           * @brief   This function returns a pointer to an empty binding slot
    162           *
    163           * @param   none
    164           *
    165           * @return  pointer to binding table entry, NULL if not added
    166           */

   \                                 In  segment BANKED_CODE, align 1, keep-with-next
    167          BindingEntry_t *bindFindEmpty( void )
   \                     bindFindEmpty:
    168          {
   \   000000   C082         PUSH    DPL
   \   000002   C083         PUSH    DPH
   \   000004                ; Saved register size: 2
   \   000004                ; Auto size: 0
    169            uint16 x;
    170          
    171            for ( x = 0; x < gNWK_MAX_BINDING_ENTRIES; x++ )
   \   000004   7800         MOV     R0,#0x0
   \   000006   7900         MOV     R1,#0x0
   \                     ??bindFindEmpty_0:
   \   000008   90....       MOV     DPTR,#gNWK_MAX_BINDING_ENTRIES
   \   00000B   E4           CLR     A
   \   00000C   93           MOVC    A,@A+DPTR
   \   00000D   FA           MOV     R2,A
   \   00000E   7401         MOV     A,#0x1
   \   000010   93           MOVC    A,@A+DPTR
   \   000011   FB           MOV     R3,A
   \   000012   C3           CLR     C
   \   000013   E8           MOV     A,R0
   \   000014   9A           SUBB    A,R2
   \   000015   E9           MOV     A,R1
   \   000016   9B           SUBB    A,R3
   \   000017   5051         JNC     ??bindFindEmpty_1
    172            {
    173              // It's empty if the index is "Not Found"
    174              if ( BindingTable[x].srcEP == NV_BIND_EMPTY )
   \   000019   E8           MOV     A,R0
   \   00001A   FA           MOV     R2,A
   \   00001B   E9           MOV     A,R1
   \   00001C   FB           MOV     R3,A
   \   00001D   EA           MOV     A,R2
   \   00001E   75F00E       MOV     B,#0xe
   \   000021   A4           MUL     AB
   \   000022   CA           XCH     A,R2
   \   000023   ACF0         MOV     R4,B
   \   000025   75F000       MOV     B,#0x0
   \   000028   A4           MUL     AB
   \   000029   2C           ADD     A,R4
   \   00002A   FC           MOV     R4,A
   \   00002B   75F00E       MOV     B,#0xe
   \   00002E   EB           MOV     A,R3
   \   00002F   A4           MUL     AB
   \   000030   2C           ADD     A,R4
   \   000031   FB           MOV     R3,A
   \   000032   74..         MOV     A,#BindingTable & 0xff
   \   000034   2A           ADD     A,R2
   \   000035   F582         MOV     DPL,A
   \   000037   74..         MOV     A,#(BindingTable >> 8) & 0xff
   \   000039   3B           ADDC    A,R3
   \   00003A   F583         MOV     DPH,A
   \   00003C   E0           MOVX    A,@DPTR
   \   00003D   64FF         XRL     A,#0xff
   \   00003F   701F         JNZ     ??bindFindEmpty_2
    175              {
    176                return ( &BindingTable[x] );
   \   000041   E8           MOV     A,R0
   \   000042   75F00E       MOV     B,#0xe
   \   000045   A4           MUL     AB
   \   000046   C8           XCH     A,R0
   \   000047   AAF0         MOV     R2,B
   \   000049   75F000       MOV     B,#0x0
   \   00004C   A4           MUL     AB
   \   00004D   2A           ADD     A,R2
   \   00004E   FA           MOV     R2,A
   \   00004F   75F00E       MOV     B,#0xe
   \   000052   E9           MOV     A,R1
   \   000053   A4           MUL     AB
   \   000054   2A           ADD     A,R2
   \   000055   F9           MOV     R1,A
   \   000056   74..         MOV     A,#BindingTable & 0xff
   \   000058   28           ADD     A,R0
   \   000059   FA           MOV     R2,A
   \   00005A   74..         MOV     A,#(BindingTable >> 8) & 0xff
   \   00005C   39           ADDC    A,R1
   \   00005D   FB           MOV     R3,A
   \   00005E   800E         SJMP    ??bindFindEmpty_3
    177              }
    178            }
   \                     ??bindFindEmpty_2:
   \   000060   E8           MOV     A,R0
   \   000061   2401         ADD     A,#0x1
   \   000063   F8           MOV     R0,A
   \   000064   E9           MOV     A,R1
   \   000065   3400         ADDC    A,#0x0
   \   000067   F9           MOV     R1,A
   \   000068   809E         SJMP    ??bindFindEmpty_0
    179          
    180            return ( (BindingEntry_t *)NULL );
   \                     ??bindFindEmpty_1:
   \   00006A   7A00         MOV     R2,#0x0
   \   00006C   7B00         MOV     R3,#0x0
   \                     ??bindFindEmpty_3:
   \   00006E   D083         POP     DPH
   \   000070   D082         POP     DPL
   \   000072   02....       LJMP    ?BRET
    181          }
    182          
    183          /*********************************************************************
    184           * @fn      bindNumOfEntries()
    185           *
    186           * @brief   This function returns the number of binding table entries.
    187           *          The return for this is the number of clusters in the
    188           *          table NOT the number of entries.
    189           *
    190           * @param   none
    191           *
    192           * @return  number of entries
    193           */

   \                                 In  segment BANKED_CODE, align 1, keep-with-next
    194          uint16 bindNumOfEntries( void )
   \                     bindNumOfEntries:
    195          {
   \   000000   74F7         MOV     A,#-0x9
   \   000002   12....       LCALL   ?BANKED_ENTER_XDATA
   \   000005                ; Saved register size: 9
   \   000005                ; Auto size: 0
    196            uint16 x;
    197            uint16 found;
    198          
    199            for ( found = 0, x = 0; x < gNWK_MAX_BINDING_ENTRIES; x++ )
   \   000005   7A00         MOV     R2,#0x0
   \   000007   7B00         MOV     R3,#0x0
   \   000009   7800         MOV     R0,#0x0
   \   00000B   7900         MOV     R1,#0x0
   \                     ??bindNumOfEntries_0:
   \   00000D   90....       MOV     DPTR,#gNWK_MAX_BINDING_ENTRIES
   \   000010   E4           CLR     A
   \   000011   93           MOVC    A,@A+DPTR
   \   000012   FC           MOV     R4,A
   \   000013   7401         MOV     A,#0x1
   \   000015   93           MOVC    A,@A+DPTR
   \   000016   FD           MOV     R5,A
   \   000017   C3           CLR     C
   \   000018   E8           MOV     A,R0
   \   000019   9C           SUBB    A,R4
   \   00001A   E9           MOV     A,R1
   \   00001B   9D           SUBB    A,R5
   \   00001C   505F         JNC     ??bindNumOfEntries_1
    200            {
    201              // It's empty if the index is "Not Found"
    202              if ( BindingTable[x].srcEP != NV_BIND_EMPTY )
   \   00001E   E8           MOV     A,R0
   \   00001F   FC           MOV     R4,A
   \   000020   E9           MOV     A,R1
   \   000021   FD           MOV     R5,A
   \   000022   EC           MOV     A,R4
   \   000023   75F00E       MOV     B,#0xe
   \   000026   A4           MUL     AB
   \   000027   CC           XCH     A,R4
   \   000028   AEF0         MOV     R6,B
   \   00002A   75F000       MOV     B,#0x0
   \   00002D   A4           MUL     AB
   \   00002E   2E           ADD     A,R6
   \   00002F   FE           MOV     R6,A
   \   000030   75F00E       MOV     B,#0xe
   \   000033   ED           MOV     A,R5
   \   000034   A4           MUL     AB
   \   000035   2E           ADD     A,R6
   \   000036   FD           MOV     R5,A
   \   000037   74..         MOV     A,#BindingTable & 0xff
   \   000039   2C           ADD     A,R4
   \   00003A   F582         MOV     DPL,A
   \   00003C   74..         MOV     A,#(BindingTable >> 8) & 0xff
   \   00003E   3D           ADDC    A,R5
   \   00003F   F583         MOV     DPH,A
   \   000041   E0           MOVX    A,@DPTR
   \   000042   64FF         XRL     A,#0xff
   \   000044   602D         JZ      ??bindNumOfEntries_2
    203              {
    204                found += BindingTable[x].numClusterIds;
   \   000046   E8           MOV     A,R0
   \   000047   FC           MOV     R4,A
   \   000048   E9           MOV     A,R1
   \   000049   FD           MOV     R5,A
   \   00004A   EC           MOV     A,R4
   \   00004B   75F00E       MOV     B,#0xe
   \   00004E   A4           MUL     AB
   \   00004F   CC           XCH     A,R4
   \   000050   AEF0         MOV     R6,B
   \   000052   75F000       MOV     B,#0x0
   \   000055   A4           MUL     AB
   \   000056   2E           ADD     A,R6
   \   000057   FE           MOV     R6,A
   \   000058   75F00E       MOV     B,#0xe
   \   00005B   ED           MOV     A,R5
   \   00005C   A4           MUL     AB
   \   00005D   2E           ADD     A,R6
   \   00005E   FD           MOV     R5,A
   \   00005F   74..         MOV     A,#(BindingTable + 5) & 0xff
   \   000061   2C           ADD     A,R4
   \   000062   F582         MOV     DPL,A
   \   000064   74..         MOV     A,#((BindingTable + 5) >> 8) & 0xff
   \   000066   3D           ADDC    A,R5
   \   000067   F583         MOV     DPH,A
   \   000069   E0           MOVX    A,@DPTR
   \   00006A   FC           MOV     R4,A
   \   00006B   7D00         MOV     R5,#0x0
   \   00006D   EA           MOV     A,R2
   \   00006E   2C           ADD     A,R4
   \   00006F   FA           MOV     R2,A
   \   000070   EB           MOV     A,R3
   \   000071   3D           ADDC    A,R5
   \   000072   FB           MOV     R3,A
    205              }
    206            }
   \                     ??bindNumOfEntries_2:
   \   000073   E8           MOV     A,R0
   \   000074   2401         ADD     A,#0x1
   \   000076   F8           MOV     R0,A
   \   000077   E9           MOV     A,R1
   \   000078   3400         ADDC    A,#0x0
   \   00007A   F9           MOV     R1,A
   \   00007B   8090         SJMP    ??bindNumOfEntries_0
    207          
    208            return ( found );
   \                     ??bindNumOfEntries_1:
   \   00007D   7F01         MOV     R7,#0x1
   \   00007F   02....       LJMP    ?BANKED_LEAVE_XDATA
    209          }
    210          
    211          /*********************************************************************
    212           * @fn      bindCapacity()
    213           *
    214           * @brief   This function returns the number of binding entries
    215           *          possible and used.
    216           *
    217           * @param   maxEntries - pointer to a place to put the max entries
    218           * @param   usedEntries - pointer to a place to put the number
    219           *               of used entries
    220           *
    221           * @return  none
    222           */

   \                                 In  segment BANKED_CODE, align 1, keep-with-next
    223          void bindCapacity( uint16 *maxEntries, uint16 *usedEntries  )
   \                     bindCapacity:
    224          {
   \   000000   74F5         MOV     A,#-0xb
   \   000002   12....       LCALL   ?BANKED_ENTER_XDATA
   \   000005                ; Saved register size: 11
   \   000005                ; Auto size: 0
    225            uint16 x;
    226            uint16 used;
    227          
    228            for ( used = 0, x = 0; x < gNWK_MAX_BINDING_ENTRIES; x++ )
   \   000005   75..00       MOV     ?V0 + 0,#0x0
   \   000008   75..00       MOV     ?V0 + 1,#0x0
   \   00000B   7800         MOV     R0,#0x0
   \   00000D   7900         MOV     R1,#0x0
   \                     ??bindCapacity_0:
   \   00000F   90....       MOV     DPTR,#gNWK_MAX_BINDING_ENTRIES
   \   000012   E4           CLR     A
   \   000013   93           MOVC    A,@A+DPTR
   \   000014   FE           MOV     R6,A
   \   000015   7401         MOV     A,#0x1
   \   000017   93           MOVC    A,@A+DPTR
   \   000018   FF           MOV     R7,A
   \   000019   C3           CLR     C
   \   00001A   E8           MOV     A,R0
   \   00001B   9E           SUBB    A,R6
   \   00001C   E9           MOV     A,R1
   \   00001D   9F           SUBB    A,R7
   \   00001E   5042         JNC     ??bindCapacity_1
    229            {
    230              // It's empty if the index is "Not Found"
    231              if ( BindingTable[x].srcEP != NV_BIND_EMPTY )
   \   000020   E8           MOV     A,R0
   \   000021   FE           MOV     R6,A
   \   000022   E9           MOV     A,R1
   \   000023   FF           MOV     R7,A
   \   000024   EE           MOV     A,R6
   \   000025   75F00E       MOV     B,#0xe
   \   000028   A4           MUL     AB
   \   000029   CE           XCH     A,R6
   \   00002A   85F0..       MOV     ?V0 + 2,B
   \   00002D   75F000       MOV     B,#0x0
   \   000030   A4           MUL     AB
   \   000031   25..         ADD     A,?V0 + 2
   \   000033   F5..         MOV     ?V0 + 2,A
   \   000035   75F00E       MOV     B,#0xe
   \   000038   EF           MOV     A,R7
   \   000039   A4           MUL     AB
   \   00003A   25..         ADD     A,?V0 + 2
   \   00003C   FF           MOV     R7,A
   \   00003D   74..         MOV     A,#BindingTable & 0xff
   \   00003F   2E           ADD     A,R6
   \   000040   F582         MOV     DPL,A
   \   000042   74..         MOV     A,#(BindingTable >> 8) & 0xff
   \   000044   3F           ADDC    A,R7
   \   000045   F583         MOV     DPH,A
   \   000047   E0           MOVX    A,@DPTR
   \   000048   64FF         XRL     A,#0xff
   \   00004A   600C         JZ      ??bindCapacity_2
    232              {
    233                used++;
   \   00004C   E5..         MOV     A,?V0 + 0
   \   00004E   2401         ADD     A,#0x1
   \   000050   F5..         MOV     ?V0 + 0,A
   \   000052   E5..         MOV     A,?V0 + 1
   \   000054   3400         ADDC    A,#0x0
   \   000056   F5..         MOV     ?V0 + 1,A
    234              }
    235            }
   \                     ??bindCapacity_2:
   \   000058   E8           MOV     A,R0
   \   000059   2401         ADD     A,#0x1
   \   00005B   F8           MOV     R0,A
   \   00005C   E9           MOV     A,R1
   \   00005D   3400         ADDC    A,#0x0
   \   00005F   F9           MOV     R1,A
   \   000060   80AD         SJMP    ??bindCapacity_0
    236          
    237            *maxEntries = gNWK_MAX_BINDING_ENTRIES;
   \                     ??bindCapacity_1:
   \   000062   90....       MOV     DPTR,#gNWK_MAX_BINDING_ENTRIES
   \   000065   E4           CLR     A
   \   000066   93           MOVC    A,@A+DPTR
   \   000067   FE           MOV     R6,A
   \   000068   7401         MOV     A,#0x1
   \   00006A   93           MOVC    A,@A+DPTR
   \   00006B   FF           MOV     R7,A
   \   00006C   8A82         MOV     DPL,R2
   \   00006E   8B83         MOV     DPH,R3
   \   000070   EE           MOV     A,R6
   \   000071   F0           MOVX    @DPTR,A
   \   000072   A3           INC     DPTR
   \   000073   EF           MOV     A,R7
   \   000074   F0           MOVX    @DPTR,A
    238            *usedEntries = used;
   \   000075   8C82         MOV     DPL,R4
   \   000077   8D83         MOV     DPH,R5
   \   000079   E5..         MOV     A,?V0 + 0
   \   00007B   F0           MOVX    @DPTR,A
   \   00007C   A3           INC     DPTR
   \   00007D   E5..         MOV     A,?V0 + 1
   \   00007F   F0           MOVX    @DPTR,A
    239          }
   \   000080   7F03         MOV     R7,#0x3
   \   000082   02....       LJMP    ?BANKED_LEAVE_XDATA
    240          
    241          /*********************************************************************
    242           * @fn      bindAddEntry()
    243           *
    244           * @brief   This function is used to Add an entry to the binding table
    245           *
    246           * @param       srcAddr - source Address
    247           * @param       srcEpInt - source endpoint
    248           * @param       dstAddr - destination Address
    249           * @param       dstEpInt - destination endpoint
    250           * @param       numClusterIds - number of cluster Ids in the list
    251           * @param       clusterIds - pointer to the Object ID list
    252           *
    253           * @return  pointer to binding table entry, NULL if not added
    254           */

   \                                 In  segment BANKED_CODE, align 1, keep-with-next
    255          BindingEntry_t *bindAddEntry( byte srcEpInt,
   \                     bindAddEntry:
    256                                        zAddrType_t *dstAddr, byte dstEpInt,
    257                                        byte numClusterIds, uint16 *clusterIds )
    258          {
   \   000000   74ED         MOV     A,#-0x13
   \   000002   12....       LCALL   ?BANKED_ENTER_XDATA
   \   000005                ; Saved register size: 19
   \   000005                ; Auto size: 10
   \   000005   74F6         MOV     A,#-0xa
   \   000007   12....       LCALL   ?ALLOC_XSTACK8
   \   00000A   89..         MOV     ?V0 + 10,R1
   \   00000C   8A..         MOV     ?V0 + 8,R2
   \   00000E   8B..         MOV     ?V0 + 9,R3
   \   000010   8C..         MOV     ?V0 + 7,R4
   \   000012   8D..         MOV     ?V0 + 1,R5
   \   000014   741D         MOV     A,#0x1d
   \   000016   12....       LCALL   ?XSTACK_DISP0_8
   \   000019   E0           MOVX    A,@DPTR
   \   00001A   F5..         MOV     ?V0 + 2,A
   \   00001C   A3           INC     DPTR
   \   00001D   E0           MOVX    A,@DPTR
   \   00001E   F5..         MOV     ?V0 + 3,A
    259            uint8           index;
    260            BindingEntry_t* entry;
    261            bindFields_t    fields;
    262          
    263            // initialize results
    264            entry = NULL;
   \   000020   7E00         MOV     R6,#0x0
   \   000022   7F00         MOV     R7,#0x0
    265          
    266            // make sure local addresses have been loaded
    267            bindAddrMgrLocalLoad();
   \   000024                ; Setup parameters for call to function bindAddrMgrLocalLoad
   \   000024   12....       LCALL   ??bindAddrMgrLocalLoad?relay
    268          
    269            // setup fields
    270            fields.dstIndex = bindAddrIndexGet( dstAddr );
   \   000027                ; Setup parameters for call to function bindAddrIndexGet
   \   000027   AA..         MOV     R2,?V0 + 8
   \   000029   AB..         MOV     R3,?V0 + 9
   \   00002B   12....       LCALL   ??bindAddrIndexGet?relay
   \   00002E   7403         MOV     A,#0x3
   \   000030   12....       LCALL   ?XSTACK_DISP0_8
   \   000033   EA           MOV     A,R2
   \   000034   F0           MOVX    @DPTR,A
   \   000035   A3           INC     DPTR
   \   000036   EB           MOV     A,R3
   \   000037   F0           MOVX    @DPTR,A
    271            fields.srcEP    = srcEpInt;
   \   000038   E5..         MOV     A,?V0 + 10
   \   00003A   85..82       MOV     DPL,?XSP + 0
   \   00003D   85..83       MOV     DPH,?XSP + 1
   \   000040   E5..         MOV     A,?V0 + 10
   \   000042   F0           MOVX    @DPTR,A
    272          
    273            if ( dstAddr->addrMode == AddrGroup )
   \   000043   85..82       MOV     DPL,?V0 + 8
   \   000046   85..83       MOV     DPH,?V0 + 9
   \   000049   A3           INC     DPTR
   \   00004A   A3           INC     DPTR
   \   00004B   A3           INC     DPTR
   \   00004C   A3           INC     DPTR
   \   00004D   A3           INC     DPTR
   \   00004E   A3           INC     DPTR
   \   00004F   A3           INC     DPTR
   \   000050   A3           INC     DPTR
   \   000051   E0           MOVX    A,@DPTR
   \   000052   6401         XRL     A,#0x1
   \   000054   7012         JNZ     ??bindAddEntry_0
    274            {
    275              fields.dstAddrMode = DSTGROUPMODE_GROUP;
   \   000056   7406         MOV     A,#0x6
   \   000058   12....       LCALL   ?XSTACK_DISP0_8
   \   00005B   7401         MOV     A,#0x1
   \   00005D   F0           MOVX    @DPTR,A
    276              fields.dstEP       = 0;
   \   00005E   7405         MOV     A,#0x5
   \   000060   12....       LCALL   ?XSTACK_DISP0_8
   \   000063   7400         MOV     A,#0x0
   \   000065   F0           MOVX    @DPTR,A
   \   000066   8012         SJMP    ??bindAddEntry_1
    277            }
    278            else
    279            {
    280              fields.dstAddrMode = DSTGROUPMODE_ADDR;
   \                     ??bindAddEntry_0:
   \   000068   7406         MOV     A,#0x6
   \   00006A   12....       LCALL   ?XSTACK_DISP0_8
   \   00006D   7400         MOV     A,#0x0
   \   00006F   F0           MOVX    @DPTR,A
    281              fields.dstEP       = dstEpInt;
   \   000070   E5..         MOV     A,?V0 + 7
   \   000072   7405         MOV     A,#0x5
   \   000074   12....       LCALL   ?XSTACK_DISP0_8
   \   000077   E5..         MOV     A,?V0 + 7
   \   000079   F0           MOVX    @DPTR,A
    282            }
    283          
    284            if ( fields.dstIndex != INVALID_NODE_ADDR  )
   \                     ??bindAddEntry_1:
   \   00007A   7403         MOV     A,#0x3
   \   00007C   12....       LCALL   ?XSTACK_DISP0_8
   \   00007F   E0           MOVX    A,@DPTR
   \   000080   64FE         XRL     A,#0xfe
   \   000082   7004         JNZ     ??bindAddEntry_2
   \   000084   A3           INC     DPTR
   \   000085   E0           MOVX    A,@DPTR
   \   000086   64FF         XRL     A,#0xff
   \                     ??bindAddEntry_2:
   \   000088   7003         JNZ     $+5
   \   00008A   02....       LJMP    ??bindAddEntry_3 & 0xFFFF
    285            {
    286              for ( index = 0; index < gNWK_MAX_BINDING_ENTRIES; index++ )
   \   00008D   75..00       MOV     ?V0 + 0,#0x0
   \                     ??bindAddEntry_4:
   \   000090   85....       MOV     ?V0 + 4,?V0 + 0
   \   000093   75..00       MOV     ?V0 + 5,#0x0
   \   000096   90....       MOV     DPTR,#gNWK_MAX_BINDING_ENTRIES
   \   000099   E4           CLR     A
   \   00009A   93           MOVC    A,@A+DPTR
   \   00009B   F8           MOV     R0,A
   \   00009C   7401         MOV     A,#0x1
   \   00009E   93           MOVC    A,@A+DPTR
   \   00009F   F9           MOV     R1,A
   \   0000A0   C3           CLR     C
   \   0000A1   E5..         MOV     A,?V0 + 4
   \   0000A3   98           SUBB    A,R0
   \   0000A4   E5..         MOV     A,?V0 + 5
   \   0000A6   99           SUBB    A,R1
   \   0000A7   4003         JC      $+5
   \   0000A9   02....       LJMP    ??bindAddEntry_5 & 0xFFFF
    287              {
    288                if ( ( fields.srcEP       == BindingTable[index].srcEP        ) &&
    289                     ( fields.dstAddrMode == BindingTable[index].dstGroupMode ) &&
    290                     ( fields.dstIndex    == BindingTable[index].dstIdx       ) &&
    291                     ( fields.dstEP       == BindingTable[index].dstEP        )    )
   \   0000AC   85..82       MOV     DPL,?XSP + 0
   \   0000AF   85..83       MOV     DPH,?XSP + 1
   \   0000B2   E0           MOVX    A,@DPTR
   \   0000B3   FB           MOV     R3,A
   \   0000B4   E5..         MOV     A,?V0 + 0
   \   0000B6   A8..         MOV     R0,?V0 + 0
   \   0000B8   7900         MOV     R1,#0x0
   \   0000BA   E8           MOV     A,R0
   \   0000BB   75F00E       MOV     B,#0xe
   \   0000BE   A4           MUL     AB
   \   0000BF   C8           XCH     A,R0
   \   0000C0   AAF0         MOV     R2,B
   \   0000C2   75F000       MOV     B,#0x0
   \   0000C5   A4           MUL     AB
   \   0000C6   2A           ADD     A,R2
   \   0000C7   FA           MOV     R2,A
   \   0000C8   75F00E       MOV     B,#0xe
   \   0000CB   E9           MOV     A,R1
   \   0000CC   A4           MUL     AB
   \   0000CD   2A           ADD     A,R2
   \   0000CE   F9           MOV     R1,A
   \   0000CF   74..         MOV     A,#BindingTable & 0xff
   \   0000D1   28           ADD     A,R0
   \   0000D2   F582         MOV     DPL,A
   \   0000D4   74..         MOV     A,#(BindingTable >> 8) & 0xff
   \   0000D6   39           ADDC    A,R1
   \   0000D7   F583         MOV     DPH,A
   \   0000D9   E0           MOVX    A,@DPTR
   \   0000DA   6B           XRL     A,R3
   \   0000DB   6003         JZ      $+5
   \   0000DD   02....       LJMP    ??bindAddEntry_6 & 0xFFFF
   \   0000E0   7406         MOV     A,#0x6
   \   0000E2   12....       LCALL   ?XSTACK_DISP0_8
   \   0000E5   E0           MOVX    A,@DPTR
   \   0000E6   FB           MOV     R3,A
   \   0000E7   E5..         MOV     A,?V0 + 0
   \   0000E9   A8..         MOV     R0,?V0 + 0
   \   0000EB   7900         MOV     R1,#0x0
   \   0000ED   E8           MOV     A,R0
   \   0000EE   75F00E       MOV     B,#0xe
   \   0000F1   A4           MUL     AB
   \   0000F2   C8           XCH     A,R0
   \   0000F3   AAF0         MOV     R2,B
   \   0000F5   75F000       MOV     B,#0x0
   \   0000F8   A4           MUL     AB
   \   0000F9   2A           ADD     A,R2
   \   0000FA   FA           MOV     R2,A
   \   0000FB   75F00E       MOV     B,#0xe
   \   0000FE   E9           MOV     A,R1
   \   0000FF   A4           MUL     AB
   \   000100   2A           ADD     A,R2
   \   000101   F9           MOV     R1,A
   \   000102   74..         MOV     A,#(BindingTable + 1) & 0xff
   \   000104   28           ADD     A,R0
   \   000105   F582         MOV     DPL,A
   \   000107   74..         MOV     A,#((BindingTable + 1) >> 8) & 0xff
   \   000109   39           ADDC    A,R1
   \   00010A   F583         MOV     DPH,A
   \   00010C   E0           MOVX    A,@DPTR
   \   00010D   6B           XRL     A,R3
   \   00010E   6003         JZ      $+5
   \   000110   02....       LJMP    ??bindAddEntry_6 & 0xFFFF
   \   000113   7403         MOV     A,#0x3
   \   000115   12....       LCALL   ?XSTACK_DISP0_8
   \   000118   E0           MOVX    A,@DPTR
   \   000119   F8           MOV     R0,A
   \   00011A   A3           INC     DPTR
   \   00011B   E0           MOVX    A,@DPTR
   \   00011C   F9           MOV     R1,A
   \   00011D   E5..         MOV     A,?V0 + 0
   \   00011F   AA..         MOV     R2,?V0 + 0
   \   000121   7B00         MOV     R3,#0x0
   \   000123   EA           MOV     A,R2
   \   000124   75F00E       MOV     B,#0xe
   \   000127   A4           MUL     AB
   \   000128   CA           XCH     A,R2
   \   000129   ACF0         MOV     R4,B
   \   00012B   75F000       MOV     B,#0x0
   \   00012E   A4           MUL     AB
   \   00012F   2C           ADD     A,R4
   \   000130   FC           MOV     R4,A
   \   000131   75F00E       MOV     B,#0xe
   \   000134   EB           MOV     A,R3
   \   000135   A4           MUL     AB
   \   000136   2C           ADD     A,R4
   \   000137   FB           MOV     R3,A
   \   000138   74..         MOV     A,#(BindingTable + 2) & 0xff
   \   00013A   2A           ADD     A,R2
   \   00013B   F582         MOV     DPL,A
   \   00013D   74..         MOV     A,#((BindingTable + 2) >> 8) & 0xff
   \   00013F   3B           ADDC    A,R3
   \   000140   F583         MOV     DPH,A
   \   000142   E0           MOVX    A,@DPTR
   \   000143   68           XRL     A,R0
   \   000144   7003         JNZ     ??bindAddEntry_7
   \   000146   A3           INC     DPTR
   \   000147   E0           MOVX    A,@DPTR
   \   000148   69           XRL     A,R1
   \                     ??bindAddEntry_7:
   \   000149   7059         JNZ     ??bindAddEntry_6
   \   00014B   7405         MOV     A,#0x5
   \   00014D   12....       LCALL   ?XSTACK_DISP0_8
   \   000150   E0           MOVX    A,@DPTR
   \   000151   FB           MOV     R3,A
   \   000152   E5..         MOV     A,?V0 + 0
   \   000154   A8..         MOV     R0,?V0 + 0
   \   000156   7900         MOV     R1,#0x0
   \   000158   E8           MOV     A,R0
   \   000159   75F00E       MOV     B,#0xe
   \   00015C   A4           MUL     AB
   \   00015D   C8           XCH     A,R0
   \   00015E   AAF0         MOV     R2,B
   \   000160   75F000       MOV     B,#0x0
   \   000163   A4           MUL     AB
   \   000164   2A           ADD     A,R2
   \   000165   FA           MOV     R2,A
   \   000166   75F00E       MOV     B,#0xe
   \   000169   E9           MOV     A,R1
   \   00016A   A4           MUL     AB
   \   00016B   2A           ADD     A,R2
   \   00016C   F9           MOV     R1,A
   \   00016D   74..         MOV     A,#(BindingTable + 4) & 0xff
   \   00016F   28           ADD     A,R0
   \   000170   F582         MOV     DPL,A
   \   000172   74..         MOV     A,#((BindingTable + 4) >> 8) & 0xff
   \   000174   39           ADDC    A,R1
   \   000175   F583         MOV     DPH,A
   \   000177   E0           MOVX    A,@DPTR
   \   000178   6B           XRL     A,R3
   \   000179   7029         JNZ     ??bindAddEntry_6
    292                {
    293                  entry = &BindingTable[index];
   \   00017B   E5..         MOV     A,?V0 + 0
   \   00017D   A8..         MOV     R0,?V0 + 0
   \   00017F   7900         MOV     R1,#0x0
   \   000181   E8           MOV     A,R0
   \   000182   75F00E       MOV     B,#0xe
   \   000185   A4           MUL     AB
   \   000186   C8           XCH     A,R0
   \   000187   AAF0         MOV     R2,B
   \   000189   75F000       MOV     B,#0x0
   \   00018C   A4           MUL     AB
   \   00018D   2A           ADD     A,R2
   \   00018E   FA           MOV     R2,A
   \   00018F   75F00E       MOV     B,#0xe
   \   000192   E9           MOV     A,R1
   \   000193   A4           MUL     AB
   \   000194   2A           ADD     A,R2
   \   000195   F9           MOV     R1,A
   \   000196   74..         MOV     A,#BindingTable & 0xff
   \   000198   28           ADD     A,R0
   \   000199   F8           MOV     R0,A
   \   00019A   74..         MOV     A,#(BindingTable >> 8) & 0xff
   \   00019C   39           ADDC    A,R1
   \   00019D   F9           MOV     R1,A
   \   00019E   E8           MOV     A,R0
   \   00019F   FE           MOV     R6,A
   \   0001A0   E9           MOV     A,R1
   \   0001A1   FF           MOV     R7,A
    294          
    295                  // break from loop
    296                  break;
   \   0001A2   8005         SJMP    ??bindAddEntry_5
    297                }
    298              }
   \                     ??bindAddEntry_6:
   \   0001A4   05..         INC     ?V0 + 0
   \   0001A6   02....       LJMP    ??bindAddEntry_4 & 0xFFFF
    299          
    300              if ( entry != NULL )
   \                     ??bindAddEntry_5:
   \   0001A9   EE           MOV     A,R6
   \   0001AA   4F           ORL     A,R7
   \   0001AB   607D         JZ      ??bindAddEntry_8
    301              {
    302                // Loop through the cluster IDs
    303                for ( index = 0; index < numClusterIds; index++ )
   \   0001AD   75..00       MOV     ?V0 + 0,#0x0
   \                     ??bindAddEntry_9:
   \   0001B0   E5..         MOV     A,?V0 + 0
   \   0001B2   C3           CLR     C
   \   0001B3   95..         SUBB    A,?V0 + 1
   \   0001B5   4003         JC      $+5
   \   0001B7   02....       LJMP    ??bindAddEntry_3 & 0xFFFF
    304                {
    305                  // Found - is the cluster already defined?
    306                  if ( bindIsClusterIDinList( entry, clusterIds[index] ) == FALSE )
   \   0001BA                ; Setup parameters for call to function bindIsClusterIDinList
   \   0001BA   E5..         MOV     A,?V0 + 0
   \   0001BC   A8..         MOV     R0,?V0 + 0
   \   0001BE   7900         MOV     R1,#0x0
   \   0001C0   E8           MOV     A,R0
   \   0001C1   75F002       MOV     B,#0x2
   \   0001C4   A4           MUL     AB
   \   0001C5   C8           XCH     A,R0
   \   0001C6   AAF0         MOV     R2,B
   \   0001C8   75F000       MOV     B,#0x0
   \   0001CB   A4           MUL     AB
   \   0001CC   2A           ADD     A,R2
   \   0001CD   FA           MOV     R2,A
   \   0001CE   75F002       MOV     B,#0x2
   \   0001D1   E9           MOV     A,R1
   \   0001D2   A4           MUL     AB
   \   0001D3   2A           ADD     A,R2
   \   0001D4   F9           MOV     R1,A
   \   0001D5   E5..         MOV     A,?V0 + 2
   \   0001D7   28           ADD     A,R0
   \   0001D8   F582         MOV     DPL,A
   \   0001DA   E5..         MOV     A,?V0 + 3
   \   0001DC   39           ADDC    A,R1
   \   0001DD   F583         MOV     DPH,A
   \   0001DF   E0           MOVX    A,@DPTR
   \   0001E0   FC           MOV     R4,A
   \   0001E1   A3           INC     DPTR
   \   0001E2   E0           MOVX    A,@DPTR
   \   0001E3   FD           MOV     R5,A
   \   0001E4   EE           MOV     A,R6
   \   0001E5   FA           MOV     R2,A
   \   0001E6   EF           MOV     A,R7
   \   0001E7   FB           MOV     R3,A
   \   0001E8   12....       LCALL   ??bindIsClusterIDinList?relay
   \   0001EB   E9           MOV     A,R1
   \   0001EC   7038         JNZ     ??bindAddEntry_10
    307                  {
    308                    // Nope, add this cluster
    309                    if ( bindAddClusterIdToList( entry, clusterIds[index] ) == FALSE )
   \   0001EE                ; Setup parameters for call to function bindAddClusterIdToList
   \   0001EE   E5..         MOV     A,?V0 + 0
   \   0001F0   A8..         MOV     R0,?V0 + 0
   \   0001F2   7900         MOV     R1,#0x0
   \   0001F4   E8           MOV     A,R0
   \   0001F5   75F002       MOV     B,#0x2
   \   0001F8   A4           MUL     AB
   \   0001F9   C8           XCH     A,R0
   \   0001FA   AAF0         MOV     R2,B
   \   0001FC   75F000       MOV     B,#0x0
   \   0001FF   A4           MUL     AB
   \   000200   2A           ADD     A,R2
   \   000201   FA           MOV     R2,A
   \   000202   75F002       MOV     B,#0x2
   \   000205   E9           MOV     A,R1
   \   000206   A4           MUL     AB
   \   000207   2A           ADD     A,R2
   \   000208   F9           MOV     R1,A
   \   000209   E5..         MOV     A,?V0 + 2
   \   00020B   28           ADD     A,R0
   \   00020C   F582         MOV     DPL,A
   \   00020E   E5..         MOV     A,?V0 + 3
   \   000210   39           ADDC    A,R1
   \   000211   F583         MOV     DPH,A
   \   000213   E0           MOVX    A,@DPTR
   \   000214   FC           MOV     R4,A
   \   000215   A3           INC     DPTR
   \   000216   E0           MOVX    A,@DPTR
   \   000217   FD           MOV     R5,A
   \   000218   EE           MOV     A,R6
   \   000219   FA           MOV     R2,A
   \   00021A   EF           MOV     A,R7
   \   00021B   FB           MOV     R3,A
   \   00021C   12....       LCALL   ??bindAddClusterIdToList?relay
   \   00021F   E9           MOV     A,R1
   \   000220   7004         JNZ     ??bindAddEntry_10
    310                    {
    311                      // Indicate error if cluster list was full
    312                      entry = NULL;
   \   000222   7E00         MOV     R6,#0x0
   \   000224   7F00         MOV     R7,#0x0
    313                    }
    314                  }
    315                }
   \                     ??bindAddEntry_10:
   \   000226   05..         INC     ?V0 + 0
   \   000228   8086         SJMP    ??bindAddEntry_9
    316              }
    317              else
    318              {
    319                // Find an empty slot
    320                entry = bindFindEmpty();
   \                     ??bindAddEntry_8:
   \   00022A                ; Setup parameters for call to function bindFindEmpty
   \   00022A   12....       LCALL   ??bindFindEmpty?relay
   \   00022D   8A..         MOV     ?V0 + 4,R2
   \   00022F   8B..         MOV     ?V0 + 5,R3
   \   000231   AE..         MOV     R6,?V0 + 4
   \   000233   AF..         MOV     R7,?V0 + 5
    321          
    322                // Check against the maximum number allowed
    323                if ( entry != NULL )
   \   000235   EE           MOV     A,R6
   \   000236   4F           ORL     A,R7
   \   000237   7003         JNZ     $+5
   \   000239   02....       LJMP    ??bindAddEntry_3 & 0xFFFF
    324                {
    325                  // Add new entry
    326                  entry->srcEP         = fields.srcEP;
   \   00023C   85..82       MOV     DPL,?XSP + 0
   \   00023F   85..83       MOV     DPH,?XSP + 1
   \   000242   E0           MOVX    A,@DPTR
   \   000243   8E82         MOV     DPL,R6
   \   000245   8F83         MOV     DPH,R7
   \   000247   F0           MOVX    @DPTR,A
    327                  entry->dstGroupMode  = fields.dstAddrMode;
   \   000248   7406         MOV     A,#0x6
   \   00024A   12....       LCALL   ?XSTACK_DISP0_8
   \   00024D   E0           MOVX    A,@DPTR
   \   00024E   8E82         MOV     DPL,R6
   \   000250   8F83         MOV     DPH,R7
   \   000252   A3           INC     DPTR
   \   000253   F0           MOVX    @DPTR,A
    328                  entry->dstIdx        = fields.dstIndex;
   \   000254   7403         MOV     A,#0x3
   \   000256   12....       LCALL   ?XSTACK_DISP0_8
   \   000259   E0           MOVX    A,@DPTR
   \   00025A   F8           MOV     R0,A
   \   00025B   A3           INC     DPTR
   \   00025C   E0           MOVX    A,@DPTR
   \   00025D   F9           MOV     R1,A
   \   00025E   8E82         MOV     DPL,R6
   \   000260   8F83         MOV     DPH,R7
   \   000262   A3           INC     DPTR
   \   000263   A3           INC     DPTR
   \   000264   E8           MOV     A,R0
   \   000265   F0           MOVX    @DPTR,A
   \   000266   A3           INC     DPTR
   \   000267   E9           MOV     A,R1
   \   000268   F0           MOVX    @DPTR,A
    329                  entry->dstEP         = fields.dstEP;
   \   000269   7405         MOV     A,#0x5
   \   00026B   12....       LCALL   ?XSTACK_DISP0_8
   \   00026E   E0           MOVX    A,@DPTR
   \   00026F   8E82         MOV     DPL,R6
   \   000271   8F83         MOV     DPH,R7
   \   000273   A3           INC     DPTR
   \   000274   A3           INC     DPTR
   \   000275   A3           INC     DPTR
   \   000276   A3           INC     DPTR
   \   000277   F0           MOVX    @DPTR,A
    330          
    331                  if ( numClusterIds > gMAX_BINDING_CLUSTER_IDS )
   \   000278   90....       MOV     DPTR,#gMAX_BINDING_CLUSTER_IDS
   \   00027B   E4           CLR     A
   \   00027C   93           MOVC    A,@A+DPTR
   \   00027D   C3           CLR     C
   \   00027E   95..         SUBB    A,?V0 + 1
   \   000280   5007         JNC     ??bindAddEntry_11
    332                  {
    333                    numClusterIds = gMAX_BINDING_CLUSTER_IDS;
   \   000282   90....       MOV     DPTR,#gMAX_BINDING_CLUSTER_IDS
   \   000285   E4           CLR     A
   \   000286   93           MOVC    A,@A+DPTR
   \   000287   F5..         MOV     ?V0 + 1,A
    334                  }
    335          
    336                  entry->numClusterIds = numClusterIds;
   \                     ??bindAddEntry_11:
   \   000289   E5..         MOV     A,?V0 + 1
   \   00028B   8E82         MOV     DPL,R6
   \   00028D   8F83         MOV     DPH,R7
   \   00028F   A3           INC     DPTR
   \   000290   A3           INC     DPTR
   \   000291   A3           INC     DPTR
   \   000292   A3           INC     DPTR
   \   000293   A3           INC     DPTR
   \   000294   E5..         MOV     A,?V0 + 1
   \   000296   F0           MOVX    @DPTR,A
    337          
    338                  osal_memcpy( entry->clusterIdList,
    339                               clusterIds,
    340                               numClusterIds * sizeof(uint16) );
   \   000297                ; Setup parameters for call to function osal_memcpy
   \   000297   85....       MOV     ?V0 + 4,?V0 + 2
   \   00029A   85....       MOV     ?V0 + 5,?V0 + 3
   \   00029D   75..00       MOV     ?V0 + 6,#0x0
   \   0002A0   78..         MOV     R0,#?V0 + 4
   \   0002A2   12....       LCALL   ?PUSH_XSTACK_I_THREE
   \   0002A5   E5..         MOV     A,?V0 + 1
   \   0002A7   AC..         MOV     R4,?V0 + 1
   \   0002A9   7D00         MOV     R5,#0x0
   \   0002AB   EC           MOV     A,R4
   \   0002AC   75F002       MOV     B,#0x2
   \   0002AF   A4           MUL     AB
   \   0002B0   CC           XCH     A,R4
   \   0002B1   A8F0         MOV     R0,B
   \   0002B3   75F000       MOV     B,#0x0
   \   0002B6   A4           MUL     AB
   \   0002B7   28           ADD     A,R0
   \   0002B8   F8           MOV     R0,A
   \   0002B9   75F002       MOV     B,#0x2
   \   0002BC   ED           MOV     A,R5
   \   0002BD   A4           MUL     AB
   \   0002BE   28           ADD     A,R0
   \   0002BF   FD           MOV     R5,A
   \   0002C0   EE           MOV     A,R6
   \   0002C1   2406         ADD     A,#0x6
   \   0002C3   FA           MOV     R2,A
   \   0002C4   EF           MOV     A,R7
   \   0002C5   3400         ADDC    A,#0x0
   \   0002C7   FB           MOV     R3,A
   \   0002C8   12....       LCALL   ??osal_memcpy?relay
   \   0002CB   7403         MOV     A,#0x3
   \   0002CD   12....       LCALL   ?DEALLOC_XSTACK8
    341                }
    342              }
    343            }
    344          
    345            return entry;
   \                     ??bindAddEntry_3:
   \   0002D0   EE           MOV     A,R6
   \   0002D1   FA           MOV     R2,A
   \   0002D2   EF           MOV     A,R7
   \   0002D3   FB           MOV     R3,A
   \   0002D4   740A         MOV     A,#0xa
   \   0002D6   12....       LCALL   ?DEALLOC_XSTACK8
   \   0002D9   7F0B         MOV     R7,#0xb
   \   0002DB   02....       LJMP    ?BANKED_LEAVE_XDATA
    346          }
    347          
    348          /*********************************************************************
    349           * @fn      bindRemoveEntry
    350           *
    351           * @brief   Removes a binding table entry.
    352           *
    353           * @param   pBind - pointer to binding table entry to delete
    354           *
    355           * @return  TRUE if Removed, FALSE if not
    356           */

   \                                 In  segment BANKED_CODE, align 1, keep-with-next
    357          byte bindRemoveEntry( BindingEntry_t *pBind )
   \                     bindRemoveEntry:
    358          {
   \   000000   74F7         MOV     A,#-0x9
   \   000002   12....       LCALL   ?BANKED_ENTER_XDATA
   \   000005                ; Saved register size: 9
   \   000005                ; Auto size: 0
   \   000005   EA           MOV     A,R2
   \   000006   FE           MOV     R6,A
   \   000007   EB           MOV     A,R3
   \   000008   FF           MOV     R7,A
    359            osal_memset( pBind, 0xFF, gBIND_REC_SIZE );
   \   000009                ; Setup parameters for call to function osal_memset
   \   000009   90....       MOV     DPTR,#gBIND_REC_SIZE
   \   00000C   E4           CLR     A
   \   00000D   93           MOVC    A,@A+DPTR
   \   00000E   FC           MOV     R4,A
   \   00000F   7401         MOV     A,#0x1
   \   000011   93           MOVC    A,@A+DPTR
   \   000012   FD           MOV     R5,A
   \   000013   79FF         MOV     R1,#-0x1
   \   000015   EE           MOV     A,R6
   \   000016   FA           MOV     R2,A
   \   000017   EF           MOV     A,R7
   \   000018   FB           MOV     R3,A
   \   000019   12....       LCALL   ??osal_memset?relay
    360            return ( TRUE );
   \   00001C   7901         MOV     R1,#0x1
   \   00001E   7F01         MOV     R7,#0x1
   \   000020   02....       LJMP    ?BANKED_LEAVE_XDATA
    361          }
    362          
    363          /*********************************************************************
    364           * @fn      bindIsClusterIDinList()
    365           *
    366           * @brief   Is the clusterID in the clusterID list?
    367           *
    368           * @param   enter - binding table entry
    369           * @param   clusterId  - Cluster ID to look for
    370           *
    371           * @return  TRUE if found, FALSE if not found
    372           */

   \                                 In  segment BANKED_CODE, align 1, keep-with-next
    373          byte bindIsClusterIDinList( BindingEntry_t *entry, uint16 clusterId )
   \                     bindIsClusterIDinList:
    374          {
   \   000000   74F7         MOV     A,#-0x9
   \   000002   12....       LCALL   ?BANKED_ENTER_XDATA
   \   000005                ; Saved register size: 9
   \   000005                ; Auto size: 0
    375            uint8 x;
    376          
    377            if ( entry != NULL )
   \   000005   EA           MOV     A,R2
   \   000006   4B           ORL     A,R3
   \   000007   6049         JZ      ??bindIsClusterIDinList_0
    378            {
    379              for ( x = 0; x < entry->numClusterIds; x++ )
   \   000009   7F00         MOV     R7,#0x0
   \                     ??bindIsClusterIDinList_1:
   \   00000B   8A82         MOV     DPL,R2
   \   00000D   8B83         MOV     DPH,R3
   \   00000F   A3           INC     DPTR
   \   000010   A3           INC     DPTR
   \   000011   A3           INC     DPTR
   \   000012   A3           INC     DPTR
   \   000013   A3           INC     DPTR
   \   000014   E0           MOVX    A,@DPTR
   \   000015   F8           MOV     R0,A
   \   000016   EF           MOV     A,R7
   \   000017   C3           CLR     C
   \   000018   98           SUBB    A,R0
   \   000019   5037         JNC     ??bindIsClusterIDinList_0
    380              {
    381                if ( entry->clusterIdList[x] == clusterId )
   \   00001B   EF           MOV     A,R7
   \   00001C   F8           MOV     R0,A
   \   00001D   7900         MOV     R1,#0x0
   \   00001F   E8           MOV     A,R0
   \   000020   75F002       MOV     B,#0x2
   \   000023   A4           MUL     AB
   \   000024   C8           XCH     A,R0
   \   000025   AEF0         MOV     R6,B
   \   000027   75F000       MOV     B,#0x0
   \   00002A   A4           MUL     AB
   \   00002B   2E           ADD     A,R6
   \   00002C   FE           MOV     R6,A
   \   00002D   75F002       MOV     B,#0x2
   \   000030   E9           MOV     A,R1
   \   000031   A4           MUL     AB
   \   000032   2E           ADD     A,R6
   \   000033   F9           MOV     R1,A
   \   000034   EA           MOV     A,R2
   \   000035   28           ADD     A,R0
   \   000036   F582         MOV     DPL,A
   \   000038   EB           MOV     A,R3
   \   000039   39           ADDC    A,R1
   \   00003A   F583         MOV     DPH,A
   \   00003C   A3           INC     DPTR
   \   00003D   A3           INC     DPTR
   \   00003E   A3           INC     DPTR
   \   00003F   A3           INC     DPTR
   \   000040   A3           INC     DPTR
   \   000041   A3           INC     DPTR
   \   000042   E0           MOVX    A,@DPTR
   \   000043   6C           XRL     A,R4
   \   000044   7003         JNZ     ??bindIsClusterIDinList_2
   \   000046   A3           INC     DPTR
   \   000047   E0           MOVX    A,@DPTR
   \   000048   6D           XRL     A,R5
   \                     ??bindIsClusterIDinList_2:
   \   000049   7004         JNZ     ??bindIsClusterIDinList_3
    382                {
    383                  return ( TRUE );
   \   00004B   7901         MOV     R1,#0x1
   \   00004D   8005         SJMP    ??bindIsClusterIDinList_4
    384                }
    385              }
   \                     ??bindIsClusterIDinList_3:
   \   00004F   0F           INC     R7
   \   000050   80B9         SJMP    ??bindIsClusterIDinList_1
    386            }
    387          
    388            return ( FALSE );
   \                     ??bindIsClusterIDinList_0:
   \   000052   7900         MOV     R1,#0x0
   \                     ??bindIsClusterIDinList_4:
   \   000054   7F01         MOV     R7,#0x1
   \   000056   02....       LJMP    ?BANKED_LEAVE_XDATA
    389          }
    390          
    391          /*********************************************************************
    392           * @fn      bindRemoveClusterIdFromList()
    393           *
    394           * @brief   Removes a ClusterID from a list of ClusterIDs.
    395           *
    396           * @param   enter - binding table entry
    397           * @param   clusterId  - Cluster ID to look for
    398           *
    399           * @return  TRUE if there are at least 1 clusterID left, FALSE if none
    400           */

   \                                 In  segment BANKED_CODE, align 1, keep-with-next
    401          byte bindRemoveClusterIdFromList( BindingEntry_t *entry, uint16 clusterId )
   \                     bindRemoveClusterIdFromList:
    402          {
   \   000000   74F5         MOV     A,#-0xb
   \   000002   12....       LCALL   ?BANKED_ENTER_XDATA
   \   000005                ; Saved register size: 11
   \   000005                ; Auto size: 0
    403            byte x;
    404            uint16 *listPtr;
    405            byte numIds;
    406          
    407            if ( entry )
   \   000005   EA           MOV     A,R2
   \   000006   4B           ORL     A,R3
   \   000007   7003         JNZ     $+5
   \   000009   02....       LJMP    ??bindRemoveClusterIdFromList_0 & 0xFFFF
    408            {
    409              if ( entry->numClusterIds > 0 )
   \   00000C   8A82         MOV     DPL,R2
   \   00000E   8B83         MOV     DPH,R3
   \   000010   A3           INC     DPTR
   \   000011   A3           INC     DPTR
   \   000012   A3           INC     DPTR
   \   000013   A3           INC     DPTR
   \   000014   A3           INC     DPTR
   \   000015   E0           MOVX    A,@DPTR
   \   000016   C3           CLR     C
   \   000017   9401         SUBB    A,#0x1
   \   000019   5003         JNC     $+5
   \   00001B   02....       LJMP    ??bindRemoveClusterIdFromList_0 & 0xFFFF
    410              {
    411                listPtr = entry->clusterIdList;
   \   00001E   EA           MOV     A,R2
   \   00001F   2406         ADD     A,#0x6
   \   000021   F8           MOV     R0,A
   \   000022   EB           MOV     A,R3
   \   000023   3400         ADDC    A,#0x0
   \   000025   F9           MOV     R1,A
   \   000026   E8           MOV     A,R0
   \   000027   FE           MOV     R6,A
   \   000028   E9           MOV     A,R1
   \   000029   FF           MOV     R7,A
    412                numIds = entry->numClusterIds;
   \   00002A   8A82         MOV     DPL,R2
   \   00002C   8B83         MOV     DPH,R3
   \   00002E   A3           INC     DPTR
   \   00002F   A3           INC     DPTR
   \   000030   A3           INC     DPTR
   \   000031   A3           INC     DPTR
   \   000032   A3           INC     DPTR
   \   000033   E0           MOVX    A,@DPTR
   \   000034   F5..         MOV     ?V0 + 2,A
    413          
    414                // Copy the new list over
    415                for ( x = 0; x < numIds; x++ )
   \   000036   75..00       MOV     ?V0 + 1,#0x0
   \                     ??bindRemoveClusterIdFromList_1:
   \   000039   E5..         MOV     A,?V0 + 1
   \   00003B   C3           CLR     C
   \   00003C   95..         SUBB    A,?V0 + 2
   \   00003E   4003         JC      $+5
   \   000040   02....       LJMP    ??bindRemoveClusterIdFromList_0 & 0xFFFF
    416                {
    417                  if ( entry->clusterIdList[x] != clusterId )
   \   000043   E5..         MOV     A,?V0 + 1
   \   000045   A8..         MOV     R0,?V0 + 1
   \   000047   7900         MOV     R1,#0x0
   \   000049   E8           MOV     A,R0
   \   00004A   75F002       MOV     B,#0x2
   \   00004D   A4           MUL     AB
   \   00004E   C8           XCH     A,R0
   \   00004F   85F0..       MOV     ?V0 + 0,B
   \   000052   75F000       MOV     B,#0x0
   \   000055   A4           MUL     AB
   \   000056   25..         ADD     A,?V0 + 0
   \   000058   F5..         MOV     ?V0 + 0,A
   \   00005A   75F002       MOV     B,#0x2
   \   00005D   E9           MOV     A,R1
   \   00005E   A4           MUL     AB
   \   00005F   25..         ADD     A,?V0 + 0
   \   000061   F9           MOV     R1,A
   \   000062   EA           MOV     A,R2
   \   000063   28           ADD     A,R0
   \   000064   F582         MOV     DPL,A
   \   000066   EB           MOV     A,R3
   \   000067   39           ADDC    A,R1
   \   000068   F583         MOV     DPH,A
   \   00006A   A3           INC     DPTR
   \   00006B   A3           INC     DPTR
   \   00006C   A3           INC     DPTR
   \   00006D   A3           INC     DPTR
   \   00006E   A3           INC     DPTR
   \   00006F   A3           INC     DPTR
   \   000070   E0           MOVX    A,@DPTR
   \   000071   6C           XRL     A,R4
   \   000072   7003         JNZ     ??bindRemoveClusterIdFromList_2
   \   000074   A3           INC     DPTR
   \   000075   E0           MOVX    A,@DPTR
   \   000076   6D           XRL     A,R5
   \                     ??bindRemoveClusterIdFromList_2:
   \   000077   6049         JZ      ??bindRemoveClusterIdFromList_3
    418                  {
    419                    *listPtr++ = entry->clusterIdList[x];
   \   000079   E5..         MOV     A,?V0 + 1
   \   00007B   A8..         MOV     R0,?V0 + 1
   \   00007D   7900         MOV     R1,#0x0
   \   00007F   E8           MOV     A,R0
   \   000080   75F002       MOV     B,#0x2
   \   000083   A4           MUL     AB
   \   000084   C8           XCH     A,R0
   \   000085   85F0..       MOV     ?V0 + 0,B
   \   000088   75F000       MOV     B,#0x0
   \   00008B   A4           MUL     AB
   \   00008C   25..         ADD     A,?V0 + 0
   \   00008E   F5..         MOV     ?V0 + 0,A
   \   000090   75F002       MOV     B,#0x2
   \   000093   E9           MOV     A,R1
   \   000094   A4           MUL     AB
   \   000095   25..         ADD     A,?V0 + 0
   \   000097   F9           MOV     R1,A
   \   000098   EA           MOV     A,R2
   \   000099   28           ADD     A,R0
   \   00009A   F582         MOV     DPL,A
   \   00009C   EB           MOV     A,R3
   \   00009D   39           ADDC    A,R1
   \   00009E   F583         MOV     DPH,A
   \   0000A0   A3           INC     DPTR
   \   0000A1   A3           INC     DPTR
   \   0000A2   A3           INC     DPTR
   \   0000A3   A3           INC     DPTR
   \   0000A4   A3           INC     DPTR
   \   0000A5   A3           INC     DPTR
   \   0000A6   E0           MOVX    A,@DPTR
   \   0000A7   F8           MOV     R0,A
   \   0000A8   A3           INC     DPTR
   \   0000A9   E0           MOVX    A,@DPTR
   \   0000AA   F9           MOV     R1,A
   \   0000AB   8E82         MOV     DPL,R6
   \   0000AD   8F83         MOV     DPH,R7
   \   0000AF   E8           MOV     A,R0
   \   0000B0   F0           MOVX    @DPTR,A
   \   0000B1   A3           INC     DPTR
   \   0000B2   E9           MOV     A,R1
   \   0000B3   F0           MOVX    @DPTR,A
   \   0000B4   EE           MOV     A,R6
   \   0000B5   2402         ADD     A,#0x2
   \   0000B7   F8           MOV     R0,A
   \   0000B8   EF           MOV     A,R7
   \   0000B9   3400         ADDC    A,#0x0
   \   0000BB   F9           MOV     R1,A
   \   0000BC   E8           MOV     A,R0
   \   0000BD   FE           MOV     R6,A
   \   0000BE   E9           MOV     A,R1
   \   0000BF   FF           MOV     R7,A
   \   0000C0   8019         SJMP    ??bindRemoveClusterIdFromList_4
    420                  }
    421                  else
    422                  {
    423                    entry->numClusterIds--;
   \                     ??bindRemoveClusterIdFromList_3:
   \   0000C2   8A82         MOV     DPL,R2
   \   0000C4   8B83         MOV     DPH,R3
   \   0000C6   A3           INC     DPTR
   \   0000C7   A3           INC     DPTR
   \   0000C8   A3           INC     DPTR
   \   0000C9   A3           INC     DPTR
   \   0000CA   A3           INC     DPTR
   \   0000CB   E0           MOVX    A,@DPTR
   \   0000CC   24FF         ADD     A,#-0x1
   \   0000CE   F0           MOVX    @DPTR,A
    424                    if ( entry->numClusterIds == 0 )
   \   0000CF   8A82         MOV     DPL,R2
   \   0000D1   8B83         MOV     DPH,R3
   \   0000D3   A3           INC     DPTR
   \   0000D4   A3           INC     DPTR
   \   0000D5   A3           INC     DPTR
   \   0000D6   A3           INC     DPTR
   \   0000D7   A3           INC     DPTR
   \   0000D8   E0           MOVX    A,@DPTR
   \   0000D9   6005         JZ      ??bindRemoveClusterIdFromList_0
    425                    {
    426                      break;
    427                    }
    428                  }
    429                }
   \                     ??bindRemoveClusterIdFromList_4:
   \   0000DB   05..         INC     ?V0 + 1
   \   0000DD   02....       LJMP    ??bindRemoveClusterIdFromList_1 & 0xFFFF
    430              }
    431            }
    432          
    433            if ( entry && (entry->numClusterIds > 0) )
   \                     ??bindRemoveClusterIdFromList_0:
   \   0000E0   EA           MOV     A,R2
   \   0000E1   4B           ORL     A,R3
   \   0000E2   6013         JZ      ??bindRemoveClusterIdFromList_5
   \   0000E4   8A82         MOV     DPL,R2
   \   0000E6   8B83         MOV     DPH,R3
   \   0000E8   A3           INC     DPTR
   \   0000E9   A3           INC     DPTR
   \   0000EA   A3           INC     DPTR
   \   0000EB   A3           INC     DPTR
   \   0000EC   A3           INC     DPTR
   \   0000ED   E0           MOVX    A,@DPTR
   \   0000EE   C3           CLR     C
   \   0000EF   9401         SUBB    A,#0x1
   \   0000F1   4004         JC      ??bindRemoveClusterIdFromList_5
    434            {
    435              return ( TRUE );
   \   0000F3   7901         MOV     R1,#0x1
   \   0000F5   8002         SJMP    ??bindRemoveClusterIdFromList_6
    436            }
    437            else
    438            {
    439              return ( FALSE );
   \                     ??bindRemoveClusterIdFromList_5:
   \   0000F7   7900         MOV     R1,#0x0
   \                     ??bindRemoveClusterIdFromList_6:
   \   0000F9   7F03         MOV     R7,#0x3
   \   0000FB   02....       LJMP    ?BANKED_LEAVE_XDATA
    440            }
    441          }
    442          
    443          /*********************************************************************
    444           * @fn      bindAddClusterIdToList()
    445           *
    446           * @brief   Adds a ClusterID to a list of ClusterIDs.
    447           *
    448           * @param   enter - binding table entry
    449           * @param   clusterId  - Cluster ID to Add
    450           *
    451           * @return  TRUE if Added, FALSE if not
    452           */

   \                                 In  segment BANKED_CODE, align 1, keep-with-next
    453          byte bindAddClusterIdToList( BindingEntry_t *entry, uint16 clusterId )
   \                     bindAddClusterIdToList:
    454          {
   \   000000   74F7         MOV     A,#-0x9
   \   000002   12....       LCALL   ?BANKED_ENTER_XDATA
   \   000005                ; Saved register size: 9
   \   000005                ; Auto size: 0
    455            if ( entry && entry->numClusterIds < gMAX_BINDING_CLUSTER_IDS )
   \   000005   EA           MOV     A,R2
   \   000006   4B           ORL     A,R3
   \   000007   605A         JZ      ??bindAddClusterIdToList_0
   \   000009   90....       MOV     DPTR,#gMAX_BINDING_CLUSTER_IDS
   \   00000C   E4           CLR     A
   \   00000D   93           MOVC    A,@A+DPTR
   \   00000E   F8           MOV     R0,A
   \   00000F   8A82         MOV     DPL,R2
   \   000011   8B83         MOV     DPH,R3
   \   000013   A3           INC     DPTR
   \   000014   A3           INC     DPTR
   \   000015   A3           INC     DPTR
   \   000016   A3           INC     DPTR
   \   000017   A3           INC     DPTR
   \   000018   E0           MOVX    A,@DPTR
   \   000019   C3           CLR     C
   \   00001A   98           SUBB    A,R0
   \   00001B   5046         JNC     ??bindAddClusterIdToList_0
    456            {
    457              // Add the new one
    458              entry->clusterIdList[entry->numClusterIds] = clusterId;
   \   00001D   8A82         MOV     DPL,R2
   \   00001F   8B83         MOV     DPH,R3
   \   000021   A3           INC     DPTR
   \   000022   A3           INC     DPTR
   \   000023   A3           INC     DPTR
   \   000024   A3           INC     DPTR
   \   000025   A3           INC     DPTR
   \   000026   E0           MOVX    A,@DPTR
   \   000027   F8           MOV     R0,A
   \   000028   7900         MOV     R1,#0x0
   \   00002A   E8           MOV     A,R0
   \   00002B   75F002       MOV     B,#0x2
   \   00002E   A4           MUL     AB
   \   00002F   C8           XCH     A,R0
   \   000030   AEF0         MOV     R6,B
   \   000032   75F000       MOV     B,#0x0
   \   000035   A4           MUL     AB
   \   000036   2E           ADD     A,R6
   \   000037   FE           MOV     R6,A
   \   000038   75F002       MOV     B,#0x2
   \   00003B   E9           MOV     A,R1
   \   00003C   A4           MUL     AB
   \   00003D   2E           ADD     A,R6
   \   00003E   F9           MOV     R1,A
   \   00003F   EA           MOV     A,R2
   \   000040   28           ADD     A,R0
   \   000041   F582         MOV     DPL,A
   \   000043   EB           MOV     A,R3
   \   000044   39           ADDC    A,R1
   \   000045   F583         MOV     DPH,A
   \   000047   A3           INC     DPTR
   \   000048   A3           INC     DPTR
   \   000049   A3           INC     DPTR
   \   00004A   A3           INC     DPTR
   \   00004B   A3           INC     DPTR
   \   00004C   A3           INC     DPTR
   \   00004D   EC           MOV     A,R4
   \   00004E   F0           MOVX    @DPTR,A
   \   00004F   A3           INC     DPTR
   \   000050   ED           MOV     A,R5
   \   000051   F0           MOVX    @DPTR,A
    459              entry->numClusterIds++;
   \   000052   8A82         MOV     DPL,R2
   \   000054   8B83         MOV     DPH,R3
   \   000056   A3           INC     DPTR
   \   000057   A3           INC     DPTR
   \   000058   A3           INC     DPTR
   \   000059   A3           INC     DPTR
   \   00005A   A3           INC     DPTR
   \   00005B   E0           MOVX    A,@DPTR
   \   00005C   2401         ADD     A,#0x1
   \   00005E   F0           MOVX    @DPTR,A
    460              return ( TRUE );
   \   00005F   7901         MOV     R1,#0x1
   \   000061   8002         SJMP    ??bindAddClusterIdToList_1
    461            }
    462            return ( FALSE );
   \                     ??bindAddClusterIdToList_0:
   \   000063   7900         MOV     R1,#0x0
   \                     ??bindAddClusterIdToList_1:
   \   000065   7F01         MOV     R7,#0x1
   \   000067   02....       LJMP    ?BANKED_LEAVE_XDATA
    463          }
    464          
    465          /*********************************************************************
    466           * @fn      bindFindExisting
    467           *
    468           * @brief   Finds an existing src/epint to dst/epint bind record
    469           *
    470           * @param   srcAddr - Source address
    471           * @param   srcEpInt - Source Endpoint/Interface
    472           * @param   dstAddr - Destination address
    473           * @param   dstEpInt - Destination Endpoint/Interface
    474           *
    475           * @return  pointer to existing entry or NULL
    476           */

   \                                 In  segment BANKED_CODE, align 1, keep-with-next
    477          BindingEntry_t *bindFindExisting( byte srcEpInt,
   \                     bindFindExisting:
    478                                            zAddrType_t *dstAddr, byte dstEpInt )
    479          {
   \   000000   74F0         MOV     A,#-0x10
   \   000002   12....       LCALL   ?BANKED_ENTER_XDATA
   \   000005                ; Saved register size: 16
   \   000005                ; Auto size: 0
   \   000005   89..         MOV     ?V0 + 4,R1
   \   000007   EA           MOV     A,R2
   \   000008   FE           MOV     R6,A
   \   000009   EB           MOV     A,R3
   \   00000A   FF           MOV     R7,A
   \   00000B   8C..         MOV     ?V0 + 5,R4
    480            uint16 dstIdx;
    481            uint16 x;
    482          
    483            // Find the records in the assoc list
    484            if ( dstAddr->addrMode == AddrGroup )
   \   00000D   8E82         MOV     DPL,R6
   \   00000F   8F83         MOV     DPH,R7
   \   000011   A3           INC     DPTR
   \   000012   A3           INC     DPTR
   \   000013   A3           INC     DPTR
   \   000014   A3           INC     DPTR
   \   000015   A3           INC     DPTR
   \   000016   A3           INC     DPTR
   \   000017   A3           INC     DPTR
   \   000018   A3           INC     DPTR
   \   000019   E0           MOVX    A,@DPTR
   \   00001A   6401         XRL     A,#0x1
   \   00001C   700D         JNZ     ??bindFindExisting_0
    485            {
    486              dstIdx = dstAddr->addr.shortAddr;
   \   00001E   8E82         MOV     DPL,R6
   \   000020   8F83         MOV     DPH,R7
   \   000022   E0           MOVX    A,@DPTR
   \   000023   F5..         MOV     ?V0 + 2,A
   \   000025   A3           INC     DPTR
   \   000026   E0           MOVX    A,@DPTR
   \   000027   F5..         MOV     ?V0 + 3,A
   \   000029   8011         SJMP    ??bindFindExisting_1
    487            }
    488            else
    489            {
    490              dstIdx = bindingAddrMgsHelperFind( dstAddr );
   \                     ??bindFindExisting_0:
   \   00002B                ; Setup parameters for call to function bindingAddrMgsHelperFind
   \   00002B   EE           MOV     A,R6
   \   00002C   FA           MOV     R2,A
   \   00002D   EF           MOV     A,R7
   \   00002E   FB           MOV     R3,A
   \   00002F   12....       LCALL   ??bindingAddrMgsHelperFind?relay
   \   000032   8A..         MOV     ?V0 + 6,R2
   \   000034   8B..         MOV     ?V0 + 7,R3
   \   000036   85....       MOV     ?V0 + 2,?V0 + 6
   \   000039   85....       MOV     ?V0 + 3,?V0 + 7
    491            }
    492          
    493            if ( dstIdx == INVALID_NODE_ADDR )
   \                     ??bindFindExisting_1:
   \   00003C   74FE         MOV     A,#-0x2
   \   00003E   65..         XRL     A,?V0 + 2
   \   000040   7004         JNZ     ??bindFindExisting_2
   \   000042   74FF         MOV     A,#-0x1
   \   000044   65..         XRL     A,?V0 + 3
   \                     ??bindFindExisting_2:
   \   000046   7007         JNZ     ??bindFindExisting_3
    494            {
    495              return ( (BindingEntry_t *)NULL );
   \   000048   7A00         MOV     R2,#0x0
   \   00004A   7B00         MOV     R3,#0x0
   \   00004C   02....       LJMP    ??bindFindExisting_4 & 0xFFFF
    496            }
    497          
    498            // Start at the beginning
    499            for ( x = 0; x < gNWK_MAX_BINDING_ENTRIES; x++ )
   \                     ??bindFindExisting_3:
   \   00004F   75..00       MOV     ?V0 + 0,#0x0
   \   000052   75..00       MOV     ?V0 + 1,#0x0
   \                     ??bindFindExisting_5:
   \   000055   90....       MOV     DPTR,#gNWK_MAX_BINDING_ENTRIES
   \   000058   E4           CLR     A
   \   000059   93           MOVC    A,@A+DPTR
   \   00005A   F8           MOV     R0,A
   \   00005B   7401         MOV     A,#0x1
   \   00005D   93           MOVC    A,@A+DPTR
   \   00005E   F9           MOV     R1,A
   \   00005F   C3           CLR     C
   \   000060   E5..         MOV     A,?V0 + 0
   \   000062   98           SUBB    A,R0
   \   000063   E5..         MOV     A,?V0 + 1
   \   000065   99           SUBB    A,R1
   \   000066   4003         JC      $+5
   \   000068   02....       LJMP    ??bindFindExisting_6 & 0xFFFF
    500            {
    501              if ( (BindingTable[x].srcEP == srcEpInt) )
   \   00006B   A8..         MOV     R0,?V0 + 0
   \   00006D   A9..         MOV     R1,?V0 + 1
   \   00006F   E8           MOV     A,R0
   \   000070   75F00E       MOV     B,#0xe
   \   000073   A4           MUL     AB
   \   000074   C8           XCH     A,R0
   \   000075   AAF0         MOV     R2,B
   \   000077   75F000       MOV     B,#0x0
   \   00007A   A4           MUL     AB
   \   00007B   2A           ADD     A,R2
   \   00007C   FA           MOV     R2,A
   \   00007D   75F00E       MOV     B,#0xe
   \   000080   E5..         MOV     A,?V0 + 1
   \   000082   A4           MUL     AB
   \   000083   2A           ADD     A,R2
   \   000084   F9           MOV     R1,A
   \   000085   74..         MOV     A,#BindingTable & 0xff
   \   000087   28           ADD     A,R0
   \   000088   F582         MOV     DPL,A
   \   00008A   74..         MOV     A,#(BindingTable >> 8) & 0xff
   \   00008C   39           ADDC    A,R1
   \   00008D   F583         MOV     DPH,A
   \   00008F   E0           MOVX    A,@DPTR
   \   000090   65..         XRL     A,?V0 + 4
   \   000092   6003         JZ      $+5
   \   000094   02....       LJMP    ??bindFindExisting_7 & 0xFFFF
    502              {
    503                if ( ((dstAddr->addrMode == AddrGroup)
    504                        && (BindingTable[x].dstGroupMode == DSTGROUPMODE_GROUP)
    505                        && (dstIdx == BindingTable[x].dstIdx))
    506                   || ((dstAddr->addrMode != AddrGroup)
    507                       && (BindingTable[x].dstGroupMode == DSTGROUPMODE_ADDR)
    508                       && (dstIdx == BindingTable[x].dstIdx) && (BindingTable[x].dstEP == dstEpInt)) )
   \   000097   8E82         MOV     DPL,R6
   \   000099   8F83         MOV     DPH,R7
   \   00009B   A3           INC     DPTR
   \   00009C   A3           INC     DPTR
   \   00009D   A3           INC     DPTR
   \   00009E   A3           INC     DPTR
   \   00009F   A3           INC     DPTR
   \   0000A0   A3           INC     DPTR
   \   0000A1   A3           INC     DPTR
   \   0000A2   A3           INC     DPTR
   \   0000A3   E0           MOVX    A,@DPTR
   \   0000A4   6401         XRL     A,#0x1
   \   0000A6   705B         JNZ     ??bindFindExisting_8
   \   0000A8   A8..         MOV     R0,?V0 + 0
   \   0000AA   A9..         MOV     R1,?V0 + 1
   \   0000AC   E8           MOV     A,R0
   \   0000AD   75F00E       MOV     B,#0xe
   \   0000B0   A4           MUL     AB
   \   0000B1   C8           XCH     A,R0
   \   0000B2   AAF0         MOV     R2,B
   \   0000B4   75F000       MOV     B,#0x0
   \   0000B7   A4           MUL     AB
   \   0000B8   2A           ADD     A,R2
   \   0000B9   FA           MOV     R2,A
   \   0000BA   75F00E       MOV     B,#0xe
   \   0000BD   E5..         MOV     A,?V0 + 1
   \   0000BF   A4           MUL     AB
   \   0000C0   2A           ADD     A,R2
   \   0000C1   F9           MOV     R1,A
   \   0000C2   74..         MOV     A,#(BindingTable + 1) & 0xff
   \   0000C4   28           ADD     A,R0
   \   0000C5   F582         MOV     DPL,A
   \   0000C7   74..         MOV     A,#((BindingTable + 1) >> 8) & 0xff
   \   0000C9   39           ADDC    A,R1
   \   0000CA   F583         MOV     DPH,A
   \   0000CC   E0           MOVX    A,@DPTR
   \   0000CD   6401         XRL     A,#0x1
   \   0000CF   7032         JNZ     ??bindFindExisting_8
   \   0000D1   A8..         MOV     R0,?V0 + 0
   \   0000D3   A9..         MOV     R1,?V0 + 1
   \   0000D5   E8           MOV     A,R0
   \   0000D6   75F00E       MOV     B,#0xe
   \   0000D9   A4           MUL     AB
   \   0000DA   C8           XCH     A,R0
   \   0000DB   AAF0         MOV     R2,B
   \   0000DD   75F000       MOV     B,#0x0
   \   0000E0   A4           MUL     AB
   \   0000E1   2A           ADD     A,R2
   \   0000E2   FA           MOV     R2,A
   \   0000E3   75F00E       MOV     B,#0xe
   \   0000E6   E5..         MOV     A,?V0 + 1
   \   0000E8   A4           MUL     AB
   \   0000E9   2A           ADD     A,R2
   \   0000EA   F9           MOV     R1,A
   \   0000EB   74..         MOV     A,#(BindingTable + 2) & 0xff
   \   0000ED   28           ADD     A,R0
   \   0000EE   F582         MOV     DPL,A
   \   0000F0   74..         MOV     A,#((BindingTable + 2) >> 8) & 0xff
   \   0000F2   39           ADDC    A,R1
   \   0000F3   F583         MOV     DPH,A
   \   0000F5   E0           MOVX    A,@DPTR
   \   0000F6   65..         XRL     A,?V0 + 2
   \   0000F8   7004         JNZ     ??bindFindExisting_9
   \   0000FA   A3           INC     DPTR
   \   0000FB   E0           MOVX    A,@DPTR
   \   0000FC   65..         XRL     A,?V0 + 3
   \                     ??bindFindExisting_9:
   \   0000FE   7003         JNZ     $+5
   \   000100   02....       LJMP    ??bindFindExisting_10 & 0xFFFF
   \                     ??bindFindExisting_8:
   \   000103   8E82         MOV     DPL,R6
   \   000105   8F83         MOV     DPH,R7
   \   000107   A3           INC     DPTR
   \   000108   A3           INC     DPTR
   \   000109   A3           INC     DPTR
   \   00010A   A3           INC     DPTR
   \   00010B   A3           INC     DPTR
   \   00010C   A3           INC     DPTR
   \   00010D   A3           INC     DPTR
   \   00010E   A3           INC     DPTR
   \   00010F   E0           MOVX    A,@DPTR
   \   000110   6401         XRL     A,#0x1
   \   000112   7003         JNZ     $+5
   \   000114   02....       LJMP    ??bindFindExisting_7 & 0xFFFF
   \   000117   A8..         MOV     R0,?V0 + 0
   \   000119   A9..         MOV     R1,?V0 + 1
   \   00011B   E8           MOV     A,R0
   \   00011C   75F00E       MOV     B,#0xe
   \   00011F   A4           MUL     AB
   \   000120   C8           XCH     A,R0
   \   000121   AAF0         MOV     R2,B
   \   000123   75F000       MOV     B,#0x0
   \   000126   A4           MUL     AB
   \   000127   2A           ADD     A,R2
   \   000128   FA           MOV     R2,A
   \   000129   75F00E       MOV     B,#0xe
   \   00012C   E5..         MOV     A,?V0 + 1
   \   00012E   A4           MUL     AB
   \   00012F   2A           ADD     A,R2
   \   000130   F9           MOV     R1,A
   \   000131   74..         MOV     A,#(BindingTable + 1) & 0xff
   \   000133   28           ADD     A,R0
   \   000134   F582         MOV     DPL,A
   \   000136   74..         MOV     A,#((BindingTable + 1) >> 8) & 0xff
   \   000138   39           ADDC    A,R1
   \   000139   F583         MOV     DPH,A
   \   00013B   E0           MOVX    A,@DPTR
   \   00013C   707D         JNZ     ??bindFindExisting_7
   \   00013E   A8..         MOV     R0,?V0 + 0
   \   000140   A9..         MOV     R1,?V0 + 1
   \   000142   E8           MOV     A,R0
   \   000143   75F00E       MOV     B,#0xe
   \   000146   A4           MUL     AB
   \   000147   C8           XCH     A,R0
   \   000148   AAF0         MOV     R2,B
   \   00014A   75F000       MOV     B,#0x0
   \   00014D   A4           MUL     AB
   \   00014E   2A           ADD     A,R2
   \   00014F   FA           MOV     R2,A
   \   000150   75F00E       MOV     B,#0xe
   \   000153   E5..         MOV     A,?V0 + 1
   \   000155   A4           MUL     AB
   \   000156   2A           ADD     A,R2
   \   000157   F9           MOV     R1,A
   \   000158   74..         MOV     A,#(BindingTable + 2) & 0xff
   \   00015A   28           ADD     A,R0
   \   00015B   F582         MOV     DPL,A
   \   00015D   74..         MOV     A,#((BindingTable + 2) >> 8) & 0xff
   \   00015F   39           ADDC    A,R1
   \   000160   F583         MOV     DPH,A
   \   000162   E0           MOVX    A,@DPTR
   \   000163   65..         XRL     A,?V0 + 2
   \   000165   7004         JNZ     ??bindFindExisting_11
   \   000167   A3           INC     DPTR
   \   000168   E0           MOVX    A,@DPTR
   \   000169   65..         XRL     A,?V0 + 3
   \                     ??bindFindExisting_11:
   \   00016B   704E         JNZ     ??bindFindExisting_7
   \   00016D   A8..         MOV     R0,?V0 + 0
   \   00016F   A9..         MOV     R1,?V0 + 1
   \   000171   E8           MOV     A,R0
   \   000172   75F00E       MOV     B,#0xe
   \   000175   A4           MUL     AB
   \   000176   C8           XCH     A,R0
   \   000177   AAF0         MOV     R2,B
   \   000179   75F000       MOV     B,#0x0
   \   00017C   A4           MUL     AB
   \   00017D   2A           ADD     A,R2
   \   00017E   FA           MOV     R2,A
   \   00017F   75F00E       MOV     B,#0xe
   \   000182   E5..         MOV     A,?V0 + 1
   \   000184   A4           MUL     AB
   \   000185   2A           ADD     A,R2
   \   000186   F9           MOV     R1,A
   \   000187   74..         MOV     A,#(BindingTable + 4) & 0xff
   \   000189   28           ADD     A,R0
   \   00018A   F582         MOV     DPL,A
   \   00018C   74..         MOV     A,#((BindingTable + 4) >> 8) & 0xff
   \   00018E   39           ADDC    A,R1
   \   00018F   F583         MOV     DPH,A
   \   000191   E0           MOVX    A,@DPTR
   \   000192   65..         XRL     A,?V0 + 5
   \   000194   7025         JNZ     ??bindFindExisting_7
    509                {
    510                  return ( &BindingTable[x] );
   \                     ??bindFindExisting_10:
   \   000196   E5..         MOV     A,?V0 + 0
   \   000198   75F00E       MOV     B,#0xe
   \   00019B   A4           MUL     AB
   \   00019C   C5..         XCH     A,?V0 + 0
   \   00019E   A8F0         MOV     R0,B
   \   0001A0   75F000       MOV     B,#0x0
   \   0001A3   A4           MUL     AB
   \   0001A4   28           ADD     A,R0
   \   0001A5   F8           MOV     R0,A
   \   0001A6   75F00E       MOV     B,#0xe
   \   0001A9   E5..         MOV     A,?V0 + 1
   \   0001AB   A4           MUL     AB
   \   0001AC   28           ADD     A,R0
   \   0001AD   F5..         MOV     ?V0 + 1,A
   \   0001AF   74..         MOV     A,#BindingTable & 0xff
   \   0001B1   25..         ADD     A,?V0 + 0
   \   0001B3   FA           MOV     R2,A
   \   0001B4   74..         MOV     A,#(BindingTable >> 8) & 0xff
   \   0001B6   35..         ADDC    A,?V0 + 1
   \   0001B8   FB           MOV     R3,A
   \   0001B9   8013         SJMP    ??bindFindExisting_4
    511                }
    512              }
    513            }
   \                     ??bindFindExisting_7:
   \   0001BB   E5..         MOV     A,?V0 + 0
   \   0001BD   2401         ADD     A,#0x1
   \   0001BF   F5..         MOV     ?V0 + 0,A
   \   0001C1   E5..         MOV     A,?V0 + 1
   \   0001C3   3400         ADDC    A,#0x0
   \   0001C5   F5..         MOV     ?V0 + 1,A
   \   0001C7   02....       LJMP    ??bindFindExisting_5 & 0xFFFF
    514          
    515            return ( (BindingEntry_t *)NULL );
   \                     ??bindFindExisting_6:
   \   0001CA   7A00         MOV     R2,#0x0
   \   0001CC   7B00         MOV     R3,#0x0
   \                     ??bindFindExisting_4:
   \   0001CE   7F08         MOV     R7,#0x8
   \   0001D0   02....       LJMP    ?BANKED_LEAVE_XDATA
    516          }
    517          
    518          /*********************************************************************
    519           * @fn       bindRemoveDev()
    520           *
    521           * @brief
    522           *
    523           *   Remove all bind(s) entries associated to a device address (destination).
    524           *   Updates binding table.
    525           *
    526           * @param   Addr - address of device to be removed from Binding Table
    527           *
    528           * @return  none
    529           */

   \                                 In  segment BANKED_CODE, align 1, keep-with-next
    530          void bindRemoveDev( zAddrType_t *Addr )
   \                     bindRemoveDev:
    531          {
   \   000000   74F2         MOV     A,#-0xe
   \   000002   12....       LCALL   ?BANKED_ENTER_XDATA
   \   000005                ; Saved register size: 14
   \   000005                ; Auto size: 0
   \   000005   8A..         MOV     ?V0 + 0,R2
   \   000007   8B..         MOV     ?V0 + 1,R3
    532            uint16 idx;
    533            uint16 x;
    534          
    535            if ( Addr->addrMode == AddrGroup )
   \   000009   85..82       MOV     DPL,?V0 + 0
   \   00000C   85..83       MOV     DPH,?V0 + 1
   \   00000F   A3           INC     DPTR
   \   000010   A3           INC     DPTR
   \   000011   A3           INC     DPTR
   \   000012   A3           INC     DPTR
   \   000013   A3           INC     DPTR
   \   000014   A3           INC     DPTR
   \   000015   A3           INC     DPTR
   \   000016   A3           INC     DPTR
   \   000017   E0           MOVX    A,@DPTR
   \   000018   6401         XRL     A,#0x1
   \   00001A   700F         JNZ     ??bindRemoveDev_0
    536            {
    537              idx = Addr->addr.shortAddr;
   \   00001C   85..82       MOV     DPL,?V0 + 0
   \   00001F   85..83       MOV     DPH,?V0 + 1
   \   000022   E0           MOVX    A,@DPTR
   \   000023   F5..         MOV     ?V0 + 2,A
   \   000025   A3           INC     DPTR
   \   000026   E0           MOVX    A,@DPTR
   \   000027   F5..         MOV     ?V0 + 3,A
   \   000029   8011         SJMP    ??bindRemoveDev_1
    538            }
    539            else
    540            {
    541              idx = bindingAddrMgsHelperFind( Addr );
   \                     ??bindRemoveDev_0:
   \   00002B                ; Setup parameters for call to function bindingAddrMgsHelperFind
   \   00002B   AA..         MOV     R2,?V0 + 0
   \   00002D   AB..         MOV     R3,?V0 + 1
   \   00002F   12....       LCALL   ??bindingAddrMgsHelperFind?relay
   \   000032   8A..         MOV     ?V0 + 4,R2
   \   000034   8B..         MOV     ?V0 + 5,R3
   \   000036   85....       MOV     ?V0 + 2,?V0 + 4
   \   000039   85....       MOV     ?V0 + 3,?V0 + 5
    542            }
    543          
    544            if ( idx == INVALID_NODE_ADDR )
   \                     ??bindRemoveDev_1:
   \   00003C   74FE         MOV     A,#-0x2
   \   00003E   65..         XRL     A,?V0 + 2
   \   000040   7004         JNZ     ??bindRemoveDev_2
   \   000042   74FF         MOV     A,#-0x1
   \   000044   65..         XRL     A,?V0 + 3
   \                     ??bindRemoveDev_2:
   \   000046   7003         JNZ     $+5
   \   000048   02....       LJMP    ??bindRemoveDev_3 & 0xFFFF
    545            {
    546              return;
    547            }
    548          
    549            // Removes all the entries that match the destination Address/Index
    550            for ( x = 0; x < gNWK_MAX_BINDING_ENTRIES; x++ )
   \   00004B   7E00         MOV     R6,#0x0
   \   00004D   7F00         MOV     R7,#0x0
   \                     ??bindRemoveDev_4:
   \   00004F   90....       MOV     DPTR,#gNWK_MAX_BINDING_ENTRIES
   \   000052   E4           CLR     A
   \   000053   93           MOVC    A,@A+DPTR
   \   000054   F8           MOV     R0,A
   \   000055   7401         MOV     A,#0x1
   \   000057   93           MOVC    A,@A+DPTR
   \   000058   F9           MOV     R1,A
   \   000059   C3           CLR     C
   \   00005A   EE           MOV     A,R6
   \   00005B   98           SUBB    A,R0
   \   00005C   EF           MOV     A,R7
   \   00005D   99           SUBB    A,R1
   \   00005E   4003         JC      $+5
   \   000060   02....       LJMP    ??bindRemoveDev_3 & 0xFFFF
    551            {
    552              if ( ( (Addr->addrMode == AddrGroup) && (BindingTable[x].dstGroupMode == DSTGROUPMODE_GROUP)
    553                                                   && (BindingTable[x].dstIdx == idx) ) ||
    554                   ( (Addr->addrMode != AddrGroup) && (BindingTable[x].dstGroupMode == DSTGROUPMODE_ADDR)
    555                                                   && (BindingTable[x].dstIdx == idx) ) )
   \   000063   85..82       MOV     DPL,?V0 + 0
   \   000066   85..83       MOV     DPH,?V0 + 1
   \   000069   A3           INC     DPTR
   \   00006A   A3           INC     DPTR
   \   00006B   A3           INC     DPTR
   \   00006C   A3           INC     DPTR
   \   00006D   A3           INC     DPTR
   \   00006E   A3           INC     DPTR
   \   00006F   A3           INC     DPTR
   \   000070   A3           INC     DPTR
   \   000071   E0           MOVX    A,@DPTR
   \   000072   6401         XRL     A,#0x1
   \   000074   7056         JNZ     ??bindRemoveDev_5
   \   000076   EE           MOV     A,R6
   \   000077   F8           MOV     R0,A
   \   000078   EF           MOV     A,R7
   \   000079   F9           MOV     R1,A
   \   00007A   E8           MOV     A,R0
   \   00007B   75F00E       MOV     B,#0xe
   \   00007E   A4           MUL     AB
   \   00007F   C8           XCH     A,R0
   \   000080   AAF0         MOV     R2,B
   \   000082   75F000       MOV     B,#0x0
   \   000085   A4           MUL     AB
   \   000086   2A           ADD     A,R2
   \   000087   FA           MOV     R2,A
   \   000088   75F00E       MOV     B,#0xe
   \   00008B   E9           MOV     A,R1
   \   00008C   A4           MUL     AB
   \   00008D   2A           ADD     A,R2
   \   00008E   F9           MOV     R1,A
   \   00008F   74..         MOV     A,#(BindingTable + 1) & 0xff
   \   000091   28           ADD     A,R0
   \   000092   F582         MOV     DPL,A
   \   000094   74..         MOV     A,#((BindingTable + 1) >> 8) & 0xff
   \   000096   39           ADDC    A,R1
   \   000097   F583         MOV     DPH,A
   \   000099   E0           MOVX    A,@DPTR
   \   00009A   6401         XRL     A,#0x1
   \   00009C   702E         JNZ     ??bindRemoveDev_5
   \   00009E   EE           MOV     A,R6
   \   00009F   F8           MOV     R0,A
   \   0000A0   EF           MOV     A,R7
   \   0000A1   F9           MOV     R1,A
   \   0000A2   E8           MOV     A,R0
   \   0000A3   75F00E       MOV     B,#0xe
   \   0000A6   A4           MUL     AB
   \   0000A7   C8           XCH     A,R0
   \   0000A8   AAF0         MOV     R2,B
   \   0000AA   75F000       MOV     B,#0x0
   \   0000AD   A4           MUL     AB
   \   0000AE   2A           ADD     A,R2
   \   0000AF   FA           MOV     R2,A
   \   0000B0   75F00E       MOV     B,#0xe
   \   0000B3   E9           MOV     A,R1
   \   0000B4   A4           MUL     AB
   \   0000B5   2A           ADD     A,R2
   \   0000B6   F9           MOV     R1,A
   \   0000B7   74..         MOV     A,#(BindingTable + 2) & 0xff
   \   0000B9   28           ADD     A,R0
   \   0000BA   F582         MOV     DPL,A
   \   0000BC   74..         MOV     A,#((BindingTable + 2) >> 8) & 0xff
   \   0000BE   39           ADDC    A,R1
   \   0000BF   F583         MOV     DPH,A
   \   0000C1   E0           MOVX    A,@DPTR
   \   0000C2   65..         XRL     A,?V0 + 2
   \   0000C4   7004         JNZ     ??bindRemoveDev_6
   \   0000C6   A3           INC     DPTR
   \   0000C7   E0           MOVX    A,@DPTR
   \   0000C8   65..         XRL     A,?V0 + 3
   \                     ??bindRemoveDev_6:
   \   0000CA   6067         JZ      ??bindRemoveDev_7
   \                     ??bindRemoveDev_5:
   \   0000CC   85..82       MOV     DPL,?V0 + 0
   \   0000CF   85..83       MOV     DPH,?V0 + 1
   \   0000D2   A3           INC     DPTR
   \   0000D3   A3           INC     DPTR
   \   0000D4   A3           INC     DPTR
   \   0000D5   A3           INC     DPTR
   \   0000D6   A3           INC     DPTR
   \   0000D7   A3           INC     DPTR
   \   0000D8   A3           INC     DPTR
   \   0000D9   A3           INC     DPTR
   \   0000DA   E0           MOVX    A,@DPTR
   \   0000DB   6401         XRL     A,#0x1
   \   0000DD   6079         JZ      ??bindRemoveDev_8
   \   0000DF   EE           MOV     A,R6
   \   0000E0   F8           MOV     R0,A
   \   0000E1   EF           MOV     A,R7
   \   0000E2   F9           MOV     R1,A
   \   0000E3   E8           MOV     A,R0
   \   0000E4   75F00E       MOV     B,#0xe
   \   0000E7   A4           MUL     AB
   \   0000E8   C8           XCH     A,R0
   \   0000E9   AAF0         MOV     R2,B
   \   0000EB   75F000       MOV     B,#0x0
   \   0000EE   A4           MUL     AB
   \   0000EF   2A           ADD     A,R2
   \   0000F0   FA           MOV     R2,A
   \   0000F1   75F00E       MOV     B,#0xe
   \   0000F4   E9           MOV     A,R1
   \   0000F5   A4           MUL     AB
   \   0000F6   2A           ADD     A,R2
   \   0000F7   F9           MOV     R1,A
   \   0000F8   74..         MOV     A,#(BindingTable + 1) & 0xff
   \   0000FA   28           ADD     A,R0
   \   0000FB   F582         MOV     DPL,A
   \   0000FD   74..         MOV     A,#((BindingTable + 1) >> 8) & 0xff
   \   0000FF   39           ADDC    A,R1
   \   000100   F583         MOV     DPH,A
   \   000102   E0           MOVX    A,@DPTR
   \   000103   7053         JNZ     ??bindRemoveDev_8
   \   000105   EE           MOV     A,R6
   \   000106   F8           MOV     R0,A
   \   000107   EF           MOV     A,R7
   \   000108   F9           MOV     R1,A
   \   000109   E8           MOV     A,R0
   \   00010A   75F00E       MOV     B,#0xe
   \   00010D   A4           MUL     AB
   \   00010E   C8           XCH     A,R0
   \   00010F   AAF0         MOV     R2,B
   \   000111   75F000       MOV     B,#0x0
   \   000114   A4           MUL     AB
   \   000115   2A           ADD     A,R2
   \   000116   FA           MOV     R2,A
   \   000117   75F00E       MOV     B,#0xe
   \   00011A   E9           MOV     A,R1
   \   00011B   A4           MUL     AB
   \   00011C   2A           ADD     A,R2
   \   00011D   F9           MOV     R1,A
   \   00011E   74..         MOV     A,#(BindingTable + 2) & 0xff
   \   000120   28           ADD     A,R0
   \   000121   F582         MOV     DPL,A
   \   000123   74..         MOV     A,#((BindingTable + 2) >> 8) & 0xff
   \   000125   39           ADDC    A,R1
   \   000126   F583         MOV     DPH,A
   \   000128   E0           MOVX    A,@DPTR
   \   000129   65..         XRL     A,?V0 + 2
   \   00012B   7004         JNZ     ??bindRemoveDev_9
   \   00012D   A3           INC     DPTR
   \   00012E   E0           MOVX    A,@DPTR
   \   00012F   65..         XRL     A,?V0 + 3
   \                     ??bindRemoveDev_9:
   \   000131   7025         JNZ     ??bindRemoveDev_8
    556              {
    557                bindRemoveEntry( &BindingTable[x] );
   \                     ??bindRemoveDev_7:
   \   000133                ; Setup parameters for call to function bindRemoveEntry
   \   000133   EE           MOV     A,R6
   \   000134   F8           MOV     R0,A
   \   000135   EF           MOV     A,R7
   \   000136   F9           MOV     R1,A
   \   000137   E8           MOV     A,R0
   \   000138   75F00E       MOV     B,#0xe
   \   00013B   A4           MUL     AB
   \   00013C   C8           XCH     A,R0
   \   00013D   AAF0         MOV     R2,B
   \   00013F   75F000       MOV     B,#0x0
   \   000142   A4           MUL     AB
   \   000143   2A           ADD     A,R2
   \   000144   FA           MOV     R2,A
   \   000145   75F00E       MOV     B,#0xe
   \   000148   E9           MOV     A,R1
   \   000149   A4           MUL     AB
   \   00014A   2A           ADD     A,R2
   \   00014B   F9           MOV     R1,A
   \   00014C   74..         MOV     A,#BindingTable & 0xff
   \   00014E   28           ADD     A,R0
   \   00014F   FA           MOV     R2,A
   \   000150   74..         MOV     A,#(BindingTable >> 8) & 0xff
   \   000152   39           ADDC    A,R1
   \   000153   FB           MOV     R3,A
   \   000154   12....       LCALL   ??bindRemoveEntry?relay
   \   000157   E9           MOV     A,R1
    558              }
    559            }
   \                     ??bindRemoveDev_8:
   \   000158   EE           MOV     A,R6
   \   000159   2401         ADD     A,#0x1
   \   00015B   FE           MOV     R6,A
   \   00015C   EF           MOV     A,R7
   \   00015D   3400         ADDC    A,#0x0
   \   00015F   FF           MOV     R7,A
   \   000160   02....       LJMP    ??bindRemoveDev_4 & 0xFFFF
    560          }
   \                     ??bindRemoveDev_3:
   \   000163   7F06         MOV     R7,#0x6
   \   000165   02....       LJMP    ?BANKED_LEAVE_XDATA
    561          
    562          /*********************************************************************
    563           * @fn       bindRemoveSrcDev()
    564           *
    565           * @brief
    566           *
    567           *   Remove binds(s) associated to device address (source).
    568           *   Updates binding table.
    569           *
    570           * @param   srcAddr - address of device
    571           * @param   ep - endpoint to remove, 0xFF is all endpoints
    572           *
    573           * @return  none
    574           */

   \                                 In  segment BANKED_CODE, align 1, keep-with-next
    575          void bindRemoveSrcDev( uint8 ep )
   \                     bindRemoveSrcDev:
    576          {
   \   000000   74F7         MOV     A,#-0x9
   \   000002   12....       LCALL   ?BANKED_ENTER_XDATA
   \   000005                ; Saved register size: 9
   \   000005                ; Auto size: 0
   \   000005   89..         MOV     ?V0 + 0,R1
    577            uint16 x;
    578          
    579            for ( x = 0; x < gNWK_MAX_BINDING_ENTRIES; x++ )
   \   000007   7E00         MOV     R6,#0x0
   \   000009   7F00         MOV     R7,#0x0
   \                     ??bindRemoveSrcDev_0:
   \   00000B   90....       MOV     DPTR,#gNWK_MAX_BINDING_ENTRIES
   \   00000E   E4           CLR     A
   \   00000F   93           MOVC    A,@A+DPTR
   \   000010   F8           MOV     R0,A
   \   000011   7401         MOV     A,#0x1
   \   000013   93           MOVC    A,@A+DPTR
   \   000014   F9           MOV     R1,A
   \   000015   C3           CLR     C
   \   000016   EE           MOV     A,R6
   \   000017   98           SUBB    A,R0
   \   000018   EF           MOV     A,R7
   \   000019   99           SUBB    A,R1
   \   00001A   505D         JNC     ??bindRemoveSrcDev_1
    580            {
    581              if ( (ep == 0xFF) || (ep == BindingTable[x].srcEP) )
   \   00001C   74FF         MOV     A,#-0x1
   \   00001E   65..         XRL     A,?V0 + 0
   \   000020   6028         JZ      ??bindRemoveSrcDev_2
   \   000022   EE           MOV     A,R6
   \   000023   F8           MOV     R0,A
   \   000024   EF           MOV     A,R7
   \   000025   F9           MOV     R1,A
   \   000026   E8           MOV     A,R0
   \   000027   75F00E       MOV     B,#0xe
   \   00002A   A4           MUL     AB
   \   00002B   C8           XCH     A,R0
   \   00002C   AAF0         MOV     R2,B
   \   00002E   75F000       MOV     B,#0x0
   \   000031   A4           MUL     AB
   \   000032   2A           ADD     A,R2
   \   000033   FA           MOV     R2,A
   \   000034   75F00E       MOV     B,#0xe
   \   000037   E9           MOV     A,R1
   \   000038   A4           MUL     AB
   \   000039   2A           ADD     A,R2
   \   00003A   F9           MOV     R1,A
   \   00003B   74..         MOV     A,#BindingTable & 0xff
   \   00003D   28           ADD     A,R0
   \   00003E   F582         MOV     DPL,A
   \   000040   74..         MOV     A,#(BindingTable >> 8) & 0xff
   \   000042   39           ADDC    A,R1
   \   000043   F583         MOV     DPH,A
   \   000045   E0           MOVX    A,@DPTR
   \   000046   65..         XRL     A,?V0 + 0
   \   000048   7025         JNZ     ??bindRemoveSrcDev_3
    582              {
    583                bindRemoveEntry( &BindingTable[x] );
   \                     ??bindRemoveSrcDev_2:
   \   00004A                ; Setup parameters for call to function bindRemoveEntry
   \   00004A   EE           MOV     A,R6
   \   00004B   F8           MOV     R0,A
   \   00004C   EF           MOV     A,R7
   \   00004D   F9           MOV     R1,A
   \   00004E   E8           MOV     A,R0
   \   00004F   75F00E       MOV     B,#0xe
   \   000052   A4           MUL     AB
   \   000053   C8           XCH     A,R0
   \   000054   AAF0         MOV     R2,B
   \   000056   75F000       MOV     B,#0x0
   \   000059   A4           MUL     AB
   \   00005A   2A           ADD     A,R2
   \   00005B   FA           MOV     R2,A
   \   00005C   75F00E       MOV     B,#0xe
   \   00005F   E9           MOV     A,R1
   \   000060   A4           MUL     AB
   \   000061   2A           ADD     A,R2
   \   000062   F9           MOV     R1,A
   \   000063   74..         MOV     A,#BindingTable & 0xff
   \   000065   28           ADD     A,R0
   \   000066   FA           MOV     R2,A
   \   000067   74..         MOV     A,#(BindingTable >> 8) & 0xff
   \   000069   39           ADDC    A,R1
   \   00006A   FB           MOV     R3,A
   \   00006B   12....       LCALL   ??bindRemoveEntry?relay
   \   00006E   E9           MOV     A,R1
    584              }
    585            }
   \                     ??bindRemoveSrcDev_3:
   \   00006F   EE           MOV     A,R6
   \   000070   2401         ADD     A,#0x1
   \   000072   FE           MOV     R6,A
   \   000073   EF           MOV     A,R7
   \   000074   3400         ADDC    A,#0x0
   \   000076   FF           MOV     R7,A
   \   000077   8092         SJMP    ??bindRemoveSrcDev_0
    586          }
   \                     ??bindRemoveSrcDev_1:
   \   000079   7F01         MOV     R7,#0x1
   \   00007B   02....       LJMP    ?BANKED_LEAVE_XDATA
    587          
    588          /*********************************************************************
    589           * @fn          bindNumBoundTo
    590           *
    591           * @brief       Calculate the number items this device is bound to.
    592           *              When srcMode is set to TRUE, discard what value devAddr
    593           *              has, it returns number count bound to the local dev.
    594           *
    595           * @param       devAddr - device Address
    596           * @param       devEP - endpoint
    597           * @param       srcMode - TRUE - assume devHandle is a source address
    598           *                        FALSE - destination address
    599           *
    600           * @return      status
    601           */

   \                                 In  segment BANKED_CODE, align 1, keep-with-next
    602          byte bindNumBoundTo( zAddrType_t *devAddr, byte devEpInt, byte srcMode )
   \                     bindNumBoundTo:
    603          {
   \   000000   74EC         MOV     A,#-0x14
   \   000002   12....       LCALL   ?BANKED_ENTER_XDATA
   \   000005                ; Saved register size: 20
   \   000005                ; Auto size: 0
   \   000005   EA           MOV     A,R2
   \   000006   FE           MOV     R6,A
   \   000007   EB           MOV     A,R3
   \   000008   FF           MOV     R7,A
   \   000009   89..         MOV     ?V0 + 7,R1
   \   00000B   8C..         MOV     ?V0 + 8,R4
    604            BindingEntry_t *pBind;
    605            uint16 idx;
    606            byte   num;
    607            uint16 x;
    608          
    609            // Init
    610            num = 0;
   \   00000D   75..00       MOV     ?V0 + 6,#0x0
    611          
    612            if ( devAddr->addrMode == AddrGroup )
   \   000010   8E82         MOV     DPL,R6
   \   000012   8F83         MOV     DPH,R7
   \   000014   A3           INC     DPTR
   \   000015   A3           INC     DPTR
   \   000016   A3           INC     DPTR
   \   000017   A3           INC     DPTR
   \   000018   A3           INC     DPTR
   \   000019   A3           INC     DPTR
   \   00001A   A3           INC     DPTR
   \   00001B   A3           INC     DPTR
   \   00001C   E0           MOVX    A,@DPTR
   \   00001D   6401         XRL     A,#0x1
   \   00001F   700D         JNZ     ??bindNumBoundTo_0
    613            {
    614              idx = devAddr->addr.shortAddr;
   \   000021   8E82         MOV     DPL,R6
   \   000023   8F83         MOV     DPH,R7
   \   000025   E0           MOVX    A,@DPTR
   \   000026   F5..         MOV     ?V0 + 4,A
   \   000028   A3           INC     DPTR
   \   000029   E0           MOVX    A,@DPTR
   \   00002A   F5..         MOV     ?V0 + 5,A
   \   00002C   8011         SJMP    ??bindNumBoundTo_1
    615            }
    616            else
    617            {
    618              idx = bindingAddrMgsHelperFind( devAddr );
   \                     ??bindNumBoundTo_0:
   \   00002E                ; Setup parameters for call to function bindingAddrMgsHelperFind
   \   00002E   EE           MOV     A,R6
   \   00002F   FA           MOV     R2,A
   \   000030   EF           MOV     A,R7
   \   000031   FB           MOV     R3,A
   \   000032   12....       LCALL   ??bindingAddrMgsHelperFind?relay
   \   000035   8A..         MOV     ?V0 + 10,R2
   \   000037   8B..         MOV     ?V0 + 11,R3
   \   000039   85....       MOV     ?V0 + 4,?V0 + 10
   \   00003C   85....       MOV     ?V0 + 5,?V0 + 11
    619            }
    620          
    621            for ( x = 0; x < gNWK_MAX_BINDING_ENTRIES; x++ )
   \                     ??bindNumBoundTo_1:
   \   00003F   75..00       MOV     ?V0 + 0,#0x0
   \   000042   75..00       MOV     ?V0 + 1,#0x0
   \                     ??bindNumBoundTo_2:
   \   000045   90....       MOV     DPTR,#gNWK_MAX_BINDING_ENTRIES
   \   000048   E4           CLR     A
   \   000049   93           MOVC    A,@A+DPTR
   \   00004A   F8           MOV     R0,A
   \   00004B   7401         MOV     A,#0x1
   \   00004D   93           MOVC    A,@A+DPTR
   \   00004E   F9           MOV     R1,A
   \   00004F   C3           CLR     C
   \   000050   E5..         MOV     A,?V0 + 0
   \   000052   98           SUBB    A,R0
   \   000053   E5..         MOV     A,?V0 + 1
   \   000055   99           SUBB    A,R1
   \   000056   4003         JC      $+5
   \   000058   02....       LJMP    ??bindNumBoundTo_3 & 0xFFFF
    622            {
    623              pBind = &BindingTable[x];
   \   00005B   A8..         MOV     R0,?V0 + 0
   \   00005D   A9..         MOV     R1,?V0 + 1
   \   00005F   E8           MOV     A,R0
   \   000060   75F00E       MOV     B,#0xe
   \   000063   A4           MUL     AB
   \   000064   C8           XCH     A,R0
   \   000065   AAF0         MOV     R2,B
   \   000067   75F000       MOV     B,#0x0
   \   00006A   A4           MUL     AB
   \   00006B   2A           ADD     A,R2
   \   00006C   FA           MOV     R2,A
   \   00006D   75F00E       MOV     B,#0xe
   \   000070   E5..         MOV     A,?V0 + 1
   \   000072   A4           MUL     AB
   \   000073   2A           ADD     A,R2
   \   000074   F9           MOV     R1,A
   \   000075   74..         MOV     A,#BindingTable & 0xff
   \   000077   28           ADD     A,R0
   \   000078   F8           MOV     R0,A
   \   000079   74..         MOV     A,#(BindingTable >> 8) & 0xff
   \   00007B   39           ADDC    A,R1
   \   00007C   F9           MOV     R1,A
   \   00007D   88..         MOV     ?V0 + 2,R0
   \   00007F   89..         MOV     ?V0 + 3,R1
    624              if ( srcMode )
   \   000081   E5..         MOV     A,?V0 + 8
   \   000083   600F         JZ      ??bindNumBoundTo_4
    625              {
    626                if ( pBind->srcEP == devEpInt )
   \   000085   85..82       MOV     DPL,?V0 + 2
   \   000088   85..83       MOV     DPH,?V0 + 3
   \   00008B   E0           MOVX    A,@DPTR
   \   00008C   65..         XRL     A,?V0 + 7
   \   00008E   7073         JNZ     ??bindNumBoundTo_5
    627                {
    628                  num++;
   \   000090   05..         INC     ?V0 + 6
   \   000092   806F         SJMP    ??bindNumBoundTo_5
    629                }
    630              }
    631              else
    632              {
    633                if ( ((devAddr->addrMode == AddrGroup)
    634                        && (pBind->dstGroupMode == DSTGROUPMODE_GROUP) && (pBind->dstIdx == idx))
    635                    || ((devAddr->addrMode != AddrGroup) && (pBind->dstGroupMode == DSTGROUPMODE_ADDR)
    636                                          && (pBind->dstIdx == idx) && (pBind->dstEP == devEpInt)) )
   \                     ??bindNumBoundTo_4:
   \   000094   8E82         MOV     DPL,R6
   \   000096   8F83         MOV     DPH,R7
   \   000098   A3           INC     DPTR
   \   000099   A3           INC     DPTR
   \   00009A   A3           INC     DPTR
   \   00009B   A3           INC     DPTR
   \   00009C   A3           INC     DPTR
   \   00009D   A3           INC     DPTR
   \   00009E   A3           INC     DPTR
   \   00009F   A3           INC     DPTR
   \   0000A0   E0           MOVX    A,@DPTR
   \   0000A1   6401         XRL     A,#0x1
   \   0000A3   701F         JNZ     ??bindNumBoundTo_6
   \   0000A5   85..82       MOV     DPL,?V0 + 2
   \   0000A8   85..83       MOV     DPH,?V0 + 3
   \   0000AB   A3           INC     DPTR
   \   0000AC   E0           MOVX    A,@DPTR
   \   0000AD   6401         XRL     A,#0x1
   \   0000AF   7013         JNZ     ??bindNumBoundTo_6
   \   0000B1   85..82       MOV     DPL,?V0 + 2
   \   0000B4   85..83       MOV     DPH,?V0 + 3
   \   0000B7   A3           INC     DPTR
   \   0000B8   A3           INC     DPTR
   \   0000B9   E0           MOVX    A,@DPTR
   \   0000BA   65..         XRL     A,?V0 + 4
   \   0000BC   7004         JNZ     ??bindNumBoundTo_7
   \   0000BE   A3           INC     DPTR
   \   0000BF   E0           MOVX    A,@DPTR
   \   0000C0   65..         XRL     A,?V0 + 5
   \                     ??bindNumBoundTo_7:
   \   0000C2   603D         JZ      ??bindNumBoundTo_8
   \                     ??bindNumBoundTo_6:
   \   0000C4   8E82         MOV     DPL,R6
   \   0000C6   8F83         MOV     DPH,R7
   \   0000C8   A3           INC     DPTR
   \   0000C9   A3           INC     DPTR
   \   0000CA   A3           INC     DPTR
   \   0000CB   A3           INC     DPTR
   \   0000CC   A3           INC     DPTR
   \   0000CD   A3           INC     DPTR
   \   0000CE   A3           INC     DPTR
   \   0000CF   A3           INC     DPTR
   \   0000D0   E0           MOVX    A,@DPTR
   \   0000D1   6401         XRL     A,#0x1
   \   0000D3   602E         JZ      ??bindNumBoundTo_5
   \   0000D5   85..82       MOV     DPL,?V0 + 2
   \   0000D8   85..83       MOV     DPH,?V0 + 3
   \   0000DB   A3           INC     DPTR
   \   0000DC   E0           MOVX    A,@DPTR
   \   0000DD   7024         JNZ     ??bindNumBoundTo_5
   \   0000DF   85..82       MOV     DPL,?V0 + 2
   \   0000E2   85..83       MOV     DPH,?V0 + 3
   \   0000E5   A3           INC     DPTR
   \   0000E6   A3           INC     DPTR
   \   0000E7   E0           MOVX    A,@DPTR
   \   0000E8   65..         XRL     A,?V0 + 4
   \   0000EA   7004         JNZ     ??bindNumBoundTo_9
   \   0000EC   A3           INC     DPTR
   \   0000ED   E0           MOVX    A,@DPTR
   \   0000EE   65..         XRL     A,?V0 + 5
   \                     ??bindNumBoundTo_9:
   \   0000F0   7011         JNZ     ??bindNumBoundTo_5
   \   0000F2   85..82       MOV     DPL,?V0 + 2
   \   0000F5   85..83       MOV     DPH,?V0 + 3
   \   0000F8   A3           INC     DPTR
   \   0000F9   A3           INC     DPTR
   \   0000FA   A3           INC     DPTR
   \   0000FB   A3           INC     DPTR
   \   0000FC   E0           MOVX    A,@DPTR
   \   0000FD   65..         XRL     A,?V0 + 7
   \   0000FF   7002         JNZ     ??bindNumBoundTo_5
    637                {
    638                  num++;
   \                     ??bindNumBoundTo_8:
   \   000101   05..         INC     ?V0 + 6
    639                }
    640              }
    641            }
   \                     ??bindNumBoundTo_5:
   \   000103   E5..         MOV     A,?V0 + 0
   \   000105   2401         ADD     A,#0x1
   \   000107   F5..         MOV     ?V0 + 0,A
   \   000109   E5..         MOV     A,?V0 + 1
   \   00010B   3400         ADDC    A,#0x0
   \   00010D   F5..         MOV     ?V0 + 1,A
   \   00010F   02....       LJMP    ??bindNumBoundTo_2 & 0xFFFF
    642          
    643            return num;
   \                     ??bindNumBoundTo_3:
   \   000112   A9..         MOV     R1,?V0 + 6
   \   000114   7F0C         MOV     R7,#0xc
   \   000116   02....       LJMP    ?BANKED_LEAVE_XDATA
    644          }
    645          
    646          /*********************************************************************
    647           * @fn          bindNumReflections
    648           *
    649           * @brief       Counts the number of reflections needed for a
    650           *              endpoint and cluster ID combo.
    651           *
    652           * @param       ep - source endpoint
    653           * @param       clusterID - matching clusterID
    654           *
    655           * @return      number of reflections needed.
    656           */

   \                                 In  segment BANKED_CODE, align 1, keep-with-next
    657          uint16 bindNumReflections( uint8 ep, uint16 clusterID )
   \                     bindNumReflections:
    658          {
   \   000000   74F0         MOV     A,#-0x10
   \   000002   12....       LCALL   ?BANKED_ENTER_XDATA
   \   000005                ; Saved register size: 16
   \   000005                ; Auto size: 0
   \   000005   89..         MOV     ?V0 + 6,R1
   \   000007   8A..         MOV     ?V0 + 4,R2
   \   000009   8B..         MOV     ?V0 + 5,R3
    659            uint16 x;
    660            BindingEntry_t *pBind;
    661            uint16 cnt = 0;
   \   00000B   75..00       MOV     ?V0 + 0,#0x0
   \   00000E   75..00       MOV     ?V0 + 1,#0x0
    662            uint8 bindEP;
    663          
    664            for ( x = 0; x < gNWK_MAX_BINDING_ENTRIES; x++ )
   \   000011   7E00         MOV     R6,#0x0
   \   000013   7F00         MOV     R7,#0x0
   \                     ??bindNumReflections_0:
   \   000015   90....       MOV     DPTR,#gNWK_MAX_BINDING_ENTRIES
   \   000018   E4           CLR     A
   \   000019   93           MOVC    A,@A+DPTR
   \   00001A   F8           MOV     R0,A
   \   00001B   7401         MOV     A,#0x1
   \   00001D   93           MOVC    A,@A+DPTR
   \   00001E   F9           MOV     R1,A
   \   00001F   C3           CLR     C
   \   000020   EE           MOV     A,R6
   \   000021   98           SUBB    A,R0
   \   000022   EF           MOV     A,R7
   \   000023   99           SUBB    A,R1
   \   000024   5058         JNC     ??bindNumReflections_1
    665            {
    666              pBind = &BindingTable[x];
   \   000026   EE           MOV     A,R6
   \   000027   F8           MOV     R0,A
   \   000028   EF           MOV     A,R7
   \   000029   F9           MOV     R1,A
   \   00002A   E8           MOV     A,R0
   \   00002B   75F00E       MOV     B,#0xe
   \   00002E   A4           MUL     AB
   \   00002F   C8           XCH     A,R0
   \   000030   AAF0         MOV     R2,B
   \   000032   75F000       MOV     B,#0x0
   \   000035   A4           MUL     AB
   \   000036   2A           ADD     A,R2
   \   000037   FA           MOV     R2,A
   \   000038   75F00E       MOV     B,#0xe
   \   00003B   E9           MOV     A,R1
   \   00003C   A4           MUL     AB
   \   00003D   2A           ADD     A,R2
   \   00003E   F9           MOV     R1,A
   \   00003F   74..         MOV     A,#BindingTable & 0xff
   \   000041   28           ADD     A,R0
   \   000042   F8           MOV     R0,A
   \   000043   74..         MOV     A,#(BindingTable >> 8) & 0xff
   \   000045   39           ADDC    A,R1
   \   000046   F9           MOV     R1,A
   \   000047   88..         MOV     ?V0 + 2,R0
   \   000049   89..         MOV     ?V0 + 3,R1
    667              bindEP = pBind->srcEP;
   \   00004B   85..82       MOV     DPL,?V0 + 2
   \   00004E   85..83       MOV     DPH,?V0 + 3
   \   000051   E0           MOVX    A,@DPTR
   \   000052   F5..         MOV     ?V0 + 7,A
    668          
    669              if ( (bindEP == ep) && (bindIsClusterIDinList( pBind, clusterID )) )
   \   000054   E5..         MOV     A,?V0 + 6
   \   000056   65..         XRL     A,?V0 + 7
   \   000058   701A         JNZ     ??bindNumReflections_2
   \   00005A                ; Setup parameters for call to function bindIsClusterIDinList
   \   00005A   AC..         MOV     R4,?V0 + 4
   \   00005C   AD..         MOV     R5,?V0 + 5
   \   00005E   AA..         MOV     R2,?V0 + 2
   \   000060   AB..         MOV     R3,?V0 + 3
   \   000062   12....       LCALL   ??bindIsClusterIDinList?relay
   \   000065   E9           MOV     A,R1
   \   000066   600C         JZ      ??bindNumReflections_2
    670              {
    671                cnt++;
   \   000068   E5..         MOV     A,?V0 + 0
   \   00006A   2401         ADD     A,#0x1
   \   00006C   F5..         MOV     ?V0 + 0,A
   \   00006E   E5..         MOV     A,?V0 + 1
   \   000070   3400         ADDC    A,#0x0
   \   000072   F5..         MOV     ?V0 + 1,A
    672              }
    673            }
   \                     ??bindNumReflections_2:
   \   000074   EE           MOV     A,R6
   \   000075   2401         ADD     A,#0x1
   \   000077   FE           MOV     R6,A
   \   000078   EF           MOV     A,R7
   \   000079   3400         ADDC    A,#0x0
   \   00007B   FF           MOV     R7,A
   \   00007C   8097         SJMP    ??bindNumReflections_0
    674          
    675            return ( cnt );
   \                     ??bindNumReflections_1:
   \   00007E   AA..         MOV     R2,?V0 + 0
   \   000080   AB..         MOV     R3,?V0 + 1
   \   000082   7F08         MOV     R7,#0x8
   \   000084   02....       LJMP    ?BANKED_LEAVE_XDATA
    676          }
    677          
    678          /*********************************************************************
    679           * @fn          bindFind
    680           *
    681           * @brief       Finds the binding entry for the source address, endpoint
    682           *              and cluster ID passed in as a parameter.
    683           *
    684           * @param       ep - source endpoint
    685           * @param       clusterID - matching clusterID
    686           * @param       skip - number of matches to skip before returning
    687           *
    688           * @return      pointer to the binding table entry, NULL if not found
    689           */

   \                                 In  segment BANKED_CODE, align 1, keep-with-next
    690          BindingEntry_t *bindFind( uint8 ep, uint16 clusterID, uint8 skipping )
   \                     bindFind:
    691          {
   \   000000   74F1         MOV     A,#-0xf
   \   000002   12....       LCALL   ?BANKED_ENTER_XDATA
   \   000005                ; Saved register size: 15
   \   000005                ; Auto size: 0
   \   000005   89..         MOV     ?V0 + 5,R1
   \   000007   8A..         MOV     ?V0 + 2,R2
   \   000009   8B..         MOV     ?V0 + 3,R3
   \   00000B   8C..         MOV     ?V0 + 6,R4
    692            BindingEntry_t *pBind;
    693            byte skipped = 0;
   \   00000D   75..00       MOV     ?V0 + 4,#0x0
    694            uint16 x;
    695          
    696            for ( x = 0; x < gNWK_MAX_BINDING_ENTRIES; x++ )
   \   000010   75..00       MOV     ?V0 + 0,#0x0
   \   000013   75..00       MOV     ?V0 + 1,#0x0
   \                     ??bindFind_0:
   \   000016   90....       MOV     DPTR,#gNWK_MAX_BINDING_ENTRIES
   \   000019   E4           CLR     A
   \   00001A   93           MOVC    A,@A+DPTR
   \   00001B   F8           MOV     R0,A
   \   00001C   7401         MOV     A,#0x1
   \   00001E   93           MOVC    A,@A+DPTR
   \   00001F   F9           MOV     R1,A
   \   000020   C3           CLR     C
   \   000021   E5..         MOV     A,?V0 + 0
   \   000023   98           SUBB    A,R0
   \   000024   E5..         MOV     A,?V0 + 1
   \   000026   99           SUBB    A,R1
   \   000027   505C         JNC     ??bindFind_1
    697            {
    698              pBind = &BindingTable[x];
   \   000029   A8..         MOV     R0,?V0 + 0
   \   00002B   A9..         MOV     R1,?V0 + 1
   \   00002D   E8           MOV     A,R0
   \   00002E   75F00E       MOV     B,#0xe
   \   000031   A4           MUL     AB
   \   000032   C8           XCH     A,R0
   \   000033   AAF0         MOV     R2,B
   \   000035   75F000       MOV     B,#0x0
   \   000038   A4           MUL     AB
   \   000039   2A           ADD     A,R2
   \   00003A   FA           MOV     R2,A
   \   00003B   75F00E       MOV     B,#0xe
   \   00003E   E5..         MOV     A,?V0 + 1
   \   000040   A4           MUL     AB
   \   000041   2A           ADD     A,R2
   \   000042   F9           MOV     R1,A
   \   000043   74..         MOV     A,#BindingTable & 0xff
   \   000045   28           ADD     A,R0
   \   000046   F8           MOV     R0,A
   \   000047   74..         MOV     A,#(BindingTable >> 8) & 0xff
   \   000049   39           ADDC    A,R1
   \   00004A   F9           MOV     R1,A
   \   00004B   E8           MOV     A,R0
   \   00004C   FE           MOV     R6,A
   \   00004D   E9           MOV     A,R1
   \   00004E   FF           MOV     R7,A
    699          
    700              if ( ( pBind->srcEP == ep) && bindIsClusterIDinList( pBind, clusterID ))
   \   00004F   8E82         MOV     DPL,R6
   \   000051   8F83         MOV     DPH,R7
   \   000053   E0           MOVX    A,@DPTR
   \   000054   65..         XRL     A,?V0 + 5
   \   000056   701F         JNZ     ??bindFind_2
   \   000058                ; Setup parameters for call to function bindIsClusterIDinList
   \   000058   AC..         MOV     R4,?V0 + 2
   \   00005A   AD..         MOV     R5,?V0 + 3
   \   00005C   EE           MOV     A,R6
   \   00005D   FA           MOV     R2,A
   \   00005E   EF           MOV     A,R7
   \   00005F   FB           MOV     R3,A
   \   000060   12....       LCALL   ??bindIsClusterIDinList?relay
   \   000063   E9           MOV     A,R1
   \   000064   6011         JZ      ??bindFind_2
    701              {
    702                if ( skipped < skipping )
   \   000066   E5..         MOV     A,?V0 + 4
   \   000068   C3           CLR     C
   \   000069   95..         SUBB    A,?V0 + 6
   \   00006B   5004         JNC     ??bindFind_3
    703                {
    704                  skipped++;
   \   00006D   05..         INC     ?V0 + 4
   \   00006F   8006         SJMP    ??bindFind_2
    705                }
    706                else
    707                {
    708                  return ( pBind );
   \                     ??bindFind_3:
   \   000071   EE           MOV     A,R6
   \   000072   FA           MOV     R2,A
   \   000073   EF           MOV     A,R7
   \   000074   FB           MOV     R3,A
   \   000075   8012         SJMP    ??bindFind_4
    709                }
    710              }
    711            }
   \                     ??bindFind_2:
   \   000077   E5..         MOV     A,?V0 + 0
   \   000079   2401         ADD     A,#0x1
   \   00007B   F5..         MOV     ?V0 + 0,A
   \   00007D   E5..         MOV     A,?V0 + 1
   \   00007F   3400         ADDC    A,#0x0
   \   000081   F5..         MOV     ?V0 + 1,A
   \   000083   8091         SJMP    ??bindFind_0
    712          
    713            return ( (BindingEntry_t *)NULL );
   \                     ??bindFind_1:
   \   000085   7A00         MOV     R2,#0x0
   \   000087   7B00         MOV     R3,#0x0
   \                     ??bindFind_4:
   \   000089   7F07         MOV     R7,#0x7
   \   00008B   02....       LJMP    ?BANKED_LEAVE_XDATA
    714          }
    715          
    716          /*********************************************************************
    717           * @fn          BindInitNV
    718           *
    719           * @brief       Initialize the Binding NV Item
    720           *
    721           * @param       none
    722           *
    723           * @return      ZSUCCESS if successful, NV_ITEM_UNINIT if item did not
    724           *              exist in NV, NV_OPER_FAILED if failure.
    725           */

   \                                 In  segment BANKED_CODE, align 1, keep-with-next
    726          byte BindInitNV( void )
   \                     BindInitNV:
    727          {
   \   000000   74F6         MOV     A,#-0xa
   \   000002   12....       LCALL   ?BANKED_ENTER_XDATA
   \   000005                ; Saved register size: 10
   \   000005                ; Auto size: 0
    728            byte ret;
    729          
    730            // Initialize the device list
    731            ret = osal_nv_item_init( ZCD_NV_BINDING_TABLE,
    732                            (uint16)(gBIND_REC_SIZE + NV_BIND_ITEM_SIZE), NULL );
   \   000005                ; Setup parameters for call to function osal_nv_item_init
   \   000005   E4           CLR     A
   \   000006   F5..         MOV     ?V0 + 0,A
   \   000008   F5..         MOV     ?V0 + 1,A
   \   00000A   78..         MOV     R0,#?V0 + 0
   \   00000C   12....       LCALL   ?PUSH_XSTACK_I_TWO
   \   00000F   90....       MOV     DPTR,#gBIND_REC_SIZE
   \   000012   C082         PUSH    DPL
   \   000014   C083         PUSH    DPH
   \   000016   90....       MOV     DPTR,#gBIND_REC_SIZE
   \   000019   E4           CLR     A
   \   00001A   93           MOVC    A,@A+DPTR
   \   00001B   F8           MOV     R0,A
   \   00001C   7401         MOV     A,#0x1
   \   00001E   93           MOVC    A,@A+DPTR
   \   00001F   F9           MOV     R1,A
   \   000020   90....       MOV     DPTR,#gNWK_MAX_BINDING_ENTRIES
   \   000023   E4           CLR     A
   \   000024   93           MOVC    A,@A+DPTR
   \   000025   F5..         MOV     ?V0 + 0,A
   \   000027   7401         MOV     A,#0x1
   \   000029   93           MOVC    A,@A+DPTR
   \   00002A   F5..         MOV     ?V0 + 1,A
   \   00002C   E8           MOV     A,R0
   \   00002D   85..F0       MOV     B,?V0 + 0
   \   000030   A4           MUL     AB
   \   000031   C8           XCH     A,R0
   \   000032   AAF0         MOV     R2,B
   \   000034   85..F0       MOV     B,?V0 + 1
   \   000037   A4           MUL     AB
   \   000038   2A           ADD     A,R2
   \   000039   FA           MOV     R2,A
   \   00003A   85..F0       MOV     B,?V0 + 0
   \   00003D   E9           MOV     A,R1
   \   00003E   A4           MUL     AB
   \   00003F   2A           ADD     A,R2
   \   000040   F9           MOV     R1,A
   \   000041   D083         POP     DPH
   \   000043   D082         POP     DPL
   \   000045   E4           CLR     A
   \   000046   93           MOVC    A,@A+DPTR
   \   000047   28           ADD     A,R0
   \   000048   FC           MOV     R4,A
   \   000049   A3           INC     DPTR
   \   00004A   E4           CLR     A
   \   00004B   93           MOVC    A,@A+DPTR
   \   00004C   39           ADDC    A,R1
   \   00004D   FD           MOV     R5,A
   \   00004E   7A41         MOV     R2,#0x41
   \   000050   7B00         MOV     R3,#0x0
   \   000052   12....       LCALL   ??osal_nv_item_init?relay
   \   000055   7402         MOV     A,#0x2
   \   000057   12....       LCALL   ?DEALLOC_XSTACK8
   \   00005A   E9           MOV     A,R1
   \   00005B   FE           MOV     R6,A
    733          
    734            if ( ret != ZSUCCESS )
   \   00005C   EE           MOV     A,R6
   \   00005D   6003         JZ      ??BindInitNV_0
    735            {
    736              BindSetDefaultNV();
   \   00005F                ; Setup parameters for call to function BindSetDefaultNV
   \   00005F   12....       LCALL   ??BindSetDefaultNV?relay
    737            }
    738          
    739            return ( ret );
   \                     ??BindInitNV_0:
   \   000062   EE           MOV     A,R6
   \   000063   F9           MOV     R1,A
   \   000064   7F02         MOV     R7,#0x2
   \   000066   02....       LJMP    ?BANKED_LEAVE_XDATA
    740          }
    741          
    742          /*********************************************************************
    743           * @fn          BindSetDefaultNV
    744           *
    745           * @brief       Write the defaults to NV
    746           *
    747           * @param       none
    748           *
    749           * @return      none
    750           */

   \                                 In  segment BANKED_CODE, align 1, keep-with-next
    751          void BindSetDefaultNV( void )
   \                     BindSetDefaultNV:
    752          {
   \   000000   74F6         MOV     A,#-0xa
   \   000002   12....       LCALL   ?BANKED_ENTER_XDATA
   \   000005                ; Saved register size: 10
   \   000005                ; Auto size: 2
   \   000005   74FE         MOV     A,#-0x2
   \   000007   12....       LCALL   ?ALLOC_XSTACK8
    753            nvBindingHdr_t hdr;
    754          
    755            // Initialize the header
    756            hdr.numRecs = 0;
   \   00000A   85..82       MOV     DPL,?XSP + 0
   \   00000D   85..83       MOV     DPH,?XSP + 1
   \   000010   7400         MOV     A,#0x0
   \   000012   F0           MOVX    @DPTR,A
   \   000013   A3           INC     DPTR
   \   000014   7400         MOV     A,#0x0
   \   000016   F0           MOVX    @DPTR,A
    757          
    758            // Save off the header
    759            osal_nv_write( ZCD_NV_BINDING_TABLE, 0, sizeof( nvBindingHdr_t ), &hdr );
   \   000017                ; Setup parameters for call to function osal_nv_write
   \   000017   85..82       MOV     DPL,?XSP + 0
   \   00001A   85..83       MOV     DPH,?XSP + 1
   \   00001D   8582..       MOV     ?V0 + 0,DPL
   \   000020   8583..       MOV     ?V0 + 1,DPH
   \   000023   78..         MOV     R0,#?V0 + 0
   \   000025   12....       LCALL   ?PUSH_XSTACK_I_TWO
   \   000028   75..02       MOV     ?V0 + 0,#0x2
   \   00002B   75..00       MOV     ?V0 + 1,#0x0
   \   00002E   78..         MOV     R0,#?V0 + 0
   \   000030   12....       LCALL   ?PUSH_XSTACK_I_TWO
   \   000033   7C00         MOV     R4,#0x0
   \   000035   7D00         MOV     R5,#0x0
   \   000037   7A41         MOV     R2,#0x41
   \   000039   7B00         MOV     R3,#0x0
   \   00003B   12....       LCALL   ??osal_nv_write?relay
   \   00003E   7404         MOV     A,#0x4
   \   000040   12....       LCALL   ?DEALLOC_XSTACK8
   \   000043   E9           MOV     A,R1
    760          }
   \   000044   7402         MOV     A,#0x2
   \   000046   12....       LCALL   ?DEALLOC_XSTACK8
   \   000049   7F02         MOV     R7,#0x2
   \   00004B   02....       LJMP    ?BANKED_LEAVE_XDATA
    761          
    762          /*********************************************************************
    763           * @fn          BindRestoreFromNV
    764           *
    765           * @brief       Restore the binding table from NV
    766           *
    767           * @param       none
    768           *
    769           * @return      Number of entries restored
    770           */

   \                                 In  segment BANKED_CODE, align 1, keep-with-next
    771          uint16 BindRestoreFromNV( void )
   \                     BindRestoreFromNV:
    772          {
   \   000000   74F4         MOV     A,#-0xc
   \   000002   12....       LCALL   ?BANKED_ENTER_XDATA
   \   000005                ; Saved register size: 12
   \   000005                ; Auto size: 2
   \   000005   74FE         MOV     A,#-0x2
   \   000007   12....       LCALL   ?ALLOC_XSTACK8
    773            nvBindingHdr_t hdr;
    774            uint16 numAdded = 0;
   \   00000A   7E00         MOV     R6,#0x0
   \   00000C   7F00         MOV     R7,#0x0
    775          
    776            if ( osal_nv_read( ZCD_NV_BINDING_TABLE, 0, sizeof(nvBindingHdr_t), &hdr ) == ZSuccess )
   \   00000E                ; Setup parameters for call to function osal_nv_read
   \   00000E   85..82       MOV     DPL,?XSP + 0
   \   000011   85..83       MOV     DPH,?XSP + 1
   \   000014   8582..       MOV     ?V0 + 0,DPL
   \   000017   8583..       MOV     ?V0 + 1,DPH
   \   00001A   78..         MOV     R0,#?V0 + 0
   \   00001C   12....       LCALL   ?PUSH_XSTACK_I_TWO
   \   00001F   75..02       MOV     ?V0 + 0,#0x2
   \   000022   75..00       MOV     ?V0 + 1,#0x0
   \   000025   78..         MOV     R0,#?V0 + 0
   \   000027   12....       LCALL   ?PUSH_XSTACK_I_TWO
   \   00002A   7C00         MOV     R4,#0x0
   \   00002C   7D00         MOV     R5,#0x0
   \   00002E   7A41         MOV     R2,#0x41
   \   000030   7B00         MOV     R3,#0x0
   \   000032   12....       LCALL   ??osal_nv_read?relay
   \   000035   7404         MOV     A,#0x4
   \   000037   12....       LCALL   ?DEALLOC_XSTACK8
   \   00003A   E9           MOV     A,R1
   \   00003B   7075         JNZ     ??BindRestoreFromNV_0
    777            {
    778              if (hdr.numRecs > 0)
   \   00003D   85..82       MOV     DPL,?XSP + 0
   \   000040   85..83       MOV     DPH,?XSP + 1
   \   000043   E0           MOVX    A,@DPTR
   \   000044   F8           MOV     R0,A
   \   000045   A3           INC     DPTR
   \   000046   E0           MOVX    A,@DPTR
   \   000047   F9           MOV     R1,A
   \   000048   E8           MOV     A,R0
   \   000049   49           ORL     A,R1
   \   00004A   6066         JZ      ??BindRestoreFromNV_0
    779              {
    780                // Read the whole table at once
    781                if ( osal_nv_read( ZCD_NV_BINDING_TABLE,
    782                                   (uint16)(sizeof(nvBindingHdr_t)),
    783                                   (NV_BIND_REC_SIZE * gNWK_MAX_BINDING_ENTRIES), BindingTable ) == ZSUCCESS )
   \   00004C                ; Setup parameters for call to function osal_nv_read
   \   00004C   75....       MOV     ?V0 + 0,#BindingTable & 0xff
   \   00004F   75....       MOV     ?V0 + 1,#(BindingTable >> 8) & 0xff
   \   000052   78..         MOV     R0,#?V0 + 0
   \   000054   12....       LCALL   ?PUSH_XSTACK_I_TWO
   \   000057   90....       MOV     DPTR,#gBIND_REC_SIZE
   \   00005A   E4           CLR     A
   \   00005B   93           MOVC    A,@A+DPTR
   \   00005C   F5..         MOV     ?V0 + 2,A
   \   00005E   7401         MOV     A,#0x1
   \   000060   93           MOVC    A,@A+DPTR
   \   000061   F5..         MOV     ?V0 + 3,A
   \   000063   90....       MOV     DPTR,#gNWK_MAX_BINDING_ENTRIES
   \   000066   E4           CLR     A
   \   000067   93           MOVC    A,@A+DPTR
   \   000068   F5..         MOV     ?V0 + 0,A
   \   00006A   7401         MOV     A,#0x1
   \   00006C   93           MOVC    A,@A+DPTR
   \   00006D   F5..         MOV     ?V0 + 1,A
   \   00006F   E5..         MOV     A,?V0 + 2
   \   000071   85..F0       MOV     B,?V0 + 0
   \   000074   A4           MUL     AB
   \   000075   C5..         XCH     A,?V0 + 2
   \   000077   A8F0         MOV     R0,B
   \   000079   85..F0       MOV     B,?V0 + 1
   \   00007C   A4           MUL     AB
   \   00007D   28           ADD     A,R0
   \   00007E   F8           MOV     R0,A
   \   00007F   85..F0       MOV     B,?V0 + 0
   \   000082   E5..         MOV     A,?V0 + 3
   \   000084   A4           MUL     AB
   \   000085   28           ADD     A,R0
   \   000086   F5..         MOV     ?V0 + 3,A
   \   000088   78..         MOV     R0,#?V0 + 2
   \   00008A   12....       LCALL   ?PUSH_XSTACK_I_TWO
   \   00008D   7C02         MOV     R4,#0x2
   \   00008F   7D00         MOV     R5,#0x0
   \   000091   7A41         MOV     R2,#0x41
   \   000093   7B00         MOV     R3,#0x0
   \   000095   12....       LCALL   ??osal_nv_read?relay
   \   000098   7404         MOV     A,#0x4
   \   00009A   12....       LCALL   ?DEALLOC_XSTACK8
   \   00009D   E9           MOV     A,R1
   \   00009E   7012         JNZ     ??BindRestoreFromNV_0
    784                {
    785                  numAdded = gNWK_MAX_BINDING_ENTRIES;
   \   0000A0   90....       MOV     DPTR,#gNWK_MAX_BINDING_ENTRIES
   \   0000A3   E4           CLR     A
   \   0000A4   93           MOVC    A,@A+DPTR
   \   0000A5   C0E0         PUSH    A
   \   0000A7   7401         MOV     A,#0x1
   \   0000A9   93           MOVC    A,@A+DPTR
   \   0000AA   F583         MOV     DPH,A
   \   0000AC   D082         POP     DPL
   \   0000AE   AE82         MOV     R6,DPL
   \   0000B0   AF83         MOV     R7,DPH
    786                }
    787              }
    788            }
    789            return ( numAdded );
   \                     ??BindRestoreFromNV_0:
   \   0000B2   EE           MOV     A,R6
   \   0000B3   FA           MOV     R2,A
   \   0000B4   EF           MOV     A,R7
   \   0000B5   FB           MOV     R3,A
   \   0000B6   7402         MOV     A,#0x2
   \   0000B8   12....       LCALL   ?DEALLOC_XSTACK8
   \   0000BB   7F04         MOV     R7,#0x4
   \   0000BD   02....       LJMP    ?BANKED_LEAVE_XDATA
    790          }
    791          
    792          /*********************************************************************
    793           * @fn          BindWriteNV
    794           *
    795           * @brief       Save the Binding Table in NV
    796           *
    797           * @param       none
    798           *
    799           * @return      none
    800           */

   \                                 In  segment BANKED_CODE, align 1, keep-with-next
    801          void BindWriteNV( void )
   \                     BindWriteNV:
    802          {
   \   000000   74F1         MOV     A,#-0xf
   \   000002   12....       LCALL   ?BANKED_ENTER_XDATA
   \   000005                ; Saved register size: 15
   \   000005                ; Auto size: 16
   \   000005   74F0         MOV     A,#-0x10
   \   000007   12....       LCALL   ?ALLOC_XSTACK8
    803            BindingEntry_t *pBind;
    804            BindingEntry_t bind;
    805            nvBindingHdr_t hdr;
    806            uint16 x;
    807          
    808            hdr.numRecs = 0;
   \   00000A   85..82       MOV     DPL,?XSP + 0
   \   00000D   85..83       MOV     DPH,?XSP + 1
   \   000010   7400         MOV     A,#0x0
   \   000012   F0           MOVX    @DPTR,A
   \   000013   A3           INC     DPTR
   \   000014   7400         MOV     A,#0x0
   \   000016   F0           MOVX    @DPTR,A
    809          
    810            for ( x = 0; x < gNWK_MAX_BINDING_ENTRIES; x++ )
   \   000017   7E00         MOV     R6,#0x0
   \   000019   7F00         MOV     R7,#0x0
   \                     ??BindWriteNV_0:
   \   00001B   90....       MOV     DPTR,#gNWK_MAX_BINDING_ENTRIES
   \   00001E   E4           CLR     A
   \   00001F   93           MOVC    A,@A+DPTR
   \   000020   F8           MOV     R0,A
   \   000021   7401         MOV     A,#0x1
   \   000023   93           MOVC    A,@A+DPTR
   \   000024   F9           MOV     R1,A
   \   000025   C3           CLR     C
   \   000026   EE           MOV     A,R6
   \   000027   98           SUBB    A,R0
   \   000028   EF           MOV     A,R7
   \   000029   99           SUBB    A,R1
   \   00002A   4003         JC      $+5
   \   00002C   02....       LJMP    ??BindWriteNV_1 & 0xFFFF
    811            {
    812              pBind = &BindingTable[x];
   \   00002F   EE           MOV     A,R6
   \   000030   F8           MOV     R0,A
   \   000031   EF           MOV     A,R7
   \   000032   F9           MOV     R1,A
   \   000033   E8           MOV     A,R0
   \   000034   75F00E       MOV     B,#0xe
   \   000037   A4           MUL     AB
   \   000038   C8           XCH     A,R0
   \   000039   AAF0         MOV     R2,B
   \   00003B   75F000       MOV     B,#0x0
   \   00003E   A4           MUL     AB
   \   00003F   2A           ADD     A,R2
   \   000040   FA           MOV     R2,A
   \   000041   75F00E       MOV     B,#0xe
   \   000044   E9           MOV     A,R1
   \   000045   A4           MUL     AB
   \   000046   2A           ADD     A,R2
   \   000047   F9           MOV     R1,A
   \   000048   74..         MOV     A,#BindingTable & 0xff
   \   00004A   28           ADD     A,R0
   \   00004B   F8           MOV     R0,A
   \   00004C   74..         MOV     A,#(BindingTable >> 8) & 0xff
   \   00004E   39           ADDC    A,R1
   \   00004F   F9           MOV     R1,A
   \   000050   88..         MOV     ?V0 + 0,R0
   \   000052   89..         MOV     ?V0 + 1,R1
    813          
    814              osal_memcpy( &bind, pBind, gBIND_REC_SIZE );
   \   000054                ; Setup parameters for call to function osal_memcpy
   \   000054   85....       MOV     ?V0 + 4,?V0 + 0
   \   000057   85....       MOV     ?V0 + 5,?V0 + 1
   \   00005A   75..00       MOV     ?V0 + 6,#0x0
   \   00005D   78..         MOV     R0,#?V0 + 4
   \   00005F   12....       LCALL   ?PUSH_XSTACK_I_THREE
   \   000062   90....       MOV     DPTR,#gBIND_REC_SIZE
   \   000065   E4           CLR     A
   \   000066   93           MOVC    A,@A+DPTR
   \   000067   FC           MOV     R4,A
   \   000068   7401         MOV     A,#0x1
   \   00006A   93           MOVC    A,@A+DPTR
   \   00006B   FD           MOV     R5,A
   \   00006C   7405         MOV     A,#0x5
   \   00006E   12....       LCALL   ?XSTACK_DISP0_8
   \   000071   AA82         MOV     R2,DPL
   \   000073   AB83         MOV     R3,DPH
   \   000075   12....       LCALL   ??osal_memcpy?relay
   \   000078   7403         MOV     A,#0x3
   \   00007A   12....       LCALL   ?DEALLOC_XSTACK8
    815          
    816              // Save the record to NV
    817              osal_nv_write( ZCD_NV_BINDING_TABLE,
    818                             (uint16)((sizeof(nvBindingHdr_t)) + (x * NV_BIND_REC_SIZE)),
    819                             NV_BIND_REC_SIZE, &bind );
   \   00007D                ; Setup parameters for call to function osal_nv_write
   \   00007D   7402         MOV     A,#0x2
   \   00007F   12....       LCALL   ?XSTACK_DISP0_8
   \   000082   8582..       MOV     ?V0 + 2,DPL
   \   000085   8583..       MOV     ?V0 + 3,DPH
   \   000088   78..         MOV     R0,#?V0 + 2
   \   00008A   12....       LCALL   ?PUSH_XSTACK_I_TWO
   \   00008D   90....       MOV     DPTR,#gBIND_REC_SIZE
   \   000090   12....       LCALL   ?PUSH_XSTACK8_C_TWO
   \   000093   EE           MOV     A,R6
   \   000094   F8           MOV     R0,A
   \   000095   EF           MOV     A,R7
   \   000096   F9           MOV     R1,A
   \   000097   90....       MOV     DPTR,#gBIND_REC_SIZE
   \   00009A   E4           CLR     A
   \   00009B   93           MOVC    A,@A+DPTR
   \   00009C   F5..         MOV     ?V0 + 2,A
   \   00009E   7401         MOV     A,#0x1
   \   0000A0   93           MOVC    A,@A+DPTR
   \   0000A1   F5..         MOV     ?V0 + 3,A
   \   0000A3   E8           MOV     A,R0
   \   0000A4   85..F0       MOV     B,?V0 + 2
   \   0000A7   A4           MUL     AB
   \   0000A8   C8           XCH     A,R0
   \   0000A9   AAF0         MOV     R2,B
   \   0000AB   85..F0       MOV     B,?V0 + 3
   \   0000AE   A4           MUL     AB
   \   0000AF   2A           ADD     A,R2
   \   0000B0   FA           MOV     R2,A
   \   0000B1   85..F0       MOV     B,?V0 + 2
   \   0000B4   E9           MOV     A,R1
   \   0000B5   A4           MUL     AB
   \   0000B6   2A           ADD     A,R2
   \   0000B7   F9           MOV     R1,A
   \   0000B8   E8           MOV     A,R0
   \   0000B9   2402         ADD     A,#0x2
   \   0000BB   FC           MOV     R4,A
   \   0000BC   E9           MOV     A,R1
   \   0000BD   3400         ADDC    A,#0x0
   \   0000BF   FD           MOV     R5,A
   \   0000C0   7A41         MOV     R2,#0x41
   \   0000C2   7B00         MOV     R3,#0x0
   \   0000C4   12....       LCALL   ??osal_nv_write?relay
   \   0000C7   7404         MOV     A,#0x4
   \   0000C9   12....       LCALL   ?DEALLOC_XSTACK8
   \   0000CC   E9           MOV     A,R1
    820          
    821              if ( pBind->srcEP != NV_BIND_EMPTY )
   \   0000CD   85..82       MOV     DPL,?V0 + 0
   \   0000D0   85..83       MOV     DPH,?V0 + 1
   \   0000D3   E0           MOVX    A,@DPTR
   \   0000D4   64FF         XRL     A,#0xff
   \   0000D6   600F         JZ      ??BindWriteNV_2
    822              {
    823                hdr.numRecs++;
   \   0000D8   85..82       MOV     DPL,?XSP + 0
   \   0000DB   85..83       MOV     DPH,?XSP + 1
   \   0000DE   E0           MOVX    A,@DPTR
   \   0000DF   2401         ADD     A,#0x1
   \   0000E1   F0           MOVX    @DPTR,A
   \   0000E2   A3           INC     DPTR
   \   0000E3   E0           MOVX    A,@DPTR
   \   0000E4   3400         ADDC    A,#0x0
   \   0000E6   F0           MOVX    @DPTR,A
    824              }
    825            }
   \                     ??BindWriteNV_2:
   \   0000E7   EE           MOV     A,R6
   \   0000E8   2401         ADD     A,#0x1
   \   0000EA   FE           MOV     R6,A
   \   0000EB   EF           MOV     A,R7
   \   0000EC   3400         ADDC    A,#0x0
   \   0000EE   FF           MOV     R7,A
   \   0000EF   02....       LJMP    ??BindWriteNV_0 & 0xFFFF
    826          
    827            // Save off the header
    828            osal_nv_write( ZCD_NV_BINDING_TABLE, 0, sizeof(nvBindingHdr_t), &hdr );
   \                     ??BindWriteNV_1:
   \   0000F2                ; Setup parameters for call to function osal_nv_write
   \   0000F2   85..82       MOV     DPL,?XSP + 0
   \   0000F5   85..83       MOV     DPH,?XSP + 1
   \   0000F8   8582..       MOV     ?V0 + 2,DPL
   \   0000FB   8583..       MOV     ?V0 + 3,DPH
   \   0000FE   78..         MOV     R0,#?V0 + 2
   \   000100   12....       LCALL   ?PUSH_XSTACK_I_TWO
   \   000103   75..02       MOV     ?V0 + 2,#0x2
   \   000106   75..00       MOV     ?V0 + 3,#0x0
   \   000109   78..         MOV     R0,#?V0 + 2
   \   00010B   12....       LCALL   ?PUSH_XSTACK_I_TWO
   \   00010E   7C00         MOV     R4,#0x0
   \   000110   7D00         MOV     R5,#0x0
   \   000112   7A41         MOV     R2,#0x41
   \   000114   7B00         MOV     R3,#0x0
   \   000116   12....       LCALL   ??osal_nv_write?relay
   \   000119   7404         MOV     A,#0x4
   \   00011B   12....       LCALL   ?DEALLOC_XSTACK8
   \   00011E   E9           MOV     A,R1
    829          }
   \   00011F   7410         MOV     A,#0x10
   \   000121   12....       LCALL   ?DEALLOC_XSTACK8
   \   000124   7F07         MOV     R7,#0x7
   \   000126   02....       LJMP    ?BANKED_LEAVE_XDATA
    830          
    831          /*********************************************************************
    832           * @fn          bindUpdateAddr
    833           *
    834           * @brief       Update the network address in the binding table.
    835           *
    836           * @param       oldAddr - old network address
    837           * @param       newAddr - new network address
    838           *
    839           * @return      none
    840           */

   \                                 In  segment BANKED_CODE, align 1, keep-with-next
    841          void bindUpdateAddr( uint16 oldAddr, uint16 newAddr )
   \                     bindUpdateAddr:
    842          {
   \   000000   74EC         MOV     A,#-0x14
   \   000002   12....       LCALL   ?BANKED_ENTER_XDATA
   \   000005                ; Saved register size: 20
   \   000005                ; Auto size: 9
   \   000005   74F7         MOV     A,#-0x9
   \   000007   12....       LCALL   ?ALLOC_XSTACK8
   \   00000A   8A..         MOV     ?V0 + 8,R2
   \   00000C   8B..         MOV     ?V0 + 9,R3
   \   00000E   8C..         MOV     ?V0 + 0,R4
   \   000010   8D..         MOV     ?V0 + 1,R5
    843            uint16 oldIdx;
    844            uint16 newIdx;
    845            zAddrType_t addr;
    846            uint16 x;
    847            BindingEntry_t *pBind;
    848          
    849            addr.addrMode = Addr16Bit;
   \   000012   7408         MOV     A,#0x8
   \   000014   12....       LCALL   ?XSTACK_DISP0_8
   \   000017   7402         MOV     A,#0x2
   \   000019   F0           MOVX    @DPTR,A
    850            addr.addr.shortAddr = oldAddr;
   \   00001A   85..82       MOV     DPL,?XSP + 0
   \   00001D   85..83       MOV     DPH,?XSP + 1
   \   000020   E5..         MOV     A,?V0 + 8
   \   000022   F0           MOVX    @DPTR,A
   \   000023   A3           INC     DPTR
   \   000024   E5..         MOV     A,?V0 + 9
   \   000026   F0           MOVX    @DPTR,A
    851            oldIdx = bindingAddrMgsHelperFind( &addr );
   \   000027                ; Setup parameters for call to function bindingAddrMgsHelperFind
   \   000027   85..82       MOV     DPL,?XSP + 0
   \   00002A   85..83       MOV     DPH,?XSP + 1
   \   00002D   AA82         MOV     R2,DPL
   \   00002F   AB83         MOV     R3,DPH
   \   000031   12....       LCALL   ??bindingAddrMgsHelperFind?relay
   \   000034   8A..         MOV     ?V0 + 10,R2
   \   000036   8B..         MOV     ?V0 + 11,R3
   \   000038   85....       MOV     ?V0 + 2,?V0 + 10
   \   00003B   85....       MOV     ?V0 + 3,?V0 + 11
    852            addr.addr.shortAddr = newAddr;
   \   00003E   85..82       MOV     DPL,?XSP + 0
   \   000041   85..83       MOV     DPH,?XSP + 1
   \   000044   E5..         MOV     A,?V0 + 0
   \   000046   F0           MOVX    @DPTR,A
   \   000047   A3           INC     DPTR
   \   000048   E5..         MOV     A,?V0 + 1
   \   00004A   F0           MOVX    @DPTR,A
    853            newIdx = bindingAddrMgsHelperFind( &addr );
   \   00004B                ; Setup parameters for call to function bindingAddrMgsHelperFind
   \   00004B   85..82       MOV     DPL,?XSP + 0
   \   00004E   85..83       MOV     DPH,?XSP + 1
   \   000051   AA82         MOV     R2,DPL
   \   000053   AB83         MOV     R3,DPH
   \   000055   12....       LCALL   ??bindingAddrMgsHelperFind?relay
   \   000058   8A..         MOV     ?V0 + 10,R2
   \   00005A   8B..         MOV     ?V0 + 11,R3
   \   00005C   85....       MOV     ?V0 + 6,?V0 + 10
   \   00005F   85....       MOV     ?V0 + 7,?V0 + 11
    854          
    855            for ( x = 0; x < gNWK_MAX_BINDING_ENTRIES; x++ )
   \   000062   7E00         MOV     R6,#0x0
   \   000064   7F00         MOV     R7,#0x0
   \                     ??bindUpdateAddr_0:
   \   000066   90....       MOV     DPTR,#gNWK_MAX_BINDING_ENTRIES
   \   000069   E4           CLR     A
   \   00006A   93           MOVC    A,@A+DPTR
   \   00006B   F8           MOV     R0,A
   \   00006C   7401         MOV     A,#0x1
   \   00006E   93           MOVC    A,@A+DPTR
   \   00006F   F9           MOV     R1,A
   \   000070   C3           CLR     C
   \   000071   EE           MOV     A,R6
   \   000072   98           SUBB    A,R0
   \   000073   EF           MOV     A,R7
   \   000074   99           SUBB    A,R1
   \   000075   5051         JNC     ??bindUpdateAddr_1
    856            {
    857              pBind = &BindingTable[x];
   \   000077   EE           MOV     A,R6
   \   000078   F8           MOV     R0,A
   \   000079   EF           MOV     A,R7
   \   00007A   F9           MOV     R1,A
   \   00007B   E8           MOV     A,R0
   \   00007C   75F00E       MOV     B,#0xe
   \   00007F   A4           MUL     AB
   \   000080   C8           XCH     A,R0
   \   000081   AAF0         MOV     R2,B
   \   000083   75F000       MOV     B,#0x0
   \   000086   A4           MUL     AB
   \   000087   2A           ADD     A,R2
   \   000088   FA           MOV     R2,A
   \   000089   75F00E       MOV     B,#0xe
   \   00008C   E9           MOV     A,R1
   \   00008D   A4           MUL     AB
   \   00008E   2A           ADD     A,R2
   \   00008F   F9           MOV     R1,A
   \   000090   74..         MOV     A,#BindingTable & 0xff
   \   000092   28           ADD     A,R0
   \   000093   F8           MOV     R0,A
   \   000094   74..         MOV     A,#(BindingTable >> 8) & 0xff
   \   000096   39           ADDC    A,R1
   \   000097   F9           MOV     R1,A
   \   000098   88..         MOV     ?V0 + 4,R0
   \   00009A   89..         MOV     ?V0 + 5,R1
    858          
    859              if ( pBind->dstIdx == oldIdx )
   \   00009C   85..82       MOV     DPL,?V0 + 4
   \   00009F   85..83       MOV     DPH,?V0 + 5
   \   0000A2   A3           INC     DPTR
   \   0000A3   A3           INC     DPTR
   \   0000A4   E0           MOVX    A,@DPTR
   \   0000A5   65..         XRL     A,?V0 + 2
   \   0000A7   7004         JNZ     ??bindUpdateAddr_2
   \   0000A9   A3           INC     DPTR
   \   0000AA   E0           MOVX    A,@DPTR
   \   0000AB   65..         XRL     A,?V0 + 3
   \                     ??bindUpdateAddr_2:
   \   0000AD   700F         JNZ     ??bindUpdateAddr_3
    860              {
    861                pBind->dstIdx = newIdx;
   \   0000AF   85..82       MOV     DPL,?V0 + 4
   \   0000B2   85..83       MOV     DPH,?V0 + 5
   \   0000B5   A3           INC     DPTR
   \   0000B6   A3           INC     DPTR
   \   0000B7   E5..         MOV     A,?V0 + 6
   \   0000B9   F0           MOVX    @DPTR,A
   \   0000BA   A3           INC     DPTR
   \   0000BB   E5..         MOV     A,?V0 + 7
   \   0000BD   F0           MOVX    @DPTR,A
    862              }
    863            }
   \                     ??bindUpdateAddr_3:
   \   0000BE   EE           MOV     A,R6
   \   0000BF   2401         ADD     A,#0x1
   \   0000C1   FE           MOV     R6,A
   \   0000C2   EF           MOV     A,R7
   \   0000C3   3400         ADDC    A,#0x0
   \   0000C5   FF           MOV     R7,A
   \   0000C6   809E         SJMP    ??bindUpdateAddr_0
    864          }
   \                     ??bindUpdateAddr_1:
   \   0000C8   7409         MOV     A,#0x9
   \   0000CA   12....       LCALL   ?DEALLOC_XSTACK8
   \   0000CD   7F0C         MOV     R7,#0xc
   \   0000CF   02....       LJMP    ?BANKED_LEAVE_XDATA
    865          
    866          /*********************************************************************
    867           * @fn      bindingAddrMgsHelperFind
    868           *
    869           * @brief   Turns an zAddrType_t to an Addr Manager index
    870           *
    871           * @param   addr - zAddrType_t
    872           *
    873           * @return  INVALID_NODE_ADDR if not found, otherwise an index
    874           */

   \                                 In  segment BANKED_CODE, align 1, keep-with-next
    875          uint16 bindingAddrMgsHelperFind( zAddrType_t *addr )
   \                     bindingAddrMgsHelperFind:
    876          {
   \   000000   74F7         MOV     A,#-0x9
   \   000002   12....       LCALL   ?BANKED_ENTER_XDATA
   \   000005                ; Saved register size: 9
   \   000005                ; Auto size: 13
   \   000005   74F3         MOV     A,#-0xd
   \   000007   12....       LCALL   ?ALLOC_XSTACK8
   \   00000A   EA           MOV     A,R2
   \   00000B   FE           MOV     R6,A
   \   00000C   EB           MOV     A,R3
   \   00000D   FF           MOV     R7,A
    877            AddrMgrEntry_t entry;
    878          
    879            // Resolve addresses with the address manager
    880            entry.user = ADDRMGR_USER_BINDING;
   \   00000E   85..82       MOV     DPL,?XSP + 0
   \   000011   85..83       MOV     DPH,?XSP + 1
   \   000014   7404         MOV     A,#0x4
   \   000016   F0           MOVX    @DPTR,A
    881            if ( addr->addrMode == Addr16Bit )
   \   000017   8E82         MOV     DPL,R6
   \   000019   8F83         MOV     DPH,R7
   \   00001B   A3           INC     DPTR
   \   00001C   A3           INC     DPTR
   \   00001D   A3           INC     DPTR
   \   00001E   A3           INC     DPTR
   \   00001F   A3           INC     DPTR
   \   000020   A3           INC     DPTR
   \   000021   A3           INC     DPTR
   \   000022   A3           INC     DPTR
   \   000023   E0           MOVX    A,@DPTR
   \   000024   6402         XRL     A,#0x2
   \   000026   7023         JNZ     ??bindingAddrMgsHelperFind_0
    882            {
    883              entry.nwkAddr = addr->addr.shortAddr;
   \   000028   8E82         MOV     DPL,R6
   \   00002A   8F83         MOV     DPH,R7
   \   00002C   E0           MOVX    A,@DPTR
   \   00002D   F8           MOV     R0,A
   \   00002E   A3           INC     DPTR
   \   00002F   E0           MOVX    A,@DPTR
   \   000030   F9           MOV     R1,A
   \   000031   7401         MOV     A,#0x1
   \   000033   12....       LCALL   ?XSTACK_DISP0_8
   \   000036   E8           MOV     A,R0
   \   000037   F0           MOVX    @DPTR,A
   \   000038   A3           INC     DPTR
   \   000039   E9           MOV     A,R1
   \   00003A   F0           MOVX    @DPTR,A
    884              AddrMgrEntryLookupNwk( &entry );
   \   00003B                ; Setup parameters for call to function AddrMgrEntryLookupNwk
   \   00003B   85..82       MOV     DPL,?XSP + 0
   \   00003E   85..83       MOV     DPH,?XSP + 1
   \   000041   AA82         MOV     R2,DPL
   \   000043   AB83         MOV     R3,DPH
   \   000045   12....       LCALL   ??AddrMgrEntryLookupNwk?relay
   \   000048   E9           MOV     A,R1
   \   000049   801E         SJMP    ??bindingAddrMgsHelperFind_1
    885            }
    886            else
    887            {
    888              AddrMgrExtAddrSet( entry.extAddr, addr->addr.extAddr );
   \                     ??bindingAddrMgsHelperFind_0:
   \   00004B                ; Setup parameters for call to function AddrMgrExtAddrSet
   \   00004B   EE           MOV     A,R6
   \   00004C   FC           MOV     R4,A
   \   00004D   EF           MOV     A,R7
   \   00004E   FD           MOV     R5,A
   \   00004F   7403         MOV     A,#0x3
   \   000051   12....       LCALL   ?XSTACK_DISP0_8
   \   000054   AA82         MOV     R2,DPL
   \   000056   AB83         MOV     R3,DPH
   \   000058   12....       LCALL   ??AddrMgrExtAddrSet?relay
    889              AddrMgrEntryLookupExt( &entry );
   \   00005B                ; Setup parameters for call to function AddrMgrEntryLookupExt
   \   00005B   85..82       MOV     DPL,?XSP + 0
   \   00005E   85..83       MOV     DPH,?XSP + 1
   \   000061   AA82         MOV     R2,DPL
   \   000063   AB83         MOV     R3,DPH
   \   000065   12....       LCALL   ??AddrMgrEntryLookupExt?relay
   \   000068   E9           MOV     A,R1
    890            }
    891          
    892            return ( entry.index );
   \                     ??bindingAddrMgsHelperFind_1:
   \   000069   740B         MOV     A,#0xb
   \   00006B   12....       LCALL   ?XSTACK_DISP0_8
   \   00006E   E0           MOVX    A,@DPTR
   \   00006F   FA           MOV     R2,A
   \   000070   A3           INC     DPTR
   \   000071   E0           MOVX    A,@DPTR
   \   000072   FB           MOV     R3,A
   \   000073   740D         MOV     A,#0xd
   \   000075   12....       LCALL   ?DEALLOC_XSTACK8
   \   000078   7F01         MOV     R7,#0x1
   \   00007A   02....       LJMP    ?BANKED_LEAVE_XDATA
    893          }
    894          
    895          /*********************************************************************
    896           * @fn      bindingAddrMgsHelperConvert
    897           *
    898           * @brief   Convert an index into an zAddrType_t
    899           *
    900           * @param   idx -
    901           * @param   addr - zAddrType_t
    902           *
    903           * @return  TRUE if found, FALSE if not
    904           */

   \                                 In  segment BANKED_CODE, align 1, keep-with-next
    905          uint8 bindingAddrMgsHelperConvert( uint16 idx, zAddrType_t *addr )
   \                     bindingAddrMgsHelperConvert:
    906          {
   \   000000   74F4         MOV     A,#-0xc
   \   000002   12....       LCALL   ?BANKED_ENTER_XDATA
   \   000005                ; Saved register size: 12
   \   000005                ; Auto size: 13
   \   000005   74F3         MOV     A,#-0xd
   \   000007   12....       LCALL   ?ALLOC_XSTACK8
   \   00000A   8A..         MOV     ?V0 + 2,R2
   \   00000C   8B..         MOV     ?V0 + 3,R3
   \   00000E   EC           MOV     A,R4
   \   00000F   FE           MOV     R6,A
   \   000010   ED           MOV     A,R5
   \   000011   FF           MOV     R7,A
    907            AddrMgrEntry_t entry;
    908            uint8 stat;
    909          
    910            // Resolve addresses with the address manager
    911            entry.user = ADDRMGR_USER_BINDING;
   \   000012   85..82       MOV     DPL,?XSP + 0
   \   000015   85..83       MOV     DPH,?XSP + 1
   \   000018   7404         MOV     A,#0x4
   \   00001A   F0           MOVX    @DPTR,A
    912            entry.index = idx;
   \   00001B   740B         MOV     A,#0xb
   \   00001D   12....       LCALL   ?XSTACK_DISP0_8
   \   000020   E5..         MOV     A,?V0 + 2
   \   000022   F0           MOVX    @DPTR,A
   \   000023   A3           INC     DPTR
   \   000024   E5..         MOV     A,?V0 + 3
   \   000026   F0           MOVX    @DPTR,A
    913            stat = AddrMgrEntryGet( &entry );
   \   000027                ; Setup parameters for call to function AddrMgrEntryGet
   \   000027   85..82       MOV     DPL,?XSP + 0
   \   00002A   85..83       MOV     DPH,?XSP + 1
   \   00002D   AA82         MOV     R2,DPL
   \   00002F   AB83         MOV     R3,DPH
   \   000031   12....       LCALL   ??AddrMgrEntryGet?relay
   \   000034   E9           MOV     A,R1
   \   000035   F5..         MOV     ?V0 + 0,A
    914            if ( stat )
   \   000037   E5..         MOV     A,?V0 + 0
   \   000039   601F         JZ      ??bindingAddrMgsHelperConvert_0
    915            {
    916              addr->addrMode = Addr64Bit;
   \   00003B   8E82         MOV     DPL,R6
   \   00003D   8F83         MOV     DPH,R7
   \   00003F   A3           INC     DPTR
   \   000040   A3           INC     DPTR
   \   000041   A3           INC     DPTR
   \   000042   A3           INC     DPTR
   \   000043   A3           INC     DPTR
   \   000044   A3           INC     DPTR
   \   000045   A3           INC     DPTR
   \   000046   A3           INC     DPTR
   \   000047   7403         MOV     A,#0x3
   \   000049   F0           MOVX    @DPTR,A
    917              osal_cpyExtAddr( addr->addr.extAddr, entry.extAddr );
   \   00004A                ; Setup parameters for call to function sAddrExtCpy
   \   00004A   7403         MOV     A,#0x3
   \   00004C   12....       LCALL   ?XSTACK_DISP0_8
   \   00004F   AC82         MOV     R4,DPL
   \   000051   AD83         MOV     R5,DPH
   \   000053   EE           MOV     A,R6
   \   000054   FA           MOV     R2,A
   \   000055   EF           MOV     A,R7
   \   000056   FB           MOV     R3,A
   \   000057   12....       LCALL   ??sAddrExtCpy?relay
    918            }
    919          
    920            return ( stat );
   \                     ??bindingAddrMgsHelperConvert_0:
   \   00005A   A9..         MOV     R1,?V0 + 0
   \   00005C   740D         MOV     A,#0xd
   \   00005E   12....       LCALL   ?DEALLOC_XSTACK8
   \   000061   7F04         MOV     R7,#0x4
   \   000063   02....       LJMP    ?BANKED_LEAVE_XDATA
    921          }
    922          
    923          /*********************************************************************
    924           * @fn      bindingAddrMgsHelperConvertShort
    925           *
    926           * @brief   Convert an index into a short address
    927           *
    928           * @param   idx -
    929           *
    930           * @return  INVALID_NODE_ADDR if not available, otherwise the short address
    931           */

   \                                 In  segment BANKED_CODE, align 1, keep-with-next
    932          uint16 bindingAddrMgsHelperConvertShort( uint16 idx )
   \                     bindingAddrMgsHelperConvertShort:
    933          {
   \   000000   74F7         MOV     A,#-0x9
   \   000002   12....       LCALL   ?BANKED_ENTER_XDATA
   \   000005                ; Saved register size: 9
   \   000005                ; Auto size: 13
   \   000005   74F3         MOV     A,#-0xd
   \   000007   12....       LCALL   ?ALLOC_XSTACK8
   \   00000A   EA           MOV     A,R2
   \   00000B   FE           MOV     R6,A
   \   00000C   EB           MOV     A,R3
   \   00000D   FF           MOV     R7,A
    934            AddrMgrEntry_t entry;
    935          
    936            // Resolve addresses with the address manager
    937            entry.user = ADDRMGR_USER_BINDING;
   \   00000E   85..82       MOV     DPL,?XSP + 0
   \   000011   85..83       MOV     DPH,?XSP + 1
   \   000014   7404         MOV     A,#0x4
   \   000016   F0           MOVX    @DPTR,A
    938            entry.index = idx;
   \   000017   740B         MOV     A,#0xb
   \   000019   12....       LCALL   ?XSTACK_DISP0_8
   \   00001C   EE           MOV     A,R6
   \   00001D   F0           MOVX    @DPTR,A
   \   00001E   A3           INC     DPTR
   \   00001F   EF           MOV     A,R7
   \   000020   F0           MOVX    @DPTR,A
    939            AddrMgrEntryGet( &entry );
   \   000021                ; Setup parameters for call to function AddrMgrEntryGet
   \   000021   85..82       MOV     DPL,?XSP + 0
   \   000024   85..83       MOV     DPH,?XSP + 1
   \   000027   AA82         MOV     R2,DPL
   \   000029   AB83         MOV     R3,DPH
   \   00002B   12....       LCALL   ??AddrMgrEntryGet?relay
   \   00002E   E9           MOV     A,R1
    940          
    941            return ( entry.nwkAddr );
   \   00002F   7401         MOV     A,#0x1
   \   000031   12....       LCALL   ?XSTACK_DISP0_8
   \   000034   E0           MOVX    A,@DPTR
   \   000035   FA           MOV     R2,A
   \   000036   A3           INC     DPTR
   \   000037   E0           MOVX    A,@DPTR
   \   000038   FB           MOV     R3,A
   \   000039   740D         MOV     A,#0xd
   \   00003B   12....       LCALL   ?DEALLOC_XSTACK8
   \   00003E   7F01         MOV     R7,#0x1
   \   000040   02....       LJMP    ?BANKED_LEAVE_XDATA
    942          }
    943          
    944          /*********************************************************************
    945           * @fn      bindAddrMgrLocalLoad
    946           *
    947           * @brief   Load local(self and parent) address information into
    948           *          Address Manager
    949           *
    950           * @param   none
    951           *
    952           * @return  none
    953           */

   \                                 In  segment BANKED_CODE, align 1, keep-with-next
    954          void bindAddrMgrLocalLoad( void )
   \                     bindAddrMgrLocalLoad:
    955          {
   \   000000   74F6         MOV     A,#-0xa
   \   000002   12....       LCALL   ?BANKED_ENTER_XDATA
   \   000005                ; Saved register size: 10
   \   000005                ; Auto size: 13
   \   000005   74F3         MOV     A,#-0xd
   \   000007   12....       LCALL   ?ALLOC_XSTACK8
    956            AddrMgrEntry_t entry;
    957            uint16         parent;
    958          
    959            // add "local"(self and parent) address informtion into the Address
    960            // Manager
    961            if ( bindAddrMgrLocalLoaded == FALSE )
   \   00000A   90....       MOV     DPTR,#bindAddrMgrLocalLoaded
   \   00000D   E0           MOVX    A,@DPTR
   \   00000E   6003         JZ      $+5
   \   000010   02....       LJMP    ??bindAddrMgrLocalLoad_0 & 0xFFFF
    962            {
    963              // add the device's address information
    964              entry.user    = ADDRMGR_USER_BINDING;
   \   000013   85..82       MOV     DPL,?XSP + 0
   \   000016   85..83       MOV     DPH,?XSP + 1
   \   000019   7404         MOV     A,#0x4
   \   00001B   F0           MOVX    @DPTR,A
    965              entry.nwkAddr = _NIB.nwkDevAddress;
   \   00001C   90....       MOV     DPTR,#_NIB + 20
   \   00001F   E0           MOVX    A,@DPTR
   \   000020   F8           MOV     R0,A
   \   000021   A3           INC     DPTR
   \   000022   E0           MOVX    A,@DPTR
   \   000023   F9           MOV     R1,A
   \   000024   7401         MOV     A,#0x1
   \   000026   12....       LCALL   ?XSTACK_DISP0_8
   \   000029   E8           MOV     A,R0
   \   00002A   F0           MOVX    @DPTR,A
   \   00002B   A3           INC     DPTR
   \   00002C   E9           MOV     A,R1
   \   00002D   F0           MOVX    @DPTR,A
    966              AddrMgrExtAddrSet( entry.extAddr, NLME_GetExtAddr() );
   \   00002E                ; Setup parameters for call to function AddrMgrExtAddrSet
   \   00002E                ; Setup parameters for call to function NLME_GetExtAddr
   \   00002E   12....       LCALL   ??NLME_GetExtAddr?relay
   \   000031   EA           MOV     A,R2
   \   000032   FC           MOV     R4,A
   \   000033   EB           MOV     A,R3
   \   000034   FD           MOV     R5,A
   \   000035   7403         MOV     A,#0x3
   \   000037   12....       LCALL   ?XSTACK_DISP0_8
   \   00003A   AA82         MOV     R2,DPL
   \   00003C   AB83         MOV     R3,DPH
   \   00003E   12....       LCALL   ??AddrMgrExtAddrSet?relay
    967              AddrMgrEntryUpdate( &entry );
   \   000041                ; Setup parameters for call to function AddrMgrEntryUpdate
   \   000041   85..82       MOV     DPL,?XSP + 0
   \   000044   85..83       MOV     DPH,?XSP + 1
   \   000047   AA82         MOV     R2,DPL
   \   000049   AB83         MOV     R3,DPH
   \   00004B   12....       LCALL   ??AddrMgrEntryUpdate?relay
   \   00004E   E9           MOV     A,R1
    968          
    969              // make sure parent address is valid
    970              parent = NLME_GetCoordShortAddr();
   \   00004F                ; Setup parameters for call to function NLME_GetCoordShortAddr
   \   00004F   12....       LCALL   ??NLME_GetCoordShortAddr?relay
   \   000052   8A..         MOV     ?V0 + 0,R2
   \   000054   8B..         MOV     ?V0 + 1,R3
   \   000056   AE..         MOV     R6,?V0 + 0
   \   000058   AF..         MOV     R7,?V0 + 1
    971              if ( ( parent != entry.nwkAddr     ) &&
    972                   ( parent != INVALID_NODE_ADDR )    )
   \   00005A   7401         MOV     A,#0x1
   \   00005C   12....       LCALL   ?XSTACK_DISP0_8
   \   00005F   E0           MOVX    A,@DPTR
   \   000060   6E           XRL     A,R6
   \   000061   7003         JNZ     ??bindAddrMgrLocalLoad_1
   \   000063   A3           INC     DPTR
   \   000064   E0           MOVX    A,@DPTR
   \   000065   6F           XRL     A,R7
   \                     ??bindAddrMgrLocalLoad_1:
   \   000066   602E         JZ      ??bindAddrMgrLocalLoad_2
   \   000068   74FE         MOV     A,#-0x2
   \   00006A   6E           XRL     A,R6
   \   00006B   7003         JNZ     ??bindAddrMgrLocalLoad_3
   \   00006D   74FF         MOV     A,#-0x1
   \   00006F   6F           XRL     A,R7
   \                     ??bindAddrMgrLocalLoad_3:
   \   000070   6024         JZ      ??bindAddrMgrLocalLoad_2
    973              {
    974                // add the parent's address information
    975                entry.nwkAddr = parent;
   \   000072   7401         MOV     A,#0x1
   \   000074   12....       LCALL   ?XSTACK_DISP0_8
   \   000077   EE           MOV     A,R6
   \   000078   F0           MOVX    @DPTR,A
   \   000079   A3           INC     DPTR
   \   00007A   EF           MOV     A,R7
   \   00007B   F0           MOVX    @DPTR,A
    976                NLME_GetCoordExtAddr( entry.extAddr );
   \   00007C                ; Setup parameters for call to function NLME_GetCoordExtAddr
   \   00007C   7403         MOV     A,#0x3
   \   00007E   12....       LCALL   ?XSTACK_DISP0_8
   \   000081   AA82         MOV     R2,DPL
   \   000083   AB83         MOV     R3,DPH
   \   000085   12....       LCALL   ??NLME_GetCoordExtAddr?relay
    977                AddrMgrEntryUpdate( &entry );
   \   000088                ; Setup parameters for call to function AddrMgrEntryUpdate
   \   000088   85..82       MOV     DPL,?XSP + 0
   \   00008B   85..83       MOV     DPH,?XSP + 1
   \   00008E   AA82         MOV     R2,DPL
   \   000090   AB83         MOV     R3,DPH
   \   000092   12....       LCALL   ??AddrMgrEntryUpdate?relay
   \   000095   E9           MOV     A,R1
    978              }
    979          
    980              bindAddrMgrLocalLoaded = TRUE;
   \                     ??bindAddrMgrLocalLoad_2:
   \   000096   90....       MOV     DPTR,#bindAddrMgrLocalLoaded
   \   000099   7401         MOV     A,#0x1
   \   00009B   F0           MOVX    @DPTR,A
    981            }
    982          }
   \                     ??bindAddrMgrLocalLoad_0:
   \   00009C   740D         MOV     A,#0xd
   \   00009E   12....       LCALL   ?DEALLOC_XSTACK8
   \   0000A1   7F02         MOV     R7,#0x2
   \   0000A3   02....       LJMP    ?BANKED_LEAVE_XDATA
    983          
    984          /*********************************************************************
    985           * @fn      bindAddrIndexGet
    986           *
    987           * @brief   Get bind address index.
    988           *
    989           * @param   addr - <zAddrType_t>
    990           *
    991           * @return  (uint16) address index
    992           */

   \                                 In  segment BANKED_CODE, align 1, keep-with-next
    993          uint16 bindAddrIndexGet( zAddrType_t* addr )
   \                     bindAddrIndexGet:
    994          {
   \   000000   74F7         MOV     A,#-0x9
   \   000002   12....       LCALL   ?BANKED_ENTER_XDATA
   \   000005                ; Saved register size: 9
   \   000005                ; Auto size: 13
   \   000005   74F3         MOV     A,#-0xd
   \   000007   12....       LCALL   ?ALLOC_XSTACK8
   \   00000A   EA           MOV     A,R2
   \   00000B   FE           MOV     R6,A
   \   00000C   EB           MOV     A,R3
   \   00000D   FF           MOV     R7,A
    995            AddrMgrEntry_t entry;
    996            uint8          update;
    997          
    998            update = FALSE;
   \   00000E   75..00       MOV     ?V0 + 0,#0x0
    999          
   1000            // sync binding addresses with the address manager
   1001            entry.user = ADDRMGR_USER_BINDING;
   \   000011   85..82       MOV     DPL,?XSP + 0
   \   000014   85..83       MOV     DPH,?XSP + 1
   \   000017   7404         MOV     A,#0x4
   \   000019   F0           MOVX    @DPTR,A
   1002          
   1003            if ( addr->addrMode == Addr16Bit )
   \   00001A   8E82         MOV     DPL,R6
   \   00001C   8F83         MOV     DPH,R7
   \   00001E   A3           INC     DPTR
   \   00001F   A3           INC     DPTR
   \   000020   A3           INC     DPTR
   \   000021   A3           INC     DPTR
   \   000022   A3           INC     DPTR
   \   000023   A3           INC     DPTR
   \   000024   A3           INC     DPTR
   \   000025   A3           INC     DPTR
   \   000026   E0           MOVX    A,@DPTR
   \   000027   6402         XRL     A,#0x2
   \   000029   7028         JNZ     ??bindAddrIndexGet_0
   1004            {
   1005              entry.nwkAddr = addr->addr.shortAddr;
   \   00002B   8E82         MOV     DPL,R6
   \   00002D   8F83         MOV     DPH,R7
   \   00002F   E0           MOVX    A,@DPTR
   \   000030   F8           MOV     R0,A
   \   000031   A3           INC     DPTR
   \   000032   E0           MOVX    A,@DPTR
   \   000033   F9           MOV     R1,A
   \   000034   7401         MOV     A,#0x1
   \   000036   12....       LCALL   ?XSTACK_DISP0_8
   \   000039   E8           MOV     A,R0
   \   00003A   F0           MOVX    @DPTR,A
   \   00003B   A3           INC     DPTR
   \   00003C   E9           MOV     A,R1
   \   00003D   F0           MOVX    @DPTR,A
   1006          
   1007              if ( AddrMgrEntryLookupNwk( &entry ) == FALSE )
   \   00003E                ; Setup parameters for call to function AddrMgrEntryLookupNwk
   \   00003E   85..82       MOV     DPL,?XSP + 0
   \   000041   85..83       MOV     DPH,?XSP + 1
   \   000044   AA82         MOV     R2,DPL
   \   000046   AB83         MOV     R3,DPH
   \   000048   12....       LCALL   ??AddrMgrEntryLookupNwk?relay
   \   00004B   E9           MOV     A,R1
   \   00004C   706D         JNZ     ??bindAddrIndexGet_1
   1008              {
   1009                update = TRUE;
   \   00004E   75..01       MOV     ?V0 + 0,#0x1
   \   000051   8068         SJMP    ??bindAddrIndexGet_1
   1010              }
   1011            }
   1012            else if ( addr->addrMode == Addr64Bit )
   \                     ??bindAddrIndexGet_0:
   \   000053   8E82         MOV     DPL,R6
   \   000055   8F83         MOV     DPH,R7
   \   000057   A3           INC     DPTR
   \   000058   A3           INC     DPTR
   \   000059   A3           INC     DPTR
   \   00005A   A3           INC     DPTR
   \   00005B   A3           INC     DPTR
   \   00005C   A3           INC     DPTR
   \   00005D   A3           INC     DPTR
   \   00005E   A3           INC     DPTR
   \   00005F   E0           MOVX    A,@DPTR
   \   000060   6403         XRL     A,#0x3
   \   000062   7025         JNZ     ??bindAddrIndexGet_2
   1013            {
   1014              AddrMgrExtAddrSet( entry.extAddr, addr->addr.extAddr );
   \   000064                ; Setup parameters for call to function AddrMgrExtAddrSet
   \   000064   EE           MOV     A,R6
   \   000065   FC           MOV     R4,A
   \   000066   EF           MOV     A,R7
   \   000067   FD           MOV     R5,A
   \   000068   7403         MOV     A,#0x3
   \   00006A   12....       LCALL   ?XSTACK_DISP0_8
   \   00006D   AA82         MOV     R2,DPL
   \   00006F   AB83         MOV     R3,DPH
   \   000071   12....       LCALL   ??AddrMgrExtAddrSet?relay
   1015          
   1016              if ( AddrMgrEntryLookupExt( &entry ) == FALSE )
   \   000074                ; Setup parameters for call to function AddrMgrEntryLookupExt
   \   000074   85..82       MOV     DPL,?XSP + 0
   \   000077   85..83       MOV     DPH,?XSP + 1
   \   00007A   AA82         MOV     R2,DPL
   \   00007C   AB83         MOV     R3,DPH
   \   00007E   12....       LCALL   ??AddrMgrEntryLookupExt?relay
   \   000081   E9           MOV     A,R1
   \   000082   7037         JNZ     ??bindAddrIndexGet_1
   1017              {
   1018                update = TRUE;
   \   000084   75..01       MOV     ?V0 + 0,#0x1
   \   000087   8032         SJMP    ??bindAddrIndexGet_1
   1019              }
   1020            }
   1021            else if ( addr->addrMode == AddrGroup )
   \                     ??bindAddrIndexGet_2:
   \   000089   8E82         MOV     DPL,R6
   \   00008B   8F83         MOV     DPH,R7
   \   00008D   A3           INC     DPTR
   \   00008E   A3           INC     DPTR
   \   00008F   A3           INC     DPTR
   \   000090   A3           INC     DPTR
   \   000091   A3           INC     DPTR
   \   000092   A3           INC     DPTR
   \   000093   A3           INC     DPTR
   \   000094   A3           INC     DPTR
   \   000095   E0           MOVX    A,@DPTR
   \   000096   6401         XRL     A,#0x1
   \   000098   7015         JNZ     ??bindAddrIndexGet_3
   1022            {
   1023              entry.index = addr->addr.shortAddr;
   \   00009A   8E82         MOV     DPL,R6
   \   00009C   8F83         MOV     DPH,R7
   \   00009E   E0           MOVX    A,@DPTR
   \   00009F   F8           MOV     R0,A
   \   0000A0   A3           INC     DPTR
   \   0000A1   E0           MOVX    A,@DPTR
   \   0000A2   F9           MOV     R1,A
   \   0000A3   740B         MOV     A,#0xb
   \   0000A5   12....       LCALL   ?XSTACK_DISP0_8
   \   0000A8   E8           MOV     A,R0
   \   0000A9   F0           MOVX    @DPTR,A
   \   0000AA   A3           INC     DPTR
   \   0000AB   E9           MOV     A,R1
   \   0000AC   F0           MOVX    @DPTR,A
   \   0000AD   800C         SJMP    ??bindAddrIndexGet_1
   1024            }
   1025            else
   1026            {
   1027              entry.index = INVALID_NODE_ADDR;
   \                     ??bindAddrIndexGet_3:
   \   0000AF   740B         MOV     A,#0xb
   \   0000B1   12....       LCALL   ?XSTACK_DISP0_8
   \   0000B4   74FE         MOV     A,#-0x2
   \   0000B6   F0           MOVX    @DPTR,A
   \   0000B7   A3           INC     DPTR
   \   0000B8   74FF         MOV     A,#-0x1
   \   0000BA   F0           MOVX    @DPTR,A
   1028            }
   1029          
   1030            if ( update )
   \                     ??bindAddrIndexGet_1:
   \   0000BB   E5..         MOV     A,?V0 + 0
   \   0000BD   600E         JZ      ??bindAddrIndexGet_4
   1031            {
   1032              AddrMgrEntryUpdate( &entry );
   \   0000BF                ; Setup parameters for call to function AddrMgrEntryUpdate
   \   0000BF   85..82       MOV     DPL,?XSP + 0
   \   0000C2   85..83       MOV     DPH,?XSP + 1
   \   0000C5   AA82         MOV     R2,DPL
   \   0000C7   AB83         MOV     R3,DPH
   \   0000C9   12....       LCALL   ??AddrMgrEntryUpdate?relay
   \   0000CC   E9           MOV     A,R1
   1033            }
   1034          
   1035            return entry.index;
   \                     ??bindAddrIndexGet_4:
   \   0000CD   740B         MOV     A,#0xb
   \   0000CF   12....       LCALL   ?XSTACK_DISP0_8
   \   0000D2   E0           MOVX    A,@DPTR
   \   0000D3   FA           MOV     R2,A
   \   0000D4   A3           INC     DPTR
   \   0000D5   E0           MOVX    A,@DPTR
   \   0000D6   FB           MOV     R3,A
   \   0000D7   740D         MOV     A,#0xd
   \   0000D9   12....       LCALL   ?DEALLOC_XSTACK8
   \   0000DC   7F01         MOV     R7,#0x1
   \   0000DE   02....       LJMP    ?BANKED_LEAVE_XDATA
   1036          }
   1037          
   1038          /*********************************************************************
   1039           * @fn      GetBindingTableEntry
   1040           *
   1041           * @brief   Get a pointer to the Nth valid binding table entry.
   1042           *
   1043           * @param   Nth valid entry being requested.
   1044           *
   1045           * @return  The Nth valid binding table entry.
   1046           */

   \                                 In  segment BANKED_CODE, align 1, keep-with-next
   1047          BindingEntry_t *GetBindingTableEntry( uint16 Nth )
   \                     GetBindingTableEntry:
   1048          {
   \   000000   74F5         MOV     A,#-0xb
   \   000002   12....       LCALL   ?BANKED_ENTER_XDATA
   \   000005                ; Saved register size: 11
   \   000005                ; Auto size: 0
   \   000005   8A..         MOV     ?V0 + 0,R2
   \   000007   8B..         MOV     ?V0 + 1,R3
   1049            BindingEntry_t *rtrn = NULL;
   \   000009   7A00         MOV     R2,#0x0
   \   00000B   7B00         MOV     R3,#0x0
   1050          
   1051          #if defined ( REFLECTOR )
   1052            uint16 idx, cnt = 0;
   \   00000D   7E00         MOV     R6,#0x0
   \   00000F   7F00         MOV     R7,#0x0
   1053          
   1054            for ( idx = 0; idx < gNWK_MAX_BINDING_ENTRIES; idx++ )
   \   000011   7800         MOV     R0,#0x0
   \   000013   7900         MOV     R1,#0x0
   \                     ??GetBindingTableEntry_0:
   \   000015   90....       MOV     DPTR,#gNWK_MAX_BINDING_ENTRIES
   \   000018   E4           CLR     A
   \   000019   93           MOVC    A,@A+DPTR
   \   00001A   FC           MOV     R4,A
   \   00001B   7401         MOV     A,#0x1
   \   00001D   93           MOVC    A,@A+DPTR
   \   00001E   FD           MOV     R5,A
   \   00001F   C3           CLR     C
   \   000020   E8           MOV     A,R0
   \   000021   9C           SUBB    A,R4
   \   000022   E9           MOV     A,R1
   \   000023   9D           SUBB    A,R5
   \   000024   5078         JNC     ??GetBindingTableEntry_1
   1055            {
   1056              if ( BindingTable[idx].srcEP != NV_BIND_EMPTY )
   \   000026   E8           MOV     A,R0
   \   000027   FC           MOV     R4,A
   \   000028   E9           MOV     A,R1
   \   000029   FD           MOV     R5,A
   \   00002A   EC           MOV     A,R4
   \   00002B   75F00E       MOV     B,#0xe
   \   00002E   A4           MUL     AB
   \   00002F   CC           XCH     A,R4
   \   000030   85F0..       MOV     ?V0 + 2,B
   \   000033   75F000       MOV     B,#0x0
   \   000036   A4           MUL     AB
   \   000037   25..         ADD     A,?V0 + 2
   \   000039   F5..         MOV     ?V0 + 2,A
   \   00003B   75F00E       MOV     B,#0xe
   \   00003E   ED           MOV     A,R5
   \   00003F   A4           MUL     AB
   \   000040   25..         ADD     A,?V0 + 2
   \   000042   FD           MOV     R5,A
   \   000043   74..         MOV     A,#BindingTable & 0xff
   \   000045   2C           ADD     A,R4
   \   000046   F582         MOV     DPL,A
   \   000048   74..         MOV     A,#(BindingTable >> 8) & 0xff
   \   00004A   3D           ADDC    A,R5
   \   00004B   F583         MOV     DPH,A
   \   00004D   E0           MOVX    A,@DPTR
   \   00004E   64FF         XRL     A,#0xff
   \   000050   6041         JZ      ??GetBindingTableEntry_2
   1057              {
   1058                if ( cnt++ == Nth )
   \   000052   EE           MOV     A,R6
   \   000053   FC           MOV     R4,A
   \   000054   EF           MOV     A,R7
   \   000055   FD           MOV     R5,A
   \   000056   EC           MOV     A,R4
   \   000057   2401         ADD     A,#0x1
   \   000059   FE           MOV     R6,A
   \   00005A   ED           MOV     A,R5
   \   00005B   3400         ADDC    A,#0x0
   \   00005D   FF           MOV     R7,A
   \   00005E   E5..         MOV     A,?V0 + 0
   \   000060   6C           XRL     A,R4
   \   000061   7003         JNZ     ??GetBindingTableEntry_3
   \   000063   E5..         MOV     A,?V0 + 1
   \   000065   6D           XRL     A,R5
   \                     ??GetBindingTableEntry_3:
   \   000066   702B         JNZ     ??GetBindingTableEntry_2
   1059                {
   1060                  rtrn = BindingTable+idx;
   \   000068   E8           MOV     A,R0
   \   000069   FC           MOV     R4,A
   \   00006A   E9           MOV     A,R1
   \   00006B   FD           MOV     R5,A
   \   00006C   EC           MOV     A,R4
   \   00006D   75F00E       MOV     B,#0xe
   \   000070   A4           MUL     AB
   \   000071   CC           XCH     A,R4
   \   000072   85F0..       MOV     ?V0 + 2,B
   \   000075   75F000       MOV     B,#0x0
   \   000078   A4           MUL     AB
   \   000079   25..         ADD     A,?V0 + 2
   \   00007B   F5..         MOV     ?V0 + 2,A
   \   00007D   75F00E       MOV     B,#0xe
   \   000080   ED           MOV     A,R5
   \   000081   A4           MUL     AB
   \   000082   25..         ADD     A,?V0 + 2
   \   000084   FD           MOV     R5,A
   \   000085   74..         MOV     A,#BindingTable & 0xff
   \   000087   2C           ADD     A,R4
   \   000088   FC           MOV     R4,A
   \   000089   74..         MOV     A,#(BindingTable >> 8) & 0xff
   \   00008B   3D           ADDC    A,R5
   \   00008C   FD           MOV     R5,A
   \   00008D   EC           MOV     A,R4
   \   00008E   FA           MOV     R2,A
   \   00008F   ED           MOV     A,R5
   \   000090   FB           MOV     R3,A
   1061                  break;
   \   000091   800B         SJMP    ??GetBindingTableEntry_1
   1062                }
   1063              }
   1064            }
   \                     ??GetBindingTableEntry_2:
   \   000093   E8           MOV     A,R0
   \   000094   2401         ADD     A,#0x1
   \   000096   F8           MOV     R0,A
   \   000097   E9           MOV     A,R1
   \   000098   3400         ADDC    A,#0x0
   \   00009A   F9           MOV     R1,A
   \   00009B   02....       LJMP    ??GetBindingTableEntry_0 & 0xFFFF
   1065          #else
   1066            (void)Nth;
   1067          #endif
   1068          
   1069            return rtrn;
   \                     ??GetBindingTableEntry_1:
   \   00009E   7F03         MOV     R7,#0x3
   \   0000A0   02....       LJMP    ?BANKED_LEAVE_XDATA
   1070          }

   \                                 In  segment BANK_RELAYS, align 1
   \                     ??InitBindingTable?relay:
   \   000000   12....       LCALL   ?BDISPATCH
   \   000003   ......       DC24    InitBindingTable

   \                                 In  segment BANK_RELAYS, align 1
   \                     ??bindFindEmpty?relay:
   \   000000   12....       LCALL   ?BDISPATCH
   \   000003   ......       DC24    bindFindEmpty

   \                                 In  segment BANK_RELAYS, align 1
   \                     ??bindNumOfEntries?relay:
   \   000000   12....       LCALL   ?BDISPATCH
   \   000003   ......       DC24    bindNumOfEntries

   \                                 In  segment BANK_RELAYS, align 1
   \                     ??bindCapacity?relay:
   \   000000   12....       LCALL   ?BDISPATCH
   \   000003   ......       DC24    bindCapacity

   \                                 In  segment BANK_RELAYS, align 1
   \                     ??bindAddEntry?relay:
   \   000000   12....       LCALL   ?BDISPATCH
   \   000003   ......       DC24    bindAddEntry

   \                                 In  segment BANK_RELAYS, align 1
   \                     ??bindRemoveEntry?relay:
   \   000000   12....       LCALL   ?BDISPATCH
   \   000003   ......       DC24    bindRemoveEntry

   \                                 In  segment BANK_RELAYS, align 1
   \                     ??bindIsClusterIDinList?relay:
   \   000000   12....       LCALL   ?BDISPATCH
   \   000003   ......       DC24    bindIsClusterIDinList

   \                                 In  segment BANK_RELAYS, align 1
   \                     ??bindRemoveClusterIdFromList?relay:
   \   000000   12....       LCALL   ?BDISPATCH
   \   000003   ......       DC24    bindRemoveClusterIdFromList

   \                                 In  segment BANK_RELAYS, align 1
   \                     ??bindAddClusterIdToList?relay:
   \   000000   12....       LCALL   ?BDISPATCH
   \   000003   ......       DC24    bindAddClusterIdToList

   \                                 In  segment BANK_RELAYS, align 1
   \                     ??bindFindExisting?relay:
   \   000000   12....       LCALL   ?BDISPATCH
   \   000003   ......       DC24    bindFindExisting

   \                                 In  segment BANK_RELAYS, align 1
   \                     ??bindRemoveDev?relay:
   \   000000   12....       LCALL   ?BDISPATCH
   \   000003   ......       DC24    bindRemoveDev

   \                                 In  segment BANK_RELAYS, align 1
   \                     ??bindRemoveSrcDev?relay:
   \   000000   12....       LCALL   ?BDISPATCH
   \   000003   ......       DC24    bindRemoveSrcDev

   \                                 In  segment BANK_RELAYS, align 1
   \                     ??bindNumBoundTo?relay:
   \   000000   12....       LCALL   ?BDISPATCH
   \   000003   ......       DC24    bindNumBoundTo

   \                                 In  segment BANK_RELAYS, align 1
   \                     ??bindNumReflections?relay:
   \   000000   12....       LCALL   ?BDISPATCH
   \   000003   ......       DC24    bindNumReflections

   \                                 In  segment BANK_RELAYS, align 1
   \                     ??bindFind?relay:
   \   000000   12....       LCALL   ?BDISPATCH
   \   000003   ......       DC24    bindFind

   \                                 In  segment BANK_RELAYS, align 1
   \                     ??BindInitNV?relay:
   \   000000   12....       LCALL   ?BDISPATCH
   \   000003   ......       DC24    BindInitNV

   \                                 In  segment BANK_RELAYS, align 1
   \                     ??BindSetDefaultNV?relay:
   \   000000   12....       LCALL   ?BDISPATCH
   \   000003   ......       DC24    BindSetDefaultNV

   \                                 In  segment BANK_RELAYS, align 1
   \                     ??BindRestoreFromNV?relay:
   \   000000   12....       LCALL   ?BDISPATCH
   \   000003   ......       DC24    BindRestoreFromNV

   \                                 In  segment BANK_RELAYS, align 1
   \                     ??BindWriteNV?relay:
   \   000000   12....       LCALL   ?BDISPATCH
   \   000003   ......       DC24    BindWriteNV

   \                                 In  segment BANK_RELAYS, align 1
   \                     ??bindUpdateAddr?relay:
   \   000000   12....       LCALL   ?BDISPATCH
   \   000003   ......       DC24    bindUpdateAddr

   \                                 In  segment BANK_RELAYS, align 1
   \                     ??bindingAddrMgsHelperFind?relay:
   \   000000   12....       LCALL   ?BDISPATCH
   \   000003   ......       DC24    bindingAddrMgsHelperFind

   \                                 In  segment BANK_RELAYS, align 1
   \                     ??bindingAddrMgsHelperConvert?relay:
   \   000000   12....       LCALL   ?BDISPATCH
   \   000003   ......       DC24    bindingAddrMgsHelperConvert

   \                                 In  segment BANK_RELAYS, align 1
   \                     ??bindingAddrMgsHelperConvertShort?relay:
   \   000000   12....       LCALL   ?BDISPATCH
   \   000003   ......       DC24    bindingAddrMgsHelperConvertShort

   \                                 In  segment BANK_RELAYS, align 1
   \                     ??bindAddrMgrLocalLoad?relay:
   \   000000   12....       LCALL   ?BDISPATCH
   \   000003   ......       DC24    bindAddrMgrLocalLoad

   \                                 In  segment BANK_RELAYS, align 1
   \                     ??bindAddrIndexGet?relay:
   \   000000   12....       LCALL   ?BDISPATCH
   \   000003   ......       DC24    bindAddrIndexGet

   \                                 In  segment BANK_RELAYS, align 1
   \                     ??GetBindingTableEntry?relay:
   \   000000   12....       LCALL   ?BDISPATCH
   \   000003   ......       DC24    GetBindingTableEntry
   1071          
   1072          /*********************************************************************
   1073          *********************************************************************/

   Maximum stack usage in bytes:

     Function                       ISTACK PSTACK XSTACK
     --------                       ------ ------ ------
     BindInitNV                         2      0     12
       -> osal_nv_item_init             0      0     24
       -> BindSetDefaultNV              0      0     20
     BindRestoreFromNV                  0      0     18
       -> osal_nv_read                  0      0     36
       -> osal_nv_read                  0      0     36
     BindSetDefaultNV                   0      0     26
       -> osal_nv_write                 0      0     32
     BindWriteNV                        0      0     35
       -> osal_memcpy                   0      0     68
       -> osal_nv_write                 0      0     70
       -> osal_nv_write                 0      0     70
     GetBindingTableEntry               0      0     11
     InitBindingTable                   0      0     10
       -> osal_memset                   0      0     20
     bindAddClusterIdToList             0      0     38
     bindAddEntry                       1      0     34
       -> bindAddrMgrLocalLoad          0      0     58
       -> bindAddrIndexGet              0      0     58
       -> bindIsClusterIDinList         0      0     58
       -> bindAddClusterIdToList        0      0     58
       -> bindFindEmpty                 0      0     58
       -> osal_memcpy                   0      0     64
     bindAddrIndexGet                   0      0     51
       -> AddrMgrEntryLookupNwk         0      0     44
       -> AddrMgrExtAddrSet             0      0     44
       -> AddrMgrEntryLookupExt         0      0     44
       -> AddrMgrEntryUpdate            0      0     44
     bindAddrMgrLocalLoad               0      0     52
       -> NLME_GetExtAddr               0      0     46
       -> AddrMgrExtAddrSet             0      0     46
       -> AddrMgrEntryUpdate            0      0     46
       -> NLME_GetCoordShortAddr        0      0     46
       -> NLME_GetCoordExtAddr          0      0     46
       -> AddrMgrEntryUpdate            0      0     46
     bindCapacity                       0      0     11
     bindFind                           0      0     15
       -> bindIsClusterIDinList         0      0     30
     bindFindEmpty                      2      0     29
     bindFindExisting                   0      0     16
       -> bindingAddrMgsHelperFind      0      0     32
     bindIsClusterIDinList              0      0     38
     bindNumBoundTo                     0      0     20
       -> bindingAddrMgsHelperFind      0      0     40
     bindNumOfEntries                   0      0      9
     bindNumReflections                 0      0     16
       -> bindIsClusterIDinList         0      0     32
     bindRemoveClusterIdFromList        0      0     11
     bindRemoveDev                      0      0     14
       -> bindingAddrMgsHelperFind      0      0     28
       -> bindRemoveEntry               0      0     28
     bindRemoveEntry                    0      0     23
       -> osal_memset                   0      0     18
     bindRemoveSrcDev                   0      0      9
       -> bindRemoveEntry               0      0     18
     bindUpdateAddr                     0      0     29
       -> bindingAddrMgsHelperFind      0      0     58
       -> bindingAddrMgsHelperFind      0      0     58
     bindingAddrMgsHelperConvert        0      0     25
       -> AddrMgrEntryGet               0      0     50
       -> sAddrExtCpy                   0      0     50
     bindingAddrMgsHelperConvertShort
                                        0      0     22
       -> AddrMgrEntryGet               0      0     44
     bindingAddrMgsHelperFind           0      0     51
       -> AddrMgrEntryLookupNwk         0      0     44
       -> AddrMgrExtAddrSet             0      0     44
       -> AddrMgrEntryLookupExt         0      0     44


   Segment part sizes:

     Function/Label                           Bytes
     --------------                           -----
     bindAddrMgrLocalLoaded                      1
     pbindAddEntry                               2
     pbindNumOfEntries                           2
     pbindRemoveDev                              2
     pBindInitNV                                 2
     pBindSetDefaultNV                           2
     pBindRestoreFromNV                          2
     pBindWriteNV                                2
     InitBindingTable                          138
     bindFindEmpty                             117
     bindNumOfEntries                          130
     bindCapacity                              133
     bindAddEntry                              734
     bindRemoveEntry                            35
     bindIsClusterIDinList                      89
     bindRemoveClusterIdFromList               254
     bindAddClusterIdToList                    106
     bindFindExisting                          467
     bindRemoveDev                             360
     bindRemoveSrcDev                          126
     bindNumBoundTo                            281
     bindNumReflections                        135
     bindFind                                  142
     BindInitNV                                105
     BindSetDefaultNV                           78
     BindRestoreFromNV                         192
     BindWriteNV                               297
     bindUpdateAddr                            210
     bindingAddrMgsHelperFind                  125
     bindingAddrMgsHelperConvert               102
     bindingAddrMgsHelperConvertShort
                                                67
     bindAddrMgrLocalLoad                      166
     bindAddrIndexGet                          225
     GetBindingTableEntry                      163
     ??InitBindingTable?relay                    6
     ??bindFindEmpty?relay                       6
     ??bindNumOfEntries?relay                    6
     ??bindCapacity?relay                        6
     ??bindAddEntry?relay                        6
     ??bindRemoveEntry?relay                     6
     ??bindIsClusterIDinList?relay               6
     ??bindRemoveClusterIdFromList?relay         6
     ??bindAddClusterIdToList?relay              6
     ??bindFindExisting?relay                    6
     ??bindRemoveDev?relay                       6
     ??bindRemoveSrcDev?relay                    6
     ??bindNumBoundTo?relay                      6
     ??bindNumReflections?relay                  6
     ??bindFind?relay                            6
     ??BindInitNV?relay                          6
     ??BindSetDefaultNV?relay                    6
     ??BindRestoreFromNV?relay                   6
     ??BindWriteNV?relay                         6
     ??bindUpdateAddr?relay                      6
     ??bindingAddrMgsHelperFind?relay            6
     ??bindingAddrMgsHelperConvert?relay         6
     ??bindingAddrMgsHelperConvertShort?relay    6
     ??bindAddrMgrLocalLoad?relay                6
     ??bindAddrIndexGet?relay                    6
     ??GetBindingTableEntry?relay                6

 
 4 977 bytes in segment BANKED_CODE
   156 bytes in segment BANK_RELAYS
    15 bytes in segment XDATA_Z
 
 5 133 bytes of CODE  memory
    15 bytes of XDATA memory

Errors: none
Warnings: none
