///////////////////////////////////////////////////////////////////////////////
//                                                                            /
// IAR C/C++ Compiler V8.10.1.10194/W32 for 8051        14/Jul/2015  13:43:47 /
// Copyright 2004-2011 IAR Systems AB.                                        /
//                                                                            /
//    Core               =  plain                                             /
//    Code model         =  banked                                            /
//    Data model         =  large                                             /
//    Calling convention =  xdata reentrant                                   /
//    Constant location  =  data_rom                                          /
//    Dptr setup         =  1,16                                              /
//    Source file        =  C:\Texas Instruments\ZStack-CC2530-2.5.1a\Compone /
//                          nts\stack\nwk\BindingTable.c                      /
//    Command line       =  -f "C:\Texas Instruments\ZStack-CC2530-2.5.1a\Pro /
//                          jects\zstack\Samples\WirelessMonitorSystem\CC2530 /
//                          DB\..\..\..\Tools\CC2530DB\f8wEndev.cfg"          /
//                          (-DCPU32MHZ -DROOT=__near_func                    /
//                          -DMAC_CFG_TX_DATA_MAX=3 -DMAC_CFG_TX_MAX=6        /
//                          -DMAC_CFG_RX_MAX=3) -f "C:\Texas                  /
//                          Instruments\ZStack-CC2530-2.5.1a\Projects\zstack\ /
//                          Samples\WirelessMonitorSystem\CC2530DB\..\..\..\T /
//                          ools\CC2530DB\f8wConfig.cfg" (-DZIGBEEPRO         /
//                          -DSECURE=0 -DZG_SECURE_DYNAMIC=0 -DREFLECTOR      /
//                          -DDEFAULT_CHANLIST=0x00000800                     /
//                          -DZDAPP_CONFIG_PAN_ID=0xFFFF                      /
//                          -DNWK_START_DELAY=100 -DEXTENDED_JOINING_RANDOM_M /
//                          ASK=0x007F -DBEACON_REQUEST_DELAY=100             /
//                          -DBEACON_REQ_DELAY_MASK=0x00FF                    /
//                          -DLINK_STATUS_JITTER_MASK=0x007F                  /
//                          -DROUTE_EXPIRY_TIME=30 -DAPSC_ACK_WAIT_DURATION_P /
//                          OLLED=3000 -DNWK_INDIRECT_MSG_TIMEOUT=7           /
//                          -DMAX_RREQ_ENTRIES=8 -DAPSC_MAX_FRAME_RETRIES=3   /
//                          -DNWK_MAX_DATA_RETRIES=2                          /
//                          -DMAX_POLL_FAILURE_RETRIES=2 -DMAX_BCAST=9        /
//                          -DAPS_MAX_GROUPS=16 -DMAX_RTG_ENTRIES=40          /
//                          -DNWK_MAX_BINDING_ENTRIES=4                       /
//                          -DMAX_BINDING_CLUSTER_IDS=4                       /
//                          "-DDEFAULT_KEY={0x01, 0x03, 0x05, 0x07, 0x09,     /
//                          0x0B, 0x0D, 0x0F, 0x00, 0x02, 0x04, 0x06, 0x08,   /
//                          0x0A, 0x0C, 0x0D}" -DMAC_MAX_FRAME_SIZE=116       /
//                          -DZDNWKMGR_MIN_TRANSMISSIONS=20 "-DCONST=const    /
//                          __code" -DGENERIC=__generic                       /
//                          -DRFD_RCVC_ALWAYS_ON=FALSE -DPOLL_RATE=500        /
//                          -DQUEUED_POLL_RATE=30 -DRESPONSE_POLL_RATE=100)   /
//                          -DREJOIN_POLL_RATE=440 "C:\Texas                  /
//                          Instruments\ZStack-CC2530-2.5.1a\Components\stack /
//                          \nwk\BindingTable.c" -D HAL_UART -lC "C:\Texas    /
//                          Instruments\ZStack-CC2530-2.5.1a\Projects\zstack\ /
//                          Samples\WirelessMonitorSystem\CC2530DB\LCD\List\" /
//                           -lA "C:\Texas Instruments\ZStack-CC2530-2.5.1a\P /
//                          rojects\zstack\Samples\WirelessMonitorSystem\CC25 /
//                          30DB\LCD\List\" --diag_suppress Pe001,Pa010 -o    /
//                          "C:\Texas Instruments\ZStack-CC2530-2.5.1a\Projec /
//                          ts\zstack\Samples\WirelessMonitorSystem\CC2530DB\ /
//                          LCD\Obj\" -e --no_cse --no_unroll --no_inline     /
//                          --no_code_motion --no_tbaa --debug --core=plain   /
//                          --dptr=16,1 --data_model=large                    /
//                          --code_model=banked --calling_convention=xdata_re /
//                          entrant --place_constants=data_rom                /
//                          --nr_virtual_regs 16 -I "C:\Texas                 /
//                          Instruments\ZStack-CC2530-2.5.1a\Projects\zstack\ /
//                          Samples\WirelessMonitorSystem\CC2530DB\" -I       /
//                          "C:\Texas Instruments\ZStack-CC2530-2.5.1a\Projec /
//                          ts\zstack\Samples\WirelessMonitorSystem\CC2530DB\ /
//                          ..\Source\" -I "C:\Texas                          /
//                          Instruments\ZStack-CC2530-2.5.1a\Projects\zstack\ /
//                          Samples\WirelessMonitorSystem\CC2530DB\..\..\..\Z /
//                          Main\TI2530DB\" -I "C:\Texas                      /
//                          Instruments\ZStack-CC2530-2.5.1a\Projects\zstack\ /
//                          Samples\WirelessMonitorSystem\CC2530DB\..\..\..\. /
//                          .\..\Components\hal\include\" -I "C:\Texas        /
//                          Instruments\ZStack-CC2530-2.5.1a\Projects\zstack\ /
//                          Samples\WirelessMonitorSystem\CC2530DB\..\..\..\. /
//                          .\..\Components\hal\target\CC2530EB\" -I          /
//                          "C:\Texas Instruments\ZStack-CC2530-2.5.1a\Projec /
//                          ts\zstack\Samples\WirelessMonitorSystem\CC2530DB\ /
//                          ..\..\..\..\..\Components\mac\include\" -I        /
//                          "C:\Texas Instruments\ZStack-CC2530-2.5.1a\Projec /
//                          ts\zstack\Samples\WirelessMonitorSystem\CC2530DB\ /
//                          ..\..\..\..\..\Components\mac\high_level\" -I     /
//                          "C:\Texas Instruments\ZStack-CC2530-2.5.1a\Projec /
//                          ts\zstack\Samples\WirelessMonitorSystem\CC2530DB\ /
//                          ..\..\..\..\..\Components\mac\low_level\srf04\"   /
//                          -I "C:\Texas Instruments\ZStack-CC2530-2.5.1a\Pro /
//                          jects\zstack\Samples\WirelessMonitorSystem\CC2530 /
//                          DB\..\..\..\..\..\Components\mac\low_level\srf04\ /
//                          single_chip\" -I "C:\Texas                        /
//                          Instruments\ZStack-CC2530-2.5.1a\Projects\zstack\ /
//                          Samples\WirelessMonitorSystem\CC2530DB\..\..\..\. /
//                          .\..\Components\mt\" -I "C:\Texas                 /
//                          Instruments\ZStack-CC2530-2.5.1a\Projects\zstack\ /
//                          Samples\WirelessMonitorSystem\CC2530DB\..\..\..\. /
//                          .\..\Components\osal\include\" -I "C:\Texas       /
//                          Instruments\ZStack-CC2530-2.5.1a\Projects\zstack\ /
//                          Samples\WirelessMonitorSystem\CC2530DB\..\..\..\. /
//                          .\..\Components\services\saddr\" -I "C:\Texas     /
//                          Instruments\ZStack-CC2530-2.5.1a\Projects\zstack\ /
//                          Samples\WirelessMonitorSystem\CC2530DB\..\..\..\. /
//                          .\..\Components\services\sdata\" -I "C:\Texas     /
//                          Instruments\ZStack-CC2530-2.5.1a\Projects\zstack\ /
//                          Samples\WirelessMonitorSystem\CC2530DB\..\..\..\. /
//                          .\..\Components\stack\af\" -I "C:\Texas           /
//                          Instruments\ZStack-CC2530-2.5.1a\Projects\zstack\ /
//                          Samples\WirelessMonitorSystem\CC2530DB\..\..\..\. /
//                          .\..\Components\stack\nwk\" -I "C:\Texas          /
//                          Instruments\ZStack-CC2530-2.5.1a\Projects\zstack\ /
//                          Samples\WirelessMonitorSystem\CC2530DB\..\..\..\. /
//                          .\..\Components\stack\sapi\" -I "C:\Texas         /
//                          Instruments\ZStack-CC2530-2.5.1a\Projects\zstack\ /
//                          Samples\WirelessMonitorSystem\CC2530DB\..\..\..\. /
//                          .\..\Components\stack\sec\" -I "C:\Texas          /
//                          Instruments\ZStack-CC2530-2.5.1a\Projects\zstack\ /
//                          Samples\WirelessMonitorSystem\CC2530DB\..\..\..\. /
//                          .\..\Components\stack\sys\" -I "C:\Texas          /
//                          Instruments\ZStack-CC2530-2.5.1a\Projects\zstack\ /
//                          Samples\WirelessMonitorSystem\CC2530DB\..\..\..\. /
//                          .\..\Components\stack\zdo\" -I "C:\Texas          /
//                          Instruments\ZStack-CC2530-2.5.1a\Projects\zstack\ /
//                          Samples\WirelessMonitorSystem\CC2530DB\..\..\..\. /
//                          .\..\Components\zmac\" -I "C:\Texas               /
//                          Instruments\ZStack-CC2530-2.5.1a\Projects\zstack\ /
//                          Samples\WirelessMonitorSystem\CC2530DB\..\..\..\. /
//                          .\..\Components\zmac\f8w\" -On                    /
//                          --require_prototypes                              /
//    List file          =  C:\Texas Instruments\ZStack-CC2530-2.5.1a\Project /
//                          s\zstack\Samples\WirelessMonitorSystem\CC2530DB\L /
//                          CD\List\BindingTable.s51                          /
//                                                                            /
//                                                                            /
///////////////////////////////////////////////////////////////////////////////

        NAME BindingTable

        RTMODEL "__SystemLibrary", "CLib"
        RTMODEL "__calling_convention", "xdata_reentrant"
        RTMODEL "__code_model", "banked"
        RTMODEL "__core", "plain"
        RTMODEL "__data_model", "large"
        RTMODEL "__dptr_size", "16"
        RTMODEL "__extended_stack", "disabled"
        RTMODEL "__location_for_constants", "data"
        RTMODEL "__number_of_dptrs", "1"
        RTMODEL "__rt_version", "1"

        RSEG DOVERLAY:DATA:NOROOT(0)
        RSEG IOVERLAY:IDATA:NOROOT(0)
        RSEG ISTACK:IDATA:NOROOT(0)
        RSEG PSTACK:XDATA:NOROOT(0)
        RSEG XSTACK:XDATA:NOROOT(0)

        EXTERN ?ALLOC_XSTACK8
        EXTERN ?BANKED_ENTER_XDATA
        EXTERN ?BANKED_LEAVE_XDATA
        EXTERN ?BDISPATCH
        EXTERN ?BRET
        EXTERN ?DEALLOC_XSTACK8
        EXTERN ?PUSH_XSTACK8_C_TWO
        EXTERN ?PUSH_XSTACK_I_THREE
        EXTERN ?PUSH_XSTACK_I_TWO
        EXTERN ?V0
        EXTERN ?XSP
        EXTERN ?XSTACK_DISP0_8
        EXTERN __INIT_XDATA_Z

        PUBLIC ??BindInitNV?relay
        FUNCTION ??BindInitNV?relay,0203H
        PUBLIC ??BindRestoreFromNV?relay
        FUNCTION ??BindRestoreFromNV?relay,0203H
        PUBLIC ??BindSetDefaultNV?relay
        FUNCTION ??BindSetDefaultNV?relay,0203H
        PUBLIC ??BindWriteNV?relay
        FUNCTION ??BindWriteNV?relay,0203H
        PUBLIC ??GetBindingTableEntry?relay
        FUNCTION ??GetBindingTableEntry?relay,0203H
        PUBLIC ??InitBindingTable?relay
        FUNCTION ??InitBindingTable?relay,0203H
        PUBLIC ??bindAddClusterIdToList?relay
        FUNCTION ??bindAddClusterIdToList?relay,0203H
        PUBLIC ??bindAddEntry?relay
        FUNCTION ??bindAddEntry?relay,0203H
        PUBLIC ??bindAddrIndexGet?relay
        FUNCTION ??bindAddrIndexGet?relay,0203H
        PUBLIC ??bindAddrMgrLocalLoad?relay
        FUNCTION ??bindAddrMgrLocalLoad?relay,0203H
        PUBLIC ??bindCapacity?relay
        FUNCTION ??bindCapacity?relay,0203H
        PUBLIC ??bindFind?relay
        FUNCTION ??bindFind?relay,0203H
        PUBLIC ??bindFindEmpty?relay
        FUNCTION ??bindFindEmpty?relay,0203H
        PUBLIC ??bindFindExisting?relay
        FUNCTION ??bindFindExisting?relay,0203H
        PUBLIC ??bindIsClusterIDinList?relay
        FUNCTION ??bindIsClusterIDinList?relay,0203H
        PUBLIC ??bindNumBoundTo?relay
        FUNCTION ??bindNumBoundTo?relay,0203H
        PUBLIC ??bindNumOfEntries?relay
        FUNCTION ??bindNumOfEntries?relay,0203H
        PUBLIC ??bindNumReflections?relay
        FUNCTION ??bindNumReflections?relay,0203H
        PUBLIC ??bindRemoveClusterIdFromList?relay
        FUNCTION ??bindRemoveClusterIdFromList?relay,0203H
        PUBLIC ??bindRemoveDev?relay
        FUNCTION ??bindRemoveDev?relay,0203H
        PUBLIC ??bindRemoveEntry?relay
        FUNCTION ??bindRemoveEntry?relay,0203H
        PUBLIC ??bindRemoveSrcDev?relay
        FUNCTION ??bindRemoveSrcDev?relay,0203H
        PUBLIC ??bindUpdateAddr?relay
        FUNCTION ??bindUpdateAddr?relay,0203H
        PUBLIC ??bindingAddrMgsHelperConvert?relay
        FUNCTION ??bindingAddrMgsHelperConvert?relay,0203H
        PUBLIC ??bindingAddrMgsHelperConvertShort?relay
        FUNCTION ??bindingAddrMgsHelperConvertShort?relay,0203H
        PUBLIC ??bindingAddrMgsHelperFind?relay
        FUNCTION ??bindingAddrMgsHelperFind?relay,0203H
        PUBLIC BindInitNV
        FUNCTION BindInitNV,021603H
        ARGFRAME XSTACK, 0, STACK
        LOCFRAME ISTACK, 2, STACK
        LOCFRAME XSTACK, 12, STACK
        PUBLIC BindRestoreFromNV
        FUNCTION BindRestoreFromNV,021603H
        ARGFRAME XSTACK, 0, STACK
        LOCFRAME XSTACK, 18, STACK
        PUBLIC BindSetDefaultNV
        FUNCTION BindSetDefaultNV,021603H
        ARGFRAME XSTACK, 10, STACK
        ARGFRAME IOVERLAY, 0, STATIC
        ARGFRAME DOVERLAY, 0, STATIC
        LOCFRAME XSTACK, 16, STACK
        PUBLIC BindWriteNV
        FUNCTION BindWriteNV,021603H
        ARGFRAME XSTACK, 0, STACK
        LOCFRAME XSTACK, 35, STACK
        PUBLIC GetBindingTableEntry
        FUNCTION GetBindingTableEntry,0203H
        ARGFRAME XSTACK, 0, STACK
        LOCFRAME XSTACK, 11, STACK
        PUBLIC InitBindingTable
        FUNCTION InitBindingTable,021203H
        ARGFRAME XSTACK, 0, STACK
        LOCFRAME XSTACK, 10, STACK
        PUBLIC bindAddClusterIdToList
        FUNCTION bindAddClusterIdToList,0203H
        ARGFRAME XSTACK, 29, STACK
        ARGFRAME IOVERLAY, 0, STATIC
        ARGFRAME DOVERLAY, 0, STATIC
        LOCFRAME XSTACK, 9, STACK
        PUBLIC bindAddEntry
        FUNCTION bindAddEntry,021603H
        ARGFRAME XSTACK, 2, STACK
        LOCFRAME ISTACK, 1, STACK
        LOCFRAME XSTACK, 32, STACK
        PUBLIC bindAddrIndexGet
        FUNCTION bindAddrIndexGet,021203H
        ARGFRAME XSTACK, 29, STACK
        ARGFRAME IOVERLAY, 0, STATIC
        ARGFRAME DOVERLAY, 0, STATIC
        LOCFRAME XSTACK, 22, STACK
        PUBLIC bindAddrMgrLocalLoad
        FUNCTION bindAddrMgrLocalLoad,021203H
        ARGFRAME XSTACK, 29, STACK
        ARGFRAME IOVERLAY, 0, STATIC
        ARGFRAME DOVERLAY, 0, STATIC
        LOCFRAME XSTACK, 23, STACK
        PUBLIC bindCapacity
        FUNCTION bindCapacity,0203H
        ARGFRAME XSTACK, 0, STACK
        LOCFRAME XSTACK, 11, STACK
        PUBLIC bindFind
        FUNCTION bindFind,021203H
        ARGFRAME XSTACK, 0, STACK
        LOCFRAME XSTACK, 15, STACK
        PUBLIC bindFindEmpty
        FUNCTION bindFindEmpty,0203H
        ARGFRAME XSTACK, 29, STACK
        ARGFRAME IOVERLAY, 0, STATIC
        ARGFRAME DOVERLAY, 0, STATIC
        LOCFRAME ISTACK, 2, STACK
        PUBLIC bindFindExisting
        FUNCTION bindFindExisting,021203H
        ARGFRAME XSTACK, 0, STACK
        LOCFRAME XSTACK, 16, STACK
        PUBLIC bindIsClusterIDinList
        FUNCTION bindIsClusterIDinList,0203H
        ARGFRAME XSTACK, 29, STACK
        ARGFRAME IOVERLAY, 0, STATIC
        ARGFRAME DOVERLAY, 0, STATIC
        LOCFRAME XSTACK, 9, STACK
        PUBLIC bindNumBoundTo
        FUNCTION bindNumBoundTo,021203H
        ARGFRAME XSTACK, 0, STACK
        LOCFRAME XSTACK, 20, STACK
        PUBLIC bindNumOfEntries
        FUNCTION bindNumOfEntries,0603H
        ARGFRAME XSTACK, 0, STACK
        LOCFRAME XSTACK, 9, STACK
        PUBLIC bindNumReflections
        FUNCTION bindNumReflections,021203H
        ARGFRAME XSTACK, 0, STACK
        LOCFRAME XSTACK, 16, STACK
        PUBLIC bindRemoveClusterIdFromList
        FUNCTION bindRemoveClusterIdFromList,0203H
        ARGFRAME XSTACK, 0, STACK
        LOCFRAME XSTACK, 11, STACK
        PUBLIC bindRemoveDev
        FUNCTION bindRemoveDev,021603H
        ARGFRAME XSTACK, 0, STACK
        LOCFRAME XSTACK, 14, STACK
        PUBLIC bindRemoveEntry
        FUNCTION bindRemoveEntry,021203H
        ARGFRAME XSTACK, 14, STACK
        ARGFRAME IOVERLAY, 0, STATIC
        ARGFRAME DOVERLAY, 0, STATIC
        LOCFRAME XSTACK, 9, STACK
        PUBLIC bindRemoveSrcDev
        FUNCTION bindRemoveSrcDev,021203H
        ARGFRAME XSTACK, 0, STACK
        LOCFRAME XSTACK, 9, STACK
        PUBLIC bindUpdateAddr
        FUNCTION bindUpdateAddr,021203H
        ARGFRAME XSTACK, 0, STACK
        LOCFRAME XSTACK, 29, STACK
        PUBLIC bindingAddrMgsHelperConvert
        FUNCTION bindingAddrMgsHelperConvert,021203H
        ARGFRAME XSTACK, 0, STACK
        LOCFRAME XSTACK, 25, STACK
        PUBLIC bindingAddrMgsHelperConvertShort
        FUNCTION bindingAddrMgsHelperConvertShort,021203H
        ARGFRAME XSTACK, 0, STACK
        LOCFRAME XSTACK, 22, STACK
        PUBLIC bindingAddrMgsHelperFind
        FUNCTION bindingAddrMgsHelperFind,021203H
        ARGFRAME XSTACK, 29, STACK
        ARGFRAME IOVERLAY, 0, STATIC
        ARGFRAME DOVERLAY, 0, STATIC
        LOCFRAME XSTACK, 22, STACK
        PUBLIC pBindInitNV
        PUBLIC pBindRestoreFromNV
        PUBLIC pBindSetDefaultNV
        PUBLIC pBindWriteNV
        PUBLIC pbindAddEntry
        PUBLIC pbindNumOfEntries
        PUBLIC pbindRemoveDev
        
        CFI Names cfiNames0
        CFI StackFrame CFA_SP SP IDATA
        CFI StackFrame CFA_PSP16 PSP16 XDATA
        CFI StackFrame CFA_XSP16 XSP16 XDATA
        CFI StaticOverlayFrame CFA_IOVERLAY IOVERLAY
        CFI StaticOverlayFrame CFA_DOVERLAY DOVERLAY
        CFI Resource `PSW.CY`:1, `B.BR0`:1, `B.BR1`:1, `B.BR2`:1, `B.BR3`:1
        CFI Resource `B.BR4`:1, `B.BR5`:1, `B.BR6`:1, `B.BR7`:1, `VB.BR8`:1
        CFI Resource `VB.BR9`:1, `VB.BR10`:1, `VB.BR11`:1, `VB.BR12`:1
        CFI Resource `VB.BR13`:1, `VB.BR14`:1, `VB.BR15`:1, VB:8, B:8, A:8
        CFI Resource PSW:8, DPL0:8, DPH0:8, R0:8, R1:8, R2:8, R3:8, R4:8, R5:8
        CFI Resource R6:8, R7:8, V0:8, V1:8, V2:8, V3:8, V4:8, V5:8, V6:8, V7:8
        CFI Resource V8:8, V9:8, V10:8, V11:8, V12:8, V13:8, V14:8, V15:8, SP:8
        CFI Resource PSPH:8, PSPL:8, PSP16:16, XSPH:8, XSPL:8, XSP16:16
        CFI VirtualResource ?RET:24
        CFI Resource ?BRET_EXT:8
        CFI VirtualResource ?RET_HIGH:8, ?RET_LOW:8
        CFI ResourceParts PSP16 PSPH, PSPL
        CFI ResourceParts XSP16 XSPH, XSPL
        CFI ResourceParts ?RET ?BRET_EXT, ?RET_HIGH, ?RET_LOW
        CFI EndNames cfiNames0
        
        CFI Common cfiCommon0 Using cfiNames0
        CFI CodeAlign 1
        CFI DataAlign -1
        CFI ReturnAddress ?RET CODE
        CFI CFA_DOVERLAY Used
        CFI CFA_IOVERLAY Used
        CFI CFA_SP SP+-3
        CFI CFA_PSP16 PSP16+0
        CFI CFA_XSP16 XSP16+0
        CFI `PSW.CY` SameValue
        CFI `B.BR0` SameValue
        CFI `B.BR1` SameValue
        CFI `B.BR2` SameValue
        CFI `B.BR3` SameValue
        CFI `B.BR4` SameValue
        CFI `B.BR5` SameValue
        CFI `B.BR6` SameValue
        CFI `B.BR7` SameValue
        CFI `VB.BR8` SameValue
        CFI `VB.BR9` SameValue
        CFI `VB.BR10` SameValue
        CFI `VB.BR11` SameValue
        CFI `VB.BR12` SameValue
        CFI `VB.BR13` SameValue
        CFI `VB.BR14` SameValue
        CFI `VB.BR15` SameValue
        CFI VB SameValue
        CFI B Undefined
        CFI A Undefined
        CFI PSW SameValue
        CFI DPL0 SameValue
        CFI DPH0 SameValue
        CFI R0 Undefined
        CFI R1 Undefined
        CFI R2 Undefined
        CFI R3 Undefined
        CFI R4 Undefined
        CFI R5 Undefined
        CFI R6 SameValue
        CFI R7 SameValue
        CFI V0 SameValue
        CFI V1 SameValue
        CFI V2 SameValue
        CFI V3 SameValue
        CFI V4 SameValue
        CFI V5 SameValue
        CFI V6 SameValue
        CFI V7 SameValue
        CFI V8 SameValue
        CFI V9 SameValue
        CFI V10 SameValue
        CFI V11 SameValue
        CFI V12 SameValue
        CFI V13 SameValue
        CFI V14 SameValue
        CFI V15 SameValue
        CFI PSPH Undefined
        CFI PSPL Undefined
        CFI XSPH Undefined
        CFI XSPL Undefined
        CFI ?RET Concat
        CFI ?BRET_EXT Frame(CFA_SP, 3)
        CFI ?RET_HIGH Frame(CFA_SP, 2)
        CFI ?RET_LOW Frame(CFA_SP, 1)
        CFI EndCommon cfiCommon0
        
osal_memset         SYMBOL "osal_memset"
osal_memcpy         SYMBOL "osal_memcpy"
osal_nv_item_init   SYMBOL "osal_nv_item_init"
osal_nv_write       SYMBOL "osal_nv_write"
osal_nv_read        SYMBOL "osal_nv_read"
AddrMgrEntryLookupNwk SYMBOL "AddrMgrEntryLookupNwk"
AddrMgrExtAddrSet   SYMBOL "AddrMgrExtAddrSet"
AddrMgrEntryLookupExt SYMBOL "AddrMgrEntryLookupExt"
AddrMgrEntryGet     SYMBOL "AddrMgrEntryGet"
sAddrExtCpy         SYMBOL "sAddrExtCpy"
NLME_GetExtAddr     SYMBOL "NLME_GetExtAddr"
AddrMgrEntryUpdate  SYMBOL "AddrMgrEntryUpdate"
NLME_GetCoordShortAddr SYMBOL "NLME_GetCoordShortAddr"
NLME_GetCoordExtAddr SYMBOL "NLME_GetCoordExtAddr"
??AddrMgrEntryGet?relay SYMBOL "?relay", AddrMgrEntryGet
??AddrMgrEntryLookupExt?relay SYMBOL "?relay", AddrMgrEntryLookupExt
??AddrMgrEntryLookupNwk?relay SYMBOL "?relay", AddrMgrEntryLookupNwk
??AddrMgrEntryUpdate?relay SYMBOL "?relay", AddrMgrEntryUpdate
??AddrMgrExtAddrSet?relay SYMBOL "?relay", AddrMgrExtAddrSet
??NLME_GetCoordExtAddr?relay SYMBOL "?relay", NLME_GetCoordExtAddr
??NLME_GetCoordShortAddr?relay SYMBOL "?relay", NLME_GetCoordShortAddr
??NLME_GetExtAddr?relay SYMBOL "?relay", NLME_GetExtAddr
??osal_memcpy?relay SYMBOL "?relay", osal_memcpy
??osal_memset?relay SYMBOL "?relay", osal_memset
??osal_nv_item_init?relay SYMBOL "?relay", osal_nv_item_init
??osal_nv_read?relay SYMBOL "?relay", osal_nv_read
??osal_nv_write?relay SYMBOL "?relay", osal_nv_write
??sAddrExtCpy?relay SYMBOL "?relay", sAddrExtCpy
BindInitNV          SYMBOL "BindInitNV"
??BindInitNV?relay  SYMBOL "?relay", BindInitNV
BindRestoreFromNV   SYMBOL "BindRestoreFromNV"
??BindRestoreFromNV?relay SYMBOL "?relay", BindRestoreFromNV
BindSetDefaultNV    SYMBOL "BindSetDefaultNV"
??BindSetDefaultNV?relay SYMBOL "?relay", BindSetDefaultNV
BindWriteNV         SYMBOL "BindWriteNV"
??BindWriteNV?relay SYMBOL "?relay", BindWriteNV
GetBindingTableEntry SYMBOL "GetBindingTableEntry"
??GetBindingTableEntry?relay SYMBOL "?relay", GetBindingTableEntry
InitBindingTable    SYMBOL "InitBindingTable"
??InitBindingTable?relay SYMBOL "?relay", InitBindingTable
bindAddClusterIdToList SYMBOL "bindAddClusterIdToList"
??bindAddClusterIdToList?relay SYMBOL "?relay", bindAddClusterIdToList
bindAddEntry        SYMBOL "bindAddEntry"
??bindAddEntry?relay SYMBOL "?relay", bindAddEntry
bindAddrIndexGet    SYMBOL "bindAddrIndexGet"
??bindAddrIndexGet?relay SYMBOL "?relay", bindAddrIndexGet
bindAddrMgrLocalLoad SYMBOL "bindAddrMgrLocalLoad"
??bindAddrMgrLocalLoad?relay SYMBOL "?relay", bindAddrMgrLocalLoad
bindCapacity        SYMBOL "bindCapacity"
??bindCapacity?relay SYMBOL "?relay", bindCapacity
bindFind            SYMBOL "bindFind"
??bindFind?relay    SYMBOL "?relay", bindFind
bindFindEmpty       SYMBOL "bindFindEmpty"
??bindFindEmpty?relay SYMBOL "?relay", bindFindEmpty
bindFindExisting    SYMBOL "bindFindExisting"
??bindFindExisting?relay SYMBOL "?relay", bindFindExisting
bindIsClusterIDinList SYMBOL "bindIsClusterIDinList"
??bindIsClusterIDinList?relay SYMBOL "?relay", bindIsClusterIDinList
bindNumBoundTo      SYMBOL "bindNumBoundTo"
??bindNumBoundTo?relay SYMBOL "?relay", bindNumBoundTo
bindNumOfEntries    SYMBOL "bindNumOfEntries"
??bindNumOfEntries?relay SYMBOL "?relay", bindNumOfEntries
bindNumReflections  SYMBOL "bindNumReflections"
??bindNumReflections?relay SYMBOL "?relay", bindNumReflections
bindRemoveClusterIdFromList SYMBOL "bindRemoveClusterIdFromList"
??bindRemoveClusterIdFromList?relay SYMBOL "?relay", bindRemoveClusterIdFromList
bindRemoveDev       SYMBOL "bindRemoveDev"
??bindRemoveDev?relay SYMBOL "?relay", bindRemoveDev
bindRemoveEntry     SYMBOL "bindRemoveEntry"
??bindRemoveEntry?relay SYMBOL "?relay", bindRemoveEntry
bindRemoveSrcDev    SYMBOL "bindRemoveSrcDev"
??bindRemoveSrcDev?relay SYMBOL "?relay", bindRemoveSrcDev
bindUpdateAddr      SYMBOL "bindUpdateAddr"
??bindUpdateAddr?relay SYMBOL "?relay", bindUpdateAddr
bindingAddrMgsHelperConvert SYMBOL "bindingAddrMgsHelperConvert"
??bindingAddrMgsHelperConvert?relay SYMBOL "?relay", bindingAddrMgsHelperConvert
bindingAddrMgsHelperConvertShort SYMBOL "bindingAddrMgsHelperConvertShort"
??bindingAddrMgsHelperConvertShort?relay SYMBOL "?relay", bindingAddrMgsHelperConvertShort
bindingAddrMgsHelperFind SYMBOL "bindingAddrMgsHelperFind"
??bindingAddrMgsHelperFind?relay SYMBOL "?relay", bindingAddrMgsHelperFind

        EXTERN osal_memset
        FUNCTION osal_memset,0202H
        ARGFRAME ISTACK, 0, STACK
        ARGFRAME PSTACK, 0, STACK
        ARGFRAME XSTACK, 10, STACK
        ARGFRAME IOVERLAY, 0, STATIC
        ARGFRAME DOVERLAY, 0, STATIC
        EXTERN osal_memcpy
        FUNCTION osal_memcpy,0202H
        ARGFRAME ISTACK, 0, STACK
        ARGFRAME PSTACK, 0, STACK
        ARGFRAME XSTACK, 34, STACK
        ARGFRAME IOVERLAY, 0, STATIC
        ARGFRAME DOVERLAY, 0, STATIC
        EXTERN osal_nv_item_init
        FUNCTION osal_nv_item_init,0202H
        ARGFRAME ISTACK, 0, STACK
        ARGFRAME PSTACK, 0, STACK
        ARGFRAME XSTACK, 12, STACK
        ARGFRAME IOVERLAY, 0, STATIC
        ARGFRAME DOVERLAY, 0, STATIC
        EXTERN osal_nv_write
        FUNCTION osal_nv_write,0202H
        ARGFRAME ISTACK, 0, STACK
        ARGFRAME PSTACK, 0, STACK
        ARGFRAME XSTACK, 35, STACK
        ARGFRAME IOVERLAY, 0, STATIC
        ARGFRAME DOVERLAY, 0, STATIC
        EXTERN osal_nv_read
        FUNCTION osal_nv_read,0202H
        ARGFRAME ISTACK, 0, STACK
        ARGFRAME PSTACK, 0, STACK
        ARGFRAME XSTACK, 18, STACK
        ARGFRAME IOVERLAY, 0, STATIC
        ARGFRAME DOVERLAY, 0, STATIC
        EXTERN AddrMgrEntryLookupNwk
        FUNCTION AddrMgrEntryLookupNwk,0202H
        ARGFRAME ISTACK, 0, STACK
        ARGFRAME PSTACK, 0, STACK
        ARGFRAME XSTACK, 22, STACK
        ARGFRAME IOVERLAY, 0, STATIC
        ARGFRAME DOVERLAY, 0, STATIC
        EXTERN AddrMgrExtAddrSet
        FUNCTION AddrMgrExtAddrSet,0202H
        ARGFRAME ISTACK, 0, STACK
        ARGFRAME PSTACK, 0, STACK
        ARGFRAME XSTACK, 23, STACK
        ARGFRAME IOVERLAY, 0, STATIC
        ARGFRAME DOVERLAY, 0, STATIC
        EXTERN AddrMgrEntryLookupExt
        FUNCTION AddrMgrEntryLookupExt,0202H
        ARGFRAME ISTACK, 0, STACK
        ARGFRAME PSTACK, 0, STACK
        ARGFRAME XSTACK, 22, STACK
        ARGFRAME IOVERLAY, 0, STATIC
        ARGFRAME DOVERLAY, 0, STATIC
        EXTERN AddrMgrEntryGet
        FUNCTION AddrMgrEntryGet,0202H
        ARGFRAME ISTACK, 0, STACK
        ARGFRAME PSTACK, 0, STACK
        ARGFRAME XSTACK, 25, STACK
        ARGFRAME IOVERLAY, 0, STATIC
        ARGFRAME DOVERLAY, 0, STATIC
        EXTERN sAddrExtCpy
        FUNCTION sAddrExtCpy,0202H
        ARGFRAME ISTACK, 0, STACK
        ARGFRAME PSTACK, 0, STACK
        ARGFRAME XSTACK, 25, STACK
        ARGFRAME IOVERLAY, 0, STATIC
        ARGFRAME DOVERLAY, 0, STATIC
        EXTERN NLME_GetExtAddr
        FUNCTION NLME_GetExtAddr,0202H
        ARGFRAME ISTACK, 0, STACK
        ARGFRAME PSTACK, 0, STACK
        ARGFRAME XSTACK, 23, STACK
        ARGFRAME IOVERLAY, 0, STATIC
        ARGFRAME DOVERLAY, 0, STATIC
        EXTERN AddrMgrEntryUpdate
        FUNCTION AddrMgrEntryUpdate,0202H
        ARGFRAME ISTACK, 0, STACK
        ARGFRAME PSTACK, 0, STACK
        ARGFRAME XSTACK, 23, STACK
        ARGFRAME IOVERLAY, 0, STATIC
        ARGFRAME DOVERLAY, 0, STATIC
        EXTERN NLME_GetCoordShortAddr
        FUNCTION NLME_GetCoordShortAddr,0202H
        ARGFRAME ISTACK, 0, STACK
        ARGFRAME PSTACK, 0, STACK
        ARGFRAME XSTACK, 23, STACK
        ARGFRAME IOVERLAY, 0, STATIC
        ARGFRAME DOVERLAY, 0, STATIC
        EXTERN NLME_GetCoordExtAddr
        FUNCTION NLME_GetCoordExtAddr,0202H
        ARGFRAME ISTACK, 0, STACK
        ARGFRAME PSTACK, 0, STACK
        ARGFRAME XSTACK, 23, STACK
        ARGFRAME IOVERLAY, 0, STATIC
        ARGFRAME DOVERLAY, 0, STATIC
        EXTERN ??AddrMgrEntryGet?relay
        FUNCTION ??AddrMgrEntryGet?relay,00H
        EXTERN ??AddrMgrEntryLookupExt?relay
        FUNCTION ??AddrMgrEntryLookupExt?relay,00H
        EXTERN ??AddrMgrEntryLookupNwk?relay
        FUNCTION ??AddrMgrEntryLookupNwk?relay,00H
        EXTERN ??AddrMgrEntryUpdate?relay
        FUNCTION ??AddrMgrEntryUpdate?relay,00H
        EXTERN ??AddrMgrExtAddrSet?relay
        FUNCTION ??AddrMgrExtAddrSet?relay,00H
        EXTERN ??NLME_GetCoordExtAddr?relay
        FUNCTION ??NLME_GetCoordExtAddr?relay,00H
        EXTERN ??NLME_GetCoordShortAddr?relay
        FUNCTION ??NLME_GetCoordShortAddr?relay,00H
        EXTERN ??NLME_GetExtAddr?relay
        FUNCTION ??NLME_GetExtAddr?relay,00H
        EXTERN ??osal_memcpy?relay
        FUNCTION ??osal_memcpy?relay,00H
        EXTERN ??osal_memset?relay
        FUNCTION ??osal_memset?relay,00H
        EXTERN ??osal_nv_item_init?relay
        FUNCTION ??osal_nv_item_init?relay,00H
        EXTERN ??osal_nv_read?relay
        FUNCTION ??osal_nv_read?relay,00H
        EXTERN ??osal_nv_write?relay
        FUNCTION ??osal_nv_write?relay,00H
        EXTERN ??sAddrExtCpy?relay
        FUNCTION ??sAddrExtCpy?relay,00H
        EXTERN BindingTable
        EXTERN _NIB
        EXTERN gBIND_REC_SIZE
        EXTERN gMAX_BINDING_CLUSTER_IDS
        EXTERN gNWK_MAX_BINDING_ENTRIES

// C:\Texas Instruments\ZStack-CC2530-2.5.1a\Components\stack\nwk\BindingTable.c
//    1 /**************************************************************************************************
//    2   Filename:       BindingTable.c
//    3   Revised:        $Date: 2012-03-28 15:40:50 -0700 (Wed, 28 Mar 2012) $
//    4   Revision:       $Revision: 29930 $
//    5 
//    6   Description:    Device binding table functions.
//    7 
//    8 
//    9   Copyright 2004-2012 Texas Instruments Incorporated. All rights reserved.
//   10 
//   11   IMPORTANT: Your use of this Software is limited to those specific rights
//   12   granted under the terms of a software license agreement between the user
//   13   who downloaded the software, his/her employer (which must be your employer)
//   14   and Texas Instruments Incorporated (the "License"). You may not use this
//   15   Software unless you agree to abide by the terms of the License. The License
//   16   limits your use, and you acknowledge, that the Software may not be modified,
//   17   copied or distributed unless embedded on a Texas Instruments microcontroller
//   18   or used solely and exclusively in conjunction with a Texas Instruments radio
//   19   frequency transceiver, which is integrated into your product. Other than for
//   20   the foregoing purpose, you may not use, reproduce, copy, prepare derivative
//   21   works of, modify, distribute, perform, display or sell this Software and/or
//   22   its documentation for any purpose.
//   23 
//   24   YOU FURTHER ACKNOWLEDGE AND AGREE THAT THE SOFTWARE AND DOCUMENTATION ARE
//   25   PROVIDED “AS IS” WITHOUT WARRANTY OF ANY KIND, EITHER EXPRESS OR IMPLIED,
//   26   INCLUDING WITHOUT LIMITATION, ANY WARRANTY OF MERCHANTABILITY, TITLE,
//   27   NON-INFRINGEMENT AND FITNESS FOR A PARTICULAR PURPOSE. IN NO EVENT SHALL
//   28   TEXAS INSTRUMENTS OR ITS LICENSORS BE LIABLE OR OBLIGATED UNDER CONTRACT,
//   29   NEGLIGENCE, STRICT LIABILITY, CONTRIBUTION, BREACH OF WARRANTY, OR OTHER
//   30   LEGAL EQUITABLE THEORY ANY DIRECT OR INDIRECT DAMAGES OR EXPENSES
//   31   INCLUDING BUT NOT LIMITED TO ANY INCIDENTAL, SPECIAL, INDIRECT, PUNITIVE
//   32   OR CONSEQUENTIAL DAMAGES, LOST PROFITS OR LOST DATA, COST OF PROCUREMENT
//   33   OF SUBSTITUTE GOODS, TECHNOLOGY, SERVICES, OR ANY CLAIMS BY THIRD PARTIES
//   34   (INCLUDING BUT NOT LIMITED TO ANY DEFENSE THEREOF), OR OTHER SIMILAR COSTS.
//   35 
//   36   Should you have any questions regarding your right to use this Software,
//   37   contact Texas Instruments Incorporated at www.TI.com.
//   38 **************************************************************************************************/
//   39 
//   40 /*********************************************************************
//   41  * INCLUDES
//   42  */
//   43 #include "ZComDef.h"
//   44 #include "OSAL.h"
//   45 #include "OSAL_Nv.h"
//   46 #include "nwk_globals.h"
//   47 #include "AddrMgr.h"
//   48 #include "BindingTable.h"
//   49 
//   50 /*********************************************************************
//   51  * MACROS
//   52  */
//   53 
//   54 /*********************************************************************
//   55  * CONSTANTS
//   56  */
//   57 #define NV_BIND_EMPTY   0xFF
//   58 #define NV_BIND_REC_SIZE (gBIND_REC_SIZE)
//   59 #define NV_BIND_ITEM_SIZE  (gBIND_REC_SIZE * gNWK_MAX_BINDING_ENTRIES)
//   60 
//   61 /*********************************************************************
//   62  * TYPEDEFS
//   63  */
//   64 typedef struct
//   65 {
//   66   uint8        srcEP;
//   67   uint16       srcIndex;
//   68   uint16       dstIndex;
//   69   uint8        dstEP;
//   70   uint8        dstAddrMode;
//   71   uint8        clusterIDs;
//   72   uint16*      clusterIDList;
//   73 } bindFields_t;
//   74 
//   75 /*********************************************************************
//   76  * GLOBAL VARIABLES
//   77  */
//   78 
//   79 /*********************************************************************
//   80  * LOCAL FUNCTIONS
//   81  */
//   82 void BindAddrMgrCB( uint8 update, AddrMgrEntry_t *entryOld,
//   83                     AddrMgrEntry_t *entryNew );
//   84 BindingEntry_t *bindFindEmpty( void );
//   85 uint16 bindingAddrMgsHelperFind( zAddrType_t *addr );
//   86 uint8 bindingAddrMgsHelperConvert( uint16 idx, zAddrType_t *addr );
//   87 void bindAddrMgrLocalLoad( void );
//   88 uint16 bindAddrIndexGet( zAddrType_t* addr );
//   89 
//   90 /*********************************************************************
//   91  * LOCAL VARIABLES
//   92  */

        RSEG XDATA_Z:XDATA:NOROOT(0)
        DATA8
//   93 static uint8 bindAddrMgrLocalLoaded = FALSE;
bindAddrMgrLocalLoaded:
        DS 1
        REQUIRE __INIT_XDATA_Z
//   94 
//   95 /*********************************************************************
//   96  * Function Pointers
//   97  */
//   98 

        RSEG XDATA_Z:XDATA:NOROOT(0)
        DATA16
//   99 BindingEntry_t *(*pbindAddEntry)( byte srcEpInt,
pbindAddEntry:
        DS 2
        REQUIRE __INIT_XDATA_Z
//  100                                   zAddrType_t *dstAddr, byte dstEpInt,
//  101                                   byte numClusterIds, uint16 *clusterIds ) = (void*)NULL;

        RSEG XDATA_Z:XDATA:NOROOT(0)
        DATA16
//  102 uint16 (*pbindNumOfEntries)( void ) = (void*)NULL;
pbindNumOfEntries:
        DS 2
        REQUIRE __INIT_XDATA_Z

        RSEG XDATA_Z:XDATA:NOROOT(0)
        DATA16
//  103 void (*pbindRemoveDev)( zAddrType_t *Addr ) = (void*)NULL;
pbindRemoveDev:
        DS 2
        REQUIRE __INIT_XDATA_Z

        RSEG XDATA_Z:XDATA:NOROOT(0)
        DATA16
//  104 byte (*pBindInitNV)( void ) = (void*)NULL;
pBindInitNV:
        DS 2
        REQUIRE __INIT_XDATA_Z

        RSEG XDATA_Z:XDATA:NOROOT(0)
        DATA16
//  105 void (*pBindSetDefaultNV)( void ) = (void*)NULL;
pBindSetDefaultNV:
        DS 2
        REQUIRE __INIT_XDATA_Z

        RSEG XDATA_Z:XDATA:NOROOT(0)
        DATA16
//  106 uint16 (*pBindRestoreFromNV)( void ) = (void*)NULL;
pBindRestoreFromNV:
        DS 2
        REQUIRE __INIT_XDATA_Z

        RSEG XDATA_Z:XDATA:NOROOT(0)
        DATA16
//  107 void (*pBindWriteNV)( void ) = (void*)NULL;
pBindWriteNV:
        DS 2
        REQUIRE __INIT_XDATA_Z
//  108 
//  109 #if ( ADDRMGR_CALLBACK_ENABLED == 1 )
//  110 /*********************************************************************
//  111  * @fn      BindAddrMgrCB()
//  112  *
//  113  * @brief   Address Manager Callback function
//  114  *
//  115  * @param   update -
//  116  * @param   entry -
//  117  *
//  118  * @return  pointer to
//  119  */
//  120 void BindAddrMgrCB( uint8 update, AddrMgrEntry_t *entryNew,
//  121                     AddrMgrEntry_t *entryOld )
//  122 {
//  123   // Check for either deleted items or changed Extended (Duplicate) addresses
//  124 }
//  125 #endif // ( ADDRMGR_CALLBACK_ENABLED == 1 )
//  126 
//  127 /*********************************************************************
//  128  * @fn      InitBindingTable()
//  129  *
//  130  * @brief
//  131  *
//  132  *   This function is used to initialise the binding table
//  133  *
//  134  * @param   none
//  135  *
//  136  * @return  none
//  137  */

        RSEG BANKED_CODE:CODE:NOROOT(0)
//  138 void InitBindingTable( void )
InitBindingTable:
        CFI Block cfiBlock0 Using cfiCommon0
        CFI Function InitBindingTable
        CODE
//  139 {
        FUNCALL InitBindingTable, osal_memset
        LOCFRAME ISTACK, 0, STACK
        LOCFRAME PSTACK, 0, STACK
        LOCFRAME XSTACK, 10, STACK
        LOCFRAME IOVERLAY, 0, STATIC
        LOCFRAME DOVERLAY, 0, STATIC
        ARGFRAME ISTACK, 0, STACK
        ARGFRAME PSTACK, 0, STACK
        ARGFRAME XSTACK, 10, STACK
        ARGFRAME IOVERLAY, 0, STATIC
        ARGFRAME DOVERLAY, 0, STATIC
        MOV     A,#-0xa
        LCALL   ?BANKED_ENTER_XDATA
        CFI DPH0 load(1, XDATA, add(CFA_XSP16, literal(-1)))
        CFI DPL0 load(1, XDATA, add(CFA_XSP16, literal(-2)))
        CFI ?BRET_EXT load(1, XDATA, add(CFA_XSP16, literal(-3)))
        CFI ?RET_HIGH load(1, XDATA, add(CFA_XSP16, literal(-4)))
        CFI ?RET_LOW load(1, XDATA, add(CFA_XSP16, literal(-5)))
        CFI R7 load(1, XDATA, add(CFA_XSP16, literal(-6)))
        CFI V1 load(1, XDATA, add(CFA_XSP16, literal(-7)))
        CFI V0 load(1, XDATA, add(CFA_XSP16, literal(-8)))
        CFI VB load(1, XDATA, add(CFA_XSP16, literal(-9)))
        CFI R6 load(1, XDATA, add(CFA_XSP16, literal(-10)))
        CFI CFA_SP SP+0
        CFI CFA_XSP16 add(XSP16, 10)
        ; Saved register size: 10
        ; Auto size: 0
//  140   osal_memset( BindingTable, 0xFF, gBIND_REC_SIZE * gNWK_MAX_BINDING_ENTRIES );
        ; Setup parameters for call to function osal_memset
        MOV     DPTR,#gBIND_REC_SIZE
        CLR     A
        MOVC    A,@A+DPTR
        MOV     R4,A
        MOV     A,#0x1
        MOVC    A,@A+DPTR
        MOV     R5,A
        MOV     DPTR,#gNWK_MAX_BINDING_ENTRIES
        CLR     A
        MOVC    A,@A+DPTR
        MOV     ?V0 + 0,A
        MOV     A,#0x1
        MOVC    A,@A+DPTR
        MOV     ?V0 + 1,A
        MOV     A,R4
        MOV     B,?V0 + 0
        MUL     AB
        XCH     A,R4
        MOV     R0,B
        MOV     B,?V0 + 1
        MUL     AB
        ADD     A,R0
        MOV     R0,A
        MOV     B,?V0 + 0
        MOV     A,R5
        MUL     AB
        ADD     A,R0
        MOV     R5,A
        MOV     R1,#-0x1
        MOV     R2,#BindingTable & 0xff
        MOV     R3,#(BindingTable >> 8) & 0xff
        LCALL   ??osal_memset?relay
//  141 
//  142   pbindAddEntry = bindAddEntry;
        MOV     DPTR,#pbindAddEntry
        MOV     A,#??bindAddEntry?relay & 0xff
        MOVX    @DPTR,A
        INC     DPTR
        MOV     A,#(??bindAddEntry?relay >> 8) & 0xff
        MOVX    @DPTR,A
//  143   pbindNumOfEntries = bindNumOfEntries;
        MOV     DPTR,#pbindNumOfEntries
        MOV     A,#??bindNumOfEntries?relay & 0xff
        MOVX    @DPTR,A
        INC     DPTR
        MOV     A,#(??bindNumOfEntries?relay >> 8) & 0xff
        MOVX    @DPTR,A
//  144   pbindRemoveDev = bindRemoveDev;
        MOV     DPTR,#pbindRemoveDev
        MOV     A,#??bindRemoveDev?relay & 0xff
        MOVX    @DPTR,A
        INC     DPTR
        MOV     A,#(??bindRemoveDev?relay >> 8) & 0xff
        MOVX    @DPTR,A
//  145   pBindInitNV = BindInitNV;
        MOV     DPTR,#pBindInitNV
        MOV     A,#??BindInitNV?relay & 0xff
        MOVX    @DPTR,A
        INC     DPTR
        MOV     A,#(??BindInitNV?relay >> 8) & 0xff
        MOVX    @DPTR,A
//  146   pBindSetDefaultNV = BindSetDefaultNV;
        MOV     DPTR,#pBindSetDefaultNV
        MOV     A,#??BindSetDefaultNV?relay & 0xff
        MOVX    @DPTR,A
        INC     DPTR
        MOV     A,#(??BindSetDefaultNV?relay >> 8) & 0xff
        MOVX    @DPTR,A
//  147   pBindRestoreFromNV = BindRestoreFromNV;
        MOV     DPTR,#pBindRestoreFromNV
        MOV     A,#??BindRestoreFromNV?relay & 0xff
        MOVX    @DPTR,A
        INC     DPTR
        MOV     A,#(??BindRestoreFromNV?relay >> 8) & 0xff
        MOVX    @DPTR,A
//  148   pBindWriteNV = BindWriteNV;
        MOV     DPTR,#pBindWriteNV
        MOV     A,#??BindWriteNV?relay & 0xff
        MOVX    @DPTR,A
        INC     DPTR
        MOV     A,#(??BindWriteNV?relay >> 8) & 0xff
        MOVX    @DPTR,A
//  149 
//  150   bindAddrMgrLocalLoaded = FALSE;
        MOV     DPTR,#bindAddrMgrLocalLoaded
        MOV     A,#0x0
        MOVX    @DPTR,A
//  151 
//  152 #if ( ADDRMGR_CALLBACK_ENABLED == 1 )
//  153   // Register with the address manager
//  154   AddrMgrRegister( ADDRMGR_REG_BINDING, BindAddrMgrCB );
//  155 #endif
//  156 }
        MOV     R7,#0x2
        LJMP    ?BANKED_LEAVE_XDATA
        CFI EndBlock cfiBlock0
//  157 
//  158 /*********************************************************************
//  159  * @fn      bindFindEmpty()
//  160  *
//  161  * @brief   This function returns a pointer to an empty binding slot
//  162  *
//  163  * @param   none
//  164  *
//  165  * @return  pointer to binding table entry, NULL if not added
//  166  */

        RSEG BANKED_CODE:CODE:NOROOT(0)
//  167 BindingEntry_t *bindFindEmpty( void )
bindFindEmpty:
        CFI Block cfiBlock1 Using cfiCommon0
        CFI Function bindFindEmpty
        CODE
//  168 {
        PUSH    DPL
        CFI DPL0 Frame(CFA_SP, 4)
        CFI CFA_SP SP+-4
        PUSH    DPH
        CFI DPH0 Frame(CFA_SP, 5)
        CFI CFA_SP SP+-5
        ; Saved register size: 2
        ; Auto size: 0
//  169   uint16 x;
//  170 
//  171   for ( x = 0; x < gNWK_MAX_BINDING_ENTRIES; x++ )
        MOV     R0,#0x0
        MOV     R1,#0x0
??bindFindEmpty_0:
        MOV     DPTR,#gNWK_MAX_BINDING_ENTRIES
        CLR     A
        MOVC    A,@A+DPTR
        MOV     R2,A
        MOV     A,#0x1
        MOVC    A,@A+DPTR
        MOV     R3,A
        CLR     C
        MOV     A,R0
        SUBB    A,R2
        MOV     A,R1
        SUBB    A,R3
        JNC     ??bindFindEmpty_1
//  172   {
//  173     // It's empty if the index is "Not Found"
//  174     if ( BindingTable[x].srcEP == NV_BIND_EMPTY )
        MOV     A,R0
        MOV     R2,A
        MOV     A,R1
        MOV     R3,A
        MOV     A,R2
        MOV     B,#0xe
        MUL     AB
        XCH     A,R2
        MOV     R4,B
        MOV     B,#0x0
        MUL     AB
        ADD     A,R4
        MOV     R4,A
        MOV     B,#0xe
        MOV     A,R3
        MUL     AB
        ADD     A,R4
        MOV     R3,A
        MOV     A,#BindingTable & 0xff
        ADD     A,R2
        MOV     DPL,A
        MOV     A,#(BindingTable >> 8) & 0xff
        ADDC    A,R3
        MOV     DPH,A
        MOVX    A,@DPTR
        XRL     A,#0xff
        JNZ     ??bindFindEmpty_2
//  175     {
//  176       return ( &BindingTable[x] );
        MOV     A,R0
        MOV     B,#0xe
        MUL     AB
        XCH     A,R0
        MOV     R2,B
        MOV     B,#0x0
        MUL     AB
        ADD     A,R2
        MOV     R2,A
        MOV     B,#0xe
        MOV     A,R1
        MUL     AB
        ADD     A,R2
        MOV     R1,A
        MOV     A,#BindingTable & 0xff
        ADD     A,R0
        MOV     R2,A
        MOV     A,#(BindingTable >> 8) & 0xff
        ADDC    A,R1
        MOV     R3,A
        SJMP    ??bindFindEmpty_3
//  177     }
//  178   }
??bindFindEmpty_2:
        MOV     A,R0
        ADD     A,#0x1
        MOV     R0,A
        MOV     A,R1
        ADDC    A,#0x0
        MOV     R1,A
        SJMP    ??bindFindEmpty_0
//  179 
//  180   return ( (BindingEntry_t *)NULL );
??bindFindEmpty_1:
        MOV     R2,#0x0
        MOV     R3,#0x0
??bindFindEmpty_3:
        POP     DPH
        CFI DPH0 SameValue
        CFI CFA_SP SP+-4
        POP     DPL
        CFI DPL0 SameValue
        CFI CFA_SP SP+-3
        LJMP    ?BRET
        CFI EndBlock cfiBlock1
//  181 }
//  182 
//  183 /*********************************************************************
//  184  * @fn      bindNumOfEntries()
//  185  *
//  186  * @brief   This function returns the number of binding table entries.
//  187  *          The return for this is the number of clusters in the
//  188  *          table NOT the number of entries.
//  189  *
//  190  * @param   none
//  191  *
//  192  * @return  number of entries
//  193  */

        RSEG BANKED_CODE:CODE:NOROOT(0)
//  194 uint16 bindNumOfEntries( void )
bindNumOfEntries:
        CFI Block cfiBlock2 Using cfiCommon0
        CFI Function bindNumOfEntries
        CODE
//  195 {
        MOV     A,#-0x9
        LCALL   ?BANKED_ENTER_XDATA
        CFI DPH0 load(1, XDATA, add(CFA_XSP16, literal(-1)))
        CFI DPL0 load(1, XDATA, add(CFA_XSP16, literal(-2)))
        CFI ?BRET_EXT load(1, XDATA, add(CFA_XSP16, literal(-3)))
        CFI ?RET_HIGH load(1, XDATA, add(CFA_XSP16, literal(-4)))
        CFI ?RET_LOW load(1, XDATA, add(CFA_XSP16, literal(-5)))
        CFI R7 load(1, XDATA, add(CFA_XSP16, literal(-6)))
        CFI V0 load(1, XDATA, add(CFA_XSP16, literal(-7)))
        CFI VB load(1, XDATA, add(CFA_XSP16, literal(-8)))
        CFI R6 load(1, XDATA, add(CFA_XSP16, literal(-9)))
        CFI CFA_SP SP+0
        CFI CFA_XSP16 add(XSP16, 9)
        ; Saved register size: 9
        ; Auto size: 0
//  196   uint16 x;
//  197   uint16 found;
//  198 
//  199   for ( found = 0, x = 0; x < gNWK_MAX_BINDING_ENTRIES; x++ )
        MOV     R2,#0x0
        MOV     R3,#0x0
        MOV     R0,#0x0
        MOV     R1,#0x0
??bindNumOfEntries_0:
        MOV     DPTR,#gNWK_MAX_BINDING_ENTRIES
        CLR     A
        MOVC    A,@A+DPTR
        MOV     R4,A
        MOV     A,#0x1
        MOVC    A,@A+DPTR
        MOV     R5,A
        CLR     C
        MOV     A,R0
        SUBB    A,R4
        MOV     A,R1
        SUBB    A,R5
        JNC     ??bindNumOfEntries_1
//  200   {
//  201     // It's empty if the index is "Not Found"
//  202     if ( BindingTable[x].srcEP != NV_BIND_EMPTY )
        MOV     A,R0
        MOV     R4,A
        MOV     A,R1
        MOV     R5,A
        MOV     A,R4
        MOV     B,#0xe
        MUL     AB
        XCH     A,R4
        MOV     R6,B
        MOV     B,#0x0
        MUL     AB
        ADD     A,R6
        MOV     R6,A
        MOV     B,#0xe
        MOV     A,R5
        MUL     AB
        ADD     A,R6
        MOV     R5,A
        MOV     A,#BindingTable & 0xff
        ADD     A,R4
        MOV     DPL,A
        MOV     A,#(BindingTable >> 8) & 0xff
        ADDC    A,R5
        MOV     DPH,A
        MOVX    A,@DPTR
        XRL     A,#0xff
        JZ      ??bindNumOfEntries_2
//  203     {
//  204       found += BindingTable[x].numClusterIds;
        MOV     A,R0
        MOV     R4,A
        MOV     A,R1
        MOV     R5,A
        MOV     A,R4
        MOV     B,#0xe
        MUL     AB
        XCH     A,R4
        MOV     R6,B
        MOV     B,#0x0
        MUL     AB
        ADD     A,R6
        MOV     R6,A
        MOV     B,#0xe
        MOV     A,R5
        MUL     AB
        ADD     A,R6
        MOV     R5,A
        MOV     A,#(BindingTable + 5) & 0xff
        ADD     A,R4
        MOV     DPL,A
        MOV     A,#((BindingTable + 5) >> 8) & 0xff
        ADDC    A,R5
        MOV     DPH,A
        MOVX    A,@DPTR
        MOV     R4,A
        MOV     R5,#0x0
        MOV     A,R2
        ADD     A,R4
        MOV     R2,A
        MOV     A,R3
        ADDC    A,R5
        MOV     R3,A
//  205     }
//  206   }
??bindNumOfEntries_2:
        MOV     A,R0
        ADD     A,#0x1
        MOV     R0,A
        MOV     A,R1
        ADDC    A,#0x0
        MOV     R1,A
        SJMP    ??bindNumOfEntries_0
//  207 
//  208   return ( found );
??bindNumOfEntries_1:
        MOV     R7,#0x1
        LJMP    ?BANKED_LEAVE_XDATA
        CFI EndBlock cfiBlock2
//  209 }
//  210 
//  211 /*********************************************************************
//  212  * @fn      bindCapacity()
//  213  *
//  214  * @brief   This function returns the number of binding entries
//  215  *          possible and used.
//  216  *
//  217  * @param   maxEntries - pointer to a place to put the max entries
//  218  * @param   usedEntries - pointer to a place to put the number
//  219  *               of used entries
//  220  *
//  221  * @return  none
//  222  */

        RSEG BANKED_CODE:CODE:NOROOT(0)
//  223 void bindCapacity( uint16 *maxEntries, uint16 *usedEntries  )
bindCapacity:
        CFI Block cfiBlock3 Using cfiCommon0
        CFI Function bindCapacity
        CODE
//  224 {
        MOV     A,#-0xb
        LCALL   ?BANKED_ENTER_XDATA
        CFI DPH0 load(1, XDATA, add(CFA_XSP16, literal(-1)))
        CFI DPL0 load(1, XDATA, add(CFA_XSP16, literal(-2)))
        CFI ?BRET_EXT load(1, XDATA, add(CFA_XSP16, literal(-3)))
        CFI ?RET_HIGH load(1, XDATA, add(CFA_XSP16, literal(-4)))
        CFI ?RET_LOW load(1, XDATA, add(CFA_XSP16, literal(-5)))
        CFI R7 load(1, XDATA, add(CFA_XSP16, literal(-6)))
        CFI V2 load(1, XDATA, add(CFA_XSP16, literal(-7)))
        CFI V1 load(1, XDATA, add(CFA_XSP16, literal(-8)))
        CFI V0 load(1, XDATA, add(CFA_XSP16, literal(-9)))
        CFI VB load(1, XDATA, add(CFA_XSP16, literal(-10)))
        CFI R6 load(1, XDATA, add(CFA_XSP16, literal(-11)))
        CFI CFA_SP SP+0
        CFI CFA_XSP16 add(XSP16, 11)
        ; Saved register size: 11
        ; Auto size: 0
//  225   uint16 x;
//  226   uint16 used;
//  227 
//  228   for ( used = 0, x = 0; x < gNWK_MAX_BINDING_ENTRIES; x++ )
        MOV     ?V0 + 0,#0x0
        MOV     ?V0 + 1,#0x0
        MOV     R0,#0x0
        MOV     R1,#0x0
??bindCapacity_0:
        MOV     DPTR,#gNWK_MAX_BINDING_ENTRIES
        CLR     A
        MOVC    A,@A+DPTR
        MOV     R6,A
        MOV     A,#0x1
        MOVC    A,@A+DPTR
        MOV     R7,A
        CLR     C
        MOV     A,R0
        SUBB    A,R6
        MOV     A,R1
        SUBB    A,R7
        JNC     ??bindCapacity_1
//  229   {
//  230     // It's empty if the index is "Not Found"
//  231     if ( BindingTable[x].srcEP != NV_BIND_EMPTY )
        MOV     A,R0
        MOV     R6,A
        MOV     A,R1
        MOV     R7,A
        MOV     A,R6
        MOV     B,#0xe
        MUL     AB
        XCH     A,R6
        MOV     ?V0 + 2,B
        MOV     B,#0x0
        MUL     AB
        ADD     A,?V0 + 2
        MOV     ?V0 + 2,A
        MOV     B,#0xe
        MOV     A,R7
        MUL     AB
        ADD     A,?V0 + 2
        MOV     R7,A
        MOV     A,#BindingTable & 0xff
        ADD     A,R6
        MOV     DPL,A
        MOV     A,#(BindingTable >> 8) & 0xff
        ADDC    A,R7
        MOV     DPH,A
        MOVX    A,@DPTR
        XRL     A,#0xff
        JZ      ??bindCapacity_2
//  232     {
//  233       used++;
        MOV     A,?V0 + 0
        ADD     A,#0x1
        MOV     ?V0 + 0,A
        MOV     A,?V0 + 1
        ADDC    A,#0x0
        MOV     ?V0 + 1,A
//  234     }
//  235   }
??bindCapacity_2:
        MOV     A,R0
        ADD     A,#0x1
        MOV     R0,A
        MOV     A,R1
        ADDC    A,#0x0
        MOV     R1,A
        SJMP    ??bindCapacity_0
//  236 
//  237   *maxEntries = gNWK_MAX_BINDING_ENTRIES;
??bindCapacity_1:
        MOV     DPTR,#gNWK_MAX_BINDING_ENTRIES
        CLR     A
        MOVC    A,@A+DPTR
        MOV     R6,A
        MOV     A,#0x1
        MOVC    A,@A+DPTR
        MOV     R7,A
        MOV     DPL,R2
        MOV     DPH,R3
        MOV     A,R6
        MOVX    @DPTR,A
        INC     DPTR
        MOV     A,R7
        MOVX    @DPTR,A
//  238   *usedEntries = used;
        MOV     DPL,R4
        MOV     DPH,R5
        MOV     A,?V0 + 0
        MOVX    @DPTR,A
        INC     DPTR
        MOV     A,?V0 + 1
        MOVX    @DPTR,A
//  239 }
        MOV     R7,#0x3
        LJMP    ?BANKED_LEAVE_XDATA
        CFI EndBlock cfiBlock3
//  240 
//  241 /*********************************************************************
//  242  * @fn      bindAddEntry()
//  243  *
//  244  * @brief   This function is used to Add an entry to the binding table
//  245  *
//  246  * @param       srcAddr - source Address
//  247  * @param       srcEpInt - source endpoint
//  248  * @param       dstAddr - destination Address
//  249  * @param       dstEpInt - destination endpoint
//  250  * @param       numClusterIds - number of cluster Ids in the list
//  251  * @param       clusterIds - pointer to the Object ID list
//  252  *
//  253  * @return  pointer to binding table entry, NULL if not added
//  254  */

        RSEG BANKED_CODE:CODE:NOROOT(0)
//  255 BindingEntry_t *bindAddEntry( byte srcEpInt,
bindAddEntry:
        CFI Block cfiBlock4 Using cfiCommon0
        CFI Function bindAddEntry
        CODE
//  256                               zAddrType_t *dstAddr, byte dstEpInt,
//  257                               byte numClusterIds, uint16 *clusterIds )
//  258 {
        FUNCALL bindAddEntry, bindAddrMgrLocalLoad
        LOCFRAME ISTACK, 0, STACK
        LOCFRAME PSTACK, 0, STACK
        LOCFRAME XSTACK, 29, STACK
        LOCFRAME IOVERLAY, 0, STATIC
        LOCFRAME DOVERLAY, 0, STATIC
        ARGFRAME ISTACK, 0, STACK
        ARGFRAME PSTACK, 0, STACK
        ARGFRAME XSTACK, 29, STACK
        ARGFRAME IOVERLAY, 0, STATIC
        ARGFRAME DOVERLAY, 0, STATIC
        FUNCALL bindAddEntry, bindAddrIndexGet
        LOCFRAME ISTACK, 0, STACK
        LOCFRAME PSTACK, 0, STACK
        LOCFRAME XSTACK, 29, STACK
        LOCFRAME IOVERLAY, 0, STATIC
        LOCFRAME DOVERLAY, 0, STATIC
        ARGFRAME ISTACK, 0, STACK
        ARGFRAME PSTACK, 0, STACK
        ARGFRAME XSTACK, 29, STACK
        ARGFRAME IOVERLAY, 0, STATIC
        ARGFRAME DOVERLAY, 0, STATIC
        FUNCALL bindAddEntry, bindIsClusterIDinList
        LOCFRAME ISTACK, 0, STACK
        LOCFRAME PSTACK, 0, STACK
        LOCFRAME XSTACK, 29, STACK
        LOCFRAME IOVERLAY, 0, STATIC
        LOCFRAME DOVERLAY, 0, STATIC
        ARGFRAME ISTACK, 0, STACK
        ARGFRAME PSTACK, 0, STACK
        ARGFRAME XSTACK, 29, STACK
        ARGFRAME IOVERLAY, 0, STATIC
        ARGFRAME DOVERLAY, 0, STATIC
        FUNCALL bindAddEntry, bindAddClusterIdToList
        LOCFRAME ISTACK, 0, STACK
        LOCFRAME PSTACK, 0, STACK
        LOCFRAME XSTACK, 29, STACK
        LOCFRAME IOVERLAY, 0, STATIC
        LOCFRAME DOVERLAY, 0, STATIC
        ARGFRAME ISTACK, 0, STACK
        ARGFRAME PSTACK, 0, STACK
        ARGFRAME XSTACK, 29, STACK
        ARGFRAME IOVERLAY, 0, STATIC
        ARGFRAME DOVERLAY, 0, STATIC
        FUNCALL bindAddEntry, bindFindEmpty
        LOCFRAME ISTACK, 0, STACK
        LOCFRAME PSTACK, 0, STACK
        LOCFRAME XSTACK, 29, STACK
        LOCFRAME IOVERLAY, 0, STATIC
        LOCFRAME DOVERLAY, 0, STATIC
        ARGFRAME ISTACK, 0, STACK
        ARGFRAME PSTACK, 0, STACK
        ARGFRAME XSTACK, 29, STACK
        ARGFRAME IOVERLAY, 0, STATIC
        ARGFRAME DOVERLAY, 0, STATIC
        FUNCALL bindAddEntry, osal_memcpy
        LOCFRAME ISTACK, 0, STACK
        LOCFRAME PSTACK, 0, STACK
        LOCFRAME XSTACK, 32, STACK
        LOCFRAME IOVERLAY, 0, STATIC
        LOCFRAME DOVERLAY, 0, STATIC
        ARGFRAME ISTACK, 0, STACK
        ARGFRAME PSTACK, 0, STACK
        ARGFRAME XSTACK, 32, STACK
        ARGFRAME IOVERLAY, 0, STATIC
        ARGFRAME DOVERLAY, 0, STATIC
        MOV     A,#-0x13
        LCALL   ?BANKED_ENTER_XDATA
        CFI DPH0 load(1, XDATA, add(CFA_XSP16, literal(-1)))
        CFI DPL0 load(1, XDATA, add(CFA_XSP16, literal(-2)))
        CFI ?BRET_EXT load(1, XDATA, add(CFA_XSP16, literal(-3)))
        CFI ?RET_HIGH load(1, XDATA, add(CFA_XSP16, literal(-4)))
        CFI ?RET_LOW load(1, XDATA, add(CFA_XSP16, literal(-5)))
        CFI R7 load(1, XDATA, add(CFA_XSP16, literal(-6)))
        CFI V10 load(1, XDATA, add(CFA_XSP16, literal(-7)))
        CFI V9 load(1, XDATA, add(CFA_XSP16, literal(-8)))
        CFI V8 load(1, XDATA, add(CFA_XSP16, literal(-9)))
        CFI V7 load(1, XDATA, add(CFA_XSP16, literal(-10)))
        CFI V6 load(1, XDATA, add(CFA_XSP16, literal(-11)))
        CFI V5 load(1, XDATA, add(CFA_XSP16, literal(-12)))
        CFI V4 load(1, XDATA, add(CFA_XSP16, literal(-13)))
        CFI V3 load(1, XDATA, add(CFA_XSP16, literal(-14)))
        CFI V2 load(1, XDATA, add(CFA_XSP16, literal(-15)))
        CFI V1 load(1, XDATA, add(CFA_XSP16, literal(-16)))
        CFI V0 load(1, XDATA, add(CFA_XSP16, literal(-17)))
        CFI VB load(1, XDATA, add(CFA_XSP16, literal(-18)))
        CFI R6 load(1, XDATA, add(CFA_XSP16, literal(-19)))
        CFI CFA_SP SP+0
        CFI CFA_XSP16 add(XSP16, 19)
        ; Saved register size: 19
        ; Auto size: 10
        MOV     A,#-0xa
        LCALL   ?ALLOC_XSTACK8
        CFI CFA_XSP16 add(XSP16, 29)
        MOV     ?V0 + 10,R1
        MOV     ?V0 + 8,R2
        MOV     ?V0 + 9,R3
        MOV     ?V0 + 7,R4
        MOV     ?V0 + 1,R5
        MOV     A,#0x1d
        LCALL   ?XSTACK_DISP0_8
        MOVX    A,@DPTR
        MOV     ?V0 + 2,A
        INC     DPTR
        MOVX    A,@DPTR
        MOV     ?V0 + 3,A
//  259   uint8           index;
//  260   BindingEntry_t* entry;
//  261   bindFields_t    fields;
//  262 
//  263   // initialize results
//  264   entry = NULL;
        MOV     R6,#0x0
        MOV     R7,#0x0
//  265 
//  266   // make sure local addresses have been loaded
//  267   bindAddrMgrLocalLoad();
        ; Setup parameters for call to function bindAddrMgrLocalLoad
        LCALL   ??bindAddrMgrLocalLoad?relay
//  268 
//  269   // setup fields
//  270   fields.dstIndex = bindAddrIndexGet( dstAddr );
        ; Setup parameters for call to function bindAddrIndexGet
        MOV     R2,?V0 + 8
        MOV     R3,?V0 + 9
        LCALL   ??bindAddrIndexGet?relay
        MOV     A,#0x3
        LCALL   ?XSTACK_DISP0_8
        MOV     A,R2
        MOVX    @DPTR,A
        INC     DPTR
        MOV     A,R3
        MOVX    @DPTR,A
//  271   fields.srcEP    = srcEpInt;
        MOV     A,?V0 + 10
        MOV     DPL,?XSP + 0
        MOV     DPH,?XSP + 1
        MOV     A,?V0 + 10
        MOVX    @DPTR,A
//  272 
//  273   if ( dstAddr->addrMode == AddrGroup )
        MOV     DPL,?V0 + 8
        MOV     DPH,?V0 + 9
        INC     DPTR
        INC     DPTR
        INC     DPTR
        INC     DPTR
        INC     DPTR
        INC     DPTR
        INC     DPTR
        INC     DPTR
        MOVX    A,@DPTR
        XRL     A,#0x1
        JNZ     ??bindAddEntry_0
//  274   {
//  275     fields.dstAddrMode = DSTGROUPMODE_GROUP;
        MOV     A,#0x6
        LCALL   ?XSTACK_DISP0_8
        MOV     A,#0x1
        MOVX    @DPTR,A
//  276     fields.dstEP       = 0;
        MOV     A,#0x5
        LCALL   ?XSTACK_DISP0_8
        MOV     A,#0x0
        MOVX    @DPTR,A
        SJMP    ??bindAddEntry_1
//  277   }
//  278   else
//  279   {
//  280     fields.dstAddrMode = DSTGROUPMODE_ADDR;
??bindAddEntry_0:
        MOV     A,#0x6
        LCALL   ?XSTACK_DISP0_8
        MOV     A,#0x0
        MOVX    @DPTR,A
//  281     fields.dstEP       = dstEpInt;
        MOV     A,?V0 + 7
        MOV     A,#0x5
        LCALL   ?XSTACK_DISP0_8
        MOV     A,?V0 + 7
        MOVX    @DPTR,A
//  282   }
//  283 
//  284   if ( fields.dstIndex != INVALID_NODE_ADDR  )
??bindAddEntry_1:
        MOV     A,#0x3
        LCALL   ?XSTACK_DISP0_8
        MOVX    A,@DPTR
        XRL     A,#0xfe
        JNZ     ??bindAddEntry_2
        INC     DPTR
        MOVX    A,@DPTR
        XRL     A,#0xff
??bindAddEntry_2:
        JNZ     $+5
        LJMP    ??bindAddEntry_3 & 0xFFFF
//  285   {
//  286     for ( index = 0; index < gNWK_MAX_BINDING_ENTRIES; index++ )
        MOV     ?V0 + 0,#0x0
??bindAddEntry_4:
        MOV     ?V0 + 4,?V0 + 0
        MOV     ?V0 + 5,#0x0
        MOV     DPTR,#gNWK_MAX_BINDING_ENTRIES
        CLR     A
        MOVC    A,@A+DPTR
        MOV     R0,A
        MOV     A,#0x1
        MOVC    A,@A+DPTR
        MOV     R1,A
        CLR     C
        MOV     A,?V0 + 4
        SUBB    A,R0
        MOV     A,?V0 + 5
        SUBB    A,R1
        JC      $+5
        LJMP    ??bindAddEntry_5 & 0xFFFF
//  287     {
//  288       if ( ( fields.srcEP       == BindingTable[index].srcEP        ) &&
//  289            ( fields.dstAddrMode == BindingTable[index].dstGroupMode ) &&
//  290            ( fields.dstIndex    == BindingTable[index].dstIdx       ) &&
//  291            ( fields.dstEP       == BindingTable[index].dstEP        )    )
        MOV     DPL,?XSP + 0
        MOV     DPH,?XSP + 1
        MOVX    A,@DPTR
        MOV     R3,A
        MOV     A,?V0 + 0
        MOV     R0,?V0 + 0
        MOV     R1,#0x0
        MOV     A,R0
        MOV     B,#0xe
        MUL     AB
        XCH     A,R0
        MOV     R2,B
        MOV     B,#0x0
        MUL     AB
        ADD     A,R2
        MOV     R2,A
        MOV     B,#0xe
        MOV     A,R1
        MUL     AB
        ADD     A,R2
        MOV     R1,A
        MOV     A,#BindingTable & 0xff
        ADD     A,R0
        MOV     DPL,A
        MOV     A,#(BindingTable >> 8) & 0xff
        ADDC    A,R1
        MOV     DPH,A
        MOVX    A,@DPTR
        XRL     A,R3
        JZ      $+5
        LJMP    ??bindAddEntry_6 & 0xFFFF
        MOV     A,#0x6
        LCALL   ?XSTACK_DISP0_8
        MOVX    A,@DPTR
        MOV     R3,A
        MOV     A,?V0 + 0
        MOV     R0,?V0 + 0
        MOV     R1,#0x0
        MOV     A,R0
        MOV     B,#0xe
        MUL     AB
        XCH     A,R0
        MOV     R2,B
        MOV     B,#0x0
        MUL     AB
        ADD     A,R2
        MOV     R2,A
        MOV     B,#0xe
        MOV     A,R1
        MUL     AB
        ADD     A,R2
        MOV     R1,A
        MOV     A,#(BindingTable + 1) & 0xff
        ADD     A,R0
        MOV     DPL,A
        MOV     A,#((BindingTable + 1) >> 8) & 0xff
        ADDC    A,R1
        MOV     DPH,A
        MOVX    A,@DPTR
        XRL     A,R3
        JZ      $+5
        LJMP    ??bindAddEntry_6 & 0xFFFF
        MOV     A,#0x3
        LCALL   ?XSTACK_DISP0_8
        MOVX    A,@DPTR
        MOV     R0,A
        INC     DPTR
        MOVX    A,@DPTR
        MOV     R1,A
        MOV     A,?V0 + 0
        MOV     R2,?V0 + 0
        MOV     R3,#0x0
        MOV     A,R2
        MOV     B,#0xe
        MUL     AB
        XCH     A,R2
        MOV     R4,B
        MOV     B,#0x0
        MUL     AB
        ADD     A,R4
        MOV     R4,A
        MOV     B,#0xe
        MOV     A,R3
        MUL     AB
        ADD     A,R4
        MOV     R3,A
        MOV     A,#(BindingTable + 2) & 0xff
        ADD     A,R2
        MOV     DPL,A
        MOV     A,#((BindingTable + 2) >> 8) & 0xff
        ADDC    A,R3
        MOV     DPH,A
        MOVX    A,@DPTR
        XRL     A,R0
        JNZ     ??bindAddEntry_7
        INC     DPTR
        MOVX    A,@DPTR
        XRL     A,R1
??bindAddEntry_7:
        JNZ     ??bindAddEntry_6
        MOV     A,#0x5
        LCALL   ?XSTACK_DISP0_8
        MOVX    A,@DPTR
        MOV     R3,A
        MOV     A,?V0 + 0
        MOV     R0,?V0 + 0
        MOV     R1,#0x0
        MOV     A,R0
        MOV     B,#0xe
        MUL     AB
        XCH     A,R0
        MOV     R2,B
        MOV     B,#0x0
        MUL     AB
        ADD     A,R2
        MOV     R2,A
        MOV     B,#0xe
        MOV     A,R1
        MUL     AB
        ADD     A,R2
        MOV     R1,A
        MOV     A,#(BindingTable + 4) & 0xff
        ADD     A,R0
        MOV     DPL,A
        MOV     A,#((BindingTable + 4) >> 8) & 0xff
        ADDC    A,R1
        MOV     DPH,A
        MOVX    A,@DPTR
        XRL     A,R3
        JNZ     ??bindAddEntry_6
//  292       {
//  293         entry = &BindingTable[index];
        MOV     A,?V0 + 0
        MOV     R0,?V0 + 0
        MOV     R1,#0x0
        MOV     A,R0
        MOV     B,#0xe
        MUL     AB
        XCH     A,R0
        MOV     R2,B
        MOV     B,#0x0
        MUL     AB
        ADD     A,R2
        MOV     R2,A
        MOV     B,#0xe
        MOV     A,R1
        MUL     AB
        ADD     A,R2
        MOV     R1,A
        MOV     A,#BindingTable & 0xff
        ADD     A,R0
        MOV     R0,A
        MOV     A,#(BindingTable >> 8) & 0xff
        ADDC    A,R1
        MOV     R1,A
        MOV     A,R0
        MOV     R6,A
        MOV     A,R1
        MOV     R7,A
//  294 
//  295         // break from loop
//  296         break;
        SJMP    ??bindAddEntry_5
//  297       }
//  298     }
??bindAddEntry_6:
        INC     ?V0 + 0
        LJMP    ??bindAddEntry_4 & 0xFFFF
//  299 
//  300     if ( entry != NULL )
??bindAddEntry_5:
        MOV     A,R6
        ORL     A,R7
        JZ      ??bindAddEntry_8
//  301     {
//  302       // Loop through the cluster IDs
//  303       for ( index = 0; index < numClusterIds; index++ )
        MOV     ?V0 + 0,#0x0
??bindAddEntry_9:
        MOV     A,?V0 + 0
        CLR     C
        SUBB    A,?V0 + 1
        JC      $+5
        LJMP    ??bindAddEntry_3 & 0xFFFF
//  304       {
//  305         // Found - is the cluster already defined?
//  306         if ( bindIsClusterIDinList( entry, clusterIds[index] ) == FALSE )
        ; Setup parameters for call to function bindIsClusterIDinList
        MOV     A,?V0 + 0
        MOV     R0,?V0 + 0
        MOV     R1,#0x0
        MOV     A,R0
        MOV     B,#0x2
        MUL     AB
        XCH     A,R0
        MOV     R2,B
        MOV     B,#0x0
        MUL     AB
        ADD     A,R2
        MOV     R2,A
        MOV     B,#0x2
        MOV     A,R1
        MUL     AB
        ADD     A,R2
        MOV     R1,A
        MOV     A,?V0 + 2
        ADD     A,R0
        MOV     DPL,A
        MOV     A,?V0 + 3
        ADDC    A,R1
        MOV     DPH,A
        MOVX    A,@DPTR
        MOV     R4,A
        INC     DPTR
        MOVX    A,@DPTR
        MOV     R5,A
        MOV     A,R6
        MOV     R2,A
        MOV     A,R7
        MOV     R3,A
        LCALL   ??bindIsClusterIDinList?relay
        MOV     A,R1
        JNZ     ??bindAddEntry_10
//  307         {
//  308           // Nope, add this cluster
//  309           if ( bindAddClusterIdToList( entry, clusterIds[index] ) == FALSE )
        ; Setup parameters for call to function bindAddClusterIdToList
        MOV     A,?V0 + 0
        MOV     R0,?V0 + 0
        MOV     R1,#0x0
        MOV     A,R0
        MOV     B,#0x2
        MUL     AB
        XCH     A,R0
        MOV     R2,B
        MOV     B,#0x0
        MUL     AB
        ADD     A,R2
        MOV     R2,A
        MOV     B,#0x2
        MOV     A,R1
        MUL     AB
        ADD     A,R2
        MOV     R1,A
        MOV     A,?V0 + 2
        ADD     A,R0
        MOV     DPL,A
        MOV     A,?V0 + 3
        ADDC    A,R1
        MOV     DPH,A
        MOVX    A,@DPTR
        MOV     R4,A
        INC     DPTR
        MOVX    A,@DPTR
        MOV     R5,A
        MOV     A,R6
        MOV     R2,A
        MOV     A,R7
        MOV     R3,A
        LCALL   ??bindAddClusterIdToList?relay
        MOV     A,R1
        JNZ     ??bindAddEntry_10
//  310           {
//  311             // Indicate error if cluster list was full
//  312             entry = NULL;
        MOV     R6,#0x0
        MOV     R7,#0x0
//  313           }
//  314         }
//  315       }
??bindAddEntry_10:
        INC     ?V0 + 0
        SJMP    ??bindAddEntry_9
//  316     }
//  317     else
//  318     {
//  319       // Find an empty slot
//  320       entry = bindFindEmpty();
??bindAddEntry_8:
        ; Setup parameters for call to function bindFindEmpty
        LCALL   ??bindFindEmpty?relay
        MOV     ?V0 + 4,R2
        MOV     ?V0 + 5,R3
        MOV     R6,?V0 + 4
        MOV     R7,?V0 + 5
//  321 
//  322       // Check against the maximum number allowed
//  323       if ( entry != NULL )
        MOV     A,R6
        ORL     A,R7
        JNZ     $+5
        LJMP    ??bindAddEntry_3 & 0xFFFF
//  324       {
//  325         // Add new entry
//  326         entry->srcEP         = fields.srcEP;
        MOV     DPL,?XSP + 0
        MOV     DPH,?XSP + 1
        MOVX    A,@DPTR
        MOV     DPL,R6
        MOV     DPH,R7
        MOVX    @DPTR,A
//  327         entry->dstGroupMode  = fields.dstAddrMode;
        MOV     A,#0x6
        LCALL   ?XSTACK_DISP0_8
        MOVX    A,@DPTR
        MOV     DPL,R6
        MOV     DPH,R7
        INC     DPTR
        MOVX    @DPTR,A
//  328         entry->dstIdx        = fields.dstIndex;
        MOV     A,#0x3
        LCALL   ?XSTACK_DISP0_8
        MOVX    A,@DPTR
        MOV     R0,A
        INC     DPTR
        MOVX    A,@DPTR
        MOV     R1,A
        MOV     DPL,R6
        MOV     DPH,R7
        INC     DPTR
        INC     DPTR
        MOV     A,R0
        MOVX    @DPTR,A
        INC     DPTR
        MOV     A,R1
        MOVX    @DPTR,A
//  329         entry->dstEP         = fields.dstEP;
        MOV     A,#0x5
        LCALL   ?XSTACK_DISP0_8
        MOVX    A,@DPTR
        MOV     DPL,R6
        MOV     DPH,R7
        INC     DPTR
        INC     DPTR
        INC     DPTR
        INC     DPTR
        MOVX    @DPTR,A
//  330 
//  331         if ( numClusterIds > gMAX_BINDING_CLUSTER_IDS )
        MOV     DPTR,#gMAX_BINDING_CLUSTER_IDS
        CLR     A
        MOVC    A,@A+DPTR
        CLR     C
        SUBB    A,?V0 + 1
        JNC     ??bindAddEntry_11
//  332         {
//  333           numClusterIds = gMAX_BINDING_CLUSTER_IDS;
        MOV     DPTR,#gMAX_BINDING_CLUSTER_IDS
        CLR     A
        MOVC    A,@A+DPTR
        MOV     ?V0 + 1,A
//  334         }
//  335 
//  336         entry->numClusterIds = numClusterIds;
??bindAddEntry_11:
        MOV     A,?V0 + 1
        MOV     DPL,R6
        MOV     DPH,R7
        INC     DPTR
        INC     DPTR
        INC     DPTR
        INC     DPTR
        INC     DPTR
        MOV     A,?V0 + 1
        MOVX    @DPTR,A
//  337 
//  338         osal_memcpy( entry->clusterIdList,
//  339                      clusterIds,
//  340                      numClusterIds * sizeof(uint16) );
        ; Setup parameters for call to function osal_memcpy
        MOV     ?V0 + 4,?V0 + 2
        MOV     ?V0 + 5,?V0 + 3
        MOV     ?V0 + 6,#0x0
        MOV     R0,#?V0 + 4
        LCALL   ?PUSH_XSTACK_I_THREE
        CFI CFA_XSP16 add(XSP16, 32)
        MOV     A,?V0 + 1
        MOV     R4,?V0 + 1
        MOV     R5,#0x0
        MOV     A,R4
        MOV     B,#0x2
        MUL     AB
        XCH     A,R4
        MOV     R0,B
        MOV     B,#0x0
        MUL     AB
        ADD     A,R0
        MOV     R0,A
        MOV     B,#0x2
        MOV     A,R5
        MUL     AB
        ADD     A,R0
        MOV     R5,A
        MOV     A,R6
        ADD     A,#0x6
        MOV     R2,A
        MOV     A,R7
        ADDC    A,#0x0
        MOV     R3,A
        LCALL   ??osal_memcpy?relay
        MOV     A,#0x3
        LCALL   ?DEALLOC_XSTACK8
        CFI CFA_XSP16 add(XSP16, 29)
//  341       }
//  342     }
//  343   }
//  344 
//  345   return entry;
??bindAddEntry_3:
        MOV     A,R6
        MOV     R2,A
        MOV     A,R7
        MOV     R3,A
        MOV     A,#0xa
        LCALL   ?DEALLOC_XSTACK8
        CFI CFA_XSP16 add(XSP16, 19)
        MOV     R7,#0xb
        LJMP    ?BANKED_LEAVE_XDATA
        CFI EndBlock cfiBlock4
//  346 }
//  347 
//  348 /*********************************************************************
//  349  * @fn      bindRemoveEntry
//  350  *
//  351  * @brief   Removes a binding table entry.
//  352  *
//  353  * @param   pBind - pointer to binding table entry to delete
//  354  *
//  355  * @return  TRUE if Removed, FALSE if not
//  356  */

        RSEG BANKED_CODE:CODE:NOROOT(0)
//  357 byte bindRemoveEntry( BindingEntry_t *pBind )
bindRemoveEntry:
        CFI Block cfiBlock5 Using cfiCommon0
        CFI Function bindRemoveEntry
        CODE
//  358 {
        FUNCALL bindRemoveEntry, osal_memset
        LOCFRAME ISTACK, 0, STACK
        LOCFRAME PSTACK, 0, STACK
        LOCFRAME XSTACK, 9, STACK
        LOCFRAME IOVERLAY, 0, STATIC
        LOCFRAME DOVERLAY, 0, STATIC
        ARGFRAME ISTACK, 0, STACK
        ARGFRAME PSTACK, 0, STACK
        ARGFRAME XSTACK, 9, STACK
        ARGFRAME IOVERLAY, 0, STATIC
        ARGFRAME DOVERLAY, 0, STATIC
        MOV     A,#-0x9
        LCALL   ?BANKED_ENTER_XDATA
        CFI DPH0 load(1, XDATA, add(CFA_XSP16, literal(-1)))
        CFI DPL0 load(1, XDATA, add(CFA_XSP16, literal(-2)))
        CFI ?BRET_EXT load(1, XDATA, add(CFA_XSP16, literal(-3)))
        CFI ?RET_HIGH load(1, XDATA, add(CFA_XSP16, literal(-4)))
        CFI ?RET_LOW load(1, XDATA, add(CFA_XSP16, literal(-5)))
        CFI R7 load(1, XDATA, add(CFA_XSP16, literal(-6)))
        CFI V0 load(1, XDATA, add(CFA_XSP16, literal(-7)))
        CFI VB load(1, XDATA, add(CFA_XSP16, literal(-8)))
        CFI R6 load(1, XDATA, add(CFA_XSP16, literal(-9)))
        CFI CFA_SP SP+0
        CFI CFA_XSP16 add(XSP16, 9)
        ; Saved register size: 9
        ; Auto size: 0
        MOV     A,R2
        MOV     R6,A
        MOV     A,R3
        MOV     R7,A
//  359   osal_memset( pBind, 0xFF, gBIND_REC_SIZE );
        ; Setup parameters for call to function osal_memset
        MOV     DPTR,#gBIND_REC_SIZE
        CLR     A
        MOVC    A,@A+DPTR
        MOV     R4,A
        MOV     A,#0x1
        MOVC    A,@A+DPTR
        MOV     R5,A
        MOV     R1,#-0x1
        MOV     A,R6
        MOV     R2,A
        MOV     A,R7
        MOV     R3,A
        LCALL   ??osal_memset?relay
//  360   return ( TRUE );
        MOV     R1,#0x1
        MOV     R7,#0x1
        LJMP    ?BANKED_LEAVE_XDATA
        CFI EndBlock cfiBlock5
//  361 }
//  362 
//  363 /*********************************************************************
//  364  * @fn      bindIsClusterIDinList()
//  365  *
//  366  * @brief   Is the clusterID in the clusterID list?
//  367  *
//  368  * @param   enter - binding table entry
//  369  * @param   clusterId  - Cluster ID to look for
//  370  *
//  371  * @return  TRUE if found, FALSE if not found
//  372  */

        RSEG BANKED_CODE:CODE:NOROOT(0)
//  373 byte bindIsClusterIDinList( BindingEntry_t *entry, uint16 clusterId )
bindIsClusterIDinList:
        CFI Block cfiBlock6 Using cfiCommon0
        CFI Function bindIsClusterIDinList
        CODE
//  374 {
        MOV     A,#-0x9
        LCALL   ?BANKED_ENTER_XDATA
        CFI DPH0 load(1, XDATA, add(CFA_XSP16, literal(-1)))
        CFI DPL0 load(1, XDATA, add(CFA_XSP16, literal(-2)))
        CFI ?BRET_EXT load(1, XDATA, add(CFA_XSP16, literal(-3)))
        CFI ?RET_HIGH load(1, XDATA, add(CFA_XSP16, literal(-4)))
        CFI ?RET_LOW load(1, XDATA, add(CFA_XSP16, literal(-5)))
        CFI R7 load(1, XDATA, add(CFA_XSP16, literal(-6)))
        CFI V0 load(1, XDATA, add(CFA_XSP16, literal(-7)))
        CFI VB load(1, XDATA, add(CFA_XSP16, literal(-8)))
        CFI R6 load(1, XDATA, add(CFA_XSP16, literal(-9)))
        CFI CFA_SP SP+0
        CFI CFA_XSP16 add(XSP16, 9)
        ; Saved register size: 9
        ; Auto size: 0
//  375   uint8 x;
//  376 
//  377   if ( entry != NULL )
        MOV     A,R2
        ORL     A,R3
        JZ      ??bindIsClusterIDinList_0
//  378   {
//  379     for ( x = 0; x < entry->numClusterIds; x++ )
        MOV     R7,#0x0
??bindIsClusterIDinList_1:
        MOV     DPL,R2
        MOV     DPH,R3
        INC     DPTR
        INC     DPTR
        INC     DPTR
        INC     DPTR
        INC     DPTR
        MOVX    A,@DPTR
        MOV     R0,A
        MOV     A,R7
        CLR     C
        SUBB    A,R0
        JNC     ??bindIsClusterIDinList_0
//  380     {
//  381       if ( entry->clusterIdList[x] == clusterId )
        MOV     A,R7
        MOV     R0,A
        MOV     R1,#0x0
        MOV     A,R0
        MOV     B,#0x2
        MUL     AB
        XCH     A,R0
        MOV     R6,B
        MOV     B,#0x0
        MUL     AB
        ADD     A,R6
        MOV     R6,A
        MOV     B,#0x2
        MOV     A,R1
        MUL     AB
        ADD     A,R6
        MOV     R1,A
        MOV     A,R2
        ADD     A,R0
        MOV     DPL,A
        MOV     A,R3
        ADDC    A,R1
        MOV     DPH,A
        INC     DPTR
        INC     DPTR
        INC     DPTR
        INC     DPTR
        INC     DPTR
        INC     DPTR
        MOVX    A,@DPTR
        XRL     A,R4
        JNZ     ??bindIsClusterIDinList_2
        INC     DPTR
        MOVX    A,@DPTR
        XRL     A,R5
??bindIsClusterIDinList_2:
        JNZ     ??bindIsClusterIDinList_3
//  382       {
//  383         return ( TRUE );
        MOV     R1,#0x1
        SJMP    ??bindIsClusterIDinList_4
//  384       }
//  385     }
??bindIsClusterIDinList_3:
        INC     R7
        SJMP    ??bindIsClusterIDinList_1
//  386   }
//  387 
//  388   return ( FALSE );
??bindIsClusterIDinList_0:
        MOV     R1,#0x0
??bindIsClusterIDinList_4:
        MOV     R7,#0x1
        LJMP    ?BANKED_LEAVE_XDATA
        CFI EndBlock cfiBlock6
//  389 }
//  390 
//  391 /*********************************************************************
//  392  * @fn      bindRemoveClusterIdFromList()
//  393  *
//  394  * @brief   Removes a ClusterID from a list of ClusterIDs.
//  395  *
//  396  * @param   enter - binding table entry
//  397  * @param   clusterId  - Cluster ID to look for
//  398  *
//  399  * @return  TRUE if there are at least 1 clusterID left, FALSE if none
//  400  */

        RSEG BANKED_CODE:CODE:NOROOT(0)
//  401 byte bindRemoveClusterIdFromList( BindingEntry_t *entry, uint16 clusterId )
bindRemoveClusterIdFromList:
        CFI Block cfiBlock7 Using cfiCommon0
        CFI Function bindRemoveClusterIdFromList
        CODE
//  402 {
        MOV     A,#-0xb
        LCALL   ?BANKED_ENTER_XDATA
        CFI DPH0 load(1, XDATA, add(CFA_XSP16, literal(-1)))
        CFI DPL0 load(1, XDATA, add(CFA_XSP16, literal(-2)))
        CFI ?BRET_EXT load(1, XDATA, add(CFA_XSP16, literal(-3)))
        CFI ?RET_HIGH load(1, XDATA, add(CFA_XSP16, literal(-4)))
        CFI ?RET_LOW load(1, XDATA, add(CFA_XSP16, literal(-5)))
        CFI R7 load(1, XDATA, add(CFA_XSP16, literal(-6)))
        CFI V2 load(1, XDATA, add(CFA_XSP16, literal(-7)))
        CFI V1 load(1, XDATA, add(CFA_XSP16, literal(-8)))
        CFI V0 load(1, XDATA, add(CFA_XSP16, literal(-9)))
        CFI VB load(1, XDATA, add(CFA_XSP16, literal(-10)))
        CFI R6 load(1, XDATA, add(CFA_XSP16, literal(-11)))
        CFI CFA_SP SP+0
        CFI CFA_XSP16 add(XSP16, 11)
        ; Saved register size: 11
        ; Auto size: 0
//  403   byte x;
//  404   uint16 *listPtr;
//  405   byte numIds;
//  406 
//  407   if ( entry )
        MOV     A,R2
        ORL     A,R3
        JNZ     $+5
        LJMP    ??bindRemoveClusterIdFromList_0 & 0xFFFF
//  408   {
//  409     if ( entry->numClusterIds > 0 )
        MOV     DPL,R2
        MOV     DPH,R3
        INC     DPTR
        INC     DPTR
        INC     DPTR
        INC     DPTR
        INC     DPTR
        MOVX    A,@DPTR
        CLR     C
        SUBB    A,#0x1
        JNC     $+5
        LJMP    ??bindRemoveClusterIdFromList_0 & 0xFFFF
//  410     {
//  411       listPtr = entry->clusterIdList;
        MOV     A,R2
        ADD     A,#0x6
        MOV     R0,A
        MOV     A,R3
        ADDC    A,#0x0
        MOV     R1,A
        MOV     A,R0
        MOV     R6,A
        MOV     A,R1
        MOV     R7,A
//  412       numIds = entry->numClusterIds;
        MOV     DPL,R2
        MOV     DPH,R3
        INC     DPTR
        INC     DPTR
        INC     DPTR
        INC     DPTR
        INC     DPTR
        MOVX    A,@DPTR
        MOV     ?V0 + 2,A
//  413 
//  414       // Copy the new list over
//  415       for ( x = 0; x < numIds; x++ )
        MOV     ?V0 + 1,#0x0
??bindRemoveClusterIdFromList_1:
        MOV     A,?V0 + 1
        CLR     C
        SUBB    A,?V0 + 2
        JC      $+5
        LJMP    ??bindRemoveClusterIdFromList_0 & 0xFFFF
//  416       {
//  417         if ( entry->clusterIdList[x] != clusterId )
        MOV     A,?V0 + 1
        MOV     R0,?V0 + 1
        MOV     R1,#0x0
        MOV     A,R0
        MOV     B,#0x2
        MUL     AB
        XCH     A,R0
        MOV     ?V0 + 0,B
        MOV     B,#0x0
        MUL     AB
        ADD     A,?V0 + 0
        MOV     ?V0 + 0,A
        MOV     B,#0x2
        MOV     A,R1
        MUL     AB
        ADD     A,?V0 + 0
        MOV     R1,A
        MOV     A,R2
        ADD     A,R0
        MOV     DPL,A
        MOV     A,R3
        ADDC    A,R1
        MOV     DPH,A
        INC     DPTR
        INC     DPTR
        INC     DPTR
        INC     DPTR
        INC     DPTR
        INC     DPTR
        MOVX    A,@DPTR
        XRL     A,R4
        JNZ     ??bindRemoveClusterIdFromList_2
        INC     DPTR
        MOVX    A,@DPTR
        XRL     A,R5
??bindRemoveClusterIdFromList_2:
        JZ      ??bindRemoveClusterIdFromList_3
//  418         {
//  419           *listPtr++ = entry->clusterIdList[x];
        MOV     A,?V0 + 1
        MOV     R0,?V0 + 1
        MOV     R1,#0x0
        MOV     A,R0
        MOV     B,#0x2
        MUL     AB
        XCH     A,R0
        MOV     ?V0 + 0,B
        MOV     B,#0x0
        MUL     AB
        ADD     A,?V0 + 0
        MOV     ?V0 + 0,A
        MOV     B,#0x2
        MOV     A,R1
        MUL     AB
        ADD     A,?V0 + 0
        MOV     R1,A
        MOV     A,R2
        ADD     A,R0
        MOV     DPL,A
        MOV     A,R3
        ADDC    A,R1
        MOV     DPH,A
        INC     DPTR
        INC     DPTR
        INC     DPTR
        INC     DPTR
        INC     DPTR
        INC     DPTR
        MOVX    A,@DPTR
        MOV     R0,A
        INC     DPTR
        MOVX    A,@DPTR
        MOV     R1,A
        MOV     DPL,R6
        MOV     DPH,R7
        MOV     A,R0
        MOVX    @DPTR,A
        INC     DPTR
        MOV     A,R1
        MOVX    @DPTR,A
        MOV     A,R6
        ADD     A,#0x2
        MOV     R0,A
        MOV     A,R7
        ADDC    A,#0x0
        MOV     R1,A
        MOV     A,R0
        MOV     R6,A
        MOV     A,R1
        MOV     R7,A
        SJMP    ??bindRemoveClusterIdFromList_4
//  420         }
//  421         else
//  422         {
//  423           entry->numClusterIds--;
??bindRemoveClusterIdFromList_3:
        MOV     DPL,R2
        MOV     DPH,R3
        INC     DPTR
        INC     DPTR
        INC     DPTR
        INC     DPTR
        INC     DPTR
        MOVX    A,@DPTR
        ADD     A,#-0x1
        MOVX    @DPTR,A
//  424           if ( entry->numClusterIds == 0 )
        MOV     DPL,R2
        MOV     DPH,R3
        INC     DPTR
        INC     DPTR
        INC     DPTR
        INC     DPTR
        INC     DPTR
        MOVX    A,@DPTR
        JZ      ??bindRemoveClusterIdFromList_0
//  425           {
//  426             break;
//  427           }
//  428         }
//  429       }
??bindRemoveClusterIdFromList_4:
        INC     ?V0 + 1
        LJMP    ??bindRemoveClusterIdFromList_1 & 0xFFFF
//  430     }
//  431   }
//  432 
//  433   if ( entry && (entry->numClusterIds > 0) )
??bindRemoveClusterIdFromList_0:
        MOV     A,R2
        ORL     A,R3
        JZ      ??bindRemoveClusterIdFromList_5
        MOV     DPL,R2
        MOV     DPH,R3
        INC     DPTR
        INC     DPTR
        INC     DPTR
        INC     DPTR
        INC     DPTR
        MOVX    A,@DPTR
        CLR     C
        SUBB    A,#0x1
        JC      ??bindRemoveClusterIdFromList_5
//  434   {
//  435     return ( TRUE );
        MOV     R1,#0x1
        SJMP    ??bindRemoveClusterIdFromList_6
//  436   }
//  437   else
//  438   {
//  439     return ( FALSE );
??bindRemoveClusterIdFromList_5:
        MOV     R1,#0x0
??bindRemoveClusterIdFromList_6:
        MOV     R7,#0x3
        LJMP    ?BANKED_LEAVE_XDATA
        CFI EndBlock cfiBlock7
//  440   }
//  441 }
//  442 
//  443 /*********************************************************************
//  444  * @fn      bindAddClusterIdToList()
//  445  *
//  446  * @brief   Adds a ClusterID to a list of ClusterIDs.
//  447  *
//  448  * @param   enter - binding table entry
//  449  * @param   clusterId  - Cluster ID to Add
//  450  *
//  451  * @return  TRUE if Added, FALSE if not
//  452  */

        RSEG BANKED_CODE:CODE:NOROOT(0)
//  453 byte bindAddClusterIdToList( BindingEntry_t *entry, uint16 clusterId )
bindAddClusterIdToList:
        CFI Block cfiBlock8 Using cfiCommon0
        CFI Function bindAddClusterIdToList
        CODE
//  454 {
        MOV     A,#-0x9
        LCALL   ?BANKED_ENTER_XDATA
        CFI DPH0 load(1, XDATA, add(CFA_XSP16, literal(-1)))
        CFI DPL0 load(1, XDATA, add(CFA_XSP16, literal(-2)))
        CFI ?BRET_EXT load(1, XDATA, add(CFA_XSP16, literal(-3)))
        CFI ?RET_HIGH load(1, XDATA, add(CFA_XSP16, literal(-4)))
        CFI ?RET_LOW load(1, XDATA, add(CFA_XSP16, literal(-5)))
        CFI R7 load(1, XDATA, add(CFA_XSP16, literal(-6)))
        CFI V0 load(1, XDATA, add(CFA_XSP16, literal(-7)))
        CFI VB load(1, XDATA, add(CFA_XSP16, literal(-8)))
        CFI R6 load(1, XDATA, add(CFA_XSP16, literal(-9)))
        CFI CFA_SP SP+0
        CFI CFA_XSP16 add(XSP16, 9)
        ; Saved register size: 9
        ; Auto size: 0
//  455   if ( entry && entry->numClusterIds < gMAX_BINDING_CLUSTER_IDS )
        MOV     A,R2
        ORL     A,R3
        JZ      ??bindAddClusterIdToList_0
        MOV     DPTR,#gMAX_BINDING_CLUSTER_IDS
        CLR     A
        MOVC    A,@A+DPTR
        MOV     R0,A
        MOV     DPL,R2
        MOV     DPH,R3
        INC     DPTR
        INC     DPTR
        INC     DPTR
        INC     DPTR
        INC     DPTR
        MOVX    A,@DPTR
        CLR     C
        SUBB    A,R0
        JNC     ??bindAddClusterIdToList_0
//  456   {
//  457     // Add the new one
//  458     entry->clusterIdList[entry->numClusterIds] = clusterId;
        MOV     DPL,R2
        MOV     DPH,R3
        INC     DPTR
        INC     DPTR
        INC     DPTR
        INC     DPTR
        INC     DPTR
        MOVX    A,@DPTR
        MOV     R0,A
        MOV     R1,#0x0
        MOV     A,R0
        MOV     B,#0x2
        MUL     AB
        XCH     A,R0
        MOV     R6,B
        MOV     B,#0x0
        MUL     AB
        ADD     A,R6
        MOV     R6,A
        MOV     B,#0x2
        MOV     A,R1
        MUL     AB
        ADD     A,R6
        MOV     R1,A
        MOV     A,R2
        ADD     A,R0
        MOV     DPL,A
        MOV     A,R3
        ADDC    A,R1
        MOV     DPH,A
        INC     DPTR
        INC     DPTR
        INC     DPTR
        INC     DPTR
        INC     DPTR
        INC     DPTR
        MOV     A,R4
        MOVX    @DPTR,A
        INC     DPTR
        MOV     A,R5
        MOVX    @DPTR,A
//  459     entry->numClusterIds++;
        MOV     DPL,R2
        MOV     DPH,R3
        INC     DPTR
        INC     DPTR
        INC     DPTR
        INC     DPTR
        INC     DPTR
        MOVX    A,@DPTR
        ADD     A,#0x1
        MOVX    @DPTR,A
//  460     return ( TRUE );
        MOV     R1,#0x1
        SJMP    ??bindAddClusterIdToList_1
//  461   }
//  462   return ( FALSE );
??bindAddClusterIdToList_0:
        MOV     R1,#0x0
??bindAddClusterIdToList_1:
        MOV     R7,#0x1
        LJMP    ?BANKED_LEAVE_XDATA
        CFI EndBlock cfiBlock8
//  463 }
//  464 
//  465 /*********************************************************************
//  466  * @fn      bindFindExisting
//  467  *
//  468  * @brief   Finds an existing src/epint to dst/epint bind record
//  469  *
//  470  * @param   srcAddr - Source address
//  471  * @param   srcEpInt - Source Endpoint/Interface
//  472  * @param   dstAddr - Destination address
//  473  * @param   dstEpInt - Destination Endpoint/Interface
//  474  *
//  475  * @return  pointer to existing entry or NULL
//  476  */

        RSEG BANKED_CODE:CODE:NOROOT(0)
//  477 BindingEntry_t *bindFindExisting( byte srcEpInt,
bindFindExisting:
        CFI Block cfiBlock9 Using cfiCommon0
        CFI Function bindFindExisting
        CODE
//  478                                   zAddrType_t *dstAddr, byte dstEpInt )
//  479 {
        FUNCALL bindFindExisting, bindingAddrMgsHelperFind
        LOCFRAME ISTACK, 0, STACK
        LOCFRAME PSTACK, 0, STACK
        LOCFRAME XSTACK, 16, STACK
        LOCFRAME IOVERLAY, 0, STATIC
        LOCFRAME DOVERLAY, 0, STATIC
        ARGFRAME ISTACK, 0, STACK
        ARGFRAME PSTACK, 0, STACK
        ARGFRAME XSTACK, 16, STACK
        ARGFRAME IOVERLAY, 0, STATIC
        ARGFRAME DOVERLAY, 0, STATIC
        MOV     A,#-0x10
        LCALL   ?BANKED_ENTER_XDATA
        CFI DPH0 load(1, XDATA, add(CFA_XSP16, literal(-1)))
        CFI DPL0 load(1, XDATA, add(CFA_XSP16, literal(-2)))
        CFI ?BRET_EXT load(1, XDATA, add(CFA_XSP16, literal(-3)))
        CFI ?RET_HIGH load(1, XDATA, add(CFA_XSP16, literal(-4)))
        CFI ?RET_LOW load(1, XDATA, add(CFA_XSP16, literal(-5)))
        CFI R7 load(1, XDATA, add(CFA_XSP16, literal(-6)))
        CFI V7 load(1, XDATA, add(CFA_XSP16, literal(-7)))
        CFI V6 load(1, XDATA, add(CFA_XSP16, literal(-8)))
        CFI V5 load(1, XDATA, add(CFA_XSP16, literal(-9)))
        CFI V4 load(1, XDATA, add(CFA_XSP16, literal(-10)))
        CFI V3 load(1, XDATA, add(CFA_XSP16, literal(-11)))
        CFI V2 load(1, XDATA, add(CFA_XSP16, literal(-12)))
        CFI V1 load(1, XDATA, add(CFA_XSP16, literal(-13)))
        CFI V0 load(1, XDATA, add(CFA_XSP16, literal(-14)))
        CFI VB load(1, XDATA, add(CFA_XSP16, literal(-15)))
        CFI R6 load(1, XDATA, add(CFA_XSP16, literal(-16)))
        CFI CFA_SP SP+0
        CFI CFA_XSP16 add(XSP16, 16)
        ; Saved register size: 16
        ; Auto size: 0
        MOV     ?V0 + 4,R1
        MOV     A,R2
        MOV     R6,A
        MOV     A,R3
        MOV     R7,A
        MOV     ?V0 + 5,R4
//  480   uint16 dstIdx;
//  481   uint16 x;
//  482 
//  483   // Find the records in the assoc list
//  484   if ( dstAddr->addrMode == AddrGroup )
        MOV     DPL,R6
        MOV     DPH,R7
        INC     DPTR
        INC     DPTR
        INC     DPTR
        INC     DPTR
        INC     DPTR
        INC     DPTR
        INC     DPTR
        INC     DPTR
        MOVX    A,@DPTR
        XRL     A,#0x1
        JNZ     ??bindFindExisting_0
//  485   {
//  486     dstIdx = dstAddr->addr.shortAddr;
        MOV     DPL,R6
        MOV     DPH,R7
        MOVX    A,@DPTR
        MOV     ?V0 + 2,A
        INC     DPTR
        MOVX    A,@DPTR
        MOV     ?V0 + 3,A
        SJMP    ??bindFindExisting_1
//  487   }
//  488   else
//  489   {
//  490     dstIdx = bindingAddrMgsHelperFind( dstAddr );
??bindFindExisting_0:
        ; Setup parameters for call to function bindingAddrMgsHelperFind
        MOV     A,R6
        MOV     R2,A
        MOV     A,R7
        MOV     R3,A
        LCALL   ??bindingAddrMgsHelperFind?relay
        MOV     ?V0 + 6,R2
        MOV     ?V0 + 7,R3
        MOV     ?V0 + 2,?V0 + 6
        MOV     ?V0 + 3,?V0 + 7
//  491   }
//  492 
//  493   if ( dstIdx == INVALID_NODE_ADDR )
??bindFindExisting_1:
        MOV     A,#-0x2
        XRL     A,?V0 + 2
        JNZ     ??bindFindExisting_2
        MOV     A,#-0x1
        XRL     A,?V0 + 3
??bindFindExisting_2:
        JNZ     ??bindFindExisting_3
//  494   {
//  495     return ( (BindingEntry_t *)NULL );
        MOV     R2,#0x0
        MOV     R3,#0x0
        LJMP    ??bindFindExisting_4 & 0xFFFF
//  496   }
//  497 
//  498   // Start at the beginning
//  499   for ( x = 0; x < gNWK_MAX_BINDING_ENTRIES; x++ )
??bindFindExisting_3:
        MOV     ?V0 + 0,#0x0
        MOV     ?V0 + 1,#0x0
??bindFindExisting_5:
        MOV     DPTR,#gNWK_MAX_BINDING_ENTRIES
        CLR     A
        MOVC    A,@A+DPTR
        MOV     R0,A
        MOV     A,#0x1
        MOVC    A,@A+DPTR
        MOV     R1,A
        CLR     C
        MOV     A,?V0 + 0
        SUBB    A,R0
        MOV     A,?V0 + 1
        SUBB    A,R1
        JC      $+5
        LJMP    ??bindFindExisting_6 & 0xFFFF
//  500   {
//  501     if ( (BindingTable[x].srcEP == srcEpInt) )
        MOV     R0,?V0 + 0
        MOV     R1,?V0 + 1
        MOV     A,R0
        MOV     B,#0xe
        MUL     AB
        XCH     A,R0
        MOV     R2,B
        MOV     B,#0x0
        MUL     AB
        ADD     A,R2
        MOV     R2,A
        MOV     B,#0xe
        MOV     A,?V0 + 1
        MUL     AB
        ADD     A,R2
        MOV     R1,A
        MOV     A,#BindingTable & 0xff
        ADD     A,R0
        MOV     DPL,A
        MOV     A,#(BindingTable >> 8) & 0xff
        ADDC    A,R1
        MOV     DPH,A
        MOVX    A,@DPTR
        XRL     A,?V0 + 4
        JZ      $+5
        LJMP    ??bindFindExisting_7 & 0xFFFF
//  502     {
//  503       if ( ((dstAddr->addrMode == AddrGroup)
//  504               && (BindingTable[x].dstGroupMode == DSTGROUPMODE_GROUP)
//  505               && (dstIdx == BindingTable[x].dstIdx))
//  506          || ((dstAddr->addrMode != AddrGroup)
//  507              && (BindingTable[x].dstGroupMode == DSTGROUPMODE_ADDR)
//  508              && (dstIdx == BindingTable[x].dstIdx) && (BindingTable[x].dstEP == dstEpInt)) )
        MOV     DPL,R6
        MOV     DPH,R7
        INC     DPTR
        INC     DPTR
        INC     DPTR
        INC     DPTR
        INC     DPTR
        INC     DPTR
        INC     DPTR
        INC     DPTR
        MOVX    A,@DPTR
        XRL     A,#0x1
        JNZ     ??bindFindExisting_8
        MOV     R0,?V0 + 0
        MOV     R1,?V0 + 1
        MOV     A,R0
        MOV     B,#0xe
        MUL     AB
        XCH     A,R0
        MOV     R2,B
        MOV     B,#0x0
        MUL     AB
        ADD     A,R2
        MOV     R2,A
        MOV     B,#0xe
        MOV     A,?V0 + 1
        MUL     AB
        ADD     A,R2
        MOV     R1,A
        MOV     A,#(BindingTable + 1) & 0xff
        ADD     A,R0
        MOV     DPL,A
        MOV     A,#((BindingTable + 1) >> 8) & 0xff
        ADDC    A,R1
        MOV     DPH,A
        MOVX    A,@DPTR
        XRL     A,#0x1
        JNZ     ??bindFindExisting_8
        MOV     R0,?V0 + 0
        MOV     R1,?V0 + 1
        MOV     A,R0
        MOV     B,#0xe
        MUL     AB
        XCH     A,R0
        MOV     R2,B
        MOV     B,#0x0
        MUL     AB
        ADD     A,R2
        MOV     R2,A
        MOV     B,#0xe
        MOV     A,?V0 + 1
        MUL     AB
        ADD     A,R2
        MOV     R1,A
        MOV     A,#(BindingTable + 2) & 0xff
        ADD     A,R0
        MOV     DPL,A
        MOV     A,#((BindingTable + 2) >> 8) & 0xff
        ADDC    A,R1
        MOV     DPH,A
        MOVX    A,@DPTR
        XRL     A,?V0 + 2
        JNZ     ??bindFindExisting_9
        INC     DPTR
        MOVX    A,@DPTR
        XRL     A,?V0 + 3
??bindFindExisting_9:
        JNZ     $+5
        LJMP    ??bindFindExisting_10 & 0xFFFF
??bindFindExisting_8:
        MOV     DPL,R6
        MOV     DPH,R7
        INC     DPTR
        INC     DPTR
        INC     DPTR
        INC     DPTR
        INC     DPTR
        INC     DPTR
        INC     DPTR
        INC     DPTR
        MOVX    A,@DPTR
        XRL     A,#0x1
        JNZ     $+5
        LJMP    ??bindFindExisting_7 & 0xFFFF
        MOV     R0,?V0 + 0
        MOV     R1,?V0 + 1
        MOV     A,R0
        MOV     B,#0xe
        MUL     AB
        XCH     A,R0
        MOV     R2,B
        MOV     B,#0x0
        MUL     AB
        ADD     A,R2
        MOV     R2,A
        MOV     B,#0xe
        MOV     A,?V0 + 1
        MUL     AB
        ADD     A,R2
        MOV     R1,A
        MOV     A,#(BindingTable + 1) & 0xff
        ADD     A,R0
        MOV     DPL,A
        MOV     A,#((BindingTable + 1) >> 8) & 0xff
        ADDC    A,R1
        MOV     DPH,A
        MOVX    A,@DPTR
        JNZ     ??bindFindExisting_7
        MOV     R0,?V0 + 0
        MOV     R1,?V0 + 1
        MOV     A,R0
        MOV     B,#0xe
        MUL     AB
        XCH     A,R0
        MOV     R2,B
        MOV     B,#0x0
        MUL     AB
        ADD     A,R2
        MOV     R2,A
        MOV     B,#0xe
        MOV     A,?V0 + 1
        MUL     AB
        ADD     A,R2
        MOV     R1,A
        MOV     A,#(BindingTable + 2) & 0xff
        ADD     A,R0
        MOV     DPL,A
        MOV     A,#((BindingTable + 2) >> 8) & 0xff
        ADDC    A,R1
        MOV     DPH,A
        MOVX    A,@DPTR
        XRL     A,?V0 + 2
        JNZ     ??bindFindExisting_11
        INC     DPTR
        MOVX    A,@DPTR
        XRL     A,?V0 + 3
??bindFindExisting_11:
        JNZ     ??bindFindExisting_7
        MOV     R0,?V0 + 0
        MOV     R1,?V0 + 1
        MOV     A,R0
        MOV     B,#0xe
        MUL     AB
        XCH     A,R0
        MOV     R2,B
        MOV     B,#0x0
        MUL     AB
        ADD     A,R2
        MOV     R2,A
        MOV     B,#0xe
        MOV     A,?V0 + 1
        MUL     AB
        ADD     A,R2
        MOV     R1,A
        MOV     A,#(BindingTable + 4) & 0xff
        ADD     A,R0
        MOV     DPL,A
        MOV     A,#((BindingTable + 4) >> 8) & 0xff
        ADDC    A,R1
        MOV     DPH,A
        MOVX    A,@DPTR
        XRL     A,?V0 + 5
        JNZ     ??bindFindExisting_7
//  509       {
//  510         return ( &BindingTable[x] );
??bindFindExisting_10:
        MOV     A,?V0 + 0
        MOV     B,#0xe
        MUL     AB
        XCH     A,?V0 + 0
        MOV     R0,B
        MOV     B,#0x0
        MUL     AB
        ADD     A,R0
        MOV     R0,A
        MOV     B,#0xe
        MOV     A,?V0 + 1
        MUL     AB
        ADD     A,R0
        MOV     ?V0 + 1,A
        MOV     A,#BindingTable & 0xff
        ADD     A,?V0 + 0
        MOV     R2,A
        MOV     A,#(BindingTable >> 8) & 0xff
        ADDC    A,?V0 + 1
        MOV     R3,A
        SJMP    ??bindFindExisting_4
//  511       }
//  512     }
//  513   }
??bindFindExisting_7:
        MOV     A,?V0 + 0
        ADD     A,#0x1
        MOV     ?V0 + 0,A
        MOV     A,?V0 + 1
        ADDC    A,#0x0
        MOV     ?V0 + 1,A
        LJMP    ??bindFindExisting_5 & 0xFFFF
//  514 
//  515   return ( (BindingEntry_t *)NULL );
??bindFindExisting_6:
        MOV     R2,#0x0
        MOV     R3,#0x0
??bindFindExisting_4:
        MOV     R7,#0x8
        LJMP    ?BANKED_LEAVE_XDATA
        CFI EndBlock cfiBlock9
//  516 }
//  517 
//  518 /*********************************************************************
//  519  * @fn       bindRemoveDev()
//  520  *
//  521  * @brief
//  522  *
//  523  *   Remove all bind(s) entries associated to a device address (destination).
//  524  *   Updates binding table.
//  525  *
//  526  * @param   Addr - address of device to be removed from Binding Table
//  527  *
//  528  * @return  none
//  529  */

        RSEG BANKED_CODE:CODE:NOROOT(0)
//  530 void bindRemoveDev( zAddrType_t *Addr )
bindRemoveDev:
        CFI Block cfiBlock10 Using cfiCommon0
        CFI Function bindRemoveDev
        CODE
//  531 {
        FUNCALL bindRemoveDev, bindingAddrMgsHelperFind
        LOCFRAME ISTACK, 0, STACK
        LOCFRAME PSTACK, 0, STACK
        LOCFRAME XSTACK, 14, STACK
        LOCFRAME IOVERLAY, 0, STATIC
        LOCFRAME DOVERLAY, 0, STATIC
        ARGFRAME ISTACK, 0, STACK
        ARGFRAME PSTACK, 0, STACK
        ARGFRAME XSTACK, 14, STACK
        ARGFRAME IOVERLAY, 0, STATIC
        ARGFRAME DOVERLAY, 0, STATIC
        FUNCALL bindRemoveDev, bindRemoveEntry
        LOCFRAME ISTACK, 0, STACK
        LOCFRAME PSTACK, 0, STACK
        LOCFRAME XSTACK, 14, STACK
        LOCFRAME IOVERLAY, 0, STATIC
        LOCFRAME DOVERLAY, 0, STATIC
        ARGFRAME ISTACK, 0, STACK
        ARGFRAME PSTACK, 0, STACK
        ARGFRAME XSTACK, 14, STACK
        ARGFRAME IOVERLAY, 0, STATIC
        ARGFRAME DOVERLAY, 0, STATIC
        MOV     A,#-0xe
        LCALL   ?BANKED_ENTER_XDATA
        CFI DPH0 load(1, XDATA, add(CFA_XSP16, literal(-1)))
        CFI DPL0 load(1, XDATA, add(CFA_XSP16, literal(-2)))
        CFI ?BRET_EXT load(1, XDATA, add(CFA_XSP16, literal(-3)))
        CFI ?RET_HIGH load(1, XDATA, add(CFA_XSP16, literal(-4)))
        CFI ?RET_LOW load(1, XDATA, add(CFA_XSP16, literal(-5)))
        CFI R7 load(1, XDATA, add(CFA_XSP16, literal(-6)))
        CFI V5 load(1, XDATA, add(CFA_XSP16, literal(-7)))
        CFI V4 load(1, XDATA, add(CFA_XSP16, literal(-8)))
        CFI V3 load(1, XDATA, add(CFA_XSP16, literal(-9)))
        CFI V2 load(1, XDATA, add(CFA_XSP16, literal(-10)))
        CFI V1 load(1, XDATA, add(CFA_XSP16, literal(-11)))
        CFI V0 load(1, XDATA, add(CFA_XSP16, literal(-12)))
        CFI VB load(1, XDATA, add(CFA_XSP16, literal(-13)))
        CFI R6 load(1, XDATA, add(CFA_XSP16, literal(-14)))
        CFI CFA_SP SP+0
        CFI CFA_XSP16 add(XSP16, 14)
        ; Saved register size: 14
        ; Auto size: 0
        MOV     ?V0 + 0,R2
        MOV     ?V0 + 1,R3
//  532   uint16 idx;
//  533   uint16 x;
//  534 
//  535   if ( Addr->addrMode == AddrGroup )
        MOV     DPL,?V0 + 0
        MOV     DPH,?V0 + 1
        INC     DPTR
        INC     DPTR
        INC     DPTR
        INC     DPTR
        INC     DPTR
        INC     DPTR
        INC     DPTR
        INC     DPTR
        MOVX    A,@DPTR
        XRL     A,#0x1
        JNZ     ??bindRemoveDev_0
//  536   {
//  537     idx = Addr->addr.shortAddr;
        MOV     DPL,?V0 + 0
        MOV     DPH,?V0 + 1
        MOVX    A,@DPTR
        MOV     ?V0 + 2,A
        INC     DPTR
        MOVX    A,@DPTR
        MOV     ?V0 + 3,A
        SJMP    ??bindRemoveDev_1
//  538   }
//  539   else
//  540   {
//  541     idx = bindingAddrMgsHelperFind( Addr );
??bindRemoveDev_0:
        ; Setup parameters for call to function bindingAddrMgsHelperFind
        MOV     R2,?V0 + 0
        MOV     R3,?V0 + 1
        LCALL   ??bindingAddrMgsHelperFind?relay
        MOV     ?V0 + 4,R2
        MOV     ?V0 + 5,R3
        MOV     ?V0 + 2,?V0 + 4
        MOV     ?V0 + 3,?V0 + 5
//  542   }
//  543 
//  544   if ( idx == INVALID_NODE_ADDR )
??bindRemoveDev_1:
        MOV     A,#-0x2
        XRL     A,?V0 + 2
        JNZ     ??bindRemoveDev_2
        MOV     A,#-0x1
        XRL     A,?V0 + 3
??bindRemoveDev_2:
        JNZ     $+5
        LJMP    ??bindRemoveDev_3 & 0xFFFF
//  545   {
//  546     return;
//  547   }
//  548 
//  549   // Removes all the entries that match the destination Address/Index
//  550   for ( x = 0; x < gNWK_MAX_BINDING_ENTRIES; x++ )
        MOV     R6,#0x0
        MOV     R7,#0x0
??bindRemoveDev_4:
        MOV     DPTR,#gNWK_MAX_BINDING_ENTRIES
        CLR     A
        MOVC    A,@A+DPTR
        MOV     R0,A
        MOV     A,#0x1
        MOVC    A,@A+DPTR
        MOV     R1,A
        CLR     C
        MOV     A,R6
        SUBB    A,R0
        MOV     A,R7
        SUBB    A,R1
        JC      $+5
        LJMP    ??bindRemoveDev_3 & 0xFFFF
//  551   {
//  552     if ( ( (Addr->addrMode == AddrGroup) && (BindingTable[x].dstGroupMode == DSTGROUPMODE_GROUP)
//  553                                          && (BindingTable[x].dstIdx == idx) ) ||
//  554          ( (Addr->addrMode != AddrGroup) && (BindingTable[x].dstGroupMode == DSTGROUPMODE_ADDR)
//  555                                          && (BindingTable[x].dstIdx == idx) ) )
        MOV     DPL,?V0 + 0
        MOV     DPH,?V0 + 1
        INC     DPTR
        INC     DPTR
        INC     DPTR
        INC     DPTR
        INC     DPTR
        INC     DPTR
        INC     DPTR
        INC     DPTR
        MOVX    A,@DPTR
        XRL     A,#0x1
        JNZ     ??bindRemoveDev_5
        MOV     A,R6
        MOV     R0,A
        MOV     A,R7
        MOV     R1,A
        MOV     A,R0
        MOV     B,#0xe
        MUL     AB
        XCH     A,R0
        MOV     R2,B
        MOV     B,#0x0
        MUL     AB
        ADD     A,R2
        MOV     R2,A
        MOV     B,#0xe
        MOV     A,R1
        MUL     AB
        ADD     A,R2
        MOV     R1,A
        MOV     A,#(BindingTable + 1) & 0xff
        ADD     A,R0
        MOV     DPL,A
        MOV     A,#((BindingTable + 1) >> 8) & 0xff
        ADDC    A,R1
        MOV     DPH,A
        MOVX    A,@DPTR
        XRL     A,#0x1
        JNZ     ??bindRemoveDev_5
        MOV     A,R6
        MOV     R0,A
        MOV     A,R7
        MOV     R1,A
        MOV     A,R0
        MOV     B,#0xe
        MUL     AB
        XCH     A,R0
        MOV     R2,B
        MOV     B,#0x0
        MUL     AB
        ADD     A,R2
        MOV     R2,A
        MOV     B,#0xe
        MOV     A,R1
        MUL     AB
        ADD     A,R2
        MOV     R1,A
        MOV     A,#(BindingTable + 2) & 0xff
        ADD     A,R0
        MOV     DPL,A
        MOV     A,#((BindingTable + 2) >> 8) & 0xff
        ADDC    A,R1
        MOV     DPH,A
        MOVX    A,@DPTR
        XRL     A,?V0 + 2
        JNZ     ??bindRemoveDev_6
        INC     DPTR
        MOVX    A,@DPTR
        XRL     A,?V0 + 3
??bindRemoveDev_6:
        JZ      ??bindRemoveDev_7
??bindRemoveDev_5:
        MOV     DPL,?V0 + 0
        MOV     DPH,?V0 + 1
        INC     DPTR
        INC     DPTR
        INC     DPTR
        INC     DPTR
        INC     DPTR
        INC     DPTR
        INC     DPTR
        INC     DPTR
        MOVX    A,@DPTR
        XRL     A,#0x1
        JZ      ??bindRemoveDev_8
        MOV     A,R6
        MOV     R0,A
        MOV     A,R7
        MOV     R1,A
        MOV     A,R0
        MOV     B,#0xe
        MUL     AB
        XCH     A,R0
        MOV     R2,B
        MOV     B,#0x0
        MUL     AB
        ADD     A,R2
        MOV     R2,A
        MOV     B,#0xe
        MOV     A,R1
        MUL     AB
        ADD     A,R2
        MOV     R1,A
        MOV     A,#(BindingTable + 1) & 0xff
        ADD     A,R0
        MOV     DPL,A
        MOV     A,#((BindingTable + 1) >> 8) & 0xff
        ADDC    A,R1
        MOV     DPH,A
        MOVX    A,@DPTR
        JNZ     ??bindRemoveDev_8
        MOV     A,R6
        MOV     R0,A
        MOV     A,R7
        MOV     R1,A
        MOV     A,R0
        MOV     B,#0xe
        MUL     AB
        XCH     A,R0
        MOV     R2,B
        MOV     B,#0x0
        MUL     AB
        ADD     A,R2
        MOV     R2,A
        MOV     B,#0xe
        MOV     A,R1
        MUL     AB
        ADD     A,R2
        MOV     R1,A
        MOV     A,#(BindingTable + 2) & 0xff
        ADD     A,R0
        MOV     DPL,A
        MOV     A,#((BindingTable + 2) >> 8) & 0xff
        ADDC    A,R1
        MOV     DPH,A
        MOVX    A,@DPTR
        XRL     A,?V0 + 2
        JNZ     ??bindRemoveDev_9
        INC     DPTR
        MOVX    A,@DPTR
        XRL     A,?V0 + 3
??bindRemoveDev_9:
        JNZ     ??bindRemoveDev_8
//  556     {
//  557       bindRemoveEntry( &BindingTable[x] );
??bindRemoveDev_7:
        ; Setup parameters for call to function bindRemoveEntry
        MOV     A,R6
        MOV     R0,A
        MOV     A,R7
        MOV     R1,A
        MOV     A,R0
        MOV     B,#0xe
        MUL     AB
        XCH     A,R0
        MOV     R2,B
        MOV     B,#0x0
        MUL     AB
        ADD     A,R2
        MOV     R2,A
        MOV     B,#0xe
        MOV     A,R1
        MUL     AB
        ADD     A,R2
        MOV     R1,A
        MOV     A,#BindingTable & 0xff
        ADD     A,R0
        MOV     R2,A
        MOV     A,#(BindingTable >> 8) & 0xff
        ADDC    A,R1
        MOV     R3,A
        LCALL   ??bindRemoveEntry?relay
        MOV     A,R1
//  558     }
//  559   }
??bindRemoveDev_8:
        MOV     A,R6
        ADD     A,#0x1
        MOV     R6,A
        MOV     A,R7
        ADDC    A,#0x0
        MOV     R7,A
        LJMP    ??bindRemoveDev_4 & 0xFFFF
//  560 }
??bindRemoveDev_3:
        MOV     R7,#0x6
        LJMP    ?BANKED_LEAVE_XDATA
        CFI EndBlock cfiBlock10
//  561 
//  562 /*********************************************************************
//  563  * @fn       bindRemoveSrcDev()
//  564  *
//  565  * @brief
//  566  *
//  567  *   Remove binds(s) associated to device address (source).
//  568  *   Updates binding table.
//  569  *
//  570  * @param   srcAddr - address of device
//  571  * @param   ep - endpoint to remove, 0xFF is all endpoints
//  572  *
//  573  * @return  none
//  574  */

        RSEG BANKED_CODE:CODE:NOROOT(0)
//  575 void bindRemoveSrcDev( uint8 ep )
bindRemoveSrcDev:
        CFI Block cfiBlock11 Using cfiCommon0
        CFI Function bindRemoveSrcDev
        CODE
//  576 {
        FUNCALL bindRemoveSrcDev, bindRemoveEntry
        LOCFRAME ISTACK, 0, STACK
        LOCFRAME PSTACK, 0, STACK
        LOCFRAME XSTACK, 9, STACK
        LOCFRAME IOVERLAY, 0, STATIC
        LOCFRAME DOVERLAY, 0, STATIC
        ARGFRAME ISTACK, 0, STACK
        ARGFRAME PSTACK, 0, STACK
        ARGFRAME XSTACK, 9, STACK
        ARGFRAME IOVERLAY, 0, STATIC
        ARGFRAME DOVERLAY, 0, STATIC
        MOV     A,#-0x9
        LCALL   ?BANKED_ENTER_XDATA
        CFI DPH0 load(1, XDATA, add(CFA_XSP16, literal(-1)))
        CFI DPL0 load(1, XDATA, add(CFA_XSP16, literal(-2)))
        CFI ?BRET_EXT load(1, XDATA, add(CFA_XSP16, literal(-3)))
        CFI ?RET_HIGH load(1, XDATA, add(CFA_XSP16, literal(-4)))
        CFI ?RET_LOW load(1, XDATA, add(CFA_XSP16, literal(-5)))
        CFI R7 load(1, XDATA, add(CFA_XSP16, literal(-6)))
        CFI V0 load(1, XDATA, add(CFA_XSP16, literal(-7)))
        CFI VB load(1, XDATA, add(CFA_XSP16, literal(-8)))
        CFI R6 load(1, XDATA, add(CFA_XSP16, literal(-9)))
        CFI CFA_SP SP+0
        CFI CFA_XSP16 add(XSP16, 9)
        ; Saved register size: 9
        ; Auto size: 0
        MOV     ?V0 + 0,R1
//  577   uint16 x;
//  578 
//  579   for ( x = 0; x < gNWK_MAX_BINDING_ENTRIES; x++ )
        MOV     R6,#0x0
        MOV     R7,#0x0
??bindRemoveSrcDev_0:
        MOV     DPTR,#gNWK_MAX_BINDING_ENTRIES
        CLR     A
        MOVC    A,@A+DPTR
        MOV     R0,A
        MOV     A,#0x1
        MOVC    A,@A+DPTR
        MOV     R1,A
        CLR     C
        MOV     A,R6
        SUBB    A,R0
        MOV     A,R7
        SUBB    A,R1
        JNC     ??bindRemoveSrcDev_1
//  580   {
//  581     if ( (ep == 0xFF) || (ep == BindingTable[x].srcEP) )
        MOV     A,#-0x1
        XRL     A,?V0 + 0
        JZ      ??bindRemoveSrcDev_2
        MOV     A,R6
        MOV     R0,A
        MOV     A,R7
        MOV     R1,A
        MOV     A,R0
        MOV     B,#0xe
        MUL     AB
        XCH     A,R0
        MOV     R2,B
        MOV     B,#0x0
        MUL     AB
        ADD     A,R2
        MOV     R2,A
        MOV     B,#0xe
        MOV     A,R1
        MUL     AB
        ADD     A,R2
        MOV     R1,A
        MOV     A,#BindingTable & 0xff
        ADD     A,R0
        MOV     DPL,A
        MOV     A,#(BindingTable >> 8) & 0xff
        ADDC    A,R1
        MOV     DPH,A
        MOVX    A,@DPTR
        XRL     A,?V0 + 0
        JNZ     ??bindRemoveSrcDev_3
//  582     {
//  583       bindRemoveEntry( &BindingTable[x] );
??bindRemoveSrcDev_2:
        ; Setup parameters for call to function bindRemoveEntry
        MOV     A,R6
        MOV     R0,A
        MOV     A,R7
        MOV     R1,A
        MOV     A,R0
        MOV     B,#0xe
        MUL     AB
        XCH     A,R0
        MOV     R2,B
        MOV     B,#0x0
        MUL     AB
        ADD     A,R2
        MOV     R2,A
        MOV     B,#0xe
        MOV     A,R1
        MUL     AB
        ADD     A,R2
        MOV     R1,A
        MOV     A,#BindingTable & 0xff
        ADD     A,R0
        MOV     R2,A
        MOV     A,#(BindingTable >> 8) & 0xff
        ADDC    A,R1
        MOV     R3,A
        LCALL   ??bindRemoveEntry?relay
        MOV     A,R1
//  584     }
//  585   }
??bindRemoveSrcDev_3:
        MOV     A,R6
        ADD     A,#0x1
        MOV     R6,A
        MOV     A,R7
        ADDC    A,#0x0
        MOV     R7,A
        SJMP    ??bindRemoveSrcDev_0
//  586 }
??bindRemoveSrcDev_1:
        MOV     R7,#0x1
        LJMP    ?BANKED_LEAVE_XDATA
        CFI EndBlock cfiBlock11
//  587 
//  588 /*********************************************************************
//  589  * @fn          bindNumBoundTo
//  590  *
//  591  * @brief       Calculate the number items this device is bound to.
//  592  *              When srcMode is set to TRUE, discard what value devAddr
//  593  *              has, it returns number count bound to the local dev.
//  594  *
//  595  * @param       devAddr - device Address
//  596  * @param       devEP - endpoint
//  597  * @param       srcMode - TRUE - assume devHandle is a source address
//  598  *                        FALSE - destination address
//  599  *
//  600  * @return      status
//  601  */

        RSEG BANKED_CODE:CODE:NOROOT(0)
//  602 byte bindNumBoundTo( zAddrType_t *devAddr, byte devEpInt, byte srcMode )
bindNumBoundTo:
        CFI Block cfiBlock12 Using cfiCommon0
        CFI Function bindNumBoundTo
        CODE
//  603 {
        FUNCALL bindNumBoundTo, bindingAddrMgsHelperFind
        LOCFRAME ISTACK, 0, STACK
        LOCFRAME PSTACK, 0, STACK
        LOCFRAME XSTACK, 20, STACK
        LOCFRAME IOVERLAY, 0, STATIC
        LOCFRAME DOVERLAY, 0, STATIC
        ARGFRAME ISTACK, 0, STACK
        ARGFRAME PSTACK, 0, STACK
        ARGFRAME XSTACK, 20, STACK
        ARGFRAME IOVERLAY, 0, STATIC
        ARGFRAME DOVERLAY, 0, STATIC
        MOV     A,#-0x14
        LCALL   ?BANKED_ENTER_XDATA
        CFI DPH0 load(1, XDATA, add(CFA_XSP16, literal(-1)))
        CFI DPL0 load(1, XDATA, add(CFA_XSP16, literal(-2)))
        CFI ?BRET_EXT load(1, XDATA, add(CFA_XSP16, literal(-3)))
        CFI ?RET_HIGH load(1, XDATA, add(CFA_XSP16, literal(-4)))
        CFI ?RET_LOW load(1, XDATA, add(CFA_XSP16, literal(-5)))
        CFI R7 load(1, XDATA, add(CFA_XSP16, literal(-6)))
        CFI V11 load(1, XDATA, add(CFA_XSP16, literal(-7)))
        CFI V10 load(1, XDATA, add(CFA_XSP16, literal(-8)))
        CFI V9 load(1, XDATA, add(CFA_XSP16, literal(-9)))
        CFI V8 load(1, XDATA, add(CFA_XSP16, literal(-10)))
        CFI V7 load(1, XDATA, add(CFA_XSP16, literal(-11)))
        CFI V6 load(1, XDATA, add(CFA_XSP16, literal(-12)))
        CFI V5 load(1, XDATA, add(CFA_XSP16, literal(-13)))
        CFI V4 load(1, XDATA, add(CFA_XSP16, literal(-14)))
        CFI V3 load(1, XDATA, add(CFA_XSP16, literal(-15)))
        CFI V2 load(1, XDATA, add(CFA_XSP16, literal(-16)))
        CFI V1 load(1, XDATA, add(CFA_XSP16, literal(-17)))
        CFI V0 load(1, XDATA, add(CFA_XSP16, literal(-18)))
        CFI VB load(1, XDATA, add(CFA_XSP16, literal(-19)))
        CFI R6 load(1, XDATA, add(CFA_XSP16, literal(-20)))
        CFI CFA_SP SP+0
        CFI CFA_XSP16 add(XSP16, 20)
        ; Saved register size: 20
        ; Auto size: 0
        MOV     A,R2
        MOV     R6,A
        MOV     A,R3
        MOV     R7,A
        MOV     ?V0 + 7,R1
        MOV     ?V0 + 8,R4
//  604   BindingEntry_t *pBind;
//  605   uint16 idx;
//  606   byte   num;
//  607   uint16 x;
//  608 
//  609   // Init
//  610   num = 0;
        MOV     ?V0 + 6,#0x0
//  611 
//  612   if ( devAddr->addrMode == AddrGroup )
        MOV     DPL,R6
        MOV     DPH,R7
        INC     DPTR
        INC     DPTR
        INC     DPTR
        INC     DPTR
        INC     DPTR
        INC     DPTR
        INC     DPTR
        INC     DPTR
        MOVX    A,@DPTR
        XRL     A,#0x1
        JNZ     ??bindNumBoundTo_0
//  613   {
//  614     idx = devAddr->addr.shortAddr;
        MOV     DPL,R6
        MOV     DPH,R7
        MOVX    A,@DPTR
        MOV     ?V0 + 4,A
        INC     DPTR
        MOVX    A,@DPTR
        MOV     ?V0 + 5,A
        SJMP    ??bindNumBoundTo_1
//  615   }
//  616   else
//  617   {
//  618     idx = bindingAddrMgsHelperFind( devAddr );
??bindNumBoundTo_0:
        ; Setup parameters for call to function bindingAddrMgsHelperFind
        MOV     A,R6
        MOV     R2,A
        MOV     A,R7
        MOV     R3,A
        LCALL   ??bindingAddrMgsHelperFind?relay
        MOV     ?V0 + 10,R2
        MOV     ?V0 + 11,R3
        MOV     ?V0 + 4,?V0 + 10
        MOV     ?V0 + 5,?V0 + 11
//  619   }
//  620 
//  621   for ( x = 0; x < gNWK_MAX_BINDING_ENTRIES; x++ )
??bindNumBoundTo_1:
        MOV     ?V0 + 0,#0x0
        MOV     ?V0 + 1,#0x0
??bindNumBoundTo_2:
        MOV     DPTR,#gNWK_MAX_BINDING_ENTRIES
        CLR     A
        MOVC    A,@A+DPTR
        MOV     R0,A
        MOV     A,#0x1
        MOVC    A,@A+DPTR
        MOV     R1,A
        CLR     C
        MOV     A,?V0 + 0
        SUBB    A,R0
        MOV     A,?V0 + 1
        SUBB    A,R1
        JC      $+5
        LJMP    ??bindNumBoundTo_3 & 0xFFFF
//  622   {
//  623     pBind = &BindingTable[x];
        MOV     R0,?V0 + 0
        MOV     R1,?V0 + 1
        MOV     A,R0
        MOV     B,#0xe
        MUL     AB
        XCH     A,R0
        MOV     R2,B
        MOV     B,#0x0
        MUL     AB
        ADD     A,R2
        MOV     R2,A
        MOV     B,#0xe
        MOV     A,?V0 + 1
        MUL     AB
        ADD     A,R2
        MOV     R1,A
        MOV     A,#BindingTable & 0xff
        ADD     A,R0
        MOV     R0,A
        MOV     A,#(BindingTable >> 8) & 0xff
        ADDC    A,R1
        MOV     R1,A
        MOV     ?V0 + 2,R0
        MOV     ?V0 + 3,R1
//  624     if ( srcMode )
        MOV     A,?V0 + 8
        JZ      ??bindNumBoundTo_4
//  625     {
//  626       if ( pBind->srcEP == devEpInt )
        MOV     DPL,?V0 + 2
        MOV     DPH,?V0 + 3
        MOVX    A,@DPTR
        XRL     A,?V0 + 7
        JNZ     ??bindNumBoundTo_5
//  627       {
//  628         num++;
        INC     ?V0 + 6
        SJMP    ??bindNumBoundTo_5
//  629       }
//  630     }
//  631     else
//  632     {
//  633       if ( ((devAddr->addrMode == AddrGroup)
//  634               && (pBind->dstGroupMode == DSTGROUPMODE_GROUP) && (pBind->dstIdx == idx))
//  635           || ((devAddr->addrMode != AddrGroup) && (pBind->dstGroupMode == DSTGROUPMODE_ADDR)
//  636                                 && (pBind->dstIdx == idx) && (pBind->dstEP == devEpInt)) )
??bindNumBoundTo_4:
        MOV     DPL,R6
        MOV     DPH,R7
        INC     DPTR
        INC     DPTR
        INC     DPTR
        INC     DPTR
        INC     DPTR
        INC     DPTR
        INC     DPTR
        INC     DPTR
        MOVX    A,@DPTR
        XRL     A,#0x1
        JNZ     ??bindNumBoundTo_6
        MOV     DPL,?V0 + 2
        MOV     DPH,?V0 + 3
        INC     DPTR
        MOVX    A,@DPTR
        XRL     A,#0x1
        JNZ     ??bindNumBoundTo_6
        MOV     DPL,?V0 + 2
        MOV     DPH,?V0 + 3
        INC     DPTR
        INC     DPTR
        MOVX    A,@DPTR
        XRL     A,?V0 + 4
        JNZ     ??bindNumBoundTo_7
        INC     DPTR
        MOVX    A,@DPTR
        XRL     A,?V0 + 5
??bindNumBoundTo_7:
        JZ      ??bindNumBoundTo_8
??bindNumBoundTo_6:
        MOV     DPL,R6
        MOV     DPH,R7
        INC     DPTR
        INC     DPTR
        INC     DPTR
        INC     DPTR
        INC     DPTR
        INC     DPTR
        INC     DPTR
        INC     DPTR
        MOVX    A,@DPTR
        XRL     A,#0x1
        JZ      ??bindNumBoundTo_5
        MOV     DPL,?V0 + 2
        MOV     DPH,?V0 + 3
        INC     DPTR
        MOVX    A,@DPTR
        JNZ     ??bindNumBoundTo_5
        MOV     DPL,?V0 + 2
        MOV     DPH,?V0 + 3
        INC     DPTR
        INC     DPTR
        MOVX    A,@DPTR
        XRL     A,?V0 + 4
        JNZ     ??bindNumBoundTo_9
        INC     DPTR
        MOVX    A,@DPTR
        XRL     A,?V0 + 5
??bindNumBoundTo_9:
        JNZ     ??bindNumBoundTo_5
        MOV     DPL,?V0 + 2
        MOV     DPH,?V0 + 3
        INC     DPTR
        INC     DPTR
        INC     DPTR
        INC     DPTR
        MOVX    A,@DPTR
        XRL     A,?V0 + 7
        JNZ     ??bindNumBoundTo_5
//  637       {
//  638         num++;
??bindNumBoundTo_8:
        INC     ?V0 + 6
//  639       }
//  640     }
//  641   }
??bindNumBoundTo_5:
        MOV     A,?V0 + 0
        ADD     A,#0x1
        MOV     ?V0 + 0,A
        MOV     A,?V0 + 1
        ADDC    A,#0x0
        MOV     ?V0 + 1,A
        LJMP    ??bindNumBoundTo_2 & 0xFFFF
//  642 
//  643   return num;
??bindNumBoundTo_3:
        MOV     R1,?V0 + 6
        MOV     R7,#0xc
        LJMP    ?BANKED_LEAVE_XDATA
        CFI EndBlock cfiBlock12
//  644 }
//  645 
//  646 /*********************************************************************
//  647  * @fn          bindNumReflections
//  648  *
//  649  * @brief       Counts the number of reflections needed for a
//  650  *              endpoint and cluster ID combo.
//  651  *
//  652  * @param       ep - source endpoint
//  653  * @param       clusterID - matching clusterID
//  654  *
//  655  * @return      number of reflections needed.
//  656  */

        RSEG BANKED_CODE:CODE:NOROOT(0)
//  657 uint16 bindNumReflections( uint8 ep, uint16 clusterID )
bindNumReflections:
        CFI Block cfiBlock13 Using cfiCommon0
        CFI Function bindNumReflections
        CODE
//  658 {
        FUNCALL bindNumReflections, bindIsClusterIDinList
        LOCFRAME ISTACK, 0, STACK
        LOCFRAME PSTACK, 0, STACK
        LOCFRAME XSTACK, 16, STACK
        LOCFRAME IOVERLAY, 0, STATIC
        LOCFRAME DOVERLAY, 0, STATIC
        ARGFRAME ISTACK, 0, STACK
        ARGFRAME PSTACK, 0, STACK
        ARGFRAME XSTACK, 16, STACK
        ARGFRAME IOVERLAY, 0, STATIC
        ARGFRAME DOVERLAY, 0, STATIC
        MOV     A,#-0x10
        LCALL   ?BANKED_ENTER_XDATA
        CFI DPH0 load(1, XDATA, add(CFA_XSP16, literal(-1)))
        CFI DPL0 load(1, XDATA, add(CFA_XSP16, literal(-2)))
        CFI ?BRET_EXT load(1, XDATA, add(CFA_XSP16, literal(-3)))
        CFI ?RET_HIGH load(1, XDATA, add(CFA_XSP16, literal(-4)))
        CFI ?RET_LOW load(1, XDATA, add(CFA_XSP16, literal(-5)))
        CFI R7 load(1, XDATA, add(CFA_XSP16, literal(-6)))
        CFI V7 load(1, XDATA, add(CFA_XSP16, literal(-7)))
        CFI V6 load(1, XDATA, add(CFA_XSP16, literal(-8)))
        CFI V5 load(1, XDATA, add(CFA_XSP16, literal(-9)))
        CFI V4 load(1, XDATA, add(CFA_XSP16, literal(-10)))
        CFI V3 load(1, XDATA, add(CFA_XSP16, literal(-11)))
        CFI V2 load(1, XDATA, add(CFA_XSP16, literal(-12)))
        CFI V1 load(1, XDATA, add(CFA_XSP16, literal(-13)))
        CFI V0 load(1, XDATA, add(CFA_XSP16, literal(-14)))
        CFI VB load(1, XDATA, add(CFA_XSP16, literal(-15)))
        CFI R6 load(1, XDATA, add(CFA_XSP16, literal(-16)))
        CFI CFA_SP SP+0
        CFI CFA_XSP16 add(XSP16, 16)
        ; Saved register size: 16
        ; Auto size: 0
        MOV     ?V0 + 6,R1
        MOV     ?V0 + 4,R2
        MOV     ?V0 + 5,R3
//  659   uint16 x;
//  660   BindingEntry_t *pBind;
//  661   uint16 cnt = 0;
        MOV     ?V0 + 0,#0x0
        MOV     ?V0 + 1,#0x0
//  662   uint8 bindEP;
//  663 
//  664   for ( x = 0; x < gNWK_MAX_BINDING_ENTRIES; x++ )
        MOV     R6,#0x0
        MOV     R7,#0x0
??bindNumReflections_0:
        MOV     DPTR,#gNWK_MAX_BINDING_ENTRIES
        CLR     A
        MOVC    A,@A+DPTR
        MOV     R0,A
        MOV     A,#0x1
        MOVC    A,@A+DPTR
        MOV     R1,A
        CLR     C
        MOV     A,R6
        SUBB    A,R0
        MOV     A,R7
        SUBB    A,R1
        JNC     ??bindNumReflections_1
//  665   {
//  666     pBind = &BindingTable[x];
        MOV     A,R6
        MOV     R0,A
        MOV     A,R7
        MOV     R1,A
        MOV     A,R0
        MOV     B,#0xe
        MUL     AB
        XCH     A,R0
        MOV     R2,B
        MOV     B,#0x0
        MUL     AB
        ADD     A,R2
        MOV     R2,A
        MOV     B,#0xe
        MOV     A,R1
        MUL     AB
        ADD     A,R2
        MOV     R1,A
        MOV     A,#BindingTable & 0xff
        ADD     A,R0
        MOV     R0,A
        MOV     A,#(BindingTable >> 8) & 0xff
        ADDC    A,R1
        MOV     R1,A
        MOV     ?V0 + 2,R0
        MOV     ?V0 + 3,R1
//  667     bindEP = pBind->srcEP;
        MOV     DPL,?V0 + 2
        MOV     DPH,?V0 + 3
        MOVX    A,@DPTR
        MOV     ?V0 + 7,A
//  668 
//  669     if ( (bindEP == ep) && (bindIsClusterIDinList( pBind, clusterID )) )
        MOV     A,?V0 + 6
        XRL     A,?V0 + 7
        JNZ     ??bindNumReflections_2
        ; Setup parameters for call to function bindIsClusterIDinList
        MOV     R4,?V0 + 4
        MOV     R5,?V0 + 5
        MOV     R2,?V0 + 2
        MOV     R3,?V0 + 3
        LCALL   ??bindIsClusterIDinList?relay
        MOV     A,R1
        JZ      ??bindNumReflections_2
//  670     {
//  671       cnt++;
        MOV     A,?V0 + 0
        ADD     A,#0x1
        MOV     ?V0 + 0,A
        MOV     A,?V0 + 1
        ADDC    A,#0x0
        MOV     ?V0 + 1,A
//  672     }
//  673   }
??bindNumReflections_2:
        MOV     A,R6
        ADD     A,#0x1
        MOV     R6,A
        MOV     A,R7
        ADDC    A,#0x0
        MOV     R7,A
        SJMP    ??bindNumReflections_0
//  674 
//  675   return ( cnt );
??bindNumReflections_1:
        MOV     R2,?V0 + 0
        MOV     R3,?V0 + 1
        MOV     R7,#0x8
        LJMP    ?BANKED_LEAVE_XDATA
        CFI EndBlock cfiBlock13
//  676 }
//  677 
//  678 /*********************************************************************
//  679  * @fn          bindFind
//  680  *
//  681  * @brief       Finds the binding entry for the source address, endpoint
//  682  *              and cluster ID passed in as a parameter.
//  683  *
//  684  * @param       ep - source endpoint
//  685  * @param       clusterID - matching clusterID
//  686  * @param       skip - number of matches to skip before returning
//  687  *
//  688  * @return      pointer to the binding table entry, NULL if not found
//  689  */

        RSEG BANKED_CODE:CODE:NOROOT(0)
//  690 BindingEntry_t *bindFind( uint8 ep, uint16 clusterID, uint8 skipping )
bindFind:
        CFI Block cfiBlock14 Using cfiCommon0
        CFI Function bindFind
        CODE
//  691 {
        FUNCALL bindFind, bindIsClusterIDinList
        LOCFRAME ISTACK, 0, STACK
        LOCFRAME PSTACK, 0, STACK
        LOCFRAME XSTACK, 15, STACK
        LOCFRAME IOVERLAY, 0, STATIC
        LOCFRAME DOVERLAY, 0, STATIC
        ARGFRAME ISTACK, 0, STACK
        ARGFRAME PSTACK, 0, STACK
        ARGFRAME XSTACK, 15, STACK
        ARGFRAME IOVERLAY, 0, STATIC
        ARGFRAME DOVERLAY, 0, STATIC
        MOV     A,#-0xf
        LCALL   ?BANKED_ENTER_XDATA
        CFI DPH0 load(1, XDATA, add(CFA_XSP16, literal(-1)))
        CFI DPL0 load(1, XDATA, add(CFA_XSP16, literal(-2)))
        CFI ?BRET_EXT load(1, XDATA, add(CFA_XSP16, literal(-3)))
        CFI ?RET_HIGH load(1, XDATA, add(CFA_XSP16, literal(-4)))
        CFI ?RET_LOW load(1, XDATA, add(CFA_XSP16, literal(-5)))
        CFI R7 load(1, XDATA, add(CFA_XSP16, literal(-6)))
        CFI V6 load(1, XDATA, add(CFA_XSP16, literal(-7)))
        CFI V5 load(1, XDATA, add(CFA_XSP16, literal(-8)))
        CFI V4 load(1, XDATA, add(CFA_XSP16, literal(-9)))
        CFI V3 load(1, XDATA, add(CFA_XSP16, literal(-10)))
        CFI V2 load(1, XDATA, add(CFA_XSP16, literal(-11)))
        CFI V1 load(1, XDATA, add(CFA_XSP16, literal(-12)))
        CFI V0 load(1, XDATA, add(CFA_XSP16, literal(-13)))
        CFI VB load(1, XDATA, add(CFA_XSP16, literal(-14)))
        CFI R6 load(1, XDATA, add(CFA_XSP16, literal(-15)))
        CFI CFA_SP SP+0
        CFI CFA_XSP16 add(XSP16, 15)
        ; Saved register size: 15
        ; Auto size: 0
        MOV     ?V0 + 5,R1
        MOV     ?V0 + 2,R2
        MOV     ?V0 + 3,R3
        MOV     ?V0 + 6,R4
//  692   BindingEntry_t *pBind;
//  693   byte skipped = 0;
        MOV     ?V0 + 4,#0x0
//  694   uint16 x;
//  695 
//  696   for ( x = 0; x < gNWK_MAX_BINDING_ENTRIES; x++ )
        MOV     ?V0 + 0,#0x0
        MOV     ?V0 + 1,#0x0
??bindFind_0:
        MOV     DPTR,#gNWK_MAX_BINDING_ENTRIES
        CLR     A
        MOVC    A,@A+DPTR
        MOV     R0,A
        MOV     A,#0x1
        MOVC    A,@A+DPTR
        MOV     R1,A
        CLR     C
        MOV     A,?V0 + 0
        SUBB    A,R0
        MOV     A,?V0 + 1
        SUBB    A,R1
        JNC     ??bindFind_1
//  697   {
//  698     pBind = &BindingTable[x];
        MOV     R0,?V0 + 0
        MOV     R1,?V0 + 1
        MOV     A,R0
        MOV     B,#0xe
        MUL     AB
        XCH     A,R0
        MOV     R2,B
        MOV     B,#0x0
        MUL     AB
        ADD     A,R2
        MOV     R2,A
        MOV     B,#0xe
        MOV     A,?V0 + 1
        MUL     AB
        ADD     A,R2
        MOV     R1,A
        MOV     A,#BindingTable & 0xff
        ADD     A,R0
        MOV     R0,A
        MOV     A,#(BindingTable >> 8) & 0xff
        ADDC    A,R1
        MOV     R1,A
        MOV     A,R0
        MOV     R6,A
        MOV     A,R1
        MOV     R7,A
//  699 
//  700     if ( ( pBind->srcEP == ep) && bindIsClusterIDinList( pBind, clusterID ))
        MOV     DPL,R6
        MOV     DPH,R7
        MOVX    A,@DPTR
        XRL     A,?V0 + 5
        JNZ     ??bindFind_2
        ; Setup parameters for call to function bindIsClusterIDinList
        MOV     R4,?V0 + 2
        MOV     R5,?V0 + 3
        MOV     A,R6
        MOV     R2,A
        MOV     A,R7
        MOV     R3,A
        LCALL   ??bindIsClusterIDinList?relay
        MOV     A,R1
        JZ      ??bindFind_2
//  701     {
//  702       if ( skipped < skipping )
        MOV     A,?V0 + 4
        CLR     C
        SUBB    A,?V0 + 6
        JNC     ??bindFind_3
//  703       {
//  704         skipped++;
        INC     ?V0 + 4
        SJMP    ??bindFind_2
//  705       }
//  706       else
//  707       {
//  708         return ( pBind );
??bindFind_3:
        MOV     A,R6
        MOV     R2,A
        MOV     A,R7
        MOV     R3,A
        SJMP    ??bindFind_4
//  709       }
//  710     }
//  711   }
??bindFind_2:
        MOV     A,?V0 + 0
        ADD     A,#0x1
        MOV     ?V0 + 0,A
        MOV     A,?V0 + 1
        ADDC    A,#0x0
        MOV     ?V0 + 1,A
        SJMP    ??bindFind_0
//  712 
//  713   return ( (BindingEntry_t *)NULL );
??bindFind_1:
        MOV     R2,#0x0
        MOV     R3,#0x0
??bindFind_4:
        MOV     R7,#0x7
        LJMP    ?BANKED_LEAVE_XDATA
        CFI EndBlock cfiBlock14
//  714 }
//  715 
//  716 /*********************************************************************
//  717  * @fn          BindInitNV
//  718  *
//  719  * @brief       Initialize the Binding NV Item
//  720  *
//  721  * @param       none
//  722  *
//  723  * @return      ZSUCCESS if successful, NV_ITEM_UNINIT if item did not
//  724  *              exist in NV, NV_OPER_FAILED if failure.
//  725  */

        RSEG BANKED_CODE:CODE:NOROOT(0)
//  726 byte BindInitNV( void )
BindInitNV:
        CFI Block cfiBlock15 Using cfiCommon0
        CFI Function BindInitNV
        CODE
//  727 {
        FUNCALL BindInitNV, osal_nv_item_init
        LOCFRAME ISTACK, 0, STACK
        LOCFRAME PSTACK, 0, STACK
        LOCFRAME XSTACK, 12, STACK
        LOCFRAME IOVERLAY, 0, STATIC
        LOCFRAME DOVERLAY, 0, STATIC
        ARGFRAME ISTACK, 0, STACK
        ARGFRAME PSTACK, 0, STACK
        ARGFRAME XSTACK, 12, STACK
        ARGFRAME IOVERLAY, 0, STATIC
        ARGFRAME DOVERLAY, 0, STATIC
        FUNCALL BindInitNV, BindSetDefaultNV
        LOCFRAME ISTACK, 0, STACK
        LOCFRAME PSTACK, 0, STACK
        LOCFRAME XSTACK, 10, STACK
        LOCFRAME IOVERLAY, 0, STATIC
        LOCFRAME DOVERLAY, 0, STATIC
        ARGFRAME ISTACK, 0, STACK
        ARGFRAME PSTACK, 0, STACK
        ARGFRAME XSTACK, 10, STACK
        ARGFRAME IOVERLAY, 0, STATIC
        ARGFRAME DOVERLAY, 0, STATIC
        MOV     A,#-0xa
        LCALL   ?BANKED_ENTER_XDATA
        CFI DPH0 load(1, XDATA, add(CFA_XSP16, literal(-1)))
        CFI DPL0 load(1, XDATA, add(CFA_XSP16, literal(-2)))
        CFI ?BRET_EXT load(1, XDATA, add(CFA_XSP16, literal(-3)))
        CFI ?RET_HIGH load(1, XDATA, add(CFA_XSP16, literal(-4)))
        CFI ?RET_LOW load(1, XDATA, add(CFA_XSP16, literal(-5)))
        CFI R7 load(1, XDATA, add(CFA_XSP16, literal(-6)))
        CFI V1 load(1, XDATA, add(CFA_XSP16, literal(-7)))
        CFI V0 load(1, XDATA, add(CFA_XSP16, literal(-8)))
        CFI VB load(1, XDATA, add(CFA_XSP16, literal(-9)))
        CFI R6 load(1, XDATA, add(CFA_XSP16, literal(-10)))
        CFI CFA_SP SP+0
        CFI CFA_XSP16 add(XSP16, 10)
        ; Saved register size: 10
        ; Auto size: 0
//  728   byte ret;
//  729 
//  730   // Initialize the device list
//  731   ret = osal_nv_item_init( ZCD_NV_BINDING_TABLE,
//  732                   (uint16)(gBIND_REC_SIZE + NV_BIND_ITEM_SIZE), NULL );
        ; Setup parameters for call to function osal_nv_item_init
        CLR     A
        MOV     ?V0 + 0,A
        MOV     ?V0 + 1,A
        MOV     R0,#?V0 + 0
        LCALL   ?PUSH_XSTACK_I_TWO
        CFI CFA_XSP16 add(XSP16, 12)
        MOV     DPTR,#gBIND_REC_SIZE
        PUSH    DPL
        CFI CFA_SP SP+-1
        PUSH    DPH
        CFI CFA_SP SP+-2
        MOV     DPTR,#gBIND_REC_SIZE
        CLR     A
        MOVC    A,@A+DPTR
        MOV     R0,A
        MOV     A,#0x1
        MOVC    A,@A+DPTR
        MOV     R1,A
        MOV     DPTR,#gNWK_MAX_BINDING_ENTRIES
        CLR     A
        MOVC    A,@A+DPTR
        MOV     ?V0 + 0,A
        MOV     A,#0x1
        MOVC    A,@A+DPTR
        MOV     ?V0 + 1,A
        MOV     A,R0
        MOV     B,?V0 + 0
        MUL     AB
        XCH     A,R0
        MOV     R2,B
        MOV     B,?V0 + 1
        MUL     AB
        ADD     A,R2
        MOV     R2,A
        MOV     B,?V0 + 0
        MOV     A,R1
        MUL     AB
        ADD     A,R2
        MOV     R1,A
        POP     DPH
        CFI CFA_SP SP+-1
        POP     DPL
        CFI CFA_SP SP+0
        CLR     A
        MOVC    A,@A+DPTR
        ADD     A,R0
        MOV     R4,A
        INC     DPTR
        CLR     A
        MOVC    A,@A+DPTR
        ADDC    A,R1
        MOV     R5,A
        MOV     R2,#0x41
        MOV     R3,#0x0
        LCALL   ??osal_nv_item_init?relay
        MOV     A,#0x2
        LCALL   ?DEALLOC_XSTACK8
        CFI CFA_XSP16 add(XSP16, 10)
        MOV     A,R1
        MOV     R6,A
//  733 
//  734   if ( ret != ZSUCCESS )
        MOV     A,R6
        JZ      ??BindInitNV_0
//  735   {
//  736     BindSetDefaultNV();
        ; Setup parameters for call to function BindSetDefaultNV
        LCALL   ??BindSetDefaultNV?relay
//  737   }
//  738 
//  739   return ( ret );
??BindInitNV_0:
        MOV     A,R6
        MOV     R1,A
        MOV     R7,#0x2
        LJMP    ?BANKED_LEAVE_XDATA
        CFI EndBlock cfiBlock15
//  740 }
//  741 
//  742 /*********************************************************************
//  743  * @fn          BindSetDefaultNV
//  744  *
//  745  * @brief       Write the defaults to NV
//  746  *
//  747  * @param       none
//  748  *
//  749  * @return      none
//  750  */

        RSEG BANKED_CODE:CODE:NOROOT(0)
//  751 void BindSetDefaultNV( void )
BindSetDefaultNV:
        CFI Block cfiBlock16 Using cfiCommon0
        CFI Function BindSetDefaultNV
        CODE
//  752 {
        FUNCALL BindSetDefaultNV, osal_nv_write
        LOCFRAME ISTACK, 0, STACK
        LOCFRAME PSTACK, 0, STACK
        LOCFRAME XSTACK, 16, STACK
        LOCFRAME IOVERLAY, 0, STATIC
        LOCFRAME DOVERLAY, 0, STATIC
        ARGFRAME ISTACK, 0, STACK
        ARGFRAME PSTACK, 0, STACK
        ARGFRAME XSTACK, 16, STACK
        ARGFRAME IOVERLAY, 0, STATIC
        ARGFRAME DOVERLAY, 0, STATIC
        MOV     A,#-0xa
        LCALL   ?BANKED_ENTER_XDATA
        CFI DPH0 load(1, XDATA, add(CFA_XSP16, literal(-1)))
        CFI DPL0 load(1, XDATA, add(CFA_XSP16, literal(-2)))
        CFI ?BRET_EXT load(1, XDATA, add(CFA_XSP16, literal(-3)))
        CFI ?RET_HIGH load(1, XDATA, add(CFA_XSP16, literal(-4)))
        CFI ?RET_LOW load(1, XDATA, add(CFA_XSP16, literal(-5)))
        CFI R7 load(1, XDATA, add(CFA_XSP16, literal(-6)))
        CFI V1 load(1, XDATA, add(CFA_XSP16, literal(-7)))
        CFI V0 load(1, XDATA, add(CFA_XSP16, literal(-8)))
        CFI VB load(1, XDATA, add(CFA_XSP16, literal(-9)))
        CFI R6 load(1, XDATA, add(CFA_XSP16, literal(-10)))
        CFI CFA_SP SP+0
        CFI CFA_XSP16 add(XSP16, 10)
        ; Saved register size: 10
        ; Auto size: 2
        MOV     A,#-0x2
        LCALL   ?ALLOC_XSTACK8
        CFI CFA_XSP16 add(XSP16, 12)
//  753   nvBindingHdr_t hdr;
//  754 
//  755   // Initialize the header
//  756   hdr.numRecs = 0;
        MOV     DPL,?XSP + 0
        MOV     DPH,?XSP + 1
        MOV     A,#0x0
        MOVX    @DPTR,A
        INC     DPTR
        MOV     A,#0x0
        MOVX    @DPTR,A
//  757 
//  758   // Save off the header
//  759   osal_nv_write( ZCD_NV_BINDING_TABLE, 0, sizeof( nvBindingHdr_t ), &hdr );
        ; Setup parameters for call to function osal_nv_write
        MOV     DPL,?XSP + 0
        MOV     DPH,?XSP + 1
        MOV     ?V0 + 0,DPL
        MOV     ?V0 + 1,DPH
        MOV     R0,#?V0 + 0
        LCALL   ?PUSH_XSTACK_I_TWO
        CFI CFA_XSP16 add(XSP16, 14)
        MOV     ?V0 + 0,#0x2
        MOV     ?V0 + 1,#0x0
        MOV     R0,#?V0 + 0
        LCALL   ?PUSH_XSTACK_I_TWO
        CFI CFA_XSP16 add(XSP16, 16)
        MOV     R4,#0x0
        MOV     R5,#0x0
        MOV     R2,#0x41
        MOV     R3,#0x0
        LCALL   ??osal_nv_write?relay
        MOV     A,#0x4
        LCALL   ?DEALLOC_XSTACK8
        CFI CFA_XSP16 add(XSP16, 12)
        MOV     A,R1
//  760 }
        MOV     A,#0x2
        LCALL   ?DEALLOC_XSTACK8
        CFI CFA_XSP16 add(XSP16, 10)
        MOV     R7,#0x2
        LJMP    ?BANKED_LEAVE_XDATA
        CFI EndBlock cfiBlock16
//  761 
//  762 /*********************************************************************
//  763  * @fn          BindRestoreFromNV
//  764  *
//  765  * @brief       Restore the binding table from NV
//  766  *
//  767  * @param       none
//  768  *
//  769  * @return      Number of entries restored
//  770  */

        RSEG BANKED_CODE:CODE:NOROOT(0)
//  771 uint16 BindRestoreFromNV( void )
BindRestoreFromNV:
        CFI Block cfiBlock17 Using cfiCommon0
        CFI Function BindRestoreFromNV
        CODE
//  772 {
        FUNCALL BindRestoreFromNV, osal_nv_read
        LOCFRAME ISTACK, 0, STACK
        LOCFRAME PSTACK, 0, STACK
        LOCFRAME XSTACK, 18, STACK
        LOCFRAME IOVERLAY, 0, STATIC
        LOCFRAME DOVERLAY, 0, STATIC
        ARGFRAME ISTACK, 0, STACK
        ARGFRAME PSTACK, 0, STACK
        ARGFRAME XSTACK, 18, STACK
        ARGFRAME IOVERLAY, 0, STATIC
        ARGFRAME DOVERLAY, 0, STATIC
        FUNCALL BindRestoreFromNV, osal_nv_read
        LOCFRAME ISTACK, 0, STACK
        LOCFRAME PSTACK, 0, STACK
        LOCFRAME XSTACK, 18, STACK
        LOCFRAME IOVERLAY, 0, STATIC
        LOCFRAME DOVERLAY, 0, STATIC
        ARGFRAME ISTACK, 0, STACK
        ARGFRAME PSTACK, 0, STACK
        ARGFRAME XSTACK, 18, STACK
        ARGFRAME IOVERLAY, 0, STATIC
        ARGFRAME DOVERLAY, 0, STATIC
        MOV     A,#-0xc
        LCALL   ?BANKED_ENTER_XDATA
        CFI DPH0 load(1, XDATA, add(CFA_XSP16, literal(-1)))
        CFI DPL0 load(1, XDATA, add(CFA_XSP16, literal(-2)))
        CFI ?BRET_EXT load(1, XDATA, add(CFA_XSP16, literal(-3)))
        CFI ?RET_HIGH load(1, XDATA, add(CFA_XSP16, literal(-4)))
        CFI ?RET_LOW load(1, XDATA, add(CFA_XSP16, literal(-5)))
        CFI R7 load(1, XDATA, add(CFA_XSP16, literal(-6)))
        CFI V3 load(1, XDATA, add(CFA_XSP16, literal(-7)))
        CFI V2 load(1, XDATA, add(CFA_XSP16, literal(-8)))
        CFI V1 load(1, XDATA, add(CFA_XSP16, literal(-9)))
        CFI V0 load(1, XDATA, add(CFA_XSP16, literal(-10)))
        CFI VB load(1, XDATA, add(CFA_XSP16, literal(-11)))
        CFI R6 load(1, XDATA, add(CFA_XSP16, literal(-12)))
        CFI CFA_SP SP+0
        CFI CFA_XSP16 add(XSP16, 12)
        ; Saved register size: 12
        ; Auto size: 2
        MOV     A,#-0x2
        LCALL   ?ALLOC_XSTACK8
        CFI CFA_XSP16 add(XSP16, 14)
//  773   nvBindingHdr_t hdr;
//  774   uint16 numAdded = 0;
        MOV     R6,#0x0
        MOV     R7,#0x0
//  775 
//  776   if ( osal_nv_read( ZCD_NV_BINDING_TABLE, 0, sizeof(nvBindingHdr_t), &hdr ) == ZSuccess )
        ; Setup parameters for call to function osal_nv_read
        MOV     DPL,?XSP + 0
        MOV     DPH,?XSP + 1
        MOV     ?V0 + 0,DPL
        MOV     ?V0 + 1,DPH
        MOV     R0,#?V0 + 0
        LCALL   ?PUSH_XSTACK_I_TWO
        CFI CFA_XSP16 add(XSP16, 16)
        MOV     ?V0 + 0,#0x2
        MOV     ?V0 + 1,#0x0
        MOV     R0,#?V0 + 0
        LCALL   ?PUSH_XSTACK_I_TWO
        CFI CFA_XSP16 add(XSP16, 18)
        MOV     R4,#0x0
        MOV     R5,#0x0
        MOV     R2,#0x41
        MOV     R3,#0x0
        LCALL   ??osal_nv_read?relay
        MOV     A,#0x4
        LCALL   ?DEALLOC_XSTACK8
        CFI CFA_XSP16 add(XSP16, 14)
        MOV     A,R1
        JNZ     ??BindRestoreFromNV_0
//  777   {
//  778     if (hdr.numRecs > 0)
        MOV     DPL,?XSP + 0
        MOV     DPH,?XSP + 1
        MOVX    A,@DPTR
        MOV     R0,A
        INC     DPTR
        MOVX    A,@DPTR
        MOV     R1,A
        MOV     A,R0
        ORL     A,R1
        JZ      ??BindRestoreFromNV_0
//  779     {
//  780       // Read the whole table at once
//  781       if ( osal_nv_read( ZCD_NV_BINDING_TABLE,
//  782                          (uint16)(sizeof(nvBindingHdr_t)),
//  783                          (NV_BIND_REC_SIZE * gNWK_MAX_BINDING_ENTRIES), BindingTable ) == ZSUCCESS )
        ; Setup parameters for call to function osal_nv_read
        MOV     ?V0 + 0,#BindingTable & 0xff
        MOV     ?V0 + 1,#(BindingTable >> 8) & 0xff
        MOV     R0,#?V0 + 0
        LCALL   ?PUSH_XSTACK_I_TWO
        CFI CFA_XSP16 add(XSP16, 16)
        MOV     DPTR,#gBIND_REC_SIZE
        CLR     A
        MOVC    A,@A+DPTR
        MOV     ?V0 + 2,A
        MOV     A,#0x1
        MOVC    A,@A+DPTR
        MOV     ?V0 + 3,A
        MOV     DPTR,#gNWK_MAX_BINDING_ENTRIES
        CLR     A
        MOVC    A,@A+DPTR
        MOV     ?V0 + 0,A
        MOV     A,#0x1
        MOVC    A,@A+DPTR
        MOV     ?V0 + 1,A
        MOV     A,?V0 + 2
        MOV     B,?V0 + 0
        MUL     AB
        XCH     A,?V0 + 2
        MOV     R0,B
        MOV     B,?V0 + 1
        MUL     AB
        ADD     A,R0
        MOV     R0,A
        MOV     B,?V0 + 0
        MOV     A,?V0 + 3
        MUL     AB
        ADD     A,R0
        MOV     ?V0 + 3,A
        MOV     R0,#?V0 + 2
        LCALL   ?PUSH_XSTACK_I_TWO
        CFI CFA_XSP16 add(XSP16, 18)
        MOV     R4,#0x2
        MOV     R5,#0x0
        MOV     R2,#0x41
        MOV     R3,#0x0
        LCALL   ??osal_nv_read?relay
        MOV     A,#0x4
        LCALL   ?DEALLOC_XSTACK8
        CFI CFA_XSP16 add(XSP16, 14)
        MOV     A,R1
        JNZ     ??BindRestoreFromNV_0
//  784       {
//  785         numAdded = gNWK_MAX_BINDING_ENTRIES;
        MOV     DPTR,#gNWK_MAX_BINDING_ENTRIES
        CLR     A
        MOVC    A,@A+DPTR
        PUSH    A
        MOV     A,#0x1
        MOVC    A,@A+DPTR
        MOV     DPH,A
        POP     DPL
        MOV     R6,DPL
        MOV     R7,DPH
//  786       }
//  787     }
//  788   }
//  789   return ( numAdded );
??BindRestoreFromNV_0:
        MOV     A,R6
        MOV     R2,A
        MOV     A,R7
        MOV     R3,A
        MOV     A,#0x2
        LCALL   ?DEALLOC_XSTACK8
        CFI CFA_XSP16 add(XSP16, 12)
        MOV     R7,#0x4
        LJMP    ?BANKED_LEAVE_XDATA
        CFI EndBlock cfiBlock17
//  790 }
//  791 
//  792 /*********************************************************************
//  793  * @fn          BindWriteNV
//  794  *
//  795  * @brief       Save the Binding Table in NV
//  796  *
//  797  * @param       none
//  798  *
//  799  * @return      none
//  800  */

        RSEG BANKED_CODE:CODE:NOROOT(0)
//  801 void BindWriteNV( void )
BindWriteNV:
        CFI Block cfiBlock18 Using cfiCommon0
        CFI Function BindWriteNV
        CODE
//  802 {
        FUNCALL BindWriteNV, osal_memcpy
        LOCFRAME ISTACK, 0, STACK
        LOCFRAME PSTACK, 0, STACK
        LOCFRAME XSTACK, 34, STACK
        LOCFRAME IOVERLAY, 0, STATIC
        LOCFRAME DOVERLAY, 0, STATIC
        ARGFRAME ISTACK, 0, STACK
        ARGFRAME PSTACK, 0, STACK
        ARGFRAME XSTACK, 34, STACK
        ARGFRAME IOVERLAY, 0, STATIC
        ARGFRAME DOVERLAY, 0, STATIC
        FUNCALL BindWriteNV, osal_nv_write
        LOCFRAME ISTACK, 0, STACK
        LOCFRAME PSTACK, 0, STACK
        LOCFRAME XSTACK, 35, STACK
        LOCFRAME IOVERLAY, 0, STATIC
        LOCFRAME DOVERLAY, 0, STATIC
        ARGFRAME ISTACK, 0, STACK
        ARGFRAME PSTACK, 0, STACK
        ARGFRAME XSTACK, 35, STACK
        ARGFRAME IOVERLAY, 0, STATIC
        ARGFRAME DOVERLAY, 0, STATIC
        FUNCALL BindWriteNV, osal_nv_write
        LOCFRAME ISTACK, 0, STACK
        LOCFRAME PSTACK, 0, STACK
        LOCFRAME XSTACK, 35, STACK
        LOCFRAME IOVERLAY, 0, STATIC
        LOCFRAME DOVERLAY, 0, STATIC
        ARGFRAME ISTACK, 0, STACK
        ARGFRAME PSTACK, 0, STACK
        ARGFRAME XSTACK, 35, STACK
        ARGFRAME IOVERLAY, 0, STATIC
        ARGFRAME DOVERLAY, 0, STATIC
        MOV     A,#-0xf
        LCALL   ?BANKED_ENTER_XDATA
        CFI DPH0 load(1, XDATA, add(CFA_XSP16, literal(-1)))
        CFI DPL0 load(1, XDATA, add(CFA_XSP16, literal(-2)))
        CFI ?BRET_EXT load(1, XDATA, add(CFA_XSP16, literal(-3)))
        CFI ?RET_HIGH load(1, XDATA, add(CFA_XSP16, literal(-4)))
        CFI ?RET_LOW load(1, XDATA, add(CFA_XSP16, literal(-5)))
        CFI R7 load(1, XDATA, add(CFA_XSP16, literal(-6)))
        CFI V6 load(1, XDATA, add(CFA_XSP16, literal(-7)))
        CFI V5 load(1, XDATA, add(CFA_XSP16, literal(-8)))
        CFI V4 load(1, XDATA, add(CFA_XSP16, literal(-9)))
        CFI V3 load(1, XDATA, add(CFA_XSP16, literal(-10)))
        CFI V2 load(1, XDATA, add(CFA_XSP16, literal(-11)))
        CFI V1 load(1, XDATA, add(CFA_XSP16, literal(-12)))
        CFI V0 load(1, XDATA, add(CFA_XSP16, literal(-13)))
        CFI VB load(1, XDATA, add(CFA_XSP16, literal(-14)))
        CFI R6 load(1, XDATA, add(CFA_XSP16, literal(-15)))
        CFI CFA_SP SP+0
        CFI CFA_XSP16 add(XSP16, 15)
        ; Saved register size: 15
        ; Auto size: 16
        MOV     A,#-0x10
        LCALL   ?ALLOC_XSTACK8
        CFI CFA_XSP16 add(XSP16, 31)
//  803   BindingEntry_t *pBind;
//  804   BindingEntry_t bind;
//  805   nvBindingHdr_t hdr;
//  806   uint16 x;
//  807 
//  808   hdr.numRecs = 0;
        MOV     DPL,?XSP + 0
        MOV     DPH,?XSP + 1
        MOV     A,#0x0
        MOVX    @DPTR,A
        INC     DPTR
        MOV     A,#0x0
        MOVX    @DPTR,A
//  809 
//  810   for ( x = 0; x < gNWK_MAX_BINDING_ENTRIES; x++ )
        MOV     R6,#0x0
        MOV     R7,#0x0
??BindWriteNV_0:
        MOV     DPTR,#gNWK_MAX_BINDING_ENTRIES
        CLR     A
        MOVC    A,@A+DPTR
        MOV     R0,A
        MOV     A,#0x1
        MOVC    A,@A+DPTR
        MOV     R1,A
        CLR     C
        MOV     A,R6
        SUBB    A,R0
        MOV     A,R7
        SUBB    A,R1
        JC      $+5
        LJMP    ??BindWriteNV_1 & 0xFFFF
//  811   {
//  812     pBind = &BindingTable[x];
        MOV     A,R6
        MOV     R0,A
        MOV     A,R7
        MOV     R1,A
        MOV     A,R0
        MOV     B,#0xe
        MUL     AB
        XCH     A,R0
        MOV     R2,B
        MOV     B,#0x0
        MUL     AB
        ADD     A,R2
        MOV     R2,A
        MOV     B,#0xe
        MOV     A,R1
        MUL     AB
        ADD     A,R2
        MOV     R1,A
        MOV     A,#BindingTable & 0xff
        ADD     A,R0
        MOV     R0,A
        MOV     A,#(BindingTable >> 8) & 0xff
        ADDC    A,R1
        MOV     R1,A
        MOV     ?V0 + 0,R0
        MOV     ?V0 + 1,R1
//  813 
//  814     osal_memcpy( &bind, pBind, gBIND_REC_SIZE );
        ; Setup parameters for call to function osal_memcpy
        MOV     ?V0 + 4,?V0 + 0
        MOV     ?V0 + 5,?V0 + 1
        MOV     ?V0 + 6,#0x0
        MOV     R0,#?V0 + 4
        LCALL   ?PUSH_XSTACK_I_THREE
        CFI CFA_XSP16 add(XSP16, 34)
        MOV     DPTR,#gBIND_REC_SIZE
        CLR     A
        MOVC    A,@A+DPTR
        MOV     R4,A
        MOV     A,#0x1
        MOVC    A,@A+DPTR
        MOV     R5,A
        MOV     A,#0x5
        LCALL   ?XSTACK_DISP0_8
        MOV     R2,DPL
        MOV     R3,DPH
        LCALL   ??osal_memcpy?relay
        MOV     A,#0x3
        LCALL   ?DEALLOC_XSTACK8
        CFI CFA_XSP16 add(XSP16, 31)
//  815 
//  816     // Save the record to NV
//  817     osal_nv_write( ZCD_NV_BINDING_TABLE,
//  818                    (uint16)((sizeof(nvBindingHdr_t)) + (x * NV_BIND_REC_SIZE)),
//  819                    NV_BIND_REC_SIZE, &bind );
        ; Setup parameters for call to function osal_nv_write
        MOV     A,#0x2
        LCALL   ?XSTACK_DISP0_8
        MOV     ?V0 + 2,DPL
        MOV     ?V0 + 3,DPH
        MOV     R0,#?V0 + 2
        LCALL   ?PUSH_XSTACK_I_TWO
        CFI CFA_XSP16 add(XSP16, 33)
        MOV     DPTR,#gBIND_REC_SIZE
        LCALL   ?PUSH_XSTACK8_C_TWO
        CFI CFA_XSP16 add(XSP16, 35)
        MOV     A,R6
        MOV     R0,A
        MOV     A,R7
        MOV     R1,A
        MOV     DPTR,#gBIND_REC_SIZE
        CLR     A
        MOVC    A,@A+DPTR
        MOV     ?V0 + 2,A
        MOV     A,#0x1
        MOVC    A,@A+DPTR
        MOV     ?V0 + 3,A
        MOV     A,R0
        MOV     B,?V0 + 2
        MUL     AB
        XCH     A,R0
        MOV     R2,B
        MOV     B,?V0 + 3
        MUL     AB
        ADD     A,R2
        MOV     R2,A
        MOV     B,?V0 + 2
        MOV     A,R1
        MUL     AB
        ADD     A,R2
        MOV     R1,A
        MOV     A,R0
        ADD     A,#0x2
        MOV     R4,A
        MOV     A,R1
        ADDC    A,#0x0
        MOV     R5,A
        MOV     R2,#0x41
        MOV     R3,#0x0
        LCALL   ??osal_nv_write?relay
        MOV     A,#0x4
        LCALL   ?DEALLOC_XSTACK8
        CFI CFA_XSP16 add(XSP16, 31)
        MOV     A,R1
//  820 
//  821     if ( pBind->srcEP != NV_BIND_EMPTY )
        MOV     DPL,?V0 + 0
        MOV     DPH,?V0 + 1
        MOVX    A,@DPTR
        XRL     A,#0xff
        JZ      ??BindWriteNV_2
//  822     {
//  823       hdr.numRecs++;
        MOV     DPL,?XSP + 0
        MOV     DPH,?XSP + 1
        MOVX    A,@DPTR
        ADD     A,#0x1
        MOVX    @DPTR,A
        INC     DPTR
        MOVX    A,@DPTR
        ADDC    A,#0x0
        MOVX    @DPTR,A
//  824     }
//  825   }
??BindWriteNV_2:
        MOV     A,R6
        ADD     A,#0x1
        MOV     R6,A
        MOV     A,R7
        ADDC    A,#0x0
        MOV     R7,A
        LJMP    ??BindWriteNV_0 & 0xFFFF
//  826 
//  827   // Save off the header
//  828   osal_nv_write( ZCD_NV_BINDING_TABLE, 0, sizeof(nvBindingHdr_t), &hdr );
??BindWriteNV_1:
        ; Setup parameters for call to function osal_nv_write
        MOV     DPL,?XSP + 0
        MOV     DPH,?XSP + 1
        MOV     ?V0 + 2,DPL
        MOV     ?V0 + 3,DPH
        MOV     R0,#?V0 + 2
        LCALL   ?PUSH_XSTACK_I_TWO
        CFI CFA_XSP16 add(XSP16, 33)
        MOV     ?V0 + 2,#0x2
        MOV     ?V0 + 3,#0x0
        MOV     R0,#?V0 + 2
        LCALL   ?PUSH_XSTACK_I_TWO
        CFI CFA_XSP16 add(XSP16, 35)
        MOV     R4,#0x0
        MOV     R5,#0x0
        MOV     R2,#0x41
        MOV     R3,#0x0
        LCALL   ??osal_nv_write?relay
        MOV     A,#0x4
        LCALL   ?DEALLOC_XSTACK8
        CFI CFA_XSP16 add(XSP16, 31)
        MOV     A,R1
//  829 }
        MOV     A,#0x10
        LCALL   ?DEALLOC_XSTACK8
        CFI CFA_XSP16 add(XSP16, 15)
        MOV     R7,#0x7
        LJMP    ?BANKED_LEAVE_XDATA
        CFI EndBlock cfiBlock18
//  830 
//  831 /*********************************************************************
//  832  * @fn          bindUpdateAddr
//  833  *
//  834  * @brief       Update the network address in the binding table.
//  835  *
//  836  * @param       oldAddr - old network address
//  837  * @param       newAddr - new network address
//  838  *
//  839  * @return      none
//  840  */

        RSEG BANKED_CODE:CODE:NOROOT(0)
//  841 void bindUpdateAddr( uint16 oldAddr, uint16 newAddr )
bindUpdateAddr:
        CFI Block cfiBlock19 Using cfiCommon0
        CFI Function bindUpdateAddr
        CODE
//  842 {
        FUNCALL bindUpdateAddr, bindingAddrMgsHelperFind
        LOCFRAME ISTACK, 0, STACK
        LOCFRAME PSTACK, 0, STACK
        LOCFRAME XSTACK, 29, STACK
        LOCFRAME IOVERLAY, 0, STATIC
        LOCFRAME DOVERLAY, 0, STATIC
        ARGFRAME ISTACK, 0, STACK
        ARGFRAME PSTACK, 0, STACK
        ARGFRAME XSTACK, 29, STACK
        ARGFRAME IOVERLAY, 0, STATIC
        ARGFRAME DOVERLAY, 0, STATIC
        FUNCALL bindUpdateAddr, bindingAddrMgsHelperFind
        LOCFRAME ISTACK, 0, STACK
        LOCFRAME PSTACK, 0, STACK
        LOCFRAME XSTACK, 29, STACK
        LOCFRAME IOVERLAY, 0, STATIC
        LOCFRAME DOVERLAY, 0, STATIC
        ARGFRAME ISTACK, 0, STACK
        ARGFRAME PSTACK, 0, STACK
        ARGFRAME XSTACK, 29, STACK
        ARGFRAME IOVERLAY, 0, STATIC
        ARGFRAME DOVERLAY, 0, STATIC
        MOV     A,#-0x14
        LCALL   ?BANKED_ENTER_XDATA
        CFI DPH0 load(1, XDATA, add(CFA_XSP16, literal(-1)))
        CFI DPL0 load(1, XDATA, add(CFA_XSP16, literal(-2)))
        CFI ?BRET_EXT load(1, XDATA, add(CFA_XSP16, literal(-3)))
        CFI ?RET_HIGH load(1, XDATA, add(CFA_XSP16, literal(-4)))
        CFI ?RET_LOW load(1, XDATA, add(CFA_XSP16, literal(-5)))
        CFI R7 load(1, XDATA, add(CFA_XSP16, literal(-6)))
        CFI V11 load(1, XDATA, add(CFA_XSP16, literal(-7)))
        CFI V10 load(1, XDATA, add(CFA_XSP16, literal(-8)))
        CFI V9 load(1, XDATA, add(CFA_XSP16, literal(-9)))
        CFI V8 load(1, XDATA, add(CFA_XSP16, literal(-10)))
        CFI V7 load(1, XDATA, add(CFA_XSP16, literal(-11)))
        CFI V6 load(1, XDATA, add(CFA_XSP16, literal(-12)))
        CFI V5 load(1, XDATA, add(CFA_XSP16, literal(-13)))
        CFI V4 load(1, XDATA, add(CFA_XSP16, literal(-14)))
        CFI V3 load(1, XDATA, add(CFA_XSP16, literal(-15)))
        CFI V2 load(1, XDATA, add(CFA_XSP16, literal(-16)))
        CFI V1 load(1, XDATA, add(CFA_XSP16, literal(-17)))
        CFI V0 load(1, XDATA, add(CFA_XSP16, literal(-18)))
        CFI VB load(1, XDATA, add(CFA_XSP16, literal(-19)))
        CFI R6 load(1, XDATA, add(CFA_XSP16, literal(-20)))
        CFI CFA_SP SP+0
        CFI CFA_XSP16 add(XSP16, 20)
        ; Saved register size: 20
        ; Auto size: 9
        MOV     A,#-0x9
        LCALL   ?ALLOC_XSTACK8
        CFI CFA_XSP16 add(XSP16, 29)
        MOV     ?V0 + 8,R2
        MOV     ?V0 + 9,R3
        MOV     ?V0 + 0,R4
        MOV     ?V0 + 1,R5
//  843   uint16 oldIdx;
//  844   uint16 newIdx;
//  845   zAddrType_t addr;
//  846   uint16 x;
//  847   BindingEntry_t *pBind;
//  848 
//  849   addr.addrMode = Addr16Bit;
        MOV     A,#0x8
        LCALL   ?XSTACK_DISP0_8
        MOV     A,#0x2
        MOVX    @DPTR,A
//  850   addr.addr.shortAddr = oldAddr;
        MOV     DPL,?XSP + 0
        MOV     DPH,?XSP + 1
        MOV     A,?V0 + 8
        MOVX    @DPTR,A
        INC     DPTR
        MOV     A,?V0 + 9
        MOVX    @DPTR,A
//  851   oldIdx = bindingAddrMgsHelperFind( &addr );
        ; Setup parameters for call to function bindingAddrMgsHelperFind
        MOV     DPL,?XSP + 0
        MOV     DPH,?XSP + 1
        MOV     R2,DPL
        MOV     R3,DPH
        LCALL   ??bindingAddrMgsHelperFind?relay
        MOV     ?V0 + 10,R2
        MOV     ?V0 + 11,R3
        MOV     ?V0 + 2,?V0 + 10
        MOV     ?V0 + 3,?V0 + 11
//  852   addr.addr.shortAddr = newAddr;
        MOV     DPL,?XSP + 0
        MOV     DPH,?XSP + 1
        MOV     A,?V0 + 0
        MOVX    @DPTR,A
        INC     DPTR
        MOV     A,?V0 + 1
        MOVX    @DPTR,A
//  853   newIdx = bindingAddrMgsHelperFind( &addr );
        ; Setup parameters for call to function bindingAddrMgsHelperFind
        MOV     DPL,?XSP + 0
        MOV     DPH,?XSP + 1
        MOV     R2,DPL
        MOV     R3,DPH
        LCALL   ??bindingAddrMgsHelperFind?relay
        MOV     ?V0 + 10,R2
        MOV     ?V0 + 11,R3
        MOV     ?V0 + 6,?V0 + 10
        MOV     ?V0 + 7,?V0 + 11
//  854 
//  855   for ( x = 0; x < gNWK_MAX_BINDING_ENTRIES; x++ )
        MOV     R6,#0x0
        MOV     R7,#0x0
??bindUpdateAddr_0:
        MOV     DPTR,#gNWK_MAX_BINDING_ENTRIES
        CLR     A
        MOVC    A,@A+DPTR
        MOV     R0,A
        MOV     A,#0x1
        MOVC    A,@A+DPTR
        MOV     R1,A
        CLR     C
        MOV     A,R6
        SUBB    A,R0
        MOV     A,R7
        SUBB    A,R1
        JNC     ??bindUpdateAddr_1
//  856   {
//  857     pBind = &BindingTable[x];
        MOV     A,R6
        MOV     R0,A
        MOV     A,R7
        MOV     R1,A
        MOV     A,R0
        MOV     B,#0xe
        MUL     AB
        XCH     A,R0
        MOV     R2,B
        MOV     B,#0x0
        MUL     AB
        ADD     A,R2
        MOV     R2,A
        MOV     B,#0xe
        MOV     A,R1
        MUL     AB
        ADD     A,R2
        MOV     R1,A
        MOV     A,#BindingTable & 0xff
        ADD     A,R0
        MOV     R0,A
        MOV     A,#(BindingTable >> 8) & 0xff
        ADDC    A,R1
        MOV     R1,A
        MOV     ?V0 + 4,R0
        MOV     ?V0 + 5,R1
//  858 
//  859     if ( pBind->dstIdx == oldIdx )
        MOV     DPL,?V0 + 4
        MOV     DPH,?V0 + 5
        INC     DPTR
        INC     DPTR
        MOVX    A,@DPTR
        XRL     A,?V0 + 2
        JNZ     ??bindUpdateAddr_2
        INC     DPTR
        MOVX    A,@DPTR
        XRL     A,?V0 + 3
??bindUpdateAddr_2:
        JNZ     ??bindUpdateAddr_3
//  860     {
//  861       pBind->dstIdx = newIdx;
        MOV     DPL,?V0 + 4
        MOV     DPH,?V0 + 5
        INC     DPTR
        INC     DPTR
        MOV     A,?V0 + 6
        MOVX    @DPTR,A
        INC     DPTR
        MOV     A,?V0 + 7
        MOVX    @DPTR,A
//  862     }
//  863   }
??bindUpdateAddr_3:
        MOV     A,R6
        ADD     A,#0x1
        MOV     R6,A
        MOV     A,R7
        ADDC    A,#0x0
        MOV     R7,A
        SJMP    ??bindUpdateAddr_0
//  864 }
??bindUpdateAddr_1:
        MOV     A,#0x9
        LCALL   ?DEALLOC_XSTACK8
        CFI CFA_XSP16 add(XSP16, 20)
        MOV     R7,#0xc
        LJMP    ?BANKED_LEAVE_XDATA
        CFI EndBlock cfiBlock19
//  865 
//  866 /*********************************************************************
//  867  * @fn      bindingAddrMgsHelperFind
//  868  *
//  869  * @brief   Turns an zAddrType_t to an Addr Manager index
//  870  *
//  871  * @param   addr - zAddrType_t
//  872  *
//  873  * @return  INVALID_NODE_ADDR if not found, otherwise an index
//  874  */

        RSEG BANKED_CODE:CODE:NOROOT(0)
//  875 uint16 bindingAddrMgsHelperFind( zAddrType_t *addr )
bindingAddrMgsHelperFind:
        CFI Block cfiBlock20 Using cfiCommon0
        CFI Function bindingAddrMgsHelperFind
        CODE
//  876 {
        FUNCALL bindingAddrMgsHelperFind, AddrMgrEntryLookupNwk
        LOCFRAME ISTACK, 0, STACK
        LOCFRAME PSTACK, 0, STACK
        LOCFRAME XSTACK, 22, STACK
        LOCFRAME IOVERLAY, 0, STATIC
        LOCFRAME DOVERLAY, 0, STATIC
        ARGFRAME ISTACK, 0, STACK
        ARGFRAME PSTACK, 0, STACK
        ARGFRAME XSTACK, 22, STACK
        ARGFRAME IOVERLAY, 0, STATIC
        ARGFRAME DOVERLAY, 0, STATIC
        FUNCALL bindingAddrMgsHelperFind, AddrMgrExtAddrSet
        LOCFRAME ISTACK, 0, STACK
        LOCFRAME PSTACK, 0, STACK
        LOCFRAME XSTACK, 22, STACK
        LOCFRAME IOVERLAY, 0, STATIC
        LOCFRAME DOVERLAY, 0, STATIC
        ARGFRAME ISTACK, 0, STACK
        ARGFRAME PSTACK, 0, STACK
        ARGFRAME XSTACK, 22, STACK
        ARGFRAME IOVERLAY, 0, STATIC
        ARGFRAME DOVERLAY, 0, STATIC
        FUNCALL bindingAddrMgsHelperFind, AddrMgrEntryLookupExt
        LOCFRAME ISTACK, 0, STACK
        LOCFRAME PSTACK, 0, STACK
        LOCFRAME XSTACK, 22, STACK
        LOCFRAME IOVERLAY, 0, STATIC
        LOCFRAME DOVERLAY, 0, STATIC
        ARGFRAME ISTACK, 0, STACK
        ARGFRAME PSTACK, 0, STACK
        ARGFRAME XSTACK, 22, STACK
        ARGFRAME IOVERLAY, 0, STATIC
        ARGFRAME DOVERLAY, 0, STATIC
        MOV     A,#-0x9
        LCALL   ?BANKED_ENTER_XDATA
        CFI DPH0 load(1, XDATA, add(CFA_XSP16, literal(-1)))
        CFI DPL0 load(1, XDATA, add(CFA_XSP16, literal(-2)))
        CFI ?BRET_EXT load(1, XDATA, add(CFA_XSP16, literal(-3)))
        CFI ?RET_HIGH load(1, XDATA, add(CFA_XSP16, literal(-4)))
        CFI ?RET_LOW load(1, XDATA, add(CFA_XSP16, literal(-5)))
        CFI R7 load(1, XDATA, add(CFA_XSP16, literal(-6)))
        CFI V0 load(1, XDATA, add(CFA_XSP16, literal(-7)))
        CFI VB load(1, XDATA, add(CFA_XSP16, literal(-8)))
        CFI R6 load(1, XDATA, add(CFA_XSP16, literal(-9)))
        CFI CFA_SP SP+0
        CFI CFA_XSP16 add(XSP16, 9)
        ; Saved register size: 9
        ; Auto size: 13
        MOV     A,#-0xd
        LCALL   ?ALLOC_XSTACK8
        CFI CFA_XSP16 add(XSP16, 22)
        MOV     A,R2
        MOV     R6,A
        MOV     A,R3
        MOV     R7,A
//  877   AddrMgrEntry_t entry;
//  878 
//  879   // Resolve addresses with the address manager
//  880   entry.user = ADDRMGR_USER_BINDING;
        MOV     DPL,?XSP + 0
        MOV     DPH,?XSP + 1
        MOV     A,#0x4
        MOVX    @DPTR,A
//  881   if ( addr->addrMode == Addr16Bit )
        MOV     DPL,R6
        MOV     DPH,R7
        INC     DPTR
        INC     DPTR
        INC     DPTR
        INC     DPTR
        INC     DPTR
        INC     DPTR
        INC     DPTR
        INC     DPTR
        MOVX    A,@DPTR
        XRL     A,#0x2
        JNZ     ??bindingAddrMgsHelperFind_0
//  882   {
//  883     entry.nwkAddr = addr->addr.shortAddr;
        MOV     DPL,R6
        MOV     DPH,R7
        MOVX    A,@DPTR
        MOV     R0,A
        INC     DPTR
        MOVX    A,@DPTR
        MOV     R1,A
        MOV     A,#0x1
        LCALL   ?XSTACK_DISP0_8
        MOV     A,R0
        MOVX    @DPTR,A
        INC     DPTR
        MOV     A,R1
        MOVX    @DPTR,A
//  884     AddrMgrEntryLookupNwk( &entry );
        ; Setup parameters for call to function AddrMgrEntryLookupNwk
        MOV     DPL,?XSP + 0
        MOV     DPH,?XSP + 1
        MOV     R2,DPL
        MOV     R3,DPH
        LCALL   ??AddrMgrEntryLookupNwk?relay
        MOV     A,R1
        SJMP    ??bindingAddrMgsHelperFind_1
//  885   }
//  886   else
//  887   {
//  888     AddrMgrExtAddrSet( entry.extAddr, addr->addr.extAddr );
??bindingAddrMgsHelperFind_0:
        ; Setup parameters for call to function AddrMgrExtAddrSet
        MOV     A,R6
        MOV     R4,A
        MOV     A,R7
        MOV     R5,A
        MOV     A,#0x3
        LCALL   ?XSTACK_DISP0_8
        MOV     R2,DPL
        MOV     R3,DPH
        LCALL   ??AddrMgrExtAddrSet?relay
//  889     AddrMgrEntryLookupExt( &entry );
        ; Setup parameters for call to function AddrMgrEntryLookupExt
        MOV     DPL,?XSP + 0
        MOV     DPH,?XSP + 1
        MOV     R2,DPL
        MOV     R3,DPH
        LCALL   ??AddrMgrEntryLookupExt?relay
        MOV     A,R1
//  890   }
//  891 
//  892   return ( entry.index );
??bindingAddrMgsHelperFind_1:
        MOV     A,#0xb
        LCALL   ?XSTACK_DISP0_8
        MOVX    A,@DPTR
        MOV     R2,A
        INC     DPTR
        MOVX    A,@DPTR
        MOV     R3,A
        MOV     A,#0xd
        LCALL   ?DEALLOC_XSTACK8
        CFI CFA_XSP16 add(XSP16, 9)
        MOV     R7,#0x1
        LJMP    ?BANKED_LEAVE_XDATA
        CFI EndBlock cfiBlock20
//  893 }
//  894 
//  895 /*********************************************************************
//  896  * @fn      bindingAddrMgsHelperConvert
//  897  *
//  898  * @brief   Convert an index into an zAddrType_t
//  899  *
//  900  * @param   idx -
//  901  * @param   addr - zAddrType_t
//  902  *
//  903  * @return  TRUE if found, FALSE if not
//  904  */

        RSEG BANKED_CODE:CODE:NOROOT(0)
//  905 uint8 bindingAddrMgsHelperConvert( uint16 idx, zAddrType_t *addr )
bindingAddrMgsHelperConvert:
        CFI Block cfiBlock21 Using cfiCommon0
        CFI Function bindingAddrMgsHelperConvert
        CODE
//  906 {
        FUNCALL bindingAddrMgsHelperConvert, AddrMgrEntryGet
        LOCFRAME ISTACK, 0, STACK
        LOCFRAME PSTACK, 0, STACK
        LOCFRAME XSTACK, 25, STACK
        LOCFRAME IOVERLAY, 0, STATIC
        LOCFRAME DOVERLAY, 0, STATIC
        ARGFRAME ISTACK, 0, STACK
        ARGFRAME PSTACK, 0, STACK
        ARGFRAME XSTACK, 25, STACK
        ARGFRAME IOVERLAY, 0, STATIC
        ARGFRAME DOVERLAY, 0, STATIC
        FUNCALL bindingAddrMgsHelperConvert, sAddrExtCpy
        LOCFRAME ISTACK, 0, STACK
        LOCFRAME PSTACK, 0, STACK
        LOCFRAME XSTACK, 25, STACK
        LOCFRAME IOVERLAY, 0, STATIC
        LOCFRAME DOVERLAY, 0, STATIC
        ARGFRAME ISTACK, 0, STACK
        ARGFRAME PSTACK, 0, STACK
        ARGFRAME XSTACK, 25, STACK
        ARGFRAME IOVERLAY, 0, STATIC
        ARGFRAME DOVERLAY, 0, STATIC
        MOV     A,#-0xc
        LCALL   ?BANKED_ENTER_XDATA
        CFI DPH0 load(1, XDATA, add(CFA_XSP16, literal(-1)))
        CFI DPL0 load(1, XDATA, add(CFA_XSP16, literal(-2)))
        CFI ?BRET_EXT load(1, XDATA, add(CFA_XSP16, literal(-3)))
        CFI ?RET_HIGH load(1, XDATA, add(CFA_XSP16, literal(-4)))
        CFI ?RET_LOW load(1, XDATA, add(CFA_XSP16, literal(-5)))
        CFI R7 load(1, XDATA, add(CFA_XSP16, literal(-6)))
        CFI V3 load(1, XDATA, add(CFA_XSP16, literal(-7)))
        CFI V2 load(1, XDATA, add(CFA_XSP16, literal(-8)))
        CFI V1 load(1, XDATA, add(CFA_XSP16, literal(-9)))
        CFI V0 load(1, XDATA, add(CFA_XSP16, literal(-10)))
        CFI VB load(1, XDATA, add(CFA_XSP16, literal(-11)))
        CFI R6 load(1, XDATA, add(CFA_XSP16, literal(-12)))
        CFI CFA_SP SP+0
        CFI CFA_XSP16 add(XSP16, 12)
        ; Saved register size: 12
        ; Auto size: 13
        MOV     A,#-0xd
        LCALL   ?ALLOC_XSTACK8
        CFI CFA_XSP16 add(XSP16, 25)
        MOV     ?V0 + 2,R2
        MOV     ?V0 + 3,R3
        MOV     A,R4
        MOV     R6,A
        MOV     A,R5
        MOV     R7,A
//  907   AddrMgrEntry_t entry;
//  908   uint8 stat;
//  909 
//  910   // Resolve addresses with the address manager
//  911   entry.user = ADDRMGR_USER_BINDING;
        MOV     DPL,?XSP + 0
        MOV     DPH,?XSP + 1
        MOV     A,#0x4
        MOVX    @DPTR,A
//  912   entry.index = idx;
        MOV     A,#0xb
        LCALL   ?XSTACK_DISP0_8
        MOV     A,?V0 + 2
        MOVX    @DPTR,A
        INC     DPTR
        MOV     A,?V0 + 3
        MOVX    @DPTR,A
//  913   stat = AddrMgrEntryGet( &entry );
        ; Setup parameters for call to function AddrMgrEntryGet
        MOV     DPL,?XSP + 0
        MOV     DPH,?XSP + 1
        MOV     R2,DPL
        MOV     R3,DPH
        LCALL   ??AddrMgrEntryGet?relay
        MOV     A,R1
        MOV     ?V0 + 0,A
//  914   if ( stat )
        MOV     A,?V0 + 0
        JZ      ??bindingAddrMgsHelperConvert_0
//  915   {
//  916     addr->addrMode = Addr64Bit;
        MOV     DPL,R6
        MOV     DPH,R7
        INC     DPTR
        INC     DPTR
        INC     DPTR
        INC     DPTR
        INC     DPTR
        INC     DPTR
        INC     DPTR
        INC     DPTR
        MOV     A,#0x3
        MOVX    @DPTR,A
//  917     osal_cpyExtAddr( addr->addr.extAddr, entry.extAddr );
        ; Setup parameters for call to function sAddrExtCpy
        MOV     A,#0x3
        LCALL   ?XSTACK_DISP0_8
        MOV     R4,DPL
        MOV     R5,DPH
        MOV     A,R6
        MOV     R2,A
        MOV     A,R7
        MOV     R3,A
        LCALL   ??sAddrExtCpy?relay
//  918   }
//  919 
//  920   return ( stat );
??bindingAddrMgsHelperConvert_0:
        MOV     R1,?V0 + 0
        MOV     A,#0xd
        LCALL   ?DEALLOC_XSTACK8
        CFI CFA_XSP16 add(XSP16, 12)
        MOV     R7,#0x4
        LJMP    ?BANKED_LEAVE_XDATA
        CFI EndBlock cfiBlock21
//  921 }
//  922 
//  923 /*********************************************************************
//  924  * @fn      bindingAddrMgsHelperConvertShort
//  925  *
//  926  * @brief   Convert an index into a short address
//  927  *
//  928  * @param   idx -
//  929  *
//  930  * @return  INVALID_NODE_ADDR if not available, otherwise the short address
//  931  */

        RSEG BANKED_CODE:CODE:NOROOT(0)
//  932 uint16 bindingAddrMgsHelperConvertShort( uint16 idx )
bindingAddrMgsHelperConvertShort:
        CFI Block cfiBlock22 Using cfiCommon0
        CFI Function bindingAddrMgsHelperConvertShort
        CODE
//  933 {
        FUNCALL bindingAddrMgsHelperConvertShort, AddrMgrEntryGet
        LOCFRAME ISTACK, 0, STACK
        LOCFRAME PSTACK, 0, STACK
        LOCFRAME XSTACK, 22, STACK
        LOCFRAME IOVERLAY, 0, STATIC
        LOCFRAME DOVERLAY, 0, STATIC
        ARGFRAME ISTACK, 0, STACK
        ARGFRAME PSTACK, 0, STACK
        ARGFRAME XSTACK, 22, STACK
        ARGFRAME IOVERLAY, 0, STATIC
        ARGFRAME DOVERLAY, 0, STATIC
        MOV     A,#-0x9
        LCALL   ?BANKED_ENTER_XDATA
        CFI DPH0 load(1, XDATA, add(CFA_XSP16, literal(-1)))
        CFI DPL0 load(1, XDATA, add(CFA_XSP16, literal(-2)))
        CFI ?BRET_EXT load(1, XDATA, add(CFA_XSP16, literal(-3)))
        CFI ?RET_HIGH load(1, XDATA, add(CFA_XSP16, literal(-4)))
        CFI ?RET_LOW load(1, XDATA, add(CFA_XSP16, literal(-5)))
        CFI R7 load(1, XDATA, add(CFA_XSP16, literal(-6)))
        CFI V0 load(1, XDATA, add(CFA_XSP16, literal(-7)))
        CFI VB load(1, XDATA, add(CFA_XSP16, literal(-8)))
        CFI R6 load(1, XDATA, add(CFA_XSP16, literal(-9)))
        CFI CFA_SP SP+0
        CFI CFA_XSP16 add(XSP16, 9)
        ; Saved register size: 9
        ; Auto size: 13
        MOV     A,#-0xd
        LCALL   ?ALLOC_XSTACK8
        CFI CFA_XSP16 add(XSP16, 22)
        MOV     A,R2
        MOV     R6,A
        MOV     A,R3
        MOV     R7,A
//  934   AddrMgrEntry_t entry;
//  935 
//  936   // Resolve addresses with the address manager
//  937   entry.user = ADDRMGR_USER_BINDING;
        MOV     DPL,?XSP + 0
        MOV     DPH,?XSP + 1
        MOV     A,#0x4
        MOVX    @DPTR,A
//  938   entry.index = idx;
        MOV     A,#0xb
        LCALL   ?XSTACK_DISP0_8
        MOV     A,R6
        MOVX    @DPTR,A
        INC     DPTR
        MOV     A,R7
        MOVX    @DPTR,A
//  939   AddrMgrEntryGet( &entry );
        ; Setup parameters for call to function AddrMgrEntryGet
        MOV     DPL,?XSP + 0
        MOV     DPH,?XSP + 1
        MOV     R2,DPL
        MOV     R3,DPH
        LCALL   ??AddrMgrEntryGet?relay
        MOV     A,R1
//  940 
//  941   return ( entry.nwkAddr );
        MOV     A,#0x1
        LCALL   ?XSTACK_DISP0_8
        MOVX    A,@DPTR
        MOV     R2,A
        INC     DPTR
        MOVX    A,@DPTR
        MOV     R3,A
        MOV     A,#0xd
        LCALL   ?DEALLOC_XSTACK8
        CFI CFA_XSP16 add(XSP16, 9)
        MOV     R7,#0x1
        LJMP    ?BANKED_LEAVE_XDATA
        CFI EndBlock cfiBlock22
//  942 }
//  943 
//  944 /*********************************************************************
//  945  * @fn      bindAddrMgrLocalLoad
//  946  *
//  947  * @brief   Load local(self and parent) address information into
//  948  *          Address Manager
//  949  *
//  950  * @param   none
//  951  *
//  952  * @return  none
//  953  */

        RSEG BANKED_CODE:CODE:NOROOT(0)
//  954 void bindAddrMgrLocalLoad( void )
bindAddrMgrLocalLoad:
        CFI Block cfiBlock23 Using cfiCommon0
        CFI Function bindAddrMgrLocalLoad
        CODE
//  955 {
        FUNCALL bindAddrMgrLocalLoad, NLME_GetExtAddr
        LOCFRAME ISTACK, 0, STACK
        LOCFRAME PSTACK, 0, STACK
        LOCFRAME XSTACK, 23, STACK
        LOCFRAME IOVERLAY, 0, STATIC
        LOCFRAME DOVERLAY, 0, STATIC
        ARGFRAME ISTACK, 0, STACK
        ARGFRAME PSTACK, 0, STACK
        ARGFRAME XSTACK, 23, STACK
        ARGFRAME IOVERLAY, 0, STATIC
        ARGFRAME DOVERLAY, 0, STATIC
        FUNCALL bindAddrMgrLocalLoad, AddrMgrExtAddrSet
        LOCFRAME ISTACK, 0, STACK
        LOCFRAME PSTACK, 0, STACK
        LOCFRAME XSTACK, 23, STACK
        LOCFRAME IOVERLAY, 0, STATIC
        LOCFRAME DOVERLAY, 0, STATIC
        ARGFRAME ISTACK, 0, STACK
        ARGFRAME PSTACK, 0, STACK
        ARGFRAME XSTACK, 23, STACK
        ARGFRAME IOVERLAY, 0, STATIC
        ARGFRAME DOVERLAY, 0, STATIC
        FUNCALL bindAddrMgrLocalLoad, AddrMgrEntryUpdate
        LOCFRAME ISTACK, 0, STACK
        LOCFRAME PSTACK, 0, STACK
        LOCFRAME XSTACK, 23, STACK
        LOCFRAME IOVERLAY, 0, STATIC
        LOCFRAME DOVERLAY, 0, STATIC
        ARGFRAME ISTACK, 0, STACK
        ARGFRAME PSTACK, 0, STACK
        ARGFRAME XSTACK, 23, STACK
        ARGFRAME IOVERLAY, 0, STATIC
        ARGFRAME DOVERLAY, 0, STATIC
        FUNCALL bindAddrMgrLocalLoad, NLME_GetCoordShortAddr
        LOCFRAME ISTACK, 0, STACK
        LOCFRAME PSTACK, 0, STACK
        LOCFRAME XSTACK, 23, STACK
        LOCFRAME IOVERLAY, 0, STATIC
        LOCFRAME DOVERLAY, 0, STATIC
        ARGFRAME ISTACK, 0, STACK
        ARGFRAME PSTACK, 0, STACK
        ARGFRAME XSTACK, 23, STACK
        ARGFRAME IOVERLAY, 0, STATIC
        ARGFRAME DOVERLAY, 0, STATIC
        FUNCALL bindAddrMgrLocalLoad, NLME_GetCoordExtAddr
        LOCFRAME ISTACK, 0, STACK
        LOCFRAME PSTACK, 0, STACK
        LOCFRAME XSTACK, 23, STACK
        LOCFRAME IOVERLAY, 0, STATIC
        LOCFRAME DOVERLAY, 0, STATIC
        ARGFRAME ISTACK, 0, STACK
        ARGFRAME PSTACK, 0, STACK
        ARGFRAME XSTACK, 23, STACK
        ARGFRAME IOVERLAY, 0, STATIC
        ARGFRAME DOVERLAY, 0, STATIC
        FUNCALL bindAddrMgrLocalLoad, AddrMgrEntryUpdate
        LOCFRAME ISTACK, 0, STACK
        LOCFRAME PSTACK, 0, STACK
        LOCFRAME XSTACK, 23, STACK
        LOCFRAME IOVERLAY, 0, STATIC
        LOCFRAME DOVERLAY, 0, STATIC
        ARGFRAME ISTACK, 0, STACK
        ARGFRAME PSTACK, 0, STACK
        ARGFRAME XSTACK, 23, STACK
        ARGFRAME IOVERLAY, 0, STATIC
        ARGFRAME DOVERLAY, 0, STATIC
        MOV     A,#-0xa
        LCALL   ?BANKED_ENTER_XDATA
        CFI DPH0 load(1, XDATA, add(CFA_XSP16, literal(-1)))
        CFI DPL0 load(1, XDATA, add(CFA_XSP16, literal(-2)))
        CFI ?BRET_EXT load(1, XDATA, add(CFA_XSP16, literal(-3)))
        CFI ?RET_HIGH load(1, XDATA, add(CFA_XSP16, literal(-4)))
        CFI ?RET_LOW load(1, XDATA, add(CFA_XSP16, literal(-5)))
        CFI R7 load(1, XDATA, add(CFA_XSP16, literal(-6)))
        CFI V1 load(1, XDATA, add(CFA_XSP16, literal(-7)))
        CFI V0 load(1, XDATA, add(CFA_XSP16, literal(-8)))
        CFI VB load(1, XDATA, add(CFA_XSP16, literal(-9)))
        CFI R6 load(1, XDATA, add(CFA_XSP16, literal(-10)))
        CFI CFA_SP SP+0
        CFI CFA_XSP16 add(XSP16, 10)
        ; Saved register size: 10
        ; Auto size: 13
        MOV     A,#-0xd
        LCALL   ?ALLOC_XSTACK8
        CFI CFA_XSP16 add(XSP16, 23)
//  956   AddrMgrEntry_t entry;
//  957   uint16         parent;
//  958 
//  959   // add "local"(self and parent) address informtion into the Address
//  960   // Manager
//  961   if ( bindAddrMgrLocalLoaded == FALSE )
        MOV     DPTR,#bindAddrMgrLocalLoaded
        MOVX    A,@DPTR
        JZ      $+5
        LJMP    ??bindAddrMgrLocalLoad_0 & 0xFFFF
//  962   {
//  963     // add the device's address information
//  964     entry.user    = ADDRMGR_USER_BINDING;
        MOV     DPL,?XSP + 0
        MOV     DPH,?XSP + 1
        MOV     A,#0x4
        MOVX    @DPTR,A
//  965     entry.nwkAddr = _NIB.nwkDevAddress;
        MOV     DPTR,#_NIB + 20
        MOVX    A,@DPTR
        MOV     R0,A
        INC     DPTR
        MOVX    A,@DPTR
        MOV     R1,A
        MOV     A,#0x1
        LCALL   ?XSTACK_DISP0_8
        MOV     A,R0
        MOVX    @DPTR,A
        INC     DPTR
        MOV     A,R1
        MOVX    @DPTR,A
//  966     AddrMgrExtAddrSet( entry.extAddr, NLME_GetExtAddr() );
        ; Setup parameters for call to function AddrMgrExtAddrSet
        ; Setup parameters for call to function NLME_GetExtAddr
        LCALL   ??NLME_GetExtAddr?relay
        MOV     A,R2
        MOV     R4,A
        MOV     A,R3
        MOV     R5,A
        MOV     A,#0x3
        LCALL   ?XSTACK_DISP0_8
        MOV     R2,DPL
        MOV     R3,DPH
        LCALL   ??AddrMgrExtAddrSet?relay
//  967     AddrMgrEntryUpdate( &entry );
        ; Setup parameters for call to function AddrMgrEntryUpdate
        MOV     DPL,?XSP + 0
        MOV     DPH,?XSP + 1
        MOV     R2,DPL
        MOV     R3,DPH
        LCALL   ??AddrMgrEntryUpdate?relay
        MOV     A,R1
//  968 
//  969     // make sure parent address is valid
//  970     parent = NLME_GetCoordShortAddr();
        ; Setup parameters for call to function NLME_GetCoordShortAddr
        LCALL   ??NLME_GetCoordShortAddr?relay
        MOV     ?V0 + 0,R2
        MOV     ?V0 + 1,R3
        MOV     R6,?V0 + 0
        MOV     R7,?V0 + 1
//  971     if ( ( parent != entry.nwkAddr     ) &&
//  972          ( parent != INVALID_NODE_ADDR )    )
        MOV     A,#0x1
        LCALL   ?XSTACK_DISP0_8
        MOVX    A,@DPTR
        XRL     A,R6
        JNZ     ??bindAddrMgrLocalLoad_1
        INC     DPTR
        MOVX    A,@DPTR
        XRL     A,R7
??bindAddrMgrLocalLoad_1:
        JZ      ??bindAddrMgrLocalLoad_2
        MOV     A,#-0x2
        XRL     A,R6
        JNZ     ??bindAddrMgrLocalLoad_3
        MOV     A,#-0x1
        XRL     A,R7
??bindAddrMgrLocalLoad_3:
        JZ      ??bindAddrMgrLocalLoad_2
//  973     {
//  974       // add the parent's address information
//  975       entry.nwkAddr = parent;
        MOV     A,#0x1
        LCALL   ?XSTACK_DISP0_8
        MOV     A,R6
        MOVX    @DPTR,A
        INC     DPTR
        MOV     A,R7
        MOVX    @DPTR,A
//  976       NLME_GetCoordExtAddr( entry.extAddr );
        ; Setup parameters for call to function NLME_GetCoordExtAddr
        MOV     A,#0x3
        LCALL   ?XSTACK_DISP0_8
        MOV     R2,DPL
        MOV     R3,DPH
        LCALL   ??NLME_GetCoordExtAddr?relay
//  977       AddrMgrEntryUpdate( &entry );
        ; Setup parameters for call to function AddrMgrEntryUpdate
        MOV     DPL,?XSP + 0
        MOV     DPH,?XSP + 1
        MOV     R2,DPL
        MOV     R3,DPH
        LCALL   ??AddrMgrEntryUpdate?relay
        MOV     A,R1
//  978     }
//  979 
//  980     bindAddrMgrLocalLoaded = TRUE;
??bindAddrMgrLocalLoad_2:
        MOV     DPTR,#bindAddrMgrLocalLoaded
        MOV     A,#0x1
        MOVX    @DPTR,A
//  981   }
//  982 }
??bindAddrMgrLocalLoad_0:
        MOV     A,#0xd
        LCALL   ?DEALLOC_XSTACK8
        CFI CFA_XSP16 add(XSP16, 10)
        MOV     R7,#0x2
        LJMP    ?BANKED_LEAVE_XDATA
        CFI EndBlock cfiBlock23
//  983 
//  984 /*********************************************************************
//  985  * @fn      bindAddrIndexGet
//  986  *
//  987  * @brief   Get bind address index.
//  988  *
//  989  * @param   addr - <zAddrType_t>
//  990  *
//  991  * @return  (uint16) address index
//  992  */

        RSEG BANKED_CODE:CODE:NOROOT(0)
//  993 uint16 bindAddrIndexGet( zAddrType_t* addr )
bindAddrIndexGet:
        CFI Block cfiBlock24 Using cfiCommon0
        CFI Function bindAddrIndexGet
        CODE
//  994 {
        FUNCALL bindAddrIndexGet, AddrMgrEntryLookupNwk
        LOCFRAME ISTACK, 0, STACK
        LOCFRAME PSTACK, 0, STACK
        LOCFRAME XSTACK, 22, STACK
        LOCFRAME IOVERLAY, 0, STATIC
        LOCFRAME DOVERLAY, 0, STATIC
        ARGFRAME ISTACK, 0, STACK
        ARGFRAME PSTACK, 0, STACK
        ARGFRAME XSTACK, 22, STACK
        ARGFRAME IOVERLAY, 0, STATIC
        ARGFRAME DOVERLAY, 0, STATIC
        FUNCALL bindAddrIndexGet, AddrMgrExtAddrSet
        LOCFRAME ISTACK, 0, STACK
        LOCFRAME PSTACK, 0, STACK
        LOCFRAME XSTACK, 22, STACK
        LOCFRAME IOVERLAY, 0, STATIC
        LOCFRAME DOVERLAY, 0, STATIC
        ARGFRAME ISTACK, 0, STACK
        ARGFRAME PSTACK, 0, STACK
        ARGFRAME XSTACK, 22, STACK
        ARGFRAME IOVERLAY, 0, STATIC
        ARGFRAME DOVERLAY, 0, STATIC
        FUNCALL bindAddrIndexGet, AddrMgrEntryLookupExt
        LOCFRAME ISTACK, 0, STACK
        LOCFRAME PSTACK, 0, STACK
        LOCFRAME XSTACK, 22, STACK
        LOCFRAME IOVERLAY, 0, STATIC
        LOCFRAME DOVERLAY, 0, STATIC
        ARGFRAME ISTACK, 0, STACK
        ARGFRAME PSTACK, 0, STACK
        ARGFRAME XSTACK, 22, STACK
        ARGFRAME IOVERLAY, 0, STATIC
        ARGFRAME DOVERLAY, 0, STATIC
        FUNCALL bindAddrIndexGet, AddrMgrEntryUpdate
        LOCFRAME ISTACK, 0, STACK
        LOCFRAME PSTACK, 0, STACK
        LOCFRAME XSTACK, 22, STACK
        LOCFRAME IOVERLAY, 0, STATIC
        LOCFRAME DOVERLAY, 0, STATIC
        ARGFRAME ISTACK, 0, STACK
        ARGFRAME PSTACK, 0, STACK
        ARGFRAME XSTACK, 22, STACK
        ARGFRAME IOVERLAY, 0, STATIC
        ARGFRAME DOVERLAY, 0, STATIC
        MOV     A,#-0x9
        LCALL   ?BANKED_ENTER_XDATA
        CFI DPH0 load(1, XDATA, add(CFA_XSP16, literal(-1)))
        CFI DPL0 load(1, XDATA, add(CFA_XSP16, literal(-2)))
        CFI ?BRET_EXT load(1, XDATA, add(CFA_XSP16, literal(-3)))
        CFI ?RET_HIGH load(1, XDATA, add(CFA_XSP16, literal(-4)))
        CFI ?RET_LOW load(1, XDATA, add(CFA_XSP16, literal(-5)))
        CFI R7 load(1, XDATA, add(CFA_XSP16, literal(-6)))
        CFI V0 load(1, XDATA, add(CFA_XSP16, literal(-7)))
        CFI VB load(1, XDATA, add(CFA_XSP16, literal(-8)))
        CFI R6 load(1, XDATA, add(CFA_XSP16, literal(-9)))
        CFI CFA_SP SP+0
        CFI CFA_XSP16 add(XSP16, 9)
        ; Saved register size: 9
        ; Auto size: 13
        MOV     A,#-0xd
        LCALL   ?ALLOC_XSTACK8
        CFI CFA_XSP16 add(XSP16, 22)
        MOV     A,R2
        MOV     R6,A
        MOV     A,R3
        MOV     R7,A
//  995   AddrMgrEntry_t entry;
//  996   uint8          update;
//  997 
//  998   update = FALSE;
        MOV     ?V0 + 0,#0x0
//  999 
// 1000   // sync binding addresses with the address manager
// 1001   entry.user = ADDRMGR_USER_BINDING;
        MOV     DPL,?XSP + 0
        MOV     DPH,?XSP + 1
        MOV     A,#0x4
        MOVX    @DPTR,A
// 1002 
// 1003   if ( addr->addrMode == Addr16Bit )
        MOV     DPL,R6
        MOV     DPH,R7
        INC     DPTR
        INC     DPTR
        INC     DPTR
        INC     DPTR
        INC     DPTR
        INC     DPTR
        INC     DPTR
        INC     DPTR
        MOVX    A,@DPTR
        XRL     A,#0x2
        JNZ     ??bindAddrIndexGet_0
// 1004   {
// 1005     entry.nwkAddr = addr->addr.shortAddr;
        MOV     DPL,R6
        MOV     DPH,R7
        MOVX    A,@DPTR
        MOV     R0,A
        INC     DPTR
        MOVX    A,@DPTR
        MOV     R1,A
        MOV     A,#0x1
        LCALL   ?XSTACK_DISP0_8
        MOV     A,R0
        MOVX    @DPTR,A
        INC     DPTR
        MOV     A,R1
        MOVX    @DPTR,A
// 1006 
// 1007     if ( AddrMgrEntryLookupNwk( &entry ) == FALSE )
        ; Setup parameters for call to function AddrMgrEntryLookupNwk
        MOV     DPL,?XSP + 0
        MOV     DPH,?XSP + 1
        MOV     R2,DPL
        MOV     R3,DPH
        LCALL   ??AddrMgrEntryLookupNwk?relay
        MOV     A,R1
        JNZ     ??bindAddrIndexGet_1
// 1008     {
// 1009       update = TRUE;
        MOV     ?V0 + 0,#0x1
        SJMP    ??bindAddrIndexGet_1
// 1010     }
// 1011   }
// 1012   else if ( addr->addrMode == Addr64Bit )
??bindAddrIndexGet_0:
        MOV     DPL,R6
        MOV     DPH,R7
        INC     DPTR
        INC     DPTR
        INC     DPTR
        INC     DPTR
        INC     DPTR
        INC     DPTR
        INC     DPTR
        INC     DPTR
        MOVX    A,@DPTR
        XRL     A,#0x3
        JNZ     ??bindAddrIndexGet_2
// 1013   {
// 1014     AddrMgrExtAddrSet( entry.extAddr, addr->addr.extAddr );
        ; Setup parameters for call to function AddrMgrExtAddrSet
        MOV     A,R6
        MOV     R4,A
        MOV     A,R7
        MOV     R5,A
        MOV     A,#0x3
        LCALL   ?XSTACK_DISP0_8
        MOV     R2,DPL
        MOV     R3,DPH
        LCALL   ??AddrMgrExtAddrSet?relay
// 1015 
// 1016     if ( AddrMgrEntryLookupExt( &entry ) == FALSE )
        ; Setup parameters for call to function AddrMgrEntryLookupExt
        MOV     DPL,?XSP + 0
        MOV     DPH,?XSP + 1
        MOV     R2,DPL
        MOV     R3,DPH
        LCALL   ??AddrMgrEntryLookupExt?relay
        MOV     A,R1
        JNZ     ??bindAddrIndexGet_1
// 1017     {
// 1018       update = TRUE;
        MOV     ?V0 + 0,#0x1
        SJMP    ??bindAddrIndexGet_1
// 1019     }
// 1020   }
// 1021   else if ( addr->addrMode == AddrGroup )
??bindAddrIndexGet_2:
        MOV     DPL,R6
        MOV     DPH,R7
        INC     DPTR
        INC     DPTR
        INC     DPTR
        INC     DPTR
        INC     DPTR
        INC     DPTR
        INC     DPTR
        INC     DPTR
        MOVX    A,@DPTR
        XRL     A,#0x1
        JNZ     ??bindAddrIndexGet_3
// 1022   {
// 1023     entry.index = addr->addr.shortAddr;
        MOV     DPL,R6
        MOV     DPH,R7
        MOVX    A,@DPTR
        MOV     R0,A
        INC     DPTR
        MOVX    A,@DPTR
        MOV     R1,A
        MOV     A,#0xb
        LCALL   ?XSTACK_DISP0_8
        MOV     A,R0
        MOVX    @DPTR,A
        INC     DPTR
        MOV     A,R1
        MOVX    @DPTR,A
        SJMP    ??bindAddrIndexGet_1
// 1024   }
// 1025   else
// 1026   {
// 1027     entry.index = INVALID_NODE_ADDR;
??bindAddrIndexGet_3:
        MOV     A,#0xb
        LCALL   ?XSTACK_DISP0_8
        MOV     A,#-0x2
        MOVX    @DPTR,A
        INC     DPTR
        MOV     A,#-0x1
        MOVX    @DPTR,A
// 1028   }
// 1029 
// 1030   if ( update )
??bindAddrIndexGet_1:
        MOV     A,?V0 + 0
        JZ      ??bindAddrIndexGet_4
// 1031   {
// 1032     AddrMgrEntryUpdate( &entry );
        ; Setup parameters for call to function AddrMgrEntryUpdate
        MOV     DPL,?XSP + 0
        MOV     DPH,?XSP + 1
        MOV     R2,DPL
        MOV     R3,DPH
        LCALL   ??AddrMgrEntryUpdate?relay
        MOV     A,R1
// 1033   }
// 1034 
// 1035   return entry.index;
??bindAddrIndexGet_4:
        MOV     A,#0xb
        LCALL   ?XSTACK_DISP0_8
        MOVX    A,@DPTR
        MOV     R2,A
        INC     DPTR
        MOVX    A,@DPTR
        MOV     R3,A
        MOV     A,#0xd
        LCALL   ?DEALLOC_XSTACK8
        CFI CFA_XSP16 add(XSP16, 9)
        MOV     R7,#0x1
        LJMP    ?BANKED_LEAVE_XDATA
        CFI EndBlock cfiBlock24
// 1036 }
// 1037 
// 1038 /*********************************************************************
// 1039  * @fn      GetBindingTableEntry
// 1040  *
// 1041  * @brief   Get a pointer to the Nth valid binding table entry.
// 1042  *
// 1043  * @param   Nth valid entry being requested.
// 1044  *
// 1045  * @return  The Nth valid binding table entry.
// 1046  */

        RSEG BANKED_CODE:CODE:NOROOT(0)
// 1047 BindingEntry_t *GetBindingTableEntry( uint16 Nth )
GetBindingTableEntry:
        CFI Block cfiBlock25 Using cfiCommon0
        CFI Function GetBindingTableEntry
        CODE
// 1048 {
        MOV     A,#-0xb
        LCALL   ?BANKED_ENTER_XDATA
        CFI DPH0 load(1, XDATA, add(CFA_XSP16, literal(-1)))
        CFI DPL0 load(1, XDATA, add(CFA_XSP16, literal(-2)))
        CFI ?BRET_EXT load(1, XDATA, add(CFA_XSP16, literal(-3)))
        CFI ?RET_HIGH load(1, XDATA, add(CFA_XSP16, literal(-4)))
        CFI ?RET_LOW load(1, XDATA, add(CFA_XSP16, literal(-5)))
        CFI R7 load(1, XDATA, add(CFA_XSP16, literal(-6)))
        CFI V2 load(1, XDATA, add(CFA_XSP16, literal(-7)))
        CFI V1 load(1, XDATA, add(CFA_XSP16, literal(-8)))
        CFI V0 load(1, XDATA, add(CFA_XSP16, literal(-9)))
        CFI VB load(1, XDATA, add(CFA_XSP16, literal(-10)))
        CFI R6 load(1, XDATA, add(CFA_XSP16, literal(-11)))
        CFI CFA_SP SP+0
        CFI CFA_XSP16 add(XSP16, 11)
        ; Saved register size: 11
        ; Auto size: 0
        MOV     ?V0 + 0,R2
        MOV     ?V0 + 1,R3
// 1049   BindingEntry_t *rtrn = NULL;
        MOV     R2,#0x0
        MOV     R3,#0x0
// 1050 
// 1051 #if defined ( REFLECTOR )
// 1052   uint16 idx, cnt = 0;
        MOV     R6,#0x0
        MOV     R7,#0x0
// 1053 
// 1054   for ( idx = 0; idx < gNWK_MAX_BINDING_ENTRIES; idx++ )
        MOV     R0,#0x0
        MOV     R1,#0x0
??GetBindingTableEntry_0:
        MOV     DPTR,#gNWK_MAX_BINDING_ENTRIES
        CLR     A
        MOVC    A,@A+DPTR
        MOV     R4,A
        MOV     A,#0x1
        MOVC    A,@A+DPTR
        MOV     R5,A
        CLR     C
        MOV     A,R0
        SUBB    A,R4
        MOV     A,R1
        SUBB    A,R5
        JNC     ??GetBindingTableEntry_1
// 1055   {
// 1056     if ( BindingTable[idx].srcEP != NV_BIND_EMPTY )
        MOV     A,R0
        MOV     R4,A
        MOV     A,R1
        MOV     R5,A
        MOV     A,R4
        MOV     B,#0xe
        MUL     AB
        XCH     A,R4
        MOV     ?V0 + 2,B
        MOV     B,#0x0
        MUL     AB
        ADD     A,?V0 + 2
        MOV     ?V0 + 2,A
        MOV     B,#0xe
        MOV     A,R5
        MUL     AB
        ADD     A,?V0 + 2
        MOV     R5,A
        MOV     A,#BindingTable & 0xff
        ADD     A,R4
        MOV     DPL,A
        MOV     A,#(BindingTable >> 8) & 0xff
        ADDC    A,R5
        MOV     DPH,A
        MOVX    A,@DPTR
        XRL     A,#0xff
        JZ      ??GetBindingTableEntry_2
// 1057     {
// 1058       if ( cnt++ == Nth )
        MOV     A,R6
        MOV     R4,A
        MOV     A,R7
        MOV     R5,A
        MOV     A,R4
        ADD     A,#0x1
        MOV     R6,A
        MOV     A,R5
        ADDC    A,#0x0
        MOV     R7,A
        MOV     A,?V0 + 0
        XRL     A,R4
        JNZ     ??GetBindingTableEntry_3
        MOV     A,?V0 + 1
        XRL     A,R5
??GetBindingTableEntry_3:
        JNZ     ??GetBindingTableEntry_2
// 1059       {
// 1060         rtrn = BindingTable+idx;
        MOV     A,R0
        MOV     R4,A
        MOV     A,R1
        MOV     R5,A
        MOV     A,R4
        MOV     B,#0xe
        MUL     AB
        XCH     A,R4
        MOV     ?V0 + 2,B
        MOV     B,#0x0
        MUL     AB
        ADD     A,?V0 + 2
        MOV     ?V0 + 2,A
        MOV     B,#0xe
        MOV     A,R5
        MUL     AB
        ADD     A,?V0 + 2
        MOV     R5,A
        MOV     A,#BindingTable & 0xff
        ADD     A,R4
        MOV     R4,A
        MOV     A,#(BindingTable >> 8) & 0xff
        ADDC    A,R5
        MOV     R5,A
        MOV     A,R4
        MOV     R2,A
        MOV     A,R5
        MOV     R3,A
// 1061         break;
        SJMP    ??GetBindingTableEntry_1
// 1062       }
// 1063     }
// 1064   }
??GetBindingTableEntry_2:
        MOV     A,R0
        ADD     A,#0x1
        MOV     R0,A
        MOV     A,R1
        ADDC    A,#0x0
        MOV     R1,A
        LJMP    ??GetBindingTableEntry_0 & 0xFFFF
// 1065 #else
// 1066   (void)Nth;
// 1067 #endif
// 1068 
// 1069   return rtrn;
??GetBindingTableEntry_1:
        MOV     R7,#0x3
        LJMP    ?BANKED_LEAVE_XDATA
        CFI EndBlock cfiBlock25
// 1070 }

        RSEG BANK_RELAYS:CODE:REORDER:NOROOT(0)
??InitBindingTable?relay:
        LCALL   ?BDISPATCH
        DATA
        DC24    InitBindingTable

        RSEG BANK_RELAYS:CODE:REORDER:NOROOT(0)
??bindFindEmpty?relay:
        LCALL   ?BDISPATCH
        DATA
        DC24    bindFindEmpty

        RSEG BANK_RELAYS:CODE:REORDER:NOROOT(0)
??bindNumOfEntries?relay:
        LCALL   ?BDISPATCH
        DATA
        DC24    bindNumOfEntries

        RSEG BANK_RELAYS:CODE:REORDER:NOROOT(0)
??bindCapacity?relay:
        LCALL   ?BDISPATCH
        DATA
        DC24    bindCapacity

        RSEG BANK_RELAYS:CODE:REORDER:NOROOT(0)
??bindAddEntry?relay:
        LCALL   ?BDISPATCH
        DATA
        DC24    bindAddEntry

        RSEG BANK_RELAYS:CODE:REORDER:NOROOT(0)
??bindRemoveEntry?relay:
        LCALL   ?BDISPATCH
        DATA
        DC24    bindRemoveEntry

        RSEG BANK_RELAYS:CODE:REORDER:NOROOT(0)
??bindIsClusterIDinList?relay:
        LCALL   ?BDISPATCH
        DATA
        DC24    bindIsClusterIDinList

        RSEG BANK_RELAYS:CODE:REORDER:NOROOT(0)
??bindRemoveClusterIdFromList?relay:
        LCALL   ?BDISPATCH
        DATA
        DC24    bindRemoveClusterIdFromList

        RSEG BANK_RELAYS:CODE:REORDER:NOROOT(0)
??bindAddClusterIdToList?relay:
        LCALL   ?BDISPATCH
        DATA
        DC24    bindAddClusterIdToList

        RSEG BANK_RELAYS:CODE:REORDER:NOROOT(0)
??bindFindExisting?relay:
        LCALL   ?BDISPATCH
        DATA
        DC24    bindFindExisting

        RSEG BANK_RELAYS:CODE:REORDER:NOROOT(0)
??bindRemoveDev?relay:
        LCALL   ?BDISPATCH
        DATA
        DC24    bindRemoveDev

        RSEG BANK_RELAYS:CODE:REORDER:NOROOT(0)
??bindRemoveSrcDev?relay:
        LCALL   ?BDISPATCH
        DATA
        DC24    bindRemoveSrcDev

        RSEG BANK_RELAYS:CODE:REORDER:NOROOT(0)
??bindNumBoundTo?relay:
        LCALL   ?BDISPATCH
        DATA
        DC24    bindNumBoundTo

        RSEG BANK_RELAYS:CODE:REORDER:NOROOT(0)
??bindNumReflections?relay:
        LCALL   ?BDISPATCH
        DATA
        DC24    bindNumReflections

        RSEG BANK_RELAYS:CODE:REORDER:NOROOT(0)
??bindFind?relay:
        LCALL   ?BDISPATCH
        DATA
        DC24    bindFind

        RSEG BANK_RELAYS:CODE:REORDER:NOROOT(0)
??BindInitNV?relay:
        LCALL   ?BDISPATCH
        DATA
        DC24    BindInitNV

        RSEG BANK_RELAYS:CODE:REORDER:NOROOT(0)
??BindSetDefaultNV?relay:
        LCALL   ?BDISPATCH
        DATA
        DC24    BindSetDefaultNV

        RSEG BANK_RELAYS:CODE:REORDER:NOROOT(0)
??BindRestoreFromNV?relay:
        LCALL   ?BDISPATCH
        DATA
        DC24    BindRestoreFromNV

        RSEG BANK_RELAYS:CODE:REORDER:NOROOT(0)
??BindWriteNV?relay:
        LCALL   ?BDISPATCH
        DATA
        DC24    BindWriteNV

        RSEG BANK_RELAYS:CODE:REORDER:NOROOT(0)
??bindUpdateAddr?relay:
        LCALL   ?BDISPATCH
        DATA
        DC24    bindUpdateAddr

        RSEG BANK_RELAYS:CODE:REORDER:NOROOT(0)
??bindingAddrMgsHelperFind?relay:
        LCALL   ?BDISPATCH
        DATA
        DC24    bindingAddrMgsHelperFind

        RSEG BANK_RELAYS:CODE:REORDER:NOROOT(0)
??bindingAddrMgsHelperConvert?relay:
        LCALL   ?BDISPATCH
        DATA
        DC24    bindingAddrMgsHelperConvert

        RSEG BANK_RELAYS:CODE:REORDER:NOROOT(0)
??bindingAddrMgsHelperConvertShort?relay:
        LCALL   ?BDISPATCH
        DATA
        DC24    bindingAddrMgsHelperConvertShort

        RSEG BANK_RELAYS:CODE:REORDER:NOROOT(0)
??bindAddrMgrLocalLoad?relay:
        LCALL   ?BDISPATCH
        DATA
        DC24    bindAddrMgrLocalLoad

        RSEG BANK_RELAYS:CODE:REORDER:NOROOT(0)
??bindAddrIndexGet?relay:
        LCALL   ?BDISPATCH
        DATA
        DC24    bindAddrIndexGet

        RSEG BANK_RELAYS:CODE:REORDER:NOROOT(0)
??GetBindingTableEntry?relay:
        LCALL   ?BDISPATCH
        DATA
        DC24    GetBindingTableEntry

        END
// 1071 
// 1072 /*********************************************************************
// 1073 *********************************************************************/
// 
// 4 977 bytes in segment BANKED_CODE
//   156 bytes in segment BANK_RELAYS
//    15 bytes in segment XDATA_Z
// 
// 5 133 bytes of CODE  memory
//    15 bytes of XDATA memory
//
//Errors: none
//Warnings: none
