###############################################################################
#                                                                             #
# IAR C/C++ Compiler V8.10.1.10194/W32 for 8051         14/Jul/2015  13:43:40 #
# Copyright 2004-2011 IAR Systems AB.                                         #
#                                                                             #
#    Core               =  plain                                              #
#    Code model         =  banked                                             #
#    Data model         =  large                                              #
#    Calling convention =  xdata reentrant                                    #
#    Constant location  =  data_rom                                           #
#    Dptr setup         =  1,16                                               #
#    Source file        =  C:\Texas Instruments\ZStack-CC2530-2.5.1a\Projects #
#                          \zstack\ZMain\TI2530DB\OnBoard.c                   #
#    Command line       =  -f "C:\Texas Instruments\ZStack-CC2530-2.5.1a\Proj #
#                          ects\zstack\Samples\WirelessMonitorSystem\CC2530DB #
#                          \..\..\..\Tools\CC2530DB\f8wEndev.cfg"             #
#                          (-DCPU32MHZ -DROOT=__near_func                     #
#                          -DMAC_CFG_TX_DATA_MAX=3 -DMAC_CFG_TX_MAX=6         #
#                          -DMAC_CFG_RX_MAX=3) -f "C:\Texas                   #
#                          Instruments\ZStack-CC2530-2.5.1a\Projects\zstack\S #
#                          amples\WirelessMonitorSystem\CC2530DB\..\..\..\Too #
#                          ls\CC2530DB\f8wConfig.cfg" (-DZIGBEEPRO            #
#                          -DSECURE=0 -DZG_SECURE_DYNAMIC=0 -DREFLECTOR       #
#                          -DDEFAULT_CHANLIST=0x00000800                      #
#                          -DZDAPP_CONFIG_PAN_ID=0xFFFF                       #
#                          -DNWK_START_DELAY=100 -DEXTENDED_JOINING_RANDOM_MA #
#                          SK=0x007F -DBEACON_REQUEST_DELAY=100               #
#                          -DBEACON_REQ_DELAY_MASK=0x00FF                     #
#                          -DLINK_STATUS_JITTER_MASK=0x007F                   #
#                          -DROUTE_EXPIRY_TIME=30 -DAPSC_ACK_WAIT_DURATION_PO #
#                          LLED=3000 -DNWK_INDIRECT_MSG_TIMEOUT=7             #
#                          -DMAX_RREQ_ENTRIES=8 -DAPSC_MAX_FRAME_RETRIES=3    #
#                          -DNWK_MAX_DATA_RETRIES=2                           #
#                          -DMAX_POLL_FAILURE_RETRIES=2 -DMAX_BCAST=9         #
#                          -DAPS_MAX_GROUPS=16 -DMAX_RTG_ENTRIES=40           #
#                          -DNWK_MAX_BINDING_ENTRIES=4                        #
#                          -DMAX_BINDING_CLUSTER_IDS=4 "-DDEFAULT_KEY={0x01,  #
#                          0x03, 0x05, 0x07, 0x09, 0x0B, 0x0D, 0x0F, 0x00,    #
#                          0x02, 0x04, 0x06, 0x08, 0x0A, 0x0C, 0x0D}"         #
#                          -DMAC_MAX_FRAME_SIZE=116                           #
#                          -DZDNWKMGR_MIN_TRANSMISSIONS=20 "-DCONST=const     #
#                          __code" -DGENERIC=__generic                        #
#                          -DRFD_RCVC_ALWAYS_ON=FALSE -DPOLL_RATE=500         #
#                          -DQUEUED_POLL_RATE=30 -DRESPONSE_POLL_RATE=100)    #
#                          -DREJOIN_POLL_RATE=440 "C:\Texas                   #
#                          Instruments\ZStack-CC2530-2.5.1a\Projects\zstack\Z #
#                          Main\TI2530DB\OnBoard.c" -D HAL_UART -lC           #
#                          "C:\Texas Instruments\ZStack-CC2530-2.5.1a\Project #
#                          s\zstack\Samples\WirelessMonitorSystem\CC2530DB\LC #
#                          D\List\" -lA "C:\Texas Instruments\ZStack-CC2530-2 #
#                          .5.1a\Projects\zstack\Samples\WirelessMonitorSyste #
#                          m\CC2530DB\LCD\List\" --diag_suppress Pe001,Pa010  #
#                          -o "C:\Texas Instruments\ZStack-CC2530-2.5.1a\Proj #
#                          ects\zstack\Samples\WirelessMonitorSystem\CC2530DB #
#                          \LCD\Obj\" -e --no_cse --no_unroll --no_inline     #
#                          --no_code_motion --no_tbaa --debug --core=plain    #
#                          --dptr=16,1 --data_model=large                     #
#                          --code_model=banked --calling_convention=xdata_ree #
#                          ntrant --place_constants=data_rom                  #
#                          --nr_virtual_regs 16 -I "C:\Texas                  #
#                          Instruments\ZStack-CC2530-2.5.1a\Projects\zstack\S #
#                          amples\WirelessMonitorSystem\CC2530DB\" -I         #
#                          "C:\Texas Instruments\ZStack-CC2530-2.5.1a\Project #
#                          s\zstack\Samples\WirelessMonitorSystem\CC2530DB\.. #
#                          \Source\" -I "C:\Texas Instruments\ZStack-CC2530-2 #
#                          .5.1a\Projects\zstack\Samples\WirelessMonitorSyste #
#                          m\CC2530DB\..\..\..\ZMain\TI2530DB\" -I "C:\Texas  #
#                          Instruments\ZStack-CC2530-2.5.1a\Projects\zstack\S #
#                          amples\WirelessMonitorSystem\CC2530DB\..\..\..\..\ #
#                          ..\Components\hal\include\" -I "C:\Texas           #
#                          Instruments\ZStack-CC2530-2.5.1a\Projects\zstack\S #
#                          amples\WirelessMonitorSystem\CC2530DB\..\..\..\..\ #
#                          ..\Components\hal\target\CC2530EB\" -I "C:\Texas   #
#                          Instruments\ZStack-CC2530-2.5.1a\Projects\zstack\S #
#                          amples\WirelessMonitorSystem\CC2530DB\..\..\..\..\ #
#                          ..\Components\mac\include\" -I "C:\Texas           #
#                          Instruments\ZStack-CC2530-2.5.1a\Projects\zstack\S #
#                          amples\WirelessMonitorSystem\CC2530DB\..\..\..\..\ #
#                          ..\Components\mac\high_level\" -I "C:\Texas        #
#                          Instruments\ZStack-CC2530-2.5.1a\Projects\zstack\S #
#                          amples\WirelessMonitorSystem\CC2530DB\..\..\..\..\ #
#                          ..\Components\mac\low_level\srf04\" -I "C:\Texas   #
#                          Instruments\ZStack-CC2530-2.5.1a\Projects\zstack\S #
#                          amples\WirelessMonitorSystem\CC2530DB\..\..\..\..\ #
#                          ..\Components\mac\low_level\srf04\single_chip\"    #
#                          -I "C:\Texas Instruments\ZStack-CC2530-2.5.1a\Proj #
#                          ects\zstack\Samples\WirelessMonitorSystem\CC2530DB #
#                          \..\..\..\..\..\Components\mt\" -I "C:\Texas       #
#                          Instruments\ZStack-CC2530-2.5.1a\Projects\zstack\S #
#                          amples\WirelessMonitorSystem\CC2530DB\..\..\..\..\ #
#                          ..\Components\osal\include\" -I "C:\Texas          #
#                          Instruments\ZStack-CC2530-2.5.1a\Projects\zstack\S #
#                          amples\WirelessMonitorSystem\CC2530DB\..\..\..\..\ #
#                          ..\Components\services\saddr\" -I "C:\Texas        #
#                          Instruments\ZStack-CC2530-2.5.1a\Projects\zstack\S #
#                          amples\WirelessMonitorSystem\CC2530DB\..\..\..\..\ #
#                          ..\Components\services\sdata\" -I "C:\Texas        #
#                          Instruments\ZStack-CC2530-2.5.1a\Projects\zstack\S #
#                          amples\WirelessMonitorSystem\CC2530DB\..\..\..\..\ #
#                          ..\Components\stack\af\" -I "C:\Texas              #
#                          Instruments\ZStack-CC2530-2.5.1a\Projects\zstack\S #
#                          amples\WirelessMonitorSystem\CC2530DB\..\..\..\..\ #
#                          ..\Components\stack\nwk\" -I "C:\Texas             #
#                          Instruments\ZStack-CC2530-2.5.1a\Projects\zstack\S #
#                          amples\WirelessMonitorSystem\CC2530DB\..\..\..\..\ #
#                          ..\Components\stack\sapi\" -I "C:\Texas            #
#                          Instruments\ZStack-CC2530-2.5.1a\Projects\zstack\S #
#                          amples\WirelessMonitorSystem\CC2530DB\..\..\..\..\ #
#                          ..\Components\stack\sec\" -I "C:\Texas             #
#                          Instruments\ZStack-CC2530-2.5.1a\Projects\zstack\S #
#                          amples\WirelessMonitorSystem\CC2530DB\..\..\..\..\ #
#                          ..\Components\stack\sys\" -I "C:\Texas             #
#                          Instruments\ZStack-CC2530-2.5.1a\Projects\zstack\S #
#                          amples\WirelessMonitorSystem\CC2530DB\..\..\..\..\ #
#                          ..\Components\stack\zdo\" -I "C:\Texas             #
#                          Instruments\ZStack-CC2530-2.5.1a\Projects\zstack\S #
#                          amples\WirelessMonitorSystem\CC2530DB\..\..\..\..\ #
#                          ..\Components\zmac\" -I "C:\Texas                  #
#                          Instruments\ZStack-CC2530-2.5.1a\Projects\zstack\S #
#                          amples\WirelessMonitorSystem\CC2530DB\..\..\..\..\ #
#                          ..\Components\zmac\f8w\" -On --require_prototypes  #
#    List file          =  C:\Texas Instruments\ZStack-CC2530-2.5.1a\Projects #
#                          \zstack\Samples\WirelessMonitorSystem\CC2530DB\LCD #
#                          \List\OnBoard.lst                                  #
#    Object file        =  C:\Texas Instruments\ZStack-CC2530-2.5.1a\Projects #
#                          \zstack\Samples\WirelessMonitorSystem\CC2530DB\LCD #
#                          \Obj\OnBoard.r51                                   #
#                                                                             #
#                                                                             #
###############################################################################

C:\Texas Instruments\ZStack-CC2530-2.5.1a\Projects\zstack\ZMain\TI2530DB\OnBoard.c
      1          /**************************************************************************************************
      2            Filename:       OnBoard.c
      3            Revised:        $Date: 2012-03-29 12:09:02 -0700 (Thu, 29 Mar 2012) $
      4            Revision:       $Revision: 29943 $
      5          
      6            Description:    This file contains the UI and control for the
      7                            peripherals on the EVAL development board
      8            Notes:          This file targets the Chipcon CC2530/31
      9          
     10          
     11            Copyright 2005-2010 Texas Instruments Incorporated. All rights reserved.
     12          
     13            IMPORTANT: Your use of this Software is limited to those specific rights
     14            granted under the terms of a software license agreement between the user
     15            who downloaded the software, his/her employer (which must be your employer)
     16            and Texas Instruments Incorporated (the "License").  You may not use this
     17            Software unless you agree to abide by the terms of the License. The License
     18            limits your use, and you acknowledge, that the Software may not be modified,
     19            copied or distributed unless embedded on a Texas Instruments microcontroller
     20            or used solely and exclusively in conjunction with a Texas Instruments radio
     21            frequency transceiver, which is integrated into your product.  Other than for
     22            the foregoing purpose, you may not use, reproduce, copy, prepare derivative
     23            works of, modify, distribute, perform, display or sell this Software and/or
     24            its documentation for any purpose.
     25          
     26            YOU FURTHER ACKNOWLEDGE AND AGREE THAT THE SOFTWARE AND DOCUMENTATION ARE
     27            PROVIDED “AS IS” WITHOUT WARRANTY OF ANY KIND, EITHER EXPRESS OR IMPLIED,
     28            INCLUDING WITHOUT LIMITATION, ANY WARRANTY OF MERCHANTABILITY, TITLE,
     29            NON-INFRINGEMENT AND FITNESS FOR A PARTICULAR PURPOSE. IN NO EVENT SHALL
     30            TEXAS INSTRUMENTS OR ITS LICENSORS BE LIABLE OR OBLIGATED UNDER CONTRACT,
     31            NEGLIGENCE, STRICT LIABILITY, CONTRIBUTION, BREACH OF WARRANTY, OR OTHER
     32            LEGAL EQUITABLE THEORY ANY DIRECT OR INDIRECT DAMAGES OR EXPENSES
     33            INCLUDING BUT NOT LIMITED TO ANY INCIDENTAL, SPECIAL, INDIRECT, PUNITIVE
     34            OR CONSEQUENTIAL DAMAGES, LOST PROFITS OR LOST DATA, COST OF PROCUREMENT
     35            OF SUBSTITUTE GOODS, TECHNOLOGY, SERVICES, OR ANY CLAIMS BY THIRD PARTIES
     36            (INCLUDING BUT NOT LIMITED TO ANY DEFENSE THEREOF), OR OTHER SIMILAR COSTS.
     37          
     38            Should you have any questions regarding your right to use this Software,
     39            contact Texas Instruments Incorporated at www.TI.com.
     40          **************************************************************************************************/
     41          
     42          /*********************************************************************
     43           * INCLUDES
     44           */
     45          
     46          #include "ZComDef.h"
     47          #include "ZGlobals.h"
     48          #include "OnBoard.h"

   \                                 In  segment SFR_AN, at 0x9d
   \   unsigned char volatile __sfr SLEEPSTA
   \                     SLEEPSTA:
   \   000000                DS 1

   \                                 In  segment SFR_AN, at 0xa8
   \   union <unnamed> volatile __sfr _A_IEN0
   \                     _A_IEN0:
   \   000000                DS 1

   \                                 In  segment SFR_AN, at 0xd6
   \   unsigned char volatile __sfr DMAARM
   \                     DMAARM:
   \   000000                DS 1
     49          #include "OSAL.h"
     50          #include "MT.h"
     51          #include "MT_SYS.h"
     52          #include "DebugTrace.h"
     53          
     54          /* Hal */
     55          #include "hal_lcd.h"
     56          #include "hal_mcu.h"
     57          #include "hal_timer.h"
     58          #include "hal_key.h"
     59          #include "hal_led.h"
     60          
     61          /* Allow access macRandomByte() */
     62          #include "mac_radio_defs.h"
     63          
     64          /*********************************************************************
     65           * CONSTANTS
     66           */
     67          
     68          // Task ID not initialized
     69          #define NO_TASK_ID 0xFF
     70          
     71          // Minimum length RAM "pattern" for Stack check
     72          #define MIN_RAM_INIT 12
     73          
     74          /*********************************************************************
     75           * GLOBAL VARIABLES
     76           */
     77          
     78          #if defined MAKE_CRC_SHDW
     79          #pragma location="CRC_SHDW"
     80          const CODE uint16 _crcShdw = 0xFFFF;
     81          #pragma required=_crcShdw
     82          
     83          #else  // if !defined MAKE_CRC_SHDW
     84          
     85          #pragma location="LOCK_BITS_ADDRESS_SPACE"

   \                                 In  segment LOCK_BITS_ADDRESS_SPACE, align 1
     86          __no_init uint8 _lockBits[16];
   \                     _lockBits:
   \   000000                DS 16
     87          #pragma required=_lockBits
     88          
     89          #if defined ZCL_KEY_ESTABLISH
     90          #include "zcl_cert_data.c"
     91          #else
     92          #pragma location="IEEE_ADDRESS_SPACE"

   \                                 In  segment IEEE_ADDRESS_SPACE, align 1
     93          __no_init uint8 _nvIEEE[Z_EXTADDR_LEN];
   \                     _nvIEEE:
   \   000000                DS 8
   \   000008                REQUIRE _lockBits
     94          #pragma required=_nvIEEE
     95          #endif
     96          
     97          #pragma location="RESERVED_ADDRESS_SPACE"

   \                                 In  segment RESERVED_ADDRESS_SPACE, align 1
     98          __no_init uint8 _reserved[1932];
   \                     _reserved:
   \   000000                DS 1932
   \   00078C                REQUIRE _nvIEEE
     99          #pragma required=_reserved
    100          #endif
    101          
    102          // 64-bit Extended Address of this device

   \                                 In  segment XDATA_Z, align 1, keep-with-next
    103          uint8 aExtendedAddress[8];
   \                     aExtendedAddress:
   \   000000                DS 8
   \   000008                REQUIRE __INIT_XDATA_Z
   \   000008                REQUIRE _reserved
    104          
    105          /*********************************************************************
    106           * LOCAL VARIABLES
    107           */
    108          
    109          // Registered keys task ID, initialized to NOT USED.

   \                                 In  segment XDATA_I, align 1, keep-with-next
    110          static uint8 registeredKeysTaskID = NO_TASK_ID;
   \                     registeredKeysTaskID:
   \   000000                DS 1
   \   000001                REQUIRE `?<Initializer for registeredKeysTaskID>`
   \   000001                REQUIRE __INIT_XDATA_I
    111          
    112          /*********************************************************************
    113           * LOCAL FUNCTIONS
    114           */
    115          
    116          static void ChkReset( void );
    117          
    118          /*********************************************************************
    119           * @fn      InitBoard()
    120           * @brief   Initialize the CC2420DB Board Peripherals
    121           * @param   level: COLD,WARM,READY
    122           * @return  None
    123           */

   \                                 In  segment BANKED_CODE, align 1, keep-with-next
    124          void InitBoard( uint8 level )
   \                     InitBoard:
    125          {
   \   000000   74F7         MOV     A,#-0x9
   \   000002   12....       LCALL   ?BANKED_ENTER_XDATA
   \   000005                ; Saved register size: 9
   \   000005                ; Auto size: 0
   \   000005   E9           MOV     A,R1
   \   000006   FE           MOV     R6,A
    126            if ( level == OB_COLD )
   \   000007   7011         JNZ     ??InitBoard_0
    127            {
    128              // IAR does not zero-out this byte below the XSTACK.
    129              *(uint8 *)0x0 = 0;
   \   000009   900000       MOV     DPTR,#0x0
   \   00000C   7400         MOV     A,#0x0
   \   00000E   F0           MOVX    @DPTR,A
    130              // Interrupts off
    131              osal_int_disable( INTS_ALL );
   \   00000F                ; Setup parameters for call to function osal_int_disable
   \   00000F   79FF         MOV     R1,#-0x1
   \   000011   12....       LCALL   ??osal_int_disable?relay
   \   000014   E9           MOV     A,R1
    132              // Check for Brown-Out reset
    133              ChkReset();
   \   000015                ; Setup parameters for call to function ChkReset
   \   000015   12....       LCALL   ??ChkReset?relay
   \   000018   8009         SJMP    ??InitBoard_1
    134            }
    135            else  // !OB_COLD
    136            {
    137              /* Initialize Key stuff */
    138              HalKeyConfig(HAL_KEY_INTERRUPT_DISABLE, OnBoard_KeyCallback);
   \                     ??InitBoard_0:
   \   00001A                ; Setup parameters for call to function HalKeyConfig
   \   00001A   7A..         MOV     R2,#??OnBoard_KeyCallback?relay & 0xff
   \   00001C   7B..         MOV     R3,#(??OnBoard_KeyCallback?relay >> 8) & 0xff
   \   00001E   7900         MOV     R1,#0x0
   \   000020   12....       LCALL   ??HalKeyConfig?relay
    139            }
    140          }
   \                     ??InitBoard_1:
   \   000023   7F01         MOV     R7,#0x1
   \   000025   02....       LJMP    ?BANKED_LEAVE_XDATA
    141          
    142          /*********************************************************************
    143           * @fn      ChkReset()
    144           * @brief   Check reset bits - if reset cause is unknown, assume a
    145           *          brown-out (low power), assume batteries are not reliable,
    146           *          hang in a loop and sequence through the LEDs.
    147           * @param   None
    148           * @return  None
    149           *********************************************************************/

   \                                 In  segment BANKED_CODE, align 1, keep-with-next
    150          void ChkReset( void )
   \                     ChkReset:
    151          {
   \   000000   74F7         MOV     A,#-0x9
   \   000002   12....       LCALL   ?BANKED_ENTER_XDATA
   \   000005                ; Saved register size: 9
   \   000005                ; Auto size: 0
    152            uint8 rib;
    153          
    154            // Isolate reset indicator bits
    155            rib = SLEEPSTA & LRESET;
   \   000005   E59D         MOV     A,0x9d
   \   000007   5418         ANL     A,#0x18
   \   000009   FE           MOV     R6,A
    156          
    157            if ( rib == RESETPO )
   \   00000A   EE           MOV     A,R6
   \   00000B   600D         JZ      ??ChkReset_0
    158            {
    159              // Put code here to handle Power-On reset
    160            }
    161            else if ( rib == RESETEX )
   \   00000D   7408         MOV     A,#0x8
   \   00000F   6E           XRL     A,R6
   \   000010   6008         JZ      ??ChkReset_0
    162            {
    163              // Put code here to handle External reset
    164            }
    165            else if ( rib == RESETWD )
   \   000012   7410         MOV     A,#0x10
   \   000014   6E           XRL     A,R6
   \   000015   6003         JZ      ??ChkReset_0
    166            {
    167              // Put code here to handle WatchDog reset
    168            }
    169            else  // Unknown reason - not expected.
    170            {
    171              HAL_ASSERT(0);
   \   000017                ; Setup parameters for call to function halAssertHandler
   \   000017   12....       LCALL   ??halAssertHandler?relay
    172            }
    173          }
   \                     ??ChkReset_0:
   \   00001A   7F01         MOV     R7,#0x1
   \   00001C   02....       LJMP    ?BANKED_LEAVE_XDATA
   \   00001F                REQUIRE SLEEPSTA
    174          
    175          /*********************************************************************
    176           *                        "Keyboard" Support
    177           *********************************************************************/
    178          
    179          /*********************************************************************
    180           * Keyboard Register function
    181           *
    182           * The keyboard handler is setup to send all keyboard changes to
    183           * one task (if a task is registered).
    184           *
    185           * If a task registers, it will get all the keys. You can change this
    186           * to register for individual keys.
    187           *********************************************************************/

   \                                 In  segment BANKED_CODE, align 1, keep-with-next
    188          uint8 RegisterForKeys( uint8 task_id )
   \                     RegisterForKeys:
    189          {
   \   000000   C082         PUSH    DPL
   \   000002   C083         PUSH    DPH
   \   000004                ; Saved register size: 2
   \   000004                ; Auto size: 0
   \   000004   E9           MOV     A,R1
   \   000005   F8           MOV     R0,A
    190            // Allow only the first task
    191            if ( registeredKeysTaskID == NO_TASK_ID )
   \   000006   90....       MOV     DPTR,#registeredKeysTaskID
   \   000009   E0           MOVX    A,@DPTR
   \   00000A   64FF         XRL     A,#0xff
   \   00000C   7009         JNZ     ??RegisterForKeys_0
    192            {
    193              registeredKeysTaskID = task_id;
   \   00000E   E8           MOV     A,R0
   \   00000F   90....       MOV     DPTR,#registeredKeysTaskID
   \   000012   F0           MOVX    @DPTR,A
    194              return ( true );
   \   000013   7901         MOV     R1,#0x1
   \   000015   8002         SJMP    ??RegisterForKeys_1
    195            }
    196            else
    197              return ( false );
   \                     ??RegisterForKeys_0:
   \   000017   7900         MOV     R1,#0x0
   \                     ??RegisterForKeys_1:
   \   000019   D083         POP     DPH
   \   00001B   D082         POP     DPL
   \   00001D   02....       LJMP    ?BRET
    198          }
    199          
    200          /*********************************************************************
    201           * @fn      OnBoard_SendKeys
    202           *
    203           * @brief   Send "Key Pressed" message to application.
    204           *
    205           * @param   keys  - keys that were pressed
    206           *          state - shifted
    207           *
    208           * @return  status
    209           *********************************************************************/

   \                                 In  segment BANKED_CODE, align 1, keep-with-next
    210          uint8 OnBoard_SendKeys( uint8 keys, uint8 state )
   \                     OnBoard_SendKeys:
    211          {
   \   000000   74F4         MOV     A,#-0xc
   \   000002   12....       LCALL   ?BANKED_ENTER_XDATA
   \   000005                ; Saved register size: 12
   \   000005                ; Auto size: 0
   \   000005   89..         MOV     ?V0 + 0,R1
   \   000007   8A..         MOV     ?V0 + 1,R2
    212            keyChange_t *msgPtr;
    213          
    214            if ( registeredKeysTaskID != NO_TASK_ID )
   \   000009   90....       MOV     DPTR,#registeredKeysTaskID
   \   00000C   E0           MOVX    A,@DPTR
   \   00000D   64FF         XRL     A,#0xff
   \   00000F   6042         JZ      ??OnBoard_SendKeys_0
    215            {
    216              // Send the address to the task
    217              msgPtr = (keyChange_t *)osal_msg_allocate( sizeof(keyChange_t) );
   \   000011                ; Setup parameters for call to function osal_msg_allocate
   \   000011   7A04         MOV     R2,#0x4
   \   000013   7B00         MOV     R3,#0x0
   \   000015   12....       LCALL   ??osal_msg_allocate?relay
   \   000018   8A..         MOV     ?V0 + 2,R2
   \   00001A   8B..         MOV     ?V0 + 3,R3
   \   00001C   AE..         MOV     R6,?V0 + 2
   \   00001E   AF..         MOV     R7,?V0 + 3
    218              if ( msgPtr )
   \   000020   EE           MOV     A,R6
   \   000021   4F           ORL     A,R7
   \   000022   602B         JZ      ??OnBoard_SendKeys_1
    219              {
    220                msgPtr->hdr.event = KEY_CHANGE;
   \   000024   8E82         MOV     DPL,R6
   \   000026   8F83         MOV     DPH,R7
   \   000028   74C0         MOV     A,#-0x40
   \   00002A   F0           MOVX    @DPTR,A
    221                msgPtr->state = state;
   \   00002B   E5..         MOV     A,?V0 + 1
   \   00002D   8E82         MOV     DPL,R6
   \   00002F   8F83         MOV     DPH,R7
   \   000031   A3           INC     DPTR
   \   000032   A3           INC     DPTR
   \   000033   E5..         MOV     A,?V0 + 1
   \   000035   F0           MOVX    @DPTR,A
    222                msgPtr->keys = keys;
   \   000036   E5..         MOV     A,?V0 + 0
   \   000038   8E82         MOV     DPL,R6
   \   00003A   8F83         MOV     DPH,R7
   \   00003C   A3           INC     DPTR
   \   00003D   A3           INC     DPTR
   \   00003E   A3           INC     DPTR
   \   00003F   E5..         MOV     A,?V0 + 0
   \   000041   F0           MOVX    @DPTR,A
    223          
    224                osal_msg_send( registeredKeysTaskID, (uint8 *)msgPtr );
   \   000042                ; Setup parameters for call to function osal_msg_send
   \   000042   EE           MOV     A,R6
   \   000043   FA           MOV     R2,A
   \   000044   EF           MOV     A,R7
   \   000045   FB           MOV     R3,A
   \   000046   90....       MOV     DPTR,#registeredKeysTaskID
   \   000049   E0           MOVX    A,@DPTR
   \   00004A   F9           MOV     R1,A
   \   00004B   12....       LCALL   ??osal_msg_send?relay
   \   00004E   E9           MOV     A,R1
    225              }
    226              return ( ZSuccess );
   \                     ??OnBoard_SendKeys_1:
   \   00004F   7900         MOV     R1,#0x0
   \   000051   8002         SJMP    ??OnBoard_SendKeys_2
    227            }
    228            else
    229              return ( ZFailure );
   \                     ??OnBoard_SendKeys_0:
   \   000053   7901         MOV     R1,#0x1
   \                     ??OnBoard_SendKeys_2:
   \   000055   7F04         MOV     R7,#0x4
   \   000057   02....       LJMP    ?BANKED_LEAVE_XDATA
    230          }
    231          
    232          /*********************************************************************
    233           * @fn      OnBoard_KeyCallback
    234           *
    235           * @brief   Callback service for keys
    236           *
    237           * @param   keys  - keys that were pressed
    238           *          state - shifted
    239           *
    240           * @return  void
    241           *********************************************************************/

   \                                 In  segment BANKED_CODE, align 1, keep-with-next
    242          void OnBoard_KeyCallback ( uint8 keys, uint8 state )
   \                     OnBoard_KeyCallback:
    243          {
   \   000000   74F7         MOV     A,#-0x9
   \   000002   12....       LCALL   ?BANKED_ENTER_XDATA
   \   000005                ; Saved register size: 9
   \   000005                ; Auto size: 0
   \   000005   E9           MOV     A,R1
   \   000006   FF           MOV     R7,A
   \   000007   8A..         MOV     ?V0 + 0,R2
    244            uint8 shift;
    245            (void)state;
    246          
    247            shift = (keys & HAL_KEY_SW_6) ? true : false;
   \   000009   EF           MOV     A,R7
   \   00000A   A2E5         MOV     C,0xE0 /* A   */.5
   \   00000C   5004         JNC     ??OnBoard_KeyCallback_0
   \   00000E   D2F0         SETB    B.0
   \   000010   8002         SJMP    ??OnBoard_KeyCallback_1
   \                     ??OnBoard_KeyCallback_0:
   \   000012   C2F0         CLR     B.0
   \                     ??OnBoard_KeyCallback_1:
   \   000014   A2F0         MOV     C,B.0
   \   000016   E4           CLR     A
   \   000017   33           RLC     A
   \   000018   FE           MOV     R6,A
    248          
    249            if ( OnBoard_SendKeys( keys, shift ) != ZSuccess )
   \   000019                ; Setup parameters for call to function OnBoard_SendKeys
   \   000019   FA           MOV     R2,A
   \   00001A   EF           MOV     A,R7
   \   00001B   F9           MOV     R1,A
   \   00001C   12....       LCALL   ??OnBoard_SendKeys?relay
   \   00001F   E9           MOV     A,R1
    250            {
    251              // Process SW1 here
    252              if ( keys & HAL_KEY_SW_1 )  // Switch 1
    253              {
    254              }
    255              // Process SW2 here
    256              if ( keys & HAL_KEY_SW_2 )  // Switch 2
    257              {
    258              }
    259              // Process SW3 here
    260              if ( keys & HAL_KEY_SW_3 )  // Switch 3
    261              {
    262              }
    263              // Process SW4 here
    264              if ( keys & HAL_KEY_SW_4 )  // Switch 4
    265              {
    266              }
    267              // Process SW5 here
    268              if ( keys & HAL_KEY_SW_5 )  // Switch 5
    269              {
    270              }
    271              // Process SW6 here
    272              if ( keys & HAL_KEY_SW_6 )  // Switch 6
    273              {
    274              }
    275            }
    276          }
   \   000020   7F01         MOV     R7,#0x1
   \   000022   02....       LJMP    ?BANKED_LEAVE_XDATA
    277          
    278          /*********************************************************************
    279           * @fn      OnBoard_stack_used
    280           *
    281           * @brief   Runs through the stack looking for touched memory.
    282           *
    283           * @param   none
    284           *
    285           * @return  Maximum number of bytes used by the stack.
    286           *********************************************************************/

   \                                 In  segment BANKED_CODE, align 1, keep-with-next
    287          uint16 OnBoard_stack_used(void)
   \                     OnBoard_stack_used:
    288          {
   \   000000   C082         PUSH    DPL
   \   000002   C083         PUSH    DPH
   \   000004                ; Saved register size: 2
   \   000004                ; Auto size: 0
    289            uint8 const *ptr;
    290            uint8 cnt = 0;
   \   000004   7C00         MOV     R4,#0x0
    291          
    292            for (ptr = CSTACK_END; ptr > CSTACK_BEG; ptr--)
   \   000006   7582..       MOV     DPL,#(SFE(XSTACK) + 255) & 0xff
   \   000009   7583..       MOV     DPH,#((SFE(XSTACK) - 1) >> 8) & 0xff
   \                     ??OnBoard_stack_used_0:
   \   00000C   C3           CLR     C
   \   00000D   74..         MOV     A,#SFB(XSTACK) & 0xff
   \   00000F   9582         SUBB    A,DPL
   \   000011   74..         MOV     A,#(SFB(XSTACK) >> 8) & 0xff
   \   000013   9583         SUBB    A,DPH
   \   000015   502F         JNC     ??OnBoard_stack_used_1
    293            {
    294              if (STACK_INIT_VALUE == *ptr)
   \   000017   E0           MOVX    A,@DPTR
   \   000018   64CD         XRL     A,#0xcd
   \   00001A   701A         JNZ     ??OnBoard_stack_used_2
    295              {
    296                if (++cnt >= MIN_RAM_INIT)
   \   00001C   7401         MOV     A,#0x1
   \   00001E   2C           ADD     A,R4
   \   00001F   F8           MOV     R0,A
   \   000020   E8           MOV     A,R0
   \   000021   FC           MOV     R4,A
   \   000022   E8           MOV     A,R0
   \   000023   C3           CLR     C
   \   000024   940C         SUBB    A,#0xc
   \   000026   4010         JC      ??OnBoard_stack_used_3
    297                {
    298                  ptr += MIN_RAM_INIT;
   \   000028   E582         MOV     A,DPL
   \   00002A   240C         ADD     A,#0xc
   \   00002C   F582         MOV     DPL,A
   \   00002E   E583         MOV     A,DPH
   \   000030   3400         ADDC    A,#0x0
   \   000032   F583         MOV     DPH,A
    299                  break;
   \   000034   8010         SJMP    ??OnBoard_stack_used_1
    300                }
    301              }
    302              else
    303              {
    304                cnt = 0;
   \                     ??OnBoard_stack_used_2:
   \   000036   7C00         MOV     R4,#0x0
    305              }
    306            }
   \                     ??OnBoard_stack_used_3:
   \   000038   E582         MOV     A,DPL
   \   00003A   24FF         ADD     A,#-0x1
   \   00003C   F582         MOV     DPL,A
   \   00003E   E583         MOV     A,DPH
   \   000040   34FF         ADDC    A,#-0x1
   \   000042   F583         MOV     DPH,A
   \   000044   80C6         SJMP    ??OnBoard_stack_used_0
    307          
    308            return (uint16)(CSTACK_END - ptr + 1);
   \                     ??OnBoard_stack_used_1:
   \   000046   74..         MOV     A,#(SFE(XSTACK) + 255) & 0xff
   \   000048   C3           CLR     C
   \   000049   9582         SUBB    A,DPL
   \   00004B   F8           MOV     R0,A
   \   00004C   74..         MOV     A,#((SFE(XSTACK) - 1) >> 8) & 0xff
   \   00004E   9583         SUBB    A,DPH
   \   000050   F9           MOV     R1,A
   \   000051   E8           MOV     A,R0
   \   000052   2401         ADD     A,#0x1
   \   000054   FA           MOV     R2,A
   \   000055   E9           MOV     A,R1
   \   000056   3400         ADDC    A,#0x0
   \   000058   FB           MOV     R3,A
   \   000059   D083         POP     DPH
   \   00005B   D082         POP     DPL
   \   00005D   02....       LJMP    ?BRET
    309          }
    310          
    311          /*********************************************************************
    312           * @fn      _itoa
    313           *
    314           * @brief   convert a 16bit number to ASCII
    315           *
    316           * @param   num -
    317           *          buf -
    318           *          radix -
    319           *
    320           * @return  void
    321           *
    322           *********************************************************************/

   \                                 In  segment BANKED_CODE, align 1, keep-with-next
    323          void _itoa(uint16 num, uint8 *buf, uint8 radix)
   \                     _itoa:
    324          {
   \   000000   74F1         MOV     A,#-0xf
   \   000002   12....       LCALL   ?BANKED_ENTER_XDATA
   \   000005                ; Saved register size: 15
   \   000005                ; Auto size: 5
   \   000005   74FB         MOV     A,#-0x5
   \   000007   12....       LCALL   ?ALLOC_XSTACK8
   \   00000A   EA           MOV     A,R2
   \   00000B   FE           MOV     R6,A
   \   00000C   EB           MOV     A,R3
   \   00000D   FF           MOV     R7,A
   \   00000E   89..         MOV     ?V0 + 4,R1
    325            char c,i;
    326            uint8 *p, rst[5];
    327          
    328            p = rst;
   \   000010   85..82       MOV     DPL,?XSP + 0
   \   000013   85..83       MOV     DPH,?XSP + 1
   \   000016   8582..       MOV     ?V0 + 0,DPL
   \   000019   8583..       MOV     ?V0 + 1,DPH
    329            for ( i=0; i<5; i++,p++ )
   \   00001C   75..00       MOV     ?V0 + 6,#0x0
   \                     ??_itoa_0:
   \   00001F   E5..         MOV     A,?V0 + 6
   \   000021   C3           CLR     C
   \   000022   9405         SUBB    A,#0x5
   \   000024   505D         JNC     ??_itoa_1
    330            {
    331              c = num % radix;  // Isolate a digit
   \   000026   EE           MOV     A,R6
   \   000027   F8           MOV     R0,A
   \   000028   EF           MOV     A,R7
   \   000029   F9           MOV     R1,A
   \   00002A   85....       MOV     ?V0 + 2,?V0 + 4
   \   00002D   75..00       MOV     ?V0 + 3,#0x0
   \   000030   AA..         MOV     R2,?V0 + 2
   \   000032   AB..         MOV     R3,?V0 + 3
   \   000034   12....       LCALL   ?US_DIV_MOD
   \   000037   EA           MOV     A,R2
   \   000038   F5..         MOV     ?V0 + 5,A
    332              *p = c + (( c < 10 ) ? '0' : '7');  // Convert to Ascii
   \   00003A   E5..         MOV     A,?V0 + 5
   \   00003C   C3           CLR     C
   \   00003D   940A         SUBB    A,#0xa
   \   00003F   5006         JNC     ??_itoa_2
   \   000041   7830         MOV     R0,#0x30
   \   000043   7900         MOV     R1,#0x0
   \   000045   8004         SJMP    ??_itoa_3
   \                     ??_itoa_2:
   \   000047   7837         MOV     R0,#0x37
   \   000049   7900         MOV     R1,#0x0
   \                     ??_itoa_3:
   \   00004B   E8           MOV     A,R0
   \   00004C   25..         ADD     A,?V0 + 5
   \   00004E   85..82       MOV     DPL,?V0 + 0
   \   000051   85..83       MOV     DPH,?V0 + 1
   \   000054   F0           MOVX    @DPTR,A
    333              num /= radix;
   \   000055   EE           MOV     A,R6
   \   000056   F8           MOV     R0,A
   \   000057   EF           MOV     A,R7
   \   000058   F9           MOV     R1,A
   \   000059   85....       MOV     ?V0 + 2,?V0 + 4
   \   00005C   75..00       MOV     ?V0 + 3,#0x0
   \   00005F   AA..         MOV     R2,?V0 + 2
   \   000061   AB..         MOV     R3,?V0 + 3
   \   000063   12....       LCALL   ?US_DIV_MOD
   \   000066   88..         MOV     ?V0 + 2,R0
   \   000068   89..         MOV     ?V0 + 3,R1
   \   00006A   AE..         MOV     R6,?V0 + 2
   \   00006C   AF..         MOV     R7,?V0 + 3
    334              if ( !num )
   \   00006E   EE           MOV     A,R6
   \   00006F   4F           ORL     A,R7
   \   000070   6011         JZ      ??_itoa_1
    335                break;
    336            }
   \   000072   05..         INC     ?V0 + 6
   \   000074   85..82       MOV     DPL,?V0 + 0
   \   000077   85..83       MOV     DPH,?V0 + 1
   \   00007A   A3           INC     DPTR
   \   00007B   8582..       MOV     ?V0 + 0,DPL
   \   00007E   8583..       MOV     ?V0 + 1,DPH
   \   000081   809C         SJMP    ??_itoa_0
    337          
    338            for ( c=0 ; c<=i; c++ )
   \                     ??_itoa_1:
   \   000083   75..00       MOV     ?V0 + 5,#0x0
   \                     ??_itoa_4:
   \   000086   E5..         MOV     A,?V0 + 6
   \   000088   C3           CLR     C
   \   000089   95..         SUBB    A,?V0 + 5
   \   00008B   4025         JC      ??_itoa_5
    339              *buf++ = *p--;  // Reverse character order
   \   00008D   85..82       MOV     DPL,?V0 + 0
   \   000090   85..83       MOV     DPH,?V0 + 1
   \   000093   E0           MOVX    A,@DPTR
   \   000094   8C82         MOV     DPL,R4
   \   000096   8D83         MOV     DPH,R5
   \   000098   F0           MOVX    @DPTR,A
   \   000099   E5..         MOV     A,?V0 + 0
   \   00009B   24FF         ADD     A,#-0x1
   \   00009D   F5..         MOV     ?V0 + 0,A
   \   00009F   E5..         MOV     A,?V0 + 1
   \   0000A1   34FF         ADDC    A,#-0x1
   \   0000A3   F5..         MOV     ?V0 + 1,A
   \   0000A5   8C82         MOV     DPL,R4
   \   0000A7   8D83         MOV     DPH,R5
   \   0000A9   A3           INC     DPTR
   \   0000AA   AC82         MOV     R4,DPL
   \   0000AC   AD83         MOV     R5,DPH
   \   0000AE   05..         INC     ?V0 + 5
   \   0000B0   80D4         SJMP    ??_itoa_4
    340          
    341            *buf = '\0';
   \                     ??_itoa_5:
   \   0000B2   8C82         MOV     DPL,R4
   \   0000B4   8D83         MOV     DPH,R5
   \   0000B6   7400         MOV     A,#0x0
   \   0000B8   F0           MOVX    @DPTR,A
    342          }
   \   0000B9   7405         MOV     A,#0x5
   \   0000BB   12....       LCALL   ?DEALLOC_XSTACK8
   \   0000BE   7F07         MOV     R7,#0x7
   \   0000C0   02....       LJMP    ?BANKED_LEAVE_XDATA
    343          
    344          /*********************************************************************
    345           * @fn        Onboard_rand
    346           *
    347           * @brief    Random number generator
    348           *
    349           * @param   none
    350           *
    351           * @return  uint16 - new random number
    352           *
    353           *********************************************************************/

   \                                 In  segment BANKED_CODE, align 1, keep-with-next
    354          uint16 Onboard_rand( void )
   \                     Onboard_rand:
    355          {
   \   000000   C082         PUSH    DPL
   \   000002   C083         PUSH    DPH
   \   000004                ; Saved register size: 2
   \   000004                ; Auto size: 0
    356            return ( MAC_RADIO_RANDOM_WORD() );
   \   000004                ; Setup parameters for call to function macMcuRandomWord
   \   000004   12....       LCALL   ??macMcuRandomWord?relay
   \   000007   D083         POP     DPH
   \   000009   D082         POP     DPL
   \   00000B   02....       LJMP    ?BRET
    357          }
    358          
    359          /*********************************************************************
    360           * @fn        Onboard_wait
    361           *
    362           * @brief    Delay wait
    363           *
    364           * @param   uint16 - time to wait
    365           *
    366           * @return  none
    367           *
    368           *********************************************************************/

   \                                 In  segment BANKED_CODE, align 1, keep-with-next
    369          void Onboard_wait( uint16 timeout )
   \                     Onboard_wait:
    370          {
   \   000000                ; Saved register size: 0
   \   000000                ; Auto size: 0
    371            while (timeout--)
   \                     ??Onboard_wait_0:
   \   000000   EA           MOV     A,R2
   \   000001   F8           MOV     R0,A
   \   000002   EB           MOV     A,R3
   \   000003   F9           MOV     R1,A
   \   000004   E8           MOV     A,R0
   \   000005   24FF         ADD     A,#-0x1
   \   000007   FA           MOV     R2,A
   \   000008   E9           MOV     A,R1
   \   000009   34FF         ADDC    A,#-0x1
   \   00000B   FB           MOV     R3,A
   \   00000C   E8           MOV     A,R0
   \   00000D   49           ORL     A,R1
   \   00000E   6005         JZ      ??Onboard_wait_1
    372            {
    373              asm("NOP");
   \   000010   00           NOP
    374              asm("NOP");
   \   000011   00           NOP
    375              asm("NOP");
   \   000012   00           NOP
   \   000013   80EB         SJMP    ??Onboard_wait_0
    376            }
    377          }
   \                     ??Onboard_wait_1:
   \   000015   02....       LJMP    ?BRET
    378          
    379          /*********************************************************************
    380           * @fn      Onboard_soft_reset
    381           *
    382           * @brief   Effect a soft reset.
    383           *
    384           * @param   none
    385           *
    386           * @return  none
    387           *
    388           *********************************************************************/

   \                                 In  segment NEAR_CODE, align 1, keep-with-next
    389          __near_func void Onboard_soft_reset( void )
   \                     Onboard_soft_reset:
    390          {
   \   000000                ; Saved register size: 0
   \   000000                ; Auto size: 0
    391            HAL_DISABLE_INTERRUPTS();
   \   000000   C2AF         CLR     0xa8.7
    392            // Abort all DMA channels to insure that ongoing operations do not
    393            // interfere with re-configuration.
    394            DMAARM = 0x80 | 0x1F;
   \   000002   75D69F       MOV     0xd6,#-0x61
    395            asm("LJMP 0x0");
   \   000005   020000       LJMP 0x0
    396          }
   \   000008   22           RET
   \   000009                REQUIRE _A_IEN0
   \   000009                REQUIRE DMAARM
    397          
    398          /*********************************************************************
    399           *                    EXTERNAL I/O FUNCTIONS
    400           *
    401           * User defined functions to control external devices. Add your code
    402           * to the following functions to control devices wired to DB outputs.
    403           *
    404           *********************************************************************/
    405          

   \                                 In  segment BANKED_CODE, align 1, keep-with-next
    406          void BigLight_On( void )
   \                     BigLight_On:
    407          {
   \   000000                ; Saved register size: 0
   \   000000                ; Auto size: 0
    408            // Put code here to turn on an external light
    409          }
   \   000000   02....       LJMP    ?BRET
    410          

   \                                 In  segment BANKED_CODE, align 1, keep-with-next
    411          void BigLight_Off( void )
   \                     BigLight_Off:
    412          {
   \   000000                ; Saved register size: 0
   \   000000                ; Auto size: 0
    413            // Put code here to turn off an external light
    414          }
   \   000000   02....       LJMP    ?BRET
    415          

   \                                 In  segment BANKED_CODE, align 1, keep-with-next
    416          void BuzzerControl( uint8 on )
   \                     BuzzerControl:
    417          {
   \   000000                ; Saved register size: 0
   \   000000                ; Auto size: 0
    418            // Put code here to turn a buzzer on/off
    419            (void)on;
    420          }
   \   000000   02....       LJMP    ?BRET
    421          

   \                                 In  segment BANKED_CODE, align 1, keep-with-next
    422          void Dimmer( uint8 lvl )
   \                     Dimmer:
    423          {
   \   000000                ; Saved register size: 0
   \   000000                ; Auto size: 0
    424            // Put code here to control a dimmer
    425            (void)lvl;
    426          }
   \   000000   02....       LJMP    ?BRET
    427          
    428          // No dip switches on this board

   \                                 In  segment BANKED_CODE, align 1, keep-with-next
    429          uint8 GetUserDipSw( void )
   \                     GetUserDipSw:
    430          {
   \   000000                ; Saved register size: 0
   \   000000                ; Auto size: 0
    431            return 0;
   \   000000   7900         MOV     R1,#0x0
   \   000002   02....       LJMP    ?BRET
    432          }

   \                                 In  segment XDATA_ID, align 1, keep-with-next
   \                     `?<Initializer for registeredKeysTaskID>`:
   \   000000   FF           DB 255

   \                                 In  segment BANK_RELAYS, align 1
   \                     ??InitBoard?relay:
   \   000000   12....       LCALL   ?BDISPATCH
   \   000003   ......       DC24    InitBoard

   \                                 In  segment BANK_RELAYS, align 1
   \                     ??ChkReset?relay:
   \   000000   12....       LCALL   ?BDISPATCH
   \   000003   ......       DC24    ChkReset

   \                                 In  segment BANK_RELAYS, align 1
   \                     ??RegisterForKeys?relay:
   \   000000   12....       LCALL   ?BDISPATCH
   \   000003   ......       DC24    RegisterForKeys

   \                                 In  segment BANK_RELAYS, align 1
   \                     ??OnBoard_SendKeys?relay:
   \   000000   12....       LCALL   ?BDISPATCH
   \   000003   ......       DC24    OnBoard_SendKeys

   \                                 In  segment BANK_RELAYS, align 1
   \                     ??OnBoard_KeyCallback?relay:
   \   000000   12....       LCALL   ?BDISPATCH
   \   000003   ......       DC24    OnBoard_KeyCallback

   \                                 In  segment BANK_RELAYS, align 1
   \                     ??OnBoard_stack_used?relay:
   \   000000   12....       LCALL   ?BDISPATCH
   \   000003   ......       DC24    OnBoard_stack_used

   \                                 In  segment BANK_RELAYS, align 1
   \                     ??_itoa?relay:
   \   000000   12....       LCALL   ?BDISPATCH
   \   000003   ......       DC24    _itoa

   \                                 In  segment BANK_RELAYS, align 1
   \                     ??Onboard_rand?relay:
   \   000000   12....       LCALL   ?BDISPATCH
   \   000003   ......       DC24    Onboard_rand

   \                                 In  segment BANK_RELAYS, align 1
   \                     ??Onboard_wait?relay:
   \   000000   12....       LCALL   ?BDISPATCH
   \   000003   ......       DC24    Onboard_wait

   \                                 In  segment BANK_RELAYS, align 1
   \                     ??BigLight_On?relay:
   \   000000   12....       LCALL   ?BDISPATCH
   \   000003   ......       DC24    BigLight_On

   \                                 In  segment BANK_RELAYS, align 1
   \                     ??BigLight_Off?relay:
   \   000000   12....       LCALL   ?BDISPATCH
   \   000003   ......       DC24    BigLight_Off

   \                                 In  segment BANK_RELAYS, align 1
   \                     ??BuzzerControl?relay:
   \   000000   12....       LCALL   ?BDISPATCH
   \   000003   ......       DC24    BuzzerControl

   \                                 In  segment BANK_RELAYS, align 1
   \                     ??Dimmer?relay:
   \   000000   12....       LCALL   ?BDISPATCH
   \   000003   ......       DC24    Dimmer

   \                                 In  segment BANK_RELAYS, align 1
   \                     ??GetUserDipSw?relay:
   \   000000   12....       LCALL   ?BDISPATCH
   \   000003   ......       DC24    GetUserDipSw
    433          
    434          /*********************************************************************
    435          *********************************************************************/

   Maximum stack usage in bytes:

     Function               ISTACK PSTACK XSTACK
     --------               ------ ------ ------
     BigLight_Off               0      0      0
     BigLight_On                0      0      0
     BuzzerControl              0      0      0
     ChkReset                   0      0     18
       -> halAssertHandler      0      0     18
     Dimmer                     0      0      0
     GetUserDipSw               0      0      0
     InitBoard                  0      0      9
       -> osal_int_disable      0      0     18
       -> ChkReset              0      0     18
       -> HalKeyConfig          0      0     18
     OnBoard_KeyCallback        0      0      9
       -> OnBoard_SendKeys      0      0     18
     OnBoard_SendKeys           1      0     21
       -> osal_msg_allocate     0      0     24
       -> osal_msg_send         0      0     24
     OnBoard_stack_used         2      0      0
     Onboard_rand               2      0      0
       -> macMcuRandomWord      4      0      0
     Onboard_soft_reset         0      0      0
     Onboard_wait               0      0      0
     RegisterForKeys            2      0      0
     _itoa                      1      0     20


   Segment part sizes:

     Function/Label                          Bytes
     --------------                          -----
     SLEEPSTA                                   1
     _A_IEN0                                    1
     DMAARM                                     1
     _lockBits                                 16
     _nvIEEE                                    8
     _reserved                               1932
     aExtendedAddress                           8
     registeredKeysTaskID                       1
     InitBoard                                 40
     ChkReset                                  31
     RegisterForKeys                           32
     OnBoard_SendKeys                          90
     OnBoard_KeyCallback                       37
     OnBoard_stack_used                        96
     _itoa                                    195
     Onboard_rand                              14
     Onboard_wait                              24
     Onboard_soft_reset                         9
     BigLight_On                                3
     BigLight_Off                               3
     BuzzerControl                              3
     Dimmer                                     3
     GetUserDipSw                               5
     ?<Initializer for registeredKeysTaskID>    1
     ??InitBoard?relay                          6
     ??ChkReset?relay                           6
     ??RegisterForKeys?relay                    6
     ??OnBoard_SendKeys?relay                   6
     ??OnBoard_KeyCallback?relay                6
     ??OnBoard_stack_used?relay                 6
     ??_itoa?relay                              6
     ??Onboard_rand?relay                       6
     ??Onboard_wait?relay                       6
     ??BigLight_On?relay                        6
     ??BigLight_Off?relay                       6
     ??BuzzerControl?relay                      6
     ??Dimmer?relay                             6
     ??GetUserDipSw?relay                       6

 
   576 bytes in segment BANKED_CODE
    84 bytes in segment BANK_RELAYS
     8 bytes in segment IEEE_ADDRESS_SPACE
    16 bytes in segment LOCK_BITS_ADDRESS_SPACE
     9 bytes in segment NEAR_CODE
 1 932 bytes in segment RESERVED_ADDRESS_SPACE
     3 bytes in segment SFR_AN
     1 byte  in segment XDATA_I
     1 byte  in segment XDATA_ID
     8 bytes in segment XDATA_Z
 
   670 bytes of CODE  memory
     0 bytes of DATA  memory (+ 3 bytes shared)
 1 965 bytes of XDATA memory

Errors: none
Warnings: none
