###############################################################################
#                                                                             #
# IAR C/C++ Compiler V8.10.1.10194/W32 for 8051         14/Jul/2015  13:43:43 #
# Copyright 2004-2011 IAR Systems AB.                                         #
#                                                                             #
#    Core               =  plain                                              #
#    Code model         =  banked                                             #
#    Data model         =  large                                              #
#    Calling convention =  xdata reentrant                                    #
#    Constant location  =  data_rom                                           #
#    Dptr setup         =  1,16                                               #
#    Source file        =  C:\Texas Instruments\ZStack-CC2530-2.5.1a\Componen #
#                          ts\osal\mcu\cc2530\OSAL_Nv.c                       #
#    Command line       =  -f "C:\Texas Instruments\ZStack-CC2530-2.5.1a\Proj #
#                          ects\zstack\Samples\WirelessMonitorSystem\CC2530DB #
#                          \..\..\..\Tools\CC2530DB\f8wEndev.cfg"             #
#                          (-DCPU32MHZ -DROOT=__near_func                     #
#                          -DMAC_CFG_TX_DATA_MAX=3 -DMAC_CFG_TX_MAX=6         #
#                          -DMAC_CFG_RX_MAX=3) -f "C:\Texas                   #
#                          Instruments\ZStack-CC2530-2.5.1a\Projects\zstack\S #
#                          amples\WirelessMonitorSystem\CC2530DB\..\..\..\Too #
#                          ls\CC2530DB\f8wConfig.cfg" (-DZIGBEEPRO            #
#                          -DSECURE=0 -DZG_SECURE_DYNAMIC=0 -DREFLECTOR       #
#                          -DDEFAULT_CHANLIST=0x00000800                      #
#                          -DZDAPP_CONFIG_PAN_ID=0xFFFF                       #
#                          -DNWK_START_DELAY=100 -DEXTENDED_JOINING_RANDOM_MA #
#                          SK=0x007F -DBEACON_REQUEST_DELAY=100               #
#                          -DBEACON_REQ_DELAY_MASK=0x00FF                     #
#                          -DLINK_STATUS_JITTER_MASK=0x007F                   #
#                          -DROUTE_EXPIRY_TIME=30 -DAPSC_ACK_WAIT_DURATION_PO #
#                          LLED=3000 -DNWK_INDIRECT_MSG_TIMEOUT=7             #
#                          -DMAX_RREQ_ENTRIES=8 -DAPSC_MAX_FRAME_RETRIES=3    #
#                          -DNWK_MAX_DATA_RETRIES=2                           #
#                          -DMAX_POLL_FAILURE_RETRIES=2 -DMAX_BCAST=9         #
#                          -DAPS_MAX_GROUPS=16 -DMAX_RTG_ENTRIES=40           #
#                          -DNWK_MAX_BINDING_ENTRIES=4                        #
#                          -DMAX_BINDING_CLUSTER_IDS=4 "-DDEFAULT_KEY={0x01,  #
#                          0x03, 0x05, 0x07, 0x09, 0x0B, 0x0D, 0x0F, 0x00,    #
#                          0x02, 0x04, 0x06, 0x08, 0x0A, 0x0C, 0x0D}"         #
#                          -DMAC_MAX_FRAME_SIZE=116                           #
#                          -DZDNWKMGR_MIN_TRANSMISSIONS=20 "-DCONST=const     #
#                          __code" -DGENERIC=__generic                        #
#                          -DRFD_RCVC_ALWAYS_ON=FALSE -DPOLL_RATE=500         #
#                          -DQUEUED_POLL_RATE=30 -DRESPONSE_POLL_RATE=100)    #
#                          -DREJOIN_POLL_RATE=440 "C:\Texas                   #
#                          Instruments\ZStack-CC2530-2.5.1a\Components\osal\m #
#                          cu\cc2530\OSAL_Nv.c" -D HAL_UART -lC "C:\Texas     #
#                          Instruments\ZStack-CC2530-2.5.1a\Projects\zstack\S #
#                          amples\WirelessMonitorSystem\CC2530DB\LCD\List\"   #
#                          -lA "C:\Texas Instruments\ZStack-CC2530-2.5.1a\Pro #
#                          jects\zstack\Samples\WirelessMonitorSystem\CC2530D #
#                          B\LCD\List\" --diag_suppress Pe001,Pa010 -o        #
#                          "C:\Texas Instruments\ZStack-CC2530-2.5.1a\Project #
#                          s\zstack\Samples\WirelessMonitorSystem\CC2530DB\LC #
#                          D\Obj\" -e --no_cse --no_unroll --no_inline        #
#                          --no_code_motion --no_tbaa --debug --core=plain    #
#                          --dptr=16,1 --data_model=large                     #
#                          --code_model=banked --calling_convention=xdata_ree #
#                          ntrant --place_constants=data_rom                  #
#                          --nr_virtual_regs 16 -I "C:\Texas                  #
#                          Instruments\ZStack-CC2530-2.5.1a\Projects\zstack\S #
#                          amples\WirelessMonitorSystem\CC2530DB\" -I         #
#                          "C:\Texas Instruments\ZStack-CC2530-2.5.1a\Project #
#                          s\zstack\Samples\WirelessMonitorSystem\CC2530DB\.. #
#                          \Source\" -I "C:\Texas Instruments\ZStack-CC2530-2 #
#                          .5.1a\Projects\zstack\Samples\WirelessMonitorSyste #
#                          m\CC2530DB\..\..\..\ZMain\TI2530DB\" -I "C:\Texas  #
#                          Instruments\ZStack-CC2530-2.5.1a\Projects\zstack\S #
#                          amples\WirelessMonitorSystem\CC2530DB\..\..\..\..\ #
#                          ..\Components\hal\include\" -I "C:\Texas           #
#                          Instruments\ZStack-CC2530-2.5.1a\Projects\zstack\S #
#                          amples\WirelessMonitorSystem\CC2530DB\..\..\..\..\ #
#                          ..\Components\hal\target\CC2530EB\" -I "C:\Texas   #
#                          Instruments\ZStack-CC2530-2.5.1a\Projects\zstack\S #
#                          amples\WirelessMonitorSystem\CC2530DB\..\..\..\..\ #
#                          ..\Components\mac\include\" -I "C:\Texas           #
#                          Instruments\ZStack-CC2530-2.5.1a\Projects\zstack\S #
#                          amples\WirelessMonitorSystem\CC2530DB\..\..\..\..\ #
#                          ..\Components\mac\high_level\" -I "C:\Texas        #
#                          Instruments\ZStack-CC2530-2.5.1a\Projects\zstack\S #
#                          amples\WirelessMonitorSystem\CC2530DB\..\..\..\..\ #
#                          ..\Components\mac\low_level\srf04\" -I "C:\Texas   #
#                          Instruments\ZStack-CC2530-2.5.1a\Projects\zstack\S #
#                          amples\WirelessMonitorSystem\CC2530DB\..\..\..\..\ #
#                          ..\Components\mac\low_level\srf04\single_chip\"    #
#                          -I "C:\Texas Instruments\ZStack-CC2530-2.5.1a\Proj #
#                          ects\zstack\Samples\WirelessMonitorSystem\CC2530DB #
#                          \..\..\..\..\..\Components\mt\" -I "C:\Texas       #
#                          Instruments\ZStack-CC2530-2.5.1a\Projects\zstack\S #
#                          amples\WirelessMonitorSystem\CC2530DB\..\..\..\..\ #
#                          ..\Components\osal\include\" -I "C:\Texas          #
#                          Instruments\ZStack-CC2530-2.5.1a\Projects\zstack\S #
#                          amples\WirelessMonitorSystem\CC2530DB\..\..\..\..\ #
#                          ..\Components\services\saddr\" -I "C:\Texas        #
#                          Instruments\ZStack-CC2530-2.5.1a\Projects\zstack\S #
#                          amples\WirelessMonitorSystem\CC2530DB\..\..\..\..\ #
#                          ..\Components\services\sdata\" -I "C:\Texas        #
#                          Instruments\ZStack-CC2530-2.5.1a\Projects\zstack\S #
#                          amples\WirelessMonitorSystem\CC2530DB\..\..\..\..\ #
#                          ..\Components\stack\af\" -I "C:\Texas              #
#                          Instruments\ZStack-CC2530-2.5.1a\Projects\zstack\S #
#                          amples\WirelessMonitorSystem\CC2530DB\..\..\..\..\ #
#                          ..\Components\stack\nwk\" -I "C:\Texas             #
#                          Instruments\ZStack-CC2530-2.5.1a\Projects\zstack\S #
#                          amples\WirelessMonitorSystem\CC2530DB\..\..\..\..\ #
#                          ..\Components\stack\sapi\" -I "C:\Texas            #
#                          Instruments\ZStack-CC2530-2.5.1a\Projects\zstack\S #
#                          amples\WirelessMonitorSystem\CC2530DB\..\..\..\..\ #
#                          ..\Components\stack\sec\" -I "C:\Texas             #
#                          Instruments\ZStack-CC2530-2.5.1a\Projects\zstack\S #
#                          amples\WirelessMonitorSystem\CC2530DB\..\..\..\..\ #
#                          ..\Components\stack\sys\" -I "C:\Texas             #
#                          Instruments\ZStack-CC2530-2.5.1a\Projects\zstack\S #
#                          amples\WirelessMonitorSystem\CC2530DB\..\..\..\..\ #
#                          ..\Components\stack\zdo\" -I "C:\Texas             #
#                          Instruments\ZStack-CC2530-2.5.1a\Projects\zstack\S #
#                          amples\WirelessMonitorSystem\CC2530DB\..\..\..\..\ #
#                          ..\Components\zmac\" -I "C:\Texas                  #
#                          Instruments\ZStack-CC2530-2.5.1a\Projects\zstack\S #
#                          amples\WirelessMonitorSystem\CC2530DB\..\..\..\..\ #
#                          ..\Components\zmac\f8w\" -On --require_prototypes  #
#    List file          =  C:\Texas Instruments\ZStack-CC2530-2.5.1a\Projects #
#                          \zstack\Samples\WirelessMonitorSystem\CC2530DB\LCD #
#                          \List\OSAL_Nv.lst                                  #
#    Object file        =  C:\Texas Instruments\ZStack-CC2530-2.5.1a\Projects #
#                          \zstack\Samples\WirelessMonitorSystem\CC2530DB\LCD #
#                          \Obj\OSAL_Nv.r51                                   #
#                                                                             #
#                                                                             #
###############################################################################

C:\Texas Instruments\ZStack-CC2530-2.5.1a\Components\osal\mcu\cc2530\OSAL_Nv.c
      1          /******************************************************************************
      2            Filename:       OSAL_Nv.c
      3            Revised:        $Date: 2011-06-05 18:52:21 -0700 (Sun, 05 Jun 2011) $
      4            Revision:       $Revision: 26212 $
      5          
      6            Description:    This module contains the OSAL non-volatile memory functions.
      7          
      8          
      9            Copyright 2006-2011 Texas Instruments Incorporated. All rights reserved.
     10          
     11            IMPORTANT: Your use of this Software is limited to those specific rights
     12            granted under the terms of a software license agreement between the user
     13            who downloaded the software, his/her employer (which must be your employer)
     14            and Texas Instruments Incorporated (the "License"). You may not use this
     15            Software unless you agree to abide by the terms of the License. The License
     16            limits your use, and you acknowledge, that the Software may not be modified,
     17            copied or distributed unless embedded on a Texas Instruments microcontroller
     18            or used solely and exclusively in conjunction with a Texas Instruments radio
     19            frequency transceiver, which is integrated into your product. Other than for
     20            the foregoing purpose, you may not use, reproduce, copy, prepare derivative
     21            works of, modify, distribute, perform, display or sell this Software and/or
     22            its documentation for any purpose.
     23          
     24            YOU FURTHER ACKNOWLEDGE AND AGREE THAT THE SOFTWARE AND DOCUMENTATION ARE
     25            PROVIDED “AS IS” WITHOUT WARRANTY OF ANY KIND, EITHER EXPRESS OR IMPLIED,
     26            INCLUDING WITHOUT LIMITATION, ANY WARRANTY OF MERCHANTABILITY, TITLE,
     27            NON-INFRINGEMENT AND FITNESS FOR A PARTICULAR PURPOSE. IN NO EVENT SHALL
     28            TEXAS INSTRUMENTS OR ITS LICENSORS BE LIABLE OR OBLIGATED UNDER CONTRACT,
     29            NEGLIGENCE, STRICT LIABILITY, CONTRIBUTION, BREACH OF WARRANTY, OR OTHER
     30            LEGAL EQUITABLE THEORY ANY DIRECT OR INDIRECT DAMAGES OR EXPENSES
     31            INCLUDING BUT NOT LIMITED TO ANY INCIDENTAL, SPECIAL, INDIRECT, PUNITIVE
     32            OR CONSEQUENTIAL DAMAGES, LOST PROFITS OR LOST DATA, COST OF PROCUREMENT
     33            OF SUBSTITUTE GOODS, TECHNOLOGY, SERVICES, OR ANY CLAIMS BY THIRD PARTIES
     34            (INCLUDING BUT NOT LIMITED TO ANY DEFENSE THEREOF), OR OTHER SIMILAR COSTS.
     35          
     36            Should you have any questions regarding your right to use this Software,
     37            contact Texas Instruments Incorporated at www.TI.com.
     38          ******************************************************************************/
     39          
     40          /******************************************************************************
     41            Notes:
     42              - A trick buried deep in initPage() requires that the MSB of the NV Item Id
     43                is to be reserved for use by this module.
     44          ******************************************************************************/
     45          
     46          /*********************************************************************
     47           * INCLUDES
     48           */
     49          
     50          #include "hal_adc.h"
     51          #include "hal_flash.h"
     52          #include "hal_types.h"
     53          #include "OSAL_Nv.h"
     54          #include "ZComDef.h"
     55          
     56          /*********************************************************************
     57           * CONSTANTS
     58           */
     59          
     60          #define OSAL_NV_PAGE_SIZE       HAL_FLASH_PAGE_SIZE
     61          #define OSAL_NV_PAGES_USED      HAL_NV_PAGE_CNT
     62          #define OSAL_NV_PAGE_BEG        HAL_NV_PAGE_BEG
     63          #define OSAL_NV_PAGE_END       (OSAL_NV_PAGE_BEG + OSAL_NV_PAGES_USED - 1)
     64          
     65          #define OSAL_NV_ACTIVE          0x00
     66          #define OSAL_NV_ERASED          0xFF
     67          #define OSAL_NV_ERASED_ID       0xFFFF
     68          #define OSAL_NV_ZEROED_ID       0x0000
     69          // Reserve MSB of Id to signal a search for the "old" source copy (new write interrupted/failed.)
     70          #define OSAL_NV_SOURCE_ID       0x8000
     71          
     72          // In case pages 0-1 are ever used, define a null page value.
     73          #define OSAL_NV_PAGE_NULL       0
     74          
     75          // In case item Id 0 is ever used, define a null item value.
     76          #define OSAL_NV_ITEM_NULL       0
     77          
     78          #define OSAL_NV_WORD_SIZE       HAL_FLASH_WORD_SIZE
     79          
     80          #define OSAL_NV_PAGE_HDR_OFFSET 0
     81          
     82          #define OSAL_NV_MAX_HOT         3

   \                                 In  segment XDATA_ROM_C, align 1
     83          static const uint16 hotIds[OSAL_NV_MAX_HOT] = {
   \                     hotIds:
   \   000000   8200         DW 130
   \   000002   3A00         DW 58
   \   000004   3B00         DW 59
     84            ZCD_NV_NWKKEY,
     85            ZCD_NV_NWK_ACTIVE_KEY_INFO,
     86            ZCD_NV_NWK_ALTERN_KEY_INFO,
     87          };
     88          
     89          /*********************************************************************
     90           * MACROS
     91           */
     92          
     93          #define OSAL_NV_CHECK_BUS_VOLTAGE  HalAdcCheckVdd(VDD_MIN_NV)
     94          
     95          #define OSAL_NV_DATA_SIZE( LEN )                      \
     96            (((LEN) >= ((uint16)(65536UL - OSAL_NV_WORD_SIZE))) ? \
     97                       ((uint16)(65536UL - OSAL_NV_WORD_SIZE))  : \
     98                       ((((LEN) + OSAL_NV_WORD_SIZE - 1) / OSAL_NV_WORD_SIZE) * OSAL_NV_WORD_SIZE))
     99          
    100          #define OSAL_NV_ITEM_SIZE( LEN )                                         \
    101            (((LEN) >= ((uint16)(65536UL - OSAL_NV_WORD_SIZE - OSAL_NV_HDR_SIZE))) ? \
    102                       ((uint16)(65536UL - OSAL_NV_WORD_SIZE))                     : \
    103            (((((LEN) + OSAL_NV_WORD_SIZE - 1) / OSAL_NV_WORD_SIZE) * OSAL_NV_WORD_SIZE) + OSAL_NV_HDR_SIZE))
    104          
    105          #define COMPACT_PAGE_CLEANUP( COM_PG ) st ( \
    106            /* In order to recover from a page compaction that is interrupted,\
    107             * the logic in osal_nv_init() depends upon the following order:\
    108             * 1. State of the target of compaction is changed to ePgInUse.\
    109             * 2. Compacted page is erased.\
    110             */\
    111            setPageUse( pgRes, TRUE );  /* Mark the reserve page as being in use. */\
    112            erasePage( (COM_PG) ); \
    113            \
    114            pgRes = (COM_PG);           /* Set the reserve page to be the newly erased page. */\
    115          )
    116          
    117          /*********************************************************************
    118           * TYPEDEFS
    119           */
    120          
    121          typedef struct
    122          {
    123            uint16 id;
    124            uint16 len;   // Enforce Flash-WORD size on len.
    125            uint16 chk;   // Byte-wise checksum of the 'len' data bytes of the item.
    126            uint16 stat;  // Item status.
    127          } osalNvHdr_t;
    128          // Struct member offsets.
    129          #define OSAL_NV_HDR_ID    0
    130          #define OSAL_NV_HDR_LEN   2
    131          #define OSAL_NV_HDR_CHK   4
    132          #define OSAL_NV_HDR_STAT  6
    133          
    134          #define OSAL_NV_HDR_ITEM  2  // Length of any item of a header struct.
    135          #define OSAL_NV_HDR_SIZE  8
    136          #define OSAL_NV_HDR_HALF (OSAL_NV_HDR_SIZE / 2)
    137          
    138          typedef struct
    139          {
    140            uint16 active;
    141            uint16 inUse;
    142            uint16 xfer;
    143            uint16 spare;
    144          } osalNvPgHdr_t;
    145          // Struct member offsets.
    146          #define OSAL_NV_PG_ACTIVE 0
    147          #define OSAL_NV_PG_INUSE  2
    148          #define OSAL_NV_PG_XFER   4
    149          #define OSAL_NV_PG_SPARE  6
    150          
    151          #define OSAL_NV_PAGE_HDR_SIZE  8
    152          #define OSAL_NV_PAGE_HDR_HALF (OSAL_NV_PAGE_HDR_SIZE / 2)
    153          
    154          typedef enum
    155          {
    156            eNvXfer,
    157            eNvZero
    158          } eNvHdrEnum;
    159          
    160          typedef enum
    161          {
    162            ePgActive,
    163            ePgInUse,
    164            ePgXfer,
    165            ePgSpare
    166          } ePgHdrEnum;
    167          
    168          /*********************************************************************
    169           * GLOBAL VARIABLES
    170           */
    171          
    172          #ifndef OAD_KEEP_NV_PAGES
    173          // When NV pages are to remain intact during OAD download,
    174          // the image itself should not include NV pages.
    175          #pragma location="ZIGNV_ADDRESS_SPACE"

   \                                 In  segment ZIGNV_ADDRESS_SPACE, align 1
    176          __no_init uint8 _nvBuf[OSAL_NV_PAGES_USED * OSAL_NV_PAGE_SIZE];
   \                     _nvBuf:
   \   000000                DS 12288
    177          #pragma required=_nvBuf
    178          #endif // OAD_KEEP_NV_PAGES
    179          
    180          /*********************************************************************
    181           * LOCAL VARIABLES
    182           */
    183          
    184          // Offset into the page of the first available erased space.

   \                                 In  segment XDATA_Z, align 1, keep-with-next
    185          static uint16 pgOff[OSAL_NV_PAGES_USED];
   \                     pgOff:
   \   000000                DS 12
   \   00000C                REQUIRE __INIT_XDATA_Z
   \   00000C                REQUIRE _nvBuf
    186          
    187          // Count of the bytes lost for the zeroed-out items.

   \                                 In  segment XDATA_Z, align 1, keep-with-next
    188          static uint16 pgLost[OSAL_NV_PAGES_USED];
   \                     pgLost:
   \   000000                DS 12
   \   00000C                REQUIRE __INIT_XDATA_Z
    189          

   \                                 In  segment XDATA_Z, align 1, keep-with-next
    190          static uint8 pgRes;  // Page reserved for item compacting transfer.
   \                     pgRes:
   \   000000                DS 1
   \   000001                REQUIRE __INIT_XDATA_Z
    191          
    192          // Saving ~100 code bytes to move a uint8* parameter/return value from findItem() to a global.

   \                                 In  segment XDATA_Z, align 1, keep-with-next
    193          static uint8 findPg;
   \                     findPg:
   \   000000                DS 1
   \   000001                REQUIRE __INIT_XDATA_Z
    194          
    195          // NV page and offsets for hot items.

   \                                 In  segment XDATA_Z, align 1, keep-with-next
    196          static uint8 hotPg[OSAL_NV_MAX_HOT];
   \                     hotPg:
   \   000000                DS 3
   \   000003                REQUIRE __INIT_XDATA_Z

   \                                 In  segment XDATA_Z, align 1, keep-with-next
    197          static uint16 hotOff[OSAL_NV_MAX_HOT];
   \                     hotOff:
   \   000000                DS 6
   \   000006                REQUIRE __INIT_XDATA_Z
    198          
    199          /*********************************************************************
    200           * LOCAL FUNCTIONS
    201           */
    202          
    203          static uint8  initNV( void );
    204          
    205          static void   setPageUse( uint8 pg, uint8 inUse );
    206          static uint16 initPage( uint8 pg, uint16 id, uint8 findDups );
    207          static void   erasePage( uint8 pg );
    208          static uint8  compactPage( uint8 srcPg, uint16 skipId );
    209          
    210          static uint16 findItem( uint16 id );
    211          static uint8  initItem( uint8 flag, uint16 id, uint16 len, void *buf );
    212          static void   setItem( uint8 pg, uint16 offset, eNvHdrEnum stat );
    213          static uint16 setChk( uint8 pg, uint16 offset, uint16 chk );
    214          
    215          static uint16 calcChkB( uint16 len, uint8 *buf );
    216          static uint16 calcChkF( uint8 pg, uint16 offset, uint16 len );
    217          
    218          static void   writeWord( uint8 pg, uint16 offset, uint8 *buf );
    219          static void   writeWordH( uint8 pg, uint16 offset, uint8 *buf );
    220          static void   writeWordM( uint8 pg, uint16 offset, uint8 *buf, uint16 cnt );
    221          static void   writeBuf( uint8 pg, uint16 offset, uint16 len, uint8 *buf );
    222          static void   xferBuf( uint8 srcPg, uint16 srcOff, uint8 dstPg, uint16 dstOff, uint16 len );
    223          
    224          static uint8  writeItem( uint8 pg, uint16 id, uint16 len, void *buf, uint8 flag );
    225          static uint8  hotItem(uint16 id);
    226          static void   hotItemUpdate(uint8 pg, uint16 off, uint16 id);
    227          
    228          /*********************************************************************
    229           * @fn      initNV
    230           *
    231           * @brief   Initialize the NV flash pages.
    232           *
    233           * @param   none
    234           *
    235           * @return  TRUE
    236           */

   \                                 In  segment BANKED_CODE, align 1, keep-with-next
    237          static uint8 initNV( void )
   \                     initNV:
    238          {
   \   000000   74F4         MOV     A,#-0xc
   \   000002   12....       LCALL   ?BANKED_ENTER_XDATA
   \   000005                ; Saved register size: 12
   \   000005                ; Auto size: 8
   \   000005   74F8         MOV     A,#-0x8
   \   000007   12....       LCALL   ?ALLOC_XSTACK8
    239            osalNvPgHdr_t pgHdr;
    240            uint8 oldPg = OSAL_NV_PAGE_NULL;
   \   00000A   7E00         MOV     R6,#0x0
    241            uint8 findDups = FALSE;
   \   00000C   75..00       MOV     ?V0 + 0,#0x0
    242            uint8 pg;
    243          
    244            pgRes = OSAL_NV_PAGE_NULL;
   \   00000F   90....       MOV     DPTR,#pgRes
   \   000012   7400         MOV     A,#0x0
   \   000014   F0           MOVX    @DPTR,A
    245          
    246            for ( pg = OSAL_NV_PAGE_BEG; pg <= OSAL_NV_PAGE_END; pg++ )
   \   000015   7F79         MOV     R7,#0x79
   \                     ??initNV_0:
   \   000017   EF           MOV     A,R7
   \   000018   C3           CLR     C
   \   000019   947F         SUBB    A,#0x7f
   \   00001B   505E         JNC     ??initNV_1
    247            {
    248              HalFlashRead(pg, OSAL_NV_PAGE_HDR_OFFSET, (uint8 *)(&pgHdr), OSAL_NV_HDR_SIZE);
   \   00001D                ; Setup parameters for call to function HalFlashRead
   \   00001D   75..08       MOV     ?V0 + 2,#0x8
   \   000020   75..00       MOV     ?V0 + 3,#0x0
   \   000023   78..         MOV     R0,#?V0 + 2
   \   000025   12....       LCALL   ?PUSH_XSTACK_I_TWO
   \   000028   7402         MOV     A,#0x2
   \   00002A   12....       LCALL   ?XSTACK_DISP0_8
   \   00002D   AC82         MOV     R4,DPL
   \   00002F   AD83         MOV     R5,DPH
   \   000031   7A00         MOV     R2,#0x0
   \   000033   7B00         MOV     R3,#0x0
   \   000035   EF           MOV     A,R7
   \   000036   F9           MOV     R1,A
   \   000037   12....       LCALL   ??HalFlashRead?relay
   \   00003A   7402         MOV     A,#0x2
   \   00003C   12....       LCALL   ?DEALLOC_XSTACK8
    249          
    250              if ( pgHdr.active == OSAL_NV_ERASED_ID )
   \   00003F   85..82       MOV     DPL,?XSP + 0
   \   000042   85..83       MOV     DPH,?XSP + 1
   \   000045   E0           MOVX    A,@DPTR
   \   000046   64FF         XRL     A,#0xff
   \   000048   7004         JNZ     ??initNV_2
   \   00004A   A3           INC     DPTR
   \   00004B   E0           MOVX    A,@DPTR
   \   00004C   64FF         XRL     A,#0xff
   \                     ??initNV_2:
   \   00004E   7016         JNZ     ??initNV_3
    251              {
    252                if ( pgRes == OSAL_NV_PAGE_NULL )
   \   000050   90....       MOV     DPTR,#pgRes
   \   000053   E0           MOVX    A,@DPTR
   \   000054   7007         JNZ     ??initNV_4
    253                {
    254                  pgRes = pg;
   \   000056   EF           MOV     A,R7
   \   000057   90....       MOV     DPTR,#pgRes
   \   00005A   F0           MOVX    @DPTR,A
   \   00005B   801B         SJMP    ??initNV_5
    255                }
    256                else
    257                {
    258                  setPageUse( pg, TRUE );
   \                     ??initNV_4:
   \   00005D                ; Setup parameters for call to function setPageUse
   \   00005D   7A01         MOV     R2,#0x1
   \   00005F   EF           MOV     A,R7
   \   000060   F9           MOV     R1,A
   \   000061   12....       LCALL   ??setPageUse?relay
   \   000064   8012         SJMP    ??initNV_5
    259                }
    260              }
    261              // An Xfer from this page was in progress.
    262              else if ( pgHdr.xfer != OSAL_NV_ERASED_ID )
   \                     ??initNV_3:
   \   000066   7404         MOV     A,#0x4
   \   000068   12....       LCALL   ?XSTACK_DISP0_8
   \   00006B   E0           MOVX    A,@DPTR
   \   00006C   64FF         XRL     A,#0xff
   \   00006E   7004         JNZ     ??initNV_6
   \   000070   A3           INC     DPTR
   \   000071   E0           MOVX    A,@DPTR
   \   000072   64FF         XRL     A,#0xff
   \                     ??initNV_6:
   \   000074   6002         JZ      ??initNV_5
    263              {
    264                oldPg = pg;
   \   000076   EF           MOV     A,R7
   \   000077   FE           MOV     R6,A
    265              }
    266            }
   \                     ??initNV_5:
   \   000078   0F           INC     R7
   \   000079   809C         SJMP    ??initNV_0
    267          
    268            // If a page compaction was interrupted before the old page was erased.
    269            if ( oldPg != OSAL_NV_PAGE_NULL )
   \                     ??initNV_1:
   \   00007B   EE           MOV     A,R6
   \   00007C   6026         JZ      ??initNV_7
    270            {
    271              /* Interrupted compaction before the target of compaction was put in use;
    272               * so erase the target of compaction and start again.
    273               */
    274              if ( pgRes != OSAL_NV_PAGE_NULL )
   \   00007E   90....       MOV     DPTR,#pgRes
   \   000081   E0           MOVX    A,@DPTR
   \   000082   6014         JZ      ??initNV_8
    275              {
    276                erasePage( pgRes );
   \   000084                ; Setup parameters for call to function erasePage
   \   000084   90....       MOV     DPTR,#pgRes
   \   000087   E0           MOVX    A,@DPTR
   \   000088   F9           MOV     R1,A
   \   000089   12....       LCALL   ??erasePage?relay
    277                (void)compactPage( oldPg, OSAL_NV_ITEM_NULL );
   \   00008C                ; Setup parameters for call to function compactPage
   \   00008C   7A00         MOV     R2,#0x0
   \   00008E   7B00         MOV     R3,#0x0
   \   000090   EE           MOV     A,R6
   \   000091   F9           MOV     R1,A
   \   000092   12....       LCALL   ??compactPage?relay
   \   000095   E9           MOV     A,R1
   \   000096   801A         SJMP    ??initNV_9
    278              }
    279              /* Interrupted compaction after the target of compaction was put in use,
    280               * but before the old page was erased; so erase it now and create a new reserve page.
    281               */
    282              else
    283              {
    284                erasePage( oldPg );
   \                     ??initNV_8:
   \   000098                ; Setup parameters for call to function erasePage
   \   000098   EE           MOV     A,R6
   \   000099   F9           MOV     R1,A
   \   00009A   12....       LCALL   ??erasePage?relay
    285                pgRes = oldPg;
   \   00009D   EE           MOV     A,R6
   \   00009E   90....       MOV     DPTR,#pgRes
   \   0000A1   F0           MOVX    @DPTR,A
   \   0000A2   800E         SJMP    ??initNV_9
    286              }
    287            }
    288            else if ( pgRes != OSAL_NV_PAGE_NULL )
   \                     ??initNV_7:
   \   0000A4   90....       MOV     DPTR,#pgRes
   \   0000A7   E0           MOVX    A,@DPTR
   \   0000A8   6008         JZ      ??initNV_9
    289            {
    290              erasePage( pgRes );  // The last page erase could have been interrupted by a power-cycle.
   \   0000AA                ; Setup parameters for call to function erasePage
   \   0000AA   90....       MOV     DPTR,#pgRes
   \   0000AD   E0           MOVX    A,@DPTR
   \   0000AE   F9           MOV     R1,A
   \   0000AF   12....       LCALL   ??erasePage?relay
    291            }
    292            /* else if there is no reserve page, COMPACT_PAGE_CLEANUP() must have succeeded to put the old
    293             * reserve page (i.e. the target of the compacted items) into use but got interrupted by a reset
    294             * while trying to erase the page to be compacted. Such a page should only contain duplicate items
    295             * (i.e. all items will be marked 'Xfer') and thus should have the lost count equal to the page
    296             * size less the page header.
    297             */
    298          
    299            for ( pg = OSAL_NV_PAGE_BEG; pg <= OSAL_NV_PAGE_END; pg++ )
   \                     ??initNV_9:
   \   0000B2   7F79         MOV     R7,#0x79
   \                     ??initNV_10:
   \   0000B4   EF           MOV     A,R7
   \   0000B5   C3           CLR     C
   \   0000B6   947F         SUBB    A,#0x7f
   \   0000B8   501D         JNC     ??initNV_11
    300            {
    301              // Calculate page offset and lost bytes - any "old" item triggers an N^2 re-scan from start.
    302              if ( initPage( pg, OSAL_NV_ITEM_NULL, findDups ) != OSAL_NV_ITEM_NULL )
   \   0000BA                ; Setup parameters for call to function initPage
   \   0000BA   AC..         MOV     R4,?V0 + 0
   \   0000BC   7A00         MOV     R2,#0x0
   \   0000BE   7B00         MOV     R3,#0x0
   \   0000C0   EF           MOV     A,R7
   \   0000C1   F9           MOV     R1,A
   \   0000C2   12....       LCALL   ??initPage?relay
   \   0000C5   8A..         MOV     ?V0 + 2,R2
   \   0000C7   8B..         MOV     ?V0 + 3,R3
   \   0000C9   E5..         MOV     A,?V0 + 2
   \   0000CB   45..         ORL     A,?V0 + 3
   \   0000CD   6005         JZ      ??initNV_12
    303              {
    304                findDups = TRUE;
   \   0000CF   75..01       MOV     ?V0 + 0,#0x1
    305                pg = (OSAL_NV_PAGE_BEG - 1);  // Pre-decrement so that loop increment will start over at zero.
   \   0000D2   7F78         MOV     R7,#0x78
    306                continue;
    307              }
    308            }
   \                     ??initNV_12:
   \   0000D4   0F           INC     R7
   \   0000D5   80DD         SJMP    ??initNV_10
    309          
    310            if (findDups)
   \                     ??initNV_11:
   \   0000D7   E5..         MOV     A,?V0 + 0
   \   0000D9   601E         JZ      ??initNV_13
    311            {
    312              // Final pass to calculate page lost after invalidating duplicate items.
    313              for ( pg = OSAL_NV_PAGE_BEG; pg <= OSAL_NV_PAGE_END; pg++ )
   \   0000DB   7F79         MOV     R7,#0x79
   \                     ??initNV_14:
   \   0000DD   EF           MOV     A,R7
   \   0000DE   C3           CLR     C
   \   0000DF   947F         SUBB    A,#0x7f
   \   0000E1   5016         JNC     ??initNV_13
    314              {
    315                (void)initPage( pg, OSAL_NV_ITEM_NULL, FALSE );
   \   0000E3                ; Setup parameters for call to function initPage
   \   0000E3   7C00         MOV     R4,#0x0
   \   0000E5   7A00         MOV     R2,#0x0
   \   0000E7   7B00         MOV     R3,#0x0
   \   0000E9   EF           MOV     A,R7
   \   0000EA   F9           MOV     R1,A
   \   0000EB   12....       LCALL   ??initPage?relay
   \   0000EE   8A..         MOV     ?V0 + 2,R2
   \   0000F0   8B..         MOV     ?V0 + 3,R3
   \   0000F2   A8..         MOV     R0,?V0 + 2
   \   0000F4   A9..         MOV     R1,?V0 + 3
    316              }
   \   0000F6   0F           INC     R7
   \   0000F7   80E4         SJMP    ??initNV_14
    317            }
    318          
    319            if ( pgRes == OSAL_NV_PAGE_NULL )
   \                     ??initNV_13:
   \   0000F9   90....       MOV     DPTR,#pgRes
   \   0000FC   E0           MOVX    A,@DPTR
   \   0000FD   6003         JZ      $+5
   \   0000FF   02....       LJMP    ??initNV_15 & 0xFFFF
    320            {
    321              uint8 idx, mostLost = 0;
   \   000102   75..00       MOV     ?V0 + 2,#0x0
    322          
    323              for ( idx = 0; idx < OSAL_NV_PAGES_USED; idx++ )
   \   000105   75..00       MOV     ?V0 + 1,#0x0
   \                     ??initNV_16:
   \   000108   E5..         MOV     A,?V0 + 1
   \   00010A   C3           CLR     C
   \   00010B   9406         SUBB    A,#0x6
   \   00010D   4003         JC      $+5
   \   00010F   02....       LJMP    ??initNV_17 & 0xFFFF
    324              {
    325                // Is this the page that was compacted?
    326                if (pgLost[idx] == (OSAL_NV_PAGE_SIZE - OSAL_NV_PAGE_HDR_SIZE))
   \   000112   E5..         MOV     A,?V0 + 1
   \   000114   A8..         MOV     R0,?V0 + 1
   \   000116   7900         MOV     R1,#0x0
   \   000118   E8           MOV     A,R0
   \   000119   75F002       MOV     B,#0x2
   \   00011C   A4           MUL     AB
   \   00011D   C8           XCH     A,R0
   \   00011E   AAF0         MOV     R2,B
   \   000120   75F000       MOV     B,#0x0
   \   000123   A4           MUL     AB
   \   000124   2A           ADD     A,R2
   \   000125   FA           MOV     R2,A
   \   000126   75F002       MOV     B,#0x2
   \   000129   E9           MOV     A,R1
   \   00012A   A4           MUL     AB
   \   00012B   2A           ADD     A,R2
   \   00012C   F9           MOV     R1,A
   \   00012D   74..         MOV     A,#pgLost & 0xff
   \   00012F   28           ADD     A,R0
   \   000130   F582         MOV     DPL,A
   \   000132   74..         MOV     A,#(pgLost >> 8) & 0xff
   \   000134   39           ADDC    A,R1
   \   000135   F583         MOV     DPH,A
   \   000137   E0           MOVX    A,@DPTR
   \   000138   64F8         XRL     A,#0xf8
   \   00013A   7004         JNZ     ??initNV_18
   \   00013C   A3           INC     DPTR
   \   00013D   E0           MOVX    A,@DPTR
   \   00013E   6407         XRL     A,#0x7
   \                     ??initNV_18:
   \   000140   7005         JNZ     ??initNV_19
    327                {
    328                  mostLost = idx;
   \   000142   85....       MOV     ?V0 + 2,?V0 + 1
    329                  break;
   \   000145   8067         SJMP    ??initNV_17
    330                }
    331                /* This check is not expected to be necessary because the above test should always succeed
    332                 * with an early loop exit.
    333                 */
    334                else if (pgLost[idx] > pgLost[mostLost])
   \                     ??initNV_19:
   \   000147   E5..         MOV     A,?V0 + 2
   \   000149   A8..         MOV     R0,?V0 + 2
   \   00014B   7900         MOV     R1,#0x0
   \   00014D   E8           MOV     A,R0
   \   00014E   75F002       MOV     B,#0x2
   \   000151   A4           MUL     AB
   \   000152   C8           XCH     A,R0
   \   000153   AAF0         MOV     R2,B
   \   000155   75F000       MOV     B,#0x0
   \   000158   A4           MUL     AB
   \   000159   2A           ADD     A,R2
   \   00015A   FA           MOV     R2,A
   \   00015B   75F002       MOV     B,#0x2
   \   00015E   E9           MOV     A,R1
   \   00015F   A4           MUL     AB
   \   000160   2A           ADD     A,R2
   \   000161   F9           MOV     R1,A
   \   000162   74..         MOV     A,#pgLost & 0xff
   \   000164   28           ADD     A,R0
   \   000165   F582         MOV     DPL,A
   \   000167   74..         MOV     A,#(pgLost >> 8) & 0xff
   \   000169   39           ADDC    A,R1
   \   00016A   F583         MOV     DPH,A
   \   00016C   C082         PUSH    DPL
   \   00016E   C083         PUSH    DPH
   \   000170   E5..         MOV     A,?V0 + 1
   \   000172   A8..         MOV     R0,?V0 + 1
   \   000174   7900         MOV     R1,#0x0
   \   000176   E8           MOV     A,R0
   \   000177   75F002       MOV     B,#0x2
   \   00017A   A4           MUL     AB
   \   00017B   C8           XCH     A,R0
   \   00017C   AAF0         MOV     R2,B
   \   00017E   75F000       MOV     B,#0x0
   \   000181   A4           MUL     AB
   \   000182   2A           ADD     A,R2
   \   000183   FA           MOV     R2,A
   \   000184   75F002       MOV     B,#0x2
   \   000187   E9           MOV     A,R1
   \   000188   A4           MUL     AB
   \   000189   2A           ADD     A,R2
   \   00018A   F9           MOV     R1,A
   \   00018B   74..         MOV     A,#pgLost & 0xff
   \   00018D   28           ADD     A,R0
   \   00018E   F582         MOV     DPL,A
   \   000190   74..         MOV     A,#(pgLost >> 8) & 0xff
   \   000192   39           ADDC    A,R1
   \   000193   F583         MOV     DPH,A
   \   000195   E0           MOVX    A,@DPTR
   \   000196   F8           MOV     R0,A
   \   000197   A3           INC     DPTR
   \   000198   E0           MOVX    A,@DPTR
   \   000199   F9           MOV     R1,A
   \   00019A   D083         POP     DPH
   \   00019C   D082         POP     DPL
   \   00019E   C3           CLR     C
   \   00019F   E0           MOVX    A,@DPTR
   \   0001A0   98           SUBB    A,R0
   \   0001A1   A3           INC     DPTR
   \   0001A2   E0           MOVX    A,@DPTR
   \   0001A3   99           SUBB    A,R1
   \   0001A4   5003         JNC     ??initNV_20
    335                {
    336                  mostLost = idx;
   \   0001A6   85....       MOV     ?V0 + 2,?V0 + 1
    337                }
    338              }
   \                     ??initNV_20:
   \   0001A9   05..         INC     ?V0 + 1
   \   0001AB   02....       LJMP    ??initNV_16 & 0xFFFF
    339          
    340              pgRes = mostLost + OSAL_NV_PAGE_BEG;
   \                     ??initNV_17:
   \   0001AE   7479         MOV     A,#0x79
   \   0001B0   25..         ADD     A,?V0 + 2
   \   0001B2   90....       MOV     DPTR,#pgRes
   \   0001B5   F0           MOVX    @DPTR,A
    341              erasePage( pgRes );  // The last page erase had been interrupted by a power-cycle.
   \   0001B6                ; Setup parameters for call to function erasePage
   \   0001B6   90....       MOV     DPTR,#pgRes
   \   0001B9   E0           MOVX    A,@DPTR
   \   0001BA   F9           MOV     R1,A
   \   0001BB   12....       LCALL   ??erasePage?relay
    342            }
    343          
    344            return TRUE;
   \                     ??initNV_15:
   \   0001BE   7901         MOV     R1,#0x1
   \   0001C0   7408         MOV     A,#0x8
   \   0001C2   12....       LCALL   ?DEALLOC_XSTACK8
   \   0001C5   7F04         MOV     R7,#0x4
   \   0001C7   02....       LJMP    ?BANKED_LEAVE_XDATA
    345          }
    346          
    347          /*********************************************************************
    348           * @fn      setPageUse
    349           *
    350           * @brief   Set page header active/inUse state according to 'inUse'.
    351           *
    352           * @param   pg - Valid NV page to verify and init.
    353           * @param   inUse - Boolean TRUE if inUse, FALSE if only active.
    354           *
    355           * @return  none
    356           */

   \                                 In  segment BANKED_CODE, align 1, keep-with-next
    357          static void setPageUse( uint8 pg, uint8 inUse )
   \                     setPageUse:
    358          {
   \   000000   74F7         MOV     A,#-0x9
   \   000002   12....       LCALL   ?BANKED_ENTER_XDATA
   \   000005                ; Saved register size: 9
   \   000005                ; Auto size: 8
   \   000005   74F8         MOV     A,#-0x8
   \   000007   12....       LCALL   ?ALLOC_XSTACK8
   \   00000A   E9           MOV     A,R1
   \   00000B   FE           MOV     R6,A
   \   00000C   EA           MOV     A,R2
   \   00000D   FF           MOV     R7,A
    359            osalNvPgHdr_t pgHdr;
    360          
    361            pgHdr.active = OSAL_NV_ZEROED_ID;
   \   00000E   85..82       MOV     DPL,?XSP + 0
   \   000011   85..83       MOV     DPH,?XSP + 1
   \   000014   7400         MOV     A,#0x0
   \   000016   F0           MOVX    @DPTR,A
   \   000017   A3           INC     DPTR
   \   000018   7400         MOV     A,#0x0
   \   00001A   F0           MOVX    @DPTR,A
    362          
    363            if ( inUse )
   \   00001B   EF           MOV     A,R7
   \   00001C   600E         JZ      ??setPageUse_0
    364            {
    365              pgHdr.inUse = OSAL_NV_ZEROED_ID;
   \   00001E   7402         MOV     A,#0x2
   \   000020   12....       LCALL   ?XSTACK_DISP0_8
   \   000023   7400         MOV     A,#0x0
   \   000025   F0           MOVX    @DPTR,A
   \   000026   A3           INC     DPTR
   \   000027   7400         MOV     A,#0x0
   \   000029   F0           MOVX    @DPTR,A
   \   00002A   800C         SJMP    ??setPageUse_1
    366            }
    367            else
    368            {
    369              pgHdr.inUse = OSAL_NV_ERASED_ID;
   \                     ??setPageUse_0:
   \   00002C   7402         MOV     A,#0x2
   \   00002E   12....       LCALL   ?XSTACK_DISP0_8
   \   000031   74FF         MOV     A,#-0x1
   \   000033   F0           MOVX    @DPTR,A
   \   000034   A3           INC     DPTR
   \   000035   74FF         MOV     A,#-0x1
   \   000037   F0           MOVX    @DPTR,A
    370            }
    371          
    372            writeWord( pg, OSAL_NV_PAGE_HDR_OFFSET, (uint8*)(&pgHdr) );
   \                     ??setPageUse_1:
   \   000038                ; Setup parameters for call to function writeWord
   \   000038   85..82       MOV     DPL,?XSP + 0
   \   00003B   85..83       MOV     DPH,?XSP + 1
   \   00003E   AC82         MOV     R4,DPL
   \   000040   AD83         MOV     R5,DPH
   \   000042   7A00         MOV     R2,#0x0
   \   000044   7B00         MOV     R3,#0x0
   \   000046   EE           MOV     A,R6
   \   000047   F9           MOV     R1,A
   \   000048   12....       LCALL   ??writeWord?relay
    373          }
   \   00004B   7408         MOV     A,#0x8
   \   00004D   12....       LCALL   ?DEALLOC_XSTACK8
   \   000050   7F01         MOV     R7,#0x1
   \   000052   02....       LJMP    ?BANKED_LEAVE_XDATA
    374          
    375          /*********************************************************************
    376           * @fn      initPage
    377           *
    378           * @brief   Walk the page items; calculate checksums, lost bytes & page offset.
    379           *
    380           * @param   pg - Valid NV page to verify and init.
    381           * @param   id - Valid NV item Id to use function as a "findItem".
    382           *               If set to NULL then just perform the page initialization.
    383           * @param   findDups - TRUE on recursive call from initNV() to find and zero-out duplicate items
    384           *                     left from a write that is interrupted by a reset/power-cycle.
    385           *                     FALSE otherwise.
    386           *
    387           * @return  If 'id' is non-NULL and good checksums are found, return the offset
    388           *          of the data corresponding to item Id; else OSAL_NV_ITEM_NULL.
    389           */

   \                                 In  segment BANKED_CODE, align 1, keep-with-next
    390          static uint16 initPage( uint8 pg, uint16 id, uint8 findDups )
   \                     initPage:
    391          {
   \   000000   74EC         MOV     A,#-0x14
   \   000002   12....       LCALL   ?BANKED_ENTER_XDATA
   \   000005                ; Saved register size: 20
   \   000005                ; Auto size: 8
   \   000005   74F8         MOV     A,#-0x8
   \   000007   12....       LCALL   ?ALLOC_XSTACK8
   \   00000A   89..         MOV     ?V0 + 2,R1
   \   00000C   8A..         MOV     ?V0 + 4,R2
   \   00000E   8B..         MOV     ?V0 + 5,R3
   \   000010   8C..         MOV     ?V0 + 3,R4
    392            uint16 offset = OSAL_NV_PAGE_HDR_SIZE;
   \   000012   75..08       MOV     ?V0 + 0,#0x8
   \   000015   75..00       MOV     ?V0 + 1,#0x0
    393            uint16 sz, lost = 0;
   \   000018   7E00         MOV     R6,#0x0
   \   00001A   7F00         MOV     R7,#0x0
    394            osalNvHdr_t hdr;
    395          
    396            do
    397            {
    398              HalFlashRead(pg, offset, (uint8 *)(&hdr), OSAL_NV_HDR_SIZE);
   \                     ??initPage_0:
   \   00001C                ; Setup parameters for call to function HalFlashRead
   \   00001C   75..08       MOV     ?V0 + 6,#0x8
   \   00001F   75..00       MOV     ?V0 + 7,#0x0
   \   000022   78..         MOV     R0,#?V0 + 6
   \   000024   12....       LCALL   ?PUSH_XSTACK_I_TWO
   \   000027   7402         MOV     A,#0x2
   \   000029   12....       LCALL   ?XSTACK_DISP0_8
   \   00002C   AC82         MOV     R4,DPL
   \   00002E   AD83         MOV     R5,DPH
   \   000030   AA..         MOV     R2,?V0 + 0
   \   000032   AB..         MOV     R3,?V0 + 1
   \   000034   A9..         MOV     R1,?V0 + 2
   \   000036   12....       LCALL   ??HalFlashRead?relay
   \   000039   7402         MOV     A,#0x2
   \   00003B   12....       LCALL   ?DEALLOC_XSTACK8
    399          
    400              if ( hdr.id == OSAL_NV_ERASED_ID )
   \   00003E   85..82       MOV     DPL,?XSP + 0
   \   000041   85..83       MOV     DPH,?XSP + 1
   \   000044   E0           MOVX    A,@DPTR
   \   000045   64FF         XRL     A,#0xff
   \   000047   7004         JNZ     ??initPage_1
   \   000049   A3           INC     DPTR
   \   00004A   E0           MOVX    A,@DPTR
   \   00004B   64FF         XRL     A,#0xff
   \                     ??initPage_1:
   \   00004D   7003         JNZ     $+5
   \   00004F   02....       LJMP    ??initPage_2 & 0xFFFF
    401              {
    402                break;
    403              }
    404          
    405              // Get the actual size in bytes which is the ceiling(hdr.len)
    406              sz = OSAL_NV_DATA_SIZE( hdr.len );
   \   000052   7402         MOV     A,#0x2
   \   000054   12....       LCALL   ?XSTACK_DISP0_8
   \   000057   C3           CLR     C
   \   000058   E0           MOVX    A,@DPTR
   \   000059   94FC         SUBB    A,#-0x4
   \   00005B   A3           INC     DPTR
   \   00005C   E0           MOVX    A,@DPTR
   \   00005D   94FF         SUBB    A,#-0x1
   \   00005F   4008         JC      ??initPage_3
   \   000061   75..FC       MOV     ?V0 + 8,#-0x4
   \   000064   75..FF       MOV     ?V0 + 9,#-0x1
   \   000067   8030         SJMP    ??initPage_4
   \                     ??initPage_3:
   \   000069   7402         MOV     A,#0x2
   \   00006B   12....       LCALL   ?XSTACK_DISP0_8
   \   00006E   E0           MOVX    A,@DPTR
   \   00006F   2403         ADD     A,#0x3
   \   000071   F5..         MOV     ?V0 + 8,A
   \   000073   A3           INC     DPTR
   \   000074   E0           MOVX    A,@DPTR
   \   000075   3400         ADDC    A,#0x0
   \   000077   F5..         MOV     ?V0 + 9,A
   \   000079   7402         MOV     A,#0x2
   \   00007B   78..         MOV     R0,#?V0 + 8
   \   00007D   12....       LCALL   ?US_SHR
   \   000080   E5..         MOV     A,?V0 + 8
   \   000082   75F004       MOV     B,#0x4
   \   000085   A4           MUL     AB
   \   000086   C5..         XCH     A,?V0 + 8
   \   000088   A8F0         MOV     R0,B
   \   00008A   75F000       MOV     B,#0x0
   \   00008D   A4           MUL     AB
   \   00008E   28           ADD     A,R0
   \   00008F   F8           MOV     R0,A
   \   000090   75F004       MOV     B,#0x4
   \   000093   E5..         MOV     A,?V0 + 9
   \   000095   A4           MUL     AB
   \   000096   28           ADD     A,R0
   \   000097   F5..         MOV     ?V0 + 9,A
    407          
    408              // A bad 'len' write has blown away the rest of the page.
    409              if (sz > (OSAL_NV_PAGE_SIZE - OSAL_NV_HDR_SIZE - offset))
   \                     ??initPage_4:
   \   000099   74F8         MOV     A,#-0x8
   \   00009B   C3           CLR     C
   \   00009C   95..         SUBB    A,?V0 + 0
   \   00009E   F8           MOV     R0,A
   \   00009F   7407         MOV     A,#0x7
   \   0000A1   95..         SUBB    A,?V0 + 1
   \   0000A3   F9           MOV     R1,A
   \   0000A4   C3           CLR     C
   \   0000A5   E8           MOV     A,R0
   \   0000A6   95..         SUBB    A,?V0 + 8
   \   0000A8   E9           MOV     A,R1
   \   0000A9   95..         SUBB    A,?V0 + 9
   \   0000AB   501A         JNC     ??initPage_5
    410              {
    411                lost += (OSAL_NV_PAGE_SIZE - offset);
   \   0000AD   EE           MOV     A,R6
   \   0000AE   2400         ADD     A,#0x0
   \   0000B0   F8           MOV     R0,A
   \   0000B1   EF           MOV     A,R7
   \   0000B2   3408         ADDC    A,#0x8
   \   0000B4   F9           MOV     R1,A
   \   0000B5   E8           MOV     A,R0
   \   0000B6   C3           CLR     C
   \   0000B7   95..         SUBB    A,?V0 + 0
   \   0000B9   FE           MOV     R6,A
   \   0000BA   E9           MOV     A,R1
   \   0000BB   95..         SUBB    A,?V0 + 1
   \   0000BD   FF           MOV     R7,A
    412                offset = OSAL_NV_PAGE_SIZE;
   \   0000BE   75..00       MOV     ?V0 + 0,#0x0
   \   0000C1   75..08       MOV     ?V0 + 1,#0x8
    413                break;
   \   0000C4   02....       LJMP    ??initPage_2 & 0xFFFF
    414              }
    415          
    416              offset += OSAL_NV_HDR_SIZE;
   \                     ??initPage_5:
   \   0000C7   E5..         MOV     A,?V0 + 0
   \   0000C9   2408         ADD     A,#0x8
   \   0000CB   F5..         MOV     ?V0 + 0,A
   \   0000CD   E5..         MOV     A,?V0 + 1
   \   0000CF   3400         ADDC    A,#0x0
   \   0000D1   F5..         MOV     ?V0 + 1,A
    417          
    418              if ( hdr.id != OSAL_NV_ZEROED_ID )
   \   0000D3   85..82       MOV     DPL,?XSP + 0
   \   0000D6   85..83       MOV     DPH,?XSP + 1
   \   0000D9   E0           MOVX    A,@DPTR
   \   0000DA   F8           MOV     R0,A
   \   0000DB   A3           INC     DPTR
   \   0000DC   E0           MOVX    A,@DPTR
   \   0000DD   F9           MOV     R1,A
   \   0000DE   E8           MOV     A,R0
   \   0000DF   49           ORL     A,R1
   \   0000E0   7003         JNZ     $+5
   \   0000E2   02....       LJMP    ??initPage_6 & 0xFFFF
    419              {
    420                /* This trick allows function to do double duty for findItem() without
    421                 * compromising its essential functionality at powerup initialization.
    422                 */
    423                if ( id != OSAL_NV_ITEM_NULL )
   \   0000E5   E5..         MOV     A,?V0 + 4
   \   0000E7   45..         ORL     A,?V0 + 5
   \   0000E9   6065         JZ      ??initPage_7
    424                {
    425                  /* This trick allows asking to find the old/transferred item in case
    426                   * of a successful new item write that gets interrupted before the
    427                   * old item can be zeroed out.
    428                   */
    429                  if ( (id & 0x7fff) == hdr.id )
   \   0000EB   E5..         MOV     A,?V0 + 4
   \   0000ED   54FF         ANL     A,#0xff
   \   0000EF   F8           MOV     R0,A
   \   0000F0   E5..         MOV     A,?V0 + 5
   \   0000F2   547F         ANL     A,#0x7f
   \   0000F4   F9           MOV     R1,A
   \   0000F5   85..82       MOV     DPL,?XSP + 0
   \   0000F8   85..83       MOV     DPH,?XSP + 1
   \   0000FB   E0           MOVX    A,@DPTR
   \   0000FC   68           XRL     A,R0
   \   0000FD   7003         JNZ     ??initPage_8
   \   0000FF   A3           INC     DPTR
   \   000100   E0           MOVX    A,@DPTR
   \   000101   69           XRL     A,R1
   \                     ??initPage_8:
   \   000102   6003         JZ      $+5
   \   000104   02....       LJMP    ??initPage_9 & 0xFFFF
    430                  {
    431                    if ( (((id & OSAL_NV_SOURCE_ID) == 0) && (hdr.stat == OSAL_NV_ERASED_ID)) ||
    432                         (((id & OSAL_NV_SOURCE_ID) != 0) && (hdr.stat != OSAL_NV_ERASED_ID)) )
   \   000107   E5..         MOV     A,?V0 + 4
   \   000109   5400         ANL     A,#0x0
   \   00010B   F8           MOV     R0,A
   \   00010C   E5..         MOV     A,?V0 + 5
   \   00010E   5480         ANL     A,#0x80
   \   000110   F9           MOV     R1,A
   \   000111   E8           MOV     A,R0
   \   000112   49           ORL     A,R1
   \   000113   7010         JNZ     ??initPage_10
   \   000115   7406         MOV     A,#0x6
   \   000117   12....       LCALL   ?XSTACK_DISP0_8
   \   00011A   E0           MOVX    A,@DPTR
   \   00011B   64FF         XRL     A,#0xff
   \   00011D   7004         JNZ     ??initPage_11
   \   00011F   A3           INC     DPTR
   \   000120   E0           MOVX    A,@DPTR
   \   000121   64FF         XRL     A,#0xff
   \                     ??initPage_11:
   \   000123   6024         JZ      ??initPage_12
   \                     ??initPage_10:
   \   000125   E5..         MOV     A,?V0 + 4
   \   000127   5400         ANL     A,#0x0
   \   000129   F8           MOV     R0,A
   \   00012A   E5..         MOV     A,?V0 + 5
   \   00012C   5480         ANL     A,#0x80
   \   00012E   F9           MOV     R1,A
   \   00012F   E8           MOV     A,R0
   \   000130   49           ORL     A,R1
   \   000131   7003         JNZ     $+5
   \   000133   02....       LJMP    ??initPage_9 & 0xFFFF
   \   000136   7406         MOV     A,#0x6
   \   000138   12....       LCALL   ?XSTACK_DISP0_8
   \   00013B   E0           MOVX    A,@DPTR
   \   00013C   64FF         XRL     A,#0xff
   \   00013E   7004         JNZ     ??initPage_13
   \   000140   A3           INC     DPTR
   \   000141   E0           MOVX    A,@DPTR
   \   000142   64FF         XRL     A,#0xff
   \                     ??initPage_13:
   \   000144   7003         JNZ     $+5
   \   000146   02....       LJMP    ??initPage_9 & 0xFFFF
    433                    {
    434                      return offset;
   \                     ??initPage_12:
   \   000149   AA..         MOV     R2,?V0 + 0
   \   00014B   AB..         MOV     R3,?V0 + 1
   \   00014D   02....       LJMP    ??initPage_14 & 0xFFFF
    435                    }
    436                  }
    437                }
    438                // When invoked from the osal_nv_init(), verify checksums and find & zero any duplicates.
    439                else
    440                {
    441                  if ( hdr.chk == calcChkF( pg, offset, hdr.len ) )
   \                     ??initPage_7:
   \   000150                ; Setup parameters for call to function calcChkF
   \   000150   7402         MOV     A,#0x2
   \   000152   12....       LCALL   ?XSTACK_DISP0_8
   \   000155   E0           MOVX    A,@DPTR
   \   000156   FC           MOV     R4,A
   \   000157   A3           INC     DPTR
   \   000158   E0           MOVX    A,@DPTR
   \   000159   FD           MOV     R5,A
   \   00015A   AA..         MOV     R2,?V0 + 0
   \   00015C   AB..         MOV     R3,?V0 + 1
   \   00015E   A9..         MOV     R1,?V0 + 2
   \   000160   12....       LCALL   ??calcChkF?relay
   \   000163   8A..         MOV     ?V0 + 6,R2
   \   000165   8B..         MOV     ?V0 + 7,R3
   \   000167   A8..         MOV     R0,?V0 + 6
   \   000169   A9..         MOV     R1,?V0 + 7
   \   00016B   7404         MOV     A,#0x4
   \   00016D   12....       LCALL   ?XSTACK_DISP0_8
   \   000170   E0           MOVX    A,@DPTR
   \   000171   68           XRL     A,R0
   \   000172   7003         JNZ     ??initPage_15
   \   000174   A3           INC     DPTR
   \   000175   E0           MOVX    A,@DPTR
   \   000176   69           XRL     A,R1
   \                     ??initPage_15:
   \   000177   705D         JNZ     ??initPage_16
    442                  {
    443                    if ( findDups )
   \   000179   E5..         MOV     A,?V0 + 3
   \   00017B   6042         JZ      ??initPage_17
    444                    {
    445                      if ( hdr.stat == OSAL_NV_ERASED_ID )
   \   00017D   7406         MOV     A,#0x6
   \   00017F   12....       LCALL   ?XSTACK_DISP0_8
   \   000182   E0           MOVX    A,@DPTR
   \   000183   64FF         XRL     A,#0xff
   \   000185   7004         JNZ     ??initPage_18
   \   000187   A3           INC     DPTR
   \   000188   E0           MOVX    A,@DPTR
   \   000189   64FF         XRL     A,#0xff
   \                     ??initPage_18:
   \   00018B   7076         JNZ     ??initPage_9
    446                      {
    447                        /* The trick of setting the MSB of the item Id causes the logic
    448                         * immediately above to return a valid page only if the header 'stat'
    449                         * indicates that it was the older item being transferred.
    450                         */
    451                        uint16 off = findItem( (hdr.id | OSAL_NV_SOURCE_ID) );
   \   00018D                ; Setup parameters for call to function findItem
   \   00018D   85..82       MOV     DPL,?XSP + 0
   \   000190   85..83       MOV     DPH,?XSP + 1
   \   000193   E0           MOVX    A,@DPTR
   \   000194   4400         ORL     A,#0x0
   \   000196   FA           MOV     R2,A
   \   000197   A3           INC     DPTR
   \   000198   E0           MOVX    A,@DPTR
   \   000199   4480         ORL     A,#0x80
   \   00019B   FB           MOV     R3,A
   \   00019C   12....       LCALL   ??findItem?relay
   \   00019F   8A..         MOV     ?V0 + 10,R2
   \   0001A1   8B..         MOV     ?V0 + 11,R3
   \   0001A3   85....       MOV     ?V0 + 6,?V0 + 10
   \   0001A6   85....       MOV     ?V0 + 7,?V0 + 11
    452          
    453                        if ( off != OSAL_NV_ITEM_NULL )
   \   0001A9   E5..         MOV     A,?V0 + 6
   \   0001AB   45..         ORL     A,?V0 + 7
   \   0001AD   6054         JZ      ??initPage_9
    454                        {
    455                          setItem( findPg, off, eNvZero );  // Mark old duplicate as invalid.
   \   0001AF                ; Setup parameters for call to function setItem
   \   0001AF   7C01         MOV     R4,#0x1
   \   0001B1   AA..         MOV     R2,?V0 + 6
   \   0001B3   AB..         MOV     R3,?V0 + 7
   \   0001B5   90....       MOV     DPTR,#findPg
   \   0001B8   E0           MOVX    A,@DPTR
   \   0001B9   F9           MOV     R1,A
   \   0001BA   12....       LCALL   ??setItem?relay
   \   0001BD   8044         SJMP    ??initPage_9
    456                        }
    457                      }
    458                    }
    459                    // Any "old" item immediately exits and triggers the N^2 exhaustive initialization.
    460                    else if ( hdr.stat != OSAL_NV_ERASED_ID )
   \                     ??initPage_17:
   \   0001BF   7406         MOV     A,#0x6
   \   0001C1   12....       LCALL   ?XSTACK_DISP0_8
   \   0001C4   E0           MOVX    A,@DPTR
   \   0001C5   64FF         XRL     A,#0xff
   \   0001C7   7004         JNZ     ??initPage_19
   \   0001C9   A3           INC     DPTR
   \   0001CA   E0           MOVX    A,@DPTR
   \   0001CB   64FF         XRL     A,#0xff
   \                     ??initPage_19:
   \   0001CD   6034         JZ      ??initPage_9
    461                    {
    462                      return OSAL_NV_ERASED_ID;
   \   0001CF   7AFF         MOV     R2,#-0x1
   \   0001D1   7BFF         MOV     R3,#-0x1
   \   0001D3   02....       LJMP    ??initPage_14 & 0xFFFF
    463                    }
    464                  }
    465                  else
    466                  {
    467                    setItem( pg, offset, eNvZero );  // Mark bad checksum as invalid.
   \                     ??initPage_16:
   \   0001D6                ; Setup parameters for call to function setItem
   \   0001D6   7C01         MOV     R4,#0x1
   \   0001D8   AA..         MOV     R2,?V0 + 0
   \   0001DA   AB..         MOV     R3,?V0 + 1
   \   0001DC   A9..         MOV     R1,?V0 + 2
   \   0001DE   12....       LCALL   ??setItem?relay
    468                    lost += (OSAL_NV_HDR_SIZE + sz);
   \   0001E1   E5..         MOV     A,?V0 + 8
   \   0001E3   2408         ADD     A,#0x8
   \   0001E5   F8           MOV     R0,A
   \   0001E6   E5..         MOV     A,?V0 + 9
   \   0001E8   3400         ADDC    A,#0x0
   \   0001EA   F9           MOV     R1,A
   \   0001EB   EE           MOV     A,R6
   \   0001EC   28           ADD     A,R0
   \   0001ED   FE           MOV     R6,A
   \   0001EE   EF           MOV     A,R7
   \   0001EF   39           ADDC    A,R1
   \   0001F0   FF           MOV     R7,A
   \   0001F1   8010         SJMP    ??initPage_9
    469                  }
    470                }
    471              }
    472              else
    473              {
    474                lost += (OSAL_NV_HDR_SIZE + sz);
   \                     ??initPage_6:
   \   0001F3   E5..         MOV     A,?V0 + 8
   \   0001F5   2408         ADD     A,#0x8
   \   0001F7   F8           MOV     R0,A
   \   0001F8   E5..         MOV     A,?V0 + 9
   \   0001FA   3400         ADDC    A,#0x0
   \   0001FC   F9           MOV     R1,A
   \   0001FD   EE           MOV     A,R6
   \   0001FE   28           ADD     A,R0
   \   0001FF   FE           MOV     R6,A
   \   000200   EF           MOV     A,R7
   \   000201   39           ADDC    A,R1
   \   000202   FF           MOV     R7,A
    475              }
    476              offset += sz;
   \                     ??initPage_9:
   \   000203   E5..         MOV     A,?V0 + 0
   \   000205   25..         ADD     A,?V0 + 8
   \   000207   F5..         MOV     ?V0 + 0,A
   \   000209   E5..         MOV     A,?V0 + 1
   \   00020B   35..         ADDC    A,?V0 + 9
   \   00020D   F5..         MOV     ?V0 + 1,A
    477          
    478            } while (offset < (OSAL_NV_PAGE_SIZE - OSAL_NV_HDR_SIZE));
   \   00020F   C3           CLR     C
   \   000210   E5..         MOV     A,?V0 + 0
   \   000212   94F8         SUBB    A,#-0x8
   \   000214   E5..         MOV     A,?V0 + 1
   \   000216   9407         SUBB    A,#0x7
   \   000218   5003         JNC     $+5
   \   00021A   02....       LJMP    ??initPage_0 & 0xFFFF
    479          
    480            pgOff[pg - OSAL_NV_PAGE_BEG] = offset;
   \                     ??initPage_2:
   \   00021D   E5..         MOV     A,?V0 + 2
   \   00021F   A8..         MOV     R0,?V0 + 2
   \   000221   7900         MOV     R1,#0x0
   \   000223   E8           MOV     A,R0
   \   000224   75F002       MOV     B,#0x2
   \   000227   A4           MUL     AB
   \   000228   C8           XCH     A,R0
   \   000229   AAF0         MOV     R2,B
   \   00022B   75F000       MOV     B,#0x0
   \   00022E   A4           MUL     AB
   \   00022F   2A           ADD     A,R2
   \   000230   FA           MOV     R2,A
   \   000231   75F002       MOV     B,#0x2
   \   000234   E9           MOV     A,R1
   \   000235   A4           MUL     AB
   \   000236   2A           ADD     A,R2
   \   000237   F9           MOV     R1,A
   \   000238   74..         MOV     A,#(pgOff + 14) & 0xff
   \   00023A   28           ADD     A,R0
   \   00023B   F582         MOV     DPL,A
   \   00023D   74..         MOV     A,#((pgOff - 242) >> 8) & 0xff
   \   00023F   39           ADDC    A,R1
   \   000240   F583         MOV     DPH,A
   \   000242   E5..         MOV     A,?V0 + 0
   \   000244   F0           MOVX    @DPTR,A
   \   000245   A3           INC     DPTR
   \   000246   E5..         MOV     A,?V0 + 1
   \   000248   F0           MOVX    @DPTR,A
    481            pgLost[pg - OSAL_NV_PAGE_BEG] = lost;
   \   000249   E5..         MOV     A,?V0 + 2
   \   00024B   A8..         MOV     R0,?V0 + 2
   \   00024D   7900         MOV     R1,#0x0
   \   00024F   E8           MOV     A,R0
   \   000250   75F002       MOV     B,#0x2
   \   000253   A4           MUL     AB
   \   000254   C8           XCH     A,R0
   \   000255   AAF0         MOV     R2,B
   \   000257   75F000       MOV     B,#0x0
   \   00025A   A4           MUL     AB
   \   00025B   2A           ADD     A,R2
   \   00025C   FA           MOV     R2,A
   \   00025D   75F002       MOV     B,#0x2
   \   000260   E9           MOV     A,R1
   \   000261   A4           MUL     AB
   \   000262   2A           ADD     A,R2
   \   000263   F9           MOV     R1,A
   \   000264   74..         MOV     A,#(pgLost + 14) & 0xff
   \   000266   28           ADD     A,R0
   \   000267   F582         MOV     DPL,A
   \   000269   74..         MOV     A,#((pgLost - 242) >> 8) & 0xff
   \   00026B   39           ADDC    A,R1
   \   00026C   F583         MOV     DPH,A
   \   00026E   EE           MOV     A,R6
   \   00026F   F0           MOVX    @DPTR,A
   \   000270   A3           INC     DPTR
   \   000271   EF           MOV     A,R7
   \   000272   F0           MOVX    @DPTR,A
    482          
    483            return OSAL_NV_ITEM_NULL;
   \   000273   7A00         MOV     R2,#0x0
   \   000275   7B00         MOV     R3,#0x0
   \                     ??initPage_14:
   \   000277   7408         MOV     A,#0x8
   \   000279   12....       LCALL   ?DEALLOC_XSTACK8
   \   00027C   7F0C         MOV     R7,#0xc
   \   00027E   02....       LJMP    ?BANKED_LEAVE_XDATA
    484          }
    485          
    486          /*********************************************************************
    487           * @fn      erasePage
    488           *
    489           * @brief   Erases a page in Flash.
    490           *
    491           * @param   pg - Valid NV page to erase.
    492           *
    493           * @return  none
    494           */

   \                                 In  segment BANKED_CODE, align 1, keep-with-next
    495          static void erasePage( uint8 pg )
   \                     erasePage:
    496          {
   \   000000   74F7         MOV     A,#-0x9
   \   000002   12....       LCALL   ?BANKED_ENTER_XDATA
   \   000005                ; Saved register size: 9
   \   000005                ; Auto size: 0
   \   000005   E9           MOV     A,R1
   \   000006   FE           MOV     R6,A
    497            HalFlashErase(pg);
   \   000007                ; Setup parameters for call to function HalFlashErase
   \   000007   EE           MOV     A,R6
   \   000008   F9           MOV     R1,A
   \   000009   12....       LCALL   ??HalFlashErase?relay
    498          
    499            pgOff[pg - OSAL_NV_PAGE_BEG] = OSAL_NV_PAGE_HDR_SIZE;
   \   00000C   EE           MOV     A,R6
   \   00000D   F8           MOV     R0,A
   \   00000E   7900         MOV     R1,#0x0
   \   000010   E8           MOV     A,R0
   \   000011   75F002       MOV     B,#0x2
   \   000014   A4           MUL     AB
   \   000015   C8           XCH     A,R0
   \   000016   AAF0         MOV     R2,B
   \   000018   75F000       MOV     B,#0x0
   \   00001B   A4           MUL     AB
   \   00001C   2A           ADD     A,R2
   \   00001D   FA           MOV     R2,A
   \   00001E   75F002       MOV     B,#0x2
   \   000021   E9           MOV     A,R1
   \   000022   A4           MUL     AB
   \   000023   2A           ADD     A,R2
   \   000024   F9           MOV     R1,A
   \   000025   74..         MOV     A,#(pgOff + 14) & 0xff
   \   000027   28           ADD     A,R0
   \   000028   F582         MOV     DPL,A
   \   00002A   74..         MOV     A,#((pgOff - 242) >> 8) & 0xff
   \   00002C   39           ADDC    A,R1
   \   00002D   F583         MOV     DPH,A
   \   00002F   7408         MOV     A,#0x8
   \   000031   F0           MOVX    @DPTR,A
   \   000032   A3           INC     DPTR
   \   000033   7400         MOV     A,#0x0
   \   000035   F0           MOVX    @DPTR,A
    500            pgLost[pg - OSAL_NV_PAGE_BEG] = 0;
   \   000036   EE           MOV     A,R6
   \   000037   F8           MOV     R0,A
   \   000038   7900         MOV     R1,#0x0
   \   00003A   E8           MOV     A,R0
   \   00003B   75F002       MOV     B,#0x2
   \   00003E   A4           MUL     AB
   \   00003F   C8           XCH     A,R0
   \   000040   AAF0         MOV     R2,B
   \   000042   75F000       MOV     B,#0x0
   \   000045   A4           MUL     AB
   \   000046   2A           ADD     A,R2
   \   000047   FA           MOV     R2,A
   \   000048   75F002       MOV     B,#0x2
   \   00004B   E9           MOV     A,R1
   \   00004C   A4           MUL     AB
   \   00004D   2A           ADD     A,R2
   \   00004E   F9           MOV     R1,A
   \   00004F   74..         MOV     A,#(pgLost + 14) & 0xff
   \   000051   28           ADD     A,R0
   \   000052   F582         MOV     DPL,A
   \   000054   74..         MOV     A,#((pgLost - 242) >> 8) & 0xff
   \   000056   39           ADDC    A,R1
   \   000057   F583         MOV     DPH,A
   \   000059   7400         MOV     A,#0x0
   \   00005B   F0           MOVX    @DPTR,A
   \   00005C   A3           INC     DPTR
   \   00005D   7400         MOV     A,#0x0
   \   00005F   F0           MOVX    @DPTR,A
    501          }
   \   000060   7F01         MOV     R7,#0x1
   \   000062   02....       LJMP    ?BANKED_LEAVE_XDATA
    502          
    503          /*********************************************************************
    504           * @fn      compactPage
    505           *
    506           * @brief   Compacts the page specified.
    507           *
    508           * @param   srcPg - Valid NV page to erase.
    509           * @param   skipId - Item Id to not compact.
    510           *
    511           * @return  TRUE if valid items from 'srcPg' are successully compacted onto the 'pgRes';
    512           *          FALSE otherwise.
    513           *          Note that on a failure, this could loop, re-erasing the 'pgRes' and re-compacting with
    514           *          the risk of infinitely looping on HAL flash failure.
    515           *          Worst case scenario: HAL flash starts failing in general, perhaps low Vdd?
    516           *          All page compactions will fail which will cause all osal_nv_write() calls to return
    517           *          NV_OPER_FAILED.
    518           *          Eventually, all pages in use may also be in the state of "pending compaction" where
    519           *          the page header member OSAL_NV_PG_XFER is zeroed out.
    520           *          During this "HAL flash brown-out", the code will run and OTA should work (until low Vdd
    521           *          causes an actual chip brown-out, of course.) Although no new NV items will be created
    522           *          or written, the last value written with a return value of SUCCESS can continue to be
    523           *          read successfully.
    524           *          If eventually HAL flash starts working again, all of the pages marked as
    525           *          "pending compaction" may or may not be eventually compacted. But, initNV() will
    526           *          deterministically clean-up one page pending compaction per power-cycle
    527           *          (if HAL flash is working.) Nevertheless, one erased reserve page will be maintained
    528           *          through such a scenario.
    529           */

   \                                 In  segment BANKED_CODE, align 1, keep-with-next
    530          static uint8 compactPage( uint8 srcPg, uint16 skipId )
   \                     compactPage:
    531          {
   \   000000   74EE         MOV     A,#-0x12
   \   000002   12....       LCALL   ?BANKED_ENTER_XDATA
   \   000005                ; Saved register size: 18
   \   000005                ; Auto size: 9
   \   000005   74F7         MOV     A,#-0x9
   \   000007   12....       LCALL   ?ALLOC_XSTACK8
   \   00000A   89..         MOV     ?V0 + 0,R1
   \   00000C   8A..         MOV     ?V0 + 2,R2
   \   00000E   8B..         MOV     ?V0 + 3,R3
    532            uint16 srcOff;
    533            uint8 rtrn;
    534          
    535            // To minimize code size, only check for a clean page here where it's absolutely required.
    536            for (srcOff = 0; srcOff < OSAL_NV_PAGE_SIZE; srcOff++)
   \   000010   7E00         MOV     R6,#0x0
   \   000012   7F00         MOV     R7,#0x0
   \                     ??compactPage_0:
   \   000014   C3           CLR     C
   \   000015   EE           MOV     A,R6
   \   000016   9400         SUBB    A,#0x0
   \   000018   EF           MOV     A,R7
   \   000019   9408         SUBB    A,#0x8
   \   00001B   5047         JNC     ??compactPage_1
    537            {
    538              HalFlashRead(pgRes, srcOff, &rtrn, 1);
   \   00001D                ; Setup parameters for call to function HalFlashRead
   \   00001D   75..01       MOV     ?V0 + 4,#0x1
   \   000020   75..00       MOV     ?V0 + 5,#0x0
   \   000023   78..         MOV     R0,#?V0 + 4
   \   000025   12....       LCALL   ?PUSH_XSTACK_I_TWO
   \   000028   7402         MOV     A,#0x2
   \   00002A   12....       LCALL   ?XSTACK_DISP0_8
   \   00002D   AC82         MOV     R4,DPL
   \   00002F   AD83         MOV     R5,DPH
   \   000031   EE           MOV     A,R6
   \   000032   FA           MOV     R2,A
   \   000033   EF           MOV     A,R7
   \   000034   FB           MOV     R3,A
   \   000035   90....       MOV     DPTR,#pgRes
   \   000038   E0           MOVX    A,@DPTR
   \   000039   F9           MOV     R1,A
   \   00003A   12....       LCALL   ??HalFlashRead?relay
   \   00003D   7402         MOV     A,#0x2
   \   00003F   12....       LCALL   ?DEALLOC_XSTACK8
    539              if (rtrn != OSAL_NV_ERASED)
   \   000042   85..82       MOV     DPL,?XSP + 0
   \   000045   85..83       MOV     DPH,?XSP + 1
   \   000048   E0           MOVX    A,@DPTR
   \   000049   64FF         XRL     A,#0xff
   \   00004B   600D         JZ      ??compactPage_2
    540              {
    541                erasePage(pgRes);
   \   00004D                ; Setup parameters for call to function erasePage
   \   00004D   90....       MOV     DPTR,#pgRes
   \   000050   E0           MOVX    A,@DPTR
   \   000051   F9           MOV     R1,A
   \   000052   12....       LCALL   ??erasePage?relay
    542                return FALSE;
   \   000055   7900         MOV     R1,#0x0
   \   000057   02....       LJMP    ??compactPage_3 & 0xFFFF
    543              }
    544            }
   \                     ??compactPage_2:
   \   00005A   EE           MOV     A,R6
   \   00005B   2401         ADD     A,#0x1
   \   00005D   FE           MOV     R6,A
   \   00005E   EF           MOV     A,R7
   \   00005F   3400         ADDC    A,#0x0
   \   000061   FF           MOV     R7,A
   \   000062   80B0         SJMP    ??compactPage_0
    545          
    546            srcOff = OSAL_NV_PAGE_HDR_SIZE;
   \                     ??compactPage_1:
   \   000064   7E08         MOV     R6,#0x8
   \   000066   7F00         MOV     R7,#0x0
    547            rtrn = TRUE;
   \   000068   85..82       MOV     DPL,?XSP + 0
   \   00006B   85..83       MOV     DPH,?XSP + 1
   \   00006E   7401         MOV     A,#0x1
   \   000070   F0           MOVX    @DPTR,A
    548          
    549            while ( srcOff < (OSAL_NV_PAGE_SIZE - OSAL_NV_HDR_SIZE ) )
   \                     ??compactPage_4:
   \   000071   C3           CLR     C
   \   000072   EE           MOV     A,R6
   \   000073   94F8         SUBB    A,#-0x8
   \   000075   EF           MOV     A,R7
   \   000076   9407         SUBB    A,#0x7
   \   000078   4003         JC      $+5
   \   00007A   02....       LJMP    ??compactPage_5 & 0xFFFF
    550            {
    551              osalNvHdr_t hdr;
    552              uint16 sz, dstOff = pgOff[pgRes-OSAL_NV_PAGE_BEG];
   \   00007D   90....       MOV     DPTR,#pgRes
   \   000080   E0           MOVX    A,@DPTR
   \   000081   F8           MOV     R0,A
   \   000082   7900         MOV     R1,#0x0
   \   000084   E8           MOV     A,R0
   \   000085   75F002       MOV     B,#0x2
   \   000088   A4           MUL     AB
   \   000089   C8           XCH     A,R0
   \   00008A   AAF0         MOV     R2,B
   \   00008C   75F000       MOV     B,#0x0
   \   00008F   A4           MUL     AB
   \   000090   2A           ADD     A,R2
   \   000091   FA           MOV     R2,A
   \   000092   75F002       MOV     B,#0x2
   \   000095   E9           MOV     A,R1
   \   000096   A4           MUL     AB
   \   000097   2A           ADD     A,R2
   \   000098   F9           MOV     R1,A
   \   000099   74..         MOV     A,#(pgOff + 14) & 0xff
   \   00009B   28           ADD     A,R0
   \   00009C   F582         MOV     DPL,A
   \   00009E   74..         MOV     A,#((pgOff - 242) >> 8) & 0xff
   \   0000A0   39           ADDC    A,R1
   \   0000A1   F583         MOV     DPH,A
   \   0000A3   E0           MOVX    A,@DPTR
   \   0000A4   F5..         MOV     ?V0 + 6,A
   \   0000A6   A3           INC     DPTR
   \   0000A7   E0           MOVX    A,@DPTR
   \   0000A8   F5..         MOV     ?V0 + 7,A
    553          
    554              HalFlashRead(srcPg, srcOff, (uint8 *)(&hdr), OSAL_NV_HDR_SIZE);
   \   0000AA                ; Setup parameters for call to function HalFlashRead
   \   0000AA   75..08       MOV     ?V0 + 8,#0x8
   \   0000AD   75..00       MOV     ?V0 + 9,#0x0
   \   0000B0   78..         MOV     R0,#?V0 + 8
   \   0000B2   12....       LCALL   ?PUSH_XSTACK_I_TWO
   \   0000B5   7403         MOV     A,#0x3
   \   0000B7   12....       LCALL   ?XSTACK_DISP0_8
   \   0000BA   AC82         MOV     R4,DPL
   \   0000BC   AD83         MOV     R5,DPH
   \   0000BE   EE           MOV     A,R6
   \   0000BF   FA           MOV     R2,A
   \   0000C0   EF           MOV     A,R7
   \   0000C1   FB           MOV     R3,A
   \   0000C2   A9..         MOV     R1,?V0 + 0
   \   0000C4   12....       LCALL   ??HalFlashRead?relay
   \   0000C7   7402         MOV     A,#0x2
   \   0000C9   12....       LCALL   ?DEALLOC_XSTACK8
    555          
    556              if ( hdr.id == OSAL_NV_ERASED_ID )
   \   0000CC   7401         MOV     A,#0x1
   \   0000CE   12....       LCALL   ?XSTACK_DISP0_8
   \   0000D1   E0           MOVX    A,@DPTR
   \   0000D2   64FF         XRL     A,#0xff
   \   0000D4   7004         JNZ     ??compactPage_6
   \   0000D6   A3           INC     DPTR
   \   0000D7   E0           MOVX    A,@DPTR
   \   0000D8   64FF         XRL     A,#0xff
   \                     ??compactPage_6:
   \   0000DA   7003         JNZ     $+5
   \   0000DC   02....       LJMP    ??compactPage_5 & 0xFFFF
    557              {
    558                break;
    559              }
    560          
    561              // Get the actual size in bytes which is the ceiling(hdr.len)
    562              sz = OSAL_NV_DATA_SIZE( hdr.len );
   \   0000DF   7403         MOV     A,#0x3
   \   0000E1   12....       LCALL   ?XSTACK_DISP0_8
   \   0000E4   C3           CLR     C
   \   0000E5   E0           MOVX    A,@DPTR
   \   0000E6   94FC         SUBB    A,#-0x4
   \   0000E8   A3           INC     DPTR
   \   0000E9   E0           MOVX    A,@DPTR
   \   0000EA   94FF         SUBB    A,#-0x1
   \   0000EC   4008         JC      ??compactPage_7
   \   0000EE   75..FC       MOV     ?V0 + 4,#-0x4
   \   0000F1   75..FF       MOV     ?V0 + 5,#-0x1
   \   0000F4   8030         SJMP    ??compactPage_8
   \                     ??compactPage_7:
   \   0000F6   7403         MOV     A,#0x3
   \   0000F8   12....       LCALL   ?XSTACK_DISP0_8
   \   0000FB   E0           MOVX    A,@DPTR
   \   0000FC   2403         ADD     A,#0x3
   \   0000FE   F5..         MOV     ?V0 + 4,A
   \   000100   A3           INC     DPTR
   \   000101   E0           MOVX    A,@DPTR
   \   000102   3400         ADDC    A,#0x0
   \   000104   F5..         MOV     ?V0 + 5,A
   \   000106   7402         MOV     A,#0x2
   \   000108   78..         MOV     R0,#?V0 + 4
   \   00010A   12....       LCALL   ?US_SHR
   \   00010D   E5..         MOV     A,?V0 + 4
   \   00010F   75F004       MOV     B,#0x4
   \   000112   A4           MUL     AB
   \   000113   C5..         XCH     A,?V0 + 4
   \   000115   A8F0         MOV     R0,B
   \   000117   75F000       MOV     B,#0x0
   \   00011A   A4           MUL     AB
   \   00011B   28           ADD     A,R0
   \   00011C   F8           MOV     R0,A
   \   00011D   75F004       MOV     B,#0x4
   \   000120   E5..         MOV     A,?V0 + 5
   \   000122   A4           MUL     AB
   \   000123   28           ADD     A,R0
   \   000124   F5..         MOV     ?V0 + 5,A
    563          
    564              if ( sz > (OSAL_NV_PAGE_SIZE - OSAL_NV_HDR_SIZE - srcOff) )
   \                     ??compactPage_8:
   \   000126   74F8         MOV     A,#-0x8
   \   000128   C3           CLR     C
   \   000129   9E           SUBB    A,R6
   \   00012A   F8           MOV     R0,A
   \   00012B   7407         MOV     A,#0x7
   \   00012D   9F           SUBB    A,R7
   \   00012E   F9           MOV     R1,A
   \   00012F   C3           CLR     C
   \   000130   E8           MOV     A,R0
   \   000131   95..         SUBB    A,?V0 + 4
   \   000133   E9           MOV     A,R1
   \   000134   95..         SUBB    A,?V0 + 5
   \   000136   5003         JNC     $+5
   \   000138   02....       LJMP    ??compactPage_5 & 0xFFFF
    565              {
    566                break;
    567              }
    568          
    569              if ( sz > (OSAL_NV_PAGE_SIZE - OSAL_NV_HDR_SIZE - dstOff) )
   \   00013B   74F8         MOV     A,#-0x8
   \   00013D   C3           CLR     C
   \   00013E   95..         SUBB    A,?V0 + 6
   \   000140   F8           MOV     R0,A
   \   000141   7407         MOV     A,#0x7
   \   000143   95..         SUBB    A,?V0 + 7
   \   000145   F9           MOV     R1,A
   \   000146   C3           CLR     C
   \   000147   E8           MOV     A,R0
   \   000148   95..         SUBB    A,?V0 + 4
   \   00014A   E9           MOV     A,R1
   \   00014B   95..         SUBB    A,?V0 + 5
   \   00014D   500C         JNC     ??compactPage_9
    570              {
    571                rtrn = FALSE;
   \   00014F   85..82       MOV     DPL,?XSP + 0
   \   000152   85..83       MOV     DPH,?XSP + 1
   \   000155   7400         MOV     A,#0x0
   \   000157   F0           MOVX    @DPTR,A
    572                break;
   \   000158   02....       LJMP    ??compactPage_5 & 0xFFFF
    573              }
    574          
    575              srcOff += OSAL_NV_HDR_SIZE;
   \                     ??compactPage_9:
   \   00015B   EE           MOV     A,R6
   \   00015C   2408         ADD     A,#0x8
   \   00015E   FE           MOV     R6,A
   \   00015F   EF           MOV     A,R7
   \   000160   3400         ADDC    A,#0x0
   \   000162   FF           MOV     R7,A
    576          
    577              if ( (hdr.id != OSAL_NV_ZEROED_ID) && (hdr.id != skipId) )
   \   000163   7401         MOV     A,#0x1
   \   000165   12....       LCALL   ?XSTACK_DISP0_8
   \   000168   E0           MOVX    A,@DPTR
   \   000169   F8           MOV     R0,A
   \   00016A   A3           INC     DPTR
   \   00016B   E0           MOVX    A,@DPTR
   \   00016C   F9           MOV     R1,A
   \   00016D   E8           MOV     A,R0
   \   00016E   49           ORL     A,R1
   \   00016F   7003         JNZ     $+5
   \   000171   02....       LJMP    ??compactPage_10 & 0xFFFF
   \   000174   7401         MOV     A,#0x1
   \   000176   12....       LCALL   ?XSTACK_DISP0_8
   \   000179   E0           MOVX    A,@DPTR
   \   00017A   65..         XRL     A,?V0 + 2
   \   00017C   7004         JNZ     ??compactPage_11
   \   00017E   A3           INC     DPTR
   \   00017F   E0           MOVX    A,@DPTR
   \   000180   65..         XRL     A,?V0 + 3
   \                     ??compactPage_11:
   \   000182   7003         JNZ     $+5
   \   000184   02....       LJMP    ??compactPage_10 & 0xFFFF
    578              {
    579                if ( hdr.chk == calcChkF( srcPg, srcOff, hdr.len ) )
   \   000187                ; Setup parameters for call to function calcChkF
   \   000187   7403         MOV     A,#0x3
   \   000189   12....       LCALL   ?XSTACK_DISP0_8
   \   00018C   E0           MOVX    A,@DPTR
   \   00018D   FC           MOV     R4,A
   \   00018E   A3           INC     DPTR
   \   00018F   E0           MOVX    A,@DPTR
   \   000190   FD           MOV     R5,A
   \   000191   EE           MOV     A,R6
   \   000192   FA           MOV     R2,A
   \   000193   EF           MOV     A,R7
   \   000194   FB           MOV     R3,A
   \   000195   A9..         MOV     R1,?V0 + 0
   \   000197   12....       LCALL   ??calcChkF?relay
   \   00019A   8A..         MOV     ?V0 + 8,R2
   \   00019C   8B..         MOV     ?V0 + 9,R3
   \   00019E   A8..         MOV     R0,?V0 + 8
   \   0001A0   A9..         MOV     R1,?V0 + 9
   \   0001A2   7405         MOV     A,#0x5
   \   0001A4   12....       LCALL   ?XSTACK_DISP0_8
   \   0001A7   E0           MOVX    A,@DPTR
   \   0001A8   68           XRL     A,R0
   \   0001A9   7003         JNZ     ??compactPage_12
   \   0001AB   A3           INC     DPTR
   \   0001AC   E0           MOVX    A,@DPTR
   \   0001AD   69           XRL     A,R1
   \                     ??compactPage_12:
   \   0001AE   6003         JZ      $+5
   \   0001B0   02....       LJMP    ??compactPage_10 & 0xFFFF
    580                {
    581                  /* Prevent excessive re-writes to item header caused by numerous, rapid, & successive
    582                   * OSAL_Nv interruptions caused by resets.
    583                   */
    584                  if ( hdr.stat == OSAL_NV_ERASED_ID )
   \   0001B3   7407         MOV     A,#0x7
   \   0001B5   12....       LCALL   ?XSTACK_DISP0_8
   \   0001B8   E0           MOVX    A,@DPTR
   \   0001B9   64FF         XRL     A,#0xff
   \   0001BB   7004         JNZ     ??compactPage_13
   \   0001BD   A3           INC     DPTR
   \   0001BE   E0           MOVX    A,@DPTR
   \   0001BF   64FF         XRL     A,#0xff
   \                     ??compactPage_13:
   \   0001C1   700B         JNZ     ??compactPage_14
    585                  {
    586                    setItem( srcPg, srcOff, eNvXfer );
   \   0001C3                ; Setup parameters for call to function setItem
   \   0001C3   7C00         MOV     R4,#0x0
   \   0001C5   EE           MOV     A,R6
   \   0001C6   FA           MOV     R2,A
   \   0001C7   EF           MOV     A,R7
   \   0001C8   FB           MOV     R3,A
   \   0001C9   A9..         MOV     R1,?V0 + 0
   \   0001CB   12....       LCALL   ??setItem?relay
    587                  }
    588          
    589                  if ( writeItem( pgRes, hdr.id, hdr.len, NULL, FALSE ) )
   \                     ??compactPage_14:
   \   0001CE                ; Setup parameters for call to function writeItem
   \   0001CE   75..00       MOV     ?V0 + 1,#0x0
   \   0001D1   78..         MOV     R0,#?V0 + 1
   \   0001D3   12....       LCALL   ?PUSH_XSTACK_I_ONE
   \   0001D6   E4           CLR     A
   \   0001D7   F5..         MOV     ?V0 + 8,A
   \   0001D9   F5..         MOV     ?V0 + 9,A
   \   0001DB   78..         MOV     R0,#?V0 + 8
   \   0001DD   12....       LCALL   ?PUSH_XSTACK_I_TWO
   \   0001E0   7406         MOV     A,#0x6
   \   0001E2   12....       LCALL   ?XSTACK_DISP0_8
   \   0001E5   E0           MOVX    A,@DPTR
   \   0001E6   FC           MOV     R4,A
   \   0001E7   A3           INC     DPTR
   \   0001E8   E0           MOVX    A,@DPTR
   \   0001E9   FD           MOV     R5,A
   \   0001EA   7404         MOV     A,#0x4
   \   0001EC   12....       LCALL   ?XSTACK_DISP0_8
   \   0001EF   E0           MOVX    A,@DPTR
   \   0001F0   FA           MOV     R2,A
   \   0001F1   A3           INC     DPTR
   \   0001F2   E0           MOVX    A,@DPTR
   \   0001F3   FB           MOV     R3,A
   \   0001F4   90....       MOV     DPTR,#pgRes
   \   0001F7   E0           MOVX    A,@DPTR
   \   0001F8   F9           MOV     R1,A
   \   0001F9   12....       LCALL   ??writeItem?relay
   \   0001FC   7403         MOV     A,#0x3
   \   0001FE   12....       LCALL   ?DEALLOC_XSTACK8
   \   000201   E9           MOV     A,R1
   \   000202   7003         JNZ     $+5
   \   000204   02....       LJMP    ??compactPage_15 & 0xFFFF
    590                  {
    591                    dstOff += OSAL_NV_HDR_SIZE;
   \   000207   E5..         MOV     A,?V0 + 6
   \   000209   2408         ADD     A,#0x8
   \   00020B   F5..         MOV     ?V0 + 6,A
   \   00020D   E5..         MOV     A,?V0 + 7
   \   00020F   3400         ADDC    A,#0x0
   \   000211   F5..         MOV     ?V0 + 7,A
    592                    xferBuf( srcPg, srcOff, pgRes, dstOff, sz );
   \   000213                ; Setup parameters for call to function xferBuf
   \   000213   78..         MOV     R0,#?V0 + 4
   \   000215   12....       LCALL   ?PUSH_XSTACK_I_TWO
   \   000218   78..         MOV     R0,#?V0 + 6
   \   00021A   12....       LCALL   ?PUSH_XSTACK_I_TWO
   \   00021D   90....       MOV     DPTR,#pgRes
   \   000220   E0           MOVX    A,@DPTR
   \   000221   FC           MOV     R4,A
   \   000222   EE           MOV     A,R6
   \   000223   FA           MOV     R2,A
   \   000224   EF           MOV     A,R7
   \   000225   FB           MOV     R3,A
   \   000226   A9..         MOV     R1,?V0 + 0
   \   000228   12....       LCALL   ??xferBuf?relay
   \   00022B   7404         MOV     A,#0x4
   \   00022D   12....       LCALL   ?DEALLOC_XSTACK8
    593                    // Calculate and write the new checksum.
    594                    if (hdr.chk == calcChkF(pgRes, dstOff, hdr.len))
   \   000230                ; Setup parameters for call to function calcChkF
   \   000230   7403         MOV     A,#0x3
   \   000232   12....       LCALL   ?XSTACK_DISP0_8
   \   000235   E0           MOVX    A,@DPTR
   \   000236   FC           MOV     R4,A
   \   000237   A3           INC     DPTR
   \   000238   E0           MOVX    A,@DPTR
   \   000239   FD           MOV     R5,A
   \   00023A   AA..         MOV     R2,?V0 + 6
   \   00023C   AB..         MOV     R3,?V0 + 7
   \   00023E   90....       MOV     DPTR,#pgRes
   \   000241   E0           MOVX    A,@DPTR
   \   000242   F9           MOV     R1,A
   \   000243   12....       LCALL   ??calcChkF?relay
   \   000246   8A..         MOV     ?V0 + 8,R2
   \   000248   8B..         MOV     ?V0 + 9,R3
   \   00024A   A8..         MOV     R0,?V0 + 8
   \   00024C   A9..         MOV     R1,?V0 + 9
   \   00024E   7405         MOV     A,#0x5
   \   000250   12....       LCALL   ?XSTACK_DISP0_8
   \   000253   E0           MOVX    A,@DPTR
   \   000254   68           XRL     A,R0
   \   000255   7003         JNZ     ??compactPage_16
   \   000257   A3           INC     DPTR
   \   000258   E0           MOVX    A,@DPTR
   \   000259   69           XRL     A,R1
   \                     ??compactPage_16:
   \   00025A   704F         JNZ     ??compactPage_17
    595                    {
    596                      if ( hdr.chk != setChk( pgRes, dstOff, hdr.chk ) )
   \   00025C                ; Setup parameters for call to function setChk
   \   00025C   7405         MOV     A,#0x5
   \   00025E   12....       LCALL   ?XSTACK_DISP0_8
   \   000261   E0           MOVX    A,@DPTR
   \   000262   FC           MOV     R4,A
   \   000263   A3           INC     DPTR
   \   000264   E0           MOVX    A,@DPTR
   \   000265   FD           MOV     R5,A
   \   000266   AA..         MOV     R2,?V0 + 6
   \   000268   AB..         MOV     R3,?V0 + 7
   \   00026A   90....       MOV     DPTR,#pgRes
   \   00026D   E0           MOVX    A,@DPTR
   \   00026E   F9           MOV     R1,A
   \   00026F   12....       LCALL   ??setChk?relay
   \   000272   8A..         MOV     ?V0 + 8,R2
   \   000274   8B..         MOV     ?V0 + 9,R3
   \   000276   A8..         MOV     R0,?V0 + 8
   \   000278   A9..         MOV     R1,?V0 + 9
   \   00027A   7405         MOV     A,#0x5
   \   00027C   12....       LCALL   ?XSTACK_DISP0_8
   \   00027F   E0           MOVX    A,@DPTR
   \   000280   68           XRL     A,R0
   \   000281   7003         JNZ     ??compactPage_18
   \   000283   A3           INC     DPTR
   \   000284   E0           MOVX    A,@DPTR
   \   000285   69           XRL     A,R1
   \                     ??compactPage_18:
   \   000286   600B         JZ      ??compactPage_19
    597                      {
    598                        rtrn = FALSE;
   \   000288   85..82       MOV     DPL,?XSP + 0
   \   00028B   85..83       MOV     DPH,?XSP + 1
   \   00028E   7400         MOV     A,#0x0
   \   000290   F0           MOVX    @DPTR,A
    599                        break;
   \   000291   8039         SJMP    ??compactPage_5
    600                      }
    601                      else
    602                      {
    603                        hotItemUpdate(pgRes, dstOff, hdr.id);
   \                     ??compactPage_19:
   \   000293                ; Setup parameters for call to function hotItemUpdate
   \   000293   7401         MOV     A,#0x1
   \   000295   12....       LCALL   ?XSTACK_DISP0_8
   \   000298   E0           MOVX    A,@DPTR
   \   000299   FC           MOV     R4,A
   \   00029A   A3           INC     DPTR
   \   00029B   E0           MOVX    A,@DPTR
   \   00029C   FD           MOV     R5,A
   \   00029D   AA..         MOV     R2,?V0 + 6
   \   00029F   AB..         MOV     R3,?V0 + 7
   \   0002A1   90....       MOV     DPTR,#pgRes
   \   0002A4   E0           MOVX    A,@DPTR
   \   0002A5   F9           MOV     R1,A
   \   0002A6   12....       LCALL   ??hotItemUpdate?relay
   \   0002A9   8016         SJMP    ??compactPage_10
    604                      }
    605                    }
    606                    else
    607                    {
    608                      rtrn = FALSE;
   \                     ??compactPage_17:
   \   0002AB   85..82       MOV     DPL,?XSP + 0
   \   0002AE   85..83       MOV     DPH,?XSP + 1
   \   0002B1   7400         MOV     A,#0x0
   \   0002B3   F0           MOVX    @DPTR,A
    609                      break;
   \   0002B4   8016         SJMP    ??compactPage_5
    610                    }
    611                  }
    612                  else
    613                  {
    614                    rtrn = FALSE;
   \                     ??compactPage_15:
   \   0002B6   85..82       MOV     DPL,?XSP + 0
   \   0002B9   85..83       MOV     DPH,?XSP + 1
   \   0002BC   7400         MOV     A,#0x0
   \   0002BE   F0           MOVX    @DPTR,A
    615                    break;
   \   0002BF   800B         SJMP    ??compactPage_5
    616                  }
    617                }
    618              }
    619          
    620              srcOff += sz;
   \                     ??compactPage_10:
   \   0002C1   EE           MOV     A,R6
   \   0002C2   25..         ADD     A,?V0 + 4
   \   0002C4   FE           MOV     R6,A
   \   0002C5   EF           MOV     A,R7
   \   0002C6   35..         ADDC    A,?V0 + 5
   \   0002C8   FF           MOV     R7,A
   \   0002C9   02....       LJMP    ??compactPage_4 & 0xFFFF
    621            }
    622          
    623            if (rtrn == FALSE)
   \                     ??compactPage_5:
   \   0002CC   85..82       MOV     DPL,?XSP + 0
   \   0002CF   85..83       MOV     DPH,?XSP + 1
   \   0002D2   E0           MOVX    A,@DPTR
   \   0002D3   700A         JNZ     ??compactPage_20
    624            {
    625              erasePage(pgRes);
   \   0002D5                ; Setup parameters for call to function erasePage
   \   0002D5   90....       MOV     DPTR,#pgRes
   \   0002D8   E0           MOVX    A,@DPTR
   \   0002D9   F9           MOV     R1,A
   \   0002DA   12....       LCALL   ??erasePage?relay
   \   0002DD   801B         SJMP    ??compactPage_21
    626            }
    627            else if (skipId == OSAL_NV_ITEM_NULL)
   \                     ??compactPage_20:
   \   0002DF   E5..         MOV     A,?V0 + 2
   \   0002E1   45..         ORL     A,?V0 + 3
   \   0002E3   7015         JNZ     ??compactPage_21
    628            {
    629              COMPACT_PAGE_CLEANUP(srcPg);
   \   0002E5                ; Setup parameters for call to function setPageUse
   \   0002E5   7A01         MOV     R2,#0x1
   \   0002E7   90....       MOV     DPTR,#pgRes
   \   0002EA   E0           MOVX    A,@DPTR
   \   0002EB   F9           MOV     R1,A
   \   0002EC   12....       LCALL   ??setPageUse?relay
   \   0002EF                ; Setup parameters for call to function erasePage
   \   0002EF   A9..         MOV     R1,?V0 + 0
   \   0002F1   12....       LCALL   ??erasePage?relay
   \   0002F4   E5..         MOV     A,?V0 + 0
   \   0002F6   90....       MOV     DPTR,#pgRes
   \   0002F9   F0           MOVX    @DPTR,A
    630            }
    631            // else invoking function must cleanup.
    632          
    633            return rtrn;
   \                     ??compactPage_21:
   \   0002FA   85..82       MOV     DPL,?XSP + 0
   \   0002FD   85..83       MOV     DPH,?XSP + 1
   \   000300   E0           MOVX    A,@DPTR
   \   000301   F9           MOV     R1,A
   \                     ??compactPage_3:
   \   000302   7409         MOV     A,#0x9
   \   000304   12....       LCALL   ?DEALLOC_XSTACK8
   \   000307   7F0A         MOV     R7,#0xa
   \   000309   02....       LJMP    ?BANKED_LEAVE_XDATA
    634          }
    635          
    636          /*********************************************************************
    637           * @fn      findItem
    638           *
    639           * @brief   Find an item Id in NV and return the page and offset to its data.
    640           *
    641           * @param   id - Valid NV item Id.
    642           *
    643           * @return  Offset of data corresponding to item Id, if found;
    644           *          otherwise OSAL_NV_ITEM_NULL.
    645           *
    646           *          The page containing the item, if found;
    647           *          otherwise no valid assignment made - left equal to item Id.
    648           *
    649           */

   \                                 In  segment BANKED_CODE, align 1, keep-with-next
    650          static uint16 findItem( uint16 id )
   \                     findItem:
    651          {
   \   000000   74F2         MOV     A,#-0xe
   \   000002   12....       LCALL   ?BANKED_ENTER_XDATA
   \   000005                ; Saved register size: 14
   \   000005                ; Auto size: 0
   \   000005   EA           MOV     A,R2
   \   000006   FE           MOV     R6,A
   \   000007   EB           MOV     A,R3
   \   000008   FF           MOV     R7,A
    652            uint16 off;
    653            uint8 pg;
    654          
    655            for ( pg = OSAL_NV_PAGE_BEG; pg <= OSAL_NV_PAGE_END; pg++ )
   \   000009   75..79       MOV     ?V0 + 2,#0x79
   \                     ??findItem_0:
   \   00000C   E5..         MOV     A,?V0 + 2
   \   00000E   C3           CLR     C
   \   00000F   947F         SUBB    A,#0x7f
   \   000011   502B         JNC     ??findItem_1
    656            {
    657              if ( (off = initPage( pg, id, FALSE )) != OSAL_NV_ITEM_NULL )
   \   000013                ; Setup parameters for call to function initPage
   \   000013   7C00         MOV     R4,#0x0
   \   000015   EE           MOV     A,R6
   \   000016   FA           MOV     R2,A
   \   000017   EF           MOV     A,R7
   \   000018   FB           MOV     R3,A
   \   000019   A9..         MOV     R1,?V0 + 2
   \   00001B   12....       LCALL   ??initPage?relay
   \   00001E   8A..         MOV     ?V0 + 4,R2
   \   000020   8B..         MOV     ?V0 + 5,R3
   \   000022   A8..         MOV     R0,?V0 + 4
   \   000024   A9..         MOV     R1,?V0 + 5
   \   000026   88..         MOV     ?V0 + 0,R0
   \   000028   89..         MOV     ?V0 + 1,R1
   \   00002A   E8           MOV     A,R0
   \   00002B   49           ORL     A,R1
   \   00002C   600C         JZ      ??findItem_2
    658              {
    659                findPg = pg;
   \   00002E   E5..         MOV     A,?V0 + 2
   \   000030   90....       MOV     DPTR,#findPg
   \   000033   F0           MOVX    @DPTR,A
    660                return off;
   \   000034   AA..         MOV     R2,?V0 + 0
   \   000036   AB..         MOV     R3,?V0 + 1
   \   000038   8027         SJMP    ??findItem_3
    661              }
    662            }
   \                     ??findItem_2:
   \   00003A   05..         INC     ?V0 + 2
   \   00003C   80CE         SJMP    ??findItem_0
    663          
    664            // Now attempt to find the item as the "old" item of a failed/interrupted NV write.
    665            if ( (id & OSAL_NV_SOURCE_ID) == 0 )
   \                     ??findItem_1:
   \   00003E   EE           MOV     A,R6
   \   00003F   5400         ANL     A,#0x0
   \   000041   F8           MOV     R0,A
   \   000042   EF           MOV     A,R7
   \   000043   5480         ANL     A,#0x80
   \   000045   F9           MOV     R1,A
   \   000046   E8           MOV     A,R0
   \   000047   49           ORL     A,R1
   \   000048   700D         JNZ     ??findItem_4
    666            {
    667              return findItem( id | OSAL_NV_SOURCE_ID );
   \   00004A                ; Setup parameters for call to function findItem
   \   00004A   EE           MOV     A,R6
   \   00004B   4400         ORL     A,#0x0
   \   00004D   FA           MOV     R2,A
   \   00004E   EF           MOV     A,R7
   \   00004F   4480         ORL     A,#0x80
   \   000051   FB           MOV     R3,A
   \   000052   12....       LCALL   ??findItem?relay
   \   000055   800A         SJMP    ??findItem_3
    668            }
    669            else
    670            {
    671              findPg = OSAL_NV_PAGE_NULL;
   \                     ??findItem_4:
   \   000057   90....       MOV     DPTR,#findPg
   \   00005A   7400         MOV     A,#0x0
   \   00005C   F0           MOVX    @DPTR,A
    672              return OSAL_NV_ITEM_NULL;
   \   00005D   7A00         MOV     R2,#0x0
   \   00005F   7B00         MOV     R3,#0x0
   \                     ??findItem_3:
   \   000061   7F06         MOV     R7,#0x6
   \   000063   02....       LJMP    ?BANKED_LEAVE_XDATA
    673            }
    674          }
    675          
    676          /*********************************************************************
    677           * @fn      initItem
    678           *
    679           * @brief   An NV item is created and initialized with the data passed to the function, if any.
    680           *
    681           * @param   flag - TRUE if the 'buf' parameter contains data for the call to writeItem().
    682           *                 (i.e. if invoked from osal_nv_item_init() ).
    683           *                 FALSE if writeItem() should just write the header and the 'buf' parameter
    684           *                 is ok to use as a return value of the page number to be cleaned with
    685           *                 COMPACT_PAGE_CLEANUP().
    686           *                 (i.e. if invoked from osal_nv_write() ).
    687           * @param   id  - Valid NV item Id.
    688           * @param   len - Item data length.
    689           * @param  *buf - Pointer to item initalization data. Set to NULL if none.
    690           *
    691           * @return  The OSAL Nv page number if item write and read back checksums ok;
    692           *          OSAL_NV_PAGE_NULL otherwise.
    693           */

   \                                 In  segment BANKED_CODE, align 1, keep-with-next
    694          static uint8 initItem( uint8 flag, uint16 id, uint16 len, void *buf )
   \                     initItem:
    695          {
   \   000000   74EE         MOV     A,#-0x12
   \   000002   12....       LCALL   ?BANKED_ENTER_XDATA
   \   000005                ; Saved register size: 18
   \   000005                ; Auto size: 10
   \   000005   74F6         MOV     A,#-0xa
   \   000007   12....       LCALL   ?ALLOC_XSTACK8
   \   00000A   89..         MOV     ?V0 + 1,R1
   \   00000C   8A..         MOV     ?V0 + 4,R2
   \   00000E   8B..         MOV     ?V0 + 5,R3
   \   000010   8C..         MOV     ?V0 + 2,R4
   \   000012   8D..         MOV     ?V0 + 3,R5
   \   000014   741C         MOV     A,#0x1c
   \   000016   12....       LCALL   ?XSTACK_DISP0_8
   \   000019   E0           MOVX    A,@DPTR
   \   00001A   F5..         MOV     ?V0 + 6,A
   \   00001C   A3           INC     DPTR
   \   00001D   E0           MOVX    A,@DPTR
   \   00001E   F5..         MOV     ?V0 + 7,A
    696            uint16 sz = OSAL_NV_ITEM_SIZE( len );
   \   000020   C3           CLR     C
   \   000021   E5..         MOV     A,?V0 + 2
   \   000023   94F4         SUBB    A,#-0xc
   \   000025   E5..         MOV     A,?V0 + 3
   \   000027   94FF         SUBB    A,#-0x1
   \   000029   400F         JC      ??initItem_0
   \   00002B   85..82       MOV     DPL,?XSP + 0
   \   00002E   85..83       MOV     DPH,?XSP + 1
   \   000031   74FC         MOV     A,#-0x4
   \   000033   F0           MOVX    @DPTR,A
   \   000034   A3           INC     DPTR
   \   000035   74FF         MOV     A,#-0x1
   \   000037   F0           MOVX    @DPTR,A
   \   000038   8041         SJMP    ??initItem_1
   \                     ??initItem_0:
   \   00003A   E5..         MOV     A,?V0 + 2
   \   00003C   2403         ADD     A,#0x3
   \   00003E   F5..         MOV     ?V0 + 8,A
   \   000040   E5..         MOV     A,?V0 + 3
   \   000042   3400         ADDC    A,#0x0
   \   000044   F5..         MOV     ?V0 + 9,A
   \   000046   7402         MOV     A,#0x2
   \   000048   78..         MOV     R0,#?V0 + 8
   \   00004A   12....       LCALL   ?US_SHR
   \   00004D   E5..         MOV     A,?V0 + 8
   \   00004F   75F004       MOV     B,#0x4
   \   000052   A4           MUL     AB
   \   000053   C5..         XCH     A,?V0 + 8
   \   000055   A8F0         MOV     R0,B
   \   000057   75F000       MOV     B,#0x0
   \   00005A   A4           MUL     AB
   \   00005B   28           ADD     A,R0
   \   00005C   F8           MOV     R0,A
   \   00005D   75F004       MOV     B,#0x4
   \   000060   E5..         MOV     A,?V0 + 9
   \   000062   A4           MUL     AB
   \   000063   28           ADD     A,R0
   \   000064   F5..         MOV     ?V0 + 9,A
   \   000066   E5..         MOV     A,?V0 + 8
   \   000068   2408         ADD     A,#0x8
   \   00006A   F8           MOV     R0,A
   \   00006B   E5..         MOV     A,?V0 + 9
   \   00006D   3400         ADDC    A,#0x0
   \   00006F   F9           MOV     R1,A
   \   000070   85..82       MOV     DPL,?XSP + 0
   \   000073   85..83       MOV     DPH,?XSP + 1
   \   000076   E8           MOV     A,R0
   \   000077   F0           MOVX    @DPTR,A
   \   000078   A3           INC     DPTR
   \   000079   E9           MOV     A,R1
   \   00007A   F0           MOVX    @DPTR,A
    697            uint8 rtrn = OSAL_NV_PAGE_NULL;
   \                     ??initItem_1:
   \   00007B   7F00         MOV     R7,#0x0
    698            uint8 cnt = OSAL_NV_PAGES_USED;
   \   00007D   75..06       MOV     ?V0 + 0,#0x6
    699            uint8 pg = pgRes+1;  // Set to 1 after the reserve page to even wear across all available pages.
   \   000080   90....       MOV     DPTR,#pgRes
   \   000083   E0           MOVX    A,@DPTR
   \   000084   2401         ADD     A,#0x1
   \   000086   FE           MOV     R6,A
    700          
    701            do {
    702              if (pg >= OSAL_NV_PAGE_BEG+OSAL_NV_PAGES_USED)
   \                     ??initItem_2:
   \   000087   EE           MOV     A,R6
   \   000088   C3           CLR     C
   \   000089   947F         SUBB    A,#0x7f
   \   00008B   4002         JC      ??initItem_3
    703              {
    704                pg = OSAL_NV_PAGE_BEG;
   \   00008D   7E79         MOV     R6,#0x79
    705              }
    706              if ( pg != pgRes )
   \                     ??initItem_3:
   \   00008F   90....       MOV     DPTR,#pgRes
   \   000092   E0           MOVX    A,@DPTR
   \   000093   6E           XRL     A,R6
   \   000094   6071         JZ      ??initItem_4
    707              {
    708                uint8 idx = pg - OSAL_NV_PAGE_BEG;
   \   000096   7487         MOV     A,#-0x79
   \   000098   2E           ADD     A,R6
   \   000099   FD           MOV     R5,A
    709                if ( sz <= (OSAL_NV_PAGE_SIZE - pgOff[idx] + pgLost[idx]) )
   \   00009A   ED           MOV     A,R5
   \   00009B   F8           MOV     R0,A
   \   00009C   7900         MOV     R1,#0x0
   \   00009E   E8           MOV     A,R0
   \   00009F   75F002       MOV     B,#0x2
   \   0000A2   A4           MUL     AB
   \   0000A3   C8           XCH     A,R0
   \   0000A4   AAF0         MOV     R2,B
   \   0000A6   75F000       MOV     B,#0x0
   \   0000A9   A4           MUL     AB
   \   0000AA   2A           ADD     A,R2
   \   0000AB   FA           MOV     R2,A
   \   0000AC   75F002       MOV     B,#0x2
   \   0000AF   E9           MOV     A,R1
   \   0000B0   A4           MUL     AB
   \   0000B1   2A           ADD     A,R2
   \   0000B2   F9           MOV     R1,A
   \   0000B3   74..         MOV     A,#pgOff & 0xff
   \   0000B5   28           ADD     A,R0
   \   0000B6   F582         MOV     DPL,A
   \   0000B8   74..         MOV     A,#(pgOff >> 8) & 0xff
   \   0000BA   39           ADDC    A,R1
   \   0000BB   F583         MOV     DPH,A
   \   0000BD   E0           MOVX    A,@DPTR
   \   0000BE   F8           MOV     R0,A
   \   0000BF   A3           INC     DPTR
   \   0000C0   E0           MOVX    A,@DPTR
   \   0000C1   F9           MOV     R1,A
   \   0000C2   7400         MOV     A,#0x0
   \   0000C4   C3           CLR     C
   \   0000C5   98           SUBB    A,R0
   \   0000C6   F8           MOV     R0,A
   \   0000C7   7408         MOV     A,#0x8
   \   0000C9   99           SUBB    A,R1
   \   0000CA   F9           MOV     R1,A
   \   0000CB   ED           MOV     A,R5
   \   0000CC   FA           MOV     R2,A
   \   0000CD   7B00         MOV     R3,#0x0
   \   0000CF   EA           MOV     A,R2
   \   0000D0   75F002       MOV     B,#0x2
   \   0000D3   A4           MUL     AB
   \   0000D4   CA           XCH     A,R2
   \   0000D5   ACF0         MOV     R4,B
   \   0000D7   75F000       MOV     B,#0x0
   \   0000DA   A4           MUL     AB
   \   0000DB   2C           ADD     A,R4
   \   0000DC   FC           MOV     R4,A
   \   0000DD   75F002       MOV     B,#0x2
   \   0000E0   EB           MOV     A,R3
   \   0000E1   A4           MUL     AB
   \   0000E2   2C           ADD     A,R4
   \   0000E3   FB           MOV     R3,A
   \   0000E4   74..         MOV     A,#pgLost & 0xff
   \   0000E6   2A           ADD     A,R2
   \   0000E7   F582         MOV     DPL,A
   \   0000E9   74..         MOV     A,#(pgLost >> 8) & 0xff
   \   0000EB   3B           ADDC    A,R3
   \   0000EC   F583         MOV     DPH,A
   \   0000EE   E0           MOVX    A,@DPTR
   \   0000EF   28           ADD     A,R0
   \   0000F0   FA           MOV     R2,A
   \   0000F1   A3           INC     DPTR
   \   0000F2   E0           MOVX    A,@DPTR
   \   0000F3   39           ADDC    A,R1
   \   0000F4   FB           MOV     R3,A
   \   0000F5   85..82       MOV     DPL,?XSP + 0
   \   0000F8   85..83       MOV     DPH,?XSP + 1
   \   0000FB   E0           MOVX    A,@DPTR
   \   0000FC   F8           MOV     R0,A
   \   0000FD   A3           INC     DPTR
   \   0000FE   E0           MOVX    A,@DPTR
   \   0000FF   F9           MOV     R1,A
   \   000100   C3           CLR     C
   \   000101   EA           MOV     A,R2
   \   000102   98           SUBB    A,R0
   \   000103   EB           MOV     A,R3
   \   000104   99           SUBB    A,R1
   \   000105   500E         JNC     ??initItem_5
    710                {
    711                  break;
    712                }
    713              }
    714              pg++;
   \                     ??initItem_4:
   \   000107   0E           INC     R6
    715            } while (--cnt);
   \   000108   74FF         MOV     A,#-0x1
   \   00010A   25..         ADD     A,?V0 + 0
   \   00010C   F8           MOV     R0,A
   \   00010D   88..         MOV     ?V0 + 0,R0
   \   00010F   E8           MOV     A,R0
   \   000110   6003         JZ      $+5
   \   000112   02....       LJMP    ??initItem_2 & 0xFFFF
    716          
    717            if (cnt)
   \                     ??initItem_5:
   \   000115   E5..         MOV     A,?V0 + 0
   \   000117   7003         JNZ     $+5
   \   000119   02....       LJMP    ??initItem_6 & 0xFFFF
    718            {
    719              // Item fits if an old page is compacted.
    720              if ( sz > (OSAL_NV_PAGE_SIZE - pgOff[pg - OSAL_NV_PAGE_BEG]) )
   \   00011C   EE           MOV     A,R6
   \   00011D   F8           MOV     R0,A
   \   00011E   7900         MOV     R1,#0x0
   \   000120   E8           MOV     A,R0
   \   000121   75F002       MOV     B,#0x2
   \   000124   A4           MUL     AB
   \   000125   C8           XCH     A,R0
   \   000126   AAF0         MOV     R2,B
   \   000128   75F000       MOV     B,#0x0
   \   00012B   A4           MUL     AB
   \   00012C   2A           ADD     A,R2
   \   00012D   FA           MOV     R2,A
   \   00012E   75F002       MOV     B,#0x2
   \   000131   E9           MOV     A,R1
   \   000132   A4           MUL     AB
   \   000133   2A           ADD     A,R2
   \   000134   F9           MOV     R1,A
   \   000135   74..         MOV     A,#(pgOff + 14) & 0xff
   \   000137   28           ADD     A,R0
   \   000138   F582         MOV     DPL,A
   \   00013A   74..         MOV     A,#((pgOff - 242) >> 8) & 0xff
   \   00013C   39           ADDC    A,R1
   \   00013D   F583         MOV     DPH,A
   \   00013F   E0           MOVX    A,@DPTR
   \   000140   F8           MOV     R0,A
   \   000141   A3           INC     DPTR
   \   000142   E0           MOVX    A,@DPTR
   \   000143   F9           MOV     R1,A
   \   000144   7400         MOV     A,#0x0
   \   000146   C3           CLR     C
   \   000147   98           SUBB    A,R0
   \   000148   FA           MOV     R2,A
   \   000149   7408         MOV     A,#0x8
   \   00014B   99           SUBB    A,R1
   \   00014C   FB           MOV     R3,A
   \   00014D   85..82       MOV     DPL,?XSP + 0
   \   000150   85..83       MOV     DPH,?XSP + 1
   \   000153   E0           MOVX    A,@DPTR
   \   000154   F8           MOV     R0,A
   \   000155   A3           INC     DPTR
   \   000156   E0           MOVX    A,@DPTR
   \   000157   F9           MOV     R1,A
   \   000158   C3           CLR     C
   \   000159   EA           MOV     A,R2
   \   00015A   98           SUBB    A,R0
   \   00015B   EB           MOV     A,R3
   \   00015C   99           SUBB    A,R1
   \   00015D   4003         JC      $+5
   \   00015F   02....       LJMP    ??initItem_7 & 0xFFFF
    721              {
    722                osalNvPgHdr_t pgHdr;
    723          
    724                /* Prevent excessive re-writes to page header caused by numerous, rapid, & successive
    725                 * OSAL_Nv interruptions caused by resets.
    726                 */
    727                HalFlashRead(pg, OSAL_NV_PAGE_HDR_OFFSET, (uint8 *)(&pgHdr), OSAL_NV_PAGE_HDR_SIZE);
   \   000162                ; Setup parameters for call to function HalFlashRead
   \   000162   75..08       MOV     ?V0 + 8,#0x8
   \   000165   75..00       MOV     ?V0 + 9,#0x0
   \   000168   78..         MOV     R0,#?V0 + 8
   \   00016A   12....       LCALL   ?PUSH_XSTACK_I_TWO
   \   00016D   7404         MOV     A,#0x4
   \   00016F   12....       LCALL   ?XSTACK_DISP0_8
   \   000172   AC82         MOV     R4,DPL
   \   000174   AD83         MOV     R5,DPH
   \   000176   7A00         MOV     R2,#0x0
   \   000178   7B00         MOV     R3,#0x0
   \   00017A   EE           MOV     A,R6
   \   00017B   F9           MOV     R1,A
   \   00017C   12....       LCALL   ??HalFlashRead?relay
   \   00017F   7402         MOV     A,#0x2
   \   000181   12....       LCALL   ?DEALLOC_XSTACK8
    728                if ( pgHdr.xfer == OSAL_NV_ERASED_ID )
   \   000184   7406         MOV     A,#0x6
   \   000186   12....       LCALL   ?XSTACK_DISP0_8
   \   000189   E0           MOVX    A,@DPTR
   \   00018A   64FF         XRL     A,#0xff
   \   00018C   7004         JNZ     ??initItem_8
   \   00018E   A3           INC     DPTR
   \   00018F   E0           MOVX    A,@DPTR
   \   000190   64FF         XRL     A,#0xff
   \                     ??initItem_8:
   \   000192   7020         JNZ     ??initItem_9
    729                {
    730                  // Mark the old page as being in process of compaction.
    731                  sz = OSAL_NV_ZEROED_ID;
   \   000194   85..82       MOV     DPL,?XSP + 0
   \   000197   85..83       MOV     DPH,?XSP + 1
   \   00019A   7400         MOV     A,#0x0
   \   00019C   F0           MOVX    @DPTR,A
   \   00019D   A3           INC     DPTR
   \   00019E   7400         MOV     A,#0x0
   \   0001A0   F0           MOVX    @DPTR,A
    732                  writeWordH( pg, OSAL_NV_PG_XFER, (uint8*)(&sz) );
   \   0001A1                ; Setup parameters for call to function writeWordH
   \   0001A1   85..82       MOV     DPL,?XSP + 0
   \   0001A4   85..83       MOV     DPH,?XSP + 1
   \   0001A7   AC82         MOV     R4,DPL
   \   0001A9   AD83         MOV     R5,DPH
   \   0001AB   7A04         MOV     R2,#0x4
   \   0001AD   7B00         MOV     R3,#0x0
   \   0001AF   EE           MOV     A,R6
   \   0001B0   F9           MOV     R1,A
   \   0001B1   12....       LCALL   ??writeWordH?relay
    733                }
    734          
    735                /* First the old page is compacted, then the new item will be the last one written to what
    736                 * had been the reserved page.
    737                 */
    738                if (compactPage( pg, id ))
   \                     ??initItem_9:
   \   0001B4                ; Setup parameters for call to function compactPage
   \   0001B4   AA..         MOV     R2,?V0 + 4
   \   0001B6   AB..         MOV     R3,?V0 + 5
   \   0001B8   EE           MOV     A,R6
   \   0001B9   F9           MOV     R1,A
   \   0001BA   12....       LCALL   ??compactPage?relay
   \   0001BD   E9           MOV     A,R1
   \   0001BE   6074         JZ      ??initItem_6
    739                {
    740                  if ( writeItem( pgRes, id, len, buf, flag ) )
   \   0001C0                ; Setup parameters for call to function writeItem
   \   0001C0   E5..         MOV     A,?V0 + 1
   \   0001C2   F5..         MOV     ?V0 + 8,A
   \   0001C4   78..         MOV     R0,#?V0 + 8
   \   0001C6   12....       LCALL   ?PUSH_XSTACK_I_ONE
   \   0001C9   78..         MOV     R0,#?V0 + 6
   \   0001CB   12....       LCALL   ?PUSH_XSTACK_I_TWO
   \   0001CE   AC..         MOV     R4,?V0 + 2
   \   0001D0   AD..         MOV     R5,?V0 + 3
   \   0001D2   AA..         MOV     R2,?V0 + 4
   \   0001D4   AB..         MOV     R3,?V0 + 5
   \   0001D6   90....       MOV     DPTR,#pgRes
   \   0001D9   E0           MOVX    A,@DPTR
   \   0001DA   F9           MOV     R1,A
   \   0001DB   12....       LCALL   ??writeItem?relay
   \   0001DE   7403         MOV     A,#0x3
   \   0001E0   12....       LCALL   ?DEALLOC_XSTACK8
   \   0001E3   E9           MOV     A,R1
   \   0001E4   6005         JZ      ??initItem_10
    741                  {
    742                    rtrn = pgRes;
   \   0001E6   90....       MOV     DPTR,#pgRes
   \   0001E9   E0           MOVX    A,@DPTR
   \   0001EA   FF           MOV     R7,A
    743                  }
    744          
    745                  if ( flag == FALSE )
   \                     ??initItem_10:
   \   0001EB   E5..         MOV     A,?V0 + 1
   \   0001ED   700A         JNZ     ??initItem_11
    746                  {
    747                    /* Overload 'buf' as an OUT parameter to pass back to the calling function
    748                     * the old page to be cleaned up.
    749                     */
    750                    *(uint8 *)buf = pg;
   \   0001EF   EE           MOV     A,R6
   \   0001F0   85..82       MOV     DPL,?V0 + 6
   \   0001F3   85..83       MOV     DPH,?V0 + 7
   \   0001F6   F0           MOVX    @DPTR,A
   \   0001F7   803B         SJMP    ??initItem_6
    751                  }
    752                  else
    753                  {
    754                    /* Safe to do the compacted page cleanup even if writeItem() above failed because the
    755                     * item does not yet exist since this call with flag==TRUE is from osal_nv_item_init().
    756                     */
    757                    COMPACT_PAGE_CLEANUP( pg );
   \                     ??initItem_11:
   \   0001F9                ; Setup parameters for call to function setPageUse
   \   0001F9   7A01         MOV     R2,#0x1
   \   0001FB   90....       MOV     DPTR,#pgRes
   \   0001FE   E0           MOVX    A,@DPTR
   \   0001FF   F9           MOV     R1,A
   \   000200   12....       LCALL   ??setPageUse?relay
   \   000203                ; Setup parameters for call to function erasePage
   \   000203   EE           MOV     A,R6
   \   000204   F9           MOV     R1,A
   \   000205   12....       LCALL   ??erasePage?relay
   \   000208   EE           MOV     A,R6
   \   000209   90....       MOV     DPTR,#pgRes
   \   00020C   F0           MOVX    @DPTR,A
   \   00020D   8025         SJMP    ??initItem_6
    758                  }
    759                }
    760              }
    761              else
    762              {
    763                if ( writeItem( pg, id, len, buf, flag ) )
   \                     ??initItem_7:
   \   00020F                ; Setup parameters for call to function writeItem
   \   00020F   E5..         MOV     A,?V0 + 1
   \   000211   F5..         MOV     ?V0 + 8,A
   \   000213   78..         MOV     R0,#?V0 + 8
   \   000215   12....       LCALL   ?PUSH_XSTACK_I_ONE
   \   000218   78..         MOV     R0,#?V0 + 6
   \   00021A   12....       LCALL   ?PUSH_XSTACK_I_TWO
   \   00021D   AC..         MOV     R4,?V0 + 2
   \   00021F   AD..         MOV     R5,?V0 + 3
   \   000221   AA..         MOV     R2,?V0 + 4
   \   000223   AB..         MOV     R3,?V0 + 5
   \   000225   EE           MOV     A,R6
   \   000226   F9           MOV     R1,A
   \   000227   12....       LCALL   ??writeItem?relay
   \   00022A   7403         MOV     A,#0x3
   \   00022C   12....       LCALL   ?DEALLOC_XSTACK8
   \   00022F   E9           MOV     A,R1
   \   000230   6002         JZ      ??initItem_6
    764                {
    765                  rtrn = pg;
   \   000232   EE           MOV     A,R6
   \   000233   FF           MOV     R7,A
    766                }
    767              }
    768            }
    769          
    770            return rtrn;
   \                     ??initItem_6:
   \   000234   EF           MOV     A,R7
   \   000235   F9           MOV     R1,A
   \   000236   740A         MOV     A,#0xa
   \   000238   12....       LCALL   ?DEALLOC_XSTACK8
   \   00023B   7F0A         MOV     R7,#0xa
   \   00023D   02....       LJMP    ?BANKED_LEAVE_XDATA
    771          }
    772          
    773          /*********************************************************************
    774           * @fn      setItem
    775           *
    776           * @brief   Set an item Id or status to mark its state.
    777           *
    778           * @param   pg - Valid NV page.
    779           * @param   offset - Valid offset into the page of the item data - the header
    780           *                   offset is calculated from this.
    781           * @param   stat - Valid enum value for the item status.
    782           *
    783           * @return  none
    784           */

   \                                 In  segment BANKED_CODE, align 1, keep-with-next
    785          static void setItem( uint8 pg, uint16 offset, eNvHdrEnum stat )
   \                     setItem:
    786          {
   \   000000   74F4         MOV     A,#-0xc
   \   000002   12....       LCALL   ?BANKED_ENTER_XDATA
   \   000005                ; Saved register size: 12
   \   000005                ; Auto size: 8
   \   000005   74F8         MOV     A,#-0x8
   \   000007   12....       LCALL   ?ALLOC_XSTACK8
   \   00000A   89..         MOV     ?V0 + 2,R1
   \   00000C   EA           MOV     A,R2
   \   00000D   FE           MOV     R6,A
   \   00000E   EB           MOV     A,R3
   \   00000F   FF           MOV     R7,A
   \   000010   8C..         MOV     ?V0 + 3,R4
    787            osalNvHdr_t hdr;
    788          
    789            offset -= OSAL_NV_HDR_SIZE;
   \   000012   EE           MOV     A,R6
   \   000013   24F8         ADD     A,#-0x8
   \   000015   FE           MOV     R6,A
   \   000016   EF           MOV     A,R7
   \   000017   34FF         ADDC    A,#-0x1
   \   000019   FF           MOV     R7,A
    790            HalFlashRead(pg, offset, (uint8 *)(&hdr), OSAL_NV_HDR_SIZE);
   \   00001A                ; Setup parameters for call to function HalFlashRead
   \   00001A   75..08       MOV     ?V0 + 0,#0x8
   \   00001D   75..00       MOV     ?V0 + 1,#0x0
   \   000020   78..         MOV     R0,#?V0 + 0
   \   000022   12....       LCALL   ?PUSH_XSTACK_I_TWO
   \   000025   7402         MOV     A,#0x2
   \   000027   12....       LCALL   ?XSTACK_DISP0_8
   \   00002A   AC82         MOV     R4,DPL
   \   00002C   AD83         MOV     R5,DPH
   \   00002E   EE           MOV     A,R6
   \   00002F   FA           MOV     R2,A
   \   000030   EF           MOV     A,R7
   \   000031   FB           MOV     R3,A
   \   000032   A9..         MOV     R1,?V0 + 2
   \   000034   12....       LCALL   ??HalFlashRead?relay
   \   000037   7402         MOV     A,#0x2
   \   000039   12....       LCALL   ?DEALLOC_XSTACK8
    791          
    792            if ( stat == eNvXfer )
   \   00003C   E5..         MOV     A,?V0 + 3
   \   00003E   7025         JNZ     ??setItem_0
    793            {
    794              hdr.stat = OSAL_NV_ACTIVE;
   \   000040   7406         MOV     A,#0x6
   \   000042   12....       LCALL   ?XSTACK_DISP0_8
   \   000045   7400         MOV     A,#0x0
   \   000047   F0           MOVX    @DPTR,A
   \   000048   A3           INC     DPTR
   \   000049   7400         MOV     A,#0x0
   \   00004B   F0           MOVX    @DPTR,A
    795              writeWord( pg, offset+OSAL_NV_HDR_CHK, (uint8*)(&(hdr.chk)) );
   \   00004C                ; Setup parameters for call to function writeWord
   \   00004C   7404         MOV     A,#0x4
   \   00004E   12....       LCALL   ?XSTACK_DISP0_8
   \   000051   AC82         MOV     R4,DPL
   \   000053   AD83         MOV     R5,DPH
   \   000055   EE           MOV     A,R6
   \   000056   2404         ADD     A,#0x4
   \   000058   FA           MOV     R2,A
   \   000059   EF           MOV     A,R7
   \   00005A   3400         ADDC    A,#0x0
   \   00005C   FB           MOV     R3,A
   \   00005D   A9..         MOV     R1,?V0 + 2
   \   00005F   12....       LCALL   ??writeWord?relay
   \   000062   02....       LJMP    ??setItem_1 & 0xFFFF
    796            }
    797            else // if ( stat == eNvZero )
    798            {
    799              uint16 sz = ((hdr.len + (OSAL_NV_WORD_SIZE-1)) / OSAL_NV_WORD_SIZE) * OSAL_NV_WORD_SIZE +
    800                                                                                    OSAL_NV_HDR_SIZE;
   \                     ??setItem_0:
   \   000065   7402         MOV     A,#0x2
   \   000067   12....       LCALL   ?XSTACK_DISP0_8
   \   00006A   E0           MOVX    A,@DPTR
   \   00006B   2403         ADD     A,#0x3
   \   00006D   F5..         MOV     ?V0 + 0,A
   \   00006F   A3           INC     DPTR
   \   000070   E0           MOVX    A,@DPTR
   \   000071   3400         ADDC    A,#0x0
   \   000073   F5..         MOV     ?V0 + 1,A
   \   000075   7402         MOV     A,#0x2
   \   000077   78..         MOV     R0,#?V0 + 0
   \   000079   12....       LCALL   ?US_SHR
   \   00007C   E5..         MOV     A,?V0 + 0
   \   00007E   75F004       MOV     B,#0x4
   \   000081   A4           MUL     AB
   \   000082   C5..         XCH     A,?V0 + 0
   \   000084   A8F0         MOV     R0,B
   \   000086   75F000       MOV     B,#0x0
   \   000089   A4           MUL     AB
   \   00008A   28           ADD     A,R0
   \   00008B   F8           MOV     R0,A
   \   00008C   75F004       MOV     B,#0x4
   \   00008F   E5..         MOV     A,?V0 + 1
   \   000091   A4           MUL     AB
   \   000092   28           ADD     A,R0
   \   000093   F5..         MOV     ?V0 + 1,A
   \   000095   E5..         MOV     A,?V0 + 0
   \   000097   2408         ADD     A,#0x8
   \   000099   F5..         MOV     ?V0 + 0,A
   \   00009B   E5..         MOV     A,?V0 + 1
   \   00009D   3400         ADDC    A,#0x0
   \   00009F   F5..         MOV     ?V0 + 1,A
    801              hdr.id = 0;
   \   0000A1   85..82       MOV     DPL,?XSP + 0
   \   0000A4   85..83       MOV     DPH,?XSP + 1
   \   0000A7   7400         MOV     A,#0x0
   \   0000A9   F0           MOVX    @DPTR,A
   \   0000AA   A3           INC     DPTR
   \   0000AB   7400         MOV     A,#0x0
   \   0000AD   F0           MOVX    @DPTR,A
    802              writeWord( pg, offset, (uint8 *)(&hdr) );
   \   0000AE                ; Setup parameters for call to function writeWord
   \   0000AE   85..82       MOV     DPL,?XSP + 0
   \   0000B1   85..83       MOV     DPH,?XSP + 1
   \   0000B4   AC82         MOV     R4,DPL
   \   0000B6   AD83         MOV     R5,DPH
   \   0000B8   EE           MOV     A,R6
   \   0000B9   FA           MOV     R2,A
   \   0000BA   EF           MOV     A,R7
   \   0000BB   FB           MOV     R3,A
   \   0000BC   A9..         MOV     R1,?V0 + 2
   \   0000BE   12....       LCALL   ??writeWord?relay
    803              pgLost[pg-OSAL_NV_PAGE_BEG] += sz;
   \   0000C1   E5..         MOV     A,?V0 + 2
   \   0000C3   A8..         MOV     R0,?V0 + 2
   \   0000C5   7900         MOV     R1,#0x0
   \   0000C7   E8           MOV     A,R0
   \   0000C8   75F002       MOV     B,#0x2
   \   0000CB   A4           MUL     AB
   \   0000CC   C8           XCH     A,R0
   \   0000CD   AAF0         MOV     R2,B
   \   0000CF   75F000       MOV     B,#0x0
   \   0000D2   A4           MUL     AB
   \   0000D3   2A           ADD     A,R2
   \   0000D4   FA           MOV     R2,A
   \   0000D5   75F002       MOV     B,#0x2
   \   0000D8   E9           MOV     A,R1
   \   0000D9   A4           MUL     AB
   \   0000DA   2A           ADD     A,R2
   \   0000DB   F9           MOV     R1,A
   \   0000DC   74..         MOV     A,#(pgLost + 14) & 0xff
   \   0000DE   28           ADD     A,R0
   \   0000DF   F582         MOV     DPL,A
   \   0000E1   74..         MOV     A,#((pgLost - 242) >> 8) & 0xff
   \   0000E3   39           ADDC    A,R1
   \   0000E4   F583         MOV     DPH,A
   \   0000E6   E0           MOVX    A,@DPTR
   \   0000E7   25..         ADD     A,?V0 + 0
   \   0000E9   F0           MOVX    @DPTR,A
   \   0000EA   A3           INC     DPTR
   \   0000EB   E0           MOVX    A,@DPTR
   \   0000EC   35..         ADDC    A,?V0 + 1
   \   0000EE   F0           MOVX    @DPTR,A
    804            }
    805          }
   \                     ??setItem_1:
   \   0000EF   7408         MOV     A,#0x8
   \   0000F1   12....       LCALL   ?DEALLOC_XSTACK8
   \   0000F4   7F04         MOV     R7,#0x4
   \   0000F6   02....       LJMP    ?BANKED_LEAVE_XDATA
    806          
    807          /*********************************************************************
    808           * @fn      setChk
    809           *
    810           * @brief   Set the item header checksum given the data buffer offset.
    811           *
    812           * @param   pg - Valid NV page.
    813           * @param   offset - Valid offset into the page of the item data - the header
    814           *                   offset is calculated from this.
    815           * @param   chk - The checksum to set.
    816           *
    817           * @return  The checksum read back.
    818           */

   \                                 In  segment BANKED_CODE, align 1, keep-with-next
    819          static uint16 setChk( uint8 pg, uint16 offset, uint16 chk )
   \                     setChk:
    820          {
   \   000000   74F4         MOV     A,#-0xc
   \   000002   12....       LCALL   ?BANKED_ENTER_XDATA
   \   000005                ; Saved register size: 12
   \   000005                ; Auto size: 2
   \   000005   74FE         MOV     A,#-0x2
   \   000007   12....       LCALL   ?ALLOC_XSTACK8
   \   00000A   85..82       MOV     DPL,?XSP + 0
   \   00000D   85..83       MOV     DPH,?XSP + 1
   \   000010   EC           MOV     A,R4
   \   000011   F0           MOVX    @DPTR,A
   \   000012   A3           INC     DPTR
   \   000013   ED           MOV     A,R5
   \   000014   F0           MOVX    @DPTR,A
   \   000015   89..         MOV     ?V0 + 0,R1
   \   000017   EA           MOV     A,R2
   \   000018   FE           MOV     R6,A
   \   000019   EB           MOV     A,R3
   \   00001A   FF           MOV     R7,A
    821            offset -= OSAL_NV_WORD_SIZE;
   \   00001B   EE           MOV     A,R6
   \   00001C   24FC         ADD     A,#-0x4
   \   00001E   FE           MOV     R6,A
   \   00001F   EF           MOV     A,R7
   \   000020   34FF         ADDC    A,#-0x1
   \   000022   FF           MOV     R7,A
    822            writeWordH( pg, offset, (uint8 *)&chk );
   \   000023                ; Setup parameters for call to function writeWordH
   \   000023   85..82       MOV     DPL,?XSP + 0
   \   000026   85..83       MOV     DPH,?XSP + 1
   \   000029   AC82         MOV     R4,DPL
   \   00002B   AD83         MOV     R5,DPH
   \   00002D   EE           MOV     A,R6
   \   00002E   FA           MOV     R2,A
   \   00002F   EF           MOV     A,R7
   \   000030   FB           MOV     R3,A
   \   000031   A9..         MOV     R1,?V0 + 0
   \   000033   12....       LCALL   ??writeWordH?relay
    823            HalFlashRead( pg, offset, (uint8 *)(&chk), sizeof( chk ) );
   \   000036                ; Setup parameters for call to function HalFlashRead
   \   000036   75..02       MOV     ?V0 + 2,#0x2
   \   000039   75..00       MOV     ?V0 + 3,#0x0
   \   00003C   78..         MOV     R0,#?V0 + 2
   \   00003E   12....       LCALL   ?PUSH_XSTACK_I_TWO
   \   000041   7402         MOV     A,#0x2
   \   000043   12....       LCALL   ?XSTACK_DISP0_8
   \   000046   AC82         MOV     R4,DPL
   \   000048   AD83         MOV     R5,DPH
   \   00004A   EE           MOV     A,R6
   \   00004B   FA           MOV     R2,A
   \   00004C   EF           MOV     A,R7
   \   00004D   FB           MOV     R3,A
   \   00004E   A9..         MOV     R1,?V0 + 0
   \   000050   12....       LCALL   ??HalFlashRead?relay
   \   000053   7402         MOV     A,#0x2
   \   000055   12....       LCALL   ?DEALLOC_XSTACK8
    824          
    825            return chk;
   \   000058   85..82       MOV     DPL,?XSP + 0
   \   00005B   85..83       MOV     DPH,?XSP + 1
   \   00005E   E0           MOVX    A,@DPTR
   \   00005F   FA           MOV     R2,A
   \   000060   A3           INC     DPTR
   \   000061   E0           MOVX    A,@DPTR
   \   000062   FB           MOV     R3,A
   \   000063   7402         MOV     A,#0x2
   \   000065   12....       LCALL   ?DEALLOC_XSTACK8
   \   000068   7F04         MOV     R7,#0x4
   \   00006A   02....       LJMP    ?BANKED_LEAVE_XDATA
    826          }
    827          
    828          /*********************************************************************
    829           * @fn      calcChkB
    830           *
    831           * @brief   Calculates the data checksum over the 'buf' parameter.
    832           *
    833           * @param   len - Byte count of the data to be checksummed.
    834           * @param   buf - Data buffer to be checksummed.
    835           *
    836           * @return  Calculated checksum of the data bytes.
    837           */

   \                                 In  segment BANKED_CODE, align 1, keep-with-next
    838          static uint16 calcChkB( uint16 len, uint8 *buf )
   \                     calcChkB:
    839          {
   \   000000   74F6         MOV     A,#-0xa
   \   000002   12....       LCALL   ?BANKED_ENTER_XDATA
   \   000005                ; Saved register size: 10
   \   000005                ; Auto size: 0
   \   000005   EA           MOV     A,R2
   \   000006   FE           MOV     R6,A
   \   000007   EB           MOV     A,R3
   \   000008   FF           MOV     R7,A
   \   000009   8C82         MOV     DPL,R4
   \   00000B   8D83         MOV     DPH,R5
    840            uint8 fill = len % OSAL_NV_WORD_SIZE;
   \   00000D   EE           MOV     A,R6
   \   00000E   F8           MOV     R0,A
   \   00000F   EF           MOV     A,R7
   \   000010   F9           MOV     R1,A
   \   000011   7A04         MOV     R2,#0x4
   \   000013   7B00         MOV     R3,#0x0
   \   000015   12....       LCALL   ?US_DIV_MOD
   \   000018   EA           MOV     A,R2
   \   000019   FD           MOV     R5,A
    841            uint16 chk;
    842          
    843            if ( !buf )
   \   00001A   E582         MOV     A,DPL
   \   00001C   4583         ORL     A,DPH
   \   00001E   701F         JNZ     ??calcChkB_0
    844            {
    845              chk = len * OSAL_NV_ERASED;
   \   000020   EE           MOV     A,R6
   \   000021   F8           MOV     R0,A
   \   000022   EF           MOV     A,R7
   \   000023   F9           MOV     R1,A
   \   000024   E8           MOV     A,R0
   \   000025   75F0FF       MOV     B,#-0x1
   \   000028   A4           MUL     AB
   \   000029   C8           XCH     A,R0
   \   00002A   ACF0         MOV     R4,B
   \   00002C   75F000       MOV     B,#0x0
   \   00002F   A4           MUL     AB
   \   000030   2C           ADD     A,R4
   \   000031   FC           MOV     R4,A
   \   000032   75F0FF       MOV     B,#-0x1
   \   000035   E9           MOV     A,R1
   \   000036   A4           MUL     AB
   \   000037   2C           ADD     A,R4
   \   000038   F9           MOV     R1,A
   \   000039   E8           MOV     A,R0
   \   00003A   FA           MOV     R2,A
   \   00003B   E9           MOV     A,R1
   \   00003C   FB           MOV     R3,A
   \   00003D   8021         SJMP    ??calcChkB_1
    846            }
    847            else
    848            {
    849              chk = 0;
   \                     ??calcChkB_0:
   \   00003F   7A00         MOV     R2,#0x0
   \   000041   7B00         MOV     R3,#0x0
    850              while ( len-- )
   \                     ??calcChkB_2:
   \   000043   EE           MOV     A,R6
   \   000044   F8           MOV     R0,A
   \   000045   EF           MOV     A,R7
   \   000046   F9           MOV     R1,A
   \   000047   E8           MOV     A,R0
   \   000048   24FF         ADD     A,#-0x1
   \   00004A   FE           MOV     R6,A
   \   00004B   E9           MOV     A,R1
   \   00004C   34FF         ADDC    A,#-0x1
   \   00004E   FF           MOV     R7,A
   \   00004F   E8           MOV     A,R0
   \   000050   49           ORL     A,R1
   \   000051   600D         JZ      ??calcChkB_1
    851              {
    852                chk += *buf++;
   \   000053   E0           MOVX    A,@DPTR
   \   000054   F8           MOV     R0,A
   \   000055   7900         MOV     R1,#0x0
   \   000057   EA           MOV     A,R2
   \   000058   28           ADD     A,R0
   \   000059   FA           MOV     R2,A
   \   00005A   EB           MOV     A,R3
   \   00005B   39           ADDC    A,R1
   \   00005C   FB           MOV     R3,A
   \   00005D   A3           INC     DPTR
   \   00005E   80E3         SJMP    ??calcChkB_2
    853              }
    854            }
    855          
    856            // calcChkF() will calculate over OSAL_NV_WORD_SIZE alignment.
    857            if ( fill )
   \                     ??calcChkB_1:
   \   000060   ED           MOV     A,R5
   \   000061   602B         JZ      ??calcChkB_3
    858            {
    859              chk += (OSAL_NV_WORD_SIZE - fill) * OSAL_NV_ERASED;
   \   000063   8D..         MOV     ?V0 + 0,R5
   \   000065   75..00       MOV     ?V0 + 1,#0x0
   \   000068   7404         MOV     A,#0x4
   \   00006A   C3           CLR     C
   \   00006B   95..         SUBB    A,?V0 + 0
   \   00006D   F8           MOV     R0,A
   \   00006E   7400         MOV     A,#0x0
   \   000070   95..         SUBB    A,?V0 + 1
   \   000072   F9           MOV     R1,A
   \   000073   E8           MOV     A,R0
   \   000074   75F0FF       MOV     B,#-0x1
   \   000077   A4           MUL     AB
   \   000078   C8           XCH     A,R0
   \   000079   ACF0         MOV     R4,B
   \   00007B   75F000       MOV     B,#0x0
   \   00007E   A4           MUL     AB
   \   00007F   2C           ADD     A,R4
   \   000080   FC           MOV     R4,A
   \   000081   75F0FF       MOV     B,#-0x1
   \   000084   E9           MOV     A,R1
   \   000085   A4           MUL     AB
   \   000086   2C           ADD     A,R4
   \   000087   F9           MOV     R1,A
   \   000088   EA           MOV     A,R2
   \   000089   28           ADD     A,R0
   \   00008A   FA           MOV     R2,A
   \   00008B   EB           MOV     A,R3
   \   00008C   39           ADDC    A,R1
   \   00008D   FB           MOV     R3,A
    860            }
    861          
    862            return chk;
   \                     ??calcChkB_3:
   \   00008E   7F02         MOV     R7,#0x2
   \   000090   02....       LJMP    ?BANKED_LEAVE_XDATA
    863          }
    864          
    865          /*********************************************************************
    866           * @fn      calcChkF
    867           *
    868           * @brief   Calculates the data checksum by reading the data bytes from NV.
    869           *
    870           * @param   pg - A valid NV Flash page.
    871           * @param   offset - A valid offset into the page.
    872           * @param   len - Byte count of the data to be checksummed.
    873           *
    874           * @return  Calculated checksum of the data bytes.
    875           */

   \                                 In  segment BANKED_CODE, align 1, keep-with-next
    876          static uint16 calcChkF( uint8 pg, uint16 offset, uint16 len )
   \                     calcChkF:
    877          {
   \   000000   74F0         MOV     A,#-0x10
   \   000002   12....       LCALL   ?BANKED_ENTER_XDATA
   \   000005                ; Saved register size: 16
   \   000005                ; Auto size: 4
   \   000005   74FC         MOV     A,#-0x4
   \   000007   12....       LCALL   ?ALLOC_XSTACK8
   \   00000A   89..         MOV     ?V0 + 4,R1
   \   00000C   8A..         MOV     ?V0 + 2,R2
   \   00000E   8B..         MOV     ?V0 + 3,R3
   \   000010   EC           MOV     A,R4
   \   000011   FE           MOV     R6,A
   \   000012   ED           MOV     A,R5
   \   000013   FF           MOV     R7,A
    878            uint16 chk = 0;
   \   000014   75..00       MOV     ?V0 + 0,#0x0
   \   000017   75..00       MOV     ?V0 + 1,#0x0
    879          
    880            len = (len + (OSAL_NV_WORD_SIZE-1)) / OSAL_NV_WORD_SIZE;
   \   00001A   EE           MOV     A,R6
   \   00001B   2403         ADD     A,#0x3
   \   00001D   F5..         MOV     ?V0 + 6,A
   \   00001F   EF           MOV     A,R7
   \   000020   3400         ADDC    A,#0x0
   \   000022   F5..         MOV     ?V0 + 7,A
   \   000024   7402         MOV     A,#0x2
   \   000026   78..         MOV     R0,#?V0 + 6
   \   000028   12....       LCALL   ?US_SHR
   \   00002B   AE..         MOV     R6,?V0 + 6
   \   00002D   AF..         MOV     R7,?V0 + 7
    881          
    882            while ( len-- )
   \                     ??calcChkF_0:
   \   00002F   EE           MOV     A,R6
   \   000030   F8           MOV     R0,A
   \   000031   EF           MOV     A,R7
   \   000032   F9           MOV     R1,A
   \   000033   E8           MOV     A,R0
   \   000034   24FF         ADD     A,#-0x1
   \   000036   FE           MOV     R6,A
   \   000037   E9           MOV     A,R1
   \   000038   34FF         ADDC    A,#-0x1
   \   00003A   FF           MOV     R7,A
   \   00003B   E8           MOV     A,R0
   \   00003C   49           ORL     A,R1
   \   00003D   6062         JZ      ??calcChkF_1
    883            {
    884              uint8 cnt, tmp[OSAL_NV_WORD_SIZE];
    885          
    886              HalFlashRead(pg, offset, tmp, OSAL_NV_WORD_SIZE);
   \   00003F                ; Setup parameters for call to function HalFlashRead
   \   00003F   75..04       MOV     ?V0 + 6,#0x4
   \   000042   75..00       MOV     ?V0 + 7,#0x0
   \   000045   78..         MOV     R0,#?V0 + 6
   \   000047   12....       LCALL   ?PUSH_XSTACK_I_TWO
   \   00004A   7402         MOV     A,#0x2
   \   00004C   12....       LCALL   ?XSTACK_DISP0_8
   \   00004F   AC82         MOV     R4,DPL
   \   000051   AD83         MOV     R5,DPH
   \   000053   AA..         MOV     R2,?V0 + 2
   \   000055   AB..         MOV     R3,?V0 + 3
   \   000057   A9..         MOV     R1,?V0 + 4
   \   000059   12....       LCALL   ??HalFlashRead?relay
   \   00005C   7402         MOV     A,#0x2
   \   00005E   12....       LCALL   ?DEALLOC_XSTACK8
    887              offset += OSAL_NV_WORD_SIZE;
   \   000061   E5..         MOV     A,?V0 + 2
   \   000063   2404         ADD     A,#0x4
   \   000065   F5..         MOV     ?V0 + 2,A
   \   000067   E5..         MOV     A,?V0 + 3
   \   000069   3400         ADDC    A,#0x0
   \   00006B   F5..         MOV     ?V0 + 3,A
    888          
    889              for ( cnt = 0; cnt < OSAL_NV_WORD_SIZE; cnt++ )
   \   00006D   75..00       MOV     ?V0 + 5,#0x0
   \                     ??calcChkF_2:
   \   000070   E5..         MOV     A,?V0 + 5
   \   000072   C3           CLR     C
   \   000073   9404         SUBB    A,#0x4
   \   000075   50B8         JNC     ??calcChkF_0
    890              {
    891                chk += tmp[cnt];
   \   000077   85....       MOV     ?V0 + 6,?V0 + 5
   \   00007A   75..00       MOV     ?V0 + 7,#0x0
   \   00007D   85..82       MOV     DPL,?XSP + 0
   \   000080   85..83       MOV     DPH,?XSP + 1
   \   000083   E582         MOV     A,DPL
   \   000085   25..         ADD     A,?V0 + 6
   \   000087   F582         MOV     DPL,A
   \   000089   E583         MOV     A,DPH
   \   00008B   35..         ADDC    A,?V0 + 7
   \   00008D   F583         MOV     DPH,A
   \   00008F   E0           MOVX    A,@DPTR
   \   000090   F8           MOV     R0,A
   \   000091   7900         MOV     R1,#0x0
   \   000093   E5..         MOV     A,?V0 + 0
   \   000095   28           ADD     A,R0
   \   000096   F5..         MOV     ?V0 + 0,A
   \   000098   E5..         MOV     A,?V0 + 1
   \   00009A   39           ADDC    A,R1
   \   00009B   F5..         MOV     ?V0 + 1,A
    892              }
   \   00009D   05..         INC     ?V0 + 5
   \   00009F   80CF         SJMP    ??calcChkF_2
    893            }
    894          
    895            return chk;
   \                     ??calcChkF_1:
   \   0000A1   AA..         MOV     R2,?V0 + 0
   \   0000A3   AB..         MOV     R3,?V0 + 1
   \   0000A5   7404         MOV     A,#0x4
   \   0000A7   12....       LCALL   ?DEALLOC_XSTACK8
   \   0000AA   7F08         MOV     R7,#0x8
   \   0000AC   02....       LJMP    ?BANKED_LEAVE_XDATA
    896          }
    897          
    898          /*********************************************************************
    899           * @fn      writeWord
    900           *
    901           * @brief   Writes a Flash-WORD to NV.
    902           *
    903           * @param   pg - A valid NV Flash page.
    904           * @param   offset - A valid offset into the page.
    905           * @param   buf - Pointer to source buffer.
    906           *
    907           * @return  none
    908           */

   \                                 In  segment BANKED_CODE, align 1, keep-with-next
    909          static void writeWord( uint8 pg, uint16 offset, uint8 *buf )
   \                     writeWord:
    910          {
   \   000000   74F2         MOV     A,#-0xe
   \   000002   12....       LCALL   ?BANKED_ENTER_XDATA
   \   000005                ; Saved register size: 14
   \   000005                ; Auto size: 0
   \   000005   89..         MOV     ?V0 + 2,R1
   \   000007   8A..         MOV     ?V0 + 0,R2
   \   000009   8B..         MOV     ?V0 + 1,R3
   \   00000B   EC           MOV     A,R4
   \   00000C   FE           MOV     R6,A
   \   00000D   ED           MOV     A,R5
   \   00000E   FF           MOV     R7,A
    911            offset = (offset / HAL_FLASH_WORD_SIZE) +
    912                    ((uint16)pg * (HAL_FLASH_PAGE_SIZE / HAL_FLASH_WORD_SIZE));
   \   00000F   7402         MOV     A,#0x2
   \   000011   78..         MOV     R0,#?V0 + 0
   \   000013   12....       LCALL   ?US_SHR
   \   000016   E5..         MOV     A,?V0 + 2
   \   000018   A8..         MOV     R0,?V0 + 2
   \   00001A   7900         MOV     R1,#0x0
   \   00001C   E8           MOV     A,R0
   \   00001D   75F000       MOV     B,#0x0
   \   000020   A4           MUL     AB
   \   000021   C8           XCH     A,R0
   \   000022   AAF0         MOV     R2,B
   \   000024   75F002       MOV     B,#0x2
   \   000027   A4           MUL     AB
   \   000028   2A           ADD     A,R2
   \   000029   FA           MOV     R2,A
   \   00002A   75F000       MOV     B,#0x0
   \   00002D   E9           MOV     A,R1
   \   00002E   A4           MUL     AB
   \   00002F   2A           ADD     A,R2
   \   000030   F9           MOV     R1,A
   \   000031   E5..         MOV     A,?V0 + 0
   \   000033   28           ADD     A,R0
   \   000034   F5..         MOV     ?V0 + 0,A
   \   000036   E5..         MOV     A,?V0 + 1
   \   000038   39           ADDC    A,R1
   \   000039   F5..         MOV     ?V0 + 1,A
    913          
    914            HalFlashWrite(offset, buf, 1);
   \   00003B                ; Setup parameters for call to function HalFlashWrite
   \   00003B   75..01       MOV     ?V0 + 4,#0x1
   \   00003E   75..00       MOV     ?V0 + 5,#0x0
   \   000041   78..         MOV     R0,#?V0 + 4
   \   000043   12....       LCALL   ?PUSH_XSTACK_I_TWO
   \   000046   EE           MOV     A,R6
   \   000047   FC           MOV     R4,A
   \   000048   EF           MOV     A,R7
   \   000049   FD           MOV     R5,A
   \   00004A   AA..         MOV     R2,?V0 + 0
   \   00004C   AB..         MOV     R3,?V0 + 1
   \   00004E   12....       LCALL   ??HalFlashWrite?relay
   \   000051   7402         MOV     A,#0x2
   \   000053   12....       LCALL   ?DEALLOC_XSTACK8
    915          }
   \   000056   7F06         MOV     R7,#0x6
   \   000058   02....       LJMP    ?BANKED_LEAVE_XDATA
    916          
    917          /*********************************************************************
    918           * @fn      writeWordM
    919           *
    920           * @brief   Writes multiple Flash-WORDs to NV.
    921           *
    922           * @param   pg - A valid NV Flash page.
    923           * @param   offset - A valid offset into the page.
    924           * @param   buf - Pointer to source buffer.
    925           * @param   cnt - Number of 4-byte blocks to write.
    926           *
    927           * @return  none
    928           */

   \                                 In  segment BANKED_CODE, align 1, keep-with-next
    929          static void writeWordM( uint8 pg, uint16 offset, uint8 *buf, uint16 cnt )
   \                     writeWordM:
    930          {
   \   000000   74F3         MOV     A,#-0xd
   \   000002   12....       LCALL   ?BANKED_ENTER_XDATA
   \   000005                ; Saved register size: 13
   \   000005                ; Auto size: 0
   \   000005   89..         MOV     ?V0 + 4,R1
   \   000007   8A..         MOV     ?V0 + 2,R2
   \   000009   8B..         MOV     ?V0 + 3,R3
   \   00000B   EC           MOV     A,R4
   \   00000C   FE           MOV     R6,A
   \   00000D   ED           MOV     A,R5
   \   00000E   FF           MOV     R7,A
   \   00000F   740D         MOV     A,#0xd
   \   000011   12....       LCALL   ?XSTACK_DISP0_8
   \   000014   E0           MOVX    A,@DPTR
   \   000015   F5..         MOV     ?V0 + 0,A
   \   000017   A3           INC     DPTR
   \   000018   E0           MOVX    A,@DPTR
   \   000019   F5..         MOV     ?V0 + 1,A
    931            offset = (offset / HAL_FLASH_WORD_SIZE) +
    932                    ((uint16)pg * (HAL_FLASH_PAGE_SIZE / HAL_FLASH_WORD_SIZE));
   \   00001B   7402         MOV     A,#0x2
   \   00001D   78..         MOV     R0,#?V0 + 2
   \   00001F   12....       LCALL   ?US_SHR
   \   000022   E5..         MOV     A,?V0 + 4
   \   000024   A8..         MOV     R0,?V0 + 4
   \   000026   7900         MOV     R1,#0x0
   \   000028   E8           MOV     A,R0
   \   000029   75F000       MOV     B,#0x0
   \   00002C   A4           MUL     AB
   \   00002D   C8           XCH     A,R0
   \   00002E   AAF0         MOV     R2,B
   \   000030   75F002       MOV     B,#0x2
   \   000033   A4           MUL     AB
   \   000034   2A           ADD     A,R2
   \   000035   FA           MOV     R2,A
   \   000036   75F000       MOV     B,#0x0
   \   000039   E9           MOV     A,R1
   \   00003A   A4           MUL     AB
   \   00003B   2A           ADD     A,R2
   \   00003C   F9           MOV     R1,A
   \   00003D   E5..         MOV     A,?V0 + 2
   \   00003F   28           ADD     A,R0
   \   000040   F5..         MOV     ?V0 + 2,A
   \   000042   E5..         MOV     A,?V0 + 3
   \   000044   39           ADDC    A,R1
   \   000045   F5..         MOV     ?V0 + 3,A
    933            HalFlashWrite(offset, buf, cnt);
   \   000047                ; Setup parameters for call to function HalFlashWrite
   \   000047   78..         MOV     R0,#?V0 + 0
   \   000049   12....       LCALL   ?PUSH_XSTACK_I_TWO
   \   00004C   EE           MOV     A,R6
   \   00004D   FC           MOV     R4,A
   \   00004E   EF           MOV     A,R7
   \   00004F   FD           MOV     R5,A
   \   000050   AA..         MOV     R2,?V0 + 2
   \   000052   AB..         MOV     R3,?V0 + 3
   \   000054   12....       LCALL   ??HalFlashWrite?relay
   \   000057   7402         MOV     A,#0x2
   \   000059   12....       LCALL   ?DEALLOC_XSTACK8
    934          }
   \   00005C   7F05         MOV     R7,#0x5
   \   00005E   02....       LJMP    ?BANKED_LEAVE_XDATA
    935          
    936          /*********************************************************************
    937           * @fn      writeWordH
    938           *
    939           * @brief   Writes the 1st half of a Flash-WORD to NV (filling 2nd half with 0xffff).
    940           *
    941           * @param   pg - A valid NV Flash page.
    942           * @param   offset - A valid offset into the page.
    943           * @param   buf - Pointer to source buffer.
    944           *
    945           * @return  none
    946           */

   \                                 In  segment BANKED_CODE, align 1, keep-with-next
    947          static void writeWordH( uint8 pg, uint16 offset, uint8 *buf )
   \                     writeWordH:
    948          {
   \   000000   74F5         MOV     A,#-0xb
   \   000002   12....       LCALL   ?BANKED_ENTER_XDATA
   \   000005                ; Saved register size: 11
   \   000005                ; Auto size: 4
   \   000005   74FC         MOV     A,#-0x4
   \   000007   12....       LCALL   ?ALLOC_XSTACK8
   \   00000A   89..         MOV     ?V0 + 2,R1
   \   00000C   EA           MOV     A,R2
   \   00000D   FE           MOV     R6,A
   \   00000E   EB           MOV     A,R3
   \   00000F   FF           MOV     R7,A
   \   000010   8C..         MOV     ?V0 + 0,R4
   \   000012   8D..         MOV     ?V0 + 1,R5
    949            uint8 tmp[4];
    950          
    951            tmp[0] = buf[0];
   \   000014   85..82       MOV     DPL,?V0 + 0
   \   000017   85..83       MOV     DPH,?V0 + 1
   \   00001A   E0           MOVX    A,@DPTR
   \   00001B   85..82       MOV     DPL,?XSP + 0
   \   00001E   85..83       MOV     DPH,?XSP + 1
   \   000021   F0           MOVX    @DPTR,A
    952            tmp[1] = buf[1];
   \   000022   85..82       MOV     DPL,?V0 + 0
   \   000025   85..83       MOV     DPH,?V0 + 1
   \   000028   A3           INC     DPTR
   \   000029   E0           MOVX    A,@DPTR
   \   00002A   C0E0         PUSH    A
   \   00002C   7401         MOV     A,#0x1
   \   00002E   12....       LCALL   ?XSTACK_DISP0_8
   \   000031   D0E0         POP     A
   \   000033   F0           MOVX    @DPTR,A
    953            tmp[2] = OSAL_NV_ERASED;
   \   000034   7402         MOV     A,#0x2
   \   000036   12....       LCALL   ?XSTACK_DISP0_8
   \   000039   74FF         MOV     A,#-0x1
   \   00003B   F0           MOVX    @DPTR,A
    954            tmp[3] = OSAL_NV_ERASED;
   \   00003C   7403         MOV     A,#0x3
   \   00003E   12....       LCALL   ?XSTACK_DISP0_8
   \   000041   74FF         MOV     A,#-0x1
   \   000043   F0           MOVX    @DPTR,A
    955          
    956            writeWord( pg, offset, tmp );
   \   000044                ; Setup parameters for call to function writeWord
   \   000044   85..82       MOV     DPL,?XSP + 0
   \   000047   85..83       MOV     DPH,?XSP + 1
   \   00004A   AC82         MOV     R4,DPL
   \   00004C   AD83         MOV     R5,DPH
   \   00004E   EE           MOV     A,R6
   \   00004F   FA           MOV     R2,A
   \   000050   EF           MOV     A,R7
   \   000051   FB           MOV     R3,A
   \   000052   A9..         MOV     R1,?V0 + 2
   \   000054   12....       LCALL   ??writeWord?relay
    957          }
   \   000057   7404         MOV     A,#0x4
   \   000059   12....       LCALL   ?DEALLOC_XSTACK8
   \   00005C   7F03         MOV     R7,#0x3
   \   00005E   02....       LJMP    ?BANKED_LEAVE_XDATA
    958          
    959          /*********************************************************************
    960           * @fn      writeBuf
    961           *
    962           * @brief   Writes a data buffer to NV.
    963           *
    964           * @param   dstPg - A valid NV Flash page.
    965           * @param   offset - A valid offset into the page.
    966           * @param   len  - Byte count of the data to write.
    967           * @param   buf  - The data to write.
    968           *
    969           * @return  TRUE if data buf checksum matches read back checksum, else FALSE.
    970           */

   \                                 In  segment BANKED_CODE, align 1, keep-with-next
    971          static void writeBuf( uint8 dstPg, uint16 dstOff, uint16 len, uint8 *buf )
   \                     writeBuf:
    972          {
   \   000000   74EE         MOV     A,#-0x12
   \   000002   12....       LCALL   ?BANKED_ENTER_XDATA
   \   000005                ; Saved register size: 18
   \   000005                ; Auto size: 4
   \   000005   74FC         MOV     A,#-0x4
   \   000007   12....       LCALL   ?ALLOC_XSTACK8
   \   00000A   E9           MOV     A,R1
   \   00000B   FF           MOV     R7,A
   \   00000C   8A..         MOV     ?V0 + 4,R2
   \   00000E   8B..         MOV     ?V0 + 5,R3
   \   000010   8C..         MOV     ?V0 + 6,R4
   \   000012   8D..         MOV     ?V0 + 7,R5
   \   000014   7416         MOV     A,#0x16
   \   000016   12....       LCALL   ?XSTACK_DISP0_8
   \   000019   E0           MOVX    A,@DPTR
   \   00001A   F5..         MOV     ?V0 + 0,A
   \   00001C   A3           INC     DPTR
   \   00001D   E0           MOVX    A,@DPTR
   \   00001E   F5..         MOV     ?V0 + 1,A
    973            uint8 rem = dstOff % OSAL_NV_WORD_SIZE;
   \   000020   A8..         MOV     R0,?V0 + 4
   \   000022   A9..         MOV     R1,?V0 + 5
   \   000024   7A04         MOV     R2,#0x4
   \   000026   7B00         MOV     R3,#0x0
   \   000028   12....       LCALL   ?US_DIV_MOD
   \   00002B   EA           MOV     A,R2
   \   00002C   FE           MOV     R6,A
    974            uint8 tmp[OSAL_NV_WORD_SIZE];
    975          
    976            if ( rem )
   \   00002D   EE           MOV     A,R6
   \   00002E   7003         JNZ     $+5
   \   000030   02....       LJMP    ??writeBuf_0 & 0xFFFF
    977            {
    978              dstOff = (dstOff / OSAL_NV_WORD_SIZE) * OSAL_NV_WORD_SIZE;
   \   000033   7402         MOV     A,#0x2
   \   000035   78..         MOV     R0,#?V0 + 4
   \   000037   12....       LCALL   ?US_SHR
   \   00003A   E5..         MOV     A,?V0 + 4
   \   00003C   75F004       MOV     B,#0x4
   \   00003F   A4           MUL     AB
   \   000040   C5..         XCH     A,?V0 + 4
   \   000042   A8F0         MOV     R0,B
   \   000044   75F000       MOV     B,#0x0
   \   000047   A4           MUL     AB
   \   000048   28           ADD     A,R0
   \   000049   F8           MOV     R0,A
   \   00004A   75F004       MOV     B,#0x4
   \   00004D   E5..         MOV     A,?V0 + 5
   \   00004F   A4           MUL     AB
   \   000050   28           ADD     A,R0
   \   000051   F5..         MOV     ?V0 + 5,A
    979              HalFlashRead(dstPg, dstOff, tmp, OSAL_NV_WORD_SIZE);
   \   000053                ; Setup parameters for call to function HalFlashRead
   \   000053   75..04       MOV     ?V0 + 2,#0x4
   \   000056   75..00       MOV     ?V0 + 3,#0x0
   \   000059   78..         MOV     R0,#?V0 + 2
   \   00005B   12....       LCALL   ?PUSH_XSTACK_I_TWO
   \   00005E   7402         MOV     A,#0x2
   \   000060   12....       LCALL   ?XSTACK_DISP0_8
   \   000063   AC82         MOV     R4,DPL
   \   000065   AD83         MOV     R5,DPH
   \   000067   AA..         MOV     R2,?V0 + 4
   \   000069   AB..         MOV     R3,?V0 + 5
   \   00006B   EF           MOV     A,R7
   \   00006C   F9           MOV     R1,A
   \   00006D   12....       LCALL   ??HalFlashRead?relay
   \   000070   7402         MOV     A,#0x2
   \   000072   12....       LCALL   ?DEALLOC_XSTACK8
    980          
    981              while ( (rem < OSAL_NV_WORD_SIZE) && len )
   \                     ??writeBuf_1:
   \   000075   EE           MOV     A,R6
   \   000076   C3           CLR     C
   \   000077   9404         SUBB    A,#0x4
   \   000079   5045         JNC     ??writeBuf_2
   \   00007B   E5..         MOV     A,?V0 + 6
   \   00007D   45..         ORL     A,?V0 + 7
   \   00007F   603F         JZ      ??writeBuf_2
    982              {
    983                tmp[rem++] = *buf++;
   \   000081   85..82       MOV     DPL,?V0 + 0
   \   000084   85..83       MOV     DPH,?V0 + 1
   \   000087   E0           MOVX    A,@DPTR
   \   000088   C0E0         PUSH    A
   \   00008A   8E..         MOV     ?V0 + 2,R6
   \   00008C   75..00       MOV     ?V0 + 3,#0x0
   \   00008F   85..82       MOV     DPL,?XSP + 0
   \   000092   85..83       MOV     DPH,?XSP + 1
   \   000095   E582         MOV     A,DPL
   \   000097   25..         ADD     A,?V0 + 2
   \   000099   F582         MOV     DPL,A
   \   00009B   E583         MOV     A,DPH
   \   00009D   35..         ADDC    A,?V0 + 3
   \   00009F   F583         MOV     DPH,A
   \   0000A1   D0E0         POP     A
   \   0000A3   F0           MOVX    @DPTR,A
   \   0000A4   85..82       MOV     DPL,?V0 + 0
   \   0000A7   85..83       MOV     DPH,?V0 + 1
   \   0000AA   A3           INC     DPTR
   \   0000AB   8582..       MOV     ?V0 + 0,DPL
   \   0000AE   8583..       MOV     ?V0 + 1,DPH
   \   0000B1   0E           INC     R6
    984                len--;
   \   0000B2   E5..         MOV     A,?V0 + 6
   \   0000B4   24FF         ADD     A,#-0x1
   \   0000B6   F5..         MOV     ?V0 + 6,A
   \   0000B8   E5..         MOV     A,?V0 + 7
   \   0000BA   34FF         ADDC    A,#-0x1
   \   0000BC   F5..         MOV     ?V0 + 7,A
   \   0000BE   80B5         SJMP    ??writeBuf_1
    985              }
    986          
    987              writeWord( dstPg, dstOff, tmp );
   \                     ??writeBuf_2:
   \   0000C0                ; Setup parameters for call to function writeWord
   \   0000C0   85..82       MOV     DPL,?XSP + 0
   \   0000C3   85..83       MOV     DPH,?XSP + 1
   \   0000C6   AC82         MOV     R4,DPL
   \   0000C8   AD83         MOV     R5,DPH
   \   0000CA   AA..         MOV     R2,?V0 + 4
   \   0000CC   AB..         MOV     R3,?V0 + 5
   \   0000CE   EF           MOV     A,R7
   \   0000CF   F9           MOV     R1,A
   \   0000D0   12....       LCALL   ??writeWord?relay
    988              dstOff += OSAL_NV_WORD_SIZE;
   \   0000D3   E5..         MOV     A,?V0 + 4
   \   0000D5   2404         ADD     A,#0x4
   \   0000D7   F5..         MOV     ?V0 + 4,A
   \   0000D9   E5..         MOV     A,?V0 + 5
   \   0000DB   3400         ADDC    A,#0x0
   \   0000DD   F5..         MOV     ?V0 + 5,A
    989            }
    990          
    991            rem = len % OSAL_NV_WORD_SIZE;
   \                     ??writeBuf_0:
   \   0000DF   A8..         MOV     R0,?V0 + 6
   \   0000E1   A9..         MOV     R1,?V0 + 7
   \   0000E3   7A04         MOV     R2,#0x4
   \   0000E5   7B00         MOV     R3,#0x0
   \   0000E7   12....       LCALL   ?US_DIV_MOD
   \   0000EA   EA           MOV     A,R2
   \   0000EB   FE           MOV     R6,A
    992            len /= OSAL_NV_WORD_SIZE;
   \   0000EC   85....       MOV     ?V0 + 2,?V0 + 6
   \   0000EF   85....       MOV     ?V0 + 3,?V0 + 7
   \   0000F2   7402         MOV     A,#0x2
   \   0000F4   78..         MOV     R0,#?V0 + 2
   \   0000F6   12....       LCALL   ?US_SHR
   \   0000F9   85....       MOV     ?V0 + 6,?V0 + 2
   \   0000FC   85....       MOV     ?V0 + 7,?V0 + 3
    993          
    994            if ( len )
   \   0000FF   E5..         MOV     A,?V0 + 6
   \   000101   45..         ORL     A,?V0 + 7
   \   000103   605F         JZ      ??writeBuf_3
    995            {
    996              writeWordM( dstPg, dstOff, buf, len );
   \   000105                ; Setup parameters for call to function writeWordM
   \   000105   78..         MOV     R0,#?V0 + 6
   \   000107   12....       LCALL   ?PUSH_XSTACK_I_TWO
   \   00010A   AC..         MOV     R4,?V0 + 0
   \   00010C   AD..         MOV     R5,?V0 + 1
   \   00010E   AA..         MOV     R2,?V0 + 4
   \   000110   AB..         MOV     R3,?V0 + 5
   \   000112   EF           MOV     A,R7
   \   000113   F9           MOV     R1,A
   \   000114   12....       LCALL   ??writeWordM?relay
   \   000117   7402         MOV     A,#0x2
   \   000119   12....       LCALL   ?DEALLOC_XSTACK8
    997              dstOff += OSAL_NV_WORD_SIZE * len;
   \   00011C   A8..         MOV     R0,?V0 + 6
   \   00011E   A9..         MOV     R1,?V0 + 7
   \   000120   E8           MOV     A,R0
   \   000121   75F004       MOV     B,#0x4
   \   000124   A4           MUL     AB
   \   000125   C8           XCH     A,R0
   \   000126   AAF0         MOV     R2,B
   \   000128   75F000       MOV     B,#0x0
   \   00012B   A4           MUL     AB
   \   00012C   2A           ADD     A,R2
   \   00012D   FA           MOV     R2,A
   \   00012E   75F004       MOV     B,#0x4
   \   000131   E5..         MOV     A,?V0 + 7
   \   000133   A4           MUL     AB
   \   000134   2A           ADD     A,R2
   \   000135   F9           MOV     R1,A
   \   000136   E5..         MOV     A,?V0 + 4
   \   000138   28           ADD     A,R0
   \   000139   F5..         MOV     ?V0 + 4,A
   \   00013B   E5..         MOV     A,?V0 + 5
   \   00013D   39           ADDC    A,R1
   \   00013E   F5..         MOV     ?V0 + 5,A
    998              buf += OSAL_NV_WORD_SIZE * len;
   \   000140   A8..         MOV     R0,?V0 + 6
   \   000142   A9..         MOV     R1,?V0 + 7
   \   000144   E8           MOV     A,R0
   \   000145   75F004       MOV     B,#0x4
   \   000148   A4           MUL     AB
   \   000149   C8           XCH     A,R0
   \   00014A   AAF0         MOV     R2,B
   \   00014C   75F000       MOV     B,#0x0
   \   00014F   A4           MUL     AB
   \   000150   2A           ADD     A,R2
   \   000151   FA           MOV     R2,A
   \   000152   75F004       MOV     B,#0x4
   \   000155   E5..         MOV     A,?V0 + 7
   \   000157   A4           MUL     AB
   \   000158   2A           ADD     A,R2
   \   000159   F9           MOV     R1,A
   \   00015A   E5..         MOV     A,?V0 + 0
   \   00015C   28           ADD     A,R0
   \   00015D   F5..         MOV     ?V0 + 0,A
   \   00015F   E5..         MOV     A,?V0 + 1
   \   000161   39           ADDC    A,R1
   \   000162   F5..         MOV     ?V0 + 1,A
    999            }
   1000          
   1001            if ( rem )
   \                     ??writeBuf_3:
   \   000164   EE           MOV     A,R6
   \   000165   6078         JZ      ??writeBuf_4
   1002            {
   1003              uint8 idx = 0;
   \   000167   75..00       MOV     ?V0 + 2,#0x0
   1004              HalFlashRead(dstPg, dstOff, tmp, OSAL_NV_WORD_SIZE);
   \   00016A                ; Setup parameters for call to function HalFlashRead
   \   00016A   75..04       MOV     ?V0 + 8,#0x4
   \   00016D   75..00       MOV     ?V0 + 9,#0x0
   \   000170   78..         MOV     R0,#?V0 + 8
   \   000172   12....       LCALL   ?PUSH_XSTACK_I_TWO
   \   000175   7402         MOV     A,#0x2
   \   000177   12....       LCALL   ?XSTACK_DISP0_8
   \   00017A   AC82         MOV     R4,DPL
   \   00017C   AD83         MOV     R5,DPH
   \   00017E   AA..         MOV     R2,?V0 + 4
   \   000180   AB..         MOV     R3,?V0 + 5
   \   000182   EF           MOV     A,R7
   \   000183   F9           MOV     R1,A
   \   000184   12....       LCALL   ??HalFlashRead?relay
   \   000187   7402         MOV     A,#0x2
   \   000189   12....       LCALL   ?DEALLOC_XSTACK8
   1005              while ( rem-- )
   \                     ??writeBuf_5:
   \   00018C   8E..         MOV     ?V0 + 3,R6
   \   00018E   74FF         MOV     A,#-0x1
   \   000190   25..         ADD     A,?V0 + 3
   \   000192   FE           MOV     R6,A
   \   000193   E5..         MOV     A,?V0 + 3
   \   000195   6035         JZ      ??writeBuf_6
   1006              {
   1007                tmp[idx++] = *buf++;
   \   000197   85..82       MOV     DPL,?V0 + 0
   \   00019A   85..83       MOV     DPH,?V0 + 1
   \   00019D   E0           MOVX    A,@DPTR
   \   00019E   C0E0         PUSH    A
   \   0001A0   85....       MOV     ?V0 + 8,?V0 + 2
   \   0001A3   75..00       MOV     ?V0 + 9,#0x0
   \   0001A6   85..82       MOV     DPL,?XSP + 0
   \   0001A9   85..83       MOV     DPH,?XSP + 1
   \   0001AC   E582         MOV     A,DPL
   \   0001AE   25..         ADD     A,?V0 + 8
   \   0001B0   F582         MOV     DPL,A
   \   0001B2   E583         MOV     A,DPH
   \   0001B4   35..         ADDC    A,?V0 + 9
   \   0001B6   F583         MOV     DPH,A
   \   0001B8   D0E0         POP     A
   \   0001BA   F0           MOVX    @DPTR,A
   \   0001BB   85..82       MOV     DPL,?V0 + 0
   \   0001BE   85..83       MOV     DPH,?V0 + 1
   \   0001C1   A3           INC     DPTR
   \   0001C2   8582..       MOV     ?V0 + 0,DPL
   \   0001C5   8583..       MOV     ?V0 + 1,DPH
   \   0001C8   05..         INC     ?V0 + 2
   \   0001CA   80C0         SJMP    ??writeBuf_5
   1008              }
   1009              writeWord( dstPg, dstOff, tmp );
   \                     ??writeBuf_6:
   \   0001CC                ; Setup parameters for call to function writeWord
   \   0001CC   85..82       MOV     DPL,?XSP + 0
   \   0001CF   85..83       MOV     DPH,?XSP + 1
   \   0001D2   AC82         MOV     R4,DPL
   \   0001D4   AD83         MOV     R5,DPH
   \   0001D6   AA..         MOV     R2,?V0 + 4
   \   0001D8   AB..         MOV     R3,?V0 + 5
   \   0001DA   EF           MOV     A,R7
   \   0001DB   F9           MOV     R1,A
   \   0001DC   12....       LCALL   ??writeWord?relay
   1010            }
   1011          }
   \                     ??writeBuf_4:
   \   0001DF   7404         MOV     A,#0x4
   \   0001E1   12....       LCALL   ?DEALLOC_XSTACK8
   \   0001E4   7F0A         MOV     R7,#0xa
   \   0001E6   02....       LJMP    ?BANKED_LEAVE_XDATA
   1012          
   1013          /*********************************************************************
   1014           * @fn      xferBuf
   1015           *
   1016           * @brief   Xfers an NV buffer from one location to another, enforcing OSAL_NV_WORD_SIZE writes.
   1017           *
   1018           * @return  none
   1019           */

   \                                 In  segment BANKED_CODE, align 1, keep-with-next
   1020          static void xferBuf( uint8 srcPg, uint16 srcOff, uint8 dstPg, uint16 dstOff, uint16 len )
   \                     xferBuf:
   1021          {
   \   000000   74ED         MOV     A,#-0x13
   \   000002   12....       LCALL   ?BANKED_ENTER_XDATA
   \   000005                ; Saved register size: 19
   \   000005                ; Auto size: 4
   \   000005   74FC         MOV     A,#-0x4
   \   000007   12....       LCALL   ?ALLOC_XSTACK8
   \   00000A   89..         MOV     ?V0 + 10,R1
   \   00000C   8A..         MOV     ?V0 + 4,R2
   \   00000E   8B..         MOV     ?V0 + 5,R3
   \   000010   8C..         MOV     ?V0 + 7,R4
   \   000012   7417         MOV     A,#0x17
   \   000014   12....       LCALL   ?XSTACK_DISP0_8
   \   000017   E0           MOVX    A,@DPTR
   \   000018   F5..         MOV     ?V0 + 0,A
   \   00001A   A3           INC     DPTR
   \   00001B   E0           MOVX    A,@DPTR
   \   00001C   F5..         MOV     ?V0 + 1,A
   \   00001E   7419         MOV     A,#0x19
   \   000020   12....       LCALL   ?XSTACK_DISP0_8
   \   000023   E0           MOVX    A,@DPTR
   \   000024   FE           MOV     R6,A
   \   000025   A3           INC     DPTR
   \   000026   E0           MOVX    A,@DPTR
   \   000027   FF           MOV     R7,A
   1022            uint8 rem = dstOff % OSAL_NV_WORD_SIZE;
   \   000028   A8..         MOV     R0,?V0 + 0
   \   00002A   A9..         MOV     R1,?V0 + 1
   \   00002C   7A04         MOV     R2,#0x4
   \   00002E   7B00         MOV     R3,#0x0
   \   000030   12....       LCALL   ?US_DIV_MOD
   \   000033   EA           MOV     A,R2
   \   000034   F5..         MOV     ?V0 + 2,A
   1023            uint8 tmp[OSAL_NV_WORD_SIZE];
   1024          
   1025            if ( rem )
   \   000036   E5..         MOV     A,?V0 + 2
   \   000038   7003         JNZ     $+5
   \   00003A   02....       LJMP    ??xferBuf_0 & 0xFFFF
   1026            {
   1027              dstOff -= rem;
   \   00003D   85....       MOV     ?V0 + 8,?V0 + 2
   \   000040   75..00       MOV     ?V0 + 9,#0x0
   \   000043   C3           CLR     C
   \   000044   E5..         MOV     A,?V0 + 0
   \   000046   95..         SUBB    A,?V0 + 8
   \   000048   F5..         MOV     ?V0 + 0,A
   \   00004A   E5..         MOV     A,?V0 + 1
   \   00004C   95..         SUBB    A,?V0 + 9
   \   00004E   F5..         MOV     ?V0 + 1,A
   1028              HalFlashRead(dstPg, dstOff, tmp, OSAL_NV_WORD_SIZE);
   \   000050                ; Setup parameters for call to function HalFlashRead
   \   000050   75..04       MOV     ?V0 + 8,#0x4
   \   000053   75..00       MOV     ?V0 + 9,#0x0
   \   000056   78..         MOV     R0,#?V0 + 8
   \   000058   12....       LCALL   ?PUSH_XSTACK_I_TWO
   \   00005B   7402         MOV     A,#0x2
   \   00005D   12....       LCALL   ?XSTACK_DISP0_8
   \   000060   AC82         MOV     R4,DPL
   \   000062   AD83         MOV     R5,DPH
   \   000064   AA..         MOV     R2,?V0 + 0
   \   000066   AB..         MOV     R3,?V0 + 1
   \   000068   A9..         MOV     R1,?V0 + 7
   \   00006A   12....       LCALL   ??HalFlashRead?relay
   \   00006D   7402         MOV     A,#0x2
   \   00006F   12....       LCALL   ?DEALLOC_XSTACK8
   1029          
   1030              while ( (rem < OSAL_NV_WORD_SIZE) && len )
   \                     ??xferBuf_1:
   \   000072   E5..         MOV     A,?V0 + 2
   \   000074   C3           CLR     C
   \   000075   9404         SUBB    A,#0x4
   \   000077   504A         JNC     ??xferBuf_2
   \   000079   EE           MOV     A,R6
   \   00007A   4F           ORL     A,R7
   \   00007B   6046         JZ      ??xferBuf_2
   1031              {
   1032                HalFlashRead(srcPg, srcOff, tmp+rem, 1);
   \   00007D                ; Setup parameters for call to function HalFlashRead
   \   00007D   75..01       MOV     ?V0 + 8,#0x1
   \   000080   75..00       MOV     ?V0 + 9,#0x0
   \   000083   78..         MOV     R0,#?V0 + 8
   \   000085   12....       LCALL   ?PUSH_XSTACK_I_TWO
   \   000088   85....       MOV     ?V0 + 8,?V0 + 2
   \   00008B   75..00       MOV     ?V0 + 9,#0x0
   \   00008E   7402         MOV     A,#0x2
   \   000090   12....       LCALL   ?XSTACK_DISP0_8
   \   000093   E582         MOV     A,DPL
   \   000095   25..         ADD     A,?V0 + 8
   \   000097   FC           MOV     R4,A
   \   000098   E583         MOV     A,DPH
   \   00009A   35..         ADDC    A,?V0 + 9
   \   00009C   FD           MOV     R5,A
   \   00009D   AA..         MOV     R2,?V0 + 4
   \   00009F   AB..         MOV     R3,?V0 + 5
   \   0000A1   A9..         MOV     R1,?V0 + 10
   \   0000A3   12....       LCALL   ??HalFlashRead?relay
   \   0000A6   7402         MOV     A,#0x2
   \   0000A8   12....       LCALL   ?DEALLOC_XSTACK8
   1033                srcOff++;
   \   0000AB   E5..         MOV     A,?V0 + 4
   \   0000AD   2401         ADD     A,#0x1
   \   0000AF   F5..         MOV     ?V0 + 4,A
   \   0000B1   E5..         MOV     A,?V0 + 5
   \   0000B3   3400         ADDC    A,#0x0
   \   0000B5   F5..         MOV     ?V0 + 5,A
   1034                rem++;
   \   0000B7   05..         INC     ?V0 + 2
   1035                len--;
   \   0000B9   EE           MOV     A,R6
   \   0000BA   24FF         ADD     A,#-0x1
   \   0000BC   FE           MOV     R6,A
   \   0000BD   EF           MOV     A,R7
   \   0000BE   34FF         ADDC    A,#-0x1
   \   0000C0   FF           MOV     R7,A
   \   0000C1   80AF         SJMP    ??xferBuf_1
   1036              }
   1037          
   1038              writeWord( dstPg, dstOff, tmp );
   \                     ??xferBuf_2:
   \   0000C3                ; Setup parameters for call to function writeWord
   \   0000C3   85..82       MOV     DPL,?XSP + 0
   \   0000C6   85..83       MOV     DPH,?XSP + 1
   \   0000C9   AC82         MOV     R4,DPL
   \   0000CB   AD83         MOV     R5,DPH
   \   0000CD   AA..         MOV     R2,?V0 + 0
   \   0000CF   AB..         MOV     R3,?V0 + 1
   \   0000D1   A9..         MOV     R1,?V0 + 7
   \   0000D3   12....       LCALL   ??writeWord?relay
   1039              dstOff += OSAL_NV_WORD_SIZE;
   \   0000D6   E5..         MOV     A,?V0 + 0
   \   0000D8   2404         ADD     A,#0x4
   \   0000DA   F5..         MOV     ?V0 + 0,A
   \   0000DC   E5..         MOV     A,?V0 + 1
   \   0000DE   3400         ADDC    A,#0x0
   \   0000E0   F5..         MOV     ?V0 + 1,A
   1040            }
   1041          
   1042            rem = len % OSAL_NV_WORD_SIZE;
   \                     ??xferBuf_0:
   \   0000E2   EE           MOV     A,R6
   \   0000E3   F8           MOV     R0,A
   \   0000E4   EF           MOV     A,R7
   \   0000E5   F9           MOV     R1,A
   \   0000E6   7A04         MOV     R2,#0x4
   \   0000E8   7B00         MOV     R3,#0x0
   \   0000EA   12....       LCALL   ?US_DIV_MOD
   \   0000ED   EA           MOV     A,R2
   \   0000EE   F5..         MOV     ?V0 + 2,A
   1043            len /= OSAL_NV_WORD_SIZE;
   \   0000F0   8E..         MOV     ?V0 + 8,R6
   \   0000F2   8F..         MOV     ?V0 + 9,R7
   \   0000F4   7402         MOV     A,#0x2
   \   0000F6   78..         MOV     R0,#?V0 + 8
   \   0000F8   12....       LCALL   ?US_SHR
   \   0000FB   AE..         MOV     R6,?V0 + 8
   \   0000FD   AF..         MOV     R7,?V0 + 9
   1044          
   1045            while ( len-- )
   \                     ??xferBuf_3:
   \   0000FF   EE           MOV     A,R6
   \   000100   F8           MOV     R0,A
   \   000101   EF           MOV     A,R7
   \   000102   F9           MOV     R1,A
   \   000103   E8           MOV     A,R0
   \   000104   24FF         ADD     A,#-0x1
   \   000106   FE           MOV     R6,A
   \   000107   E9           MOV     A,R1
   \   000108   34FF         ADDC    A,#-0x1
   \   00010A   FF           MOV     R7,A
   \   00010B   E8           MOV     A,R0
   \   00010C   49           ORL     A,R1
   \   00010D   604F         JZ      ??xferBuf_4
   1046            {
   1047              HalFlashRead(srcPg, srcOff, tmp, OSAL_NV_WORD_SIZE);
   \   00010F                ; Setup parameters for call to function HalFlashRead
   \   00010F   75..04       MOV     ?V0 + 8,#0x4
   \   000112   75..00       MOV     ?V0 + 9,#0x0
   \   000115   78..         MOV     R0,#?V0 + 8
   \   000117   12....       LCALL   ?PUSH_XSTACK_I_TWO
   \   00011A   7402         MOV     A,#0x2
   \   00011C   12....       LCALL   ?XSTACK_DISP0_8
   \   00011F   AC82         MOV     R4,DPL
   \   000121   AD83         MOV     R5,DPH
   \   000123   AA..         MOV     R2,?V0 + 4
   \   000125   AB..         MOV     R3,?V0 + 5
   \   000127   A9..         MOV     R1,?V0 + 10
   \   000129   12....       LCALL   ??HalFlashRead?relay
   \   00012C   7402         MOV     A,#0x2
   \   00012E   12....       LCALL   ?DEALLOC_XSTACK8
   1048              srcOff += OSAL_NV_WORD_SIZE;
   \   000131   E5..         MOV     A,?V0 + 4
   \   000133   2404         ADD     A,#0x4
   \   000135   F5..         MOV     ?V0 + 4,A
   \   000137   E5..         MOV     A,?V0 + 5
   \   000139   3400         ADDC    A,#0x0
   \   00013B   F5..         MOV     ?V0 + 5,A
   1049              writeWord( dstPg, dstOff, tmp );
   \   00013D                ; Setup parameters for call to function writeWord
   \   00013D   85..82       MOV     DPL,?XSP + 0
   \   000140   85..83       MOV     DPH,?XSP + 1
   \   000143   AC82         MOV     R4,DPL
   \   000145   AD83         MOV     R5,DPH
   \   000147   AA..         MOV     R2,?V0 + 0
   \   000149   AB..         MOV     R3,?V0 + 1
   \   00014B   A9..         MOV     R1,?V0 + 7
   \   00014D   12....       LCALL   ??writeWord?relay
   1050              dstOff += OSAL_NV_WORD_SIZE;
   \   000150   E5..         MOV     A,?V0 + 0
   \   000152   2404         ADD     A,#0x4
   \   000154   F5..         MOV     ?V0 + 0,A
   \   000156   E5..         MOV     A,?V0 + 1
   \   000158   3400         ADDC    A,#0x0
   \   00015A   F5..         MOV     ?V0 + 1,A
   \   00015C   80A1         SJMP    ??xferBuf_3
   1051            }
   1052          
   1053            if ( rem )
   \                     ??xferBuf_4:
   \   00015E   E5..         MOV     A,?V0 + 2
   \   000160   7003         JNZ     $+5
   \   000162   02....       LJMP    ??xferBuf_5 & 0xFFFF
   1054            {
   1055              uint8 idx = 0;
   \   000165   75..00       MOV     ?V0 + 3,#0x0
   1056              HalFlashRead(dstPg, dstOff, tmp, OSAL_NV_WORD_SIZE);
   \   000168                ; Setup parameters for call to function HalFlashRead
   \   000168   75..04       MOV     ?V0 + 8,#0x4
   \   00016B   75..00       MOV     ?V0 + 9,#0x0
   \   00016E   78..         MOV     R0,#?V0 + 8
   \   000170   12....       LCALL   ?PUSH_XSTACK_I_TWO
   \   000173   7402         MOV     A,#0x2
   \   000175   12....       LCALL   ?XSTACK_DISP0_8
   \   000178   AC82         MOV     R4,DPL
   \   00017A   AD83         MOV     R5,DPH
   \   00017C   AA..         MOV     R2,?V0 + 0
   \   00017E   AB..         MOV     R3,?V0 + 1
   \   000180   A9..         MOV     R1,?V0 + 7
   \   000182   12....       LCALL   ??HalFlashRead?relay
   \   000185   7402         MOV     A,#0x2
   \   000187   12....       LCALL   ?DEALLOC_XSTACK8
   1057              while ( rem-- )
   \                     ??xferBuf_6:
   \   00018A   85....       MOV     ?V0 + 6,?V0 + 2
   \   00018D   74FF         MOV     A,#-0x1
   \   00018F   25..         ADD     A,?V0 + 6
   \   000191   F5..         MOV     ?V0 + 2,A
   \   000193   E5..         MOV     A,?V0 + 6
   \   000195   603E         JZ      ??xferBuf_7
   1058              {
   1059                HalFlashRead(srcPg, srcOff, tmp+idx, 1);
   \   000197                ; Setup parameters for call to function HalFlashRead
   \   000197   75..01       MOV     ?V0 + 8,#0x1
   \   00019A   75..00       MOV     ?V0 + 9,#0x0
   \   00019D   78..         MOV     R0,#?V0 + 8
   \   00019F   12....       LCALL   ?PUSH_XSTACK_I_TWO
   \   0001A2   85....       MOV     ?V0 + 8,?V0 + 3
   \   0001A5   75..00       MOV     ?V0 + 9,#0x0
   \   0001A8   7402         MOV     A,#0x2
   \   0001AA   12....       LCALL   ?XSTACK_DISP0_8
   \   0001AD   E582         MOV     A,DPL
   \   0001AF   25..         ADD     A,?V0 + 8
   \   0001B1   FC           MOV     R4,A
   \   0001B2   E583         MOV     A,DPH
   \   0001B4   35..         ADDC    A,?V0 + 9
   \   0001B6   FD           MOV     R5,A
   \   0001B7   AA..         MOV     R2,?V0 + 4
   \   0001B9   AB..         MOV     R3,?V0 + 5
   \   0001BB   A9..         MOV     R1,?V0 + 10
   \   0001BD   12....       LCALL   ??HalFlashRead?relay
   \   0001C0   7402         MOV     A,#0x2
   \   0001C2   12....       LCALL   ?DEALLOC_XSTACK8
   1060                srcOff++;
   \   0001C5   E5..         MOV     A,?V0 + 4
   \   0001C7   2401         ADD     A,#0x1
   \   0001C9   F5..         MOV     ?V0 + 4,A
   \   0001CB   E5..         MOV     A,?V0 + 5
   \   0001CD   3400         ADDC    A,#0x0
   \   0001CF   F5..         MOV     ?V0 + 5,A
   1061                idx++;
   \   0001D1   05..         INC     ?V0 + 3
   \   0001D3   80B5         SJMP    ??xferBuf_6
   1062              }
   1063              writeWord( dstPg, dstOff, tmp );
   \                     ??xferBuf_7:
   \   0001D5                ; Setup parameters for call to function writeWord
   \   0001D5   85..82       MOV     DPL,?XSP + 0
   \   0001D8   85..83       MOV     DPH,?XSP + 1
   \   0001DB   AC82         MOV     R4,DPL
   \   0001DD   AD83         MOV     R5,DPH
   \   0001DF   AA..         MOV     R2,?V0 + 0
   \   0001E1   AB..         MOV     R3,?V0 + 1
   \   0001E3   A9..         MOV     R1,?V0 + 7
   \   0001E5   12....       LCALL   ??writeWord?relay
   1064            }
   1065          }
   \                     ??xferBuf_5:
   \   0001E8   7404         MOV     A,#0x4
   \   0001EA   12....       LCALL   ?DEALLOC_XSTACK8
   \   0001ED   7F0B         MOV     R7,#0xb
   \   0001EF   02....       LJMP    ?BANKED_LEAVE_XDATA
   1066          
   1067          /*********************************************************************
   1068           * @fn      writeItem
   1069           *
   1070           * @brief   Writes an item header/data combo to the specified NV page.
   1071           *
   1072           * @param   pg - Valid NV Flash page.
   1073           * @param   id - Valid NV item Id.
   1074           * @param   len  - Byte count of the data to write.
   1075           * @param   buf  - The data to write. If NULL, no data/checksum write.
   1076           * @param   flag - TRUE if the checksum should be written, FALSE otherwise.
   1077           *
   1078           * @return  TRUE if header/data to write matches header/data read back, else FALSE.
   1079           */

   \                                 In  segment BANKED_CODE, align 1, keep-with-next
   1080          static uint8 writeItem( uint8 pg, uint16 id, uint16 len, void *buf, uint8 flag )
   \                     writeItem:
   1081          {
   \   000000   74EC         MOV     A,#-0x14
   \   000002   12....       LCALL   ?BANKED_ENTER_XDATA
   \   000005                ; Saved register size: 20
   \   000005                ; Auto size: 8
   \   000005   74F8         MOV     A,#-0x8
   \   000007   12....       LCALL   ?ALLOC_XSTACK8
   \   00000A   89..         MOV     ?V0 + 0,R1
   \   00000C   8A..         MOV     ?V0 + 8,R2
   \   00000E   8B..         MOV     ?V0 + 9,R3
   \   000010   EC           MOV     A,R4
   \   000011   FE           MOV     R6,A
   \   000012   ED           MOV     A,R5
   \   000013   FF           MOV     R7,A
   \   000014   741C         MOV     A,#0x1c
   \   000016   12....       LCALL   ?XSTACK_DISP0_8
   \   000019   E0           MOVX    A,@DPTR
   \   00001A   F5..         MOV     ?V0 + 6,A
   \   00001C   A3           INC     DPTR
   \   00001D   E0           MOVX    A,@DPTR
   \   00001E   F5..         MOV     ?V0 + 7,A
   \   000020   741E         MOV     A,#0x1e
   \   000022   12....       LCALL   ?XSTACK_DISP0_8
   \   000025   E0           MOVX    A,@DPTR
   \   000026   F5..         MOV     ?V0 + 4,A
   1082            uint16 offset = pgOff[pg-OSAL_NV_PAGE_BEG];
   \   000028   E5..         MOV     A,?V0 + 0
   \   00002A   A8..         MOV     R0,?V0 + 0
   \   00002C   7900         MOV     R1,#0x0
   \   00002E   E8           MOV     A,R0
   \   00002F   75F002       MOV     B,#0x2
   \   000032   A4           MUL     AB
   \   000033   C8           XCH     A,R0
   \   000034   AAF0         MOV     R2,B
   \   000036   75F000       MOV     B,#0x0
   \   000039   A4           MUL     AB
   \   00003A   2A           ADD     A,R2
   \   00003B   FA           MOV     R2,A
   \   00003C   75F002       MOV     B,#0x2
   \   00003F   E9           MOV     A,R1
   \   000040   A4           MUL     AB
   \   000041   2A           ADD     A,R2
   \   000042   F9           MOV     R1,A
   \   000043   74..         MOV     A,#(pgOff + 14) & 0xff
   \   000045   28           ADD     A,R0
   \   000046   F582         MOV     DPL,A
   \   000048   74..         MOV     A,#((pgOff - 242) >> 8) & 0xff
   \   00004A   39           ADDC    A,R1
   \   00004B   F583         MOV     DPH,A
   \   00004D   E0           MOVX    A,@DPTR
   \   00004E   F5..         MOV     ?V0 + 2,A
   \   000050   A3           INC     DPTR
   \   000051   E0           MOVX    A,@DPTR
   \   000052   F5..         MOV     ?V0 + 3,A
   1083            uint8 rtrn = FALSE;
   \   000054   75..00       MOV     ?V0 + 1,#0x0
   1084            osalNvHdr_t hdr;
   1085          
   1086            hdr.id = id;
   \   000057   85..82       MOV     DPL,?XSP + 0
   \   00005A   85..83       MOV     DPH,?XSP + 1
   \   00005D   E5..         MOV     A,?V0 + 8
   \   00005F   F0           MOVX    @DPTR,A
   \   000060   A3           INC     DPTR
   \   000061   E5..         MOV     A,?V0 + 9
   \   000063   F0           MOVX    @DPTR,A
   1087            hdr.len = len;
   \   000064   7402         MOV     A,#0x2
   \   000066   12....       LCALL   ?XSTACK_DISP0_8
   \   000069   EE           MOV     A,R6
   \   00006A   F0           MOVX    @DPTR,A
   \   00006B   A3           INC     DPTR
   \   00006C   EF           MOV     A,R7
   \   00006D   F0           MOVX    @DPTR,A
   1088          
   1089            writeWord( pg, offset, (uint8 *)&hdr );
   \   00006E                ; Setup parameters for call to function writeWord
   \   00006E   85..82       MOV     DPL,?XSP + 0
   \   000071   85..83       MOV     DPH,?XSP + 1
   \   000074   AC82         MOV     R4,DPL
   \   000076   AD83         MOV     R5,DPH
   \   000078   AA..         MOV     R2,?V0 + 2
   \   00007A   AB..         MOV     R3,?V0 + 3
   \   00007C   A9..         MOV     R1,?V0 + 0
   \   00007E   12....       LCALL   ??writeWord?relay
   1090            HalFlashRead(pg, offset, (uint8 *)(&hdr), OSAL_NV_HDR_SIZE);
   \   000081                ; Setup parameters for call to function HalFlashRead
   \   000081   75..08       MOV     ?V0 + 10,#0x8
   \   000084   75..00       MOV     ?V0 + 11,#0x0
   \   000087   78..         MOV     R0,#?V0 + 10
   \   000089   12....       LCALL   ?PUSH_XSTACK_I_TWO
   \   00008C   7402         MOV     A,#0x2
   \   00008E   12....       LCALL   ?XSTACK_DISP0_8
   \   000091   AC82         MOV     R4,DPL
   \   000093   AD83         MOV     R5,DPH
   \   000095   AA..         MOV     R2,?V0 + 2
   \   000097   AB..         MOV     R3,?V0 + 3
   \   000099   A9..         MOV     R1,?V0 + 0
   \   00009B   12....       LCALL   ??HalFlashRead?relay
   \   00009E   7402         MOV     A,#0x2
   \   0000A0   12....       LCALL   ?DEALLOC_XSTACK8
   1091          
   1092            if ( (hdr.id == id) && (hdr.len == len) )
   \   0000A3   85..82       MOV     DPL,?XSP + 0
   \   0000A6   85..83       MOV     DPH,?XSP + 1
   \   0000A9   E0           MOVX    A,@DPTR
   \   0000AA   65..         XRL     A,?V0 + 8
   \   0000AC   7004         JNZ     ??writeItem_0
   \   0000AE   A3           INC     DPTR
   \   0000AF   E0           MOVX    A,@DPTR
   \   0000B0   65..         XRL     A,?V0 + 9
   \                     ??writeItem_0:
   \   0000B2   6003         JZ      $+5
   \   0000B4   02....       LJMP    ??writeItem_1 & 0xFFFF
   \   0000B7   7402         MOV     A,#0x2
   \   0000B9   12....       LCALL   ?XSTACK_DISP0_8
   \   0000BC   E0           MOVX    A,@DPTR
   \   0000BD   6E           XRL     A,R6
   \   0000BE   7003         JNZ     ??writeItem_2
   \   0000C0   A3           INC     DPTR
   \   0000C1   E0           MOVX    A,@DPTR
   \   0000C2   6F           XRL     A,R7
   \                     ??writeItem_2:
   \   0000C3   6003         JZ      $+5
   \   0000C5   02....       LJMP    ??writeItem_1 & 0xFFFF
   1093            {
   1094              if ( flag )
   \   0000C8   E5..         MOV     A,?V0 + 4
   \   0000CA   7003         JNZ     $+5
   \   0000CC   02....       LJMP    ??writeItem_3 & 0xFFFF
   1095              {
   1096                hdr.chk = calcChkB( len, buf );
   \   0000CF                ; Setup parameters for call to function calcChkB
   \   0000CF   AC..         MOV     R4,?V0 + 6
   \   0000D1   AD..         MOV     R5,?V0 + 7
   \   0000D3   EE           MOV     A,R6
   \   0000D4   FA           MOV     R2,A
   \   0000D5   EF           MOV     A,R7
   \   0000D6   FB           MOV     R3,A
   \   0000D7   12....       LCALL   ??calcChkB?relay
   \   0000DA   7404         MOV     A,#0x4
   \   0000DC   12....       LCALL   ?XSTACK_DISP0_8
   \   0000DF   EA           MOV     A,R2
   \   0000E0   F0           MOVX    @DPTR,A
   \   0000E1   A3           INC     DPTR
   \   0000E2   EB           MOV     A,R3
   \   0000E3   F0           MOVX    @DPTR,A
   1097          
   1098                offset += OSAL_NV_HDR_SIZE;
   \   0000E4   E5..         MOV     A,?V0 + 2
   \   0000E6   2408         ADD     A,#0x8
   \   0000E8   F5..         MOV     ?V0 + 2,A
   \   0000EA   E5..         MOV     A,?V0 + 3
   \   0000EC   3400         ADDC    A,#0x0
   \   0000EE   F5..         MOV     ?V0 + 3,A
   1099                if ( buf != NULL )
   \   0000F0   E5..         MOV     A,?V0 + 6
   \   0000F2   45..         ORL     A,?V0 + 7
   \   0000F4   6017         JZ      ??writeItem_4
   1100                {
   1101                  writeBuf( pg, offset, len, buf );
   \   0000F6                ; Setup parameters for call to function writeBuf
   \   0000F6   78..         MOV     R0,#?V0 + 6
   \   0000F8   12....       LCALL   ?PUSH_XSTACK_I_TWO
   \   0000FB   EE           MOV     A,R6
   \   0000FC   FC           MOV     R4,A
   \   0000FD   EF           MOV     A,R7
   \   0000FE   FD           MOV     R5,A
   \   0000FF   AA..         MOV     R2,?V0 + 2
   \   000101   AB..         MOV     R3,?V0 + 3
   \   000103   A9..         MOV     R1,?V0 + 0
   \   000105   12....       LCALL   ??writeBuf?relay
   \   000108   7402         MOV     A,#0x2
   \   00010A   12....       LCALL   ?DEALLOC_XSTACK8
   1102                }
   1103          
   1104                if ( hdr.chk == calcChkF( pg, offset, len ) )
   \                     ??writeItem_4:
   \   00010D                ; Setup parameters for call to function calcChkF
   \   00010D   EE           MOV     A,R6
   \   00010E   FC           MOV     R4,A
   \   00010F   EF           MOV     A,R7
   \   000110   FD           MOV     R5,A
   \   000111   AA..         MOV     R2,?V0 + 2
   \   000113   AB..         MOV     R3,?V0 + 3
   \   000115   A9..         MOV     R1,?V0 + 0
   \   000117   12....       LCALL   ??calcChkF?relay
   \   00011A   8A..         MOV     ?V0 + 10,R2
   \   00011C   8B..         MOV     ?V0 + 11,R3
   \   00011E   A8..         MOV     R0,?V0 + 10
   \   000120   A9..         MOV     R1,?V0 + 11
   \   000122   7404         MOV     A,#0x4
   \   000124   12....       LCALL   ?XSTACK_DISP0_8
   \   000127   E0           MOVX    A,@DPTR
   \   000128   68           XRL     A,R0
   \   000129   7003         JNZ     ??writeItem_5
   \   00012B   A3           INC     DPTR
   \   00012C   E0           MOVX    A,@DPTR
   \   00012D   69           XRL     A,R1
   \                     ??writeItem_5:
   \   00012E   7045         JNZ     ??writeItem_6
   1105                {
   1106                  if ( hdr.chk == setChk( pg, offset, hdr.chk ) )
   \   000130                ; Setup parameters for call to function setChk
   \   000130   7404         MOV     A,#0x4
   \   000132   12....       LCALL   ?XSTACK_DISP0_8
   \   000135   E0           MOVX    A,@DPTR
   \   000136   FC           MOV     R4,A
   \   000137   A3           INC     DPTR
   \   000138   E0           MOVX    A,@DPTR
   \   000139   FD           MOV     R5,A
   \   00013A   AA..         MOV     R2,?V0 + 2
   \   00013C   AB..         MOV     R3,?V0 + 3
   \   00013E   A9..         MOV     R1,?V0 + 0
   \   000140   12....       LCALL   ??setChk?relay
   \   000143   8A..         MOV     ?V0 + 10,R2
   \   000145   8B..         MOV     ?V0 + 11,R3
   \   000147   A8..         MOV     R0,?V0 + 10
   \   000149   A9..         MOV     R1,?V0 + 11
   \   00014B   7404         MOV     A,#0x4
   \   00014D   12....       LCALL   ?XSTACK_DISP0_8
   \   000150   E0           MOVX    A,@DPTR
   \   000151   68           XRL     A,R0
   \   000152   7003         JNZ     ??writeItem_7
   \   000154   A3           INC     DPTR
   \   000155   E0           MOVX    A,@DPTR
   \   000156   69           XRL     A,R1
   \                     ??writeItem_7:
   \   000157   701C         JNZ     ??writeItem_6
   1107                  {
   1108                    hotItemUpdate(pg, offset, hdr.id);
   \   000159                ; Setup parameters for call to function hotItemUpdate
   \   000159   85..82       MOV     DPL,?XSP + 0
   \   00015C   85..83       MOV     DPH,?XSP + 1
   \   00015F   E0           MOVX    A,@DPTR
   \   000160   FC           MOV     R4,A
   \   000161   A3           INC     DPTR
   \   000162   E0           MOVX    A,@DPTR
   \   000163   FD           MOV     R5,A
   \   000164   AA..         MOV     R2,?V0 + 2
   \   000166   AB..         MOV     R3,?V0 + 3
   \   000168   A9..         MOV     R1,?V0 + 0
   \   00016A   12....       LCALL   ??hotItemUpdate?relay
   1109                    rtrn = TRUE;
   \   00016D   75..01       MOV     ?V0 + 1,#0x1
   \   000170   8003         SJMP    ??writeItem_6
   1110                  }
   1111                }
   1112              }
   1113              else
   1114              {
   1115                rtrn = TRUE;
   \                     ??writeItem_3:
   \   000172   75..01       MOV     ?V0 + 1,#0x1
   1116              }
   1117          
   1118              len = OSAL_NV_ITEM_SIZE( hdr.len );
   \                     ??writeItem_6:
   \   000175   7402         MOV     A,#0x2
   \   000177   12....       LCALL   ?XSTACK_DISP0_8
   \   00017A   C3           CLR     C
   \   00017B   E0           MOVX    A,@DPTR
   \   00017C   94F4         SUBB    A,#-0xc
   \   00017E   A3           INC     DPTR
   \   00017F   E0           MOVX    A,@DPTR
   \   000180   94FF         SUBB    A,#-0x1
   \   000182   4007         JC      ??writeItem_8
   \   000184   7EFC         MOV     R6,#-0x4
   \   000186   7FFF         MOV     R7,#-0x1
   \   000188   02....       LJMP    ??writeItem_9 & 0xFFFF
   \                     ??writeItem_8:
   \   00018B   7402         MOV     A,#0x2
   \   00018D   12....       LCALL   ?XSTACK_DISP0_8
   \   000190   E0           MOVX    A,@DPTR
   \   000191   2403         ADD     A,#0x3
   \   000193   F5..         MOV     ?V0 + 10,A
   \   000195   A3           INC     DPTR
   \   000196   E0           MOVX    A,@DPTR
   \   000197   3400         ADDC    A,#0x0
   \   000199   F5..         MOV     ?V0 + 11,A
   \   00019B   7402         MOV     A,#0x2
   \   00019D   78..         MOV     R0,#?V0 + 10
   \   00019F   12....       LCALL   ?US_SHR
   \   0001A2   E5..         MOV     A,?V0 + 10
   \   0001A4   75F004       MOV     B,#0x4
   \   0001A7   A4           MUL     AB
   \   0001A8   C5..         XCH     A,?V0 + 10
   \   0001AA   A8F0         MOV     R0,B
   \   0001AC   75F000       MOV     B,#0x0
   \   0001AF   A4           MUL     AB
   \   0001B0   28           ADD     A,R0
   \   0001B1   F8           MOV     R0,A
   \   0001B2   75F004       MOV     B,#0x4
   \   0001B5   E5..         MOV     A,?V0 + 11
   \   0001B7   A4           MUL     AB
   \   0001B8   28           ADD     A,R0
   \   0001B9   F5..         MOV     ?V0 + 11,A
   \   0001BB   E5..         MOV     A,?V0 + 10
   \   0001BD   2408         ADD     A,#0x8
   \   0001BF   FE           MOV     R6,A
   \   0001C0   E5..         MOV     A,?V0 + 11
   \   0001C2   3400         ADDC    A,#0x0
   \   0001C4   FF           MOV     R7,A
   \   0001C5   02....       LJMP    ??writeItem_9 & 0xFFFF
   1119            }
   1120            else
   1121            {
   1122              len = OSAL_NV_ITEM_SIZE( hdr.len );
   \                     ??writeItem_1:
   \   0001C8   7402         MOV     A,#0x2
   \   0001CA   12....       LCALL   ?XSTACK_DISP0_8
   \   0001CD   C3           CLR     C
   \   0001CE   E0           MOVX    A,@DPTR
   \   0001CF   94F4         SUBB    A,#-0xc
   \   0001D1   A3           INC     DPTR
   \   0001D2   E0           MOVX    A,@DPTR
   \   0001D3   94FF         SUBB    A,#-0x1
   \   0001D5   4006         JC      ??writeItem_10
   \   0001D7   7EFC         MOV     R6,#-0x4
   \   0001D9   7FFF         MOV     R7,#-0x1
   \   0001DB   803A         SJMP    ??writeItem_11
   \                     ??writeItem_10:
   \   0001DD   7402         MOV     A,#0x2
   \   0001DF   12....       LCALL   ?XSTACK_DISP0_8
   \   0001E2   E0           MOVX    A,@DPTR
   \   0001E3   2403         ADD     A,#0x3
   \   0001E5   F5..         MOV     ?V0 + 10,A
   \   0001E7   A3           INC     DPTR
   \   0001E8   E0           MOVX    A,@DPTR
   \   0001E9   3400         ADDC    A,#0x0
   \   0001EB   F5..         MOV     ?V0 + 11,A
   \   0001ED   7402         MOV     A,#0x2
   \   0001EF   78..         MOV     R0,#?V0 + 10
   \   0001F1   12....       LCALL   ?US_SHR
   \   0001F4   E5..         MOV     A,?V0 + 10
   \   0001F6   75F004       MOV     B,#0x4
   \   0001F9   A4           MUL     AB
   \   0001FA   C5..         XCH     A,?V0 + 10
   \   0001FC   A8F0         MOV     R0,B
   \   0001FE   75F000       MOV     B,#0x0
   \   000201   A4           MUL     AB
   \   000202   28           ADD     A,R0
   \   000203   F8           MOV     R0,A
   \   000204   75F004       MOV     B,#0x4
   \   000207   E5..         MOV     A,?V0 + 11
   \   000209   A4           MUL     AB
   \   00020A   28           ADD     A,R0
   \   00020B   F5..         MOV     ?V0 + 11,A
   \   00020D   E5..         MOV     A,?V0 + 10
   \   00020F   2408         ADD     A,#0x8
   \   000211   FE           MOV     R6,A
   \   000212   E5..         MOV     A,?V0 + 11
   \   000214   3400         ADDC    A,#0x0
   \   000216   FF           MOV     R7,A
   1123          
   1124              if (len > (OSAL_NV_PAGE_SIZE - pgOff[pg - OSAL_NV_PAGE_BEG]))
   \                     ??writeItem_11:
   \   000217   E5..         MOV     A,?V0 + 0
   \   000219   A8..         MOV     R0,?V0 + 0
   \   00021B   7900         MOV     R1,#0x0
   \   00021D   E8           MOV     A,R0
   \   00021E   75F002       MOV     B,#0x2
   \   000221   A4           MUL     AB
   \   000222   C8           XCH     A,R0
   \   000223   AAF0         MOV     R2,B
   \   000225   75F000       MOV     B,#0x0
   \   000228   A4           MUL     AB
   \   000229   2A           ADD     A,R2
   \   00022A   FA           MOV     R2,A
   \   00022B   75F002       MOV     B,#0x2
   \   00022E   E9           MOV     A,R1
   \   00022F   A4           MUL     AB
   \   000230   2A           ADD     A,R2
   \   000231   F9           MOV     R1,A
   \   000232   74..         MOV     A,#(pgOff + 14) & 0xff
   \   000234   28           ADD     A,R0
   \   000235   F582         MOV     DPL,A
   \   000237   74..         MOV     A,#((pgOff - 242) >> 8) & 0xff
   \   000239   39           ADDC    A,R1
   \   00023A   F583         MOV     DPH,A
   \   00023C   E0           MOVX    A,@DPTR
   \   00023D   F8           MOV     R0,A
   \   00023E   A3           INC     DPTR
   \   00023F   E0           MOVX    A,@DPTR
   \   000240   F9           MOV     R1,A
   \   000241   7400         MOV     A,#0x0
   \   000243   C3           CLR     C
   \   000244   98           SUBB    A,R0
   \   000245   F8           MOV     R0,A
   \   000246   7408         MOV     A,#0x8
   \   000248   99           SUBB    A,R1
   \   000249   F9           MOV     R1,A
   \   00024A   C3           CLR     C
   \   00024B   E8           MOV     A,R0
   \   00024C   9E           SUBB    A,R6
   \   00024D   E9           MOV     A,R1
   \   00024E   9F           SUBB    A,R7
   \   00024F   5037         JNC     ??writeItem_12
   1125              {
   1126                len = (OSAL_NV_PAGE_SIZE - pgOff[pg - OSAL_NV_PAGE_BEG]);
   \   000251   E5..         MOV     A,?V0 + 0
   \   000253   A8..         MOV     R0,?V0 + 0
   \   000255   7900         MOV     R1,#0x0
   \   000257   E8           MOV     A,R0
   \   000258   75F002       MOV     B,#0x2
   \   00025B   A4           MUL     AB
   \   00025C   C8           XCH     A,R0
   \   00025D   AAF0         MOV     R2,B
   \   00025F   75F000       MOV     B,#0x0
   \   000262   A4           MUL     AB
   \   000263   2A           ADD     A,R2
   \   000264   FA           MOV     R2,A
   \   000265   75F002       MOV     B,#0x2
   \   000268   E9           MOV     A,R1
   \   000269   A4           MUL     AB
   \   00026A   2A           ADD     A,R2
   \   00026B   F9           MOV     R1,A
   \   00026C   74..         MOV     A,#(pgOff + 14) & 0xff
   \   00026E   28           ADD     A,R0
   \   00026F   F582         MOV     DPL,A
   \   000271   74..         MOV     A,#((pgOff - 242) >> 8) & 0xff
   \   000273   39           ADDC    A,R1
   \   000274   F583         MOV     DPH,A
   \   000276   E0           MOVX    A,@DPTR
   \   000277   F8           MOV     R0,A
   \   000278   A3           INC     DPTR
   \   000279   E0           MOVX    A,@DPTR
   \   00027A   F9           MOV     R1,A
   \   00027B   7400         MOV     A,#0x0
   \   00027D   C3           CLR     C
   \   00027E   98           SUBB    A,R0
   \   00027F   F8           MOV     R0,A
   \   000280   7408         MOV     A,#0x8
   \   000282   99           SUBB    A,R1
   \   000283   F9           MOV     R1,A
   \   000284   E8           MOV     A,R0
   \   000285   FE           MOV     R6,A
   \   000286   E9           MOV     A,R1
   \   000287   FF           MOV     R7,A
   1127              }
   1128          
   1129              pgLost[pg - OSAL_NV_PAGE_BEG] += len;
   \                     ??writeItem_12:
   \   000288   E5..         MOV     A,?V0 + 0
   \   00028A   A8..         MOV     R0,?V0 + 0
   \   00028C   7900         MOV     R1,#0x0
   \   00028E   E8           MOV     A,R0
   \   00028F   75F002       MOV     B,#0x2
   \   000292   A4           MUL     AB
   \   000293   C8           XCH     A,R0
   \   000294   AAF0         MOV     R2,B
   \   000296   75F000       MOV     B,#0x0
   \   000299   A4           MUL     AB
   \   00029A   2A           ADD     A,R2
   \   00029B   FA           MOV     R2,A
   \   00029C   75F002       MOV     B,#0x2
   \   00029F   E9           MOV     A,R1
   \   0002A0   A4           MUL     AB
   \   0002A1   2A           ADD     A,R2
   \   0002A2   F9           MOV     R1,A
   \   0002A3   74..         MOV     A,#(pgLost + 14) & 0xff
   \   0002A5   28           ADD     A,R0
   \   0002A6   F582         MOV     DPL,A
   \   0002A8   74..         MOV     A,#((pgLost - 242) >> 8) & 0xff
   \   0002AA   39           ADDC    A,R1
   \   0002AB   F583         MOV     DPH,A
   \   0002AD   E0           MOVX    A,@DPTR
   \   0002AE   2E           ADD     A,R6
   \   0002AF   F0           MOVX    @DPTR,A
   \   0002B0   A3           INC     DPTR
   \   0002B1   E0           MOVX    A,@DPTR
   \   0002B2   3F           ADDC    A,R7
   \   0002B3   F0           MOVX    @DPTR,A
   1130            }
   1131            pgOff[pg - OSAL_NV_PAGE_BEG] += len;
   \                     ??writeItem_9:
   \   0002B4   E5..         MOV     A,?V0 + 0
   \   0002B6   A8..         MOV     R0,?V0 + 0
   \   0002B8   7900         MOV     R1,#0x0
   \   0002BA   E8           MOV     A,R0
   \   0002BB   75F002       MOV     B,#0x2
   \   0002BE   A4           MUL     AB
   \   0002BF   C8           XCH     A,R0
   \   0002C0   AAF0         MOV     R2,B
   \   0002C2   75F000       MOV     B,#0x0
   \   0002C5   A4           MUL     AB
   \   0002C6   2A           ADD     A,R2
   \   0002C7   FA           MOV     R2,A
   \   0002C8   75F002       MOV     B,#0x2
   \   0002CB   E9           MOV     A,R1
   \   0002CC   A4           MUL     AB
   \   0002CD   2A           ADD     A,R2
   \   0002CE   F9           MOV     R1,A
   \   0002CF   74..         MOV     A,#(pgOff + 14) & 0xff
   \   0002D1   28           ADD     A,R0
   \   0002D2   F582         MOV     DPL,A
   \   0002D4   74..         MOV     A,#((pgOff - 242) >> 8) & 0xff
   \   0002D6   39           ADDC    A,R1
   \   0002D7   F583         MOV     DPH,A
   \   0002D9   E0           MOVX    A,@DPTR
   \   0002DA   2E           ADD     A,R6
   \   0002DB   F0           MOVX    @DPTR,A
   \   0002DC   A3           INC     DPTR
   \   0002DD   E0           MOVX    A,@DPTR
   \   0002DE   3F           ADDC    A,R7
   \   0002DF   F0           MOVX    @DPTR,A
   1132          
   1133            return rtrn;
   \   0002E0   A9..         MOV     R1,?V0 + 1
   \   0002E2   7408         MOV     A,#0x8
   \   0002E4   12....       LCALL   ?DEALLOC_XSTACK8
   \   0002E7   7F0C         MOV     R7,#0xc
   \   0002E9   02....       LJMP    ?BANKED_LEAVE_XDATA
   1134          }
   1135          
   1136          /*********************************************************************
   1137           * @fn      hotItem
   1138           *
   1139           * @brief   Look for the parameter 'id' in the hot items array.
   1140           *
   1141           * @param   id - A valid NV item Id.
   1142           *
   1143           * @return  A valid index into the hot items if the item is hot; OSAL_NV_MAX_HOT if not.
   1144           */

   \                                 In  segment BANKED_CODE, align 1, keep-with-next
   1145          static uint8 hotItem(uint16 id)
   \                     hotItem:
   1146          {
   \   000000   C082         PUSH    DPL
   \   000002   C083         PUSH    DPH
   \   000004                ; Saved register size: 2
   \   000004                ; Auto size: 0
   1147            uint8 hotIdx;
   1148          
   1149            for (hotIdx = 0; hotIdx < OSAL_NV_MAX_HOT; hotIdx++)
   \   000004   7900         MOV     R1,#0x0
   \                     ??hotItem_0:
   \   000006   E9           MOV     A,R1
   \   000007   C3           CLR     C
   \   000008   9403         SUBB    A,#0x3
   \   00000A   502F         JNC     ??hotItem_1
   1150            {
   1151              if (hotIds[hotIdx] == id)
   \   00000C   E9           MOV     A,R1
   \   00000D   FC           MOV     R4,A
   \   00000E   7D00         MOV     R5,#0x0
   \   000010   EC           MOV     A,R4
   \   000011   75F002       MOV     B,#0x2
   \   000014   A4           MUL     AB
   \   000015   CC           XCH     A,R4
   \   000016   A8F0         MOV     R0,B
   \   000018   75F000       MOV     B,#0x0
   \   00001B   A4           MUL     AB
   \   00001C   28           ADD     A,R0
   \   00001D   F8           MOV     R0,A
   \   00001E   75F002       MOV     B,#0x2
   \   000021   ED           MOV     A,R5
   \   000022   A4           MUL     AB
   \   000023   28           ADD     A,R0
   \   000024   FD           MOV     R5,A
   \   000025   74..         MOV     A,#hotIds & 0xff
   \   000027   2C           ADD     A,R4
   \   000028   F582         MOV     DPL,A
   \   00002A   74..         MOV     A,#(hotIds >> 8) & 0xff
   \   00002C   3D           ADDC    A,R5
   \   00002D   F583         MOV     DPH,A
   \   00002F   E0           MOVX    A,@DPTR
   \   000030   6A           XRL     A,R2
   \   000031   7003         JNZ     ??hotItem_2
   \   000033   A3           INC     DPTR
   \   000034   E0           MOVX    A,@DPTR
   \   000035   6B           XRL     A,R3
   \                     ??hotItem_2:
   \   000036   6003         JZ      ??hotItem_1
   1152              {
   1153                break;
   1154              }
   1155            }
   \   000038   09           INC     R1
   \   000039   80CB         SJMP    ??hotItem_0
   1156          
   1157            return hotIdx;
   \                     ??hotItem_1:
   \   00003B   D083         POP     DPH
   \   00003D   D082         POP     DPL
   \   00003F   02....       LJMP    ?BRET
   1158          }
   1159          
   1160          /*********************************************************************
   1161           * @fn      hotItemUpdate
   1162           *
   1163           * @brief   If the parameter 'id' is a hot item, update the corresponding hot item data.
   1164           *
   1165           * @param   pg - The new NV page corresponding to the hot item.
   1166           * @param   off - The new NV page offset corresponding to the hot item.
   1167           * @param   id - A valid NV item Id.
   1168           *
   1169           * @return  none
   1170           */

   \                                 In  segment BANKED_CODE, align 1, keep-with-next
   1171          static void hotItemUpdate(uint8 pg, uint16 off, uint16 id)
   \                     hotItemUpdate:
   1172          {
   \   000000   74F3         MOV     A,#-0xd
   \   000002   12....       LCALL   ?BANKED_ENTER_XDATA
   \   000005                ; Saved register size: 13
   \   000005                ; Auto size: 0
   \   000005   89..         MOV     ?V0 + 4,R1
   \   000007   8A..         MOV     ?V0 + 2,R2
   \   000009   8B..         MOV     ?V0 + 3,R3
   \   00000B   EC           MOV     A,R4
   \   00000C   FE           MOV     R6,A
   \   00000D   ED           MOV     A,R5
   \   00000E   FF           MOV     R7,A
   1173            uint8 hotIdx = hotItem(id);
   \   00000F                ; Setup parameters for call to function hotItem
   \   00000F   EE           MOV     A,R6
   \   000010   FA           MOV     R2,A
   \   000011   EF           MOV     A,R7
   \   000012   FB           MOV     R3,A
   \   000013   12....       LCALL   ??hotItem?relay
   \   000016   E9           MOV     A,R1
   \   000017   FB           MOV     R3,A
   1174          
   1175            if (hotIdx < OSAL_NV_MAX_HOT)
   \   000018   EB           MOV     A,R3
   \   000019   C3           CLR     C
   \   00001A   9403         SUBB    A,#0x3
   \   00001C   5040         JNC     ??hotItemUpdate_0
   1176            {
   1177              {
   1178                hotPg[hotIdx] = pg;
   \   00001E   E5..         MOV     A,?V0 + 4
   \   000020   8B..         MOV     ?V0 + 0,R3
   \   000022   75..00       MOV     ?V0 + 1,#0x0
   \   000025   74..         MOV     A,#hotPg & 0xff
   \   000027   25..         ADD     A,?V0 + 0
   \   000029   F582         MOV     DPL,A
   \   00002B   74..         MOV     A,#(hotPg >> 8) & 0xff
   \   00002D   35..         ADDC    A,?V0 + 1
   \   00002F   F583         MOV     DPH,A
   \   000031   E5..         MOV     A,?V0 + 4
   \   000033   F0           MOVX    @DPTR,A
   1179                hotOff[hotIdx] = off;
   \   000034   EB           MOV     A,R3
   \   000035   F8           MOV     R0,A
   \   000036   7900         MOV     R1,#0x0
   \   000038   E8           MOV     A,R0
   \   000039   75F002       MOV     B,#0x2
   \   00003C   A4           MUL     AB
   \   00003D   C8           XCH     A,R0
   \   00003E   AAF0         MOV     R2,B
   \   000040   75F000       MOV     B,#0x0
   \   000043   A4           MUL     AB
   \   000044   2A           ADD     A,R2
   \   000045   FA           MOV     R2,A
   \   000046   75F002       MOV     B,#0x2
   \   000049   E9           MOV     A,R1
   \   00004A   A4           MUL     AB
   \   00004B   2A           ADD     A,R2
   \   00004C   F9           MOV     R1,A
   \   00004D   74..         MOV     A,#hotOff & 0xff
   \   00004F   28           ADD     A,R0
   \   000050   F582         MOV     DPL,A
   \   000052   74..         MOV     A,#(hotOff >> 8) & 0xff
   \   000054   39           ADDC    A,R1
   \   000055   F583         MOV     DPH,A
   \   000057   E5..         MOV     A,?V0 + 2
   \   000059   F0           MOVX    @DPTR,A
   \   00005A   A3           INC     DPTR
   \   00005B   E5..         MOV     A,?V0 + 3
   \   00005D   F0           MOVX    @DPTR,A
   1180              }
   1181            }
   1182          }
   \                     ??hotItemUpdate_0:
   \   00005E   7F05         MOV     R7,#0x5
   \   000060   02....       LJMP    ?BANKED_LEAVE_XDATA
   1183          
   1184          /*********************************************************************
   1185           * @fn      osal_nv_init
   1186           *
   1187           * @brief   Initialize NV service.
   1188           *
   1189           * @param   p - Not used.
   1190           *
   1191           * @return  none
   1192           */

   \                                 In  segment BANKED_CODE, align 1, keep-with-next
   1193          void osal_nv_init( void *p )
   \                     osal_nv_init:
   1194          {
   \   000000   74F7         MOV     A,#-0x9
   \   000002   12....       LCALL   ?BANKED_ENTER_XDATA
   \   000005                ; Saved register size: 9
   \   000005                ; Auto size: 0
   \   000005   EA           MOV     A,R2
   \   000006   FE           MOV     R6,A
   \   000007   EB           MOV     A,R3
   \   000008   FF           MOV     R7,A
   1195            (void)p;  // Suppress Lint warning.
   1196            (void)initNV();  // Always returns TRUE after pages have been erased.
   \   000009                ; Setup parameters for call to function initNV
   \   000009   12....       LCALL   ??initNV?relay
   \   00000C   E9           MOV     A,R1
   1197          }
   \   00000D   7F01         MOV     R7,#0x1
   \   00000F   02....       LJMP    ?BANKED_LEAVE_XDATA
   1198          
   1199          /*********************************************************************
   1200           * @fn      osal_nv_item_init
   1201           *
   1202           * @brief   If the NV item does not already exist, it is created and
   1203           *          initialized with the data passed to the function, if any.
   1204           *          This function must be called before calling osal_nv_read() or
   1205           *          osal_nv_write().
   1206           *
   1207           * @param   id  - Valid NV item Id.
   1208           * @param   len - Item length.
   1209           * @param  *buf - Pointer to item initalization data. Set to NULL if none.
   1210           *
   1211           * @return  NV_ITEM_UNINIT - Id did not exist and was created successfully.
   1212           *          SUCCESS        - Id already existed, no action taken.
   1213           *          NV_OPER_FAILED - Failure to find or create Id.
   1214           */

   \                                 In  segment BANKED_CODE, align 1, keep-with-next
   1215          uint8 osal_nv_item_init( uint16 id, uint16 len, void *buf )
   \                     osal_nv_item_init:
   1216          {
   \   000000   74F0         MOV     A,#-0x10
   \   000002   12....       LCALL   ?BANKED_ENTER_XDATA
   \   000005                ; Saved register size: 16
   \   000005                ; Auto size: 0
   \   000005   EA           MOV     A,R2
   \   000006   FE           MOV     R6,A
   \   000007   EB           MOV     A,R3
   \   000008   FF           MOV     R7,A
   \   000009   8C..         MOV     ?V0 + 2,R4
   \   00000B   8D..         MOV     ?V0 + 3,R5
   \   00000D   7410         MOV     A,#0x10
   \   00000F   12....       LCALL   ?XSTACK_DISP0_8
   \   000012   E0           MOVX    A,@DPTR
   \   000013   F5..         MOV     ?V0 + 4,A
   \   000015   A3           INC     DPTR
   \   000016   E0           MOVX    A,@DPTR
   \   000017   F5..         MOV     ?V0 + 5,A
   1217            uint16 offset;
   1218          
   1219            if ( !OSAL_NV_CHECK_BUS_VOLTAGE )
   \   000019                ; Setup parameters for call to function HalAdcCheckVdd
   \   000019   794E         MOV     R1,#0x4e
   \   00001B   12....       LCALL   ??HalAdcCheckVdd?relay
   \   00001E   E9           MOV     A,R1
   \   00001F   7004         JNZ     ??osal_nv_item_init_0
   1220            {
   1221              return NV_OPER_FAILED;
   \   000021   790A         MOV     R1,#0xa
   \   000023   804B         SJMP    ??osal_nv_item_init_1
   1222            }
   1223            else if ((offset = findItem(id)) != OSAL_NV_ITEM_NULL)
   \                     ??osal_nv_item_init_0:
   \   000025                ; Setup parameters for call to function findItem
   \   000025   EE           MOV     A,R6
   \   000026   FA           MOV     R2,A
   \   000027   EF           MOV     A,R7
   \   000028   FB           MOV     R3,A
   \   000029   12....       LCALL   ??findItem?relay
   \   00002C   8A..         MOV     ?V0 + 6,R2
   \   00002E   8B..         MOV     ?V0 + 7,R3
   \   000030   A8..         MOV     R0,?V0 + 6
   \   000032   A9..         MOV     R1,?V0 + 7
   \   000034   88..         MOV     ?V0 + 0,R0
   \   000036   89..         MOV     ?V0 + 1,R1
   \   000038   E8           MOV     A,R0
   \   000039   49           ORL     A,R1
   \   00003A   6014         JZ      ??osal_nv_item_init_2
   1224            {
   1225              // Re-populate the NV hot item data if the corresponding items are already established.
   1226              hotItemUpdate(findPg, offset, id);
   \   00003C                ; Setup parameters for call to function hotItemUpdate
   \   00003C   EE           MOV     A,R6
   \   00003D   FC           MOV     R4,A
   \   00003E   EF           MOV     A,R7
   \   00003F   FD           MOV     R5,A
   \   000040   AA..         MOV     R2,?V0 + 0
   \   000042   AB..         MOV     R3,?V0 + 1
   \   000044   90....       MOV     DPTR,#findPg
   \   000047   E0           MOVX    A,@DPTR
   \   000048   F9           MOV     R1,A
   \   000049   12....       LCALL   ??hotItemUpdate?relay
   1227          
   1228              return SUCCESS;
   \   00004C   7900         MOV     R1,#0x0
   \   00004E   8020         SJMP    ??osal_nv_item_init_1
   1229            }
   1230            else if ( initItem( TRUE, id, len, buf ) != OSAL_NV_PAGE_NULL )
   \                     ??osal_nv_item_init_2:
   \   000050                ; Setup parameters for call to function initItem
   \   000050   78..         MOV     R0,#?V0 + 4
   \   000052   12....       LCALL   ?PUSH_XSTACK_I_TWO
   \   000055   AC..         MOV     R4,?V0 + 2
   \   000057   AD..         MOV     R5,?V0 + 3
   \   000059   EE           MOV     A,R6
   \   00005A   FA           MOV     R2,A
   \   00005B   EF           MOV     A,R7
   \   00005C   FB           MOV     R3,A
   \   00005D   7901         MOV     R1,#0x1
   \   00005F   12....       LCALL   ??initItem?relay
   \   000062   7402         MOV     A,#0x2
   \   000064   12....       LCALL   ?DEALLOC_XSTACK8
   \   000067   E9           MOV     A,R1
   \   000068   6004         JZ      ??osal_nv_item_init_3
   1231            {
   1232              return NV_ITEM_UNINIT;
   \   00006A   7909         MOV     R1,#0x9
   \   00006C   8002         SJMP    ??osal_nv_item_init_1
   1233            }
   1234            else
   1235            {
   1236              return NV_OPER_FAILED;
   \                     ??osal_nv_item_init_3:
   \   00006E   790A         MOV     R1,#0xa
   \                     ??osal_nv_item_init_1:
   \   000070   7F08         MOV     R7,#0x8
   \   000072   02....       LJMP    ?BANKED_LEAVE_XDATA
   1237            }
   1238          }
   1239          
   1240          /*********************************************************************
   1241           * @fn      osal_nv_item_len
   1242           *
   1243           * @brief   Get the data length of the item stored in NV memory.
   1244           *
   1245           * @param   id  - Valid NV item Id.
   1246           *
   1247           * @return  Item length, if found; zero otherwise.
   1248           */

   \                                 In  segment BANKED_CODE, align 1, keep-with-next
   1249          uint16 osal_nv_item_len( uint16 id )
   \                     osal_nv_item_len:
   1250          {
   \   000000   74F2         MOV     A,#-0xe
   \   000002   12....       LCALL   ?BANKED_ENTER_XDATA
   \   000005                ; Saved register size: 14
   \   000005                ; Auto size: 8
   \   000005   74F8         MOV     A,#-0x8
   \   000007   12....       LCALL   ?ALLOC_XSTACK8
   \   00000A   8A..         MOV     ?V0 + 0,R2
   \   00000C   8B..         MOV     ?V0 + 1,R3
   1251            osalNvHdr_t hdr;
   1252            uint16 offset;
   1253            uint8 hotIdx;
   1254          
   1255            if ((hotIdx = hotItem(id)) < OSAL_NV_MAX_HOT)
   \   00000E                ; Setup parameters for call to function hotItem
   \   00000E   AA..         MOV     R2,?V0 + 0
   \   000010   AB..         MOV     R3,?V0 + 1
   \   000012   12....       LCALL   ??hotItem?relay
   \   000015   E9           MOV     A,R1
   \   000016   F8           MOV     R0,A
   \   000017   88..         MOV     ?V0 + 2,R0
   \   000019   E8           MOV     A,R0
   \   00001A   C3           CLR     C
   \   00001B   9403         SUBB    A,#0x3
   \   00001D   5043         JNC     ??osal_nv_item_len_0
   1256            {
   1257              findPg = hotPg[hotIdx];
   \   00001F   85....       MOV     ?V0 + 4,?V0 + 2
   \   000022   75..00       MOV     ?V0 + 5,#0x0
   \   000025   74..         MOV     A,#hotPg & 0xff
   \   000027   25..         ADD     A,?V0 + 4
   \   000029   F582         MOV     DPL,A
   \   00002B   74..         MOV     A,#(hotPg >> 8) & 0xff
   \   00002D   35..         ADDC    A,?V0 + 5
   \   00002F   F583         MOV     DPH,A
   \   000031   E0           MOVX    A,@DPTR
   \   000032   90....       MOV     DPTR,#findPg
   \   000035   F0           MOVX    @DPTR,A
   1258              offset = hotOff[hotIdx];
   \   000036   E5..         MOV     A,?V0 + 2
   \   000038   A8..         MOV     R0,?V0 + 2
   \   00003A   7900         MOV     R1,#0x0
   \   00003C   E8           MOV     A,R0
   \   00003D   75F002       MOV     B,#0x2
   \   000040   A4           MUL     AB
   \   000041   C8           XCH     A,R0
   \   000042   AAF0         MOV     R2,B
   \   000044   75F000       MOV     B,#0x0
   \   000047   A4           MUL     AB
   \   000048   2A           ADD     A,R2
   \   000049   FA           MOV     R2,A
   \   00004A   75F002       MOV     B,#0x2
   \   00004D   E9           MOV     A,R1
   \   00004E   A4           MUL     AB
   \   00004F   2A           ADD     A,R2
   \   000050   F9           MOV     R1,A
   \   000051   74..         MOV     A,#hotOff & 0xff
   \   000053   28           ADD     A,R0
   \   000054   F582         MOV     DPL,A
   \   000056   74..         MOV     A,#(hotOff >> 8) & 0xff
   \   000058   39           ADDC    A,R1
   \   000059   F583         MOV     DPH,A
   \   00005B   E0           MOVX    A,@DPTR
   \   00005C   FE           MOV     R6,A
   \   00005D   A3           INC     DPTR
   \   00005E   E0           MOVX    A,@DPTR
   \   00005F   FF           MOV     R7,A
   \   000060   801D         SJMP    ??osal_nv_item_len_1
   1259            }
   1260            else if ((offset = findItem(id)) == OSAL_NV_ITEM_NULL)
   \                     ??osal_nv_item_len_0:
   \   000062                ; Setup parameters for call to function findItem
   \   000062   AA..         MOV     R2,?V0 + 0
   \   000064   AB..         MOV     R3,?V0 + 1
   \   000066   12....       LCALL   ??findItem?relay
   \   000069   8A..         MOV     ?V0 + 4,R2
   \   00006B   8B..         MOV     ?V0 + 5,R3
   \   00006D   A8..         MOV     R0,?V0 + 4
   \   00006F   A9..         MOV     R1,?V0 + 5
   \   000071   E8           MOV     A,R0
   \   000072   FE           MOV     R6,A
   \   000073   E9           MOV     A,R1
   \   000074   FF           MOV     R7,A
   \   000075   E8           MOV     A,R0
   \   000076   49           ORL     A,R1
   \   000077   7006         JNZ     ??osal_nv_item_len_1
   1261            {
   1262              return 0;
   \   000079   7A00         MOV     R2,#0x0
   \   00007B   7B00         MOV     R3,#0x0
   \   00007D   8033         SJMP    ??osal_nv_item_len_2
   1263            }
   1264          
   1265            HalFlashRead(findPg, (offset - OSAL_NV_HDR_SIZE), (uint8 *)(&hdr), OSAL_NV_HDR_SIZE);
   \                     ??osal_nv_item_len_1:
   \   00007F                ; Setup parameters for call to function HalFlashRead
   \   00007F   75..08       MOV     ?V0 + 4,#0x8
   \   000082   75..00       MOV     ?V0 + 5,#0x0
   \   000085   78..         MOV     R0,#?V0 + 4
   \   000087   12....       LCALL   ?PUSH_XSTACK_I_TWO
   \   00008A   7402         MOV     A,#0x2
   \   00008C   12....       LCALL   ?XSTACK_DISP0_8
   \   00008F   AC82         MOV     R4,DPL
   \   000091   AD83         MOV     R5,DPH
   \   000093   EE           MOV     A,R6
   \   000094   24F8         ADD     A,#-0x8
   \   000096   FA           MOV     R2,A
   \   000097   EF           MOV     A,R7
   \   000098   34FF         ADDC    A,#-0x1
   \   00009A   FB           MOV     R3,A
   \   00009B   90....       MOV     DPTR,#findPg
   \   00009E   E0           MOVX    A,@DPTR
   \   00009F   F9           MOV     R1,A
   \   0000A0   12....       LCALL   ??HalFlashRead?relay
   \   0000A3   7402         MOV     A,#0x2
   \   0000A5   12....       LCALL   ?DEALLOC_XSTACK8
   1266            return hdr.len;
   \   0000A8   7402         MOV     A,#0x2
   \   0000AA   12....       LCALL   ?XSTACK_DISP0_8
   \   0000AD   E0           MOVX    A,@DPTR
   \   0000AE   FA           MOV     R2,A
   \   0000AF   A3           INC     DPTR
   \   0000B0   E0           MOVX    A,@DPTR
   \   0000B1   FB           MOV     R3,A
   \                     ??osal_nv_item_len_2:
   \   0000B2   7408         MOV     A,#0x8
   \   0000B4   12....       LCALL   ?DEALLOC_XSTACK8
   \   0000B7   7F06         MOV     R7,#0x6
   \   0000B9   02....       LJMP    ?BANKED_LEAVE_XDATA
   1267          }
   1268          
   1269          /*********************************************************************
   1270           * @fn      osal_nv_write
   1271           *
   1272           * @brief   Write a data item to NV. Function can write an entire item to NV or
   1273           *          an element of an item by indexing into the item with an offset.
   1274           *
   1275           * @param   id  - Valid NV item Id.
   1276           * @param   ndx - Index offset into item
   1277           * @param   len - Length of data to write.
   1278           * @param  *buf - Data to write.
   1279           *
   1280           * @return  SUCCESS if successful, NV_ITEM_UNINIT if item did not
   1281           *          exist in NV and offset is non-zero, NV_OPER_FAILED if failure.
   1282           */

   \                                 In  segment BANKED_CODE, align 1, keep-with-next
   1283          uint8 osal_nv_write( uint16 id, uint16 ndx, uint16 len, void *buf )
   \                     osal_nv_write:
   1284          {
   \   000000   74E8         MOV     A,#-0x18
   \   000002   12....       LCALL   ?BANKED_ENTER_XDATA
   \   000005                ; Saved register size: 24
   \   000005                ; Auto size: 18
   \   000005   74EE         MOV     A,#-0x12
   \   000007   12....       LCALL   ?ALLOC_XSTACK8
   \   00000A   7410         MOV     A,#0x10
   \   00000C   12....       LCALL   ?XSTACK_DISP0_8
   \   00000F   EA           MOV     A,R2
   \   000010   F0           MOVX    @DPTR,A
   \   000011   A3           INC     DPTR
   \   000012   EB           MOV     A,R3
   \   000013   F0           MOVX    @DPTR,A
   \   000014   8C..         MOV     ?V0 + 8,R4
   \   000016   8D..         MOV     ?V0 + 9,R5
   \   000018   742A         MOV     A,#0x2a
   \   00001A   12....       LCALL   ?XSTACK_DISP0_8
   \   00001D   E0           MOVX    A,@DPTR
   \   00001E   F5..         MOV     ?V0 + 14,A
   \   000020   A3           INC     DPTR
   \   000021   E0           MOVX    A,@DPTR
   \   000022   F5..         MOV     ?V0 + 15,A
   1285            uint8 rtrn = SUCCESS;
   \   000024   75..00       MOV     ?V0 + 7,#0x0
   1286          
   1287            if ( !OSAL_NV_CHECK_BUS_VOLTAGE )
   \   000027                ; Setup parameters for call to function HalAdcCheckVdd
   \   000027   794E         MOV     R1,#0x4e
   \   000029   12....       LCALL   ??HalAdcCheckVdd?relay
   \   00002C   E9           MOV     A,R1
   \   00002D   7005         JNZ     ??osal_nv_write_0
   1288            {
   1289              return NV_OPER_FAILED;
   \   00002F   790A         MOV     R1,#0xa
   \   000031   02....       LJMP    ??osal_nv_write_1 & 0xFFFF
   1290            }
   1291            else if ( len != 0 )
   \                     ??osal_nv_write_0:
   \   000034   E5..         MOV     A,?V0 + 14
   \   000036   45..         ORL     A,?V0 + 15
   \   000038   7003         JNZ     $+5
   \   00003A   02....       LJMP    ??osal_nv_write_2 & 0xFFFF
   1292            {
   1293              osalNvHdr_t hdr;
   1294              uint16 origOff, srcOff;
   1295              uint16 cnt, chk;
   1296              uint8 *ptr, srcPg;
   1297          
   1298              origOff = srcOff = findItem( id );
   \   00003D                ; Setup parameters for call to function findItem
   \   00003D   7410         MOV     A,#0x10
   \   00003F   12....       LCALL   ?XSTACK_DISP0_8
   \   000042   E0           MOVX    A,@DPTR
   \   000043   FA           MOV     R2,A
   \   000044   A3           INC     DPTR
   \   000045   E0           MOVX    A,@DPTR
   \   000046   FB           MOV     R3,A
   \   000047   12....       LCALL   ??findItem?relay
   \   00004A   8A..         MOV     ?V0 + 0,R2
   \   00004C   8B..         MOV     ?V0 + 1,R3
   \   00004E   A8..         MOV     R0,?V0 + 0
   \   000050   A9..         MOV     R1,?V0 + 1
   \   000052   88..         MOV     ?V0 + 4,R0
   \   000054   89..         MOV     ?V0 + 5,R1
   \   000056   7406         MOV     A,#0x6
   \   000058   12....       LCALL   ?XSTACK_DISP0_8
   \   00005B   E8           MOV     A,R0
   \   00005C   F0           MOVX    @DPTR,A
   \   00005D   A3           INC     DPTR
   \   00005E   E9           MOV     A,R1
   \   00005F   F0           MOVX    @DPTR,A
   1299              srcPg = findPg;
   \   000060   90....       MOV     DPTR,#findPg
   \   000063   E0           MOVX    A,@DPTR
   \   000064   F5..         MOV     ?V0 + 12,A
   1300              if ( srcOff == OSAL_NV_ITEM_NULL )
   \   000066   E5..         MOV     A,?V0 + 4
   \   000068   45..         ORL     A,?V0 + 5
   \   00006A   7005         JNZ     ??osal_nv_write_3
   1301              {
   1302                return NV_ITEM_UNINIT;
   \   00006C   7909         MOV     R1,#0x9
   \   00006E   02....       LJMP    ??osal_nv_write_1 & 0xFFFF
   1303              }
   1304          
   1305              HalFlashRead(srcPg, (srcOff - OSAL_NV_HDR_SIZE), (uint8 *)(&hdr), OSAL_NV_HDR_SIZE);
   \                     ??osal_nv_write_3:
   \   000071                ; Setup parameters for call to function HalFlashRead
   \   000071   75..08       MOV     ?V0 + 0,#0x8
   \   000074   75..00       MOV     ?V0 + 1,#0x0
   \   000077   78..         MOV     R0,#?V0 + 0
   \   000079   12....       LCALL   ?PUSH_XSTACK_I_TWO
   \   00007C   740A         MOV     A,#0xa
   \   00007E   12....       LCALL   ?XSTACK_DISP0_8
   \   000081   AC82         MOV     R4,DPL
   \   000083   AD83         MOV     R5,DPH
   \   000085   E5..         MOV     A,?V0 + 4
   \   000087   24F8         ADD     A,#-0x8
   \   000089   FA           MOV     R2,A
   \   00008A   E5..         MOV     A,?V0 + 5
   \   00008C   34FF         ADDC    A,#-0x1
   \   00008E   FB           MOV     R3,A
   \   00008F   A9..         MOV     R1,?V0 + 12
   \   000091   12....       LCALL   ??HalFlashRead?relay
   \   000094   7402         MOV     A,#0x2
   \   000096   12....       LCALL   ?DEALLOC_XSTACK8
   1306              if ( hdr.len < (ndx + len) )
   \   000099   740A         MOV     A,#0xa
   \   00009B   12....       LCALL   ?XSTACK_DISP0_8
   \   00009E   E5..         MOV     A,?V0 + 8
   \   0000A0   25..         ADD     A,?V0 + 14
   \   0000A2   F8           MOV     R0,A
   \   0000A3   E5..         MOV     A,?V0 + 9
   \   0000A5   35..         ADDC    A,?V0 + 15
   \   0000A7   F9           MOV     R1,A
   \   0000A8   C3           CLR     C
   \   0000A9   E0           MOVX    A,@DPTR
   \   0000AA   98           SUBB    A,R0
   \   0000AB   A3           INC     DPTR
   \   0000AC   E0           MOVX    A,@DPTR
   \   0000AD   99           SUBB    A,R1
   \   0000AE   5005         JNC     ??osal_nv_write_4
   1307              {
   1308                return NV_OPER_FAILED;
   \   0000B0   790A         MOV     R1,#0xa
   \   0000B2   02....       LJMP    ??osal_nv_write_1 & 0xFFFF
   1309              }
   1310          
   1311              srcOff += ndx;
   \                     ??osal_nv_write_4:
   \   0000B5   E5..         MOV     A,?V0 + 4
   \   0000B7   25..         ADD     A,?V0 + 8
   \   0000B9   F5..         MOV     ?V0 + 4,A
   \   0000BB   E5..         MOV     A,?V0 + 5
   \   0000BD   35..         ADDC    A,?V0 + 9
   \   0000BF   F5..         MOV     ?V0 + 5,A
   1312              ptr = buf;
   \   0000C1   742C         MOV     A,#0x2c
   \   0000C3   12....       LCALL   ?XSTACK_DISP0_8
   \   0000C6   E0           MOVX    A,@DPTR
   \   0000C7   F8           MOV     R0,A
   \   0000C8   A3           INC     DPTR
   \   0000C9   E0           MOVX    A,@DPTR
   \   0000CA   F9           MOV     R1,A
   \   0000CB   7402         MOV     A,#0x2
   \   0000CD   12....       LCALL   ?XSTACK_DISP0_8
   \   0000D0   E8           MOV     A,R0
   \   0000D1   F0           MOVX    @DPTR,A
   \   0000D2   A3           INC     DPTR
   \   0000D3   E9           MOV     A,R1
   \   0000D4   F0           MOVX    @DPTR,A
   1313              cnt = len;
   \   0000D5   85....       MOV     ?V0 + 2,?V0 + 14
   \   0000D8   85....       MOV     ?V0 + 3,?V0 + 15
   1314              chk = 0;
   \   0000DB   7404         MOV     A,#0x4
   \   0000DD   12....       LCALL   ?XSTACK_DISP0_8
   \   0000E0   7400         MOV     A,#0x0
   \   0000E2   F0           MOVX    @DPTR,A
   \   0000E3   A3           INC     DPTR
   \   0000E4   7400         MOV     A,#0x0
   \   0000E6   F0           MOVX    @DPTR,A
   1315              while ( cnt-- )
   \                     ??osal_nv_write_5:
   \   0000E7   A8..         MOV     R0,?V0 + 2
   \   0000E9   A9..         MOV     R1,?V0 + 3
   \   0000EB   E8           MOV     A,R0
   \   0000EC   24FF         ADD     A,#-0x1
   \   0000EE   F5..         MOV     ?V0 + 2,A
   \   0000F0   E9           MOV     A,R1
   \   0000F1   34FF         ADDC    A,#-0x1
   \   0000F3   F5..         MOV     ?V0 + 3,A
   \   0000F5   E8           MOV     A,R0
   \   0000F6   49           ORL     A,R1
   \   0000F7   7003         JNZ     $+5
   \   0000F9   02....       LJMP    ??osal_nv_write_6 & 0xFFFF
   1316              {
   1317                uint8 tmp;
   1318                HalFlashRead(srcPg, srcOff, &tmp, 1);
   \   0000FC                ; Setup parameters for call to function HalFlashRead
   \   0000FC   75..01       MOV     ?V0 + 0,#0x1
   \   0000FF   75..00       MOV     ?V0 + 1,#0x0
   \   000102   78..         MOV     R0,#?V0 + 0
   \   000104   12....       LCALL   ?PUSH_XSTACK_I_TWO
   \   000107   7403         MOV     A,#0x3
   \   000109   12....       LCALL   ?XSTACK_DISP0_8
   \   00010C   AC82         MOV     R4,DPL
   \   00010E   AD83         MOV     R5,DPH
   \   000110   AA..         MOV     R2,?V0 + 4
   \   000112   AB..         MOV     R3,?V0 + 5
   \   000114   A9..         MOV     R1,?V0 + 12
   \   000116   12....       LCALL   ??HalFlashRead?relay
   \   000119   7402         MOV     A,#0x2
   \   00011B   12....       LCALL   ?DEALLOC_XSTACK8
   1319                if ( tmp != *ptr )
   \   00011E   7401         MOV     A,#0x1
   \   000120   12....       LCALL   ?XSTACK_DISP0_8
   \   000123   E0           MOVX    A,@DPTR
   \   000124   F9           MOV     R1,A
   \   000125   7402         MOV     A,#0x2
   \   000127   12....       LCALL   ?XSTACK_DISP0_8
   \   00012A   E0           MOVX    A,@DPTR
   \   00012B   F8           MOV     R0,A
   \   00012C   A3           INC     DPTR
   \   00012D   E0           MOVX    A,@DPTR
   \   00012E   F583         MOV     DPH,A
   \   000130   8882         MOV     DPL,R0
   \   000132   E0           MOVX    A,@DPTR
   \   000133   69           XRL     A,R1
   \   000134   603F         JZ      ??osal_nv_write_7
   1320                {
   1321                  chk = 1;  // Mark that at least one byte is different.
   \   000136   7404         MOV     A,#0x4
   \   000138   12....       LCALL   ?XSTACK_DISP0_8
   \   00013B   7401         MOV     A,#0x1
   \   00013D   F0           MOVX    @DPTR,A
   \   00013E   A3           INC     DPTR
   \   00013F   7400         MOV     A,#0x0
   \   000141   F0           MOVX    @DPTR,A
   1322                  // Calculate expected checksum after transferring old data and writing new data.
   1323                  hdr.chk -= tmp;
   \   000142   7401         MOV     A,#0x1
   \   000144   12....       LCALL   ?XSTACK_DISP0_8
   \   000147   E0           MOVX    A,@DPTR
   \   000148   F8           MOV     R0,A
   \   000149   7900         MOV     R1,#0x0
   \   00014B   740C         MOV     A,#0xc
   \   00014D   12....       LCALL   ?XSTACK_DISP0_8
   \   000150   C3           CLR     C
   \   000151   E0           MOVX    A,@DPTR
   \   000152   98           SUBB    A,R0
   \   000153   F0           MOVX    @DPTR,A
   \   000154   A3           INC     DPTR
   \   000155   E0           MOVX    A,@DPTR
   \   000156   99           SUBB    A,R1
   \   000157   F0           MOVX    @DPTR,A
   1324                  hdr.chk += *ptr;
   \   000158   7402         MOV     A,#0x2
   \   00015A   12....       LCALL   ?XSTACK_DISP0_8
   \   00015D   E0           MOVX    A,@DPTR
   \   00015E   F8           MOV     R0,A
   \   00015F   A3           INC     DPTR
   \   000160   E0           MOVX    A,@DPTR
   \   000161   F583         MOV     DPH,A
   \   000163   8882         MOV     DPL,R0
   \   000165   E0           MOVX    A,@DPTR
   \   000166   F8           MOV     R0,A
   \   000167   7900         MOV     R1,#0x0
   \   000169   740C         MOV     A,#0xc
   \   00016B   12....       LCALL   ?XSTACK_DISP0_8
   \   00016E   E0           MOVX    A,@DPTR
   \   00016F   28           ADD     A,R0
   \   000170   F0           MOVX    @DPTR,A
   \   000171   A3           INC     DPTR
   \   000172   E0           MOVX    A,@DPTR
   \   000173   39           ADDC    A,R1
   \   000174   F0           MOVX    @DPTR,A
   1325                }
   1326                srcOff++;
   \                     ??osal_nv_write_7:
   \   000175   E5..         MOV     A,?V0 + 4
   \   000177   2401         ADD     A,#0x1
   \   000179   F5..         MOV     ?V0 + 4,A
   \   00017B   E5..         MOV     A,?V0 + 5
   \   00017D   3400         ADDC    A,#0x0
   \   00017F   F5..         MOV     ?V0 + 5,A
   1327                ptr++;
   \   000181   7402         MOV     A,#0x2
   \   000183   12....       LCALL   ?XSTACK_DISP0_8
   \   000186   E0           MOVX    A,@DPTR
   \   000187   2401         ADD     A,#0x1
   \   000189   F8           MOV     R0,A
   \   00018A   A3           INC     DPTR
   \   00018B   E0           MOVX    A,@DPTR
   \   00018C   3400         ADDC    A,#0x0
   \   00018E   F9           MOV     R1,A
   \   00018F   7402         MOV     A,#0x2
   \   000191   12....       LCALL   ?XSTACK_DISP0_8
   \   000194   E8           MOV     A,R0
   \   000195   F0           MOVX    @DPTR,A
   \   000196   A3           INC     DPTR
   \   000197   E9           MOV     A,R1
   \   000198   F0           MOVX    @DPTR,A
   \   000199   02....       LJMP    ??osal_nv_write_5 & 0xFFFF
   1328              }
   1329          
   1330              if ( chk != 0 )  // If the buffer to write is different in one or more bytes.
   \                     ??osal_nv_write_6:
   \   00019C   7404         MOV     A,#0x4
   \   00019E   12....       LCALL   ?XSTACK_DISP0_8
   \   0001A1   E0           MOVX    A,@DPTR
   \   0001A2   F8           MOV     R0,A
   \   0001A3   A3           INC     DPTR
   \   0001A4   E0           MOVX    A,@DPTR
   \   0001A5   F9           MOV     R1,A
   \   0001A6   E8           MOV     A,R0
   \   0001A7   49           ORL     A,R1
   \   0001A8   7003         JNZ     $+5
   \   0001AA   02....       LJMP    ??osal_nv_write_2 & 0xFFFF
   1331              {
   1332                uint8 comPg = OSAL_NV_PAGE_NULL;
   \   0001AD   85..82       MOV     DPL,?XSP + 0
   \   0001B0   85..83       MOV     DPH,?XSP + 1
   \   0001B3   7400         MOV     A,#0x0
   \   0001B5   F0           MOVX    @DPTR,A
   1333                uint8 dstPg = initItem( FALSE, id, hdr.len, &comPg );
   \   0001B6                ; Setup parameters for call to function initItem
   \   0001B6   85..82       MOV     DPL,?XSP + 0
   \   0001B9   85..83       MOV     DPH,?XSP + 1
   \   0001BC   8582..       MOV     ?V0 + 0,DPL
   \   0001BF   8583..       MOV     ?V0 + 1,DPH
   \   0001C2   78..         MOV     R0,#?V0 + 0
   \   0001C4   12....       LCALL   ?PUSH_XSTACK_I_TWO
   \   0001C7   740C         MOV     A,#0xc
   \   0001C9   12....       LCALL   ?XSTACK_DISP0_8
   \   0001CC   E0           MOVX    A,@DPTR
   \   0001CD   FC           MOV     R4,A
   \   0001CE   A3           INC     DPTR
   \   0001CF   E0           MOVX    A,@DPTR
   \   0001D0   FD           MOV     R5,A
   \   0001D1   7412         MOV     A,#0x12
   \   0001D3   12....       LCALL   ?XSTACK_DISP0_8
   \   0001D6   E0           MOVX    A,@DPTR
   \   0001D7   FA           MOV     R2,A
   \   0001D8   A3           INC     DPTR
   \   0001D9   E0           MOVX    A,@DPTR
   \   0001DA   FB           MOV     R3,A
   \   0001DB   7900         MOV     R1,#0x0
   \   0001DD   12....       LCALL   ??initItem?relay
   \   0001E0   7402         MOV     A,#0x2
   \   0001E2   12....       LCALL   ?DEALLOC_XSTACK8
   \   0001E5   E9           MOV     A,R1
   \   0001E6   F5..         MOV     ?V0 + 6,A
   1334          
   1335                if ( dstPg != OSAL_NV_PAGE_NULL )
   \   0001E8   E5..         MOV     A,?V0 + 6
   \   0001EA   7003         JNZ     $+5
   \   0001EC   02....       LJMP    ??osal_nv_write_8 & 0xFFFF
   1336                {
   1337                  uint16 tmp = OSAL_NV_DATA_SIZE( hdr.len );
   \   0001EF   740A         MOV     A,#0xa
   \   0001F1   12....       LCALL   ?XSTACK_DISP0_8
   \   0001F4   C3           CLR     C
   \   0001F5   E0           MOVX    A,@DPTR
   \   0001F6   94FC         SUBB    A,#-0x4
   \   0001F8   A3           INC     DPTR
   \   0001F9   E0           MOVX    A,@DPTR
   \   0001FA   94FF         SUBB    A,#-0x1
   \   0001FC   4008         JC      ??osal_nv_write_9
   \   0001FE   75..FC       MOV     ?V0 + 0,#-0x4
   \   000201   75..FF       MOV     ?V0 + 1,#-0x1
   \   000204   8030         SJMP    ??osal_nv_write_10
   \                     ??osal_nv_write_9:
   \   000206   740A         MOV     A,#0xa
   \   000208   12....       LCALL   ?XSTACK_DISP0_8
   \   00020B   E0           MOVX    A,@DPTR
   \   00020C   2403         ADD     A,#0x3
   \   00020E   F5..         MOV     ?V0 + 0,A
   \   000210   A3           INC     DPTR
   \   000211   E0           MOVX    A,@DPTR
   \   000212   3400         ADDC    A,#0x0
   \   000214   F5..         MOV     ?V0 + 1,A
   \   000216   7402         MOV     A,#0x2
   \   000218   78..         MOV     R0,#?V0 + 0
   \   00021A   12....       LCALL   ?US_SHR
   \   00021D   E5..         MOV     A,?V0 + 0
   \   00021F   75F004       MOV     B,#0x4
   \   000222   A4           MUL     AB
   \   000223   C5..         XCH     A,?V0 + 0
   \   000225   A8F0         MOV     R0,B
   \   000227   75F000       MOV     B,#0x0
   \   00022A   A4           MUL     AB
   \   00022B   28           ADD     A,R0
   \   00022C   F8           MOV     R0,A
   \   00022D   75F004       MOV     B,#0x4
   \   000230   E5..         MOV     A,?V0 + 1
   \   000232   A4           MUL     AB
   \   000233   28           ADD     A,R0
   \   000234   F5..         MOV     ?V0 + 1,A
   1338                  uint16 dstOff = pgOff[dstPg-OSAL_NV_PAGE_BEG] - tmp;
   \                     ??osal_nv_write_10:
   \   000236   E5..         MOV     A,?V0 + 6
   \   000238   A8..         MOV     R0,?V0 + 6
   \   00023A   7900         MOV     R1,#0x0
   \   00023C   E8           MOV     A,R0
   \   00023D   75F002       MOV     B,#0x2
   \   000240   A4           MUL     AB
   \   000241   C8           XCH     A,R0
   \   000242   AAF0         MOV     R2,B
   \   000244   75F000       MOV     B,#0x0
   \   000247   A4           MUL     AB
   \   000248   2A           ADD     A,R2
   \   000249   FA           MOV     R2,A
   \   00024A   75F002       MOV     B,#0x2
   \   00024D   E9           MOV     A,R1
   \   00024E   A4           MUL     AB
   \   00024F   2A           ADD     A,R2
   \   000250   F9           MOV     R1,A
   \   000251   74..         MOV     A,#(pgOff + 14) & 0xff
   \   000253   28           ADD     A,R0
   \   000254   F582         MOV     DPL,A
   \   000256   74..         MOV     A,#((pgOff - 242) >> 8) & 0xff
   \   000258   39           ADDC    A,R1
   \   000259   F583         MOV     DPH,A
   \   00025B   E0           MOVX    A,@DPTR
   \   00025C   C3           CLR     C
   \   00025D   95..         SUBB    A,?V0 + 0
   \   00025F   FE           MOV     R6,A
   \   000260   A3           INC     DPTR
   \   000261   E0           MOVX    A,@DPTR
   \   000262   95..         SUBB    A,?V0 + 1
   \   000264   FF           MOV     R7,A
   1339                  srcOff = origOff;
   \   000265   7406         MOV     A,#0x6
   \   000267   12....       LCALL   ?XSTACK_DISP0_8
   \   00026A   E0           MOVX    A,@DPTR
   \   00026B   F5..         MOV     ?V0 + 4,A
   \   00026D   A3           INC     DPTR
   \   00026E   E0           MOVX    A,@DPTR
   \   00026F   F5..         MOV     ?V0 + 5,A
   1340          
   1341                  /* Prevent excessive re-writes to item header caused by numerous, rapid, & successive
   1342                   * OSAL_Nv interruptions caused by resets.
   1343                   */
   1344                  if ( hdr.stat == OSAL_NV_ERASED_ID )
   \   000271   740E         MOV     A,#0xe
   \   000273   12....       LCALL   ?XSTACK_DISP0_8
   \   000276   E0           MOVX    A,@DPTR
   \   000277   64FF         XRL     A,#0xff
   \   000279   7004         JNZ     ??osal_nv_write_11
   \   00027B   A3           INC     DPTR
   \   00027C   E0           MOVX    A,@DPTR
   \   00027D   64FF         XRL     A,#0xff
   \                     ??osal_nv_write_11:
   \   00027F   700B         JNZ     ??osal_nv_write_12
   1345                  {
   1346                    setItem( srcPg, srcOff, eNvXfer );
   \   000281                ; Setup parameters for call to function setItem
   \   000281   7C00         MOV     R4,#0x0
   \   000283   AA..         MOV     R2,?V0 + 4
   \   000285   AB..         MOV     R3,?V0 + 5
   \   000287   A9..         MOV     R1,?V0 + 12
   \   000289   12....       LCALL   ??setItem?relay
   1347                  }
   1348          
   1349                  xferBuf( srcPg, srcOff, dstPg, dstOff, ndx );
   \                     ??osal_nv_write_12:
   \   00028C                ; Setup parameters for call to function xferBuf
   \   00028C   78..         MOV     R0,#?V0 + 8
   \   00028E   12....       LCALL   ?PUSH_XSTACK_I_TWO
   \   000291   8E..         MOV     ?V0 + 10,R6
   \   000293   8F..         MOV     ?V0 + 11,R7
   \   000295   78..         MOV     R0,#?V0 + 10
   \   000297   12....       LCALL   ?PUSH_XSTACK_I_TWO
   \   00029A   AC..         MOV     R4,?V0 + 6
   \   00029C   AA..         MOV     R2,?V0 + 4
   \   00029E   AB..         MOV     R3,?V0 + 5
   \   0002A0   A9..         MOV     R1,?V0 + 12
   \   0002A2   12....       LCALL   ??xferBuf?relay
   \   0002A5   7404         MOV     A,#0x4
   \   0002A7   12....       LCALL   ?DEALLOC_XSTACK8
   1350                  srcOff += ndx;
   \   0002AA   E5..         MOV     A,?V0 + 4
   \   0002AC   25..         ADD     A,?V0 + 8
   \   0002AE   F5..         MOV     ?V0 + 4,A
   \   0002B0   E5..         MOV     A,?V0 + 5
   \   0002B2   35..         ADDC    A,?V0 + 9
   \   0002B4   F5..         MOV     ?V0 + 5,A
   1351                  dstOff += ndx;
   \   0002B6   EE           MOV     A,R6
   \   0002B7   25..         ADD     A,?V0 + 8
   \   0002B9   FE           MOV     R6,A
   \   0002BA   EF           MOV     A,R7
   \   0002BB   35..         ADDC    A,?V0 + 9
   \   0002BD   FF           MOV     R7,A
   1352          
   1353                  writeBuf( dstPg, dstOff, len, buf );
   \   0002BE                ; Setup parameters for call to function writeBuf
   \   0002BE   742C         MOV     A,#0x2c
   \   0002C0   12....       LCALL   ?XSTACK_DISP0_8
   \   0002C3   12....       LCALL   ?PUSH_XSTACK8_X_TWO
   \   0002C6   AC..         MOV     R4,?V0 + 14
   \   0002C8   AD..         MOV     R5,?V0 + 15
   \   0002CA   EE           MOV     A,R6
   \   0002CB   FA           MOV     R2,A
   \   0002CC   EF           MOV     A,R7
   \   0002CD   FB           MOV     R3,A
   \   0002CE   A9..         MOV     R1,?V0 + 6
   \   0002D0   12....       LCALL   ??writeBuf?relay
   \   0002D3   7402         MOV     A,#0x2
   \   0002D5   12....       LCALL   ?DEALLOC_XSTACK8
   1354                  srcOff += len;
   \   0002D8   E5..         MOV     A,?V0 + 4
   \   0002DA   25..         ADD     A,?V0 + 14
   \   0002DC   F5..         MOV     ?V0 + 4,A
   \   0002DE   E5..         MOV     A,?V0 + 5
   \   0002E0   35..         ADDC    A,?V0 + 15
   \   0002E2   F5..         MOV     ?V0 + 5,A
   1355                  dstOff += len;
   \   0002E4   EE           MOV     A,R6
   \   0002E5   25..         ADD     A,?V0 + 14
   \   0002E7   FE           MOV     R6,A
   \   0002E8   EF           MOV     A,R7
   \   0002E9   35..         ADDC    A,?V0 + 15
   \   0002EB   FF           MOV     R7,A
   1356          
   1357                  xferBuf( srcPg, srcOff, dstPg, dstOff, (hdr.len-ndx-len) );
   \   0002EC                ; Setup parameters for call to function xferBuf
   \   0002EC   740A         MOV     A,#0xa
   \   0002EE   12....       LCALL   ?XSTACK_DISP0_8
   \   0002F1   E0           MOVX    A,@DPTR
   \   0002F2   C3           CLR     C
   \   0002F3   95..         SUBB    A,?V0 + 8
   \   0002F5   F8           MOV     R0,A
   \   0002F6   A3           INC     DPTR
   \   0002F7   E0           MOVX    A,@DPTR
   \   0002F8   95..         SUBB    A,?V0 + 9
   \   0002FA   F9           MOV     R1,A
   \   0002FB   E8           MOV     A,R0
   \   0002FC   C3           CLR     C
   \   0002FD   95..         SUBB    A,?V0 + 14
   \   0002FF   F5..         MOV     ?V0 + 10,A
   \   000301   E9           MOV     A,R1
   \   000302   95..         SUBB    A,?V0 + 15
   \   000304   F5..         MOV     ?V0 + 11,A
   \   000306   78..         MOV     R0,#?V0 + 10
   \   000308   12....       LCALL   ?PUSH_XSTACK_I_TWO
   \   00030B   8E..         MOV     ?V0 + 10,R6
   \   00030D   8F..         MOV     ?V0 + 11,R7
   \   00030F   78..         MOV     R0,#?V0 + 10
   \   000311   12....       LCALL   ?PUSH_XSTACK_I_TWO
   \   000314   AC..         MOV     R4,?V0 + 6
   \   000316   AA..         MOV     R2,?V0 + 4
   \   000318   AB..         MOV     R3,?V0 + 5
   \   00031A   A9..         MOV     R1,?V0 + 12
   \   00031C   12....       LCALL   ??xferBuf?relay
   \   00031F   7404         MOV     A,#0x4
   \   000321   12....       LCALL   ?DEALLOC_XSTACK8
   1358          
   1359                  // Calculate and write the new checksum.
   1360                  dstOff = pgOff[dstPg-OSAL_NV_PAGE_BEG] - tmp;
   \   000324   E5..         MOV     A,?V0 + 6
   \   000326   A8..         MOV     R0,?V0 + 6
   \   000328   7900         MOV     R1,#0x0
   \   00032A   E8           MOV     A,R0
   \   00032B   75F002       MOV     B,#0x2
   \   00032E   A4           MUL     AB
   \   00032F   C8           XCH     A,R0
   \   000330   AAF0         MOV     R2,B
   \   000332   75F000       MOV     B,#0x0
   \   000335   A4           MUL     AB
   \   000336   2A           ADD     A,R2
   \   000337   FA           MOV     R2,A
   \   000338   75F002       MOV     B,#0x2
   \   00033B   E9           MOV     A,R1
   \   00033C   A4           MUL     AB
   \   00033D   2A           ADD     A,R2
   \   00033E   F9           MOV     R1,A
   \   00033F   74..         MOV     A,#(pgOff + 14) & 0xff
   \   000341   28           ADD     A,R0
   \   000342   F582         MOV     DPL,A
   \   000344   74..         MOV     A,#((pgOff - 242) >> 8) & 0xff
   \   000346   39           ADDC    A,R1
   \   000347   F583         MOV     DPH,A
   \   000349   E0           MOVX    A,@DPTR
   \   00034A   C3           CLR     C
   \   00034B   95..         SUBB    A,?V0 + 0
   \   00034D   F8           MOV     R0,A
   \   00034E   A3           INC     DPTR
   \   00034F   E0           MOVX    A,@DPTR
   \   000350   95..         SUBB    A,?V0 + 1
   \   000352   F9           MOV     R1,A
   \   000353   E8           MOV     A,R0
   \   000354   FE           MOV     R6,A
   \   000355   E9           MOV     A,R1
   \   000356   FF           MOV     R7,A
   1361          
   1362                  if ( hdr.chk == calcChkF( dstPg, dstOff, hdr.len ) )
   \   000357                ; Setup parameters for call to function calcChkF
   \   000357   740A         MOV     A,#0xa
   \   000359   12....       LCALL   ?XSTACK_DISP0_8
   \   00035C   E0           MOVX    A,@DPTR
   \   00035D   FC           MOV     R4,A
   \   00035E   A3           INC     DPTR
   \   00035F   E0           MOVX    A,@DPTR
   \   000360   FD           MOV     R5,A
   \   000361   EE           MOV     A,R6
   \   000362   FA           MOV     R2,A
   \   000363   EF           MOV     A,R7
   \   000364   FB           MOV     R3,A
   \   000365   A9..         MOV     R1,?V0 + 6
   \   000367   12....       LCALL   ??calcChkF?relay
   \   00036A   8A..         MOV     ?V0 + 10,R2
   \   00036C   8B..         MOV     ?V0 + 11,R3
   \   00036E   A8..         MOV     R0,?V0 + 10
   \   000370   A9..         MOV     R1,?V0 + 11
   \   000372   740C         MOV     A,#0xc
   \   000374   12....       LCALL   ?XSTACK_DISP0_8
   \   000377   E0           MOVX    A,@DPTR
   \   000378   68           XRL     A,R0
   \   000379   7003         JNZ     ??osal_nv_write_13
   \   00037B   A3           INC     DPTR
   \   00037C   E0           MOVX    A,@DPTR
   \   00037D   69           XRL     A,R1
   \                     ??osal_nv_write_13:
   \   00037E   7043         JNZ     ??osal_nv_write_14
   1363                  {
   1364                    if ( hdr.chk != setChk( dstPg, dstOff, hdr.chk ) )
   \   000380                ; Setup parameters for call to function setChk
   \   000380   740C         MOV     A,#0xc
   \   000382   12....       LCALL   ?XSTACK_DISP0_8
   \   000385   E0           MOVX    A,@DPTR
   \   000386   FC           MOV     R4,A
   \   000387   A3           INC     DPTR
   \   000388   E0           MOVX    A,@DPTR
   \   000389   FD           MOV     R5,A
   \   00038A   EE           MOV     A,R6
   \   00038B   FA           MOV     R2,A
   \   00038C   EF           MOV     A,R7
   \   00038D   FB           MOV     R3,A
   \   00038E   A9..         MOV     R1,?V0 + 6
   \   000390   12....       LCALL   ??setChk?relay
   \   000393   8A..         MOV     ?V0 + 10,R2
   \   000395   8B..         MOV     ?V0 + 11,R3
   \   000397   A8..         MOV     R0,?V0 + 10
   \   000399   A9..         MOV     R1,?V0 + 11
   \   00039B   740C         MOV     A,#0xc
   \   00039D   12....       LCALL   ?XSTACK_DISP0_8
   \   0003A0   E0           MOVX    A,@DPTR
   \   0003A1   68           XRL     A,R0
   \   0003A2   7003         JNZ     ??osal_nv_write_15
   \   0003A4   A3           INC     DPTR
   \   0003A5   E0           MOVX    A,@DPTR
   \   0003A6   69           XRL     A,R1
   \                     ??osal_nv_write_15:
   \   0003A7   6005         JZ      ??osal_nv_write_16
   1365                    {
   1366                      rtrn = NV_OPER_FAILED;
   \   0003A9   75..0A       MOV     ?V0 + 7,#0xa
   \   0003AC   801D         SJMP    ??osal_nv_write_17
   1367                    }
   1368                    else
   1369                    {
   1370                      hotItemUpdate(dstPg, dstOff, hdr.id);
   \                     ??osal_nv_write_16:
   \   0003AE                ; Setup parameters for call to function hotItemUpdate
   \   0003AE   7408         MOV     A,#0x8
   \   0003B0   12....       LCALL   ?XSTACK_DISP0_8
   \   0003B3   E0           MOVX    A,@DPTR
   \   0003B4   FC           MOV     R4,A
   \   0003B5   A3           INC     DPTR
   \   0003B6   E0           MOVX    A,@DPTR
   \   0003B7   FD           MOV     R5,A
   \   0003B8   EE           MOV     A,R6
   \   0003B9   FA           MOV     R2,A
   \   0003BA   EF           MOV     A,R7
   \   0003BB   FB           MOV     R3,A
   \   0003BC   A9..         MOV     R1,?V0 + 6
   \   0003BE   12....       LCALL   ??hotItemUpdate?relay
   \   0003C1   8008         SJMP    ??osal_nv_write_17
   1371                    }
   1372                  }
   1373                  else
   1374                  {
   1375                    rtrn = NV_OPER_FAILED;
   \                     ??osal_nv_write_14:
   \   0003C3   75..0A       MOV     ?V0 + 7,#0xa
   \   0003C6   8003         SJMP    ??osal_nv_write_17
   1376                  }
   1377                }
   1378                else
   1379                {
   1380                  rtrn = NV_OPER_FAILED;
   \                     ??osal_nv_write_8:
   \   0003C8   75..0A       MOV     ?V0 + 7,#0xa
   1381                }
   1382          
   1383                if ( comPg != OSAL_NV_PAGE_NULL )
   \                     ??osal_nv_write_17:
   \   0003CB   85..82       MOV     DPL,?XSP + 0
   \   0003CE   85..83       MOV     DPH,?XSP + 1
   \   0003D1   E0           MOVX    A,@DPTR
   \   0003D2   603B         JZ      ??osal_nv_write_18
   1384                {
   1385                  /* Even though the page compaction succeeded, if the new item is coming from the compacted
   1386                   * page and writing the new value failed, then the compaction must be aborted.
   1387                   */
   1388                  if ( (srcPg == comPg) && (rtrn == NV_OPER_FAILED) )
   \   0003D4   85..82       MOV     DPL,?XSP + 0
   \   0003D7   85..83       MOV     DPH,?XSP + 1
   \   0003DA   E0           MOVX    A,@DPTR
   \   0003DB   65..         XRL     A,?V0 + 12
   \   0003DD   7010         JNZ     ??osal_nv_write_19
   \   0003DF   740A         MOV     A,#0xa
   \   0003E1   65..         XRL     A,?V0 + 7
   \   0003E3   700A         JNZ     ??osal_nv_write_19
   1389                  {
   1390                    erasePage( pgRes );
   \   0003E5                ; Setup parameters for call to function erasePage
   \   0003E5   90....       MOV     DPTR,#pgRes
   \   0003E8   E0           MOVX    A,@DPTR
   \   0003E9   F9           MOV     R1,A
   \   0003EA   12....       LCALL   ??erasePage?relay
   \   0003ED   8020         SJMP    ??osal_nv_write_18
   1391                  }
   1392                  else
   1393                  {
   1394                    COMPACT_PAGE_CLEANUP( comPg );
   \                     ??osal_nv_write_19:
   \   0003EF                ; Setup parameters for call to function setPageUse
   \   0003EF   7A01         MOV     R2,#0x1
   \   0003F1   90....       MOV     DPTR,#pgRes
   \   0003F4   E0           MOVX    A,@DPTR
   \   0003F5   F9           MOV     R1,A
   \   0003F6   12....       LCALL   ??setPageUse?relay
   \   0003F9                ; Setup parameters for call to function erasePage
   \   0003F9   85..82       MOV     DPL,?XSP + 0
   \   0003FC   85..83       MOV     DPH,?XSP + 1
   \   0003FF   E0           MOVX    A,@DPTR
   \   000400   F9           MOV     R1,A
   \   000401   12....       LCALL   ??erasePage?relay
   \   000404   85..82       MOV     DPL,?XSP + 0
   \   000407   85..83       MOV     DPH,?XSP + 1
   \   00040A   E0           MOVX    A,@DPTR
   \   00040B   90....       MOV     DPTR,#pgRes
   \   00040E   F0           MOVX    @DPTR,A
   1395                  }
   1396                }
   1397          
   1398                /* Zero of the old item must wait until after compact page cleanup has finished - if the item
   1399                 * is zeroed before and cleanup is interrupted by a power-cycle, the new item can be lost.
   1400                 */
   1401                if ( (srcPg != comPg) && (rtrn != NV_OPER_FAILED) )
   \                     ??osal_nv_write_18:
   \   00040F   85..82       MOV     DPL,?XSP + 0
   \   000412   85..83       MOV     DPH,?XSP + 1
   \   000415   E0           MOVX    A,@DPTR
   \   000416   65..         XRL     A,?V0 + 12
   \   000418   6017         JZ      ??osal_nv_write_2
   \   00041A   740A         MOV     A,#0xa
   \   00041C   65..         XRL     A,?V0 + 7
   \   00041E   6011         JZ      ??osal_nv_write_2
   1402                {
   1403                  setItem( srcPg, origOff, eNvZero );
   \   000420                ; Setup parameters for call to function setItem
   \   000420   7C01         MOV     R4,#0x1
   \   000422   7406         MOV     A,#0x6
   \   000424   12....       LCALL   ?XSTACK_DISP0_8
   \   000427   E0           MOVX    A,@DPTR
   \   000428   FA           MOV     R2,A
   \   000429   A3           INC     DPTR
   \   00042A   E0           MOVX    A,@DPTR
   \   00042B   FB           MOV     R3,A
   \   00042C   A9..         MOV     R1,?V0 + 12
   \   00042E   12....       LCALL   ??setItem?relay
   1404                }
   1405              }
   1406            }
   1407          
   1408            return rtrn;
   \                     ??osal_nv_write_2:
   \   000431   A9..         MOV     R1,?V0 + 7
   \                     ??osal_nv_write_1:
   \   000433   7412         MOV     A,#0x12
   \   000435   12....       LCALL   ?DEALLOC_XSTACK8
   \   000438   7F10         MOV     R7,#0x10
   \   00043A   02....       LJMP    ?BANKED_LEAVE_XDATA
   1409          }
   1410          
   1411          /*********************************************************************
   1412           * @fn      osal_nv_read
   1413           *
   1414           * @brief   Read data from NV. This function can be used to read an entire item from NV or
   1415           *          an element of an item by indexing into the item with an offset.
   1416           *          Read data is copied into *buf.
   1417           *
   1418           * @param   id  - Valid NV item Id.
   1419           * @param   ndx - Index offset into item
   1420           * @param   len - Length of data to read.
   1421           * @param  *buf - Data is read into this buffer.
   1422           *
   1423           * @return  SUCCESS if NV data was copied to the parameter 'buf'.
   1424           *          Otherwise, NV_OPER_FAILED for failure.
   1425           */

   \                                 In  segment BANKED_CODE, align 1, keep-with-next
   1426          uint8 osal_nv_read( uint16 id, uint16 ndx, uint16 len, void *buf )
   \                     osal_nv_read:
   1427          {
   \   000000   74EC         MOV     A,#-0x14
   \   000002   12....       LCALL   ?BANKED_ENTER_XDATA
   \   000005                ; Saved register size: 20
   \   000005                ; Auto size: 0
   \   000005   8A..         MOV     ?V0 + 2,R2
   \   000007   8B..         MOV     ?V0 + 3,R3
   \   000009   EC           MOV     A,R4
   \   00000A   FE           MOV     R6,A
   \   00000B   ED           MOV     A,R5
   \   00000C   FF           MOV     R7,A
   \   00000D   7414         MOV     A,#0x14
   \   00000F   12....       LCALL   ?XSTACK_DISP0_8
   \   000012   E0           MOVX    A,@DPTR
   \   000013   F5..         MOV     ?V0 + 8,A
   \   000015   A3           INC     DPTR
   \   000016   E0           MOVX    A,@DPTR
   \   000017   F5..         MOV     ?V0 + 9,A
   \   000019   7416         MOV     A,#0x16
   \   00001B   12....       LCALL   ?XSTACK_DISP0_8
   \   00001E   E0           MOVX    A,@DPTR
   \   00001F   F5..         MOV     ?V0 + 4,A
   \   000021   A3           INC     DPTR
   \   000022   E0           MOVX    A,@DPTR
   \   000023   F5..         MOV     ?V0 + 5,A
   1428            uint16 offset;
   1429            uint8 hotIdx;
   1430          
   1431            if ((hotIdx = hotItem(id)) < OSAL_NV_MAX_HOT)
   \   000025                ; Setup parameters for call to function hotItem
   \   000025   AA..         MOV     R2,?V0 + 2
   \   000027   AB..         MOV     R3,?V0 + 3
   \   000029   12....       LCALL   ??hotItem?relay
   \   00002C   E9           MOV     A,R1
   \   00002D   F8           MOV     R0,A
   \   00002E   88..         MOV     ?V0 + 0,R0
   \   000030   E8           MOV     A,R0
   \   000031   C3           CLR     C
   \   000032   9403         SUBB    A,#0x3
   \   000034   5055         JNC     ??osal_nv_read_0
   1432            {
   1433              HalFlashRead(hotPg[hotIdx], hotOff[hotIdx]+ndx, buf, len);
   \   000036                ; Setup parameters for call to function HalFlashRead
   \   000036   78..         MOV     R0,#?V0 + 8
   \   000038   12....       LCALL   ?PUSH_XSTACK_I_TWO
   \   00003B   AC..         MOV     R4,?V0 + 4
   \   00003D   AD..         MOV     R5,?V0 + 5
   \   00003F   E5..         MOV     A,?V0 + 0
   \   000041   A8..         MOV     R0,?V0 + 0
   \   000043   7900         MOV     R1,#0x0
   \   000045   E8           MOV     A,R0
   \   000046   75F002       MOV     B,#0x2
   \   000049   A4           MUL     AB
   \   00004A   C8           XCH     A,R0
   \   00004B   AAF0         MOV     R2,B
   \   00004D   75F000       MOV     B,#0x0
   \   000050   A4           MUL     AB
   \   000051   2A           ADD     A,R2
   \   000052   FA           MOV     R2,A
   \   000053   75F002       MOV     B,#0x2
   \   000056   E9           MOV     A,R1
   \   000057   A4           MUL     AB
   \   000058   2A           ADD     A,R2
   \   000059   F9           MOV     R1,A
   \   00005A   74..         MOV     A,#hotOff & 0xff
   \   00005C   28           ADD     A,R0
   \   00005D   F582         MOV     DPL,A
   \   00005F   74..         MOV     A,#(hotOff >> 8) & 0xff
   \   000061   39           ADDC    A,R1
   \   000062   F583         MOV     DPH,A
   \   000064   E0           MOVX    A,@DPTR
   \   000065   2E           ADD     A,R6
   \   000066   FA           MOV     R2,A
   \   000067   A3           INC     DPTR
   \   000068   E0           MOVX    A,@DPTR
   \   000069   3F           ADDC    A,R7
   \   00006A   FB           MOV     R3,A
   \   00006B   85....       MOV     ?V0 + 10,?V0 + 0
   \   00006E   75..00       MOV     ?V0 + 11,#0x0
   \   000071   74..         MOV     A,#hotPg & 0xff
   \   000073   25..         ADD     A,?V0 + 10
   \   000075   F582         MOV     DPL,A
   \   000077   74..         MOV     A,#(hotPg >> 8) & 0xff
   \   000079   35..         ADDC    A,?V0 + 11
   \   00007B   F583         MOV     DPH,A
   \   00007D   E0           MOVX    A,@DPTR
   \   00007E   F9           MOV     R1,A
   \   00007F   12....       LCALL   ??HalFlashRead?relay
   \   000082   7402         MOV     A,#0x2
   \   000084   12....       LCALL   ?DEALLOC_XSTACK8
   1434              return SUCCESS;
   \   000087   7900         MOV     R1,#0x0
   \   000089   803B         SJMP    ??osal_nv_read_1
   1435            }
   1436          
   1437            if ((offset = findItem(id)) == OSAL_NV_ITEM_NULL)
   \                     ??osal_nv_read_0:
   \   00008B                ; Setup parameters for call to function findItem
   \   00008B   AA..         MOV     R2,?V0 + 2
   \   00008D   AB..         MOV     R3,?V0 + 3
   \   00008F   12....       LCALL   ??findItem?relay
   \   000092   8A..         MOV     ?V0 + 10,R2
   \   000094   8B..         MOV     ?V0 + 11,R3
   \   000096   A8..         MOV     R0,?V0 + 10
   \   000098   A9..         MOV     R1,?V0 + 11
   \   00009A   88..         MOV     ?V0 + 6,R0
   \   00009C   89..         MOV     ?V0 + 7,R1
   \   00009E   E8           MOV     A,R0
   \   00009F   49           ORL     A,R1
   \   0000A0   7004         JNZ     ??osal_nv_read_2
   1438            {
   1439              return NV_OPER_FAILED;
   \   0000A2   790A         MOV     R1,#0xa
   \   0000A4   8020         SJMP    ??osal_nv_read_1
   1440            }
   1441            else
   1442            {
   1443              HalFlashRead(findPg, offset+ndx, buf, len);
   \                     ??osal_nv_read_2:
   \   0000A6                ; Setup parameters for call to function HalFlashRead
   \   0000A6   78..         MOV     R0,#?V0 + 8
   \   0000A8   12....       LCALL   ?PUSH_XSTACK_I_TWO
   \   0000AB   AC..         MOV     R4,?V0 + 4
   \   0000AD   AD..         MOV     R5,?V0 + 5
   \   0000AF   E5..         MOV     A,?V0 + 6
   \   0000B1   2E           ADD     A,R6
   \   0000B2   FA           MOV     R2,A
   \   0000B3   E5..         MOV     A,?V0 + 7
   \   0000B5   3F           ADDC    A,R7
   \   0000B6   FB           MOV     R3,A
   \   0000B7   90....       MOV     DPTR,#findPg
   \   0000BA   E0           MOVX    A,@DPTR
   \   0000BB   F9           MOV     R1,A
   \   0000BC   12....       LCALL   ??HalFlashRead?relay
   \   0000BF   7402         MOV     A,#0x2
   \   0000C1   12....       LCALL   ?DEALLOC_XSTACK8
   1444              return SUCCESS;
   \   0000C4   7900         MOV     R1,#0x0
   \                     ??osal_nv_read_1:
   \   0000C6   7F0C         MOV     R7,#0xc
   \   0000C8   02....       LJMP    ?BANKED_LEAVE_XDATA
   1445            }
   1446          }
   1447          
   1448          /*********************************************************************
   1449           * @fn      osal_nv_delete
   1450           *
   1451           * @brief   Delete item from NV. This function will fail if the length
   1452           *          parameter does not match the length of the item in NV.
   1453           *
   1454           * @param   id  - Valid NV item Id.
   1455           * @param   len - Length of item to delete.
   1456           *
   1457           * @return  SUCCESS if item was deleted,
   1458           *          NV_ITEM_UNINIT if item did not exist in NV,
   1459           *          NV_BAD_ITEM_LEN if length parameter not correct,
   1460           *          NV_OPER_FAILED if attempted deletion failed.
   1461           */

   \                                 In  segment BANKED_CODE, align 1, keep-with-next
   1462          uint8 osal_nv_delete( uint16 id, uint16 len )
   \                     osal_nv_delete:
   1463          {
   \   000000   74F0         MOV     A,#-0x10
   \   000002   12....       LCALL   ?BANKED_ENTER_XDATA
   \   000005                ; Saved register size: 16
   \   000005                ; Auto size: 0
   \   000005   EA           MOV     A,R2
   \   000006   FE           MOV     R6,A
   \   000007   EB           MOV     A,R3
   \   000008   FF           MOV     R7,A
   \   000009   8C..         MOV     ?V0 + 2,R4
   \   00000B   8D..         MOV     ?V0 + 3,R5
   1464            uint16 length;
   1465            uint16 offset;
   1466          
   1467            offset = findItem( id );
   \   00000D                ; Setup parameters for call to function findItem
   \   00000D   EE           MOV     A,R6
   \   00000E   FA           MOV     R2,A
   \   00000F   EF           MOV     A,R7
   \   000010   FB           MOV     R3,A
   \   000011   12....       LCALL   ??findItem?relay
   \   000014   8A..         MOV     ?V0 + 6,R2
   \   000016   8B..         MOV     ?V0 + 7,R3
   \   000018   85....       MOV     ?V0 + 4,?V0 + 6
   \   00001B   85....       MOV     ?V0 + 5,?V0 + 7
   1468            if ( offset == OSAL_NV_ITEM_NULL )
   \   00001E   E5..         MOV     A,?V0 + 4
   \   000020   45..         ORL     A,?V0 + 5
   \   000022   7004         JNZ     ??osal_nv_delete_0
   1469            {
   1470              // NV item does not exist
   1471              return NV_ITEM_UNINIT;
   \   000024   7909         MOV     R1,#0x9
   \   000026   804C         SJMP    ??osal_nv_delete_1
   1472            }
   1473          
   1474            length = osal_nv_item_len( id );
   \                     ??osal_nv_delete_0:
   \   000028                ; Setup parameters for call to function osal_nv_item_len
   \   000028   EE           MOV     A,R6
   \   000029   FA           MOV     R2,A
   \   00002A   EF           MOV     A,R7
   \   00002B   FB           MOV     R3,A
   \   00002C   12....       LCALL   ??osal_nv_item_len?relay
   \   00002F   8A..         MOV     ?V0 + 6,R2
   \   000031   8B..         MOV     ?V0 + 7,R3
   \   000033   85....       MOV     ?V0 + 0,?V0 + 6
   \   000036   85....       MOV     ?V0 + 1,?V0 + 7
   1475            if ( length != len )
   \   000039   E5..         MOV     A,?V0 + 2
   \   00003B   65..         XRL     A,?V0 + 0
   \   00003D   7004         JNZ     ??osal_nv_delete_2
   \   00003F   E5..         MOV     A,?V0 + 3
   \   000041   65..         XRL     A,?V0 + 1
   \                     ??osal_nv_delete_2:
   \   000043   6004         JZ      ??osal_nv_delete_3
   1476            {
   1477              // NV item has different length
   1478              return NV_BAD_ITEM_LEN;
   \   000045   790C         MOV     R1,#0xc
   \   000047   802B         SJMP    ??osal_nv_delete_1
   1479            }
   1480          
   1481            // Set item header ID to zero to 'delete' the item
   1482            setItem( findPg, offset, eNvZero );
   \                     ??osal_nv_delete_3:
   \   000049                ; Setup parameters for call to function setItem
   \   000049   7C01         MOV     R4,#0x1
   \   00004B   AA..         MOV     R2,?V0 + 4
   \   00004D   AB..         MOV     R3,?V0 + 5
   \   00004F   90....       MOV     DPTR,#findPg
   \   000052   E0           MOVX    A,@DPTR
   \   000053   F9           MOV     R1,A
   \   000054   12....       LCALL   ??setItem?relay
   1483          
   1484            // Verify that item has been removed
   1485            offset = findItem( id );
   \   000057                ; Setup parameters for call to function findItem
   \   000057   EE           MOV     A,R6
   \   000058   FA           MOV     R2,A
   \   000059   EF           MOV     A,R7
   \   00005A   FB           MOV     R3,A
   \   00005B   12....       LCALL   ??findItem?relay
   \   00005E   8A..         MOV     ?V0 + 6,R2
   \   000060   8B..         MOV     ?V0 + 7,R3
   \   000062   85....       MOV     ?V0 + 4,?V0 + 6
   \   000065   85....       MOV     ?V0 + 5,?V0 + 7
   1486            if ( offset != OSAL_NV_ITEM_NULL )
   \   000068   E5..         MOV     A,?V0 + 4
   \   00006A   45..         ORL     A,?V0 + 5
   \   00006C   6004         JZ      ??osal_nv_delete_4
   1487            {
   1488              // Still there
   1489              return NV_OPER_FAILED;
   \   00006E   790A         MOV     R1,#0xa
   \   000070   8002         SJMP    ??osal_nv_delete_1
   1490            }
   1491            else
   1492            {
   1493              // Yes, it's gone
   1494              return SUCCESS;
   \                     ??osal_nv_delete_4:
   \   000072   7900         MOV     R1,#0x0
   \                     ??osal_nv_delete_1:
   \   000074   7F08         MOV     R7,#0x8
   \   000076   02....       LJMP    ?BANKED_LEAVE_XDATA
   1495            }
   1496          }

   \                                 In  segment BANK_RELAYS, align 1
   \                     ??initNV?relay:
   \   000000   12....       LCALL   ?BDISPATCH
   \   000003   ......       DC24    initNV

   \                                 In  segment BANK_RELAYS, align 1
   \                     ??setPageUse?relay:
   \   000000   12....       LCALL   ?BDISPATCH
   \   000003   ......       DC24    setPageUse

   \                                 In  segment BANK_RELAYS, align 1
   \                     ??initPage?relay:
   \   000000   12....       LCALL   ?BDISPATCH
   \   000003   ......       DC24    initPage

   \                                 In  segment BANK_RELAYS, align 1
   \                     ??erasePage?relay:
   \   000000   12....       LCALL   ?BDISPATCH
   \   000003   ......       DC24    erasePage

   \                                 In  segment BANK_RELAYS, align 1
   \                     ??compactPage?relay:
   \   000000   12....       LCALL   ?BDISPATCH
   \   000003   ......       DC24    compactPage

   \                                 In  segment BANK_RELAYS, align 1
   \                     ??findItem?relay:
   \   000000   12....       LCALL   ?BDISPATCH
   \   000003   ......       DC24    findItem

   \                                 In  segment BANK_RELAYS, align 1
   \                     ??initItem?relay:
   \   000000   12....       LCALL   ?BDISPATCH
   \   000003   ......       DC24    initItem

   \                                 In  segment BANK_RELAYS, align 1
   \                     ??setItem?relay:
   \   000000   12....       LCALL   ?BDISPATCH
   \   000003   ......       DC24    setItem

   \                                 In  segment BANK_RELAYS, align 1
   \                     ??setChk?relay:
   \   000000   12....       LCALL   ?BDISPATCH
   \   000003   ......       DC24    setChk

   \                                 In  segment BANK_RELAYS, align 1
   \                     ??calcChkB?relay:
   \   000000   12....       LCALL   ?BDISPATCH
   \   000003   ......       DC24    calcChkB

   \                                 In  segment BANK_RELAYS, align 1
   \                     ??calcChkF?relay:
   \   000000   12....       LCALL   ?BDISPATCH
   \   000003   ......       DC24    calcChkF

   \                                 In  segment BANK_RELAYS, align 1
   \                     ??writeWord?relay:
   \   000000   12....       LCALL   ?BDISPATCH
   \   000003   ......       DC24    writeWord

   \                                 In  segment BANK_RELAYS, align 1
   \                     ??writeWordM?relay:
   \   000000   12....       LCALL   ?BDISPATCH
   \   000003   ......       DC24    writeWordM

   \                                 In  segment BANK_RELAYS, align 1
   \                     ??writeWordH?relay:
   \   000000   12....       LCALL   ?BDISPATCH
   \   000003   ......       DC24    writeWordH

   \                                 In  segment BANK_RELAYS, align 1
   \                     ??writeBuf?relay:
   \   000000   12....       LCALL   ?BDISPATCH
   \   000003   ......       DC24    writeBuf

   \                                 In  segment BANK_RELAYS, align 1
   \                     ??xferBuf?relay:
   \   000000   12....       LCALL   ?BDISPATCH
   \   000003   ......       DC24    xferBuf

   \                                 In  segment BANK_RELAYS, align 1
   \                     ??writeItem?relay:
   \   000000   12....       LCALL   ?BDISPATCH
   \   000003   ......       DC24    writeItem

   \                                 In  segment BANK_RELAYS, align 1
   \                     ??hotItem?relay:
   \   000000   12....       LCALL   ?BDISPATCH
   \   000003   ......       DC24    hotItem

   \                                 In  segment BANK_RELAYS, align 1
   \                     ??hotItemUpdate?relay:
   \   000000   12....       LCALL   ?BDISPATCH
   \   000003   ......       DC24    hotItemUpdate

   \                                 In  segment BANK_RELAYS, align 1
   \                     ??osal_nv_init?relay:
   \   000000   12....       LCALL   ?BDISPATCH
   \   000003   ......       DC24    osal_nv_init

   \                                 In  segment BANK_RELAYS, align 1
   \                     ??osal_nv_item_init?relay:
   \   000000   12....       LCALL   ?BDISPATCH
   \   000003   ......       DC24    osal_nv_item_init

   \                                 In  segment BANK_RELAYS, align 1
   \                     ??osal_nv_item_len?relay:
   \   000000   12....       LCALL   ?BDISPATCH
   \   000003   ......       DC24    osal_nv_item_len

   \                                 In  segment BANK_RELAYS, align 1
   \                     ??osal_nv_write?relay:
   \   000000   12....       LCALL   ?BDISPATCH
   \   000003   ......       DC24    osal_nv_write

   \                                 In  segment BANK_RELAYS, align 1
   \                     ??osal_nv_read?relay:
   \   000000   12....       LCALL   ?BDISPATCH
   \   000003   ......       DC24    osal_nv_read

   \                                 In  segment BANK_RELAYS, align 1
   \                     ??osal_nv_delete?relay:
   \   000000   12....       LCALL   ?BDISPATCH
   \   000003   ......       DC24    osal_nv_delete
   1497          
   1498          /*********************************************************************
   1499           */

   Maximum stack usage in bytes:

     Function              ISTACK PSTACK XSTACK
     --------              ------ ------ ------
     calcChkB                  0      0     38
     calcChkF                  0      0     64
       -> HalFlashRead         0      0     44
     compactPage               0      0     59
       -> HalFlashRead         0      0     58
       -> erasePage            0      0     54
       -> HalFlashRead         0      0     58
       -> calcChkF             0      0     54
       -> setItem              0      0     54
       -> writeItem            0      0     60
       -> xferBuf              0      0     62
       -> calcChkF             0      0     54
       -> setChk               0      0     54
       -> hotItemUpdate        0      0     54
       -> erasePage            0      0     54
       -> setPageUse           0      0     54
       -> erasePage            0      0     54
     erasePage                 0      0     51
       -> HalFlashErase        0      0     18
     findItem                  0      0     56
       -> initPage             0      0     28
       -> findItem             0      0     28
     hotItem                   2      0     22
     hotItemUpdate             1      0     55
       -> hotItem              0      0     26
     initItem                  1      0     75
       -> HalFlashRead         0      0     60
       -> writeWordH           0      0     56
       -> compactPage          0      0     56
       -> writeItem            0      0     62
       -> setPageUse           0      0     56
       -> erasePage            0      0     56
       -> writeItem            0      0     62
     initNV                    2      0     31
       -> HalFlashRead         0      0     44
       -> setPageUse           0      0     40
       -> erasePage            0      0     40
       -> compactPage          0      0     40
       -> erasePage            0      0     40
       -> erasePage            0      0     40
       -> initPage             0      0     40
       -> initPage             0      0     40
       -> erasePage            0      0     40
     initPage                  0      0     50
       -> HalFlashRead         0      0     60
       -> calcChkF             0      0     56
       -> findItem             0      0     56
       -> setItem              0      0     56
       -> setItem              0      0     56
     osal_nv_delete            0      0     16
       -> findItem             0      0     32
       -> osal_nv_item_len     0      0     32
       -> setItem              0      0     32
       -> findItem             0      0     32
     osal_nv_init              0      0      9
       -> initNV               0      0     18
     osal_nv_item_init         0      0     20
       -> HalAdcCheckVdd       0      0     32
       -> findItem             0      0     32
       -> hotItemUpdate        0      0     32
       -> initItem             0      0     36
     osal_nv_item_len          0      0     40
       -> hotItem              0      0     44
       -> findItem             0      0     44
       -> HalFlashRead         0      0     48
     osal_nv_read              0      0     26
       -> hotItem              0      0     40
       -> HalFlashRead         0      0     44
       -> findItem             0      0     40
       -> HalFlashRead         0      0     44
     osal_nv_write             0      0     50
       -> HalAdcCheckVdd       0      0     84
       -> findItem             0      0     84
       -> HalFlashRead         0      0     88
       -> HalFlashRead         0      0     88
       -> initItem             0      0     88
       -> setItem              0      0     84
       -> xferBuf              0      0     92
       -> writeBuf             0      0     88
       -> xferBuf              0      0     92
       -> calcChkF             0      0     84
       -> setChk               0      0     84
       -> hotItemUpdate        0      0     84
       -> erasePage            0      0     84
       -> setPageUse           0      0     84
       -> erasePage            0      0     84
       -> setItem              0      0     84
     setChk                    0      0     58
       -> writeWordH           0      0     28
       -> HalFlashRead         0      0     32
     setItem                   0      0     64
       -> HalFlashRead         0      0     44
       -> writeWord            0      0     40
       -> writeWord            0      0     40
     setPageUse                0      0     59
       -> writeWord            0      0     34
     writeBuf                  1      0     68
       -> HalFlashRead         0      0     48
       -> writeWord            0      0     44
       -> writeWordM           0      0     48
       -> HalFlashRead         0      0     48
       -> writeWord            0      0     44
     writeItem                 0      0     61
       -> writeWord            0      0     56
       -> HalFlashRead         0      0     60
       -> calcChkB             0      0     56
       -> writeBuf             0      0     60
       -> calcChkF             0      0     56
       -> setChk               0      0     56
       -> hotItemUpdate        0      0     56
     writeWord                 0      0     44
       -> HalFlashWrite        0      0     32
     writeWordH                1      0     43
       -> writeWord            0      0     30
     writeWordM                0      0     39
       -> HalFlashWrite        0      0     30
     xferBuf                   0      0     71
       -> HalFlashRead         0      0     50
       -> HalFlashRead         0      0     50
       -> writeWord            0      0     46
       -> HalFlashRead         0      0     50
       -> writeWord            0      0     46
       -> HalFlashRead         0      0     50
       -> HalFlashRead         0      0     50
       -> writeWord            0      0     46


   Segment part sizes:

     Function/Label            Bytes
     --------------            -----
     hotIds                        6
     _nvBuf                    12288
     pgOff                        12
     pgLost                       12
     pgRes                         1
     findPg                        1
     hotPg                         3
     hotOff                        6
     initNV                      458
     setPageUse                   85
     initPage                    641
     erasePage                   101
     compactPage                 780
     findItem                    102
     initItem                    576
     setItem                     249
     setChk                      109
     calcChkB                    147
     calcChkF                    175
     writeWord                    91
     writeWordM                   97
     writeWordH                   97
     writeBuf                    489
     xferBuf                     498
     writeItem                   748
     hotItem                      66
     hotItemUpdate                99
     osal_nv_init                 18
     osal_nv_item_init           117
     osal_nv_item_len            188
     osal_nv_write              1085
     osal_nv_read                203
     osal_nv_delete              121
     ??initNV?relay                6
     ??setPageUse?relay            6
     ??initPage?relay              6
     ??erasePage?relay             6
     ??compactPage?relay           6
     ??findItem?relay              6
     ??initItem?relay              6
     ??setItem?relay               6
     ??setChk?relay                6
     ??calcChkB?relay              6
     ??calcChkF?relay              6
     ??writeWord?relay             6
     ??writeWordM?relay            6
     ??writeWordH?relay            6
     ??writeBuf?relay              6
     ??xferBuf?relay               6
     ??writeItem?relay             6
     ??hotItem?relay               6
     ??hotItemUpdate?relay         6
     ??osal_nv_init?relay          6
     ??osal_nv_item_init?relay     6
     ??osal_nv_item_len?relay      6
     ??osal_nv_write?relay         6
     ??osal_nv_read?relay          6
     ??osal_nv_delete?relay        6

 
  7 340 bytes in segment BANKED_CODE
    150 bytes in segment BANK_RELAYS
      6 bytes in segment XDATA_ROM_C
     35 bytes in segment XDATA_Z
 12 288 bytes in segment ZIGNV_ADDRESS_SPACE
 
  7 490 bytes of CODE  memory
      6 bytes of CONST memory
 12 323 bytes of XDATA memory

Errors: none
Warnings: none
