###############################################################################
#                                                                             #
# IAR C/C++ Compiler V8.10.1.10194/W32 for 8051         14/Jul/2015  13:43:42 #
# Copyright 2004-2011 IAR Systems AB.                                         #
#                                                                             #
#    Core               =  plain                                              #
#    Code model         =  banked                                             #
#    Data model         =  large                                              #
#    Calling convention =  xdata reentrant                                    #
#    Constant location  =  data_rom                                           #
#    Dptr setup         =  1,16                                               #
#    Source file        =  C:\Texas Instruments\ZStack-CC2530-2.5.1a\Componen #
#                          ts\osal\common\OSAL_Timers.c                       #
#    Command line       =  -f "C:\Texas Instruments\ZStack-CC2530-2.5.1a\Proj #
#                          ects\zstack\Samples\WirelessMonitorSystem\CC2530DB #
#                          \..\..\..\Tools\CC2530DB\f8wEndev.cfg"             #
#                          (-DCPU32MHZ -DROOT=__near_func                     #
#                          -DMAC_CFG_TX_DATA_MAX=3 -DMAC_CFG_TX_MAX=6         #
#                          -DMAC_CFG_RX_MAX=3) -f "C:\Texas                   #
#                          Instruments\ZStack-CC2530-2.5.1a\Projects\zstack\S #
#                          amples\WirelessMonitorSystem\CC2530DB\..\..\..\Too #
#                          ls\CC2530DB\f8wConfig.cfg" (-DZIGBEEPRO            #
#                          -DSECURE=0 -DZG_SECURE_DYNAMIC=0 -DREFLECTOR       #
#                          -DDEFAULT_CHANLIST=0x00000800                      #
#                          -DZDAPP_CONFIG_PAN_ID=0xFFFF                       #
#                          -DNWK_START_DELAY=100 -DEXTENDED_JOINING_RANDOM_MA #
#                          SK=0x007F -DBEACON_REQUEST_DELAY=100               #
#                          -DBEACON_REQ_DELAY_MASK=0x00FF                     #
#                          -DLINK_STATUS_JITTER_MASK=0x007F                   #
#                          -DROUTE_EXPIRY_TIME=30 -DAPSC_ACK_WAIT_DURATION_PO #
#                          LLED=3000 -DNWK_INDIRECT_MSG_TIMEOUT=7             #
#                          -DMAX_RREQ_ENTRIES=8 -DAPSC_MAX_FRAME_RETRIES=3    #
#                          -DNWK_MAX_DATA_RETRIES=2                           #
#                          -DMAX_POLL_FAILURE_RETRIES=2 -DMAX_BCAST=9         #
#                          -DAPS_MAX_GROUPS=16 -DMAX_RTG_ENTRIES=40           #
#                          -DNWK_MAX_BINDING_ENTRIES=4                        #
#                          -DMAX_BINDING_CLUSTER_IDS=4 "-DDEFAULT_KEY={0x01,  #
#                          0x03, 0x05, 0x07, 0x09, 0x0B, 0x0D, 0x0F, 0x00,    #
#                          0x02, 0x04, 0x06, 0x08, 0x0A, 0x0C, 0x0D}"         #
#                          -DMAC_MAX_FRAME_SIZE=116                           #
#                          -DZDNWKMGR_MIN_TRANSMISSIONS=20 "-DCONST=const     #
#                          __code" -DGENERIC=__generic                        #
#                          -DRFD_RCVC_ALWAYS_ON=FALSE -DPOLL_RATE=500         #
#                          -DQUEUED_POLL_RATE=30 -DRESPONSE_POLL_RATE=100)    #
#                          -DREJOIN_POLL_RATE=440 "C:\Texas                   #
#                          Instruments\ZStack-CC2530-2.5.1a\Components\osal\c #
#                          ommon\OSAL_Timers.c" -D HAL_UART -lC "C:\Texas     #
#                          Instruments\ZStack-CC2530-2.5.1a\Projects\zstack\S #
#                          amples\WirelessMonitorSystem\CC2530DB\LCD\List\"   #
#                          -lA "C:\Texas Instruments\ZStack-CC2530-2.5.1a\Pro #
#                          jects\zstack\Samples\WirelessMonitorSystem\CC2530D #
#                          B\LCD\List\" --diag_suppress Pe001,Pa010 -o        #
#                          "C:\Texas Instruments\ZStack-CC2530-2.5.1a\Project #
#                          s\zstack\Samples\WirelessMonitorSystem\CC2530DB\LC #
#                          D\Obj\" -e --no_cse --no_unroll --no_inline        #
#                          --no_code_motion --no_tbaa --debug --core=plain    #
#                          --dptr=16,1 --data_model=large                     #
#                          --code_model=banked --calling_convention=xdata_ree #
#                          ntrant --place_constants=data_rom                  #
#                          --nr_virtual_regs 16 -I "C:\Texas                  #
#                          Instruments\ZStack-CC2530-2.5.1a\Projects\zstack\S #
#                          amples\WirelessMonitorSystem\CC2530DB\" -I         #
#                          "C:\Texas Instruments\ZStack-CC2530-2.5.1a\Project #
#                          s\zstack\Samples\WirelessMonitorSystem\CC2530DB\.. #
#                          \Source\" -I "C:\Texas Instruments\ZStack-CC2530-2 #
#                          .5.1a\Projects\zstack\Samples\WirelessMonitorSyste #
#                          m\CC2530DB\..\..\..\ZMain\TI2530DB\" -I "C:\Texas  #
#                          Instruments\ZStack-CC2530-2.5.1a\Projects\zstack\S #
#                          amples\WirelessMonitorSystem\CC2530DB\..\..\..\..\ #
#                          ..\Components\hal\include\" -I "C:\Texas           #
#                          Instruments\ZStack-CC2530-2.5.1a\Projects\zstack\S #
#                          amples\WirelessMonitorSystem\CC2530DB\..\..\..\..\ #
#                          ..\Components\hal\target\CC2530EB\" -I "C:\Texas   #
#                          Instruments\ZStack-CC2530-2.5.1a\Projects\zstack\S #
#                          amples\WirelessMonitorSystem\CC2530DB\..\..\..\..\ #
#                          ..\Components\mac\include\" -I "C:\Texas           #
#                          Instruments\ZStack-CC2530-2.5.1a\Projects\zstack\S #
#                          amples\WirelessMonitorSystem\CC2530DB\..\..\..\..\ #
#                          ..\Components\mac\high_level\" -I "C:\Texas        #
#                          Instruments\ZStack-CC2530-2.5.1a\Projects\zstack\S #
#                          amples\WirelessMonitorSystem\CC2530DB\..\..\..\..\ #
#                          ..\Components\mac\low_level\srf04\" -I "C:\Texas   #
#                          Instruments\ZStack-CC2530-2.5.1a\Projects\zstack\S #
#                          amples\WirelessMonitorSystem\CC2530DB\..\..\..\..\ #
#                          ..\Components\mac\low_level\srf04\single_chip\"    #
#                          -I "C:\Texas Instruments\ZStack-CC2530-2.5.1a\Proj #
#                          ects\zstack\Samples\WirelessMonitorSystem\CC2530DB #
#                          \..\..\..\..\..\Components\mt\" -I "C:\Texas       #
#                          Instruments\ZStack-CC2530-2.5.1a\Projects\zstack\S #
#                          amples\WirelessMonitorSystem\CC2530DB\..\..\..\..\ #
#                          ..\Components\osal\include\" -I "C:\Texas          #
#                          Instruments\ZStack-CC2530-2.5.1a\Projects\zstack\S #
#                          amples\WirelessMonitorSystem\CC2530DB\..\..\..\..\ #
#                          ..\Components\services\saddr\" -I "C:\Texas        #
#                          Instruments\ZStack-CC2530-2.5.1a\Projects\zstack\S #
#                          amples\WirelessMonitorSystem\CC2530DB\..\..\..\..\ #
#                          ..\Components\services\sdata\" -I "C:\Texas        #
#                          Instruments\ZStack-CC2530-2.5.1a\Projects\zstack\S #
#                          amples\WirelessMonitorSystem\CC2530DB\..\..\..\..\ #
#                          ..\Components\stack\af\" -I "C:\Texas              #
#                          Instruments\ZStack-CC2530-2.5.1a\Projects\zstack\S #
#                          amples\WirelessMonitorSystem\CC2530DB\..\..\..\..\ #
#                          ..\Components\stack\nwk\" -I "C:\Texas             #
#                          Instruments\ZStack-CC2530-2.5.1a\Projects\zstack\S #
#                          amples\WirelessMonitorSystem\CC2530DB\..\..\..\..\ #
#                          ..\Components\stack\sapi\" -I "C:\Texas            #
#                          Instruments\ZStack-CC2530-2.5.1a\Projects\zstack\S #
#                          amples\WirelessMonitorSystem\CC2530DB\..\..\..\..\ #
#                          ..\Components\stack\sec\" -I "C:\Texas             #
#                          Instruments\ZStack-CC2530-2.5.1a\Projects\zstack\S #
#                          amples\WirelessMonitorSystem\CC2530DB\..\..\..\..\ #
#                          ..\Components\stack\sys\" -I "C:\Texas             #
#                          Instruments\ZStack-CC2530-2.5.1a\Projects\zstack\S #
#                          amples\WirelessMonitorSystem\CC2530DB\..\..\..\..\ #
#                          ..\Components\stack\zdo\" -I "C:\Texas             #
#                          Instruments\ZStack-CC2530-2.5.1a\Projects\zstack\S #
#                          amples\WirelessMonitorSystem\CC2530DB\..\..\..\..\ #
#                          ..\Components\zmac\" -I "C:\Texas                  #
#                          Instruments\ZStack-CC2530-2.5.1a\Projects\zstack\S #
#                          amples\WirelessMonitorSystem\CC2530DB\..\..\..\..\ #
#                          ..\Components\zmac\f8w\" -On --require_prototypes  #
#    List file          =  C:\Texas Instruments\ZStack-CC2530-2.5.1a\Projects #
#                          \zstack\Samples\WirelessMonitorSystem\CC2530DB\LCD #
#                          \List\OSAL_Timers.lst                              #
#    Object file        =  C:\Texas Instruments\ZStack-CC2530-2.5.1a\Projects #
#                          \zstack\Samples\WirelessMonitorSystem\CC2530DB\LCD #
#                          \Obj\OSAL_Timers.r51                               #
#                                                                             #
#                                                                             #
###############################################################################

C:\Texas Instruments\ZStack-CC2530-2.5.1a\Components\osal\common\OSAL_Timers.c
      1          /**************************************************************************************************
      2            Filename:       OSAL_Timers.c
      3            Revised:        $Date: 2010-09-17 16:25:30 -0700 (Fri, 17 Sep 2010) $
      4            Revision:       $Revision: 23835 $
      5          
      6            Description:    OSAL Timer definition and manipulation functions.
      7          
      8          
      9            Copyright 2004-2009 Texas Instruments Incorporated. All rights reserved.
     10          
     11            IMPORTANT: Your use of this Software is limited to those specific rights
     12            granted under the terms of a software license agreement between the user
     13            who downloaded the software, his/her employer (which must be your employer)
     14            and Texas Instruments Incorporated (the "License").  You may not use this
     15            Software unless you agree to abide by the terms of the License. The License
     16            limits your use, and you acknowledge, that the Software may not be modified,
     17            copied or distributed unless embedded on a Texas Instruments microcontroller
     18            or used solely and exclusively in conjunction with a Texas Instruments radio
     19            frequency transceiver, which is integrated into your product.  Other than for
     20            the foregoing purpose, you may not use, reproduce, copy, prepare derivative
     21            works of, modify, distribute, perform, display or sell this Software and/or
     22            its documentation for any purpose.
     23          
     24            YOU FURTHER ACKNOWLEDGE AND AGREE THAT THE SOFTWARE AND DOCUMENTATION ARE
     25            PROVIDED “AS IS” WITHOUT WARRANTY OF ANY KIND, EITHER EXPRESS OR IMPLIED,
     26            INCLUDING WITHOUT LIMITATION, ANY WARRANTY OF MERCHANTABILITY, TITLE,
     27            NON-INFRINGEMENT AND FITNESS FOR A PARTICULAR PURPOSE. IN NO EVENT SHALL
     28            TEXAS INSTRUMENTS OR ITS LICENSORS BE LIABLE OR OBLIGATED UNDER CONTRACT,
     29            NEGLIGENCE, STRICT LIABILITY, CONTRIBUTION, BREACH OF WARRANTY, OR OTHER
     30            LEGAL EQUITABLE THEORY ANY DIRECT OR INDIRECT DAMAGES OR EXPENSES
     31            INCLUDING BUT NOT LIMITED TO ANY INCIDENTAL, SPECIAL, INDIRECT, PUNITIVE
     32            OR CONSEQUENTIAL DAMAGES, LOST PROFITS OR LOST DATA, COST OF PROCUREMENT
     33            OF SUBSTITUTE GOODS, TECHNOLOGY, SERVICES, OR ANY CLAIMS BY THIRD PARTIES
     34            (INCLUDING BUT NOT LIMITED TO ANY DEFENSE THEREOF), OR OTHER SIMILAR COSTS.
     35          
     36            Should you have any questions regarding your right to use this Software,
     37            contact Texas Instruments Incorporated at www.TI.com.
     38          **************************************************************************************************/
     39          
     40          /*********************************************************************
     41           * INCLUDES
     42           */
     43          
     44          #include "comdef.h"
     45          #include "OnBoard.h"

   \                                 In  segment SFR_AN, at 0xa8
   \   union <unnamed> volatile __sfr _A_IEN0
   \                     _A_IEN0:
   \   000000                DS 1
     46          #include "OSAL.h"
     47          #include "OSAL_Timers.h"
     48          #include "hal_timer.h"
     49          
     50          /*********************************************************************
     51           * MACROS
     52           */
     53          
     54          /*********************************************************************
     55           * CONSTANTS
     56           */
     57          
     58          /*********************************************************************
     59           * TYPEDEFS
     60           */
     61          
     62          typedef struct
     63          {
     64            void   *next;
     65            uint16 timeout;
     66            uint16 event_flag;
     67            uint8  task_id;
     68            uint16 reloadTimeout;
     69          } osalTimerRec_t;
     70          
     71          /*********************************************************************
     72           * GLOBAL VARIABLES
     73           */
     74          

   \                                 In  segment XDATA_Z, align 1, keep-with-next
     75          osalTimerRec_t *timerHead;
   \                     timerHead:
   \   000000                DS 2
   \   000002                REQUIRE __INIT_XDATA_Z
     76          
     77          /*********************************************************************
     78           * EXTERNAL VARIABLES
     79           */
     80          
     81          /*********************************************************************
     82           * EXTERNAL FUNCTIONS
     83           */
     84          
     85          /*********************************************************************
     86           * LOCAL VARIABLES
     87           */
     88          // Milliseconds since last reboot

   \                                 In  segment XDATA_Z, align 1, keep-with-next
     89          static uint32 osal_systemClock;
   \                     osal_systemClock:
   \   000000                DS 4
   \   000004                REQUIRE __INIT_XDATA_Z
     90          
     91          /*********************************************************************
     92           * LOCAL FUNCTION PROTOTYPES
     93           */
     94          osalTimerRec_t  *osalAddTimer( uint8 task_id, uint16 event_flag, uint16 timeout );
     95          osalTimerRec_t *osalFindTimer( uint8 task_id, uint16 event_flag );
     96          void osalDeleteTimer( osalTimerRec_t *rmTimer );
     97          
     98          /*********************************************************************
     99           * FUNCTIONS
    100           *********************************************************************/
    101          
    102          /*********************************************************************
    103           * @fn      osalTimerInit
    104           *
    105           * @brief   Initialization for the OSAL Timer System.
    106           *
    107           * @param   none
    108           *
    109           * @return
    110           */

   \                                 In  segment BANKED_CODE, align 1, keep-with-next
    111          void osalTimerInit( void )
   \                     osalTimerInit:
    112          {
   \   000000   C082         PUSH    DPL
   \   000002   C083         PUSH    DPH
   \   000004                ; Saved register size: 2
   \   000004                ; Auto size: 0
    113            osal_systemClock = 0;
   \   000004   90....       MOV     DPTR,#__Constant_0
   \   000007   12....       LCALL   ?XLOAD_R2345
   \   00000A   90....       MOV     DPTR,#osal_systemClock
   \   00000D   12....       LCALL   ?XSTORE_R2345
    114          }
   \   000010   D083         POP     DPH
   \   000012   D082         POP     DPL
   \   000014   02....       LJMP    ?BRET
    115          
    116          /*********************************************************************
    117           * @fn      osalAddTimer
    118           *
    119           * @brief   Add a timer to the timer list.
    120           *          Ints must be disabled.
    121           *
    122           * @param   task_id
    123           * @param   event_flag
    124           * @param   timeout
    125           *
    126           * @return  osalTimerRec_t * - pointer to newly created timer
    127           */

   \                                 In  segment BANKED_CODE, align 1, keep-with-next
    128          osalTimerRec_t * osalAddTimer( uint8 task_id, uint16 event_flag, uint16 timeout )
   \                     osalAddTimer:
    129          {
   \   000000   74EE         MOV     A,#-0x12
   \   000002   12....       LCALL   ?BANKED_ENTER_XDATA
   \   000005                ; Saved register size: 18
   \   000005                ; Auto size: 0
   \   000005   89..         MOV     ?V0 + 6,R1
   \   000007   8A..         MOV     ?V0 + 0,R2
   \   000009   8B..         MOV     ?V0 + 1,R3
   \   00000B   8C..         MOV     ?V0 + 4,R4
   \   00000D   8D..         MOV     ?V0 + 5,R5
    130            osalTimerRec_t *newTimer;
    131            osalTimerRec_t *srchTimer;
    132          
    133            // Look for an existing timer first
    134            newTimer = osalFindTimer( task_id, event_flag );
   \   00000F                ; Setup parameters for call to function osalFindTimer
   \   00000F   AA..         MOV     R2,?V0 + 0
   \   000011   AB..         MOV     R3,?V0 + 1
   \   000013   A9..         MOV     R1,?V0 + 6
   \   000015   12....       LCALL   ??osalFindTimer?relay
   \   000018   8A..         MOV     ?V0 + 8,R2
   \   00001A   8B..         MOV     ?V0 + 9,R3
   \   00001C   AE..         MOV     R6,?V0 + 8
   \   00001E   AF..         MOV     R7,?V0 + 9
    135            if ( newTimer )
   \   000020   EE           MOV     A,R6
   \   000021   4F           ORL     A,R7
   \   000022   6014         JZ      ??osalAddTimer_0
    136            {
    137              // Timer is found - update it.
    138              newTimer->timeout = timeout;
   \   000024   8E82         MOV     DPL,R6
   \   000026   8F83         MOV     DPH,R7
   \   000028   A3           INC     DPTR
   \   000029   A3           INC     DPTR
   \   00002A   E5..         MOV     A,?V0 + 4
   \   00002C   F0           MOVX    @DPTR,A
   \   00002D   A3           INC     DPTR
   \   00002E   E5..         MOV     A,?V0 + 5
   \   000030   F0           MOVX    @DPTR,A
    139          
    140              return ( newTimer );
   \   000031   EE           MOV     A,R6
   \   000032   FA           MOV     R2,A
   \   000033   EF           MOV     A,R7
   \   000034   FB           MOV     R3,A
   \   000035   02....       LJMP    ??osalAddTimer_1 & 0xFFFF
    141            }
    142            else
    143            {
    144              // New Timer
    145              newTimer = osal_mem_alloc( sizeof( osalTimerRec_t ) );
   \                     ??osalAddTimer_0:
   \   000038                ; Setup parameters for call to function osal_mem_alloc
   \   000038   7A09         MOV     R2,#0x9
   \   00003A   7B00         MOV     R3,#0x0
   \   00003C   12....       LCALL   ??osal_mem_alloc?relay
   \   00003F   8A..         MOV     ?V0 + 8,R2
   \   000041   8B..         MOV     ?V0 + 9,R3
   \   000043   AE..         MOV     R6,?V0 + 8
   \   000045   AF..         MOV     R7,?V0 + 9
    146          
    147              if ( newTimer )
   \   000047   EE           MOV     A,R6
   \   000048   4F           ORL     A,R7
   \   000049   7003         JNZ     $+5
   \   00004B   02....       LJMP    ??osalAddTimer_2 & 0xFFFF
    148              {
    149                // Fill in new timer
    150                newTimer->task_id = task_id;
   \   00004E   E5..         MOV     A,?V0 + 6
   \   000050   8E82         MOV     DPL,R6
   \   000052   8F83         MOV     DPH,R7
   \   000054   A3           INC     DPTR
   \   000055   A3           INC     DPTR
   \   000056   A3           INC     DPTR
   \   000057   A3           INC     DPTR
   \   000058   A3           INC     DPTR
   \   000059   A3           INC     DPTR
   \   00005A   E5..         MOV     A,?V0 + 6
   \   00005C   F0           MOVX    @DPTR,A
    151                newTimer->event_flag = event_flag;
   \   00005D   8E82         MOV     DPL,R6
   \   00005F   8F83         MOV     DPH,R7
   \   000061   A3           INC     DPTR
   \   000062   A3           INC     DPTR
   \   000063   A3           INC     DPTR
   \   000064   A3           INC     DPTR
   \   000065   E5..         MOV     A,?V0 + 0
   \   000067   F0           MOVX    @DPTR,A
   \   000068   A3           INC     DPTR
   \   000069   E5..         MOV     A,?V0 + 1
   \   00006B   F0           MOVX    @DPTR,A
    152                newTimer->timeout = timeout;
   \   00006C   8E82         MOV     DPL,R6
   \   00006E   8F83         MOV     DPH,R7
   \   000070   A3           INC     DPTR
   \   000071   A3           INC     DPTR
   \   000072   E5..         MOV     A,?V0 + 4
   \   000074   F0           MOVX    @DPTR,A
   \   000075   A3           INC     DPTR
   \   000076   E5..         MOV     A,?V0 + 5
   \   000078   F0           MOVX    @DPTR,A
    153                newTimer->next = (void *)NULL;
   \   000079   8E82         MOV     DPL,R6
   \   00007B   8F83         MOV     DPH,R7
   \   00007D   7400         MOV     A,#0x0
   \   00007F   F0           MOVX    @DPTR,A
   \   000080   A3           INC     DPTR
   \   000081   7400         MOV     A,#0x0
   \   000083   F0           MOVX    @DPTR,A
    154                newTimer->reloadTimeout = 0;
   \   000084   8E82         MOV     DPL,R6
   \   000086   8F83         MOV     DPH,R7
   \   000088   A3           INC     DPTR
   \   000089   A3           INC     DPTR
   \   00008A   A3           INC     DPTR
   \   00008B   A3           INC     DPTR
   \   00008C   A3           INC     DPTR
   \   00008D   A3           INC     DPTR
   \   00008E   A3           INC     DPTR
   \   00008F   7400         MOV     A,#0x0
   \   000091   F0           MOVX    @DPTR,A
   \   000092   A3           INC     DPTR
   \   000093   7400         MOV     A,#0x0
   \   000095   F0           MOVX    @DPTR,A
    155          
    156                // Does the timer list already exist
    157                if ( timerHead == NULL )
   \   000096   90....       MOV     DPTR,#timerHead
   \   000099   E0           MOVX    A,@DPTR
   \   00009A   F8           MOV     R0,A
   \   00009B   A3           INC     DPTR
   \   00009C   E0           MOVX    A,@DPTR
   \   00009D   F9           MOV     R1,A
   \   00009E   E8           MOV     A,R0
   \   00009F   49           ORL     A,R1
   \   0000A0   700A         JNZ     ??osalAddTimer_3
    158                {
    159                  // Start task list
    160                  timerHead = newTimer;
   \   0000A2   90....       MOV     DPTR,#timerHead
   \   0000A5   EE           MOV     A,R6
   \   0000A6   F0           MOVX    @DPTR,A
   \   0000A7   A3           INC     DPTR
   \   0000A8   EF           MOV     A,R7
   \   0000A9   F0           MOVX    @DPTR,A
   \   0000AA   8035         SJMP    ??osalAddTimer_4
    161                }
    162                else
    163                {
    164                  // Add it to the end of the timer list
    165                  srchTimer = timerHead;
   \                     ??osalAddTimer_3:
   \   0000AC   90....       MOV     DPTR,#timerHead
   \   0000AF   E0           MOVX    A,@DPTR
   \   0000B0   F8           MOV     R0,A
   \   0000B1   A3           INC     DPTR
   \   0000B2   E0           MOVX    A,@DPTR
   \   0000B3   F9           MOV     R1,A
   \   0000B4   88..         MOV     ?V0 + 2,R0
   \   0000B6   89..         MOV     ?V0 + 3,R1
    166          
    167                  // Stop at the last record
    168                  while ( srchTimer->next )
   \                     ??osalAddTimer_5:
   \   0000B8   85..82       MOV     DPL,?V0 + 2
   \   0000BB   85..83       MOV     DPH,?V0 + 3
   \   0000BE   E0           MOVX    A,@DPTR
   \   0000BF   F8           MOV     R0,A
   \   0000C0   A3           INC     DPTR
   \   0000C1   E0           MOVX    A,@DPTR
   \   0000C2   F9           MOV     R1,A
   \   0000C3   E8           MOV     A,R0
   \   0000C4   49           ORL     A,R1
   \   0000C5   600F         JZ      ??osalAddTimer_6
    169                    srchTimer = srchTimer->next;
   \   0000C7   85..82       MOV     DPL,?V0 + 2
   \   0000CA   85..83       MOV     DPH,?V0 + 3
   \   0000CD   E0           MOVX    A,@DPTR
   \   0000CE   F5..         MOV     ?V0 + 2,A
   \   0000D0   A3           INC     DPTR
   \   0000D1   E0           MOVX    A,@DPTR
   \   0000D2   F5..         MOV     ?V0 + 3,A
   \   0000D4   80E2         SJMP    ??osalAddTimer_5
    170          
    171                  // Add to the list
    172                  srchTimer->next = newTimer;
   \                     ??osalAddTimer_6:
   \   0000D6   85..82       MOV     DPL,?V0 + 2
   \   0000D9   85..83       MOV     DPH,?V0 + 3
   \   0000DC   EE           MOV     A,R6
   \   0000DD   F0           MOVX    @DPTR,A
   \   0000DE   A3           INC     DPTR
   \   0000DF   EF           MOV     A,R7
   \   0000E0   F0           MOVX    @DPTR,A
    173                }
    174          
    175                return ( newTimer );
   \                     ??osalAddTimer_4:
   \   0000E1   EE           MOV     A,R6
   \   0000E2   FA           MOV     R2,A
   \   0000E3   EF           MOV     A,R7
   \   0000E4   FB           MOV     R3,A
   \   0000E5   8004         SJMP    ??osalAddTimer_1
    176              }
    177              else
    178                return ( (osalTimerRec_t *)NULL );
   \                     ??osalAddTimer_2:
   \   0000E7   7A00         MOV     R2,#0x0
   \   0000E9   7B00         MOV     R3,#0x0
   \                     ??osalAddTimer_1:
   \   0000EB   7F0A         MOV     R7,#0xa
   \   0000ED   02....       LJMP    ?BANKED_LEAVE_XDATA
    179            }
    180          }
    181          
    182          /*********************************************************************
    183           * @fn      osalFindTimer
    184           *
    185           * @brief   Find a timer in a timer list.
    186           *          Ints must be disabled.
    187           *
    188           * @param   task_id
    189           * @param   event_flag
    190           *
    191           * @return  osalTimerRec_t *
    192           */

   \                                 In  segment BANKED_CODE, align 1, keep-with-next
    193          osalTimerRec_t *osalFindTimer( uint8 task_id, uint16 event_flag )
   \                     osalFindTimer:
    194          {
   \   000000   74F7         MOV     A,#-0x9
   \   000002   12....       LCALL   ?BANKED_ENTER_XDATA
   \   000005                ; Saved register size: 9
   \   000005                ; Auto size: 0
   \   000005   EA           MOV     A,R2
   \   000006   FE           MOV     R6,A
   \   000007   EB           MOV     A,R3
   \   000008   FF           MOV     R7,A
    195            osalTimerRec_t *srchTimer;
    196          
    197            // Head of the timer list
    198            srchTimer = timerHead;
   \   000009   90....       MOV     DPTR,#timerHead
   \   00000C   E0           MOVX    A,@DPTR
   \   00000D   FC           MOV     R4,A
   \   00000E   A3           INC     DPTR
   \   00000F   E0           MOVX    A,@DPTR
   \   000010   FD           MOV     R5,A
   \   000011   EC           MOV     A,R4
   \   000012   FA           MOV     R2,A
   \   000013   ED           MOV     A,R5
   \   000014   FB           MOV     R3,A
    199          
    200            // Stop when found or at the end
    201            while ( srchTimer )
   \                     ??osalFindTimer_0:
   \   000015   EA           MOV     A,R2
   \   000016   4B           ORL     A,R3
   \   000017   602A         JZ      ??osalFindTimer_1
    202            {
    203              if ( srchTimer->event_flag == event_flag &&
    204                   srchTimer->task_id == task_id )
   \   000019   8A82         MOV     DPL,R2
   \   00001B   8B83         MOV     DPH,R3
   \   00001D   A3           INC     DPTR
   \   00001E   A3           INC     DPTR
   \   00001F   A3           INC     DPTR
   \   000020   A3           INC     DPTR
   \   000021   E0           MOVX    A,@DPTR
   \   000022   6E           XRL     A,R6
   \   000023   7003         JNZ     ??osalFindTimer_2
   \   000025   A3           INC     DPTR
   \   000026   E0           MOVX    A,@DPTR
   \   000027   6F           XRL     A,R7
   \                     ??osalFindTimer_2:
   \   000028   700E         JNZ     ??osalFindTimer_3
   \   00002A   8A82         MOV     DPL,R2
   \   00002C   8B83         MOV     DPH,R3
   \   00002E   A3           INC     DPTR
   \   00002F   A3           INC     DPTR
   \   000030   A3           INC     DPTR
   \   000031   A3           INC     DPTR
   \   000032   A3           INC     DPTR
   \   000033   A3           INC     DPTR
   \   000034   E0           MOVX    A,@DPTR
   \   000035   69           XRL     A,R1
   \   000036   600B         JZ      ??osalFindTimer_1
    205                break;
    206          
    207              // Not this one, check another
    208              srchTimer = srchTimer->next;
   \                     ??osalFindTimer_3:
   \   000038   8A82         MOV     DPL,R2
   \   00003A   8B83         MOV     DPH,R3
   \   00003C   E0           MOVX    A,@DPTR
   \   00003D   FA           MOV     R2,A
   \   00003E   A3           INC     DPTR
   \   00003F   E0           MOVX    A,@DPTR
   \   000040   FB           MOV     R3,A
   \   000041   80D2         SJMP    ??osalFindTimer_0
    209            }
    210          
    211            return ( srchTimer );
   \                     ??osalFindTimer_1:
   \   000043   7F01         MOV     R7,#0x1
   \   000045   02....       LJMP    ?BANKED_LEAVE_XDATA
    212          }
    213          
    214          /*********************************************************************
    215           * @fn      osalDeleteTimer
    216           *
    217           * @brief   Delete a timer from a timer list.
    218           *
    219           * @param   table
    220           * @param   rmTimer
    221           *
    222           * @return  none
    223           */

   \                                 In  segment BANKED_CODE, align 1, keep-with-next
    224          void osalDeleteTimer( osalTimerRec_t *rmTimer )
   \                     osalDeleteTimer:
    225          {
   \   000000   C082         PUSH    DPL
   \   000002   C083         PUSH    DPH
   \   000004                ; Saved register size: 2
   \   000004                ; Auto size: 0
    226            // Does the timer list really exist
    227            if ( rmTimer )
   \   000004   EA           MOV     A,R2
   \   000005   4B           ORL     A,R3
   \   000006   600F         JZ      ??osalDeleteTimer_0
    228            {
    229              // Clear the event flag and osalTimerUpdate() will delete 
    230              // the timer from the list.
    231              rmTimer->event_flag = 0;
   \   000008   8A82         MOV     DPL,R2
   \   00000A   8B83         MOV     DPH,R3
   \   00000C   A3           INC     DPTR
   \   00000D   A3           INC     DPTR
   \   00000E   A3           INC     DPTR
   \   00000F   A3           INC     DPTR
   \   000010   7400         MOV     A,#0x0
   \   000012   F0           MOVX    @DPTR,A
   \   000013   A3           INC     DPTR
   \   000014   7400         MOV     A,#0x0
   \   000016   F0           MOVX    @DPTR,A
    232            }
    233          }
   \                     ??osalDeleteTimer_0:
   \   000017   D083         POP     DPH
   \   000019   D082         POP     DPL
   \   00001B   02....       LJMP    ?BRET
    234          
    235          /*********************************************************************
    236           * @fn      osal_start_timerEx
    237           *
    238           * @brief
    239           *
    240           *   This function is called to start a timer to expire in n mSecs.
    241           *   When the timer expires, the calling task will get the specified event.
    242           *
    243           * @param   uint8 taskID - task id to set timer for
    244           * @param   uint16 event_id - event to be notified with
    245           * @param   UNINT16 timeout_value - in milliseconds.
    246           *
    247           * @return  SUCCESS, or NO_TIMER_AVAIL.
    248           */

   \                                 In  segment BANKED_CODE, align 1, keep-with-next
    249          uint8 osal_start_timerEx( uint8 taskID, uint16 event_id, uint16 timeout_value )
   \                     osal_start_timerEx:
    250          {
   \   000000   74F0         MOV     A,#-0x10
   \   000002   12....       LCALL   ?BANKED_ENTER_XDATA
   \   000005                ; Saved register size: 16
   \   000005                ; Auto size: 0
   \   000005   89..         MOV     ?V0 + 4,R1
   \   000007   8A..         MOV     ?V0 + 2,R2
   \   000009   8B..         MOV     ?V0 + 3,R3
   \   00000B   8C..         MOV     ?V0 + 0,R4
   \   00000D   8D..         MOV     ?V0 + 1,R5
    251            halIntState_t intState;
    252            osalTimerRec_t *newTimer;
    253          
    254            HAL_ENTER_CRITICAL_SECTION( intState );  // Hold off interrupts.
   \   00000F   A2AF         MOV     C,0xa8.7
   \   000011   E4           CLR     A
   \   000012   33           RLC     A
   \   000013   F5..         MOV     ?V0 + 5,A
   \   000015   C2AF         CLR     0xa8.7
    255          
    256            // Add timer
    257            newTimer = osalAddTimer( taskID, event_id, timeout_value );
   \   000017                ; Setup parameters for call to function osalAddTimer
   \   000017   AC..         MOV     R4,?V0 + 0
   \   000019   AD..         MOV     R5,?V0 + 1
   \   00001B   AA..         MOV     R2,?V0 + 2
   \   00001D   AB..         MOV     R3,?V0 + 3
   \   00001F   A9..         MOV     R1,?V0 + 4
   \   000021   12....       LCALL   ??osalAddTimer?relay
   \   000024   8A..         MOV     ?V0 + 6,R2
   \   000026   8B..         MOV     ?V0 + 7,R3
   \   000028   AE..         MOV     R6,?V0 + 6
   \   00002A   AF..         MOV     R7,?V0 + 7
    258          
    259            HAL_EXIT_CRITICAL_SECTION( intState );   // Re-enable interrupts.
   \   00002C   E5..         MOV     A,?V0 + 5
   \   00002E   A2E0         MOV     C,0xE0 /* A   */.0
   \   000030   92AF         MOV     0xa8.7,C
    260          
    261            return ( (newTimer != NULL) ? SUCCESS : NO_TIMER_AVAIL );
   \   000032   E5..         MOV     A,?V0 + 6
   \   000034   4F           ORL     A,R7
   \   000035   6004         JZ      ??osal_start_timerEx_0
   \   000037   7900         MOV     R1,#0x0
   \   000039   8002         SJMP    ??osal_start_timerEx_1
   \                     ??osal_start_timerEx_0:
   \   00003B   7908         MOV     R1,#0x8
   \                     ??osal_start_timerEx_1:
   \   00003D   7F08         MOV     R7,#0x8
   \   00003F   02....       LJMP    ?BANKED_LEAVE_XDATA
   \   000042                REQUIRE _A_IEN0
    262          }
    263          
    264          /*********************************************************************
    265           * @fn      osal_start_reload_timer
    266           *
    267           * @brief
    268           *
    269           *   This function is called to start a timer to expire in n mSecs.
    270           *   When the timer expires, the calling task will get the specified event
    271           *   and the timer will be reloaded with the timeout value.
    272           *
    273           * @param   uint8 taskID - task id to set timer for
    274           * @param   uint16 event_id - event to be notified with
    275           * @param   UNINT16 timeout_value - in milliseconds.
    276           *
    277           * @return  SUCCESS, or NO_TIMER_AVAIL.
    278           */

   \                                 In  segment BANKED_CODE, align 1, keep-with-next
    279          uint8 osal_start_reload_timer( uint8 taskID, uint16 event_id, uint16 timeout_value )
   \                     osal_start_reload_timer:
    280          {
   \   000000   74F0         MOV     A,#-0x10
   \   000002   12....       LCALL   ?BANKED_ENTER_XDATA
   \   000005                ; Saved register size: 16
   \   000005                ; Auto size: 0
   \   000005   89..         MOV     ?V0 + 4,R1
   \   000007   8A..         MOV     ?V0 + 2,R2
   \   000009   8B..         MOV     ?V0 + 3,R3
   \   00000B   8C..         MOV     ?V0 + 0,R4
   \   00000D   8D..         MOV     ?V0 + 1,R5
    281            halIntState_t intState;
    282            osalTimerRec_t *newTimer;
    283          
    284            HAL_ENTER_CRITICAL_SECTION( intState );  // Hold off interrupts.
   \   00000F   A2AF         MOV     C,0xa8.7
   \   000011   E4           CLR     A
   \   000012   33           RLC     A
   \   000013   F5..         MOV     ?V0 + 5,A
   \   000015   C2AF         CLR     0xa8.7
    285          
    286            // Add timer
    287            newTimer = osalAddTimer( taskID, event_id, timeout_value );
   \   000017                ; Setup parameters for call to function osalAddTimer
   \   000017   AC..         MOV     R4,?V0 + 0
   \   000019   AD..         MOV     R5,?V0 + 1
   \   00001B   AA..         MOV     R2,?V0 + 2
   \   00001D   AB..         MOV     R3,?V0 + 3
   \   00001F   A9..         MOV     R1,?V0 + 4
   \   000021   12....       LCALL   ??osalAddTimer?relay
   \   000024   8A..         MOV     ?V0 + 6,R2
   \   000026   8B..         MOV     ?V0 + 7,R3
   \   000028   AE..         MOV     R6,?V0 + 6
   \   00002A   AF..         MOV     R7,?V0 + 7
    288            if ( newTimer )
   \   00002C   EE           MOV     A,R6
   \   00002D   4F           ORL     A,R7
   \   00002E   6012         JZ      ??osal_start_reload_timer_0
    289            {
    290              // Load the reload timeout value
    291              newTimer->reloadTimeout = timeout_value;
   \   000030   8E82         MOV     DPL,R6
   \   000032   8F83         MOV     DPH,R7
   \   000034   A3           INC     DPTR
   \   000035   A3           INC     DPTR
   \   000036   A3           INC     DPTR
   \   000037   A3           INC     DPTR
   \   000038   A3           INC     DPTR
   \   000039   A3           INC     DPTR
   \   00003A   A3           INC     DPTR
   \   00003B   E5..         MOV     A,?V0 + 0
   \   00003D   F0           MOVX    @DPTR,A
   \   00003E   A3           INC     DPTR
   \   00003F   E5..         MOV     A,?V0 + 1
   \   000041   F0           MOVX    @DPTR,A
    292            }
    293          
    294            HAL_EXIT_CRITICAL_SECTION( intState );   // Re-enable interrupts.
   \                     ??osal_start_reload_timer_0:
   \   000042   E5..         MOV     A,?V0 + 5
   \   000044   A2E0         MOV     C,0xE0 /* A   */.0
   \   000046   92AF         MOV     0xa8.7,C
    295          
    296            return ( (newTimer != NULL) ? SUCCESS : NO_TIMER_AVAIL );
   \   000048   EE           MOV     A,R6
   \   000049   4F           ORL     A,R7
   \   00004A   6004         JZ      ??osal_start_reload_timer_1
   \   00004C   7900         MOV     R1,#0x0
   \   00004E   8002         SJMP    ??osal_start_reload_timer_2
   \                     ??osal_start_reload_timer_1:
   \   000050   7908         MOV     R1,#0x8
   \                     ??osal_start_reload_timer_2:
   \   000052   7F08         MOV     R7,#0x8
   \   000054   02....       LJMP    ?BANKED_LEAVE_XDATA
   \   000057                REQUIRE _A_IEN0
    297          }
    298          
    299          /*********************************************************************
    300           * @fn      osal_stop_timerEx
    301           *
    302           * @brief
    303           *
    304           *   This function is called to stop a timer that has already been started.
    305           *   If ZSUCCESS, the function will cancel the timer and prevent the event
    306           *   associated with the timer from being set for the calling task.
    307           *
    308           * @param   uint8 task_id - task id of timer to stop
    309           * @param   uint16 event_id - identifier of the timer that is to be stopped
    310           *
    311           * @return  SUCCESS or INVALID_EVENT_ID
    312           */

   \                                 In  segment BANKED_CODE, align 1, keep-with-next
    313          uint8 osal_stop_timerEx( uint8 task_id, uint16 event_id )
   \                     osal_stop_timerEx:
    314          {
   \   000000   74F2         MOV     A,#-0xe
   \   000002   12....       LCALL   ?BANKED_ENTER_XDATA
   \   000005                ; Saved register size: 14
   \   000005                ; Auto size: 0
   \   000005   89..         MOV     ?V0 + 2,R1
   \   000007   8A..         MOV     ?V0 + 0,R2
   \   000009   8B..         MOV     ?V0 + 1,R3
    315            halIntState_t intState;
    316            osalTimerRec_t *foundTimer;
    317          
    318            HAL_ENTER_CRITICAL_SECTION( intState );  // Hold off interrupts.
   \   00000B   A2AF         MOV     C,0xa8.7
   \   00000D   E4           CLR     A
   \   00000E   33           RLC     A
   \   00000F   F5..         MOV     ?V0 + 3,A
   \   000011   C2AF         CLR     0xa8.7
    319          
    320            // Find the timer to stop
    321            foundTimer = osalFindTimer( task_id, event_id );
   \   000013                ; Setup parameters for call to function osalFindTimer
   \   000013   AA..         MOV     R2,?V0 + 0
   \   000015   AB..         MOV     R3,?V0 + 1
   \   000017   A9..         MOV     R1,?V0 + 2
   \   000019   12....       LCALL   ??osalFindTimer?relay
   \   00001C   8A..         MOV     ?V0 + 4,R2
   \   00001E   8B..         MOV     ?V0 + 5,R3
   \   000020   AE..         MOV     R6,?V0 + 4
   \   000022   AF..         MOV     R7,?V0 + 5
    322            if ( foundTimer )
   \   000024   EE           MOV     A,R6
   \   000025   4F           ORL     A,R7
   \   000026   6007         JZ      ??osal_stop_timerEx_0
    323            {
    324              osalDeleteTimer( foundTimer );
   \   000028                ; Setup parameters for call to function osalDeleteTimer
   \   000028   EE           MOV     A,R6
   \   000029   FA           MOV     R2,A
   \   00002A   EF           MOV     A,R7
   \   00002B   FB           MOV     R3,A
   \   00002C   12....       LCALL   ??osalDeleteTimer?relay
    325            }
    326          
    327            HAL_EXIT_CRITICAL_SECTION( intState );   // Re-enable interrupts.
   \                     ??osal_stop_timerEx_0:
   \   00002F   E5..         MOV     A,?V0 + 3
   \   000031   A2E0         MOV     C,0xE0 /* A   */.0
   \   000033   92AF         MOV     0xa8.7,C
    328          
    329            return ( (foundTimer != NULL) ? SUCCESS : INVALID_EVENT_ID );
   \   000035   EE           MOV     A,R6
   \   000036   4F           ORL     A,R7
   \   000037   6004         JZ      ??osal_stop_timerEx_1
   \   000039   7900         MOV     R1,#0x0
   \   00003B   8002         SJMP    ??osal_stop_timerEx_2
   \                     ??osal_stop_timerEx_1:
   \   00003D   7906         MOV     R1,#0x6
   \                     ??osal_stop_timerEx_2:
   \   00003F   7F06         MOV     R7,#0x6
   \   000041   02....       LJMP    ?BANKED_LEAVE_XDATA
   \   000044                REQUIRE _A_IEN0
    330          }
    331          
    332          /*********************************************************************
    333           * @fn      osal_get_timeoutEx
    334           *
    335           * @brief
    336           *
    337           * @param   uint8 task_id - task id of timer to check
    338           * @param   uint16 event_id - identifier of timer to be checked
    339           *
    340           * @return  Return the timer's tick count if found, zero otherwise.
    341           */

   \                                 In  segment BANKED_CODE, align 1, keep-with-next
    342          uint16 osal_get_timeoutEx( uint8 task_id, uint16 event_id )
   \                     osal_get_timeoutEx:
    343          {
   \   000000   74F0         MOV     A,#-0x10
   \   000002   12....       LCALL   ?BANKED_ENTER_XDATA
   \   000005                ; Saved register size: 16
   \   000005                ; Auto size: 0
   \   000005   89..         MOV     ?V0 + 4,R1
   \   000007   EA           MOV     A,R2
   \   000008   FE           MOV     R6,A
   \   000009   EB           MOV     A,R3
   \   00000A   FF           MOV     R7,A
    344            halIntState_t intState;
    345            uint16 rtrn = 0;
   \   00000B   75..00       MOV     ?V0 + 0,#0x0
   \   00000E   75..00       MOV     ?V0 + 1,#0x0
    346            osalTimerRec_t *tmr;
    347          
    348            HAL_ENTER_CRITICAL_SECTION( intState );  // Hold off interrupts.
   \   000011   A2AF         MOV     C,0xa8.7
   \   000013   E4           CLR     A
   \   000014   33           RLC     A
   \   000015   F5..         MOV     ?V0 + 5,A
   \   000017   C2AF         CLR     0xa8.7
    349          
    350            tmr = osalFindTimer( task_id, event_id );
   \   000019                ; Setup parameters for call to function osalFindTimer
   \   000019   EE           MOV     A,R6
   \   00001A   FA           MOV     R2,A
   \   00001B   EF           MOV     A,R7
   \   00001C   FB           MOV     R3,A
   \   00001D   A9..         MOV     R1,?V0 + 4
   \   00001F   12....       LCALL   ??osalFindTimer?relay
   \   000022   8A..         MOV     ?V0 + 6,R2
   \   000024   8B..         MOV     ?V0 + 7,R3
   \   000026   85....       MOV     ?V0 + 2,?V0 + 6
   \   000029   85....       MOV     ?V0 + 3,?V0 + 7
    351          
    352            if ( tmr )
   \   00002C   E5..         MOV     A,?V0 + 2
   \   00002E   45..         ORL     A,?V0 + 3
   \   000030   600F         JZ      ??osal_get_timeoutEx_0
    353            {
    354              rtrn = tmr->timeout;
   \   000032   85..82       MOV     DPL,?V0 + 2
   \   000035   85..83       MOV     DPH,?V0 + 3
   \   000038   A3           INC     DPTR
   \   000039   A3           INC     DPTR
   \   00003A   E0           MOVX    A,@DPTR
   \   00003B   F5..         MOV     ?V0 + 0,A
   \   00003D   A3           INC     DPTR
   \   00003E   E0           MOVX    A,@DPTR
   \   00003F   F5..         MOV     ?V0 + 1,A
    355            }
    356          
    357            HAL_EXIT_CRITICAL_SECTION( intState );   // Re-enable interrupts.
   \                     ??osal_get_timeoutEx_0:
   \   000041   E5..         MOV     A,?V0 + 5
   \   000043   A2E0         MOV     C,0xE0 /* A   */.0
   \   000045   92AF         MOV     0xa8.7,C
    358          
    359            return rtrn;
   \   000047   AA..         MOV     R2,?V0 + 0
   \   000049   AB..         MOV     R3,?V0 + 1
   \   00004B   7F08         MOV     R7,#0x8
   \   00004D   02....       LJMP    ?BANKED_LEAVE_XDATA
   \   000050                REQUIRE _A_IEN0
    360          }
    361          
    362          /*********************************************************************
    363           * @fn      osal_timer_num_active
    364           *
    365           * @brief
    366           *
    367           *   This function counts the number of active timers.
    368           *
    369           * @return  uint8 - number of timers
    370           */

   \                                 In  segment BANKED_CODE, align 1, keep-with-next
    371          uint8 osal_timer_num_active( void )
   \                     osal_timer_num_active:
    372          {
   \   000000   C082         PUSH    DPL
   \   000002   C083         PUSH    DPH
   \   000004                ; Saved register size: 2
   \   000004                ; Auto size: 0
    373            halIntState_t intState;
    374            uint8 num_timers = 0;
   \   000004   7900         MOV     R1,#0x0
    375            osalTimerRec_t *srchTimer;
    376          
    377            HAL_ENTER_CRITICAL_SECTION( intState );  // Hold off interrupts.
   \   000006   A2AF         MOV     C,0xa8.7
   \   000008   E4           CLR     A
   \   000009   33           RLC     A
   \   00000A   F8           MOV     R0,A
   \   00000B   C2AF         CLR     0xa8.7
    378          
    379            // Head of the timer list
    380            srchTimer = timerHead;
   \   00000D   90....       MOV     DPTR,#timerHead
   \   000010   E0           MOVX    A,@DPTR
   \   000011   FC           MOV     R4,A
   \   000012   A3           INC     DPTR
   \   000013   E0           MOVX    A,@DPTR
   \   000014   FD           MOV     R5,A
   \   000015   EC           MOV     A,R4
   \   000016   FA           MOV     R2,A
   \   000017   ED           MOV     A,R5
   \   000018   FB           MOV     R3,A
    381          
    382            // Count timers in the list
    383            while ( srchTimer != NULL )
   \                     ??osal_timer_num_active_0:
   \   000019   EA           MOV     A,R2
   \   00001A   4B           ORL     A,R3
   \   00001B   600C         JZ      ??osal_timer_num_active_1
    384            {
    385              num_timers++;
   \   00001D   09           INC     R1
    386              srchTimer = srchTimer->next;
   \   00001E   8A82         MOV     DPL,R2
   \   000020   8B83         MOV     DPH,R3
   \   000022   E0           MOVX    A,@DPTR
   \   000023   FA           MOV     R2,A
   \   000024   A3           INC     DPTR
   \   000025   E0           MOVX    A,@DPTR
   \   000026   FB           MOV     R3,A
   \   000027   80F0         SJMP    ??osal_timer_num_active_0
    387            }
    388          
    389            HAL_EXIT_CRITICAL_SECTION( intState );   // Re-enable interrupts.
   \                     ??osal_timer_num_active_1:
   \   000029   E8           MOV     A,R0
   \   00002A   A2E0         MOV     C,0xE0 /* A   */.0
   \   00002C   92AF         MOV     0xa8.7,C
    390          
    391            return num_timers;
   \   00002E   D083         POP     DPH
   \   000030   D082         POP     DPL
   \   000032   02....       LJMP    ?BRET
   \   000035                REQUIRE _A_IEN0
    392          }
    393          
    394          /*********************************************************************
    395           * @fn      osalTimerUpdate
    396           *
    397           * @brief   Update the timer structures for a timer tick.
    398           *
    399           * @param   none
    400           *
    401           * @return  none
    402           *********************************************************************/

   \                                 In  segment BANKED_CODE, align 1, keep-with-next
    403          void osalTimerUpdate( uint16 updateTime )
   \                     osalTimerUpdate:
    404          {
   \   000000   74EC         MOV     A,#-0x14
   \   000002   12....       LCALL   ?BANKED_ENTER_XDATA
   \   000005                ; Saved register size: 20
   \   000005                ; Auto size: 0
   \   000005   8A..         MOV     ?V0 + 4,R2
   \   000007   8B..         MOV     ?V0 + 5,R3
    405            halIntState_t intState;
    406            osalTimerRec_t *srchTimer;
    407            osalTimerRec_t *prevTimer;
    408          
    409            HAL_ENTER_CRITICAL_SECTION( intState );  // Hold off interrupts.
   \   000009   A2AF         MOV     C,0xa8.7
   \   00000B   E4           CLR     A
   \   00000C   33           RLC     A
   \   00000D   F5..         MOV     ?V0 + 6,A
   \   00000F   C2AF         CLR     0xa8.7
    410            // Update the system time
    411            osal_systemClock += updateTime;
   \   000011   85....       MOV     ?V0 + 8,?V0 + 4
   \   000014   85....       MOV     ?V0 + 9,?V0 + 5
   \   000017   E4           CLR     A
   \   000018   F5..         MOV     ?V0 + 10,A
   \   00001A   F5..         MOV     ?V0 + 11,A
   \   00001C   90....       MOV     DPTR,#osal_systemClock
   \   00001F   78..         MOV     R0,#?V0 + 8
   \   000021   12....       LCALL   ?L_ADD_TO_X
    412            HAL_EXIT_CRITICAL_SECTION( intState );   // Re-enable interrupts.
   \   000024   E5..         MOV     A,?V0 + 6
   \   000026   A2E0         MOV     C,0xE0 /* A   */.0
   \   000028   92AF         MOV     0xa8.7,C
    413          
    414            // Look for open timer slot
    415            if ( timerHead != NULL )
   \   00002A   90....       MOV     DPTR,#timerHead
   \   00002D   E0           MOVX    A,@DPTR
   \   00002E   F8           MOV     R0,A
   \   00002F   A3           INC     DPTR
   \   000030   E0           MOVX    A,@DPTR
   \   000031   F9           MOV     R1,A
   \   000032   E8           MOV     A,R0
   \   000033   49           ORL     A,R1
   \   000034   7003         JNZ     $+5
   \   000036   02....       LJMP    ??osalTimerUpdate_0 & 0xFFFF
    416            {
    417              // Add it to the end of the timer list
    418              srchTimer = timerHead;
   \   000039   90....       MOV     DPTR,#timerHead
   \   00003C   E0           MOVX    A,@DPTR
   \   00003D   F8           MOV     R0,A
   \   00003E   A3           INC     DPTR
   \   00003F   E0           MOVX    A,@DPTR
   \   000040   F9           MOV     R1,A
   \   000041   88..         MOV     ?V0 + 0,R0
   \   000043   89..         MOV     ?V0 + 1,R1
    419              prevTimer = (void *)NULL;
   \   000045   75..00       MOV     ?V0 + 2,#0x0
   \   000048   75..00       MOV     ?V0 + 3,#0x0
    420          
    421              // Look for open timer slot
    422              while ( srchTimer )
   \                     ??osalTimerUpdate_1:
   \   00004B   E5..         MOV     A,?V0 + 0
   \   00004D   45..         ORL     A,?V0 + 1
   \   00004F   7003         JNZ     $+5
   \   000051   02....       LJMP    ??osalTimerUpdate_0 & 0xFFFF
    423              {
    424                osalTimerRec_t *freeTimer = NULL;
   \   000054   7E00         MOV     R6,#0x0
   \   000056   7F00         MOV     R7,#0x0
    425               
    426                HAL_ENTER_CRITICAL_SECTION( intState );  // Hold off interrupts.
   \   000058   A2AF         MOV     C,0xa8.7
   \   00005A   E4           CLR     A
   \   00005B   33           RLC     A
   \   00005C   F5..         MOV     ?V0 + 6,A
   \   00005E   C2AF         CLR     0xa8.7
    427                
    428                if (srchTimer->timeout <= updateTime)
   \   000060   85..82       MOV     DPL,?V0 + 0
   \   000063   85..83       MOV     DPH,?V0 + 1
   \   000066   A3           INC     DPTR
   \   000067   A3           INC     DPTR
   \   000068   E0           MOVX    A,@DPTR
   \   000069   F8           MOV     R0,A
   \   00006A   A3           INC     DPTR
   \   00006B   E0           MOVX    A,@DPTR
   \   00006C   F9           MOV     R1,A
   \   00006D   C3           CLR     C
   \   00006E   E5..         MOV     A,?V0 + 4
   \   000070   98           SUBB    A,R0
   \   000071   E5..         MOV     A,?V0 + 5
   \   000073   99           SUBB    A,R1
   \   000074   4011         JC      ??osalTimerUpdate_2
    429                {
    430                  srchTimer->timeout = 0;
   \   000076   85..82       MOV     DPL,?V0 + 0
   \   000079   85..83       MOV     DPH,?V0 + 1
   \   00007C   A3           INC     DPTR
   \   00007D   A3           INC     DPTR
   \   00007E   7400         MOV     A,#0x0
   \   000080   F0           MOVX    @DPTR,A
   \   000081   A3           INC     DPTR
   \   000082   7400         MOV     A,#0x0
   \   000084   F0           MOVX    @DPTR,A
   \   000085   8012         SJMP    ??osalTimerUpdate_3
    431                }
    432                else
    433                {
    434                  srchTimer->timeout = srchTimer->timeout - updateTime;
   \                     ??osalTimerUpdate_2:
   \   000087   85..82       MOV     DPL,?V0 + 0
   \   00008A   85..83       MOV     DPH,?V0 + 1
   \   00008D   A3           INC     DPTR
   \   00008E   A3           INC     DPTR
   \   00008F   C3           CLR     C
   \   000090   E0           MOVX    A,@DPTR
   \   000091   95..         SUBB    A,?V0 + 4
   \   000093   F0           MOVX    @DPTR,A
   \   000094   A3           INC     DPTR
   \   000095   E0           MOVX    A,@DPTR
   \   000096   95..         SUBB    A,?V0 + 5
   \   000098   F0           MOVX    @DPTR,A
    435                }
    436                
    437                // Check for reloading
    438                if ( (srchTimer->timeout == 0) && (srchTimer->reloadTimeout) && (srchTimer->event_flag) )
   \                     ??osalTimerUpdate_3:
   \   000099   85..82       MOV     DPL,?V0 + 0
   \   00009C   85..83       MOV     DPH,?V0 + 1
   \   00009F   A3           INC     DPTR
   \   0000A0   A3           INC     DPTR
   \   0000A1   E0           MOVX    A,@DPTR
   \   0000A2   F8           MOV     R0,A
   \   0000A3   A3           INC     DPTR
   \   0000A4   E0           MOVX    A,@DPTR
   \   0000A5   F9           MOV     R1,A
   \   0000A6   E8           MOV     A,R0
   \   0000A7   49           ORL     A,R1
   \   0000A8   7069         JNZ     ??osalTimerUpdate_4
   \   0000AA   85..82       MOV     DPL,?V0 + 0
   \   0000AD   85..83       MOV     DPH,?V0 + 1
   \   0000B0   A3           INC     DPTR
   \   0000B1   A3           INC     DPTR
   \   0000B2   A3           INC     DPTR
   \   0000B3   A3           INC     DPTR
   \   0000B4   A3           INC     DPTR
   \   0000B5   A3           INC     DPTR
   \   0000B6   A3           INC     DPTR
   \   0000B7   E0           MOVX    A,@DPTR
   \   0000B8   F8           MOV     R0,A
   \   0000B9   A3           INC     DPTR
   \   0000BA   E0           MOVX    A,@DPTR
   \   0000BB   F9           MOV     R1,A
   \   0000BC   E8           MOV     A,R0
   \   0000BD   49           ORL     A,R1
   \   0000BE   6053         JZ      ??osalTimerUpdate_4
   \   0000C0   85..82       MOV     DPL,?V0 + 0
   \   0000C3   85..83       MOV     DPH,?V0 + 1
   \   0000C6   A3           INC     DPTR
   \   0000C7   A3           INC     DPTR
   \   0000C8   A3           INC     DPTR
   \   0000C9   A3           INC     DPTR
   \   0000CA   E0           MOVX    A,@DPTR
   \   0000CB   F8           MOV     R0,A
   \   0000CC   A3           INC     DPTR
   \   0000CD   E0           MOVX    A,@DPTR
   \   0000CE   F9           MOV     R1,A
   \   0000CF   E8           MOV     A,R0
   \   0000D0   49           ORL     A,R1
   \   0000D1   6040         JZ      ??osalTimerUpdate_4
    439                {
    440                  // Notify the task of a timeout
    441                  osal_set_event( srchTimer->task_id, srchTimer->event_flag );
   \   0000D3                ; Setup parameters for call to function osal_set_event
   \   0000D3   85..82       MOV     DPL,?V0 + 0
   \   0000D6   85..83       MOV     DPH,?V0 + 1
   \   0000D9   A3           INC     DPTR
   \   0000DA   A3           INC     DPTR
   \   0000DB   A3           INC     DPTR
   \   0000DC   A3           INC     DPTR
   \   0000DD   E0           MOVX    A,@DPTR
   \   0000DE   FA           MOV     R2,A
   \   0000DF   A3           INC     DPTR
   \   0000E0   E0           MOVX    A,@DPTR
   \   0000E1   FB           MOV     R3,A
   \   0000E2   85..82       MOV     DPL,?V0 + 0
   \   0000E5   85..83       MOV     DPH,?V0 + 1
   \   0000E8   A3           INC     DPTR
   \   0000E9   A3           INC     DPTR
   \   0000EA   A3           INC     DPTR
   \   0000EB   A3           INC     DPTR
   \   0000EC   A3           INC     DPTR
   \   0000ED   A3           INC     DPTR
   \   0000EE   E0           MOVX    A,@DPTR
   \   0000EF   F9           MOV     R1,A
   \   0000F0   12....       LCALL   ??osal_set_event?relay
   \   0000F3   E9           MOV     A,R1
    442                  
    443                  // Reload the timer timeout value
    444                  srchTimer->timeout = srchTimer->reloadTimeout;
   \   0000F4   85..82       MOV     DPL,?V0 + 0
   \   0000F7   85..83       MOV     DPH,?V0 + 1
   \   0000FA   A3           INC     DPTR
   \   0000FB   A3           INC     DPTR
   \   0000FC   A3           INC     DPTR
   \   0000FD   A3           INC     DPTR
   \   0000FE   A3           INC     DPTR
   \   0000FF   A3           INC     DPTR
   \   000100   A3           INC     DPTR
   \   000101   E0           MOVX    A,@DPTR
   \   000102   F8           MOV     R0,A
   \   000103   A3           INC     DPTR
   \   000104   E0           MOVX    A,@DPTR
   \   000105   F9           MOV     R1,A
   \   000106   85..82       MOV     DPL,?V0 + 0
   \   000109   85..83       MOV     DPH,?V0 + 1
   \   00010C   A3           INC     DPTR
   \   00010D   A3           INC     DPTR
   \   00010E   E8           MOV     A,R0
   \   00010F   F0           MOVX    @DPTR,A
   \   000110   A3           INC     DPTR
   \   000111   E9           MOV     A,R1
   \   000112   F0           MOVX    @DPTR,A
    445                }
    446                
    447                // When timeout or delete (event_flag == 0)
    448                if ( srchTimer->timeout == 0 || srchTimer->event_flag == 0 )
   \                     ??osalTimerUpdate_4:
   \   000113   85..82       MOV     DPL,?V0 + 0
   \   000116   85..83       MOV     DPH,?V0 + 1
   \   000119   A3           INC     DPTR
   \   00011A   A3           INC     DPTR
   \   00011B   E0           MOVX    A,@DPTR
   \   00011C   F8           MOV     R0,A
   \   00011D   A3           INC     DPTR
   \   00011E   E0           MOVX    A,@DPTR
   \   00011F   F9           MOV     R1,A
   \   000120   E8           MOV     A,R0
   \   000121   49           ORL     A,R1
   \   000122   6013         JZ      ??osalTimerUpdate_5
   \   000124   85..82       MOV     DPL,?V0 + 0
   \   000127   85..83       MOV     DPH,?V0 + 1
   \   00012A   A3           INC     DPTR
   \   00012B   A3           INC     DPTR
   \   00012C   A3           INC     DPTR
   \   00012D   A3           INC     DPTR
   \   00012E   E0           MOVX    A,@DPTR
   \   00012F   F8           MOV     R0,A
   \   000130   A3           INC     DPTR
   \   000131   E0           MOVX    A,@DPTR
   \   000132   F9           MOV     R1,A
   \   000133   E8           MOV     A,R0
   \   000134   49           ORL     A,R1
   \   000135   7044         JNZ     ??osalTimerUpdate_6
    449                {
    450                  // Take out of list
    451                  if ( prevTimer == NULL )
   \                     ??osalTimerUpdate_5:
   \   000137   E5..         MOV     A,?V0 + 2
   \   000139   45..         ORL     A,?V0 + 3
   \   00013B   7015         JNZ     ??osalTimerUpdate_7
    452                    timerHead = srchTimer->next;
   \   00013D   85..82       MOV     DPL,?V0 + 0
   \   000140   85..83       MOV     DPH,?V0 + 1
   \   000143   E0           MOVX    A,@DPTR
   \   000144   F8           MOV     R0,A
   \   000145   A3           INC     DPTR
   \   000146   E0           MOVX    A,@DPTR
   \   000147   F9           MOV     R1,A
   \   000148   90....       MOV     DPTR,#timerHead
   \   00014B   E8           MOV     A,R0
   \   00014C   F0           MOVX    @DPTR,A
   \   00014D   A3           INC     DPTR
   \   00014E   E9           MOV     A,R1
   \   00014F   F0           MOVX    @DPTR,A
   \   000150   8016         SJMP    ??osalTimerUpdate_8
    453                  else
    454                    prevTimer->next = srchTimer->next;
   \                     ??osalTimerUpdate_7:
   \   000152   85..82       MOV     DPL,?V0 + 0
   \   000155   85..83       MOV     DPH,?V0 + 1
   \   000158   E0           MOVX    A,@DPTR
   \   000159   F8           MOV     R0,A
   \   00015A   A3           INC     DPTR
   \   00015B   E0           MOVX    A,@DPTR
   \   00015C   F9           MOV     R1,A
   \   00015D   85..82       MOV     DPL,?V0 + 2
   \   000160   85..83       MOV     DPH,?V0 + 3
   \   000163   E8           MOV     A,R0
   \   000164   F0           MOVX    @DPTR,A
   \   000165   A3           INC     DPTR
   \   000166   E9           MOV     A,R1
   \   000167   F0           MOVX    @DPTR,A
    455          
    456                  // Setup to free memory
    457                  freeTimer = srchTimer;
   \                     ??osalTimerUpdate_8:
   \   000168   AE..         MOV     R6,?V0 + 0
   \   00016A   AF..         MOV     R7,?V0 + 1
    458          
    459                  // Next
    460                  srchTimer = srchTimer->next;
   \   00016C   85..82       MOV     DPL,?V0 + 0
   \   00016F   85..83       MOV     DPH,?V0 + 1
   \   000172   E0           MOVX    A,@DPTR
   \   000173   F5..         MOV     ?V0 + 0,A
   \   000175   A3           INC     DPTR
   \   000176   E0           MOVX    A,@DPTR
   \   000177   F5..         MOV     ?V0 + 1,A
   \   000179   8015         SJMP    ??osalTimerUpdate_9
    461                }
    462                else
    463                {
    464                  // Get next
    465                  prevTimer = srchTimer;
   \                     ??osalTimerUpdate_6:
   \   00017B   A8..         MOV     R0,?V0 + 0
   \   00017D   A9..         MOV     R1,?V0 + 1
   \   00017F   88..         MOV     ?V0 + 2,R0
   \   000181   89..         MOV     ?V0 + 3,R1
    466                  srchTimer = srchTimer->next;
   \   000183   85..82       MOV     DPL,?V0 + 0
   \   000186   85..83       MOV     DPH,?V0 + 1
   \   000189   E0           MOVX    A,@DPTR
   \   00018A   F5..         MOV     ?V0 + 0,A
   \   00018C   A3           INC     DPTR
   \   00018D   E0           MOVX    A,@DPTR
   \   00018E   F5..         MOV     ?V0 + 1,A
    467                }
    468                
    469                HAL_EXIT_CRITICAL_SECTION( intState );   // Re-enable interrupts.
   \                     ??osalTimerUpdate_9:
   \   000190   E5..         MOV     A,?V0 + 6
   \   000192   A2E0         MOV     C,0xE0 /* A   */.0
   \   000194   92AF         MOV     0xa8.7,C
    470                
    471                if ( freeTimer )
   \   000196   EE           MOV     A,R6
   \   000197   4F           ORL     A,R7
   \   000198   7003         JNZ     $+5
   \   00019A   02....       LJMP    ??osalTimerUpdate_1 & 0xFFFF
    472                {
    473                  if ( freeTimer->timeout == 0 )
   \   00019D   8E82         MOV     DPL,R6
   \   00019F   8F83         MOV     DPH,R7
   \   0001A1   A3           INC     DPTR
   \   0001A2   A3           INC     DPTR
   \   0001A3   E0           MOVX    A,@DPTR
   \   0001A4   F8           MOV     R0,A
   \   0001A5   A3           INC     DPTR
   \   0001A6   E0           MOVX    A,@DPTR
   \   0001A7   F9           MOV     R1,A
   \   0001A8   E8           MOV     A,R0
   \   0001A9   49           ORL     A,R1
   \   0001AA   701D         JNZ     ??osalTimerUpdate_10
    474                  {
    475                    osal_set_event( freeTimer->task_id, freeTimer->event_flag );
   \   0001AC                ; Setup parameters for call to function osal_set_event
   \   0001AC   8E82         MOV     DPL,R6
   \   0001AE   8F83         MOV     DPH,R7
   \   0001B0   A3           INC     DPTR
   \   0001B1   A3           INC     DPTR
   \   0001B2   A3           INC     DPTR
   \   0001B3   A3           INC     DPTR
   \   0001B4   E0           MOVX    A,@DPTR
   \   0001B5   FA           MOV     R2,A
   \   0001B6   A3           INC     DPTR
   \   0001B7   E0           MOVX    A,@DPTR
   \   0001B8   FB           MOV     R3,A
   \   0001B9   8E82         MOV     DPL,R6
   \   0001BB   8F83         MOV     DPH,R7
   \   0001BD   A3           INC     DPTR
   \   0001BE   A3           INC     DPTR
   \   0001BF   A3           INC     DPTR
   \   0001C0   A3           INC     DPTR
   \   0001C1   A3           INC     DPTR
   \   0001C2   A3           INC     DPTR
   \   0001C3   E0           MOVX    A,@DPTR
   \   0001C4   F9           MOV     R1,A
   \   0001C5   12....       LCALL   ??osal_set_event?relay
   \   0001C8   E9           MOV     A,R1
    476                  }
    477                  osal_mem_free( freeTimer );
   \                     ??osalTimerUpdate_10:
   \   0001C9                ; Setup parameters for call to function osal_mem_free
   \   0001C9   EE           MOV     A,R6
   \   0001CA   FA           MOV     R2,A
   \   0001CB   EF           MOV     A,R7
   \   0001CC   FB           MOV     R3,A
   \   0001CD   12....       LCALL   ??osal_mem_free?relay
   \   0001D0   02....       LJMP    ??osalTimerUpdate_1 & 0xFFFF
    478                }
    479              }
    480            }
    481          }
   \                     ??osalTimerUpdate_0:
   \   0001D3   7F0C         MOV     R7,#0xc
   \   0001D5   02....       LJMP    ?BANKED_LEAVE_XDATA
   \   0001D8                REQUIRE _A_IEN0
    482          
    483          #ifdef POWER_SAVING
    484          /*********************************************************************
    485           * @fn      osal_adjust_timers
    486           *
    487           * @brief   Update the timer structures for elapsed ticks.
    488           *
    489           * @param   none
    490           *
    491           * @return  none
    492           *********************************************************************/
    493          void osal_adjust_timers( void )
    494          {
    495            uint16 eTime;
    496          
    497            if ( timerHead != NULL )
    498            {
    499              // Compute elapsed time (msec)
    500              eTime = TimerElapsed() /  TICK_COUNT;
    501          
    502              if ( eTime )
    503                osalTimerUpdate( eTime );
    504            }
    505          }
    506          
    507          /*********************************************************************
    508           * @fn      osal_next_timeout
    509           *
    510           * @brief
    511           *
    512           *   Search timer table to return the lowest timeout value. If the
    513           *   timer list is empty, then the returned timeout will be zero.
    514           *
    515           * @param   none
    516           *
    517           * @return  none
    518           *********************************************************************/
    519          uint16 osal_next_timeout( void )
    520          {
    521            uint16 nextTimeout;
    522            osalTimerRec_t *srchTimer;
    523          
    524            if ( timerHead != NULL )
    525            {
    526              // Head of the timer list
    527              srchTimer = timerHead;
    528              nextTimeout = OSAL_TIMERS_MAX_TIMEOUT;
    529          
    530              // Look for the next timeout timer
    531              while ( srchTimer != NULL )
    532              {
    533                if (srchTimer->timeout < nextTimeout)
    534                {
    535                  nextTimeout = srchTimer->timeout;
    536                }
    537                // Check next timer
    538                srchTimer = srchTimer->next;
    539              }
    540            }
    541            else
    542            {
    543              // No timers
    544              nextTimeout = 0;
    545            }
    546          
    547            return ( nextTimeout );
    548          }
    549          #endif // POWER_SAVING
    550          
    551          /*********************************************************************
    552           * @fn      osal_GetSystemClock()
    553           *
    554           * @brief   Read the local system clock.
    555           *
    556           * @param   none
    557           *
    558           * @return  local clock in milliseconds
    559           */

   \                                 In  segment BANKED_CODE, align 1, keep-with-next
    560          uint32 osal_GetSystemClock( void )
   \                     osal_GetSystemClock:
    561          {
   \   000000   C082         PUSH    DPL
   \   000002   C083         PUSH    DPH
   \   000004                ; Saved register size: 2
   \   000004                ; Auto size: 0
    562            return ( osal_systemClock );
   \   000004   90....       MOV     DPTR,#osal_systemClock
   \   000007   12....       LCALL   ?XLOAD_R2345
   \   00000A   D083         POP     DPH
   \   00000C   D082         POP     DPL
   \   00000E   02....       LJMP    ?BRET
    563          }

   \                                 In  segment XDATA_ROM_C, align 1
   \                     __Constant_0:
   \   000000   00000000     DD 0

   \                                 In  segment BANK_RELAYS, align 1
   \                     ??osalTimerInit?relay:
   \   000000   12....       LCALL   ?BDISPATCH
   \   000003   ......       DC24    osalTimerInit

   \                                 In  segment BANK_RELAYS, align 1
   \                     ??osalAddTimer?relay:
   \   000000   12....       LCALL   ?BDISPATCH
   \   000003   ......       DC24    osalAddTimer

   \                                 In  segment BANK_RELAYS, align 1
   \                     ??osalFindTimer?relay:
   \   000000   12....       LCALL   ?BDISPATCH
   \   000003   ......       DC24    osalFindTimer

   \                                 In  segment BANK_RELAYS, align 1
   \                     ??osalDeleteTimer?relay:
   \   000000   12....       LCALL   ?BDISPATCH
   \   000003   ......       DC24    osalDeleteTimer

   \                                 In  segment BANK_RELAYS, align 1
   \                     ??osal_start_timerEx?relay:
   \   000000   12....       LCALL   ?BDISPATCH
   \   000003   ......       DC24    osal_start_timerEx

   \                                 In  segment BANK_RELAYS, align 1
   \                     ??osal_start_reload_timer?relay:
   \   000000   12....       LCALL   ?BDISPATCH
   \   000003   ......       DC24    osal_start_reload_timer

   \                                 In  segment BANK_RELAYS, align 1
   \                     ??osal_stop_timerEx?relay:
   \   000000   12....       LCALL   ?BDISPATCH
   \   000003   ......       DC24    osal_stop_timerEx

   \                                 In  segment BANK_RELAYS, align 1
   \                     ??osal_get_timeoutEx?relay:
   \   000000   12....       LCALL   ?BDISPATCH
   \   000003   ......       DC24    osal_get_timeoutEx

   \                                 In  segment BANK_RELAYS, align 1
   \                     ??osal_timer_num_active?relay:
   \   000000   12....       LCALL   ?BDISPATCH
   \   000003   ......       DC24    osal_timer_num_active

   \                                 In  segment BANK_RELAYS, align 1
   \                     ??osalTimerUpdate?relay:
   \   000000   12....       LCALL   ?BDISPATCH
   \   000003   ......       DC24    osalTimerUpdate

   \                                 In  segment BANK_RELAYS, align 1
   \                     ??osal_GetSystemClock?relay:
   \   000000   12....       LCALL   ?BDISPATCH
   \   000003   ......       DC24    osal_GetSystemClock
    564          
    565          /*********************************************************************
    566          *********************************************************************/

   Maximum stack usage in bytes:

     Function                ISTACK PSTACK XSTACK
     --------                ------ ------ ------
     osalAddTimer                1      0     34
       -> osalFindTimer          0      0     36
       -> osal_mem_alloc         0      0     36
     osalDeleteTimer             2      0     14
     osalFindTimer               0      0     27
     osalTimerInit               2      0      0
     osalTimerUpdate             0      0     20
       -> osal_set_event         0      0     40
       -> osal_set_event         0      0     40
       -> osal_mem_free          0      0     40
     osal_GetSystemClock         2      0      0
     osal_get_timeoutEx          0      0     16
       -> osalFindTimer          0      0     32
     osal_start_reload_timer     0      0     16
       -> osalAddTimer           0      0     32
     osal_start_timerEx          0      0     16
       -> osalAddTimer           0      0     32
     osal_stop_timerEx           0      0     14
       -> osalFindTimer          0      0     28
       -> osalDeleteTimer        0      0     28
     osal_timer_num_active       2      0      0


   Segment part sizes:

     Function/Label                  Bytes
     --------------                  -----
     _A_IEN0                            1
     timerHead                          2
     osal_systemClock                   4
     osalTimerInit                     23
     osalAddTimer                     240
     osalFindTimer                     72
     osalDeleteTimer                   30
     osal_start_timerEx                66
     osal_start_reload_timer           87
     osal_stop_timerEx                 68
     osal_get_timeoutEx                80
     osal_timer_num_active             53
     osalTimerUpdate                  472
     osal_GetSystemClock               17
     __Constant_0                       4
     ??osalTimerInit?relay              6
     ??osalAddTimer?relay               6
     ??osalFindTimer?relay              6
     ??osalDeleteTimer?relay            6
     ??osal_start_timerEx?relay         6
     ??osal_start_reload_timer?relay    6
     ??osal_stop_timerEx?relay          6
     ??osal_get_timeoutEx?relay         6
     ??osal_timer_num_active?relay      6
     ??osalTimerUpdate?relay            6
     ??osal_GetSystemClock?relay        6

 
 1 208 bytes in segment BANKED_CODE
    66 bytes in segment BANK_RELAYS
     1 byte  in segment SFR_AN
     4 bytes in segment XDATA_ROM_C
     6 bytes in segment XDATA_Z
 
 1 274 bytes of CODE  memory
     0 bytes of CONST memory (+ 4 bytes shared)
     0 bytes of DATA  memory (+ 1 byte  shared)
     6 bytes of XDATA memory

Errors: none
Warnings: none
