///////////////////////////////////////////////////////////////////////////////
//                                                                            /
// IAR C/C++ Compiler V8.10.1.10194/W32 for 8051        14/Jul/2015  13:43:43 /
// Copyright 2004-2011 IAR Systems AB.                                        /
//                                                                            /
//    Core               =  plain                                             /
//    Code model         =  banked                                            /
//    Data model         =  large                                             /
//    Calling convention =  xdata reentrant                                   /
//    Constant location  =  data_rom                                          /
//    Dptr setup         =  1,16                                              /
//    Source file        =  C:\Texas Instruments\ZStack-CC2530-2.5.1a\Compone /
//                          nts\osal\mcu\cc2530\OSAL_Nv.c                     /
//    Command line       =  -f "C:\Texas Instruments\ZStack-CC2530-2.5.1a\Pro /
//                          jects\zstack\Samples\WirelessMonitorSystem\CC2530 /
//                          DB\..\..\..\Tools\CC2530DB\f8wEndev.cfg"          /
//                          (-DCPU32MHZ -DROOT=__near_func                    /
//                          -DMAC_CFG_TX_DATA_MAX=3 -DMAC_CFG_TX_MAX=6        /
//                          -DMAC_CFG_RX_MAX=3) -f "C:\Texas                  /
//                          Instruments\ZStack-CC2530-2.5.1a\Projects\zstack\ /
//                          Samples\WirelessMonitorSystem\CC2530DB\..\..\..\T /
//                          ools\CC2530DB\f8wConfig.cfg" (-DZIGBEEPRO         /
//                          -DSECURE=0 -DZG_SECURE_DYNAMIC=0 -DREFLECTOR      /
//                          -DDEFAULT_CHANLIST=0x00000800                     /
//                          -DZDAPP_CONFIG_PAN_ID=0xFFFF                      /
//                          -DNWK_START_DELAY=100 -DEXTENDED_JOINING_RANDOM_M /
//                          ASK=0x007F -DBEACON_REQUEST_DELAY=100             /
//                          -DBEACON_REQ_DELAY_MASK=0x00FF                    /
//                          -DLINK_STATUS_JITTER_MASK=0x007F                  /
//                          -DROUTE_EXPIRY_TIME=30 -DAPSC_ACK_WAIT_DURATION_P /
//                          OLLED=3000 -DNWK_INDIRECT_MSG_TIMEOUT=7           /
//                          -DMAX_RREQ_ENTRIES=8 -DAPSC_MAX_FRAME_RETRIES=3   /
//                          -DNWK_MAX_DATA_RETRIES=2                          /
//                          -DMAX_POLL_FAILURE_RETRIES=2 -DMAX_BCAST=9        /
//                          -DAPS_MAX_GROUPS=16 -DMAX_RTG_ENTRIES=40          /
//                          -DNWK_MAX_BINDING_ENTRIES=4                       /
//                          -DMAX_BINDING_CLUSTER_IDS=4                       /
//                          "-DDEFAULT_KEY={0x01, 0x03, 0x05, 0x07, 0x09,     /
//                          0x0B, 0x0D, 0x0F, 0x00, 0x02, 0x04, 0x06, 0x08,   /
//                          0x0A, 0x0C, 0x0D}" -DMAC_MAX_FRAME_SIZE=116       /
//                          -DZDNWKMGR_MIN_TRANSMISSIONS=20 "-DCONST=const    /
//                          __code" -DGENERIC=__generic                       /
//                          -DRFD_RCVC_ALWAYS_ON=FALSE -DPOLL_RATE=500        /
//                          -DQUEUED_POLL_RATE=30 -DRESPONSE_POLL_RATE=100)   /
//                          -DREJOIN_POLL_RATE=440 "C:\Texas                  /
//                          Instruments\ZStack-CC2530-2.5.1a\Components\osal\ /
//                          mcu\cc2530\OSAL_Nv.c" -D HAL_UART -lC "C:\Texas   /
//                          Instruments\ZStack-CC2530-2.5.1a\Projects\zstack\ /
//                          Samples\WirelessMonitorSystem\CC2530DB\LCD\List\" /
//                           -lA "C:\Texas Instruments\ZStack-CC2530-2.5.1a\P /
//                          rojects\zstack\Samples\WirelessMonitorSystem\CC25 /
//                          30DB\LCD\List\" --diag_suppress Pe001,Pa010 -o    /
//                          "C:\Texas Instruments\ZStack-CC2530-2.5.1a\Projec /
//                          ts\zstack\Samples\WirelessMonitorSystem\CC2530DB\ /
//                          LCD\Obj\" -e --no_cse --no_unroll --no_inline     /
//                          --no_code_motion --no_tbaa --debug --core=plain   /
//                          --dptr=16,1 --data_model=large                    /
//                          --code_model=banked --calling_convention=xdata_re /
//                          entrant --place_constants=data_rom                /
//                          --nr_virtual_regs 16 -I "C:\Texas                 /
//                          Instruments\ZStack-CC2530-2.5.1a\Projects\zstack\ /
//                          Samples\WirelessMonitorSystem\CC2530DB\" -I       /
//                          "C:\Texas Instruments\ZStack-CC2530-2.5.1a\Projec /
//                          ts\zstack\Samples\WirelessMonitorSystem\CC2530DB\ /
//                          ..\Source\" -I "C:\Texas                          /
//                          Instruments\ZStack-CC2530-2.5.1a\Projects\zstack\ /
//                          Samples\WirelessMonitorSystem\CC2530DB\..\..\..\Z /
//                          Main\TI2530DB\" -I "C:\Texas                      /
//                          Instruments\ZStack-CC2530-2.5.1a\Projects\zstack\ /
//                          Samples\WirelessMonitorSystem\CC2530DB\..\..\..\. /
//                          .\..\Components\hal\include\" -I "C:\Texas        /
//                          Instruments\ZStack-CC2530-2.5.1a\Projects\zstack\ /
//                          Samples\WirelessMonitorSystem\CC2530DB\..\..\..\. /
//                          .\..\Components\hal\target\CC2530EB\" -I          /
//                          "C:\Texas Instruments\ZStack-CC2530-2.5.1a\Projec /
//                          ts\zstack\Samples\WirelessMonitorSystem\CC2530DB\ /
//                          ..\..\..\..\..\Components\mac\include\" -I        /
//                          "C:\Texas Instruments\ZStack-CC2530-2.5.1a\Projec /
//                          ts\zstack\Samples\WirelessMonitorSystem\CC2530DB\ /
//                          ..\..\..\..\..\Components\mac\high_level\" -I     /
//                          "C:\Texas Instruments\ZStack-CC2530-2.5.1a\Projec /
//                          ts\zstack\Samples\WirelessMonitorSystem\CC2530DB\ /
//                          ..\..\..\..\..\Components\mac\low_level\srf04\"   /
//                          -I "C:\Texas Instruments\ZStack-CC2530-2.5.1a\Pro /
//                          jects\zstack\Samples\WirelessMonitorSystem\CC2530 /
//                          DB\..\..\..\..\..\Components\mac\low_level\srf04\ /
//                          single_chip\" -I "C:\Texas                        /
//                          Instruments\ZStack-CC2530-2.5.1a\Projects\zstack\ /
//                          Samples\WirelessMonitorSystem\CC2530DB\..\..\..\. /
//                          .\..\Components\mt\" -I "C:\Texas                 /
//                          Instruments\ZStack-CC2530-2.5.1a\Projects\zstack\ /
//                          Samples\WirelessMonitorSystem\CC2530DB\..\..\..\. /
//                          .\..\Components\osal\include\" -I "C:\Texas       /
//                          Instruments\ZStack-CC2530-2.5.1a\Projects\zstack\ /
//                          Samples\WirelessMonitorSystem\CC2530DB\..\..\..\. /
//                          .\..\Components\services\saddr\" -I "C:\Texas     /
//                          Instruments\ZStack-CC2530-2.5.1a\Projects\zstack\ /
//                          Samples\WirelessMonitorSystem\CC2530DB\..\..\..\. /
//                          .\..\Components\services\sdata\" -I "C:\Texas     /
//                          Instruments\ZStack-CC2530-2.5.1a\Projects\zstack\ /
//                          Samples\WirelessMonitorSystem\CC2530DB\..\..\..\. /
//                          .\..\Components\stack\af\" -I "C:\Texas           /
//                          Instruments\ZStack-CC2530-2.5.1a\Projects\zstack\ /
//                          Samples\WirelessMonitorSystem\CC2530DB\..\..\..\. /
//                          .\..\Components\stack\nwk\" -I "C:\Texas          /
//                          Instruments\ZStack-CC2530-2.5.1a\Projects\zstack\ /
//                          Samples\WirelessMonitorSystem\CC2530DB\..\..\..\. /
//                          .\..\Components\stack\sapi\" -I "C:\Texas         /
//                          Instruments\ZStack-CC2530-2.5.1a\Projects\zstack\ /
//                          Samples\WirelessMonitorSystem\CC2530DB\..\..\..\. /
//                          .\..\Components\stack\sec\" -I "C:\Texas          /
//                          Instruments\ZStack-CC2530-2.5.1a\Projects\zstack\ /
//                          Samples\WirelessMonitorSystem\CC2530DB\..\..\..\. /
//                          .\..\Components\stack\sys\" -I "C:\Texas          /
//                          Instruments\ZStack-CC2530-2.5.1a\Projects\zstack\ /
//                          Samples\WirelessMonitorSystem\CC2530DB\..\..\..\. /
//                          .\..\Components\stack\zdo\" -I "C:\Texas          /
//                          Instruments\ZStack-CC2530-2.5.1a\Projects\zstack\ /
//                          Samples\WirelessMonitorSystem\CC2530DB\..\..\..\. /
//                          .\..\Components\zmac\" -I "C:\Texas               /
//                          Instruments\ZStack-CC2530-2.5.1a\Projects\zstack\ /
//                          Samples\WirelessMonitorSystem\CC2530DB\..\..\..\. /
//                          .\..\Components\zmac\f8w\" -On                    /
//                          --require_prototypes                              /
//    List file          =  C:\Texas Instruments\ZStack-CC2530-2.5.1a\Project /
//                          s\zstack\Samples\WirelessMonitorSystem\CC2530DB\L /
//                          CD\List\OSAL_Nv.s51                               /
//                                                                            /
//                                                                            /
///////////////////////////////////////////////////////////////////////////////

        NAME OSAL_Nv

        RTMODEL "__SystemLibrary", "CLib"
        RTMODEL "__calling_convention", "xdata_reentrant"
        RTMODEL "__code_model", "banked"
        RTMODEL "__core", "plain"
        RTMODEL "__data_model", "large"
        RTMODEL "__dptr_size", "16"
        RTMODEL "__extended_stack", "disabled"
        RTMODEL "__location_for_constants", "data"
        RTMODEL "__number_of_dptrs", "1"
        RTMODEL "__rt_version", "1"

        RSEG DOVERLAY:DATA:NOROOT(0)
        RSEG IOVERLAY:IDATA:NOROOT(0)
        RSEG ISTACK:IDATA:NOROOT(0)
        RSEG PSTACK:XDATA:NOROOT(0)
        RSEG XSTACK:XDATA:NOROOT(0)

        EXTERN ?ALLOC_XSTACK8
        EXTERN ?BANKED_ENTER_XDATA
        EXTERN ?BANKED_LEAVE_XDATA
        EXTERN ?BDISPATCH
        EXTERN ?BRET
        EXTERN ?DEALLOC_XSTACK8
        EXTERN ?PUSH_XSTACK8_X_TWO
        EXTERN ?PUSH_XSTACK_I_ONE
        EXTERN ?PUSH_XSTACK_I_TWO
        EXTERN ?US_DIV_MOD
        EXTERN ?US_SHR
        EXTERN ?V0
        EXTERN ?XSP
        EXTERN ?XSTACK_DISP0_8
        EXTERN __INIT_XDATA_Z

        FUNCTION ??calcChkB?relay,0203H
        FUNCTION ??calcChkF?relay,0203H
        FUNCTION ??compactPage?relay,0203H
        FUNCTION ??erasePage?relay,0203H
        FUNCTION ??findItem?relay,0203H
        FUNCTION ??hotItem?relay,0203H
        FUNCTION ??hotItemUpdate?relay,0203H
        FUNCTION ??initItem?relay,0203H
        FUNCTION ??initNV?relay,0203H
        FUNCTION ??initPage?relay,0203H
        PUBLIC ??osal_nv_delete?relay
        FUNCTION ??osal_nv_delete?relay,0203H
        PUBLIC ??osal_nv_init?relay
        FUNCTION ??osal_nv_init?relay,0203H
        PUBLIC ??osal_nv_item_init?relay
        FUNCTION ??osal_nv_item_init?relay,0203H
        PUBLIC ??osal_nv_item_len?relay
        FUNCTION ??osal_nv_item_len?relay,0203H
        PUBLIC ??osal_nv_read?relay
        FUNCTION ??osal_nv_read?relay,0203H
        PUBLIC ??osal_nv_write?relay
        FUNCTION ??osal_nv_write?relay,0203H
        FUNCTION ??setChk?relay,0203H
        FUNCTION ??setItem?relay,0203H
        FUNCTION ??setPageUse?relay,0203H
        FUNCTION ??writeBuf?relay,0203H
        FUNCTION ??writeItem?relay,0203H
        FUNCTION ??writeWord?relay,0203H
        FUNCTION ??writeWordH?relay,0203H
        FUNCTION ??writeWordM?relay,0203H
        FUNCTION ??xferBuf?relay,0203H
        PUBLIC _nvBuf
        FUNCTION calcChkB,0203H
        ARGFRAME XSTACK, 28, STACK
        ARGFRAME IOVERLAY, 0, STATIC
        ARGFRAME DOVERLAY, 0, STATIC
        LOCFRAME XSTACK, 10, STACK
        FUNCTION calcChkF,021203H
        ARGFRAME XSTACK, 42, STACK
        ARGFRAME IOVERLAY, 0, STATIC
        ARGFRAME DOVERLAY, 0, STATIC
        LOCFRAME XSTACK, 22, STACK
        FUNCTION compactPage,021203H
        ARGFRAME XSTACK, 28, STACK
        ARGFRAME IOVERLAY, 0, STATIC
        ARGFRAME DOVERLAY, 0, STATIC
        LOCFRAME XSTACK, 31, STACK
        FUNCTION erasePage,021203H
        ARGFRAME XSTACK, 42, STACK
        ARGFRAME IOVERLAY, 0, STATIC
        ARGFRAME DOVERLAY, 0, STATIC
        LOCFRAME XSTACK, 9, STACK
        FUNCTION findItem,021203H
        ARGFRAME XSTACK, 42, STACK
        ARGFRAME IOVERLAY, 0, STATIC
        ARGFRAME DOVERLAY, 0, STATIC
        LOCFRAME XSTACK, 14, STACK
        FUNCTION hotItem,0203H
        ARGFRAME XSTACK, 22, STACK
        ARGFRAME IOVERLAY, 0, STATIC
        ARGFRAME DOVERLAY, 0, STATIC
        LOCFRAME ISTACK, 2, STACK
        FUNCTION hotItemUpdate,021203H
        ARGFRAME XSTACK, 42, STACK
        ARGFRAME IOVERLAY, 0, STATIC
        ARGFRAME DOVERLAY, 0, STATIC
        LOCFRAME ISTACK, 1, STACK
        LOCFRAME XSTACK, 13, STACK
        FUNCTION initItem,021203H
        ARGFRAME XSTACK, 44, STACK
        ARGFRAME IOVERLAY, 0, STATIC
        ARGFRAME DOVERLAY, 0, STATIC
        LOCFRAME ISTACK, 1, STACK
        LOCFRAME XSTACK, 31, STACK
        FUNCTION initNV,021203H
        ARGFRAME XSTACK, 9, STACK
        ARGFRAME IOVERLAY, 0, STATIC
        ARGFRAME DOVERLAY, 0, STATIC
        LOCFRAME ISTACK, 2, STACK
        LOCFRAME XSTACK, 22, STACK
        FUNCTION initPage,021203H
        ARGFRAME XSTACK, 20, STACK
        ARGFRAME IOVERLAY, 0, STATIC
        ARGFRAME DOVERLAY, 0, STATIC
        LOCFRAME XSTACK, 30, STACK
        PUBLIC osal_nv_delete
        FUNCTION osal_nv_delete,021203H
        ARGFRAME XSTACK, 0, STACK
        LOCFRAME XSTACK, 16, STACK
        PUBLIC osal_nv_init
        FUNCTION osal_nv_init,021203H
        ARGFRAME XSTACK, 0, STACK
        LOCFRAME XSTACK, 9, STACK
        PUBLIC osal_nv_item_init
        FUNCTION osal_nv_item_init,021203H
        ARGFRAME XSTACK, 2, STACK
        LOCFRAME XSTACK, 18, STACK
        PUBLIC osal_nv_item_len
        FUNCTION osal_nv_item_len,021203H
        ARGFRAME XSTACK, 16, STACK
        ARGFRAME IOVERLAY, 0, STATIC
        ARGFRAME DOVERLAY, 0, STATIC
        LOCFRAME XSTACK, 24, STACK
        PUBLIC osal_nv_read
        FUNCTION osal_nv_read,021203H
        ARGFRAME XSTACK, 4, STACK
        LOCFRAME XSTACK, 22, STACK
        PUBLIC osal_nv_write
        FUNCTION osal_nv_write,021203H
        ARGFRAME XSTACK, 4, STACK
        LOCFRAME XSTACK, 46, STACK
        FUNCTION setChk,021203H
        ARGFRAME XSTACK, 42, STACK
        ARGFRAME IOVERLAY, 0, STATIC
        ARGFRAME DOVERLAY, 0, STATIC
        LOCFRAME XSTACK, 16, STACK
        FUNCTION setItem,021203H
        ARGFRAME XSTACK, 42, STACK
        ARGFRAME IOVERLAY, 0, STATIC
        ARGFRAME DOVERLAY, 0, STATIC
        LOCFRAME XSTACK, 22, STACK
        FUNCTION setPageUse,021203H
        ARGFRAME XSTACK, 42, STACK
        ARGFRAME IOVERLAY, 0, STATIC
        ARGFRAME DOVERLAY, 0, STATIC
        LOCFRAME XSTACK, 17, STACK
        FUNCTION writeBuf,021203H
        ARGFRAME XSTACK, 44, STACK
        ARGFRAME IOVERLAY, 0, STATIC
        ARGFRAME DOVERLAY, 0, STATIC
        LOCFRAME ISTACK, 1, STACK
        LOCFRAME XSTACK, 24, STACK
        FUNCTION writeItem,021203H
        ARGFRAME XSTACK, 31, STACK
        ARGFRAME IOVERLAY, 0, STATIC
        ARGFRAME DOVERLAY, 0, STATIC
        LOCFRAME XSTACK, 30, STACK
        FUNCTION writeWord,021203H
        ARGFRAME XSTACK, 28, STACK
        ARGFRAME IOVERLAY, 0, STATIC
        ARGFRAME DOVERLAY, 0, STATIC
        LOCFRAME XSTACK, 16, STACK
        FUNCTION writeWordH,021203H
        ARGFRAME XSTACK, 28, STACK
        ARGFRAME IOVERLAY, 0, STATIC
        ARGFRAME DOVERLAY, 0, STATIC
        LOCFRAME ISTACK, 1, STACK
        LOCFRAME XSTACK, 15, STACK
        FUNCTION writeWordM,021203H
        ARGFRAME XSTACK, 24, STACK
        ARGFRAME IOVERLAY, 0, STATIC
        ARGFRAME DOVERLAY, 0, STATIC
        LOCFRAME XSTACK, 15, STACK
        FUNCTION xferBuf,021203H
        ARGFRAME XSTACK, 46, STACK
        ARGFRAME IOVERLAY, 0, STATIC
        ARGFRAME DOVERLAY, 0, STATIC
        LOCFRAME XSTACK, 25, STACK
        
        CFI Names cfiNames0
        CFI StackFrame CFA_SP SP IDATA
        CFI StackFrame CFA_PSP16 PSP16 XDATA
        CFI StackFrame CFA_XSP16 XSP16 XDATA
        CFI StaticOverlayFrame CFA_IOVERLAY IOVERLAY
        CFI StaticOverlayFrame CFA_DOVERLAY DOVERLAY
        CFI Resource `PSW.CY`:1, `B.BR0`:1, `B.BR1`:1, `B.BR2`:1, `B.BR3`:1
        CFI Resource `B.BR4`:1, `B.BR5`:1, `B.BR6`:1, `B.BR7`:1, `VB.BR8`:1
        CFI Resource `VB.BR9`:1, `VB.BR10`:1, `VB.BR11`:1, `VB.BR12`:1
        CFI Resource `VB.BR13`:1, `VB.BR14`:1, `VB.BR15`:1, VB:8, B:8, A:8
        CFI Resource PSW:8, DPL0:8, DPH0:8, R0:8, R1:8, R2:8, R3:8, R4:8, R5:8
        CFI Resource R6:8, R7:8, V0:8, V1:8, V2:8, V3:8, V4:8, V5:8, V6:8, V7:8
        CFI Resource V8:8, V9:8, V10:8, V11:8, V12:8, V13:8, V14:8, V15:8, SP:8
        CFI Resource PSPH:8, PSPL:8, PSP16:16, XSPH:8, XSPL:8, XSP16:16
        CFI VirtualResource ?RET:24
        CFI Resource ?BRET_EXT:8
        CFI VirtualResource ?RET_HIGH:8, ?RET_LOW:8
        CFI ResourceParts PSP16 PSPH, PSPL
        CFI ResourceParts XSP16 XSPH, XSPL
        CFI ResourceParts ?RET ?BRET_EXT, ?RET_HIGH, ?RET_LOW
        CFI EndNames cfiNames0
        
        CFI Common cfiCommon0 Using cfiNames0
        CFI CodeAlign 1
        CFI DataAlign -1
        CFI ReturnAddress ?RET CODE
        CFI CFA_DOVERLAY Used
        CFI CFA_IOVERLAY Used
        CFI CFA_SP SP+-3
        CFI CFA_PSP16 PSP16+0
        CFI CFA_XSP16 XSP16+0
        CFI `PSW.CY` SameValue
        CFI `B.BR0` SameValue
        CFI `B.BR1` SameValue
        CFI `B.BR2` SameValue
        CFI `B.BR3` SameValue
        CFI `B.BR4` SameValue
        CFI `B.BR5` SameValue
        CFI `B.BR6` SameValue
        CFI `B.BR7` SameValue
        CFI `VB.BR8` SameValue
        CFI `VB.BR9` SameValue
        CFI `VB.BR10` SameValue
        CFI `VB.BR11` SameValue
        CFI `VB.BR12` SameValue
        CFI `VB.BR13` SameValue
        CFI `VB.BR14` SameValue
        CFI `VB.BR15` SameValue
        CFI VB SameValue
        CFI B Undefined
        CFI A Undefined
        CFI PSW SameValue
        CFI DPL0 SameValue
        CFI DPH0 SameValue
        CFI R0 Undefined
        CFI R1 Undefined
        CFI R2 Undefined
        CFI R3 Undefined
        CFI R4 Undefined
        CFI R5 Undefined
        CFI R6 SameValue
        CFI R7 SameValue
        CFI V0 SameValue
        CFI V1 SameValue
        CFI V2 SameValue
        CFI V3 SameValue
        CFI V4 SameValue
        CFI V5 SameValue
        CFI V6 SameValue
        CFI V7 SameValue
        CFI V8 SameValue
        CFI V9 SameValue
        CFI V10 SameValue
        CFI V11 SameValue
        CFI V12 SameValue
        CFI V13 SameValue
        CFI V14 SameValue
        CFI V15 SameValue
        CFI PSPH Undefined
        CFI PSPL Undefined
        CFI XSPH Undefined
        CFI XSPL Undefined
        CFI ?RET Concat
        CFI ?BRET_EXT Frame(CFA_SP, 3)
        CFI ?RET_HIGH Frame(CFA_SP, 2)
        CFI ?RET_LOW Frame(CFA_SP, 1)
        CFI EndCommon cfiCommon0
        
HalFlashRead        SYMBOL "HalFlashRead"
HalFlashErase       SYMBOL "HalFlashErase"
HalFlashWrite       SYMBOL "HalFlashWrite"
HalAdcCheckVdd      SYMBOL "HalAdcCheckVdd"
??HalAdcCheckVdd?relay SYMBOL "?relay", HalAdcCheckVdd
??HalFlashErase?relay SYMBOL "?relay", HalFlashErase
??HalFlashRead?relay SYMBOL "?relay", HalFlashRead
??HalFlashWrite?relay SYMBOL "?relay", HalFlashWrite
osal_nv_delete      SYMBOL "osal_nv_delete"
??osal_nv_delete?relay SYMBOL "?relay", osal_nv_delete
osal_nv_init        SYMBOL "osal_nv_init"
??osal_nv_init?relay SYMBOL "?relay", osal_nv_init
osal_nv_item_init   SYMBOL "osal_nv_item_init"
??osal_nv_item_init?relay SYMBOL "?relay", osal_nv_item_init
osal_nv_item_len    SYMBOL "osal_nv_item_len"
??osal_nv_item_len?relay SYMBOL "?relay", osal_nv_item_len
osal_nv_read        SYMBOL "osal_nv_read"
??osal_nv_read?relay SYMBOL "?relay", osal_nv_read
osal_nv_write       SYMBOL "osal_nv_write"
??osal_nv_write?relay SYMBOL "?relay", osal_nv_write

        EXTERN HalFlashRead
        FUNCTION HalFlashRead,0202H
        ARGFRAME ISTACK, 0, STACK
        ARGFRAME PSTACK, 0, STACK
        ARGFRAME XSTACK, 44, STACK
        ARGFRAME IOVERLAY, 0, STATIC
        ARGFRAME DOVERLAY, 0, STATIC
        EXTERN HalFlashErase
        FUNCTION HalFlashErase,0202H
        ARGFRAME ISTACK, 0, STACK
        ARGFRAME PSTACK, 0, STACK
        ARGFRAME XSTACK, 9, STACK
        ARGFRAME IOVERLAY, 0, STATIC
        ARGFRAME DOVERLAY, 0, STATIC
        EXTERN HalFlashWrite
        FUNCTION HalFlashWrite,0202H
        ARGFRAME ISTACK, 0, STACK
        ARGFRAME PSTACK, 0, STACK
        ARGFRAME XSTACK, 16, STACK
        ARGFRAME IOVERLAY, 0, STATIC
        ARGFRAME DOVERLAY, 0, STATIC
        EXTERN HalAdcCheckVdd
        FUNCTION HalAdcCheckVdd,0202H
        ARGFRAME ISTACK, 0, STACK
        ARGFRAME PSTACK, 0, STACK
        ARGFRAME XSTACK, 42, STACK
        ARGFRAME IOVERLAY, 0, STATIC
        ARGFRAME DOVERLAY, 0, STATIC
        EXTERN ??HalAdcCheckVdd?relay
        FUNCTION ??HalAdcCheckVdd?relay,00H
        EXTERN ??HalFlashErase?relay
        FUNCTION ??HalFlashErase?relay,00H
        EXTERN ??HalFlashRead?relay
        FUNCTION ??HalFlashRead?relay,00H
        EXTERN ??HalFlashWrite?relay
        FUNCTION ??HalFlashWrite?relay,00H

// C:\Texas Instruments\ZStack-CC2530-2.5.1a\Components\osal\mcu\cc2530\OSAL_Nv.c
//    1 /******************************************************************************
//    2   Filename:       OSAL_Nv.c
//    3   Revised:        $Date: 2011-06-05 18:52:21 -0700 (Sun, 05 Jun 2011) $
//    4   Revision:       $Revision: 26212 $
//    5 
//    6   Description:    This module contains the OSAL non-volatile memory functions.
//    7 
//    8 
//    9   Copyright 2006-2011 Texas Instruments Incorporated. All rights reserved.
//   10 
//   11   IMPORTANT: Your use of this Software is limited to those specific rights
//   12   granted under the terms of a software license agreement between the user
//   13   who downloaded the software, his/her employer (which must be your employer)
//   14   and Texas Instruments Incorporated (the "License"). You may not use this
//   15   Software unless you agree to abide by the terms of the License. The License
//   16   limits your use, and you acknowledge, that the Software may not be modified,
//   17   copied or distributed unless embedded on a Texas Instruments microcontroller
//   18   or used solely and exclusively in conjunction with a Texas Instruments radio
//   19   frequency transceiver, which is integrated into your product. Other than for
//   20   the foregoing purpose, you may not use, reproduce, copy, prepare derivative
//   21   works of, modify, distribute, perform, display or sell this Software and/or
//   22   its documentation for any purpose.
//   23 
//   24   YOU FURTHER ACKNOWLEDGE AND AGREE THAT THE SOFTWARE AND DOCUMENTATION ARE
//   25   PROVIDED “AS IS” WITHOUT WARRANTY OF ANY KIND, EITHER EXPRESS OR IMPLIED,
//   26   INCLUDING WITHOUT LIMITATION, ANY WARRANTY OF MERCHANTABILITY, TITLE,
//   27   NON-INFRINGEMENT AND FITNESS FOR A PARTICULAR PURPOSE. IN NO EVENT SHALL
//   28   TEXAS INSTRUMENTS OR ITS LICENSORS BE LIABLE OR OBLIGATED UNDER CONTRACT,
//   29   NEGLIGENCE, STRICT LIABILITY, CONTRIBUTION, BREACH OF WARRANTY, OR OTHER
//   30   LEGAL EQUITABLE THEORY ANY DIRECT OR INDIRECT DAMAGES OR EXPENSES
//   31   INCLUDING BUT NOT LIMITED TO ANY INCIDENTAL, SPECIAL, INDIRECT, PUNITIVE
//   32   OR CONSEQUENTIAL DAMAGES, LOST PROFITS OR LOST DATA, COST OF PROCUREMENT
//   33   OF SUBSTITUTE GOODS, TECHNOLOGY, SERVICES, OR ANY CLAIMS BY THIRD PARTIES
//   34   (INCLUDING BUT NOT LIMITED TO ANY DEFENSE THEREOF), OR OTHER SIMILAR COSTS.
//   35 
//   36   Should you have any questions regarding your right to use this Software,
//   37   contact Texas Instruments Incorporated at www.TI.com.
//   38 ******************************************************************************/
//   39 
//   40 /******************************************************************************
//   41   Notes:
//   42     - A trick buried deep in initPage() requires that the MSB of the NV Item Id
//   43       is to be reserved for use by this module.
//   44 ******************************************************************************/
//   45 
//   46 /*********************************************************************
//   47  * INCLUDES
//   48  */
//   49 
//   50 #include "hal_adc.h"
//   51 #include "hal_flash.h"
//   52 #include "hal_types.h"
//   53 #include "OSAL_Nv.h"
//   54 #include "ZComDef.h"
//   55 
//   56 /*********************************************************************
//   57  * CONSTANTS
//   58  */
//   59 
//   60 #define OSAL_NV_PAGE_SIZE       HAL_FLASH_PAGE_SIZE
//   61 #define OSAL_NV_PAGES_USED      HAL_NV_PAGE_CNT
//   62 #define OSAL_NV_PAGE_BEG        HAL_NV_PAGE_BEG
//   63 #define OSAL_NV_PAGE_END       (OSAL_NV_PAGE_BEG + OSAL_NV_PAGES_USED - 1)
//   64 
//   65 #define OSAL_NV_ACTIVE          0x00
//   66 #define OSAL_NV_ERASED          0xFF
//   67 #define OSAL_NV_ERASED_ID       0xFFFF
//   68 #define OSAL_NV_ZEROED_ID       0x0000
//   69 // Reserve MSB of Id to signal a search for the "old" source copy (new write interrupted/failed.)
//   70 #define OSAL_NV_SOURCE_ID       0x8000
//   71 
//   72 // In case pages 0-1 are ever used, define a null page value.
//   73 #define OSAL_NV_PAGE_NULL       0
//   74 
//   75 // In case item Id 0 is ever used, define a null item value.
//   76 #define OSAL_NV_ITEM_NULL       0
//   77 
//   78 #define OSAL_NV_WORD_SIZE       HAL_FLASH_WORD_SIZE
//   79 
//   80 #define OSAL_NV_PAGE_HDR_OFFSET 0
//   81 
//   82 #define OSAL_NV_MAX_HOT         3

        RSEG XDATA_ROM_C:CONST:REORDER:NOROOT(0)
        DATA8
//   83 static const uint16 hotIds[OSAL_NV_MAX_HOT] = {
hotIds:
        DATA16
        DW 130
        DW 58
        DW 59
//   84   ZCD_NV_NWKKEY,
//   85   ZCD_NV_NWK_ACTIVE_KEY_INFO,
//   86   ZCD_NV_NWK_ALTERN_KEY_INFO,
//   87 };
//   88 
//   89 /*********************************************************************
//   90  * MACROS
//   91  */
//   92 
//   93 #define OSAL_NV_CHECK_BUS_VOLTAGE  HalAdcCheckVdd(VDD_MIN_NV)
//   94 
//   95 #define OSAL_NV_DATA_SIZE( LEN )                      \ 
//   96   (((LEN) >= ((uint16)(65536UL - OSAL_NV_WORD_SIZE))) ? \ 
//   97              ((uint16)(65536UL - OSAL_NV_WORD_SIZE))  : \ 
//   98              ((((LEN) + OSAL_NV_WORD_SIZE - 1) / OSAL_NV_WORD_SIZE) * OSAL_NV_WORD_SIZE))
//   99 
//  100 #define OSAL_NV_ITEM_SIZE( LEN )                                         \ 
//  101   (((LEN) >= ((uint16)(65536UL - OSAL_NV_WORD_SIZE - OSAL_NV_HDR_SIZE))) ? \ 
//  102              ((uint16)(65536UL - OSAL_NV_WORD_SIZE))                     : \ 
//  103   (((((LEN) + OSAL_NV_WORD_SIZE - 1) / OSAL_NV_WORD_SIZE) * OSAL_NV_WORD_SIZE) + OSAL_NV_HDR_SIZE))
//  104 
//  105 #define COMPACT_PAGE_CLEANUP( COM_PG ) st ( \ 
//  106   /* In order to recover from a page compaction that is interrupted,\ 
//  107    * the logic in osal_nv_init() depends upon the following order:\ 
//  108    * 1. State of the target of compaction is changed to ePgInUse.\ 
//  109    * 2. Compacted page is erased.\ 
//  110    */\ 
//  111   setPageUse( pgRes, TRUE );  /* Mark the reserve page as being in use. */\ 
//  112   erasePage( (COM_PG) ); \ 
//  113   \ 
//  114   pgRes = (COM_PG);           /* Set the reserve page to be the newly erased page. */\ 
//  115 )
//  116 
//  117 /*********************************************************************
//  118  * TYPEDEFS
//  119  */
//  120 
//  121 typedef struct
//  122 {
//  123   uint16 id;
//  124   uint16 len;   // Enforce Flash-WORD size on len.
//  125   uint16 chk;   // Byte-wise checksum of the 'len' data bytes of the item.
//  126   uint16 stat;  // Item status.
//  127 } osalNvHdr_t;
//  128 // Struct member offsets.
//  129 #define OSAL_NV_HDR_ID    0
//  130 #define OSAL_NV_HDR_LEN   2
//  131 #define OSAL_NV_HDR_CHK   4
//  132 #define OSAL_NV_HDR_STAT  6
//  133 
//  134 #define OSAL_NV_HDR_ITEM  2  // Length of any item of a header struct.
//  135 #define OSAL_NV_HDR_SIZE  8
//  136 #define OSAL_NV_HDR_HALF (OSAL_NV_HDR_SIZE / 2)
//  137 
//  138 typedef struct
//  139 {
//  140   uint16 active;
//  141   uint16 inUse;
//  142   uint16 xfer;
//  143   uint16 spare;
//  144 } osalNvPgHdr_t;
//  145 // Struct member offsets.
//  146 #define OSAL_NV_PG_ACTIVE 0
//  147 #define OSAL_NV_PG_INUSE  2
//  148 #define OSAL_NV_PG_XFER   4
//  149 #define OSAL_NV_PG_SPARE  6
//  150 
//  151 #define OSAL_NV_PAGE_HDR_SIZE  8
//  152 #define OSAL_NV_PAGE_HDR_HALF (OSAL_NV_PAGE_HDR_SIZE / 2)
//  153 
//  154 typedef enum
//  155 {
//  156   eNvXfer,
//  157   eNvZero
//  158 } eNvHdrEnum;
//  159 
//  160 typedef enum
//  161 {
//  162   ePgActive,
//  163   ePgInUse,
//  164   ePgXfer,
//  165   ePgSpare
//  166 } ePgHdrEnum;
//  167 
//  168 /*********************************************************************
//  169  * GLOBAL VARIABLES
//  170  */
//  171 
//  172 #ifndef OAD_KEEP_NV_PAGES
//  173 // When NV pages are to remain intact during OAD download,
//  174 // the image itself should not include NV pages.
//  175 #pragma location="ZIGNV_ADDRESS_SPACE"

        RSEG ZIGNV_ADDRESS_SPACE:XDATA:REORDER:NOROOT(0)
        DATA8
//  176 __no_init uint8 _nvBuf[OSAL_NV_PAGES_USED * OSAL_NV_PAGE_SIZE];
_nvBuf:
        DS 12288
//  177 #pragma required=_nvBuf
//  178 #endif // OAD_KEEP_NV_PAGES
//  179 
//  180 /*********************************************************************
//  181  * LOCAL VARIABLES
//  182  */
//  183 
//  184 // Offset into the page of the first available erased space.

        RSEG XDATA_Z:XDATA:NOROOT(0)
        DATA8
//  185 static uint16 pgOff[OSAL_NV_PAGES_USED];
pgOff:
        DS 12
        REQUIRE __INIT_XDATA_Z
        REQUIRE _nvBuf
//  186 
//  187 // Count of the bytes lost for the zeroed-out items.

        RSEG XDATA_Z:XDATA:NOROOT(0)
        DATA8
//  188 static uint16 pgLost[OSAL_NV_PAGES_USED];
pgLost:
        DS 12
        REQUIRE __INIT_XDATA_Z
//  189 

        RSEG XDATA_Z:XDATA:NOROOT(0)
        DATA8
//  190 static uint8 pgRes;  // Page reserved for item compacting transfer.
pgRes:
        DS 1
        REQUIRE __INIT_XDATA_Z
//  191 
//  192 // Saving ~100 code bytes to move a uint8* parameter/return value from findItem() to a global.

        RSEG XDATA_Z:XDATA:NOROOT(0)
        DATA8
//  193 static uint8 findPg;
findPg:
        DS 1
        REQUIRE __INIT_XDATA_Z
//  194 
//  195 // NV page and offsets for hot items.

        RSEG XDATA_Z:XDATA:NOROOT(0)
        DATA8
//  196 static uint8 hotPg[OSAL_NV_MAX_HOT];
hotPg:
        DS 3
        REQUIRE __INIT_XDATA_Z

        RSEG XDATA_Z:XDATA:NOROOT(0)
        DATA8
//  197 static uint16 hotOff[OSAL_NV_MAX_HOT];
hotOff:
        DS 6
        REQUIRE __INIT_XDATA_Z
//  198 
//  199 /*********************************************************************
//  200  * LOCAL FUNCTIONS
//  201  */
//  202 
//  203 static uint8  initNV( void );
//  204 
//  205 static void   setPageUse( uint8 pg, uint8 inUse );
//  206 static uint16 initPage( uint8 pg, uint16 id, uint8 findDups );
//  207 static void   erasePage( uint8 pg );
//  208 static uint8  compactPage( uint8 srcPg, uint16 skipId );
//  209 
//  210 static uint16 findItem( uint16 id );
//  211 static uint8  initItem( uint8 flag, uint16 id, uint16 len, void *buf );
//  212 static void   setItem( uint8 pg, uint16 offset, eNvHdrEnum stat );
//  213 static uint16 setChk( uint8 pg, uint16 offset, uint16 chk );
//  214 
//  215 static uint16 calcChkB( uint16 len, uint8 *buf );
//  216 static uint16 calcChkF( uint8 pg, uint16 offset, uint16 len );
//  217 
//  218 static void   writeWord( uint8 pg, uint16 offset, uint8 *buf );
//  219 static void   writeWordH( uint8 pg, uint16 offset, uint8 *buf );
//  220 static void   writeWordM( uint8 pg, uint16 offset, uint8 *buf, uint16 cnt );
//  221 static void   writeBuf( uint8 pg, uint16 offset, uint16 len, uint8 *buf );
//  222 static void   xferBuf( uint8 srcPg, uint16 srcOff, uint8 dstPg, uint16 dstOff, uint16 len );
//  223 
//  224 static uint8  writeItem( uint8 pg, uint16 id, uint16 len, void *buf, uint8 flag );
//  225 static uint8  hotItem(uint16 id);
//  226 static void   hotItemUpdate(uint8 pg, uint16 off, uint16 id);
//  227 
//  228 /*********************************************************************
//  229  * @fn      initNV
//  230  *
//  231  * @brief   Initialize the NV flash pages.
//  232  *
//  233  * @param   none
//  234  *
//  235  * @return  TRUE
//  236  */

        RSEG BANKED_CODE:CODE:NOROOT(0)
//  237 static uint8 initNV( void )
initNV:
        CFI Block cfiBlock0 Using cfiCommon0
        CFI Function initNV
        CODE
//  238 {
        FUNCALL initNV, HalFlashRead
        LOCFRAME ISTACK, 0, STACK
        LOCFRAME PSTACK, 0, STACK
        LOCFRAME XSTACK, 22, STACK
        LOCFRAME IOVERLAY, 0, STATIC
        LOCFRAME DOVERLAY, 0, STATIC
        ARGFRAME ISTACK, 0, STACK
        ARGFRAME PSTACK, 0, STACK
        ARGFRAME XSTACK, 22, STACK
        ARGFRAME IOVERLAY, 0, STATIC
        ARGFRAME DOVERLAY, 0, STATIC
        FUNCALL initNV, setPageUse
        LOCFRAME ISTACK, 0, STACK
        LOCFRAME PSTACK, 0, STACK
        LOCFRAME XSTACK, 20, STACK
        LOCFRAME IOVERLAY, 0, STATIC
        LOCFRAME DOVERLAY, 0, STATIC
        ARGFRAME ISTACK, 0, STACK
        ARGFRAME PSTACK, 0, STACK
        ARGFRAME XSTACK, 20, STACK
        ARGFRAME IOVERLAY, 0, STATIC
        ARGFRAME DOVERLAY, 0, STATIC
        FUNCALL initNV, erasePage
        LOCFRAME ISTACK, 0, STACK
        LOCFRAME PSTACK, 0, STACK
        LOCFRAME XSTACK, 20, STACK
        LOCFRAME IOVERLAY, 0, STATIC
        LOCFRAME DOVERLAY, 0, STATIC
        ARGFRAME ISTACK, 0, STACK
        ARGFRAME PSTACK, 0, STACK
        ARGFRAME XSTACK, 20, STACK
        ARGFRAME IOVERLAY, 0, STATIC
        ARGFRAME DOVERLAY, 0, STATIC
        FUNCALL initNV, compactPage
        LOCFRAME ISTACK, 0, STACK
        LOCFRAME PSTACK, 0, STACK
        LOCFRAME XSTACK, 20, STACK
        LOCFRAME IOVERLAY, 0, STATIC
        LOCFRAME DOVERLAY, 0, STATIC
        ARGFRAME ISTACK, 0, STACK
        ARGFRAME PSTACK, 0, STACK
        ARGFRAME XSTACK, 20, STACK
        ARGFRAME IOVERLAY, 0, STATIC
        ARGFRAME DOVERLAY, 0, STATIC
        FUNCALL initNV, erasePage
        LOCFRAME ISTACK, 0, STACK
        LOCFRAME PSTACK, 0, STACK
        LOCFRAME XSTACK, 20, STACK
        LOCFRAME IOVERLAY, 0, STATIC
        LOCFRAME DOVERLAY, 0, STATIC
        ARGFRAME ISTACK, 0, STACK
        ARGFRAME PSTACK, 0, STACK
        ARGFRAME XSTACK, 20, STACK
        ARGFRAME IOVERLAY, 0, STATIC
        ARGFRAME DOVERLAY, 0, STATIC
        FUNCALL initNV, erasePage
        LOCFRAME ISTACK, 0, STACK
        LOCFRAME PSTACK, 0, STACK
        LOCFRAME XSTACK, 20, STACK
        LOCFRAME IOVERLAY, 0, STATIC
        LOCFRAME DOVERLAY, 0, STATIC
        ARGFRAME ISTACK, 0, STACK
        ARGFRAME PSTACK, 0, STACK
        ARGFRAME XSTACK, 20, STACK
        ARGFRAME IOVERLAY, 0, STATIC
        ARGFRAME DOVERLAY, 0, STATIC
        FUNCALL initNV, initPage
        LOCFRAME ISTACK, 0, STACK
        LOCFRAME PSTACK, 0, STACK
        LOCFRAME XSTACK, 20, STACK
        LOCFRAME IOVERLAY, 0, STATIC
        LOCFRAME DOVERLAY, 0, STATIC
        ARGFRAME ISTACK, 0, STACK
        ARGFRAME PSTACK, 0, STACK
        ARGFRAME XSTACK, 20, STACK
        ARGFRAME IOVERLAY, 0, STATIC
        ARGFRAME DOVERLAY, 0, STATIC
        FUNCALL initNV, initPage
        LOCFRAME ISTACK, 0, STACK
        LOCFRAME PSTACK, 0, STACK
        LOCFRAME XSTACK, 20, STACK
        LOCFRAME IOVERLAY, 0, STATIC
        LOCFRAME DOVERLAY, 0, STATIC
        ARGFRAME ISTACK, 0, STACK
        ARGFRAME PSTACK, 0, STACK
        ARGFRAME XSTACK, 20, STACK
        ARGFRAME IOVERLAY, 0, STATIC
        ARGFRAME DOVERLAY, 0, STATIC
        FUNCALL initNV, erasePage
        LOCFRAME ISTACK, 0, STACK
        LOCFRAME PSTACK, 0, STACK
        LOCFRAME XSTACK, 20, STACK
        LOCFRAME IOVERLAY, 0, STATIC
        LOCFRAME DOVERLAY, 0, STATIC
        ARGFRAME ISTACK, 0, STACK
        ARGFRAME PSTACK, 0, STACK
        ARGFRAME XSTACK, 20, STACK
        ARGFRAME IOVERLAY, 0, STATIC
        ARGFRAME DOVERLAY, 0, STATIC
        MOV     A,#-0xc
        LCALL   ?BANKED_ENTER_XDATA
        CFI DPH0 load(1, XDATA, add(CFA_XSP16, literal(-1)))
        CFI DPL0 load(1, XDATA, add(CFA_XSP16, literal(-2)))
        CFI ?BRET_EXT load(1, XDATA, add(CFA_XSP16, literal(-3)))
        CFI ?RET_HIGH load(1, XDATA, add(CFA_XSP16, literal(-4)))
        CFI ?RET_LOW load(1, XDATA, add(CFA_XSP16, literal(-5)))
        CFI R7 load(1, XDATA, add(CFA_XSP16, literal(-6)))
        CFI V3 load(1, XDATA, add(CFA_XSP16, literal(-7)))
        CFI V2 load(1, XDATA, add(CFA_XSP16, literal(-8)))
        CFI V1 load(1, XDATA, add(CFA_XSP16, literal(-9)))
        CFI V0 load(1, XDATA, add(CFA_XSP16, literal(-10)))
        CFI VB load(1, XDATA, add(CFA_XSP16, literal(-11)))
        CFI R6 load(1, XDATA, add(CFA_XSP16, literal(-12)))
        CFI CFA_SP SP+0
        CFI CFA_XSP16 add(XSP16, 12)
        ; Saved register size: 12
        ; Auto size: 8
        MOV     A,#-0x8
        LCALL   ?ALLOC_XSTACK8
        CFI CFA_XSP16 add(XSP16, 20)
//  239   osalNvPgHdr_t pgHdr;
//  240   uint8 oldPg = OSAL_NV_PAGE_NULL;
        MOV     R6,#0x0
//  241   uint8 findDups = FALSE;
        MOV     ?V0 + 0,#0x0
//  242   uint8 pg;
//  243 
//  244   pgRes = OSAL_NV_PAGE_NULL;
        MOV     DPTR,#pgRes
        MOV     A,#0x0
        MOVX    @DPTR,A
//  245 
//  246   for ( pg = OSAL_NV_PAGE_BEG; pg <= OSAL_NV_PAGE_END; pg++ )
        MOV     R7,#0x79
??initNV_0:
        MOV     A,R7
        CLR     C
        SUBB    A,#0x7f
        JNC     ??initNV_1
//  247   {
//  248     HalFlashRead(pg, OSAL_NV_PAGE_HDR_OFFSET, (uint8 *)(&pgHdr), OSAL_NV_HDR_SIZE);
        ; Setup parameters for call to function HalFlashRead
        MOV     ?V0 + 2,#0x8
        MOV     ?V0 + 3,#0x0
        MOV     R0,#?V0 + 2
        LCALL   ?PUSH_XSTACK_I_TWO
        CFI CFA_XSP16 add(XSP16, 22)
        MOV     A,#0x2
        LCALL   ?XSTACK_DISP0_8
        MOV     R4,DPL
        MOV     R5,DPH
        MOV     R2,#0x0
        MOV     R3,#0x0
        MOV     A,R7
        MOV     R1,A
        LCALL   ??HalFlashRead?relay
        MOV     A,#0x2
        LCALL   ?DEALLOC_XSTACK8
        CFI CFA_XSP16 add(XSP16, 20)
//  249 
//  250     if ( pgHdr.active == OSAL_NV_ERASED_ID )
        MOV     DPL,?XSP + 0
        MOV     DPH,?XSP + 1
        MOVX    A,@DPTR
        XRL     A,#0xff
        JNZ     ??initNV_2
        INC     DPTR
        MOVX    A,@DPTR
        XRL     A,#0xff
??initNV_2:
        JNZ     ??initNV_3
//  251     {
//  252       if ( pgRes == OSAL_NV_PAGE_NULL )
        MOV     DPTR,#pgRes
        MOVX    A,@DPTR
        JNZ     ??initNV_4
//  253       {
//  254         pgRes = pg;
        MOV     A,R7
        MOV     DPTR,#pgRes
        MOVX    @DPTR,A
        SJMP    ??initNV_5
//  255       }
//  256       else
//  257       {
//  258         setPageUse( pg, TRUE );
??initNV_4:
        ; Setup parameters for call to function setPageUse
        MOV     R2,#0x1
        MOV     A,R7
        MOV     R1,A
        LCALL   ??setPageUse?relay
        SJMP    ??initNV_5
//  259       }
//  260     }
//  261     // An Xfer from this page was in progress.
//  262     else if ( pgHdr.xfer != OSAL_NV_ERASED_ID )
??initNV_3:
        MOV     A,#0x4
        LCALL   ?XSTACK_DISP0_8
        MOVX    A,@DPTR
        XRL     A,#0xff
        JNZ     ??initNV_6
        INC     DPTR
        MOVX    A,@DPTR
        XRL     A,#0xff
??initNV_6:
        JZ      ??initNV_5
//  263     {
//  264       oldPg = pg;
        MOV     A,R7
        MOV     R6,A
//  265     }
//  266   }
??initNV_5:
        INC     R7
        SJMP    ??initNV_0
//  267 
//  268   // If a page compaction was interrupted before the old page was erased.
//  269   if ( oldPg != OSAL_NV_PAGE_NULL )
??initNV_1:
        MOV     A,R6
        JZ      ??initNV_7
//  270   {
//  271     /* Interrupted compaction before the target of compaction was put in use;
//  272      * so erase the target of compaction and start again.
//  273      */
//  274     if ( pgRes != OSAL_NV_PAGE_NULL )
        MOV     DPTR,#pgRes
        MOVX    A,@DPTR
        JZ      ??initNV_8
//  275     {
//  276       erasePage( pgRes );
        ; Setup parameters for call to function erasePage
        MOV     DPTR,#pgRes
        MOVX    A,@DPTR
        MOV     R1,A
        LCALL   ??erasePage?relay
//  277       (void)compactPage( oldPg, OSAL_NV_ITEM_NULL );
        ; Setup parameters for call to function compactPage
        MOV     R2,#0x0
        MOV     R3,#0x0
        MOV     A,R6
        MOV     R1,A
        LCALL   ??compactPage?relay
        MOV     A,R1
        SJMP    ??initNV_9
//  278     }
//  279     /* Interrupted compaction after the target of compaction was put in use,
//  280      * but before the old page was erased; so erase it now and create a new reserve page.
//  281      */
//  282     else
//  283     {
//  284       erasePage( oldPg );
??initNV_8:
        ; Setup parameters for call to function erasePage
        MOV     A,R6
        MOV     R1,A
        LCALL   ??erasePage?relay
//  285       pgRes = oldPg;
        MOV     A,R6
        MOV     DPTR,#pgRes
        MOVX    @DPTR,A
        SJMP    ??initNV_9
//  286     }
//  287   }
//  288   else if ( pgRes != OSAL_NV_PAGE_NULL )
??initNV_7:
        MOV     DPTR,#pgRes
        MOVX    A,@DPTR
        JZ      ??initNV_9
//  289   {
//  290     erasePage( pgRes );  // The last page erase could have been interrupted by a power-cycle.
        ; Setup parameters for call to function erasePage
        MOV     DPTR,#pgRes
        MOVX    A,@DPTR
        MOV     R1,A
        LCALL   ??erasePage?relay
//  291   }
//  292   /* else if there is no reserve page, COMPACT_PAGE_CLEANUP() must have succeeded to put the old
//  293    * reserve page (i.e. the target of the compacted items) into use but got interrupted by a reset
//  294    * while trying to erase the page to be compacted. Such a page should only contain duplicate items
//  295    * (i.e. all items will be marked 'Xfer') and thus should have the lost count equal to the page
//  296    * size less the page header.
//  297    */
//  298 
//  299   for ( pg = OSAL_NV_PAGE_BEG; pg <= OSAL_NV_PAGE_END; pg++ )
??initNV_9:
        MOV     R7,#0x79
??initNV_10:
        MOV     A,R7
        CLR     C
        SUBB    A,#0x7f
        JNC     ??initNV_11
//  300   {
//  301     // Calculate page offset and lost bytes - any "old" item triggers an N^2 re-scan from start.
//  302     if ( initPage( pg, OSAL_NV_ITEM_NULL, findDups ) != OSAL_NV_ITEM_NULL )
        ; Setup parameters for call to function initPage
        MOV     R4,?V0 + 0
        MOV     R2,#0x0
        MOV     R3,#0x0
        MOV     A,R7
        MOV     R1,A
        LCALL   ??initPage?relay
        MOV     ?V0 + 2,R2
        MOV     ?V0 + 3,R3
        MOV     A,?V0 + 2
        ORL     A,?V0 + 3
        JZ      ??initNV_12
//  303     {
//  304       findDups = TRUE;
        MOV     ?V0 + 0,#0x1
//  305       pg = (OSAL_NV_PAGE_BEG - 1);  // Pre-decrement so that loop increment will start over at zero.
        MOV     R7,#0x78
//  306       continue;
//  307     }
//  308   }
??initNV_12:
        INC     R7
        SJMP    ??initNV_10
//  309 
//  310   if (findDups)
??initNV_11:
        MOV     A,?V0 + 0
        JZ      ??initNV_13
//  311   {
//  312     // Final pass to calculate page lost after invalidating duplicate items.
//  313     for ( pg = OSAL_NV_PAGE_BEG; pg <= OSAL_NV_PAGE_END; pg++ )
        MOV     R7,#0x79
??initNV_14:
        MOV     A,R7
        CLR     C
        SUBB    A,#0x7f
        JNC     ??initNV_13
//  314     {
//  315       (void)initPage( pg, OSAL_NV_ITEM_NULL, FALSE );
        ; Setup parameters for call to function initPage
        MOV     R4,#0x0
        MOV     R2,#0x0
        MOV     R3,#0x0
        MOV     A,R7
        MOV     R1,A
        LCALL   ??initPage?relay
        MOV     ?V0 + 2,R2
        MOV     ?V0 + 3,R3
        MOV     R0,?V0 + 2
        MOV     R1,?V0 + 3
//  316     }
        INC     R7
        SJMP    ??initNV_14
//  317   }
//  318 
//  319   if ( pgRes == OSAL_NV_PAGE_NULL )
??initNV_13:
        MOV     DPTR,#pgRes
        MOVX    A,@DPTR
        JZ      $+5
        LJMP    ??initNV_15 & 0xFFFF
//  320   {
//  321     uint8 idx, mostLost = 0;
        MOV     ?V0 + 2,#0x0
//  322 
//  323     for ( idx = 0; idx < OSAL_NV_PAGES_USED; idx++ )
        MOV     ?V0 + 1,#0x0
??initNV_16:
        MOV     A,?V0 + 1
        CLR     C
        SUBB    A,#0x6
        JC      $+5
        LJMP    ??initNV_17 & 0xFFFF
//  324     {
//  325       // Is this the page that was compacted?
//  326       if (pgLost[idx] == (OSAL_NV_PAGE_SIZE - OSAL_NV_PAGE_HDR_SIZE))
        MOV     A,?V0 + 1
        MOV     R0,?V0 + 1
        MOV     R1,#0x0
        MOV     A,R0
        MOV     B,#0x2
        MUL     AB
        XCH     A,R0
        MOV     R2,B
        MOV     B,#0x0
        MUL     AB
        ADD     A,R2
        MOV     R2,A
        MOV     B,#0x2
        MOV     A,R1
        MUL     AB
        ADD     A,R2
        MOV     R1,A
        MOV     A,#pgLost & 0xff
        ADD     A,R0
        MOV     DPL,A
        MOV     A,#(pgLost >> 8) & 0xff
        ADDC    A,R1
        MOV     DPH,A
        MOVX    A,@DPTR
        XRL     A,#0xf8
        JNZ     ??initNV_18
        INC     DPTR
        MOVX    A,@DPTR
        XRL     A,#0x7
??initNV_18:
        JNZ     ??initNV_19
//  327       {
//  328         mostLost = idx;
        MOV     ?V0 + 2,?V0 + 1
//  329         break;
        SJMP    ??initNV_17
//  330       }
//  331       /* This check is not expected to be necessary because the above test should always succeed
//  332        * with an early loop exit.
//  333        */
//  334       else if (pgLost[idx] > pgLost[mostLost])
??initNV_19:
        MOV     A,?V0 + 2
        MOV     R0,?V0 + 2
        MOV     R1,#0x0
        MOV     A,R0
        MOV     B,#0x2
        MUL     AB
        XCH     A,R0
        MOV     R2,B
        MOV     B,#0x0
        MUL     AB
        ADD     A,R2
        MOV     R2,A
        MOV     B,#0x2
        MOV     A,R1
        MUL     AB
        ADD     A,R2
        MOV     R1,A
        MOV     A,#pgLost & 0xff
        ADD     A,R0
        MOV     DPL,A
        MOV     A,#(pgLost >> 8) & 0xff
        ADDC    A,R1
        MOV     DPH,A
        PUSH    DPL
        CFI CFA_SP SP+-1
        PUSH    DPH
        CFI CFA_SP SP+-2
        MOV     A,?V0 + 1
        MOV     R0,?V0 + 1
        MOV     R1,#0x0
        MOV     A,R0
        MOV     B,#0x2
        MUL     AB
        XCH     A,R0
        MOV     R2,B
        MOV     B,#0x0
        MUL     AB
        ADD     A,R2
        MOV     R2,A
        MOV     B,#0x2
        MOV     A,R1
        MUL     AB
        ADD     A,R2
        MOV     R1,A
        MOV     A,#pgLost & 0xff
        ADD     A,R0
        MOV     DPL,A
        MOV     A,#(pgLost >> 8) & 0xff
        ADDC    A,R1
        MOV     DPH,A
        MOVX    A,@DPTR
        MOV     R0,A
        INC     DPTR
        MOVX    A,@DPTR
        MOV     R1,A
        POP     DPH
        CFI CFA_SP SP+-1
        POP     DPL
        CFI CFA_SP SP+0
        CLR     C
        MOVX    A,@DPTR
        SUBB    A,R0
        INC     DPTR
        MOVX    A,@DPTR
        SUBB    A,R1
        JNC     ??initNV_20
//  335       {
//  336         mostLost = idx;
        MOV     ?V0 + 2,?V0 + 1
//  337       }
//  338     }
??initNV_20:
        INC     ?V0 + 1
        LJMP    ??initNV_16 & 0xFFFF
//  339 
//  340     pgRes = mostLost + OSAL_NV_PAGE_BEG;
??initNV_17:
        MOV     A,#0x79
        ADD     A,?V0 + 2
        MOV     DPTR,#pgRes
        MOVX    @DPTR,A
//  341     erasePage( pgRes );  // The last page erase had been interrupted by a power-cycle.
        ; Setup parameters for call to function erasePage
        MOV     DPTR,#pgRes
        MOVX    A,@DPTR
        MOV     R1,A
        LCALL   ??erasePage?relay
//  342   }
//  343 
//  344   return TRUE;
??initNV_15:
        MOV     R1,#0x1
        MOV     A,#0x8
        LCALL   ?DEALLOC_XSTACK8
        CFI CFA_XSP16 add(XSP16, 12)
        MOV     R7,#0x4
        LJMP    ?BANKED_LEAVE_XDATA
        CFI EndBlock cfiBlock0
//  345 }
//  346 
//  347 /*********************************************************************
//  348  * @fn      setPageUse
//  349  *
//  350  * @brief   Set page header active/inUse state according to 'inUse'.
//  351  *
//  352  * @param   pg - Valid NV page to verify and init.
//  353  * @param   inUse - Boolean TRUE if inUse, FALSE if only active.
//  354  *
//  355  * @return  none
//  356  */

        RSEG BANKED_CODE:CODE:NOROOT(0)
//  357 static void setPageUse( uint8 pg, uint8 inUse )
setPageUse:
        CFI Block cfiBlock1 Using cfiCommon0
        CFI Function setPageUse
        CODE
//  358 {
        FUNCALL setPageUse, writeWord
        LOCFRAME ISTACK, 0, STACK
        LOCFRAME PSTACK, 0, STACK
        LOCFRAME XSTACK, 17, STACK
        LOCFRAME IOVERLAY, 0, STATIC
        LOCFRAME DOVERLAY, 0, STATIC
        ARGFRAME ISTACK, 0, STACK
        ARGFRAME PSTACK, 0, STACK
        ARGFRAME XSTACK, 17, STACK
        ARGFRAME IOVERLAY, 0, STATIC
        ARGFRAME DOVERLAY, 0, STATIC
        MOV     A,#-0x9
        LCALL   ?BANKED_ENTER_XDATA
        CFI DPH0 load(1, XDATA, add(CFA_XSP16, literal(-1)))
        CFI DPL0 load(1, XDATA, add(CFA_XSP16, literal(-2)))
        CFI ?BRET_EXT load(1, XDATA, add(CFA_XSP16, literal(-3)))
        CFI ?RET_HIGH load(1, XDATA, add(CFA_XSP16, literal(-4)))
        CFI ?RET_LOW load(1, XDATA, add(CFA_XSP16, literal(-5)))
        CFI R7 load(1, XDATA, add(CFA_XSP16, literal(-6)))
        CFI V0 load(1, XDATA, add(CFA_XSP16, literal(-7)))
        CFI VB load(1, XDATA, add(CFA_XSP16, literal(-8)))
        CFI R6 load(1, XDATA, add(CFA_XSP16, literal(-9)))
        CFI CFA_SP SP+0
        CFI CFA_XSP16 add(XSP16, 9)
        ; Saved register size: 9
        ; Auto size: 8
        MOV     A,#-0x8
        LCALL   ?ALLOC_XSTACK8
        CFI CFA_XSP16 add(XSP16, 17)
        MOV     A,R1
        MOV     R6,A
        MOV     A,R2
        MOV     R7,A
//  359   osalNvPgHdr_t pgHdr;
//  360 
//  361   pgHdr.active = OSAL_NV_ZEROED_ID;
        MOV     DPL,?XSP + 0
        MOV     DPH,?XSP + 1
        MOV     A,#0x0
        MOVX    @DPTR,A
        INC     DPTR
        MOV     A,#0x0
        MOVX    @DPTR,A
//  362 
//  363   if ( inUse )
        MOV     A,R7
        JZ      ??setPageUse_0
//  364   {
//  365     pgHdr.inUse = OSAL_NV_ZEROED_ID;
        MOV     A,#0x2
        LCALL   ?XSTACK_DISP0_8
        MOV     A,#0x0
        MOVX    @DPTR,A
        INC     DPTR
        MOV     A,#0x0
        MOVX    @DPTR,A
        SJMP    ??setPageUse_1
//  366   }
//  367   else
//  368   {
//  369     pgHdr.inUse = OSAL_NV_ERASED_ID;
??setPageUse_0:
        MOV     A,#0x2
        LCALL   ?XSTACK_DISP0_8
        MOV     A,#-0x1
        MOVX    @DPTR,A
        INC     DPTR
        MOV     A,#-0x1
        MOVX    @DPTR,A
//  370   }
//  371 
//  372   writeWord( pg, OSAL_NV_PAGE_HDR_OFFSET, (uint8*)(&pgHdr) );
??setPageUse_1:
        ; Setup parameters for call to function writeWord
        MOV     DPL,?XSP + 0
        MOV     DPH,?XSP + 1
        MOV     R4,DPL
        MOV     R5,DPH
        MOV     R2,#0x0
        MOV     R3,#0x0
        MOV     A,R6
        MOV     R1,A
        LCALL   ??writeWord?relay
//  373 }
        MOV     A,#0x8
        LCALL   ?DEALLOC_XSTACK8
        CFI CFA_XSP16 add(XSP16, 9)
        MOV     R7,#0x1
        LJMP    ?BANKED_LEAVE_XDATA
        CFI EndBlock cfiBlock1
//  374 
//  375 /*********************************************************************
//  376  * @fn      initPage
//  377  *
//  378  * @brief   Walk the page items; calculate checksums, lost bytes & page offset.
//  379  *
//  380  * @param   pg - Valid NV page to verify and init.
//  381  * @param   id - Valid NV item Id to use function as a "findItem".
//  382  *               If set to NULL then just perform the page initialization.
//  383  * @param   findDups - TRUE on recursive call from initNV() to find and zero-out duplicate items
//  384  *                     left from a write that is interrupted by a reset/power-cycle.
//  385  *                     FALSE otherwise.
//  386  *
//  387  * @return  If 'id' is non-NULL and good checksums are found, return the offset
//  388  *          of the data corresponding to item Id; else OSAL_NV_ITEM_NULL.
//  389  */

        RSEG BANKED_CODE:CODE:NOROOT(0)
//  390 static uint16 initPage( uint8 pg, uint16 id, uint8 findDups )
initPage:
        CFI Block cfiBlock2 Using cfiCommon0
        CFI Function initPage
        CODE
//  391 {
        FUNCALL initPage, HalFlashRead
        LOCFRAME ISTACK, 0, STACK
        LOCFRAME PSTACK, 0, STACK
        LOCFRAME XSTACK, 30, STACK
        LOCFRAME IOVERLAY, 0, STATIC
        LOCFRAME DOVERLAY, 0, STATIC
        ARGFRAME ISTACK, 0, STACK
        ARGFRAME PSTACK, 0, STACK
        ARGFRAME XSTACK, 30, STACK
        ARGFRAME IOVERLAY, 0, STATIC
        ARGFRAME DOVERLAY, 0, STATIC
        FUNCALL initPage, calcChkF
        LOCFRAME ISTACK, 0, STACK
        LOCFRAME PSTACK, 0, STACK
        LOCFRAME XSTACK, 28, STACK
        LOCFRAME IOVERLAY, 0, STATIC
        LOCFRAME DOVERLAY, 0, STATIC
        ARGFRAME ISTACK, 0, STACK
        ARGFRAME PSTACK, 0, STACK
        ARGFRAME XSTACK, 28, STACK
        ARGFRAME IOVERLAY, 0, STATIC
        ARGFRAME DOVERLAY, 0, STATIC
        FUNCALL initPage, findItem
        LOCFRAME ISTACK, 0, STACK
        LOCFRAME PSTACK, 0, STACK
        LOCFRAME XSTACK, 28, STACK
        LOCFRAME IOVERLAY, 0, STATIC
        LOCFRAME DOVERLAY, 0, STATIC
        ARGFRAME ISTACK, 0, STACK
        ARGFRAME PSTACK, 0, STACK
        ARGFRAME XSTACK, 28, STACK
        ARGFRAME IOVERLAY, 0, STATIC
        ARGFRAME DOVERLAY, 0, STATIC
        FUNCALL initPage, setItem
        LOCFRAME ISTACK, 0, STACK
        LOCFRAME PSTACK, 0, STACK
        LOCFRAME XSTACK, 28, STACK
        LOCFRAME IOVERLAY, 0, STATIC
        LOCFRAME DOVERLAY, 0, STATIC
        ARGFRAME ISTACK, 0, STACK
        ARGFRAME PSTACK, 0, STACK
        ARGFRAME XSTACK, 28, STACK
        ARGFRAME IOVERLAY, 0, STATIC
        ARGFRAME DOVERLAY, 0, STATIC
        FUNCALL initPage, setItem
        LOCFRAME ISTACK, 0, STACK
        LOCFRAME PSTACK, 0, STACK
        LOCFRAME XSTACK, 28, STACK
        LOCFRAME IOVERLAY, 0, STATIC
        LOCFRAME DOVERLAY, 0, STATIC
        ARGFRAME ISTACK, 0, STACK
        ARGFRAME PSTACK, 0, STACK
        ARGFRAME XSTACK, 28, STACK
        ARGFRAME IOVERLAY, 0, STATIC
        ARGFRAME DOVERLAY, 0, STATIC
        MOV     A,#-0x14
        LCALL   ?BANKED_ENTER_XDATA
        CFI DPH0 load(1, XDATA, add(CFA_XSP16, literal(-1)))
        CFI DPL0 load(1, XDATA, add(CFA_XSP16, literal(-2)))
        CFI ?BRET_EXT load(1, XDATA, add(CFA_XSP16, literal(-3)))
        CFI ?RET_HIGH load(1, XDATA, add(CFA_XSP16, literal(-4)))
        CFI ?RET_LOW load(1, XDATA, add(CFA_XSP16, literal(-5)))
        CFI R7 load(1, XDATA, add(CFA_XSP16, literal(-6)))
        CFI V11 load(1, XDATA, add(CFA_XSP16, literal(-7)))
        CFI V10 load(1, XDATA, add(CFA_XSP16, literal(-8)))
        CFI V9 load(1, XDATA, add(CFA_XSP16, literal(-9)))
        CFI V8 load(1, XDATA, add(CFA_XSP16, literal(-10)))
        CFI V7 load(1, XDATA, add(CFA_XSP16, literal(-11)))
        CFI V6 load(1, XDATA, add(CFA_XSP16, literal(-12)))
        CFI V5 load(1, XDATA, add(CFA_XSP16, literal(-13)))
        CFI V4 load(1, XDATA, add(CFA_XSP16, literal(-14)))
        CFI V3 load(1, XDATA, add(CFA_XSP16, literal(-15)))
        CFI V2 load(1, XDATA, add(CFA_XSP16, literal(-16)))
        CFI V1 load(1, XDATA, add(CFA_XSP16, literal(-17)))
        CFI V0 load(1, XDATA, add(CFA_XSP16, literal(-18)))
        CFI VB load(1, XDATA, add(CFA_XSP16, literal(-19)))
        CFI R6 load(1, XDATA, add(CFA_XSP16, literal(-20)))
        CFI CFA_SP SP+0
        CFI CFA_XSP16 add(XSP16, 20)
        ; Saved register size: 20
        ; Auto size: 8
        MOV     A,#-0x8
        LCALL   ?ALLOC_XSTACK8
        CFI CFA_XSP16 add(XSP16, 28)
        MOV     ?V0 + 2,R1
        MOV     ?V0 + 4,R2
        MOV     ?V0 + 5,R3
        MOV     ?V0 + 3,R4
//  392   uint16 offset = OSAL_NV_PAGE_HDR_SIZE;
        MOV     ?V0 + 0,#0x8
        MOV     ?V0 + 1,#0x0
//  393   uint16 sz, lost = 0;
        MOV     R6,#0x0
        MOV     R7,#0x0
//  394   osalNvHdr_t hdr;
//  395 
//  396   do
//  397   {
//  398     HalFlashRead(pg, offset, (uint8 *)(&hdr), OSAL_NV_HDR_SIZE);
??initPage_0:
        ; Setup parameters for call to function HalFlashRead
        MOV     ?V0 + 6,#0x8
        MOV     ?V0 + 7,#0x0
        MOV     R0,#?V0 + 6
        LCALL   ?PUSH_XSTACK_I_TWO
        CFI CFA_XSP16 add(XSP16, 30)
        MOV     A,#0x2
        LCALL   ?XSTACK_DISP0_8
        MOV     R4,DPL
        MOV     R5,DPH
        MOV     R2,?V0 + 0
        MOV     R3,?V0 + 1
        MOV     R1,?V0 + 2
        LCALL   ??HalFlashRead?relay
        MOV     A,#0x2
        LCALL   ?DEALLOC_XSTACK8
        CFI CFA_XSP16 add(XSP16, 28)
//  399 
//  400     if ( hdr.id == OSAL_NV_ERASED_ID )
        MOV     DPL,?XSP + 0
        MOV     DPH,?XSP + 1
        MOVX    A,@DPTR
        XRL     A,#0xff
        JNZ     ??initPage_1
        INC     DPTR
        MOVX    A,@DPTR
        XRL     A,#0xff
??initPage_1:
        JNZ     $+5
        LJMP    ??initPage_2 & 0xFFFF
//  401     {
//  402       break;
//  403     }
//  404 
//  405     // Get the actual size in bytes which is the ceiling(hdr.len)
//  406     sz = OSAL_NV_DATA_SIZE( hdr.len );
        MOV     A,#0x2
        LCALL   ?XSTACK_DISP0_8
        CLR     C
        MOVX    A,@DPTR
        SUBB    A,#-0x4
        INC     DPTR
        MOVX    A,@DPTR
        SUBB    A,#-0x1
        JC      ??initPage_3
        MOV     ?V0 + 8,#-0x4
        MOV     ?V0 + 9,#-0x1
        SJMP    ??initPage_4
??initPage_3:
        MOV     A,#0x2
        LCALL   ?XSTACK_DISP0_8
        MOVX    A,@DPTR
        ADD     A,#0x3
        MOV     ?V0 + 8,A
        INC     DPTR
        MOVX    A,@DPTR
        ADDC    A,#0x0
        MOV     ?V0 + 9,A
        MOV     A,#0x2
        MOV     R0,#?V0 + 8
        LCALL   ?US_SHR
        MOV     A,?V0 + 8
        MOV     B,#0x4
        MUL     AB
        XCH     A,?V0 + 8
        MOV     R0,B
        MOV     B,#0x0
        MUL     AB
        ADD     A,R0
        MOV     R0,A
        MOV     B,#0x4
        MOV     A,?V0 + 9
        MUL     AB
        ADD     A,R0
        MOV     ?V0 + 9,A
//  407 
//  408     // A bad 'len' write has blown away the rest of the page.
//  409     if (sz > (OSAL_NV_PAGE_SIZE - OSAL_NV_HDR_SIZE - offset))
??initPage_4:
        MOV     A,#-0x8
        CLR     C
        SUBB    A,?V0 + 0
        MOV     R0,A
        MOV     A,#0x7
        SUBB    A,?V0 + 1
        MOV     R1,A
        CLR     C
        MOV     A,R0
        SUBB    A,?V0 + 8
        MOV     A,R1
        SUBB    A,?V0 + 9
        JNC     ??initPage_5
//  410     {
//  411       lost += (OSAL_NV_PAGE_SIZE - offset);
        MOV     A,R6
        ADD     A,#0x0
        MOV     R0,A
        MOV     A,R7
        ADDC    A,#0x8
        MOV     R1,A
        MOV     A,R0
        CLR     C
        SUBB    A,?V0 + 0
        MOV     R6,A
        MOV     A,R1
        SUBB    A,?V0 + 1
        MOV     R7,A
//  412       offset = OSAL_NV_PAGE_SIZE;
        MOV     ?V0 + 0,#0x0
        MOV     ?V0 + 1,#0x8
//  413       break;
        LJMP    ??initPage_2 & 0xFFFF
//  414     }
//  415 
//  416     offset += OSAL_NV_HDR_SIZE;
??initPage_5:
        MOV     A,?V0 + 0
        ADD     A,#0x8
        MOV     ?V0 + 0,A
        MOV     A,?V0 + 1
        ADDC    A,#0x0
        MOV     ?V0 + 1,A
//  417 
//  418     if ( hdr.id != OSAL_NV_ZEROED_ID )
        MOV     DPL,?XSP + 0
        MOV     DPH,?XSP + 1
        MOVX    A,@DPTR
        MOV     R0,A
        INC     DPTR
        MOVX    A,@DPTR
        MOV     R1,A
        MOV     A,R0
        ORL     A,R1
        JNZ     $+5
        LJMP    ??initPage_6 & 0xFFFF
//  419     {
//  420       /* This trick allows function to do double duty for findItem() without
//  421        * compromising its essential functionality at powerup initialization.
//  422        */
//  423       if ( id != OSAL_NV_ITEM_NULL )
        MOV     A,?V0 + 4
        ORL     A,?V0 + 5
        JZ      ??initPage_7
//  424       {
//  425         /* This trick allows asking to find the old/transferred item in case
//  426          * of a successful new item write that gets interrupted before the
//  427          * old item can be zeroed out.
//  428          */
//  429         if ( (id & 0x7fff) == hdr.id )
        MOV     A,?V0 + 4
        ANL     A,#0xff
        MOV     R0,A
        MOV     A,?V0 + 5
        ANL     A,#0x7f
        MOV     R1,A
        MOV     DPL,?XSP + 0
        MOV     DPH,?XSP + 1
        MOVX    A,@DPTR
        XRL     A,R0
        JNZ     ??initPage_8
        INC     DPTR
        MOVX    A,@DPTR
        XRL     A,R1
??initPage_8:
        JZ      $+5
        LJMP    ??initPage_9 & 0xFFFF
//  430         {
//  431           if ( (((id & OSAL_NV_SOURCE_ID) == 0) && (hdr.stat == OSAL_NV_ERASED_ID)) ||
//  432                (((id & OSAL_NV_SOURCE_ID) != 0) && (hdr.stat != OSAL_NV_ERASED_ID)) )
        MOV     A,?V0 + 4
        ANL     A,#0x0
        MOV     R0,A
        MOV     A,?V0 + 5
        ANL     A,#0x80
        MOV     R1,A
        MOV     A,R0
        ORL     A,R1
        JNZ     ??initPage_10
        MOV     A,#0x6
        LCALL   ?XSTACK_DISP0_8
        MOVX    A,@DPTR
        XRL     A,#0xff
        JNZ     ??initPage_11
        INC     DPTR
        MOVX    A,@DPTR
        XRL     A,#0xff
??initPage_11:
        JZ      ??initPage_12
??initPage_10:
        MOV     A,?V0 + 4
        ANL     A,#0x0
        MOV     R0,A
        MOV     A,?V0 + 5
        ANL     A,#0x80
        MOV     R1,A
        MOV     A,R0
        ORL     A,R1
        JNZ     $+5
        LJMP    ??initPage_9 & 0xFFFF
        MOV     A,#0x6
        LCALL   ?XSTACK_DISP0_8
        MOVX    A,@DPTR
        XRL     A,#0xff
        JNZ     ??initPage_13
        INC     DPTR
        MOVX    A,@DPTR
        XRL     A,#0xff
??initPage_13:
        JNZ     $+5
        LJMP    ??initPage_9 & 0xFFFF
//  433           {
//  434             return offset;
??initPage_12:
        MOV     R2,?V0 + 0
        MOV     R3,?V0 + 1
        LJMP    ??initPage_14 & 0xFFFF
//  435           }
//  436         }
//  437       }
//  438       // When invoked from the osal_nv_init(), verify checksums and find & zero any duplicates.
//  439       else
//  440       {
//  441         if ( hdr.chk == calcChkF( pg, offset, hdr.len ) )
??initPage_7:
        ; Setup parameters for call to function calcChkF
        MOV     A,#0x2
        LCALL   ?XSTACK_DISP0_8
        MOVX    A,@DPTR
        MOV     R4,A
        INC     DPTR
        MOVX    A,@DPTR
        MOV     R5,A
        MOV     R2,?V0 + 0
        MOV     R3,?V0 + 1
        MOV     R1,?V0 + 2
        LCALL   ??calcChkF?relay
        MOV     ?V0 + 6,R2
        MOV     ?V0 + 7,R3
        MOV     R0,?V0 + 6
        MOV     R1,?V0 + 7
        MOV     A,#0x4
        LCALL   ?XSTACK_DISP0_8
        MOVX    A,@DPTR
        XRL     A,R0
        JNZ     ??initPage_15
        INC     DPTR
        MOVX    A,@DPTR
        XRL     A,R1
??initPage_15:
        JNZ     ??initPage_16
//  442         {
//  443           if ( findDups )
        MOV     A,?V0 + 3
        JZ      ??initPage_17
//  444           {
//  445             if ( hdr.stat == OSAL_NV_ERASED_ID )
        MOV     A,#0x6
        LCALL   ?XSTACK_DISP0_8
        MOVX    A,@DPTR
        XRL     A,#0xff
        JNZ     ??initPage_18
        INC     DPTR
        MOVX    A,@DPTR
        XRL     A,#0xff
??initPage_18:
        JNZ     ??initPage_9
//  446             {
//  447               /* The trick of setting the MSB of the item Id causes the logic
//  448                * immediately above to return a valid page only if the header 'stat'
//  449                * indicates that it was the older item being transferred.
//  450                */
//  451               uint16 off = findItem( (hdr.id | OSAL_NV_SOURCE_ID) );
        ; Setup parameters for call to function findItem
        MOV     DPL,?XSP + 0
        MOV     DPH,?XSP + 1
        MOVX    A,@DPTR
        ORL     A,#0x0
        MOV     R2,A
        INC     DPTR
        MOVX    A,@DPTR
        ORL     A,#0x80
        MOV     R3,A
        LCALL   ??findItem?relay
        MOV     ?V0 + 10,R2
        MOV     ?V0 + 11,R3
        MOV     ?V0 + 6,?V0 + 10
        MOV     ?V0 + 7,?V0 + 11
//  452 
//  453               if ( off != OSAL_NV_ITEM_NULL )
        MOV     A,?V0 + 6
        ORL     A,?V0 + 7
        JZ      ??initPage_9
//  454               {
//  455                 setItem( findPg, off, eNvZero );  // Mark old duplicate as invalid.
        ; Setup parameters for call to function setItem
        MOV     R4,#0x1
        MOV     R2,?V0 + 6
        MOV     R3,?V0 + 7
        MOV     DPTR,#findPg
        MOVX    A,@DPTR
        MOV     R1,A
        LCALL   ??setItem?relay
        SJMP    ??initPage_9
//  456               }
//  457             }
//  458           }
//  459           // Any "old" item immediately exits and triggers the N^2 exhaustive initialization.
//  460           else if ( hdr.stat != OSAL_NV_ERASED_ID )
??initPage_17:
        MOV     A,#0x6
        LCALL   ?XSTACK_DISP0_8
        MOVX    A,@DPTR
        XRL     A,#0xff
        JNZ     ??initPage_19
        INC     DPTR
        MOVX    A,@DPTR
        XRL     A,#0xff
??initPage_19:
        JZ      ??initPage_9
//  461           {
//  462             return OSAL_NV_ERASED_ID;
        MOV     R2,#-0x1
        MOV     R3,#-0x1
        LJMP    ??initPage_14 & 0xFFFF
//  463           }
//  464         }
//  465         else
//  466         {
//  467           setItem( pg, offset, eNvZero );  // Mark bad checksum as invalid.
??initPage_16:
        ; Setup parameters for call to function setItem
        MOV     R4,#0x1
        MOV     R2,?V0 + 0
        MOV     R3,?V0 + 1
        MOV     R1,?V0 + 2
        LCALL   ??setItem?relay
//  468           lost += (OSAL_NV_HDR_SIZE + sz);
        MOV     A,?V0 + 8
        ADD     A,#0x8
        MOV     R0,A
        MOV     A,?V0 + 9
        ADDC    A,#0x0
        MOV     R1,A
        MOV     A,R6
        ADD     A,R0
        MOV     R6,A
        MOV     A,R7
        ADDC    A,R1
        MOV     R7,A
        SJMP    ??initPage_9
//  469         }
//  470       }
//  471     }
//  472     else
//  473     {
//  474       lost += (OSAL_NV_HDR_SIZE + sz);
??initPage_6:
        MOV     A,?V0 + 8
        ADD     A,#0x8
        MOV     R0,A
        MOV     A,?V0 + 9
        ADDC    A,#0x0
        MOV     R1,A
        MOV     A,R6
        ADD     A,R0
        MOV     R6,A
        MOV     A,R7
        ADDC    A,R1
        MOV     R7,A
//  475     }
//  476     offset += sz;
??initPage_9:
        MOV     A,?V0 + 0
        ADD     A,?V0 + 8
        MOV     ?V0 + 0,A
        MOV     A,?V0 + 1
        ADDC    A,?V0 + 9
        MOV     ?V0 + 1,A
//  477 
//  478   } while (offset < (OSAL_NV_PAGE_SIZE - OSAL_NV_HDR_SIZE));
        CLR     C
        MOV     A,?V0 + 0
        SUBB    A,#-0x8
        MOV     A,?V0 + 1
        SUBB    A,#0x7
        JNC     $+5
        LJMP    ??initPage_0 & 0xFFFF
//  479 
//  480   pgOff[pg - OSAL_NV_PAGE_BEG] = offset;
??initPage_2:
        MOV     A,?V0 + 2
        MOV     R0,?V0 + 2
        MOV     R1,#0x0
        MOV     A,R0
        MOV     B,#0x2
        MUL     AB
        XCH     A,R0
        MOV     R2,B
        MOV     B,#0x0
        MUL     AB
        ADD     A,R2
        MOV     R2,A
        MOV     B,#0x2
        MOV     A,R1
        MUL     AB
        ADD     A,R2
        MOV     R1,A
        MOV     A,#(pgOff + 14) & 0xff
        ADD     A,R0
        MOV     DPL,A
        MOV     A,#((pgOff - 242) >> 8) & 0xff
        ADDC    A,R1
        MOV     DPH,A
        MOV     A,?V0 + 0
        MOVX    @DPTR,A
        INC     DPTR
        MOV     A,?V0 + 1
        MOVX    @DPTR,A
//  481   pgLost[pg - OSAL_NV_PAGE_BEG] = lost;
        MOV     A,?V0 + 2
        MOV     R0,?V0 + 2
        MOV     R1,#0x0
        MOV     A,R0
        MOV     B,#0x2
        MUL     AB
        XCH     A,R0
        MOV     R2,B
        MOV     B,#0x0
        MUL     AB
        ADD     A,R2
        MOV     R2,A
        MOV     B,#0x2
        MOV     A,R1
        MUL     AB
        ADD     A,R2
        MOV     R1,A
        MOV     A,#(pgLost + 14) & 0xff
        ADD     A,R0
        MOV     DPL,A
        MOV     A,#((pgLost - 242) >> 8) & 0xff
        ADDC    A,R1
        MOV     DPH,A
        MOV     A,R6
        MOVX    @DPTR,A
        INC     DPTR
        MOV     A,R7
        MOVX    @DPTR,A
//  482 
//  483   return OSAL_NV_ITEM_NULL;
        MOV     R2,#0x0
        MOV     R3,#0x0
??initPage_14:
        MOV     A,#0x8
        LCALL   ?DEALLOC_XSTACK8
        CFI CFA_XSP16 add(XSP16, 20)
        MOV     R7,#0xc
        LJMP    ?BANKED_LEAVE_XDATA
        CFI EndBlock cfiBlock2
//  484 }
//  485 
//  486 /*********************************************************************
//  487  * @fn      erasePage
//  488  *
//  489  * @brief   Erases a page in Flash.
//  490  *
//  491  * @param   pg - Valid NV page to erase.
//  492  *
//  493  * @return  none
//  494  */

        RSEG BANKED_CODE:CODE:NOROOT(0)
//  495 static void erasePage( uint8 pg )
erasePage:
        CFI Block cfiBlock3 Using cfiCommon0
        CFI Function erasePage
        CODE
//  496 {
        FUNCALL erasePage, HalFlashErase
        LOCFRAME ISTACK, 0, STACK
        LOCFRAME PSTACK, 0, STACK
        LOCFRAME XSTACK, 9, STACK
        LOCFRAME IOVERLAY, 0, STATIC
        LOCFRAME DOVERLAY, 0, STATIC
        ARGFRAME ISTACK, 0, STACK
        ARGFRAME PSTACK, 0, STACK
        ARGFRAME XSTACK, 9, STACK
        ARGFRAME IOVERLAY, 0, STATIC
        ARGFRAME DOVERLAY, 0, STATIC
        MOV     A,#-0x9
        LCALL   ?BANKED_ENTER_XDATA
        CFI DPH0 load(1, XDATA, add(CFA_XSP16, literal(-1)))
        CFI DPL0 load(1, XDATA, add(CFA_XSP16, literal(-2)))
        CFI ?BRET_EXT load(1, XDATA, add(CFA_XSP16, literal(-3)))
        CFI ?RET_HIGH load(1, XDATA, add(CFA_XSP16, literal(-4)))
        CFI ?RET_LOW load(1, XDATA, add(CFA_XSP16, literal(-5)))
        CFI R7 load(1, XDATA, add(CFA_XSP16, literal(-6)))
        CFI V0 load(1, XDATA, add(CFA_XSP16, literal(-7)))
        CFI VB load(1, XDATA, add(CFA_XSP16, literal(-8)))
        CFI R6 load(1, XDATA, add(CFA_XSP16, literal(-9)))
        CFI CFA_SP SP+0
        CFI CFA_XSP16 add(XSP16, 9)
        ; Saved register size: 9
        ; Auto size: 0
        MOV     A,R1
        MOV     R6,A
//  497   HalFlashErase(pg);
        ; Setup parameters for call to function HalFlashErase
        MOV     A,R6
        MOV     R1,A
        LCALL   ??HalFlashErase?relay
//  498 
//  499   pgOff[pg - OSAL_NV_PAGE_BEG] = OSAL_NV_PAGE_HDR_SIZE;
        MOV     A,R6
        MOV     R0,A
        MOV     R1,#0x0
        MOV     A,R0
        MOV     B,#0x2
        MUL     AB
        XCH     A,R0
        MOV     R2,B
        MOV     B,#0x0
        MUL     AB
        ADD     A,R2
        MOV     R2,A
        MOV     B,#0x2
        MOV     A,R1
        MUL     AB
        ADD     A,R2
        MOV     R1,A
        MOV     A,#(pgOff + 14) & 0xff
        ADD     A,R0
        MOV     DPL,A
        MOV     A,#((pgOff - 242) >> 8) & 0xff
        ADDC    A,R1
        MOV     DPH,A
        MOV     A,#0x8
        MOVX    @DPTR,A
        INC     DPTR
        MOV     A,#0x0
        MOVX    @DPTR,A
//  500   pgLost[pg - OSAL_NV_PAGE_BEG] = 0;
        MOV     A,R6
        MOV     R0,A
        MOV     R1,#0x0
        MOV     A,R0
        MOV     B,#0x2
        MUL     AB
        XCH     A,R0
        MOV     R2,B
        MOV     B,#0x0
        MUL     AB
        ADD     A,R2
        MOV     R2,A
        MOV     B,#0x2
        MOV     A,R1
        MUL     AB
        ADD     A,R2
        MOV     R1,A
        MOV     A,#(pgLost + 14) & 0xff
        ADD     A,R0
        MOV     DPL,A
        MOV     A,#((pgLost - 242) >> 8) & 0xff
        ADDC    A,R1
        MOV     DPH,A
        MOV     A,#0x0
        MOVX    @DPTR,A
        INC     DPTR
        MOV     A,#0x0
        MOVX    @DPTR,A
//  501 }
        MOV     R7,#0x1
        LJMP    ?BANKED_LEAVE_XDATA
        CFI EndBlock cfiBlock3
//  502 
//  503 /*********************************************************************
//  504  * @fn      compactPage
//  505  *
//  506  * @brief   Compacts the page specified.
//  507  *
//  508  * @param   srcPg - Valid NV page to erase.
//  509  * @param   skipId - Item Id to not compact.
//  510  *
//  511  * @return  TRUE if valid items from 'srcPg' are successully compacted onto the 'pgRes';
//  512  *          FALSE otherwise.
//  513  *          Note that on a failure, this could loop, re-erasing the 'pgRes' and re-compacting with
//  514  *          the risk of infinitely looping on HAL flash failure.
//  515  *          Worst case scenario: HAL flash starts failing in general, perhaps low Vdd?
//  516  *          All page compactions will fail which will cause all osal_nv_write() calls to return
//  517  *          NV_OPER_FAILED.
//  518  *          Eventually, all pages in use may also be in the state of "pending compaction" where
//  519  *          the page header member OSAL_NV_PG_XFER is zeroed out.
//  520  *          During this "HAL flash brown-out", the code will run and OTA should work (until low Vdd
//  521  *          causes an actual chip brown-out, of course.) Although no new NV items will be created
//  522  *          or written, the last value written with a return value of SUCCESS can continue to be
//  523  *          read successfully.
//  524  *          If eventually HAL flash starts working again, all of the pages marked as
//  525  *          "pending compaction" may or may not be eventually compacted. But, initNV() will
//  526  *          deterministically clean-up one page pending compaction per power-cycle
//  527  *          (if HAL flash is working.) Nevertheless, one erased reserve page will be maintained
//  528  *          through such a scenario.
//  529  */

        RSEG BANKED_CODE:CODE:NOROOT(0)
//  530 static uint8 compactPage( uint8 srcPg, uint16 skipId )
compactPage:
        CFI Block cfiBlock4 Using cfiCommon0
        CFI Function compactPage
        CODE
//  531 {
        FUNCALL compactPage, HalFlashRead
        LOCFRAME ISTACK, 0, STACK
        LOCFRAME PSTACK, 0, STACK
        LOCFRAME XSTACK, 29, STACK
        LOCFRAME IOVERLAY, 0, STATIC
        LOCFRAME DOVERLAY, 0, STATIC
        ARGFRAME ISTACK, 0, STACK
        ARGFRAME PSTACK, 0, STACK
        ARGFRAME XSTACK, 29, STACK
        ARGFRAME IOVERLAY, 0, STATIC
        ARGFRAME DOVERLAY, 0, STATIC
        FUNCALL compactPage, erasePage
        LOCFRAME ISTACK, 0, STACK
        LOCFRAME PSTACK, 0, STACK
        LOCFRAME XSTACK, 27, STACK
        LOCFRAME IOVERLAY, 0, STATIC
        LOCFRAME DOVERLAY, 0, STATIC
        ARGFRAME ISTACK, 0, STACK
        ARGFRAME PSTACK, 0, STACK
        ARGFRAME XSTACK, 27, STACK
        ARGFRAME IOVERLAY, 0, STATIC
        ARGFRAME DOVERLAY, 0, STATIC
        FUNCALL compactPage, HalFlashRead
        LOCFRAME ISTACK, 0, STACK
        LOCFRAME PSTACK, 0, STACK
        LOCFRAME XSTACK, 29, STACK
        LOCFRAME IOVERLAY, 0, STATIC
        LOCFRAME DOVERLAY, 0, STATIC
        ARGFRAME ISTACK, 0, STACK
        ARGFRAME PSTACK, 0, STACK
        ARGFRAME XSTACK, 29, STACK
        ARGFRAME IOVERLAY, 0, STATIC
        ARGFRAME DOVERLAY, 0, STATIC
        FUNCALL compactPage, calcChkF
        LOCFRAME ISTACK, 0, STACK
        LOCFRAME PSTACK, 0, STACK
        LOCFRAME XSTACK, 27, STACK
        LOCFRAME IOVERLAY, 0, STATIC
        LOCFRAME DOVERLAY, 0, STATIC
        ARGFRAME ISTACK, 0, STACK
        ARGFRAME PSTACK, 0, STACK
        ARGFRAME XSTACK, 27, STACK
        ARGFRAME IOVERLAY, 0, STATIC
        ARGFRAME DOVERLAY, 0, STATIC
        FUNCALL compactPage, setItem
        LOCFRAME ISTACK, 0, STACK
        LOCFRAME PSTACK, 0, STACK
        LOCFRAME XSTACK, 27, STACK
        LOCFRAME IOVERLAY, 0, STATIC
        LOCFRAME DOVERLAY, 0, STATIC
        ARGFRAME ISTACK, 0, STACK
        ARGFRAME PSTACK, 0, STACK
        ARGFRAME XSTACK, 27, STACK
        ARGFRAME IOVERLAY, 0, STATIC
        ARGFRAME DOVERLAY, 0, STATIC
        FUNCALL compactPage, writeItem
        LOCFRAME ISTACK, 0, STACK
        LOCFRAME PSTACK, 0, STACK
        LOCFRAME XSTACK, 30, STACK
        LOCFRAME IOVERLAY, 0, STATIC
        LOCFRAME DOVERLAY, 0, STATIC
        ARGFRAME ISTACK, 0, STACK
        ARGFRAME PSTACK, 0, STACK
        ARGFRAME XSTACK, 30, STACK
        ARGFRAME IOVERLAY, 0, STATIC
        ARGFRAME DOVERLAY, 0, STATIC
        FUNCALL compactPage, xferBuf
        LOCFRAME ISTACK, 0, STACK
        LOCFRAME PSTACK, 0, STACK
        LOCFRAME XSTACK, 31, STACK
        LOCFRAME IOVERLAY, 0, STATIC
        LOCFRAME DOVERLAY, 0, STATIC
        ARGFRAME ISTACK, 0, STACK
        ARGFRAME PSTACK, 0, STACK
        ARGFRAME XSTACK, 31, STACK
        ARGFRAME IOVERLAY, 0, STATIC
        ARGFRAME DOVERLAY, 0, STATIC
        FUNCALL compactPage, calcChkF
        LOCFRAME ISTACK, 0, STACK
        LOCFRAME PSTACK, 0, STACK
        LOCFRAME XSTACK, 27, STACK
        LOCFRAME IOVERLAY, 0, STATIC
        LOCFRAME DOVERLAY, 0, STATIC
        ARGFRAME ISTACK, 0, STACK
        ARGFRAME PSTACK, 0, STACK
        ARGFRAME XSTACK, 27, STACK
        ARGFRAME IOVERLAY, 0, STATIC
        ARGFRAME DOVERLAY, 0, STATIC
        FUNCALL compactPage, setChk
        LOCFRAME ISTACK, 0, STACK
        LOCFRAME PSTACK, 0, STACK
        LOCFRAME XSTACK, 27, STACK
        LOCFRAME IOVERLAY, 0, STATIC
        LOCFRAME DOVERLAY, 0, STATIC
        ARGFRAME ISTACK, 0, STACK
        ARGFRAME PSTACK, 0, STACK
        ARGFRAME XSTACK, 27, STACK
        ARGFRAME IOVERLAY, 0, STATIC
        ARGFRAME DOVERLAY, 0, STATIC
        FUNCALL compactPage, hotItemUpdate
        LOCFRAME ISTACK, 0, STACK
        LOCFRAME PSTACK, 0, STACK
        LOCFRAME XSTACK, 27, STACK
        LOCFRAME IOVERLAY, 0, STATIC
        LOCFRAME DOVERLAY, 0, STATIC
        ARGFRAME ISTACK, 0, STACK
        ARGFRAME PSTACK, 0, STACK
        ARGFRAME XSTACK, 27, STACK
        ARGFRAME IOVERLAY, 0, STATIC
        ARGFRAME DOVERLAY, 0, STATIC
        FUNCALL compactPage, erasePage
        LOCFRAME ISTACK, 0, STACK
        LOCFRAME PSTACK, 0, STACK
        LOCFRAME XSTACK, 27, STACK
        LOCFRAME IOVERLAY, 0, STATIC
        LOCFRAME DOVERLAY, 0, STATIC
        ARGFRAME ISTACK, 0, STACK
        ARGFRAME PSTACK, 0, STACK
        ARGFRAME XSTACK, 27, STACK
        ARGFRAME IOVERLAY, 0, STATIC
        ARGFRAME DOVERLAY, 0, STATIC
        FUNCALL compactPage, setPageUse
        LOCFRAME ISTACK, 0, STACK
        LOCFRAME PSTACK, 0, STACK
        LOCFRAME XSTACK, 27, STACK
        LOCFRAME IOVERLAY, 0, STATIC
        LOCFRAME DOVERLAY, 0, STATIC
        ARGFRAME ISTACK, 0, STACK
        ARGFRAME PSTACK, 0, STACK
        ARGFRAME XSTACK, 27, STACK
        ARGFRAME IOVERLAY, 0, STATIC
        ARGFRAME DOVERLAY, 0, STATIC
        FUNCALL compactPage, erasePage
        LOCFRAME ISTACK, 0, STACK
        LOCFRAME PSTACK, 0, STACK
        LOCFRAME XSTACK, 27, STACK
        LOCFRAME IOVERLAY, 0, STATIC
        LOCFRAME DOVERLAY, 0, STATIC
        ARGFRAME ISTACK, 0, STACK
        ARGFRAME PSTACK, 0, STACK
        ARGFRAME XSTACK, 27, STACK
        ARGFRAME IOVERLAY, 0, STATIC
        ARGFRAME DOVERLAY, 0, STATIC
        MOV     A,#-0x12
        LCALL   ?BANKED_ENTER_XDATA
        CFI DPH0 load(1, XDATA, add(CFA_XSP16, literal(-1)))
        CFI DPL0 load(1, XDATA, add(CFA_XSP16, literal(-2)))
        CFI ?BRET_EXT load(1, XDATA, add(CFA_XSP16, literal(-3)))
        CFI ?RET_HIGH load(1, XDATA, add(CFA_XSP16, literal(-4)))
        CFI ?RET_LOW load(1, XDATA, add(CFA_XSP16, literal(-5)))
        CFI R7 load(1, XDATA, add(CFA_XSP16, literal(-6)))
        CFI V9 load(1, XDATA, add(CFA_XSP16, literal(-7)))
        CFI V8 load(1, XDATA, add(CFA_XSP16, literal(-8)))
        CFI V7 load(1, XDATA, add(CFA_XSP16, literal(-9)))
        CFI V6 load(1, XDATA, add(CFA_XSP16, literal(-10)))
        CFI V5 load(1, XDATA, add(CFA_XSP16, literal(-11)))
        CFI V4 load(1, XDATA, add(CFA_XSP16, literal(-12)))
        CFI V3 load(1, XDATA, add(CFA_XSP16, literal(-13)))
        CFI V2 load(1, XDATA, add(CFA_XSP16, literal(-14)))
        CFI V1 load(1, XDATA, add(CFA_XSP16, literal(-15)))
        CFI V0 load(1, XDATA, add(CFA_XSP16, literal(-16)))
        CFI VB load(1, XDATA, add(CFA_XSP16, literal(-17)))
        CFI R6 load(1, XDATA, add(CFA_XSP16, literal(-18)))
        CFI CFA_SP SP+0
        CFI CFA_XSP16 add(XSP16, 18)
        ; Saved register size: 18
        ; Auto size: 9
        MOV     A,#-0x9
        LCALL   ?ALLOC_XSTACK8
        CFI CFA_XSP16 add(XSP16, 27)
        MOV     ?V0 + 0,R1
        MOV     ?V0 + 2,R2
        MOV     ?V0 + 3,R3
//  532   uint16 srcOff;
//  533   uint8 rtrn;
//  534 
//  535   // To minimize code size, only check for a clean page here where it's absolutely required.
//  536   for (srcOff = 0; srcOff < OSAL_NV_PAGE_SIZE; srcOff++)
        MOV     R6,#0x0
        MOV     R7,#0x0
??compactPage_0:
        CLR     C
        MOV     A,R6
        SUBB    A,#0x0
        MOV     A,R7
        SUBB    A,#0x8
        JNC     ??compactPage_1
//  537   {
//  538     HalFlashRead(pgRes, srcOff, &rtrn, 1);
        ; Setup parameters for call to function HalFlashRead
        MOV     ?V0 + 4,#0x1
        MOV     ?V0 + 5,#0x0
        MOV     R0,#?V0 + 4
        LCALL   ?PUSH_XSTACK_I_TWO
        CFI CFA_XSP16 add(XSP16, 29)
        MOV     A,#0x2
        LCALL   ?XSTACK_DISP0_8
        MOV     R4,DPL
        MOV     R5,DPH
        MOV     A,R6
        MOV     R2,A
        MOV     A,R7
        MOV     R3,A
        MOV     DPTR,#pgRes
        MOVX    A,@DPTR
        MOV     R1,A
        LCALL   ??HalFlashRead?relay
        MOV     A,#0x2
        LCALL   ?DEALLOC_XSTACK8
        CFI CFA_XSP16 add(XSP16, 27)
//  539     if (rtrn != OSAL_NV_ERASED)
        MOV     DPL,?XSP + 0
        MOV     DPH,?XSP + 1
        MOVX    A,@DPTR
        XRL     A,#0xff
        JZ      ??compactPage_2
//  540     {
//  541       erasePage(pgRes);
        ; Setup parameters for call to function erasePage
        MOV     DPTR,#pgRes
        MOVX    A,@DPTR
        MOV     R1,A
        LCALL   ??erasePage?relay
//  542       return FALSE;
        MOV     R1,#0x0
        LJMP    ??compactPage_3 & 0xFFFF
//  543     }
//  544   }
??compactPage_2:
        MOV     A,R6
        ADD     A,#0x1
        MOV     R6,A
        MOV     A,R7
        ADDC    A,#0x0
        MOV     R7,A
        SJMP    ??compactPage_0
//  545 
//  546   srcOff = OSAL_NV_PAGE_HDR_SIZE;
??compactPage_1:
        MOV     R6,#0x8
        MOV     R7,#0x0
//  547   rtrn = TRUE;
        MOV     DPL,?XSP + 0
        MOV     DPH,?XSP + 1
        MOV     A,#0x1
        MOVX    @DPTR,A
//  548 
//  549   while ( srcOff < (OSAL_NV_PAGE_SIZE - OSAL_NV_HDR_SIZE ) )
??compactPage_4:
        CLR     C
        MOV     A,R6
        SUBB    A,#-0x8
        MOV     A,R7
        SUBB    A,#0x7
        JC      $+5
        LJMP    ??compactPage_5 & 0xFFFF
//  550   {
//  551     osalNvHdr_t hdr;
//  552     uint16 sz, dstOff = pgOff[pgRes-OSAL_NV_PAGE_BEG];
        MOV     DPTR,#pgRes
        MOVX    A,@DPTR
        MOV     R0,A
        MOV     R1,#0x0
        MOV     A,R0
        MOV     B,#0x2
        MUL     AB
        XCH     A,R0
        MOV     R2,B
        MOV     B,#0x0
        MUL     AB
        ADD     A,R2
        MOV     R2,A
        MOV     B,#0x2
        MOV     A,R1
        MUL     AB
        ADD     A,R2
        MOV     R1,A
        MOV     A,#(pgOff + 14) & 0xff
        ADD     A,R0
        MOV     DPL,A
        MOV     A,#((pgOff - 242) >> 8) & 0xff
        ADDC    A,R1
        MOV     DPH,A
        MOVX    A,@DPTR
        MOV     ?V0 + 6,A
        INC     DPTR
        MOVX    A,@DPTR
        MOV     ?V0 + 7,A
//  553 
//  554     HalFlashRead(srcPg, srcOff, (uint8 *)(&hdr), OSAL_NV_HDR_SIZE);
        ; Setup parameters for call to function HalFlashRead
        MOV     ?V0 + 8,#0x8
        MOV     ?V0 + 9,#0x0
        MOV     R0,#?V0 + 8
        LCALL   ?PUSH_XSTACK_I_TWO
        CFI CFA_XSP16 add(XSP16, 29)
        MOV     A,#0x3
        LCALL   ?XSTACK_DISP0_8
        MOV     R4,DPL
        MOV     R5,DPH
        MOV     A,R6
        MOV     R2,A
        MOV     A,R7
        MOV     R3,A
        MOV     R1,?V0 + 0
        LCALL   ??HalFlashRead?relay
        MOV     A,#0x2
        LCALL   ?DEALLOC_XSTACK8
        CFI CFA_XSP16 add(XSP16, 27)
//  555 
//  556     if ( hdr.id == OSAL_NV_ERASED_ID )
        MOV     A,#0x1
        LCALL   ?XSTACK_DISP0_8
        MOVX    A,@DPTR
        XRL     A,#0xff
        JNZ     ??compactPage_6
        INC     DPTR
        MOVX    A,@DPTR
        XRL     A,#0xff
??compactPage_6:
        JNZ     $+5
        LJMP    ??compactPage_5 & 0xFFFF
//  557     {
//  558       break;
//  559     }
//  560 
//  561     // Get the actual size in bytes which is the ceiling(hdr.len)
//  562     sz = OSAL_NV_DATA_SIZE( hdr.len );
        MOV     A,#0x3
        LCALL   ?XSTACK_DISP0_8
        CLR     C
        MOVX    A,@DPTR
        SUBB    A,#-0x4
        INC     DPTR
        MOVX    A,@DPTR
        SUBB    A,#-0x1
        JC      ??compactPage_7
        MOV     ?V0 + 4,#-0x4
        MOV     ?V0 + 5,#-0x1
        SJMP    ??compactPage_8
??compactPage_7:
        MOV     A,#0x3
        LCALL   ?XSTACK_DISP0_8
        MOVX    A,@DPTR
        ADD     A,#0x3
        MOV     ?V0 + 4,A
        INC     DPTR
        MOVX    A,@DPTR
        ADDC    A,#0x0
        MOV     ?V0 + 5,A
        MOV     A,#0x2
        MOV     R0,#?V0 + 4
        LCALL   ?US_SHR
        MOV     A,?V0 + 4
        MOV     B,#0x4
        MUL     AB
        XCH     A,?V0 + 4
        MOV     R0,B
        MOV     B,#0x0
        MUL     AB
        ADD     A,R0
        MOV     R0,A
        MOV     B,#0x4
        MOV     A,?V0 + 5
        MUL     AB
        ADD     A,R0
        MOV     ?V0 + 5,A
//  563 
//  564     if ( sz > (OSAL_NV_PAGE_SIZE - OSAL_NV_HDR_SIZE - srcOff) )
??compactPage_8:
        MOV     A,#-0x8
        CLR     C
        SUBB    A,R6
        MOV     R0,A
        MOV     A,#0x7
        SUBB    A,R7
        MOV     R1,A
        CLR     C
        MOV     A,R0
        SUBB    A,?V0 + 4
        MOV     A,R1
        SUBB    A,?V0 + 5
        JNC     $+5
        LJMP    ??compactPage_5 & 0xFFFF
//  565     {
//  566       break;
//  567     }
//  568 
//  569     if ( sz > (OSAL_NV_PAGE_SIZE - OSAL_NV_HDR_SIZE - dstOff) )
        MOV     A,#-0x8
        CLR     C
        SUBB    A,?V0 + 6
        MOV     R0,A
        MOV     A,#0x7
        SUBB    A,?V0 + 7
        MOV     R1,A
        CLR     C
        MOV     A,R0
        SUBB    A,?V0 + 4
        MOV     A,R1
        SUBB    A,?V0 + 5
        JNC     ??compactPage_9
//  570     {
//  571       rtrn = FALSE;
        MOV     DPL,?XSP + 0
        MOV     DPH,?XSP + 1
        MOV     A,#0x0
        MOVX    @DPTR,A
//  572       break;
        LJMP    ??compactPage_5 & 0xFFFF
//  573     }
//  574 
//  575     srcOff += OSAL_NV_HDR_SIZE;
??compactPage_9:
        MOV     A,R6
        ADD     A,#0x8
        MOV     R6,A
        MOV     A,R7
        ADDC    A,#0x0
        MOV     R7,A
//  576 
//  577     if ( (hdr.id != OSAL_NV_ZEROED_ID) && (hdr.id != skipId) )
        MOV     A,#0x1
        LCALL   ?XSTACK_DISP0_8
        MOVX    A,@DPTR
        MOV     R0,A
        INC     DPTR
        MOVX    A,@DPTR
        MOV     R1,A
        MOV     A,R0
        ORL     A,R1
        JNZ     $+5
        LJMP    ??compactPage_10 & 0xFFFF
        MOV     A,#0x1
        LCALL   ?XSTACK_DISP0_8
        MOVX    A,@DPTR
        XRL     A,?V0 + 2
        JNZ     ??compactPage_11
        INC     DPTR
        MOVX    A,@DPTR
        XRL     A,?V0 + 3
??compactPage_11:
        JNZ     $+5
        LJMP    ??compactPage_10 & 0xFFFF
//  578     {
//  579       if ( hdr.chk == calcChkF( srcPg, srcOff, hdr.len ) )
        ; Setup parameters for call to function calcChkF
        MOV     A,#0x3
        LCALL   ?XSTACK_DISP0_8
        MOVX    A,@DPTR
        MOV     R4,A
        INC     DPTR
        MOVX    A,@DPTR
        MOV     R5,A
        MOV     A,R6
        MOV     R2,A
        MOV     A,R7
        MOV     R3,A
        MOV     R1,?V0 + 0
        LCALL   ??calcChkF?relay
        MOV     ?V0 + 8,R2
        MOV     ?V0 + 9,R3
        MOV     R0,?V0 + 8
        MOV     R1,?V0 + 9
        MOV     A,#0x5
        LCALL   ?XSTACK_DISP0_8
        MOVX    A,@DPTR
        XRL     A,R0
        JNZ     ??compactPage_12
        INC     DPTR
        MOVX    A,@DPTR
        XRL     A,R1
??compactPage_12:
        JZ      $+5
        LJMP    ??compactPage_10 & 0xFFFF
//  580       {
//  581         /* Prevent excessive re-writes to item header caused by numerous, rapid, & successive
//  582          * OSAL_Nv interruptions caused by resets.
//  583          */
//  584         if ( hdr.stat == OSAL_NV_ERASED_ID )
        MOV     A,#0x7
        LCALL   ?XSTACK_DISP0_8
        MOVX    A,@DPTR
        XRL     A,#0xff
        JNZ     ??compactPage_13
        INC     DPTR
        MOVX    A,@DPTR
        XRL     A,#0xff
??compactPage_13:
        JNZ     ??compactPage_14
//  585         {
//  586           setItem( srcPg, srcOff, eNvXfer );
        ; Setup parameters for call to function setItem
        MOV     R4,#0x0
        MOV     A,R6
        MOV     R2,A
        MOV     A,R7
        MOV     R3,A
        MOV     R1,?V0 + 0
        LCALL   ??setItem?relay
//  587         }
//  588 
//  589         if ( writeItem( pgRes, hdr.id, hdr.len, NULL, FALSE ) )
??compactPage_14:
        ; Setup parameters for call to function writeItem
        MOV     ?V0 + 1,#0x0
        MOV     R0,#?V0 + 1
        LCALL   ?PUSH_XSTACK_I_ONE
        CFI CFA_XSP16 add(XSP16, 28)
        CLR     A
        MOV     ?V0 + 8,A
        MOV     ?V0 + 9,A
        MOV     R0,#?V0 + 8
        LCALL   ?PUSH_XSTACK_I_TWO
        CFI CFA_XSP16 add(XSP16, 30)
        MOV     A,#0x6
        LCALL   ?XSTACK_DISP0_8
        MOVX    A,@DPTR
        MOV     R4,A
        INC     DPTR
        MOVX    A,@DPTR
        MOV     R5,A
        MOV     A,#0x4
        LCALL   ?XSTACK_DISP0_8
        MOVX    A,@DPTR
        MOV     R2,A
        INC     DPTR
        MOVX    A,@DPTR
        MOV     R3,A
        MOV     DPTR,#pgRes
        MOVX    A,@DPTR
        MOV     R1,A
        LCALL   ??writeItem?relay
        MOV     A,#0x3
        LCALL   ?DEALLOC_XSTACK8
        CFI CFA_XSP16 add(XSP16, 27)
        MOV     A,R1
        JNZ     $+5
        LJMP    ??compactPage_15 & 0xFFFF
//  590         {
//  591           dstOff += OSAL_NV_HDR_SIZE;
        MOV     A,?V0 + 6
        ADD     A,#0x8
        MOV     ?V0 + 6,A
        MOV     A,?V0 + 7
        ADDC    A,#0x0
        MOV     ?V0 + 7,A
//  592           xferBuf( srcPg, srcOff, pgRes, dstOff, sz );
        ; Setup parameters for call to function xferBuf
        MOV     R0,#?V0 + 4
        LCALL   ?PUSH_XSTACK_I_TWO
        CFI CFA_XSP16 add(XSP16, 29)
        MOV     R0,#?V0 + 6
        LCALL   ?PUSH_XSTACK_I_TWO
        CFI CFA_XSP16 add(XSP16, 31)
        MOV     DPTR,#pgRes
        MOVX    A,@DPTR
        MOV     R4,A
        MOV     A,R6
        MOV     R2,A
        MOV     A,R7
        MOV     R3,A
        MOV     R1,?V0 + 0
        LCALL   ??xferBuf?relay
        MOV     A,#0x4
        LCALL   ?DEALLOC_XSTACK8
        CFI CFA_XSP16 add(XSP16, 27)
//  593           // Calculate and write the new checksum.
//  594           if (hdr.chk == calcChkF(pgRes, dstOff, hdr.len))
        ; Setup parameters for call to function calcChkF
        MOV     A,#0x3
        LCALL   ?XSTACK_DISP0_8
        MOVX    A,@DPTR
        MOV     R4,A
        INC     DPTR
        MOVX    A,@DPTR
        MOV     R5,A
        MOV     R2,?V0 + 6
        MOV     R3,?V0 + 7
        MOV     DPTR,#pgRes
        MOVX    A,@DPTR
        MOV     R1,A
        LCALL   ??calcChkF?relay
        MOV     ?V0 + 8,R2
        MOV     ?V0 + 9,R3
        MOV     R0,?V0 + 8
        MOV     R1,?V0 + 9
        MOV     A,#0x5
        LCALL   ?XSTACK_DISP0_8
        MOVX    A,@DPTR
        XRL     A,R0
        JNZ     ??compactPage_16
        INC     DPTR
        MOVX    A,@DPTR
        XRL     A,R1
??compactPage_16:
        JNZ     ??compactPage_17
//  595           {
//  596             if ( hdr.chk != setChk( pgRes, dstOff, hdr.chk ) )
        ; Setup parameters for call to function setChk
        MOV     A,#0x5
        LCALL   ?XSTACK_DISP0_8
        MOVX    A,@DPTR
        MOV     R4,A
        INC     DPTR
        MOVX    A,@DPTR
        MOV     R5,A
        MOV     R2,?V0 + 6
        MOV     R3,?V0 + 7
        MOV     DPTR,#pgRes
        MOVX    A,@DPTR
        MOV     R1,A
        LCALL   ??setChk?relay
        MOV     ?V0 + 8,R2
        MOV     ?V0 + 9,R3
        MOV     R0,?V0 + 8
        MOV     R1,?V0 + 9
        MOV     A,#0x5
        LCALL   ?XSTACK_DISP0_8
        MOVX    A,@DPTR
        XRL     A,R0
        JNZ     ??compactPage_18
        INC     DPTR
        MOVX    A,@DPTR
        XRL     A,R1
??compactPage_18:
        JZ      ??compactPage_19
//  597             {
//  598               rtrn = FALSE;
        MOV     DPL,?XSP + 0
        MOV     DPH,?XSP + 1
        MOV     A,#0x0
        MOVX    @DPTR,A
//  599               break;
        SJMP    ??compactPage_5
//  600             }
//  601             else
//  602             {
//  603               hotItemUpdate(pgRes, dstOff, hdr.id);
??compactPage_19:
        ; Setup parameters for call to function hotItemUpdate
        MOV     A,#0x1
        LCALL   ?XSTACK_DISP0_8
        MOVX    A,@DPTR
        MOV     R4,A
        INC     DPTR
        MOVX    A,@DPTR
        MOV     R5,A
        MOV     R2,?V0 + 6
        MOV     R3,?V0 + 7
        MOV     DPTR,#pgRes
        MOVX    A,@DPTR
        MOV     R1,A
        LCALL   ??hotItemUpdate?relay
        SJMP    ??compactPage_10
//  604             }
//  605           }
//  606           else
//  607           {
//  608             rtrn = FALSE;
??compactPage_17:
        MOV     DPL,?XSP + 0
        MOV     DPH,?XSP + 1
        MOV     A,#0x0
        MOVX    @DPTR,A
//  609             break;
        SJMP    ??compactPage_5
//  610           }
//  611         }
//  612         else
//  613         {
//  614           rtrn = FALSE;
??compactPage_15:
        MOV     DPL,?XSP + 0
        MOV     DPH,?XSP + 1
        MOV     A,#0x0
        MOVX    @DPTR,A
//  615           break;
        SJMP    ??compactPage_5
//  616         }
//  617       }
//  618     }
//  619 
//  620     srcOff += sz;
??compactPage_10:
        MOV     A,R6
        ADD     A,?V0 + 4
        MOV     R6,A
        MOV     A,R7
        ADDC    A,?V0 + 5
        MOV     R7,A
        LJMP    ??compactPage_4 & 0xFFFF
//  621   }
//  622 
//  623   if (rtrn == FALSE)
??compactPage_5:
        MOV     DPL,?XSP + 0
        MOV     DPH,?XSP + 1
        MOVX    A,@DPTR
        JNZ     ??compactPage_20
//  624   {
//  625     erasePage(pgRes);
        ; Setup parameters for call to function erasePage
        MOV     DPTR,#pgRes
        MOVX    A,@DPTR
        MOV     R1,A
        LCALL   ??erasePage?relay
        SJMP    ??compactPage_21
//  626   }
//  627   else if (skipId == OSAL_NV_ITEM_NULL)
??compactPage_20:
        MOV     A,?V0 + 2
        ORL     A,?V0 + 3
        JNZ     ??compactPage_21
//  628   {
//  629     COMPACT_PAGE_CLEANUP(srcPg);
        ; Setup parameters for call to function setPageUse
        MOV     R2,#0x1
        MOV     DPTR,#pgRes
        MOVX    A,@DPTR
        MOV     R1,A
        LCALL   ??setPageUse?relay
        ; Setup parameters for call to function erasePage
        MOV     R1,?V0 + 0
        LCALL   ??erasePage?relay
        MOV     A,?V0 + 0
        MOV     DPTR,#pgRes
        MOVX    @DPTR,A
//  630   }
//  631   // else invoking function must cleanup.
//  632 
//  633   return rtrn;
??compactPage_21:
        MOV     DPL,?XSP + 0
        MOV     DPH,?XSP + 1
        MOVX    A,@DPTR
        MOV     R1,A
??compactPage_3:
        MOV     A,#0x9
        LCALL   ?DEALLOC_XSTACK8
        CFI CFA_XSP16 add(XSP16, 18)
        MOV     R7,#0xa
        LJMP    ?BANKED_LEAVE_XDATA
        CFI EndBlock cfiBlock4
//  634 }
//  635 
//  636 /*********************************************************************
//  637  * @fn      findItem
//  638  *
//  639  * @brief   Find an item Id in NV and return the page and offset to its data.
//  640  *
//  641  * @param   id - Valid NV item Id.
//  642  *
//  643  * @return  Offset of data corresponding to item Id, if found;
//  644  *          otherwise OSAL_NV_ITEM_NULL.
//  645  *
//  646  *          The page containing the item, if found;
//  647  *          otherwise no valid assignment made - left equal to item Id.
//  648  *
//  649  */

        RSEG BANKED_CODE:CODE:NOROOT(0)
//  650 static uint16 findItem( uint16 id )
findItem:
        CFI Block cfiBlock5 Using cfiCommon0
        CFI Function findItem
        CODE
//  651 {
        FUNCALL findItem, initPage
        LOCFRAME ISTACK, 0, STACK
        LOCFRAME PSTACK, 0, STACK
        LOCFRAME XSTACK, 14, STACK
        LOCFRAME IOVERLAY, 0, STATIC
        LOCFRAME DOVERLAY, 0, STATIC
        ARGFRAME ISTACK, 0, STACK
        ARGFRAME PSTACK, 0, STACK
        ARGFRAME XSTACK, 14, STACK
        ARGFRAME IOVERLAY, 0, STATIC
        ARGFRAME DOVERLAY, 0, STATIC
        FUNCALL findItem, findItem
        LOCFRAME ISTACK, 0, STACK
        LOCFRAME PSTACK, 0, STACK
        LOCFRAME XSTACK, 14, STACK
        LOCFRAME IOVERLAY, 0, STATIC
        LOCFRAME DOVERLAY, 0, STATIC
        ARGFRAME ISTACK, 0, STACK
        ARGFRAME PSTACK, 0, STACK
        ARGFRAME XSTACK, 14, STACK
        ARGFRAME IOVERLAY, 0, STATIC
        ARGFRAME DOVERLAY, 0, STATIC
        MOV     A,#-0xe
        LCALL   ?BANKED_ENTER_XDATA
        CFI DPH0 load(1, XDATA, add(CFA_XSP16, literal(-1)))
        CFI DPL0 load(1, XDATA, add(CFA_XSP16, literal(-2)))
        CFI ?BRET_EXT load(1, XDATA, add(CFA_XSP16, literal(-3)))
        CFI ?RET_HIGH load(1, XDATA, add(CFA_XSP16, literal(-4)))
        CFI ?RET_LOW load(1, XDATA, add(CFA_XSP16, literal(-5)))
        CFI R7 load(1, XDATA, add(CFA_XSP16, literal(-6)))
        CFI V5 load(1, XDATA, add(CFA_XSP16, literal(-7)))
        CFI V4 load(1, XDATA, add(CFA_XSP16, literal(-8)))
        CFI V3 load(1, XDATA, add(CFA_XSP16, literal(-9)))
        CFI V2 load(1, XDATA, add(CFA_XSP16, literal(-10)))
        CFI V1 load(1, XDATA, add(CFA_XSP16, literal(-11)))
        CFI V0 load(1, XDATA, add(CFA_XSP16, literal(-12)))
        CFI VB load(1, XDATA, add(CFA_XSP16, literal(-13)))
        CFI R6 load(1, XDATA, add(CFA_XSP16, literal(-14)))
        CFI CFA_SP SP+0
        CFI CFA_XSP16 add(XSP16, 14)
        ; Saved register size: 14
        ; Auto size: 0
        MOV     A,R2
        MOV     R6,A
        MOV     A,R3
        MOV     R7,A
//  652   uint16 off;
//  653   uint8 pg;
//  654 
//  655   for ( pg = OSAL_NV_PAGE_BEG; pg <= OSAL_NV_PAGE_END; pg++ )
        MOV     ?V0 + 2,#0x79
??findItem_0:
        MOV     A,?V0 + 2
        CLR     C
        SUBB    A,#0x7f
        JNC     ??findItem_1
//  656   {
//  657     if ( (off = initPage( pg, id, FALSE )) != OSAL_NV_ITEM_NULL )
        ; Setup parameters for call to function initPage
        MOV     R4,#0x0
        MOV     A,R6
        MOV     R2,A
        MOV     A,R7
        MOV     R3,A
        MOV     R1,?V0 + 2
        LCALL   ??initPage?relay
        MOV     ?V0 + 4,R2
        MOV     ?V0 + 5,R3
        MOV     R0,?V0 + 4
        MOV     R1,?V0 + 5
        MOV     ?V0 + 0,R0
        MOV     ?V0 + 1,R1
        MOV     A,R0
        ORL     A,R1
        JZ      ??findItem_2
//  658     {
//  659       findPg = pg;
        MOV     A,?V0 + 2
        MOV     DPTR,#findPg
        MOVX    @DPTR,A
//  660       return off;
        MOV     R2,?V0 + 0
        MOV     R3,?V0 + 1
        SJMP    ??findItem_3
//  661     }
//  662   }
??findItem_2:
        INC     ?V0 + 2
        SJMP    ??findItem_0
//  663 
//  664   // Now attempt to find the item as the "old" item of a failed/interrupted NV write.
//  665   if ( (id & OSAL_NV_SOURCE_ID) == 0 )
??findItem_1:
        MOV     A,R6
        ANL     A,#0x0
        MOV     R0,A
        MOV     A,R7
        ANL     A,#0x80
        MOV     R1,A
        MOV     A,R0
        ORL     A,R1
        JNZ     ??findItem_4
//  666   {
//  667     return findItem( id | OSAL_NV_SOURCE_ID );
        ; Setup parameters for call to function findItem
        MOV     A,R6
        ORL     A,#0x0
        MOV     R2,A
        MOV     A,R7
        ORL     A,#0x80
        MOV     R3,A
        LCALL   ??findItem?relay
        SJMP    ??findItem_3
//  668   }
//  669   else
//  670   {
//  671     findPg = OSAL_NV_PAGE_NULL;
??findItem_4:
        MOV     DPTR,#findPg
        MOV     A,#0x0
        MOVX    @DPTR,A
//  672     return OSAL_NV_ITEM_NULL;
        MOV     R2,#0x0
        MOV     R3,#0x0
??findItem_3:
        MOV     R7,#0x6
        LJMP    ?BANKED_LEAVE_XDATA
        CFI EndBlock cfiBlock5
//  673   }
//  674 }
//  675 
//  676 /*********************************************************************
//  677  * @fn      initItem
//  678  *
//  679  * @brief   An NV item is created and initialized with the data passed to the function, if any.
//  680  *
//  681  * @param   flag - TRUE if the 'buf' parameter contains data for the call to writeItem().
//  682  *                 (i.e. if invoked from osal_nv_item_init() ).
//  683  *                 FALSE if writeItem() should just write the header and the 'buf' parameter
//  684  *                 is ok to use as a return value of the page number to be cleaned with
//  685  *                 COMPACT_PAGE_CLEANUP().
//  686  *                 (i.e. if invoked from osal_nv_write() ).
//  687  * @param   id  - Valid NV item Id.
//  688  * @param   len - Item data length.
//  689  * @param  *buf - Pointer to item initalization data. Set to NULL if none.
//  690  *
//  691  * @return  The OSAL Nv page number if item write and read back checksums ok;
//  692  *          OSAL_NV_PAGE_NULL otherwise.
//  693  */

        RSEG BANKED_CODE:CODE:NOROOT(0)
//  694 static uint8 initItem( uint8 flag, uint16 id, uint16 len, void *buf )
initItem:
        CFI Block cfiBlock6 Using cfiCommon0
        CFI Function initItem
        CODE
//  695 {
        FUNCALL initItem, HalFlashRead
        LOCFRAME ISTACK, 0, STACK
        LOCFRAME PSTACK, 0, STACK
        LOCFRAME XSTACK, 30, STACK
        LOCFRAME IOVERLAY, 0, STATIC
        LOCFRAME DOVERLAY, 0, STATIC
        ARGFRAME ISTACK, 0, STACK
        ARGFRAME PSTACK, 0, STACK
        ARGFRAME XSTACK, 30, STACK
        ARGFRAME IOVERLAY, 0, STATIC
        ARGFRAME DOVERLAY, 0, STATIC
        FUNCALL initItem, writeWordH
        LOCFRAME ISTACK, 0, STACK
        LOCFRAME PSTACK, 0, STACK
        LOCFRAME XSTACK, 28, STACK
        LOCFRAME IOVERLAY, 0, STATIC
        LOCFRAME DOVERLAY, 0, STATIC
        ARGFRAME ISTACK, 0, STACK
        ARGFRAME PSTACK, 0, STACK
        ARGFRAME XSTACK, 28, STACK
        ARGFRAME IOVERLAY, 0, STATIC
        ARGFRAME DOVERLAY, 0, STATIC
        FUNCALL initItem, compactPage
        LOCFRAME ISTACK, 0, STACK
        LOCFRAME PSTACK, 0, STACK
        LOCFRAME XSTACK, 28, STACK
        LOCFRAME IOVERLAY, 0, STATIC
        LOCFRAME DOVERLAY, 0, STATIC
        ARGFRAME ISTACK, 0, STACK
        ARGFRAME PSTACK, 0, STACK
        ARGFRAME XSTACK, 28, STACK
        ARGFRAME IOVERLAY, 0, STATIC
        ARGFRAME DOVERLAY, 0, STATIC
        FUNCALL initItem, writeItem
        LOCFRAME ISTACK, 0, STACK
        LOCFRAME PSTACK, 0, STACK
        LOCFRAME XSTACK, 31, STACK
        LOCFRAME IOVERLAY, 0, STATIC
        LOCFRAME DOVERLAY, 0, STATIC
        ARGFRAME ISTACK, 0, STACK
        ARGFRAME PSTACK, 0, STACK
        ARGFRAME XSTACK, 31, STACK
        ARGFRAME IOVERLAY, 0, STATIC
        ARGFRAME DOVERLAY, 0, STATIC
        FUNCALL initItem, setPageUse
        LOCFRAME ISTACK, 0, STACK
        LOCFRAME PSTACK, 0, STACK
        LOCFRAME XSTACK, 28, STACK
        LOCFRAME IOVERLAY, 0, STATIC
        LOCFRAME DOVERLAY, 0, STATIC
        ARGFRAME ISTACK, 0, STACK
        ARGFRAME PSTACK, 0, STACK
        ARGFRAME XSTACK, 28, STACK
        ARGFRAME IOVERLAY, 0, STATIC
        ARGFRAME DOVERLAY, 0, STATIC
        FUNCALL initItem, erasePage
        LOCFRAME ISTACK, 0, STACK
        LOCFRAME PSTACK, 0, STACK
        LOCFRAME XSTACK, 28, STACK
        LOCFRAME IOVERLAY, 0, STATIC
        LOCFRAME DOVERLAY, 0, STATIC
        ARGFRAME ISTACK, 0, STACK
        ARGFRAME PSTACK, 0, STACK
        ARGFRAME XSTACK, 28, STACK
        ARGFRAME IOVERLAY, 0, STATIC
        ARGFRAME DOVERLAY, 0, STATIC
        FUNCALL initItem, writeItem
        LOCFRAME ISTACK, 0, STACK
        LOCFRAME PSTACK, 0, STACK
        LOCFRAME XSTACK, 31, STACK
        LOCFRAME IOVERLAY, 0, STATIC
        LOCFRAME DOVERLAY, 0, STATIC
        ARGFRAME ISTACK, 0, STACK
        ARGFRAME PSTACK, 0, STACK
        ARGFRAME XSTACK, 31, STACK
        ARGFRAME IOVERLAY, 0, STATIC
        ARGFRAME DOVERLAY, 0, STATIC
        MOV     A,#-0x12
        LCALL   ?BANKED_ENTER_XDATA
        CFI DPH0 load(1, XDATA, add(CFA_XSP16, literal(-1)))
        CFI DPL0 load(1, XDATA, add(CFA_XSP16, literal(-2)))
        CFI ?BRET_EXT load(1, XDATA, add(CFA_XSP16, literal(-3)))
        CFI ?RET_HIGH load(1, XDATA, add(CFA_XSP16, literal(-4)))
        CFI ?RET_LOW load(1, XDATA, add(CFA_XSP16, literal(-5)))
        CFI R7 load(1, XDATA, add(CFA_XSP16, literal(-6)))
        CFI V9 load(1, XDATA, add(CFA_XSP16, literal(-7)))
        CFI V8 load(1, XDATA, add(CFA_XSP16, literal(-8)))
        CFI V7 load(1, XDATA, add(CFA_XSP16, literal(-9)))
        CFI V6 load(1, XDATA, add(CFA_XSP16, literal(-10)))
        CFI V5 load(1, XDATA, add(CFA_XSP16, literal(-11)))
        CFI V4 load(1, XDATA, add(CFA_XSP16, literal(-12)))
        CFI V3 load(1, XDATA, add(CFA_XSP16, literal(-13)))
        CFI V2 load(1, XDATA, add(CFA_XSP16, literal(-14)))
        CFI V1 load(1, XDATA, add(CFA_XSP16, literal(-15)))
        CFI V0 load(1, XDATA, add(CFA_XSP16, literal(-16)))
        CFI VB load(1, XDATA, add(CFA_XSP16, literal(-17)))
        CFI R6 load(1, XDATA, add(CFA_XSP16, literal(-18)))
        CFI CFA_SP SP+0
        CFI CFA_XSP16 add(XSP16, 18)
        ; Saved register size: 18
        ; Auto size: 10
        MOV     A,#-0xa
        LCALL   ?ALLOC_XSTACK8
        CFI CFA_XSP16 add(XSP16, 28)
        MOV     ?V0 + 1,R1
        MOV     ?V0 + 4,R2
        MOV     ?V0 + 5,R3
        MOV     ?V0 + 2,R4
        MOV     ?V0 + 3,R5
        MOV     A,#0x1c
        LCALL   ?XSTACK_DISP0_8
        MOVX    A,@DPTR
        MOV     ?V0 + 6,A
        INC     DPTR
        MOVX    A,@DPTR
        MOV     ?V0 + 7,A
//  696   uint16 sz = OSAL_NV_ITEM_SIZE( len );
        CLR     C
        MOV     A,?V0 + 2
        SUBB    A,#-0xc
        MOV     A,?V0 + 3
        SUBB    A,#-0x1
        JC      ??initItem_0
        MOV     DPL,?XSP + 0
        MOV     DPH,?XSP + 1
        MOV     A,#-0x4
        MOVX    @DPTR,A
        INC     DPTR
        MOV     A,#-0x1
        MOVX    @DPTR,A
        SJMP    ??initItem_1
??initItem_0:
        MOV     A,?V0 + 2
        ADD     A,#0x3
        MOV     ?V0 + 8,A
        MOV     A,?V0 + 3
        ADDC    A,#0x0
        MOV     ?V0 + 9,A
        MOV     A,#0x2
        MOV     R0,#?V0 + 8
        LCALL   ?US_SHR
        MOV     A,?V0 + 8
        MOV     B,#0x4
        MUL     AB
        XCH     A,?V0 + 8
        MOV     R0,B
        MOV     B,#0x0
        MUL     AB
        ADD     A,R0
        MOV     R0,A
        MOV     B,#0x4
        MOV     A,?V0 + 9
        MUL     AB
        ADD     A,R0
        MOV     ?V0 + 9,A
        MOV     A,?V0 + 8
        ADD     A,#0x8
        MOV     R0,A
        MOV     A,?V0 + 9
        ADDC    A,#0x0
        MOV     R1,A
        MOV     DPL,?XSP + 0
        MOV     DPH,?XSP + 1
        MOV     A,R0
        MOVX    @DPTR,A
        INC     DPTR
        MOV     A,R1
        MOVX    @DPTR,A
//  697   uint8 rtrn = OSAL_NV_PAGE_NULL;
??initItem_1:
        MOV     R7,#0x0
//  698   uint8 cnt = OSAL_NV_PAGES_USED;
        MOV     ?V0 + 0,#0x6
//  699   uint8 pg = pgRes+1;  // Set to 1 after the reserve page to even wear across all available pages.
        MOV     DPTR,#pgRes
        MOVX    A,@DPTR
        ADD     A,#0x1
        MOV     R6,A
//  700 
//  701   do {
//  702     if (pg >= OSAL_NV_PAGE_BEG+OSAL_NV_PAGES_USED)
??initItem_2:
        MOV     A,R6
        CLR     C
        SUBB    A,#0x7f
        JC      ??initItem_3
//  703     {
//  704       pg = OSAL_NV_PAGE_BEG;
        MOV     R6,#0x79
//  705     }
//  706     if ( pg != pgRes )
??initItem_3:
        MOV     DPTR,#pgRes
        MOVX    A,@DPTR
        XRL     A,R6
        JZ      ??initItem_4
//  707     {
//  708       uint8 idx = pg - OSAL_NV_PAGE_BEG;
        MOV     A,#-0x79
        ADD     A,R6
        MOV     R5,A
//  709       if ( sz <= (OSAL_NV_PAGE_SIZE - pgOff[idx] + pgLost[idx]) )
        MOV     A,R5
        MOV     R0,A
        MOV     R1,#0x0
        MOV     A,R0
        MOV     B,#0x2
        MUL     AB
        XCH     A,R0
        MOV     R2,B
        MOV     B,#0x0
        MUL     AB
        ADD     A,R2
        MOV     R2,A
        MOV     B,#0x2
        MOV     A,R1
        MUL     AB
        ADD     A,R2
        MOV     R1,A
        MOV     A,#pgOff & 0xff
        ADD     A,R0
        MOV     DPL,A
        MOV     A,#(pgOff >> 8) & 0xff
        ADDC    A,R1
        MOV     DPH,A
        MOVX    A,@DPTR
        MOV     R0,A
        INC     DPTR
        MOVX    A,@DPTR
        MOV     R1,A
        MOV     A,#0x0
        CLR     C
        SUBB    A,R0
        MOV     R0,A
        MOV     A,#0x8
        SUBB    A,R1
        MOV     R1,A
        MOV     A,R5
        MOV     R2,A
        MOV     R3,#0x0
        MOV     A,R2
        MOV     B,#0x2
        MUL     AB
        XCH     A,R2
        MOV     R4,B
        MOV     B,#0x0
        MUL     AB
        ADD     A,R4
        MOV     R4,A
        MOV     B,#0x2
        MOV     A,R3
        MUL     AB
        ADD     A,R4
        MOV     R3,A
        MOV     A,#pgLost & 0xff
        ADD     A,R2
        MOV     DPL,A
        MOV     A,#(pgLost >> 8) & 0xff
        ADDC    A,R3
        MOV     DPH,A
        MOVX    A,@DPTR
        ADD     A,R0
        MOV     R2,A
        INC     DPTR
        MOVX    A,@DPTR
        ADDC    A,R1
        MOV     R3,A
        MOV     DPL,?XSP + 0
        MOV     DPH,?XSP + 1
        MOVX    A,@DPTR
        MOV     R0,A
        INC     DPTR
        MOVX    A,@DPTR
        MOV     R1,A
        CLR     C
        MOV     A,R2
        SUBB    A,R0
        MOV     A,R3
        SUBB    A,R1
        JNC     ??initItem_5
//  710       {
//  711         break;
//  712       }
//  713     }
//  714     pg++;
??initItem_4:
        INC     R6
//  715   } while (--cnt);
        MOV     A,#-0x1
        ADD     A,?V0 + 0
        MOV     R0,A
        MOV     ?V0 + 0,R0
        MOV     A,R0
        JZ      $+5
        LJMP    ??initItem_2 & 0xFFFF
//  716 
//  717   if (cnt)
??initItem_5:
        MOV     A,?V0 + 0
        JNZ     $+5
        LJMP    ??initItem_6 & 0xFFFF
//  718   {
//  719     // Item fits if an old page is compacted.
//  720     if ( sz > (OSAL_NV_PAGE_SIZE - pgOff[pg - OSAL_NV_PAGE_BEG]) )
        MOV     A,R6
        MOV     R0,A
        MOV     R1,#0x0
        MOV     A,R0
        MOV     B,#0x2
        MUL     AB
        XCH     A,R0
        MOV     R2,B
        MOV     B,#0x0
        MUL     AB
        ADD     A,R2
        MOV     R2,A
        MOV     B,#0x2
        MOV     A,R1
        MUL     AB
        ADD     A,R2
        MOV     R1,A
        MOV     A,#(pgOff + 14) & 0xff
        ADD     A,R0
        MOV     DPL,A
        MOV     A,#((pgOff - 242) >> 8) & 0xff
        ADDC    A,R1
        MOV     DPH,A
        MOVX    A,@DPTR
        MOV     R0,A
        INC     DPTR
        MOVX    A,@DPTR
        MOV     R1,A
        MOV     A,#0x0
        CLR     C
        SUBB    A,R0
        MOV     R2,A
        MOV     A,#0x8
        SUBB    A,R1
        MOV     R3,A
        MOV     DPL,?XSP + 0
        MOV     DPH,?XSP + 1
        MOVX    A,@DPTR
        MOV     R0,A
        INC     DPTR
        MOVX    A,@DPTR
        MOV     R1,A
        CLR     C
        MOV     A,R2
        SUBB    A,R0
        MOV     A,R3
        SUBB    A,R1
        JC      $+5
        LJMP    ??initItem_7 & 0xFFFF
//  721     {
//  722       osalNvPgHdr_t pgHdr;
//  723 
//  724       /* Prevent excessive re-writes to page header caused by numerous, rapid, & successive
//  725        * OSAL_Nv interruptions caused by resets.
//  726        */
//  727       HalFlashRead(pg, OSAL_NV_PAGE_HDR_OFFSET, (uint8 *)(&pgHdr), OSAL_NV_PAGE_HDR_SIZE);
        ; Setup parameters for call to function HalFlashRead
        MOV     ?V0 + 8,#0x8
        MOV     ?V0 + 9,#0x0
        MOV     R0,#?V0 + 8
        LCALL   ?PUSH_XSTACK_I_TWO
        CFI CFA_XSP16 add(XSP16, 30)
        MOV     A,#0x4
        LCALL   ?XSTACK_DISP0_8
        MOV     R4,DPL
        MOV     R5,DPH
        MOV     R2,#0x0
        MOV     R3,#0x0
        MOV     A,R6
        MOV     R1,A
        LCALL   ??HalFlashRead?relay
        MOV     A,#0x2
        LCALL   ?DEALLOC_XSTACK8
        CFI CFA_XSP16 add(XSP16, 28)
//  728       if ( pgHdr.xfer == OSAL_NV_ERASED_ID )
        MOV     A,#0x6
        LCALL   ?XSTACK_DISP0_8
        MOVX    A,@DPTR
        XRL     A,#0xff
        JNZ     ??initItem_8
        INC     DPTR
        MOVX    A,@DPTR
        XRL     A,#0xff
??initItem_8:
        JNZ     ??initItem_9
//  729       {
//  730         // Mark the old page as being in process of compaction.
//  731         sz = OSAL_NV_ZEROED_ID;
        MOV     DPL,?XSP + 0
        MOV     DPH,?XSP + 1
        MOV     A,#0x0
        MOVX    @DPTR,A
        INC     DPTR
        MOV     A,#0x0
        MOVX    @DPTR,A
//  732         writeWordH( pg, OSAL_NV_PG_XFER, (uint8*)(&sz) );
        ; Setup parameters for call to function writeWordH
        MOV     DPL,?XSP + 0
        MOV     DPH,?XSP + 1
        MOV     R4,DPL
        MOV     R5,DPH
        MOV     R2,#0x4
        MOV     R3,#0x0
        MOV     A,R6
        MOV     R1,A
        LCALL   ??writeWordH?relay
//  733       }
//  734 
//  735       /* First the old page is compacted, then the new item will be the last one written to what
//  736        * had been the reserved page.
//  737        */
//  738       if (compactPage( pg, id ))
??initItem_9:
        ; Setup parameters for call to function compactPage
        MOV     R2,?V0 + 4
        MOV     R3,?V0 + 5
        MOV     A,R6
        MOV     R1,A
        LCALL   ??compactPage?relay
        MOV     A,R1
        JZ      ??initItem_6
//  739       {
//  740         if ( writeItem( pgRes, id, len, buf, flag ) )
        ; Setup parameters for call to function writeItem
        MOV     A,?V0 + 1
        MOV     ?V0 + 8,A
        MOV     R0,#?V0 + 8
        LCALL   ?PUSH_XSTACK_I_ONE
        CFI CFA_XSP16 add(XSP16, 29)
        MOV     R0,#?V0 + 6
        LCALL   ?PUSH_XSTACK_I_TWO
        CFI CFA_XSP16 add(XSP16, 31)
        MOV     R4,?V0 + 2
        MOV     R5,?V0 + 3
        MOV     R2,?V0 + 4
        MOV     R3,?V0 + 5
        MOV     DPTR,#pgRes
        MOVX    A,@DPTR
        MOV     R1,A
        LCALL   ??writeItem?relay
        MOV     A,#0x3
        LCALL   ?DEALLOC_XSTACK8
        CFI CFA_XSP16 add(XSP16, 28)
        MOV     A,R1
        JZ      ??initItem_10
//  741         {
//  742           rtrn = pgRes;
        MOV     DPTR,#pgRes
        MOVX    A,@DPTR
        MOV     R7,A
//  743         }
//  744 
//  745         if ( flag == FALSE )
??initItem_10:
        MOV     A,?V0 + 1
        JNZ     ??initItem_11
//  746         {
//  747           /* Overload 'buf' as an OUT parameter to pass back to the calling function
//  748            * the old page to be cleaned up.
//  749            */
//  750           *(uint8 *)buf = pg;
        MOV     A,R6
        MOV     DPL,?V0 + 6
        MOV     DPH,?V0 + 7
        MOVX    @DPTR,A
        SJMP    ??initItem_6
//  751         }
//  752         else
//  753         {
//  754           /* Safe to do the compacted page cleanup even if writeItem() above failed because the
//  755            * item does not yet exist since this call with flag==TRUE is from osal_nv_item_init().
//  756            */
//  757           COMPACT_PAGE_CLEANUP( pg );
??initItem_11:
        ; Setup parameters for call to function setPageUse
        MOV     R2,#0x1
        MOV     DPTR,#pgRes
        MOVX    A,@DPTR
        MOV     R1,A
        LCALL   ??setPageUse?relay
        ; Setup parameters for call to function erasePage
        MOV     A,R6
        MOV     R1,A
        LCALL   ??erasePage?relay
        MOV     A,R6
        MOV     DPTR,#pgRes
        MOVX    @DPTR,A
        SJMP    ??initItem_6
//  758         }
//  759       }
//  760     }
//  761     else
//  762     {
//  763       if ( writeItem( pg, id, len, buf, flag ) )
??initItem_7:
        ; Setup parameters for call to function writeItem
        MOV     A,?V0 + 1
        MOV     ?V0 + 8,A
        MOV     R0,#?V0 + 8
        LCALL   ?PUSH_XSTACK_I_ONE
        CFI CFA_XSP16 add(XSP16, 29)
        MOV     R0,#?V0 + 6
        LCALL   ?PUSH_XSTACK_I_TWO
        CFI CFA_XSP16 add(XSP16, 31)
        MOV     R4,?V0 + 2
        MOV     R5,?V0 + 3
        MOV     R2,?V0 + 4
        MOV     R3,?V0 + 5
        MOV     A,R6
        MOV     R1,A
        LCALL   ??writeItem?relay
        MOV     A,#0x3
        LCALL   ?DEALLOC_XSTACK8
        CFI CFA_XSP16 add(XSP16, 28)
        MOV     A,R1
        JZ      ??initItem_6
//  764       {
//  765         rtrn = pg;
        MOV     A,R6
        MOV     R7,A
//  766       }
//  767     }
//  768   }
//  769 
//  770   return rtrn;
??initItem_6:
        MOV     A,R7
        MOV     R1,A
        MOV     A,#0xa
        LCALL   ?DEALLOC_XSTACK8
        CFI CFA_XSP16 add(XSP16, 18)
        MOV     R7,#0xa
        LJMP    ?BANKED_LEAVE_XDATA
        CFI EndBlock cfiBlock6
//  771 }
//  772 
//  773 /*********************************************************************
//  774  * @fn      setItem
//  775  *
//  776  * @brief   Set an item Id or status to mark its state.
//  777  *
//  778  * @param   pg - Valid NV page.
//  779  * @param   offset - Valid offset into the page of the item data - the header
//  780  *                   offset is calculated from this.
//  781  * @param   stat - Valid enum value for the item status.
//  782  *
//  783  * @return  none
//  784  */

        RSEG BANKED_CODE:CODE:NOROOT(0)
//  785 static void setItem( uint8 pg, uint16 offset, eNvHdrEnum stat )
setItem:
        CFI Block cfiBlock7 Using cfiCommon0
        CFI Function setItem
        CODE
//  786 {
        FUNCALL setItem, HalFlashRead
        LOCFRAME ISTACK, 0, STACK
        LOCFRAME PSTACK, 0, STACK
        LOCFRAME XSTACK, 22, STACK
        LOCFRAME IOVERLAY, 0, STATIC
        LOCFRAME DOVERLAY, 0, STATIC
        ARGFRAME ISTACK, 0, STACK
        ARGFRAME PSTACK, 0, STACK
        ARGFRAME XSTACK, 22, STACK
        ARGFRAME IOVERLAY, 0, STATIC
        ARGFRAME DOVERLAY, 0, STATIC
        FUNCALL setItem, writeWord
        LOCFRAME ISTACK, 0, STACK
        LOCFRAME PSTACK, 0, STACK
        LOCFRAME XSTACK, 20, STACK
        LOCFRAME IOVERLAY, 0, STATIC
        LOCFRAME DOVERLAY, 0, STATIC
        ARGFRAME ISTACK, 0, STACK
        ARGFRAME PSTACK, 0, STACK
        ARGFRAME XSTACK, 20, STACK
        ARGFRAME IOVERLAY, 0, STATIC
        ARGFRAME DOVERLAY, 0, STATIC
        FUNCALL setItem, writeWord
        LOCFRAME ISTACK, 0, STACK
        LOCFRAME PSTACK, 0, STACK
        LOCFRAME XSTACK, 20, STACK
        LOCFRAME IOVERLAY, 0, STATIC
        LOCFRAME DOVERLAY, 0, STATIC
        ARGFRAME ISTACK, 0, STACK
        ARGFRAME PSTACK, 0, STACK
        ARGFRAME XSTACK, 20, STACK
        ARGFRAME IOVERLAY, 0, STATIC
        ARGFRAME DOVERLAY, 0, STATIC
        MOV     A,#-0xc
        LCALL   ?BANKED_ENTER_XDATA
        CFI DPH0 load(1, XDATA, add(CFA_XSP16, literal(-1)))
        CFI DPL0 load(1, XDATA, add(CFA_XSP16, literal(-2)))
        CFI ?BRET_EXT load(1, XDATA, add(CFA_XSP16, literal(-3)))
        CFI ?RET_HIGH load(1, XDATA, add(CFA_XSP16, literal(-4)))
        CFI ?RET_LOW load(1, XDATA, add(CFA_XSP16, literal(-5)))
        CFI R7 load(1, XDATA, add(CFA_XSP16, literal(-6)))
        CFI V3 load(1, XDATA, add(CFA_XSP16, literal(-7)))
        CFI V2 load(1, XDATA, add(CFA_XSP16, literal(-8)))
        CFI V1 load(1, XDATA, add(CFA_XSP16, literal(-9)))
        CFI V0 load(1, XDATA, add(CFA_XSP16, literal(-10)))
        CFI VB load(1, XDATA, add(CFA_XSP16, literal(-11)))
        CFI R6 load(1, XDATA, add(CFA_XSP16, literal(-12)))
        CFI CFA_SP SP+0
        CFI CFA_XSP16 add(XSP16, 12)
        ; Saved register size: 12
        ; Auto size: 8
        MOV     A,#-0x8
        LCALL   ?ALLOC_XSTACK8
        CFI CFA_XSP16 add(XSP16, 20)
        MOV     ?V0 + 2,R1
        MOV     A,R2
        MOV     R6,A
        MOV     A,R3
        MOV     R7,A
        MOV     ?V0 + 3,R4
//  787   osalNvHdr_t hdr;
//  788 
//  789   offset -= OSAL_NV_HDR_SIZE;
        MOV     A,R6
        ADD     A,#-0x8
        MOV     R6,A
        MOV     A,R7
        ADDC    A,#-0x1
        MOV     R7,A
//  790   HalFlashRead(pg, offset, (uint8 *)(&hdr), OSAL_NV_HDR_SIZE);
        ; Setup parameters for call to function HalFlashRead
        MOV     ?V0 + 0,#0x8
        MOV     ?V0 + 1,#0x0
        MOV     R0,#?V0 + 0
        LCALL   ?PUSH_XSTACK_I_TWO
        CFI CFA_XSP16 add(XSP16, 22)
        MOV     A,#0x2
        LCALL   ?XSTACK_DISP0_8
        MOV     R4,DPL
        MOV     R5,DPH
        MOV     A,R6
        MOV     R2,A
        MOV     A,R7
        MOV     R3,A
        MOV     R1,?V0 + 2
        LCALL   ??HalFlashRead?relay
        MOV     A,#0x2
        LCALL   ?DEALLOC_XSTACK8
        CFI CFA_XSP16 add(XSP16, 20)
//  791 
//  792   if ( stat == eNvXfer )
        MOV     A,?V0 + 3
        JNZ     ??setItem_0
//  793   {
//  794     hdr.stat = OSAL_NV_ACTIVE;
        MOV     A,#0x6
        LCALL   ?XSTACK_DISP0_8
        MOV     A,#0x0
        MOVX    @DPTR,A
        INC     DPTR
        MOV     A,#0x0
        MOVX    @DPTR,A
//  795     writeWord( pg, offset+OSAL_NV_HDR_CHK, (uint8*)(&(hdr.chk)) );
        ; Setup parameters for call to function writeWord
        MOV     A,#0x4
        LCALL   ?XSTACK_DISP0_8
        MOV     R4,DPL
        MOV     R5,DPH
        MOV     A,R6
        ADD     A,#0x4
        MOV     R2,A
        MOV     A,R7
        ADDC    A,#0x0
        MOV     R3,A
        MOV     R1,?V0 + 2
        LCALL   ??writeWord?relay
        LJMP    ??setItem_1 & 0xFFFF
//  796   }
//  797   else // if ( stat == eNvZero )
//  798   {
//  799     uint16 sz = ((hdr.len + (OSAL_NV_WORD_SIZE-1)) / OSAL_NV_WORD_SIZE) * OSAL_NV_WORD_SIZE +
//  800                                                                           OSAL_NV_HDR_SIZE;
??setItem_0:
        MOV     A,#0x2
        LCALL   ?XSTACK_DISP0_8
        MOVX    A,@DPTR
        ADD     A,#0x3
        MOV     ?V0 + 0,A
        INC     DPTR
        MOVX    A,@DPTR
        ADDC    A,#0x0
        MOV     ?V0 + 1,A
        MOV     A,#0x2
        MOV     R0,#?V0 + 0
        LCALL   ?US_SHR
        MOV     A,?V0 + 0
        MOV     B,#0x4
        MUL     AB
        XCH     A,?V0 + 0
        MOV     R0,B
        MOV     B,#0x0
        MUL     AB
        ADD     A,R0
        MOV     R0,A
        MOV     B,#0x4
        MOV     A,?V0 + 1
        MUL     AB
        ADD     A,R0
        MOV     ?V0 + 1,A
        MOV     A,?V0 + 0
        ADD     A,#0x8
        MOV     ?V0 + 0,A
        MOV     A,?V0 + 1
        ADDC    A,#0x0
        MOV     ?V0 + 1,A
//  801     hdr.id = 0;
        MOV     DPL,?XSP + 0
        MOV     DPH,?XSP + 1
        MOV     A,#0x0
        MOVX    @DPTR,A
        INC     DPTR
        MOV     A,#0x0
        MOVX    @DPTR,A
//  802     writeWord( pg, offset, (uint8 *)(&hdr) );
        ; Setup parameters for call to function writeWord
        MOV     DPL,?XSP + 0
        MOV     DPH,?XSP + 1
        MOV     R4,DPL
        MOV     R5,DPH
        MOV     A,R6
        MOV     R2,A
        MOV     A,R7
        MOV     R3,A
        MOV     R1,?V0 + 2
        LCALL   ??writeWord?relay
//  803     pgLost[pg-OSAL_NV_PAGE_BEG] += sz;
        MOV     A,?V0 + 2
        MOV     R0,?V0 + 2
        MOV     R1,#0x0
        MOV     A,R0
        MOV     B,#0x2
        MUL     AB
        XCH     A,R0
        MOV     R2,B
        MOV     B,#0x0
        MUL     AB
        ADD     A,R2
        MOV     R2,A
        MOV     B,#0x2
        MOV     A,R1
        MUL     AB
        ADD     A,R2
        MOV     R1,A
        MOV     A,#(pgLost + 14) & 0xff
        ADD     A,R0
        MOV     DPL,A
        MOV     A,#((pgLost - 242) >> 8) & 0xff
        ADDC    A,R1
        MOV     DPH,A
        MOVX    A,@DPTR
        ADD     A,?V0 + 0
        MOVX    @DPTR,A
        INC     DPTR
        MOVX    A,@DPTR
        ADDC    A,?V0 + 1
        MOVX    @DPTR,A
//  804   }
//  805 }
??setItem_1:
        MOV     A,#0x8
        LCALL   ?DEALLOC_XSTACK8
        CFI CFA_XSP16 add(XSP16, 12)
        MOV     R7,#0x4
        LJMP    ?BANKED_LEAVE_XDATA
        CFI EndBlock cfiBlock7
//  806 
//  807 /*********************************************************************
//  808  * @fn      setChk
//  809  *
//  810  * @brief   Set the item header checksum given the data buffer offset.
//  811  *
//  812  * @param   pg - Valid NV page.
//  813  * @param   offset - Valid offset into the page of the item data - the header
//  814  *                   offset is calculated from this.
//  815  * @param   chk - The checksum to set.
//  816  *
//  817  * @return  The checksum read back.
//  818  */

        RSEG BANKED_CODE:CODE:NOROOT(0)
//  819 static uint16 setChk( uint8 pg, uint16 offset, uint16 chk )
setChk:
        CFI Block cfiBlock8 Using cfiCommon0
        CFI Function setChk
        CODE
//  820 {
        FUNCALL setChk, writeWordH
        LOCFRAME ISTACK, 0, STACK
        LOCFRAME PSTACK, 0, STACK
        LOCFRAME XSTACK, 14, STACK
        LOCFRAME IOVERLAY, 0, STATIC
        LOCFRAME DOVERLAY, 0, STATIC
        ARGFRAME ISTACK, 0, STACK
        ARGFRAME PSTACK, 0, STACK
        ARGFRAME XSTACK, 14, STACK
        ARGFRAME IOVERLAY, 0, STATIC
        ARGFRAME DOVERLAY, 0, STATIC
        FUNCALL setChk, HalFlashRead
        LOCFRAME ISTACK, 0, STACK
        LOCFRAME PSTACK, 0, STACK
        LOCFRAME XSTACK, 16, STACK
        LOCFRAME IOVERLAY, 0, STATIC
        LOCFRAME DOVERLAY, 0, STATIC
        ARGFRAME ISTACK, 0, STACK
        ARGFRAME PSTACK, 0, STACK
        ARGFRAME XSTACK, 16, STACK
        ARGFRAME IOVERLAY, 0, STATIC
        ARGFRAME DOVERLAY, 0, STATIC
        MOV     A,#-0xc
        LCALL   ?BANKED_ENTER_XDATA
        CFI DPH0 load(1, XDATA, add(CFA_XSP16, literal(-1)))
        CFI DPL0 load(1, XDATA, add(CFA_XSP16, literal(-2)))
        CFI ?BRET_EXT load(1, XDATA, add(CFA_XSP16, literal(-3)))
        CFI ?RET_HIGH load(1, XDATA, add(CFA_XSP16, literal(-4)))
        CFI ?RET_LOW load(1, XDATA, add(CFA_XSP16, literal(-5)))
        CFI R7 load(1, XDATA, add(CFA_XSP16, literal(-6)))
        CFI V3 load(1, XDATA, add(CFA_XSP16, literal(-7)))
        CFI V2 load(1, XDATA, add(CFA_XSP16, literal(-8)))
        CFI V1 load(1, XDATA, add(CFA_XSP16, literal(-9)))
        CFI V0 load(1, XDATA, add(CFA_XSP16, literal(-10)))
        CFI VB load(1, XDATA, add(CFA_XSP16, literal(-11)))
        CFI R6 load(1, XDATA, add(CFA_XSP16, literal(-12)))
        CFI CFA_SP SP+0
        CFI CFA_XSP16 add(XSP16, 12)
        ; Saved register size: 12
        ; Auto size: 2
        MOV     A,#-0x2
        LCALL   ?ALLOC_XSTACK8
        CFI CFA_XSP16 add(XSP16, 14)
        MOV     DPL,?XSP + 0
        MOV     DPH,?XSP + 1
        MOV     A,R4
        MOVX    @DPTR,A
        INC     DPTR
        MOV     A,R5
        MOVX    @DPTR,A
        MOV     ?V0 + 0,R1
        MOV     A,R2
        MOV     R6,A
        MOV     A,R3
        MOV     R7,A
//  821   offset -= OSAL_NV_WORD_SIZE;
        MOV     A,R6
        ADD     A,#-0x4
        MOV     R6,A
        MOV     A,R7
        ADDC    A,#-0x1
        MOV     R7,A
//  822   writeWordH( pg, offset, (uint8 *)&chk );
        ; Setup parameters for call to function writeWordH
        MOV     DPL,?XSP + 0
        MOV     DPH,?XSP + 1
        MOV     R4,DPL
        MOV     R5,DPH
        MOV     A,R6
        MOV     R2,A
        MOV     A,R7
        MOV     R3,A
        MOV     R1,?V0 + 0
        LCALL   ??writeWordH?relay
//  823   HalFlashRead( pg, offset, (uint8 *)(&chk), sizeof( chk ) );
        ; Setup parameters for call to function HalFlashRead
        MOV     ?V0 + 2,#0x2
        MOV     ?V0 + 3,#0x0
        MOV     R0,#?V0 + 2
        LCALL   ?PUSH_XSTACK_I_TWO
        CFI CFA_XSP16 add(XSP16, 16)
        MOV     A,#0x2
        LCALL   ?XSTACK_DISP0_8
        MOV     R4,DPL
        MOV     R5,DPH
        MOV     A,R6
        MOV     R2,A
        MOV     A,R7
        MOV     R3,A
        MOV     R1,?V0 + 0
        LCALL   ??HalFlashRead?relay
        MOV     A,#0x2
        LCALL   ?DEALLOC_XSTACK8
        CFI CFA_XSP16 add(XSP16, 14)
//  824 
//  825   return chk;
        MOV     DPL,?XSP + 0
        MOV     DPH,?XSP + 1
        MOVX    A,@DPTR
        MOV     R2,A
        INC     DPTR
        MOVX    A,@DPTR
        MOV     R3,A
        MOV     A,#0x2
        LCALL   ?DEALLOC_XSTACK8
        CFI CFA_XSP16 add(XSP16, 12)
        MOV     R7,#0x4
        LJMP    ?BANKED_LEAVE_XDATA
        CFI EndBlock cfiBlock8
//  826 }
//  827 
//  828 /*********************************************************************
//  829  * @fn      calcChkB
//  830  *
//  831  * @brief   Calculates the data checksum over the 'buf' parameter.
//  832  *
//  833  * @param   len - Byte count of the data to be checksummed.
//  834  * @param   buf - Data buffer to be checksummed.
//  835  *
//  836  * @return  Calculated checksum of the data bytes.
//  837  */

        RSEG BANKED_CODE:CODE:NOROOT(0)
//  838 static uint16 calcChkB( uint16 len, uint8 *buf )
calcChkB:
        CFI Block cfiBlock9 Using cfiCommon0
        CFI Function calcChkB
        CODE
//  839 {
        MOV     A,#-0xa
        LCALL   ?BANKED_ENTER_XDATA
        CFI DPH0 load(1, XDATA, add(CFA_XSP16, literal(-1)))
        CFI DPL0 load(1, XDATA, add(CFA_XSP16, literal(-2)))
        CFI ?BRET_EXT load(1, XDATA, add(CFA_XSP16, literal(-3)))
        CFI ?RET_HIGH load(1, XDATA, add(CFA_XSP16, literal(-4)))
        CFI ?RET_LOW load(1, XDATA, add(CFA_XSP16, literal(-5)))
        CFI R7 load(1, XDATA, add(CFA_XSP16, literal(-6)))
        CFI V1 load(1, XDATA, add(CFA_XSP16, literal(-7)))
        CFI V0 load(1, XDATA, add(CFA_XSP16, literal(-8)))
        CFI VB load(1, XDATA, add(CFA_XSP16, literal(-9)))
        CFI R6 load(1, XDATA, add(CFA_XSP16, literal(-10)))
        CFI CFA_SP SP+0
        CFI CFA_XSP16 add(XSP16, 10)
        ; Saved register size: 10
        ; Auto size: 0
        MOV     A,R2
        MOV     R6,A
        MOV     A,R3
        MOV     R7,A
        MOV     DPL,R4
        MOV     DPH,R5
//  840   uint8 fill = len % OSAL_NV_WORD_SIZE;
        MOV     A,R6
        MOV     R0,A
        MOV     A,R7
        MOV     R1,A
        MOV     R2,#0x4
        MOV     R3,#0x0
        LCALL   ?US_DIV_MOD
        MOV     A,R2
        MOV     R5,A
//  841   uint16 chk;
//  842 
//  843   if ( !buf )
        MOV     A,DPL
        ORL     A,DPH
        JNZ     ??calcChkB_0
//  844   {
//  845     chk = len * OSAL_NV_ERASED;
        MOV     A,R6
        MOV     R0,A
        MOV     A,R7
        MOV     R1,A
        MOV     A,R0
        MOV     B,#-0x1
        MUL     AB
        XCH     A,R0
        MOV     R4,B
        MOV     B,#0x0
        MUL     AB
        ADD     A,R4
        MOV     R4,A
        MOV     B,#-0x1
        MOV     A,R1
        MUL     AB
        ADD     A,R4
        MOV     R1,A
        MOV     A,R0
        MOV     R2,A
        MOV     A,R1
        MOV     R3,A
        SJMP    ??calcChkB_1
//  846   }
//  847   else
//  848   {
//  849     chk = 0;
??calcChkB_0:
        MOV     R2,#0x0
        MOV     R3,#0x0
//  850     while ( len-- )
??calcChkB_2:
        MOV     A,R6
        MOV     R0,A
        MOV     A,R7
        MOV     R1,A
        MOV     A,R0
        ADD     A,#-0x1
        MOV     R6,A
        MOV     A,R1
        ADDC    A,#-0x1
        MOV     R7,A
        MOV     A,R0
        ORL     A,R1
        JZ      ??calcChkB_1
//  851     {
//  852       chk += *buf++;
        MOVX    A,@DPTR
        MOV     R0,A
        MOV     R1,#0x0
        MOV     A,R2
        ADD     A,R0
        MOV     R2,A
        MOV     A,R3
        ADDC    A,R1
        MOV     R3,A
        INC     DPTR
        SJMP    ??calcChkB_2
//  853     }
//  854   }
//  855 
//  856   // calcChkF() will calculate over OSAL_NV_WORD_SIZE alignment.
//  857   if ( fill )
??calcChkB_1:
        MOV     A,R5
        JZ      ??calcChkB_3
//  858   {
//  859     chk += (OSAL_NV_WORD_SIZE - fill) * OSAL_NV_ERASED;
        MOV     ?V0 + 0,R5
        MOV     ?V0 + 1,#0x0
        MOV     A,#0x4
        CLR     C
        SUBB    A,?V0 + 0
        MOV     R0,A
        MOV     A,#0x0
        SUBB    A,?V0 + 1
        MOV     R1,A
        MOV     A,R0
        MOV     B,#-0x1
        MUL     AB
        XCH     A,R0
        MOV     R4,B
        MOV     B,#0x0
        MUL     AB
        ADD     A,R4
        MOV     R4,A
        MOV     B,#-0x1
        MOV     A,R1
        MUL     AB
        ADD     A,R4
        MOV     R1,A
        MOV     A,R2
        ADD     A,R0
        MOV     R2,A
        MOV     A,R3
        ADDC    A,R1
        MOV     R3,A
//  860   }
//  861 
//  862   return chk;
??calcChkB_3:
        MOV     R7,#0x2
        LJMP    ?BANKED_LEAVE_XDATA
        CFI EndBlock cfiBlock9
//  863 }
//  864 
//  865 /*********************************************************************
//  866  * @fn      calcChkF
//  867  *
//  868  * @brief   Calculates the data checksum by reading the data bytes from NV.
//  869  *
//  870  * @param   pg - A valid NV Flash page.
//  871  * @param   offset - A valid offset into the page.
//  872  * @param   len - Byte count of the data to be checksummed.
//  873  *
//  874  * @return  Calculated checksum of the data bytes.
//  875  */

        RSEG BANKED_CODE:CODE:NOROOT(0)
//  876 static uint16 calcChkF( uint8 pg, uint16 offset, uint16 len )
calcChkF:
        CFI Block cfiBlock10 Using cfiCommon0
        CFI Function calcChkF
        CODE
//  877 {
        FUNCALL calcChkF, HalFlashRead
        LOCFRAME ISTACK, 0, STACK
        LOCFRAME PSTACK, 0, STACK
        LOCFRAME XSTACK, 22, STACK
        LOCFRAME IOVERLAY, 0, STATIC
        LOCFRAME DOVERLAY, 0, STATIC
        ARGFRAME ISTACK, 0, STACK
        ARGFRAME PSTACK, 0, STACK
        ARGFRAME XSTACK, 22, STACK
        ARGFRAME IOVERLAY, 0, STATIC
        ARGFRAME DOVERLAY, 0, STATIC
        MOV     A,#-0x10
        LCALL   ?BANKED_ENTER_XDATA
        CFI DPH0 load(1, XDATA, add(CFA_XSP16, literal(-1)))
        CFI DPL0 load(1, XDATA, add(CFA_XSP16, literal(-2)))
        CFI ?BRET_EXT load(1, XDATA, add(CFA_XSP16, literal(-3)))
        CFI ?RET_HIGH load(1, XDATA, add(CFA_XSP16, literal(-4)))
        CFI ?RET_LOW load(1, XDATA, add(CFA_XSP16, literal(-5)))
        CFI R7 load(1, XDATA, add(CFA_XSP16, literal(-6)))
        CFI V7 load(1, XDATA, add(CFA_XSP16, literal(-7)))
        CFI V6 load(1, XDATA, add(CFA_XSP16, literal(-8)))
        CFI V5 load(1, XDATA, add(CFA_XSP16, literal(-9)))
        CFI V4 load(1, XDATA, add(CFA_XSP16, literal(-10)))
        CFI V3 load(1, XDATA, add(CFA_XSP16, literal(-11)))
        CFI V2 load(1, XDATA, add(CFA_XSP16, literal(-12)))
        CFI V1 load(1, XDATA, add(CFA_XSP16, literal(-13)))
        CFI V0 load(1, XDATA, add(CFA_XSP16, literal(-14)))
        CFI VB load(1, XDATA, add(CFA_XSP16, literal(-15)))
        CFI R6 load(1, XDATA, add(CFA_XSP16, literal(-16)))
        CFI CFA_SP SP+0
        CFI CFA_XSP16 add(XSP16, 16)
        ; Saved register size: 16
        ; Auto size: 4
        MOV     A,#-0x4
        LCALL   ?ALLOC_XSTACK8
        CFI CFA_XSP16 add(XSP16, 20)
        MOV     ?V0 + 4,R1
        MOV     ?V0 + 2,R2
        MOV     ?V0 + 3,R3
        MOV     A,R4
        MOV     R6,A
        MOV     A,R5
        MOV     R7,A
//  878   uint16 chk = 0;
        MOV     ?V0 + 0,#0x0
        MOV     ?V0 + 1,#0x0
//  879 
//  880   len = (len + (OSAL_NV_WORD_SIZE-1)) / OSAL_NV_WORD_SIZE;
        MOV     A,R6
        ADD     A,#0x3
        MOV     ?V0 + 6,A
        MOV     A,R7
        ADDC    A,#0x0
        MOV     ?V0 + 7,A
        MOV     A,#0x2
        MOV     R0,#?V0 + 6
        LCALL   ?US_SHR
        MOV     R6,?V0 + 6
        MOV     R7,?V0 + 7
//  881 
//  882   while ( len-- )
??calcChkF_0:
        MOV     A,R6
        MOV     R0,A
        MOV     A,R7
        MOV     R1,A
        MOV     A,R0
        ADD     A,#-0x1
        MOV     R6,A
        MOV     A,R1
        ADDC    A,#-0x1
        MOV     R7,A
        MOV     A,R0
        ORL     A,R1
        JZ      ??calcChkF_1
//  883   {
//  884     uint8 cnt, tmp[OSAL_NV_WORD_SIZE];
//  885 
//  886     HalFlashRead(pg, offset, tmp, OSAL_NV_WORD_SIZE);
        ; Setup parameters for call to function HalFlashRead
        MOV     ?V0 + 6,#0x4
        MOV     ?V0 + 7,#0x0
        MOV     R0,#?V0 + 6
        LCALL   ?PUSH_XSTACK_I_TWO
        CFI CFA_XSP16 add(XSP16, 22)
        MOV     A,#0x2
        LCALL   ?XSTACK_DISP0_8
        MOV     R4,DPL
        MOV     R5,DPH
        MOV     R2,?V0 + 2
        MOV     R3,?V0 + 3
        MOV     R1,?V0 + 4
        LCALL   ??HalFlashRead?relay
        MOV     A,#0x2
        LCALL   ?DEALLOC_XSTACK8
        CFI CFA_XSP16 add(XSP16, 20)
//  887     offset += OSAL_NV_WORD_SIZE;
        MOV     A,?V0 + 2
        ADD     A,#0x4
        MOV     ?V0 + 2,A
        MOV     A,?V0 + 3
        ADDC    A,#0x0
        MOV     ?V0 + 3,A
//  888 
//  889     for ( cnt = 0; cnt < OSAL_NV_WORD_SIZE; cnt++ )
        MOV     ?V0 + 5,#0x0
??calcChkF_2:
        MOV     A,?V0 + 5
        CLR     C
        SUBB    A,#0x4
        JNC     ??calcChkF_0
//  890     {
//  891       chk += tmp[cnt];
        MOV     ?V0 + 6,?V0 + 5
        MOV     ?V0 + 7,#0x0
        MOV     DPL,?XSP + 0
        MOV     DPH,?XSP + 1
        MOV     A,DPL
        ADD     A,?V0 + 6
        MOV     DPL,A
        MOV     A,DPH
        ADDC    A,?V0 + 7
        MOV     DPH,A
        MOVX    A,@DPTR
        MOV     R0,A
        MOV     R1,#0x0
        MOV     A,?V0 + 0
        ADD     A,R0
        MOV     ?V0 + 0,A
        MOV     A,?V0 + 1
        ADDC    A,R1
        MOV     ?V0 + 1,A
//  892     }
        INC     ?V0 + 5
        SJMP    ??calcChkF_2
//  893   }
//  894 
//  895   return chk;
??calcChkF_1:
        MOV     R2,?V0 + 0
        MOV     R3,?V0 + 1
        MOV     A,#0x4
        LCALL   ?DEALLOC_XSTACK8
        CFI CFA_XSP16 add(XSP16, 16)
        MOV     R7,#0x8
        LJMP    ?BANKED_LEAVE_XDATA
        CFI EndBlock cfiBlock10
//  896 }
//  897 
//  898 /*********************************************************************
//  899  * @fn      writeWord
//  900  *
//  901  * @brief   Writes a Flash-WORD to NV.
//  902  *
//  903  * @param   pg - A valid NV Flash page.
//  904  * @param   offset - A valid offset into the page.
//  905  * @param   buf - Pointer to source buffer.
//  906  *
//  907  * @return  none
//  908  */

        RSEG BANKED_CODE:CODE:NOROOT(0)
//  909 static void writeWord( uint8 pg, uint16 offset, uint8 *buf )
writeWord:
        CFI Block cfiBlock11 Using cfiCommon0
        CFI Function writeWord
        CODE
//  910 {
        FUNCALL writeWord, HalFlashWrite
        LOCFRAME ISTACK, 0, STACK
        LOCFRAME PSTACK, 0, STACK
        LOCFRAME XSTACK, 16, STACK
        LOCFRAME IOVERLAY, 0, STATIC
        LOCFRAME DOVERLAY, 0, STATIC
        ARGFRAME ISTACK, 0, STACK
        ARGFRAME PSTACK, 0, STACK
        ARGFRAME XSTACK, 16, STACK
        ARGFRAME IOVERLAY, 0, STATIC
        ARGFRAME DOVERLAY, 0, STATIC
        MOV     A,#-0xe
        LCALL   ?BANKED_ENTER_XDATA
        CFI DPH0 load(1, XDATA, add(CFA_XSP16, literal(-1)))
        CFI DPL0 load(1, XDATA, add(CFA_XSP16, literal(-2)))
        CFI ?BRET_EXT load(1, XDATA, add(CFA_XSP16, literal(-3)))
        CFI ?RET_HIGH load(1, XDATA, add(CFA_XSP16, literal(-4)))
        CFI ?RET_LOW load(1, XDATA, add(CFA_XSP16, literal(-5)))
        CFI R7 load(1, XDATA, add(CFA_XSP16, literal(-6)))
        CFI V5 load(1, XDATA, add(CFA_XSP16, literal(-7)))
        CFI V4 load(1, XDATA, add(CFA_XSP16, literal(-8)))
        CFI V3 load(1, XDATA, add(CFA_XSP16, literal(-9)))
        CFI V2 load(1, XDATA, add(CFA_XSP16, literal(-10)))
        CFI V1 load(1, XDATA, add(CFA_XSP16, literal(-11)))
        CFI V0 load(1, XDATA, add(CFA_XSP16, literal(-12)))
        CFI VB load(1, XDATA, add(CFA_XSP16, literal(-13)))
        CFI R6 load(1, XDATA, add(CFA_XSP16, literal(-14)))
        CFI CFA_SP SP+0
        CFI CFA_XSP16 add(XSP16, 14)
        ; Saved register size: 14
        ; Auto size: 0
        MOV     ?V0 + 2,R1
        MOV     ?V0 + 0,R2
        MOV     ?V0 + 1,R3
        MOV     A,R4
        MOV     R6,A
        MOV     A,R5
        MOV     R7,A
//  911   offset = (offset / HAL_FLASH_WORD_SIZE) +
//  912           ((uint16)pg * (HAL_FLASH_PAGE_SIZE / HAL_FLASH_WORD_SIZE));
        MOV     A,#0x2
        MOV     R0,#?V0 + 0
        LCALL   ?US_SHR
        MOV     A,?V0 + 2
        MOV     R0,?V0 + 2
        MOV     R1,#0x0
        MOV     A,R0
        MOV     B,#0x0
        MUL     AB
        XCH     A,R0
        MOV     R2,B
        MOV     B,#0x2
        MUL     AB
        ADD     A,R2
        MOV     R2,A
        MOV     B,#0x0
        MOV     A,R1
        MUL     AB
        ADD     A,R2
        MOV     R1,A
        MOV     A,?V0 + 0
        ADD     A,R0
        MOV     ?V0 + 0,A
        MOV     A,?V0 + 1
        ADDC    A,R1
        MOV     ?V0 + 1,A
//  913 
//  914   HalFlashWrite(offset, buf, 1);
        ; Setup parameters for call to function HalFlashWrite
        MOV     ?V0 + 4,#0x1
        MOV     ?V0 + 5,#0x0
        MOV     R0,#?V0 + 4
        LCALL   ?PUSH_XSTACK_I_TWO
        CFI CFA_XSP16 add(XSP16, 16)
        MOV     A,R6
        MOV     R4,A
        MOV     A,R7
        MOV     R5,A
        MOV     R2,?V0 + 0
        MOV     R3,?V0 + 1
        LCALL   ??HalFlashWrite?relay
        MOV     A,#0x2
        LCALL   ?DEALLOC_XSTACK8
        CFI CFA_XSP16 add(XSP16, 14)
//  915 }
        MOV     R7,#0x6
        LJMP    ?BANKED_LEAVE_XDATA
        CFI EndBlock cfiBlock11
//  916 
//  917 /*********************************************************************
//  918  * @fn      writeWordM
//  919  *
//  920  * @brief   Writes multiple Flash-WORDs to NV.
//  921  *
//  922  * @param   pg - A valid NV Flash page.
//  923  * @param   offset - A valid offset into the page.
//  924  * @param   buf - Pointer to source buffer.
//  925  * @param   cnt - Number of 4-byte blocks to write.
//  926  *
//  927  * @return  none
//  928  */

        RSEG BANKED_CODE:CODE:NOROOT(0)
//  929 static void writeWordM( uint8 pg, uint16 offset, uint8 *buf, uint16 cnt )
writeWordM:
        CFI Block cfiBlock12 Using cfiCommon0
        CFI Function writeWordM
        CODE
//  930 {
        FUNCALL writeWordM, HalFlashWrite
        LOCFRAME ISTACK, 0, STACK
        LOCFRAME PSTACK, 0, STACK
        LOCFRAME XSTACK, 15, STACK
        LOCFRAME IOVERLAY, 0, STATIC
        LOCFRAME DOVERLAY, 0, STATIC
        ARGFRAME ISTACK, 0, STACK
        ARGFRAME PSTACK, 0, STACK
        ARGFRAME XSTACK, 15, STACK
        ARGFRAME IOVERLAY, 0, STATIC
        ARGFRAME DOVERLAY, 0, STATIC
        MOV     A,#-0xd
        LCALL   ?BANKED_ENTER_XDATA
        CFI DPH0 load(1, XDATA, add(CFA_XSP16, literal(-1)))
        CFI DPL0 load(1, XDATA, add(CFA_XSP16, literal(-2)))
        CFI ?BRET_EXT load(1, XDATA, add(CFA_XSP16, literal(-3)))
        CFI ?RET_HIGH load(1, XDATA, add(CFA_XSP16, literal(-4)))
        CFI ?RET_LOW load(1, XDATA, add(CFA_XSP16, literal(-5)))
        CFI R7 load(1, XDATA, add(CFA_XSP16, literal(-6)))
        CFI V4 load(1, XDATA, add(CFA_XSP16, literal(-7)))
        CFI V3 load(1, XDATA, add(CFA_XSP16, literal(-8)))
        CFI V2 load(1, XDATA, add(CFA_XSP16, literal(-9)))
        CFI V1 load(1, XDATA, add(CFA_XSP16, literal(-10)))
        CFI V0 load(1, XDATA, add(CFA_XSP16, literal(-11)))
        CFI VB load(1, XDATA, add(CFA_XSP16, literal(-12)))
        CFI R6 load(1, XDATA, add(CFA_XSP16, literal(-13)))
        CFI CFA_SP SP+0
        CFI CFA_XSP16 add(XSP16, 13)
        ; Saved register size: 13
        ; Auto size: 0
        MOV     ?V0 + 4,R1
        MOV     ?V0 + 2,R2
        MOV     ?V0 + 3,R3
        MOV     A,R4
        MOV     R6,A
        MOV     A,R5
        MOV     R7,A
        MOV     A,#0xd
        LCALL   ?XSTACK_DISP0_8
        MOVX    A,@DPTR
        MOV     ?V0 + 0,A
        INC     DPTR
        MOVX    A,@DPTR
        MOV     ?V0 + 1,A
//  931   offset = (offset / HAL_FLASH_WORD_SIZE) +
//  932           ((uint16)pg * (HAL_FLASH_PAGE_SIZE / HAL_FLASH_WORD_SIZE));
        MOV     A,#0x2
        MOV     R0,#?V0 + 2
        LCALL   ?US_SHR
        MOV     A,?V0 + 4
        MOV     R0,?V0 + 4
        MOV     R1,#0x0
        MOV     A,R0
        MOV     B,#0x0
        MUL     AB
        XCH     A,R0
        MOV     R2,B
        MOV     B,#0x2
        MUL     AB
        ADD     A,R2
        MOV     R2,A
        MOV     B,#0x0
        MOV     A,R1
        MUL     AB
        ADD     A,R2
        MOV     R1,A
        MOV     A,?V0 + 2
        ADD     A,R0
        MOV     ?V0 + 2,A
        MOV     A,?V0 + 3
        ADDC    A,R1
        MOV     ?V0 + 3,A
//  933   HalFlashWrite(offset, buf, cnt);
        ; Setup parameters for call to function HalFlashWrite
        MOV     R0,#?V0 + 0
        LCALL   ?PUSH_XSTACK_I_TWO
        CFI CFA_XSP16 add(XSP16, 15)
        MOV     A,R6
        MOV     R4,A
        MOV     A,R7
        MOV     R5,A
        MOV     R2,?V0 + 2
        MOV     R3,?V0 + 3
        LCALL   ??HalFlashWrite?relay
        MOV     A,#0x2
        LCALL   ?DEALLOC_XSTACK8
        CFI CFA_XSP16 add(XSP16, 13)
//  934 }
        MOV     R7,#0x5
        LJMP    ?BANKED_LEAVE_XDATA
        CFI EndBlock cfiBlock12
//  935 
//  936 /*********************************************************************
//  937  * @fn      writeWordH
//  938  *
//  939  * @brief   Writes the 1st half of a Flash-WORD to NV (filling 2nd half with 0xffff).
//  940  *
//  941  * @param   pg - A valid NV Flash page.
//  942  * @param   offset - A valid offset into the page.
//  943  * @param   buf - Pointer to source buffer.
//  944  *
//  945  * @return  none
//  946  */

        RSEG BANKED_CODE:CODE:NOROOT(0)
//  947 static void writeWordH( uint8 pg, uint16 offset, uint8 *buf )
writeWordH:
        CFI Block cfiBlock13 Using cfiCommon0
        CFI Function writeWordH
        CODE
//  948 {
        FUNCALL writeWordH, writeWord
        LOCFRAME ISTACK, 0, STACK
        LOCFRAME PSTACK, 0, STACK
        LOCFRAME XSTACK, 15, STACK
        LOCFRAME IOVERLAY, 0, STATIC
        LOCFRAME DOVERLAY, 0, STATIC
        ARGFRAME ISTACK, 0, STACK
        ARGFRAME PSTACK, 0, STACK
        ARGFRAME XSTACK, 15, STACK
        ARGFRAME IOVERLAY, 0, STATIC
        ARGFRAME DOVERLAY, 0, STATIC
        MOV     A,#-0xb
        LCALL   ?BANKED_ENTER_XDATA
        CFI DPH0 load(1, XDATA, add(CFA_XSP16, literal(-1)))
        CFI DPL0 load(1, XDATA, add(CFA_XSP16, literal(-2)))
        CFI ?BRET_EXT load(1, XDATA, add(CFA_XSP16, literal(-3)))
        CFI ?RET_HIGH load(1, XDATA, add(CFA_XSP16, literal(-4)))
        CFI ?RET_LOW load(1, XDATA, add(CFA_XSP16, literal(-5)))
        CFI R7 load(1, XDATA, add(CFA_XSP16, literal(-6)))
        CFI V2 load(1, XDATA, add(CFA_XSP16, literal(-7)))
        CFI V1 load(1, XDATA, add(CFA_XSP16, literal(-8)))
        CFI V0 load(1, XDATA, add(CFA_XSP16, literal(-9)))
        CFI VB load(1, XDATA, add(CFA_XSP16, literal(-10)))
        CFI R6 load(1, XDATA, add(CFA_XSP16, literal(-11)))
        CFI CFA_SP SP+0
        CFI CFA_XSP16 add(XSP16, 11)
        ; Saved register size: 11
        ; Auto size: 4
        MOV     A,#-0x4
        LCALL   ?ALLOC_XSTACK8
        CFI CFA_XSP16 add(XSP16, 15)
        MOV     ?V0 + 2,R1
        MOV     A,R2
        MOV     R6,A
        MOV     A,R3
        MOV     R7,A
        MOV     ?V0 + 0,R4
        MOV     ?V0 + 1,R5
//  949   uint8 tmp[4];
//  950 
//  951   tmp[0] = buf[0];
        MOV     DPL,?V0 + 0
        MOV     DPH,?V0 + 1
        MOVX    A,@DPTR
        MOV     DPL,?XSP + 0
        MOV     DPH,?XSP + 1
        MOVX    @DPTR,A
//  952   tmp[1] = buf[1];
        MOV     DPL,?V0 + 0
        MOV     DPH,?V0 + 1
        INC     DPTR
        MOVX    A,@DPTR
        PUSH    A
        CFI CFA_SP SP+-1
        MOV     A,#0x1
        LCALL   ?XSTACK_DISP0_8
        POP     A
        CFI CFA_SP SP+0
        MOVX    @DPTR,A
//  953   tmp[2] = OSAL_NV_ERASED;
        MOV     A,#0x2
        LCALL   ?XSTACK_DISP0_8
        MOV     A,#-0x1
        MOVX    @DPTR,A
//  954   tmp[3] = OSAL_NV_ERASED;
        MOV     A,#0x3
        LCALL   ?XSTACK_DISP0_8
        MOV     A,#-0x1
        MOVX    @DPTR,A
//  955 
//  956   writeWord( pg, offset, tmp );
        ; Setup parameters for call to function writeWord
        MOV     DPL,?XSP + 0
        MOV     DPH,?XSP + 1
        MOV     R4,DPL
        MOV     R5,DPH
        MOV     A,R6
        MOV     R2,A
        MOV     A,R7
        MOV     R3,A
        MOV     R1,?V0 + 2
        LCALL   ??writeWord?relay
//  957 }
        MOV     A,#0x4
        LCALL   ?DEALLOC_XSTACK8
        CFI CFA_XSP16 add(XSP16, 11)
        MOV     R7,#0x3
        LJMP    ?BANKED_LEAVE_XDATA
        CFI EndBlock cfiBlock13
//  958 
//  959 /*********************************************************************
//  960  * @fn      writeBuf
//  961  *
//  962  * @brief   Writes a data buffer to NV.
//  963  *
//  964  * @param   dstPg - A valid NV Flash page.
//  965  * @param   offset - A valid offset into the page.
//  966  * @param   len  - Byte count of the data to write.
//  967  * @param   buf  - The data to write.
//  968  *
//  969  * @return  TRUE if data buf checksum matches read back checksum, else FALSE.
//  970  */

        RSEG BANKED_CODE:CODE:NOROOT(0)
//  971 static void writeBuf( uint8 dstPg, uint16 dstOff, uint16 len, uint8 *buf )
writeBuf:
        CFI Block cfiBlock14 Using cfiCommon0
        CFI Function writeBuf
        CODE
//  972 {
        FUNCALL writeBuf, HalFlashRead
        LOCFRAME ISTACK, 0, STACK
        LOCFRAME PSTACK, 0, STACK
        LOCFRAME XSTACK, 24, STACK
        LOCFRAME IOVERLAY, 0, STATIC
        LOCFRAME DOVERLAY, 0, STATIC
        ARGFRAME ISTACK, 0, STACK
        ARGFRAME PSTACK, 0, STACK
        ARGFRAME XSTACK, 24, STACK
        ARGFRAME IOVERLAY, 0, STATIC
        ARGFRAME DOVERLAY, 0, STATIC
        FUNCALL writeBuf, writeWord
        LOCFRAME ISTACK, 0, STACK
        LOCFRAME PSTACK, 0, STACK
        LOCFRAME XSTACK, 22, STACK
        LOCFRAME IOVERLAY, 0, STATIC
        LOCFRAME DOVERLAY, 0, STATIC
        ARGFRAME ISTACK, 0, STACK
        ARGFRAME PSTACK, 0, STACK
        ARGFRAME XSTACK, 22, STACK
        ARGFRAME IOVERLAY, 0, STATIC
        ARGFRAME DOVERLAY, 0, STATIC
        FUNCALL writeBuf, writeWordM
        LOCFRAME ISTACK, 0, STACK
        LOCFRAME PSTACK, 0, STACK
        LOCFRAME XSTACK, 24, STACK
        LOCFRAME IOVERLAY, 0, STATIC
        LOCFRAME DOVERLAY, 0, STATIC
        ARGFRAME ISTACK, 0, STACK
        ARGFRAME PSTACK, 0, STACK
        ARGFRAME XSTACK, 24, STACK
        ARGFRAME IOVERLAY, 0, STATIC
        ARGFRAME DOVERLAY, 0, STATIC
        FUNCALL writeBuf, HalFlashRead
        LOCFRAME ISTACK, 0, STACK
        LOCFRAME PSTACK, 0, STACK
        LOCFRAME XSTACK, 24, STACK
        LOCFRAME IOVERLAY, 0, STATIC
        LOCFRAME DOVERLAY, 0, STATIC
        ARGFRAME ISTACK, 0, STACK
        ARGFRAME PSTACK, 0, STACK
        ARGFRAME XSTACK, 24, STACK
        ARGFRAME IOVERLAY, 0, STATIC
        ARGFRAME DOVERLAY, 0, STATIC
        FUNCALL writeBuf, writeWord
        LOCFRAME ISTACK, 0, STACK
        LOCFRAME PSTACK, 0, STACK
        LOCFRAME XSTACK, 22, STACK
        LOCFRAME IOVERLAY, 0, STATIC
        LOCFRAME DOVERLAY, 0, STATIC
        ARGFRAME ISTACK, 0, STACK
        ARGFRAME PSTACK, 0, STACK
        ARGFRAME XSTACK, 22, STACK
        ARGFRAME IOVERLAY, 0, STATIC
        ARGFRAME DOVERLAY, 0, STATIC
        MOV     A,#-0x12
        LCALL   ?BANKED_ENTER_XDATA
        CFI DPH0 load(1, XDATA, add(CFA_XSP16, literal(-1)))
        CFI DPL0 load(1, XDATA, add(CFA_XSP16, literal(-2)))
        CFI ?BRET_EXT load(1, XDATA, add(CFA_XSP16, literal(-3)))
        CFI ?RET_HIGH load(1, XDATA, add(CFA_XSP16, literal(-4)))
        CFI ?RET_LOW load(1, XDATA, add(CFA_XSP16, literal(-5)))
        CFI R7 load(1, XDATA, add(CFA_XSP16, literal(-6)))
        CFI V9 load(1, XDATA, add(CFA_XSP16, literal(-7)))
        CFI V8 load(1, XDATA, add(CFA_XSP16, literal(-8)))
        CFI V7 load(1, XDATA, add(CFA_XSP16, literal(-9)))
        CFI V6 load(1, XDATA, add(CFA_XSP16, literal(-10)))
        CFI V5 load(1, XDATA, add(CFA_XSP16, literal(-11)))
        CFI V4 load(1, XDATA, add(CFA_XSP16, literal(-12)))
        CFI V3 load(1, XDATA, add(CFA_XSP16, literal(-13)))
        CFI V2 load(1, XDATA, add(CFA_XSP16, literal(-14)))
        CFI V1 load(1, XDATA, add(CFA_XSP16, literal(-15)))
        CFI V0 load(1, XDATA, add(CFA_XSP16, literal(-16)))
        CFI VB load(1, XDATA, add(CFA_XSP16, literal(-17)))
        CFI R6 load(1, XDATA, add(CFA_XSP16, literal(-18)))
        CFI CFA_SP SP+0
        CFI CFA_XSP16 add(XSP16, 18)
        ; Saved register size: 18
        ; Auto size: 4
        MOV     A,#-0x4
        LCALL   ?ALLOC_XSTACK8
        CFI CFA_XSP16 add(XSP16, 22)
        MOV     A,R1
        MOV     R7,A
        MOV     ?V0 + 4,R2
        MOV     ?V0 + 5,R3
        MOV     ?V0 + 6,R4
        MOV     ?V0 + 7,R5
        MOV     A,#0x16
        LCALL   ?XSTACK_DISP0_8
        MOVX    A,@DPTR
        MOV     ?V0 + 0,A
        INC     DPTR
        MOVX    A,@DPTR
        MOV     ?V0 + 1,A
//  973   uint8 rem = dstOff % OSAL_NV_WORD_SIZE;
        MOV     R0,?V0 + 4
        MOV     R1,?V0 + 5
        MOV     R2,#0x4
        MOV     R3,#0x0
        LCALL   ?US_DIV_MOD
        MOV     A,R2
        MOV     R6,A
//  974   uint8 tmp[OSAL_NV_WORD_SIZE];
//  975 
//  976   if ( rem )
        MOV     A,R6
        JNZ     $+5
        LJMP    ??writeBuf_0 & 0xFFFF
//  977   {
//  978     dstOff = (dstOff / OSAL_NV_WORD_SIZE) * OSAL_NV_WORD_SIZE;
        MOV     A,#0x2
        MOV     R0,#?V0 + 4
        LCALL   ?US_SHR
        MOV     A,?V0 + 4
        MOV     B,#0x4
        MUL     AB
        XCH     A,?V0 + 4
        MOV     R0,B
        MOV     B,#0x0
        MUL     AB
        ADD     A,R0
        MOV     R0,A
        MOV     B,#0x4
        MOV     A,?V0 + 5
        MUL     AB
        ADD     A,R0
        MOV     ?V0 + 5,A
//  979     HalFlashRead(dstPg, dstOff, tmp, OSAL_NV_WORD_SIZE);
        ; Setup parameters for call to function HalFlashRead
        MOV     ?V0 + 2,#0x4
        MOV     ?V0 + 3,#0x0
        MOV     R0,#?V0 + 2
        LCALL   ?PUSH_XSTACK_I_TWO
        CFI CFA_XSP16 add(XSP16, 24)
        MOV     A,#0x2
        LCALL   ?XSTACK_DISP0_8
        MOV     R4,DPL
        MOV     R5,DPH
        MOV     R2,?V0 + 4
        MOV     R3,?V0 + 5
        MOV     A,R7
        MOV     R1,A
        LCALL   ??HalFlashRead?relay
        MOV     A,#0x2
        LCALL   ?DEALLOC_XSTACK8
        CFI CFA_XSP16 add(XSP16, 22)
//  980 
//  981     while ( (rem < OSAL_NV_WORD_SIZE) && len )
??writeBuf_1:
        MOV     A,R6
        CLR     C
        SUBB    A,#0x4
        JNC     ??writeBuf_2
        MOV     A,?V0 + 6
        ORL     A,?V0 + 7
        JZ      ??writeBuf_2
//  982     {
//  983       tmp[rem++] = *buf++;
        MOV     DPL,?V0 + 0
        MOV     DPH,?V0 + 1
        MOVX    A,@DPTR
        PUSH    A
        CFI CFA_SP SP+-1
        MOV     ?V0 + 2,R6
        MOV     ?V0 + 3,#0x0
        MOV     DPL,?XSP + 0
        MOV     DPH,?XSP + 1
        MOV     A,DPL
        ADD     A,?V0 + 2
        MOV     DPL,A
        MOV     A,DPH
        ADDC    A,?V0 + 3
        MOV     DPH,A
        POP     A
        CFI CFA_SP SP+0
        MOVX    @DPTR,A
        MOV     DPL,?V0 + 0
        MOV     DPH,?V0 + 1
        INC     DPTR
        MOV     ?V0 + 0,DPL
        MOV     ?V0 + 1,DPH
        INC     R6
//  984       len--;
        MOV     A,?V0 + 6
        ADD     A,#-0x1
        MOV     ?V0 + 6,A
        MOV     A,?V0 + 7
        ADDC    A,#-0x1
        MOV     ?V0 + 7,A
        SJMP    ??writeBuf_1
//  985     }
//  986 
//  987     writeWord( dstPg, dstOff, tmp );
??writeBuf_2:
        ; Setup parameters for call to function writeWord
        MOV     DPL,?XSP + 0
        MOV     DPH,?XSP + 1
        MOV     R4,DPL
        MOV     R5,DPH
        MOV     R2,?V0 + 4
        MOV     R3,?V0 + 5
        MOV     A,R7
        MOV     R1,A
        LCALL   ??writeWord?relay
//  988     dstOff += OSAL_NV_WORD_SIZE;
        MOV     A,?V0 + 4
        ADD     A,#0x4
        MOV     ?V0 + 4,A
        MOV     A,?V0 + 5
        ADDC    A,#0x0
        MOV     ?V0 + 5,A
//  989   }
//  990 
//  991   rem = len % OSAL_NV_WORD_SIZE;
??writeBuf_0:
        MOV     R0,?V0 + 6
        MOV     R1,?V0 + 7
        MOV     R2,#0x4
        MOV     R3,#0x0
        LCALL   ?US_DIV_MOD
        MOV     A,R2
        MOV     R6,A
//  992   len /= OSAL_NV_WORD_SIZE;
        MOV     ?V0 + 2,?V0 + 6
        MOV     ?V0 + 3,?V0 + 7
        MOV     A,#0x2
        MOV     R0,#?V0 + 2
        LCALL   ?US_SHR
        MOV     ?V0 + 6,?V0 + 2
        MOV     ?V0 + 7,?V0 + 3
//  993 
//  994   if ( len )
        MOV     A,?V0 + 6
        ORL     A,?V0 + 7
        JZ      ??writeBuf_3
//  995   {
//  996     writeWordM( dstPg, dstOff, buf, len );
        ; Setup parameters for call to function writeWordM
        MOV     R0,#?V0 + 6
        LCALL   ?PUSH_XSTACK_I_TWO
        CFI CFA_XSP16 add(XSP16, 24)
        MOV     R4,?V0 + 0
        MOV     R5,?V0 + 1
        MOV     R2,?V0 + 4
        MOV     R3,?V0 + 5
        MOV     A,R7
        MOV     R1,A
        LCALL   ??writeWordM?relay
        MOV     A,#0x2
        LCALL   ?DEALLOC_XSTACK8
        CFI CFA_XSP16 add(XSP16, 22)
//  997     dstOff += OSAL_NV_WORD_SIZE * len;
        MOV     R0,?V0 + 6
        MOV     R1,?V0 + 7
        MOV     A,R0
        MOV     B,#0x4
        MUL     AB
        XCH     A,R0
        MOV     R2,B
        MOV     B,#0x0
        MUL     AB
        ADD     A,R2
        MOV     R2,A
        MOV     B,#0x4
        MOV     A,?V0 + 7
        MUL     AB
        ADD     A,R2
        MOV     R1,A
        MOV     A,?V0 + 4
        ADD     A,R0
        MOV     ?V0 + 4,A
        MOV     A,?V0 + 5
        ADDC    A,R1
        MOV     ?V0 + 5,A
//  998     buf += OSAL_NV_WORD_SIZE * len;
        MOV     R0,?V0 + 6
        MOV     R1,?V0 + 7
        MOV     A,R0
        MOV     B,#0x4
        MUL     AB
        XCH     A,R0
        MOV     R2,B
        MOV     B,#0x0
        MUL     AB
        ADD     A,R2
        MOV     R2,A
        MOV     B,#0x4
        MOV     A,?V0 + 7
        MUL     AB
        ADD     A,R2
        MOV     R1,A
        MOV     A,?V0 + 0
        ADD     A,R0
        MOV     ?V0 + 0,A
        MOV     A,?V0 + 1
        ADDC    A,R1
        MOV     ?V0 + 1,A
//  999   }
// 1000 
// 1001   if ( rem )
??writeBuf_3:
        MOV     A,R6
        JZ      ??writeBuf_4
// 1002   {
// 1003     uint8 idx = 0;
        MOV     ?V0 + 2,#0x0
// 1004     HalFlashRead(dstPg, dstOff, tmp, OSAL_NV_WORD_SIZE);
        ; Setup parameters for call to function HalFlashRead
        MOV     ?V0 + 8,#0x4
        MOV     ?V0 + 9,#0x0
        MOV     R0,#?V0 + 8
        LCALL   ?PUSH_XSTACK_I_TWO
        CFI CFA_XSP16 add(XSP16, 24)
        MOV     A,#0x2
        LCALL   ?XSTACK_DISP0_8
        MOV     R4,DPL
        MOV     R5,DPH
        MOV     R2,?V0 + 4
        MOV     R3,?V0 + 5
        MOV     A,R7
        MOV     R1,A
        LCALL   ??HalFlashRead?relay
        MOV     A,#0x2
        LCALL   ?DEALLOC_XSTACK8
        CFI CFA_XSP16 add(XSP16, 22)
// 1005     while ( rem-- )
??writeBuf_5:
        MOV     ?V0 + 3,R6
        MOV     A,#-0x1
        ADD     A,?V0 + 3
        MOV     R6,A
        MOV     A,?V0 + 3
        JZ      ??writeBuf_6
// 1006     {
// 1007       tmp[idx++] = *buf++;
        MOV     DPL,?V0 + 0
        MOV     DPH,?V0 + 1
        MOVX    A,@DPTR
        PUSH    A
        CFI CFA_SP SP+-1
        MOV     ?V0 + 8,?V0 + 2
        MOV     ?V0 + 9,#0x0
        MOV     DPL,?XSP + 0
        MOV     DPH,?XSP + 1
        MOV     A,DPL
        ADD     A,?V0 + 8
        MOV     DPL,A
        MOV     A,DPH
        ADDC    A,?V0 + 9
        MOV     DPH,A
        POP     A
        CFI CFA_SP SP+0
        MOVX    @DPTR,A
        MOV     DPL,?V0 + 0
        MOV     DPH,?V0 + 1
        INC     DPTR
        MOV     ?V0 + 0,DPL
        MOV     ?V0 + 1,DPH
        INC     ?V0 + 2
        SJMP    ??writeBuf_5
// 1008     }
// 1009     writeWord( dstPg, dstOff, tmp );
??writeBuf_6:
        ; Setup parameters for call to function writeWord
        MOV     DPL,?XSP + 0
        MOV     DPH,?XSP + 1
        MOV     R4,DPL
        MOV     R5,DPH
        MOV     R2,?V0 + 4
        MOV     R3,?V0 + 5
        MOV     A,R7
        MOV     R1,A
        LCALL   ??writeWord?relay
// 1010   }
// 1011 }
??writeBuf_4:
        MOV     A,#0x4
        LCALL   ?DEALLOC_XSTACK8
        CFI CFA_XSP16 add(XSP16, 18)
        MOV     R7,#0xa
        LJMP    ?BANKED_LEAVE_XDATA
        CFI EndBlock cfiBlock14
// 1012 
// 1013 /*********************************************************************
// 1014  * @fn      xferBuf
// 1015  *
// 1016  * @brief   Xfers an NV buffer from one location to another, enforcing OSAL_NV_WORD_SIZE writes.
// 1017  *
// 1018  * @return  none
// 1019  */

        RSEG BANKED_CODE:CODE:NOROOT(0)
// 1020 static void xferBuf( uint8 srcPg, uint16 srcOff, uint8 dstPg, uint16 dstOff, uint16 len )
xferBuf:
        CFI Block cfiBlock15 Using cfiCommon0
        CFI Function xferBuf
        CODE
// 1021 {
        FUNCALL xferBuf, HalFlashRead
        LOCFRAME ISTACK, 0, STACK
        LOCFRAME PSTACK, 0, STACK
        LOCFRAME XSTACK, 25, STACK
        LOCFRAME IOVERLAY, 0, STATIC
        LOCFRAME DOVERLAY, 0, STATIC
        ARGFRAME ISTACK, 0, STACK
        ARGFRAME PSTACK, 0, STACK
        ARGFRAME XSTACK, 25, STACK
        ARGFRAME IOVERLAY, 0, STATIC
        ARGFRAME DOVERLAY, 0, STATIC
        FUNCALL xferBuf, HalFlashRead
        LOCFRAME ISTACK, 0, STACK
        LOCFRAME PSTACK, 0, STACK
        LOCFRAME XSTACK, 25, STACK
        LOCFRAME IOVERLAY, 0, STATIC
        LOCFRAME DOVERLAY, 0, STATIC
        ARGFRAME ISTACK, 0, STACK
        ARGFRAME PSTACK, 0, STACK
        ARGFRAME XSTACK, 25, STACK
        ARGFRAME IOVERLAY, 0, STATIC
        ARGFRAME DOVERLAY, 0, STATIC
        FUNCALL xferBuf, writeWord
        LOCFRAME ISTACK, 0, STACK
        LOCFRAME PSTACK, 0, STACK
        LOCFRAME XSTACK, 23, STACK
        LOCFRAME IOVERLAY, 0, STATIC
        LOCFRAME DOVERLAY, 0, STATIC
        ARGFRAME ISTACK, 0, STACK
        ARGFRAME PSTACK, 0, STACK
        ARGFRAME XSTACK, 23, STACK
        ARGFRAME IOVERLAY, 0, STATIC
        ARGFRAME DOVERLAY, 0, STATIC
        FUNCALL xferBuf, HalFlashRead
        LOCFRAME ISTACK, 0, STACK
        LOCFRAME PSTACK, 0, STACK
        LOCFRAME XSTACK, 25, STACK
        LOCFRAME IOVERLAY, 0, STATIC
        LOCFRAME DOVERLAY, 0, STATIC
        ARGFRAME ISTACK, 0, STACK
        ARGFRAME PSTACK, 0, STACK
        ARGFRAME XSTACK, 25, STACK
        ARGFRAME IOVERLAY, 0, STATIC
        ARGFRAME DOVERLAY, 0, STATIC
        FUNCALL xferBuf, writeWord
        LOCFRAME ISTACK, 0, STACK
        LOCFRAME PSTACK, 0, STACK
        LOCFRAME XSTACK, 23, STACK
        LOCFRAME IOVERLAY, 0, STATIC
        LOCFRAME DOVERLAY, 0, STATIC
        ARGFRAME ISTACK, 0, STACK
        ARGFRAME PSTACK, 0, STACK
        ARGFRAME XSTACK, 23, STACK
        ARGFRAME IOVERLAY, 0, STATIC
        ARGFRAME DOVERLAY, 0, STATIC
        FUNCALL xferBuf, HalFlashRead
        LOCFRAME ISTACK, 0, STACK
        LOCFRAME PSTACK, 0, STACK
        LOCFRAME XSTACK, 25, STACK
        LOCFRAME IOVERLAY, 0, STATIC
        LOCFRAME DOVERLAY, 0, STATIC
        ARGFRAME ISTACK, 0, STACK
        ARGFRAME PSTACK, 0, STACK
        ARGFRAME XSTACK, 25, STACK
        ARGFRAME IOVERLAY, 0, STATIC
        ARGFRAME DOVERLAY, 0, STATIC
        FUNCALL xferBuf, HalFlashRead
        LOCFRAME ISTACK, 0, STACK
        LOCFRAME PSTACK, 0, STACK
        LOCFRAME XSTACK, 25, STACK
        LOCFRAME IOVERLAY, 0, STATIC
        LOCFRAME DOVERLAY, 0, STATIC
        ARGFRAME ISTACK, 0, STACK
        ARGFRAME PSTACK, 0, STACK
        ARGFRAME XSTACK, 25, STACK
        ARGFRAME IOVERLAY, 0, STATIC
        ARGFRAME DOVERLAY, 0, STATIC
        FUNCALL xferBuf, writeWord
        LOCFRAME ISTACK, 0, STACK
        LOCFRAME PSTACK, 0, STACK
        LOCFRAME XSTACK, 23, STACK
        LOCFRAME IOVERLAY, 0, STATIC
        LOCFRAME DOVERLAY, 0, STATIC
        ARGFRAME ISTACK, 0, STACK
        ARGFRAME PSTACK, 0, STACK
        ARGFRAME XSTACK, 23, STACK
        ARGFRAME IOVERLAY, 0, STATIC
        ARGFRAME DOVERLAY, 0, STATIC
        MOV     A,#-0x13
        LCALL   ?BANKED_ENTER_XDATA
        CFI DPH0 load(1, XDATA, add(CFA_XSP16, literal(-1)))
        CFI DPL0 load(1, XDATA, add(CFA_XSP16, literal(-2)))
        CFI ?BRET_EXT load(1, XDATA, add(CFA_XSP16, literal(-3)))
        CFI ?RET_HIGH load(1, XDATA, add(CFA_XSP16, literal(-4)))
        CFI ?RET_LOW load(1, XDATA, add(CFA_XSP16, literal(-5)))
        CFI R7 load(1, XDATA, add(CFA_XSP16, literal(-6)))
        CFI V10 load(1, XDATA, add(CFA_XSP16, literal(-7)))
        CFI V9 load(1, XDATA, add(CFA_XSP16, literal(-8)))
        CFI V8 load(1, XDATA, add(CFA_XSP16, literal(-9)))
        CFI V7 load(1, XDATA, add(CFA_XSP16, literal(-10)))
        CFI V6 load(1, XDATA, add(CFA_XSP16, literal(-11)))
        CFI V5 load(1, XDATA, add(CFA_XSP16, literal(-12)))
        CFI V4 load(1, XDATA, add(CFA_XSP16, literal(-13)))
        CFI V3 load(1, XDATA, add(CFA_XSP16, literal(-14)))
        CFI V2 load(1, XDATA, add(CFA_XSP16, literal(-15)))
        CFI V1 load(1, XDATA, add(CFA_XSP16, literal(-16)))
        CFI V0 load(1, XDATA, add(CFA_XSP16, literal(-17)))
        CFI VB load(1, XDATA, add(CFA_XSP16, literal(-18)))
        CFI R6 load(1, XDATA, add(CFA_XSP16, literal(-19)))
        CFI CFA_SP SP+0
        CFI CFA_XSP16 add(XSP16, 19)
        ; Saved register size: 19
        ; Auto size: 4
        MOV     A,#-0x4
        LCALL   ?ALLOC_XSTACK8
        CFI CFA_XSP16 add(XSP16, 23)
        MOV     ?V0 + 10,R1
        MOV     ?V0 + 4,R2
        MOV     ?V0 + 5,R3
        MOV     ?V0 + 7,R4
        MOV     A,#0x17
        LCALL   ?XSTACK_DISP0_8
        MOVX    A,@DPTR
        MOV     ?V0 + 0,A
        INC     DPTR
        MOVX    A,@DPTR
        MOV     ?V0 + 1,A
        MOV     A,#0x19
        LCALL   ?XSTACK_DISP0_8
        MOVX    A,@DPTR
        MOV     R6,A
        INC     DPTR
        MOVX    A,@DPTR
        MOV     R7,A
// 1022   uint8 rem = dstOff % OSAL_NV_WORD_SIZE;
        MOV     R0,?V0 + 0
        MOV     R1,?V0 + 1
        MOV     R2,#0x4
        MOV     R3,#0x0
        LCALL   ?US_DIV_MOD
        MOV     A,R2
        MOV     ?V0 + 2,A
// 1023   uint8 tmp[OSAL_NV_WORD_SIZE];
// 1024 
// 1025   if ( rem )
        MOV     A,?V0 + 2
        JNZ     $+5
        LJMP    ??xferBuf_0 & 0xFFFF
// 1026   {
// 1027     dstOff -= rem;
        MOV     ?V0 + 8,?V0 + 2
        MOV     ?V0 + 9,#0x0
        CLR     C
        MOV     A,?V0 + 0
        SUBB    A,?V0 + 8
        MOV     ?V0 + 0,A
        MOV     A,?V0 + 1
        SUBB    A,?V0 + 9
        MOV     ?V0 + 1,A
// 1028     HalFlashRead(dstPg, dstOff, tmp, OSAL_NV_WORD_SIZE);
        ; Setup parameters for call to function HalFlashRead
        MOV     ?V0 + 8,#0x4
        MOV     ?V0 + 9,#0x0
        MOV     R0,#?V0 + 8
        LCALL   ?PUSH_XSTACK_I_TWO
        CFI CFA_XSP16 add(XSP16, 25)
        MOV     A,#0x2
        LCALL   ?XSTACK_DISP0_8
        MOV     R4,DPL
        MOV     R5,DPH
        MOV     R2,?V0 + 0
        MOV     R3,?V0 + 1
        MOV     R1,?V0 + 7
        LCALL   ??HalFlashRead?relay
        MOV     A,#0x2
        LCALL   ?DEALLOC_XSTACK8
        CFI CFA_XSP16 add(XSP16, 23)
// 1029 
// 1030     while ( (rem < OSAL_NV_WORD_SIZE) && len )
??xferBuf_1:
        MOV     A,?V0 + 2
        CLR     C
        SUBB    A,#0x4
        JNC     ??xferBuf_2
        MOV     A,R6
        ORL     A,R7
        JZ      ??xferBuf_2
// 1031     {
// 1032       HalFlashRead(srcPg, srcOff, tmp+rem, 1);
        ; Setup parameters for call to function HalFlashRead
        MOV     ?V0 + 8,#0x1
        MOV     ?V0 + 9,#0x0
        MOV     R0,#?V0 + 8
        LCALL   ?PUSH_XSTACK_I_TWO
        CFI CFA_XSP16 add(XSP16, 25)
        MOV     ?V0 + 8,?V0 + 2
        MOV     ?V0 + 9,#0x0
        MOV     A,#0x2
        LCALL   ?XSTACK_DISP0_8
        MOV     A,DPL
        ADD     A,?V0 + 8
        MOV     R4,A
        MOV     A,DPH
        ADDC    A,?V0 + 9
        MOV     R5,A
        MOV     R2,?V0 + 4
        MOV     R3,?V0 + 5
        MOV     R1,?V0 + 10
        LCALL   ??HalFlashRead?relay
        MOV     A,#0x2
        LCALL   ?DEALLOC_XSTACK8
        CFI CFA_XSP16 add(XSP16, 23)
// 1033       srcOff++;
        MOV     A,?V0 + 4
        ADD     A,#0x1
        MOV     ?V0 + 4,A
        MOV     A,?V0 + 5
        ADDC    A,#0x0
        MOV     ?V0 + 5,A
// 1034       rem++;
        INC     ?V0 + 2
// 1035       len--;
        MOV     A,R6
        ADD     A,#-0x1
        MOV     R6,A
        MOV     A,R7
        ADDC    A,#-0x1
        MOV     R7,A
        SJMP    ??xferBuf_1
// 1036     }
// 1037 
// 1038     writeWord( dstPg, dstOff, tmp );
??xferBuf_2:
        ; Setup parameters for call to function writeWord
        MOV     DPL,?XSP + 0
        MOV     DPH,?XSP + 1
        MOV     R4,DPL
        MOV     R5,DPH
        MOV     R2,?V0 + 0
        MOV     R3,?V0 + 1
        MOV     R1,?V0 + 7
        LCALL   ??writeWord?relay
// 1039     dstOff += OSAL_NV_WORD_SIZE;
        MOV     A,?V0 + 0
        ADD     A,#0x4
        MOV     ?V0 + 0,A
        MOV     A,?V0 + 1
        ADDC    A,#0x0
        MOV     ?V0 + 1,A
// 1040   }
// 1041 
// 1042   rem = len % OSAL_NV_WORD_SIZE;
??xferBuf_0:
        MOV     A,R6
        MOV     R0,A
        MOV     A,R7
        MOV     R1,A
        MOV     R2,#0x4
        MOV     R3,#0x0
        LCALL   ?US_DIV_MOD
        MOV     A,R2
        MOV     ?V0 + 2,A
// 1043   len /= OSAL_NV_WORD_SIZE;
        MOV     ?V0 + 8,R6
        MOV     ?V0 + 9,R7
        MOV     A,#0x2
        MOV     R0,#?V0 + 8
        LCALL   ?US_SHR
        MOV     R6,?V0 + 8
        MOV     R7,?V0 + 9
// 1044 
// 1045   while ( len-- )
??xferBuf_3:
        MOV     A,R6
        MOV     R0,A
        MOV     A,R7
        MOV     R1,A
        MOV     A,R0
        ADD     A,#-0x1
        MOV     R6,A
        MOV     A,R1
        ADDC    A,#-0x1
        MOV     R7,A
        MOV     A,R0
        ORL     A,R1
        JZ      ??xferBuf_4
// 1046   {
// 1047     HalFlashRead(srcPg, srcOff, tmp, OSAL_NV_WORD_SIZE);
        ; Setup parameters for call to function HalFlashRead
        MOV     ?V0 + 8,#0x4
        MOV     ?V0 + 9,#0x0
        MOV     R0,#?V0 + 8
        LCALL   ?PUSH_XSTACK_I_TWO
        CFI CFA_XSP16 add(XSP16, 25)
        MOV     A,#0x2
        LCALL   ?XSTACK_DISP0_8
        MOV     R4,DPL
        MOV     R5,DPH
        MOV     R2,?V0 + 4
        MOV     R3,?V0 + 5
        MOV     R1,?V0 + 10
        LCALL   ??HalFlashRead?relay
        MOV     A,#0x2
        LCALL   ?DEALLOC_XSTACK8
        CFI CFA_XSP16 add(XSP16, 23)
// 1048     srcOff += OSAL_NV_WORD_SIZE;
        MOV     A,?V0 + 4
        ADD     A,#0x4
        MOV     ?V0 + 4,A
        MOV     A,?V0 + 5
        ADDC    A,#0x0
        MOV     ?V0 + 5,A
// 1049     writeWord( dstPg, dstOff, tmp );
        ; Setup parameters for call to function writeWord
        MOV     DPL,?XSP + 0
        MOV     DPH,?XSP + 1
        MOV     R4,DPL
        MOV     R5,DPH
        MOV     R2,?V0 + 0
        MOV     R3,?V0 + 1
        MOV     R1,?V0 + 7
        LCALL   ??writeWord?relay
// 1050     dstOff += OSAL_NV_WORD_SIZE;
        MOV     A,?V0 + 0
        ADD     A,#0x4
        MOV     ?V0 + 0,A
        MOV     A,?V0 + 1
        ADDC    A,#0x0
        MOV     ?V0 + 1,A
        SJMP    ??xferBuf_3
// 1051   }
// 1052 
// 1053   if ( rem )
??xferBuf_4:
        MOV     A,?V0 + 2
        JNZ     $+5
        LJMP    ??xferBuf_5 & 0xFFFF
// 1054   {
// 1055     uint8 idx = 0;
        MOV     ?V0 + 3,#0x0
// 1056     HalFlashRead(dstPg, dstOff, tmp, OSAL_NV_WORD_SIZE);
        ; Setup parameters for call to function HalFlashRead
        MOV     ?V0 + 8,#0x4
        MOV     ?V0 + 9,#0x0
        MOV     R0,#?V0 + 8
        LCALL   ?PUSH_XSTACK_I_TWO
        CFI CFA_XSP16 add(XSP16, 25)
        MOV     A,#0x2
        LCALL   ?XSTACK_DISP0_8
        MOV     R4,DPL
        MOV     R5,DPH
        MOV     R2,?V0 + 0
        MOV     R3,?V0 + 1
        MOV     R1,?V0 + 7
        LCALL   ??HalFlashRead?relay
        MOV     A,#0x2
        LCALL   ?DEALLOC_XSTACK8
        CFI CFA_XSP16 add(XSP16, 23)
// 1057     while ( rem-- )
??xferBuf_6:
        MOV     ?V0 + 6,?V0 + 2
        MOV     A,#-0x1
        ADD     A,?V0 + 6
        MOV     ?V0 + 2,A
        MOV     A,?V0 + 6
        JZ      ??xferBuf_7
// 1058     {
// 1059       HalFlashRead(srcPg, srcOff, tmp+idx, 1);
        ; Setup parameters for call to function HalFlashRead
        MOV     ?V0 + 8,#0x1
        MOV     ?V0 + 9,#0x0
        MOV     R0,#?V0 + 8
        LCALL   ?PUSH_XSTACK_I_TWO
        CFI CFA_XSP16 add(XSP16, 25)
        MOV     ?V0 + 8,?V0 + 3
        MOV     ?V0 + 9,#0x0
        MOV     A,#0x2
        LCALL   ?XSTACK_DISP0_8
        MOV     A,DPL
        ADD     A,?V0 + 8
        MOV     R4,A
        MOV     A,DPH
        ADDC    A,?V0 + 9
        MOV     R5,A
        MOV     R2,?V0 + 4
        MOV     R3,?V0 + 5
        MOV     R1,?V0 + 10
        LCALL   ??HalFlashRead?relay
        MOV     A,#0x2
        LCALL   ?DEALLOC_XSTACK8
        CFI CFA_XSP16 add(XSP16, 23)
// 1060       srcOff++;
        MOV     A,?V0 + 4
        ADD     A,#0x1
        MOV     ?V0 + 4,A
        MOV     A,?V0 + 5
        ADDC    A,#0x0
        MOV     ?V0 + 5,A
// 1061       idx++;
        INC     ?V0 + 3
        SJMP    ??xferBuf_6
// 1062     }
// 1063     writeWord( dstPg, dstOff, tmp );
??xferBuf_7:
        ; Setup parameters for call to function writeWord
        MOV     DPL,?XSP + 0
        MOV     DPH,?XSP + 1
        MOV     R4,DPL
        MOV     R5,DPH
        MOV     R2,?V0 + 0
        MOV     R3,?V0 + 1
        MOV     R1,?V0 + 7
        LCALL   ??writeWord?relay
// 1064   }
// 1065 }
??xferBuf_5:
        MOV     A,#0x4
        LCALL   ?DEALLOC_XSTACK8
        CFI CFA_XSP16 add(XSP16, 19)
        MOV     R7,#0xb
        LJMP    ?BANKED_LEAVE_XDATA
        CFI EndBlock cfiBlock15
// 1066 
// 1067 /*********************************************************************
// 1068  * @fn      writeItem
// 1069  *
// 1070  * @brief   Writes an item header/data combo to the specified NV page.
// 1071  *
// 1072  * @param   pg - Valid NV Flash page.
// 1073  * @param   id - Valid NV item Id.
// 1074  * @param   len  - Byte count of the data to write.
// 1075  * @param   buf  - The data to write. If NULL, no data/checksum write.
// 1076  * @param   flag - TRUE if the checksum should be written, FALSE otherwise.
// 1077  *
// 1078  * @return  TRUE if header/data to write matches header/data read back, else FALSE.
// 1079  */

        RSEG BANKED_CODE:CODE:NOROOT(0)
// 1080 static uint8 writeItem( uint8 pg, uint16 id, uint16 len, void *buf, uint8 flag )
writeItem:
        CFI Block cfiBlock16 Using cfiCommon0
        CFI Function writeItem
        CODE
// 1081 {
        FUNCALL writeItem, writeWord
        LOCFRAME ISTACK, 0, STACK
        LOCFRAME PSTACK, 0, STACK
        LOCFRAME XSTACK, 28, STACK
        LOCFRAME IOVERLAY, 0, STATIC
        LOCFRAME DOVERLAY, 0, STATIC
        ARGFRAME ISTACK, 0, STACK
        ARGFRAME PSTACK, 0, STACK
        ARGFRAME XSTACK, 28, STACK
        ARGFRAME IOVERLAY, 0, STATIC
        ARGFRAME DOVERLAY, 0, STATIC
        FUNCALL writeItem, HalFlashRead
        LOCFRAME ISTACK, 0, STACK
        LOCFRAME PSTACK, 0, STACK
        LOCFRAME XSTACK, 30, STACK
        LOCFRAME IOVERLAY, 0, STATIC
        LOCFRAME DOVERLAY, 0, STATIC
        ARGFRAME ISTACK, 0, STACK
        ARGFRAME PSTACK, 0, STACK
        ARGFRAME XSTACK, 30, STACK
        ARGFRAME IOVERLAY, 0, STATIC
        ARGFRAME DOVERLAY, 0, STATIC
        FUNCALL writeItem, calcChkB
        LOCFRAME ISTACK, 0, STACK
        LOCFRAME PSTACK, 0, STACK
        LOCFRAME XSTACK, 28, STACK
        LOCFRAME IOVERLAY, 0, STATIC
        LOCFRAME DOVERLAY, 0, STATIC
        ARGFRAME ISTACK, 0, STACK
        ARGFRAME PSTACK, 0, STACK
        ARGFRAME XSTACK, 28, STACK
        ARGFRAME IOVERLAY, 0, STATIC
        ARGFRAME DOVERLAY, 0, STATIC
        FUNCALL writeItem, writeBuf
        LOCFRAME ISTACK, 0, STACK
        LOCFRAME PSTACK, 0, STACK
        LOCFRAME XSTACK, 30, STACK
        LOCFRAME IOVERLAY, 0, STATIC
        LOCFRAME DOVERLAY, 0, STATIC
        ARGFRAME ISTACK, 0, STACK
        ARGFRAME PSTACK, 0, STACK
        ARGFRAME XSTACK, 30, STACK
        ARGFRAME IOVERLAY, 0, STATIC
        ARGFRAME DOVERLAY, 0, STATIC
        FUNCALL writeItem, calcChkF
        LOCFRAME ISTACK, 0, STACK
        LOCFRAME PSTACK, 0, STACK
        LOCFRAME XSTACK, 28, STACK
        LOCFRAME IOVERLAY, 0, STATIC
        LOCFRAME DOVERLAY, 0, STATIC
        ARGFRAME ISTACK, 0, STACK
        ARGFRAME PSTACK, 0, STACK
        ARGFRAME XSTACK, 28, STACK
        ARGFRAME IOVERLAY, 0, STATIC
        ARGFRAME DOVERLAY, 0, STATIC
        FUNCALL writeItem, setChk
        LOCFRAME ISTACK, 0, STACK
        LOCFRAME PSTACK, 0, STACK
        LOCFRAME XSTACK, 28, STACK
        LOCFRAME IOVERLAY, 0, STATIC
        LOCFRAME DOVERLAY, 0, STATIC
        ARGFRAME ISTACK, 0, STACK
        ARGFRAME PSTACK, 0, STACK
        ARGFRAME XSTACK, 28, STACK
        ARGFRAME IOVERLAY, 0, STATIC
        ARGFRAME DOVERLAY, 0, STATIC
        FUNCALL writeItem, hotItemUpdate
        LOCFRAME ISTACK, 0, STACK
        LOCFRAME PSTACK, 0, STACK
        LOCFRAME XSTACK, 28, STACK
        LOCFRAME IOVERLAY, 0, STATIC
        LOCFRAME DOVERLAY, 0, STATIC
        ARGFRAME ISTACK, 0, STACK
        ARGFRAME PSTACK, 0, STACK
        ARGFRAME XSTACK, 28, STACK
        ARGFRAME IOVERLAY, 0, STATIC
        ARGFRAME DOVERLAY, 0, STATIC
        MOV     A,#-0x14
        LCALL   ?BANKED_ENTER_XDATA
        CFI DPH0 load(1, XDATA, add(CFA_XSP16, literal(-1)))
        CFI DPL0 load(1, XDATA, add(CFA_XSP16, literal(-2)))
        CFI ?BRET_EXT load(1, XDATA, add(CFA_XSP16, literal(-3)))
        CFI ?RET_HIGH load(1, XDATA, add(CFA_XSP16, literal(-4)))
        CFI ?RET_LOW load(1, XDATA, add(CFA_XSP16, literal(-5)))
        CFI R7 load(1, XDATA, add(CFA_XSP16, literal(-6)))
        CFI V11 load(1, XDATA, add(CFA_XSP16, literal(-7)))
        CFI V10 load(1, XDATA, add(CFA_XSP16, literal(-8)))
        CFI V9 load(1, XDATA, add(CFA_XSP16, literal(-9)))
        CFI V8 load(1, XDATA, add(CFA_XSP16, literal(-10)))
        CFI V7 load(1, XDATA, add(CFA_XSP16, literal(-11)))
        CFI V6 load(1, XDATA, add(CFA_XSP16, literal(-12)))
        CFI V5 load(1, XDATA, add(CFA_XSP16, literal(-13)))
        CFI V4 load(1, XDATA, add(CFA_XSP16, literal(-14)))
        CFI V3 load(1, XDATA, add(CFA_XSP16, literal(-15)))
        CFI V2 load(1, XDATA, add(CFA_XSP16, literal(-16)))
        CFI V1 load(1, XDATA, add(CFA_XSP16, literal(-17)))
        CFI V0 load(1, XDATA, add(CFA_XSP16, literal(-18)))
        CFI VB load(1, XDATA, add(CFA_XSP16, literal(-19)))
        CFI R6 load(1, XDATA, add(CFA_XSP16, literal(-20)))
        CFI CFA_SP SP+0
        CFI CFA_XSP16 add(XSP16, 20)
        ; Saved register size: 20
        ; Auto size: 8
        MOV     A,#-0x8
        LCALL   ?ALLOC_XSTACK8
        CFI CFA_XSP16 add(XSP16, 28)
        MOV     ?V0 + 0,R1
        MOV     ?V0 + 8,R2
        MOV     ?V0 + 9,R3
        MOV     A,R4
        MOV     R6,A
        MOV     A,R5
        MOV     R7,A
        MOV     A,#0x1c
        LCALL   ?XSTACK_DISP0_8
        MOVX    A,@DPTR
        MOV     ?V0 + 6,A
        INC     DPTR
        MOVX    A,@DPTR
        MOV     ?V0 + 7,A
        MOV     A,#0x1e
        LCALL   ?XSTACK_DISP0_8
        MOVX    A,@DPTR
        MOV     ?V0 + 4,A
// 1082   uint16 offset = pgOff[pg-OSAL_NV_PAGE_BEG];
        MOV     A,?V0 + 0
        MOV     R0,?V0 + 0
        MOV     R1,#0x0
        MOV     A,R0
        MOV     B,#0x2
        MUL     AB
        XCH     A,R0
        MOV     R2,B
        MOV     B,#0x0
        MUL     AB
        ADD     A,R2
        MOV     R2,A
        MOV     B,#0x2
        MOV     A,R1
        MUL     AB
        ADD     A,R2
        MOV     R1,A
        MOV     A,#(pgOff + 14) & 0xff
        ADD     A,R0
        MOV     DPL,A
        MOV     A,#((pgOff - 242) >> 8) & 0xff
        ADDC    A,R1
        MOV     DPH,A
        MOVX    A,@DPTR
        MOV     ?V0 + 2,A
        INC     DPTR
        MOVX    A,@DPTR
        MOV     ?V0 + 3,A
// 1083   uint8 rtrn = FALSE;
        MOV     ?V0 + 1,#0x0
// 1084   osalNvHdr_t hdr;
// 1085 
// 1086   hdr.id = id;
        MOV     DPL,?XSP + 0
        MOV     DPH,?XSP + 1
        MOV     A,?V0 + 8
        MOVX    @DPTR,A
        INC     DPTR
        MOV     A,?V0 + 9
        MOVX    @DPTR,A
// 1087   hdr.len = len;
        MOV     A,#0x2
        LCALL   ?XSTACK_DISP0_8
        MOV     A,R6
        MOVX    @DPTR,A
        INC     DPTR
        MOV     A,R7
        MOVX    @DPTR,A
// 1088 
// 1089   writeWord( pg, offset, (uint8 *)&hdr );
        ; Setup parameters for call to function writeWord
        MOV     DPL,?XSP + 0
        MOV     DPH,?XSP + 1
        MOV     R4,DPL
        MOV     R5,DPH
        MOV     R2,?V0 + 2
        MOV     R3,?V0 + 3
        MOV     R1,?V0 + 0
        LCALL   ??writeWord?relay
// 1090   HalFlashRead(pg, offset, (uint8 *)(&hdr), OSAL_NV_HDR_SIZE);
        ; Setup parameters for call to function HalFlashRead
        MOV     ?V0 + 10,#0x8
        MOV     ?V0 + 11,#0x0
        MOV     R0,#?V0 + 10
        LCALL   ?PUSH_XSTACK_I_TWO
        CFI CFA_XSP16 add(XSP16, 30)
        MOV     A,#0x2
        LCALL   ?XSTACK_DISP0_8
        MOV     R4,DPL
        MOV     R5,DPH
        MOV     R2,?V0 + 2
        MOV     R3,?V0 + 3
        MOV     R1,?V0 + 0
        LCALL   ??HalFlashRead?relay
        MOV     A,#0x2
        LCALL   ?DEALLOC_XSTACK8
        CFI CFA_XSP16 add(XSP16, 28)
// 1091 
// 1092   if ( (hdr.id == id) && (hdr.len == len) )
        MOV     DPL,?XSP + 0
        MOV     DPH,?XSP + 1
        MOVX    A,@DPTR
        XRL     A,?V0 + 8
        JNZ     ??writeItem_0
        INC     DPTR
        MOVX    A,@DPTR
        XRL     A,?V0 + 9
??writeItem_0:
        JZ      $+5
        LJMP    ??writeItem_1 & 0xFFFF
        MOV     A,#0x2
        LCALL   ?XSTACK_DISP0_8
        MOVX    A,@DPTR
        XRL     A,R6
        JNZ     ??writeItem_2
        INC     DPTR
        MOVX    A,@DPTR
        XRL     A,R7
??writeItem_2:
        JZ      $+5
        LJMP    ??writeItem_1 & 0xFFFF
// 1093   {
// 1094     if ( flag )
        MOV     A,?V0 + 4
        JNZ     $+5
        LJMP    ??writeItem_3 & 0xFFFF
// 1095     {
// 1096       hdr.chk = calcChkB( len, buf );
        ; Setup parameters for call to function calcChkB
        MOV     R4,?V0 + 6
        MOV     R5,?V0 + 7
        MOV     A,R6
        MOV     R2,A
        MOV     A,R7
        MOV     R3,A
        LCALL   ??calcChkB?relay
        MOV     A,#0x4
        LCALL   ?XSTACK_DISP0_8
        MOV     A,R2
        MOVX    @DPTR,A
        INC     DPTR
        MOV     A,R3
        MOVX    @DPTR,A
// 1097 
// 1098       offset += OSAL_NV_HDR_SIZE;
        MOV     A,?V0 + 2
        ADD     A,#0x8
        MOV     ?V0 + 2,A
        MOV     A,?V0 + 3
        ADDC    A,#0x0
        MOV     ?V0 + 3,A
// 1099       if ( buf != NULL )
        MOV     A,?V0 + 6
        ORL     A,?V0 + 7
        JZ      ??writeItem_4
// 1100       {
// 1101         writeBuf( pg, offset, len, buf );
        ; Setup parameters for call to function writeBuf
        MOV     R0,#?V0 + 6
        LCALL   ?PUSH_XSTACK_I_TWO
        CFI CFA_XSP16 add(XSP16, 30)
        MOV     A,R6
        MOV     R4,A
        MOV     A,R7
        MOV     R5,A
        MOV     R2,?V0 + 2
        MOV     R3,?V0 + 3
        MOV     R1,?V0 + 0
        LCALL   ??writeBuf?relay
        MOV     A,#0x2
        LCALL   ?DEALLOC_XSTACK8
        CFI CFA_XSP16 add(XSP16, 28)
// 1102       }
// 1103 
// 1104       if ( hdr.chk == calcChkF( pg, offset, len ) )
??writeItem_4:
        ; Setup parameters for call to function calcChkF
        MOV     A,R6
        MOV     R4,A
        MOV     A,R7
        MOV     R5,A
        MOV     R2,?V0 + 2
        MOV     R3,?V0 + 3
        MOV     R1,?V0 + 0
        LCALL   ??calcChkF?relay
        MOV     ?V0 + 10,R2
        MOV     ?V0 + 11,R3
        MOV     R0,?V0 + 10
        MOV     R1,?V0 + 11
        MOV     A,#0x4
        LCALL   ?XSTACK_DISP0_8
        MOVX    A,@DPTR
        XRL     A,R0
        JNZ     ??writeItem_5
        INC     DPTR
        MOVX    A,@DPTR
        XRL     A,R1
??writeItem_5:
        JNZ     ??writeItem_6
// 1105       {
// 1106         if ( hdr.chk == setChk( pg, offset, hdr.chk ) )
        ; Setup parameters for call to function setChk
        MOV     A,#0x4
        LCALL   ?XSTACK_DISP0_8
        MOVX    A,@DPTR
        MOV     R4,A
        INC     DPTR
        MOVX    A,@DPTR
        MOV     R5,A
        MOV     R2,?V0 + 2
        MOV     R3,?V0 + 3
        MOV     R1,?V0 + 0
        LCALL   ??setChk?relay
        MOV     ?V0 + 10,R2
        MOV     ?V0 + 11,R3
        MOV     R0,?V0 + 10
        MOV     R1,?V0 + 11
        MOV     A,#0x4
        LCALL   ?XSTACK_DISP0_8
        MOVX    A,@DPTR
        XRL     A,R0
        JNZ     ??writeItem_7
        INC     DPTR
        MOVX    A,@DPTR
        XRL     A,R1
??writeItem_7:
        JNZ     ??writeItem_6
// 1107         {
// 1108           hotItemUpdate(pg, offset, hdr.id);
        ; Setup parameters for call to function hotItemUpdate
        MOV     DPL,?XSP + 0
        MOV     DPH,?XSP + 1
        MOVX    A,@DPTR
        MOV     R4,A
        INC     DPTR
        MOVX    A,@DPTR
        MOV     R5,A
        MOV     R2,?V0 + 2
        MOV     R3,?V0 + 3
        MOV     R1,?V0 + 0
        LCALL   ??hotItemUpdate?relay
// 1109           rtrn = TRUE;
        MOV     ?V0 + 1,#0x1
        SJMP    ??writeItem_6
// 1110         }
// 1111       }
// 1112     }
// 1113     else
// 1114     {
// 1115       rtrn = TRUE;
??writeItem_3:
        MOV     ?V0 + 1,#0x1
// 1116     }
// 1117 
// 1118     len = OSAL_NV_ITEM_SIZE( hdr.len );
??writeItem_6:
        MOV     A,#0x2
        LCALL   ?XSTACK_DISP0_8
        CLR     C
        MOVX    A,@DPTR
        SUBB    A,#-0xc
        INC     DPTR
        MOVX    A,@DPTR
        SUBB    A,#-0x1
        JC      ??writeItem_8
        MOV     R6,#-0x4
        MOV     R7,#-0x1
        LJMP    ??writeItem_9 & 0xFFFF
??writeItem_8:
        MOV     A,#0x2
        LCALL   ?XSTACK_DISP0_8
        MOVX    A,@DPTR
        ADD     A,#0x3
        MOV     ?V0 + 10,A
        INC     DPTR
        MOVX    A,@DPTR
        ADDC    A,#0x0
        MOV     ?V0 + 11,A
        MOV     A,#0x2
        MOV     R0,#?V0 + 10
        LCALL   ?US_SHR
        MOV     A,?V0 + 10
        MOV     B,#0x4
        MUL     AB
        XCH     A,?V0 + 10
        MOV     R0,B
        MOV     B,#0x0
        MUL     AB
        ADD     A,R0
        MOV     R0,A
        MOV     B,#0x4
        MOV     A,?V0 + 11
        MUL     AB
        ADD     A,R0
        MOV     ?V0 + 11,A
        MOV     A,?V0 + 10
        ADD     A,#0x8
        MOV     R6,A
        MOV     A,?V0 + 11
        ADDC    A,#0x0
        MOV     R7,A
        LJMP    ??writeItem_9 & 0xFFFF
// 1119   }
// 1120   else
// 1121   {
// 1122     len = OSAL_NV_ITEM_SIZE( hdr.len );
??writeItem_1:
        MOV     A,#0x2
        LCALL   ?XSTACK_DISP0_8
        CLR     C
        MOVX    A,@DPTR
        SUBB    A,#-0xc
        INC     DPTR
        MOVX    A,@DPTR
        SUBB    A,#-0x1
        JC      ??writeItem_10
        MOV     R6,#-0x4
        MOV     R7,#-0x1
        SJMP    ??writeItem_11
??writeItem_10:
        MOV     A,#0x2
        LCALL   ?XSTACK_DISP0_8
        MOVX    A,@DPTR
        ADD     A,#0x3
        MOV     ?V0 + 10,A
        INC     DPTR
        MOVX    A,@DPTR
        ADDC    A,#0x0
        MOV     ?V0 + 11,A
        MOV     A,#0x2
        MOV     R0,#?V0 + 10
        LCALL   ?US_SHR
        MOV     A,?V0 + 10
        MOV     B,#0x4
        MUL     AB
        XCH     A,?V0 + 10
        MOV     R0,B
        MOV     B,#0x0
        MUL     AB
        ADD     A,R0
        MOV     R0,A
        MOV     B,#0x4
        MOV     A,?V0 + 11
        MUL     AB
        ADD     A,R0
        MOV     ?V0 + 11,A
        MOV     A,?V0 + 10
        ADD     A,#0x8
        MOV     R6,A
        MOV     A,?V0 + 11
        ADDC    A,#0x0
        MOV     R7,A
// 1123 
// 1124     if (len > (OSAL_NV_PAGE_SIZE - pgOff[pg - OSAL_NV_PAGE_BEG]))
??writeItem_11:
        MOV     A,?V0 + 0
        MOV     R0,?V0 + 0
        MOV     R1,#0x0
        MOV     A,R0
        MOV     B,#0x2
        MUL     AB
        XCH     A,R0
        MOV     R2,B
        MOV     B,#0x0
        MUL     AB
        ADD     A,R2
        MOV     R2,A
        MOV     B,#0x2
        MOV     A,R1
        MUL     AB
        ADD     A,R2
        MOV     R1,A
        MOV     A,#(pgOff + 14) & 0xff
        ADD     A,R0
        MOV     DPL,A
        MOV     A,#((pgOff - 242) >> 8) & 0xff
        ADDC    A,R1
        MOV     DPH,A
        MOVX    A,@DPTR
        MOV     R0,A
        INC     DPTR
        MOVX    A,@DPTR
        MOV     R1,A
        MOV     A,#0x0
        CLR     C
        SUBB    A,R0
        MOV     R0,A
        MOV     A,#0x8
        SUBB    A,R1
        MOV     R1,A
        CLR     C
        MOV     A,R0
        SUBB    A,R6
        MOV     A,R1
        SUBB    A,R7
        JNC     ??writeItem_12
// 1125     {
// 1126       len = (OSAL_NV_PAGE_SIZE - pgOff[pg - OSAL_NV_PAGE_BEG]);
        MOV     A,?V0 + 0
        MOV     R0,?V0 + 0
        MOV     R1,#0x0
        MOV     A,R0
        MOV     B,#0x2
        MUL     AB
        XCH     A,R0
        MOV     R2,B
        MOV     B,#0x0
        MUL     AB
        ADD     A,R2
        MOV     R2,A
        MOV     B,#0x2
        MOV     A,R1
        MUL     AB
        ADD     A,R2
        MOV     R1,A
        MOV     A,#(pgOff + 14) & 0xff
        ADD     A,R0
        MOV     DPL,A
        MOV     A,#((pgOff - 242) >> 8) & 0xff
        ADDC    A,R1
        MOV     DPH,A
        MOVX    A,@DPTR
        MOV     R0,A
        INC     DPTR
        MOVX    A,@DPTR
        MOV     R1,A
        MOV     A,#0x0
        CLR     C
        SUBB    A,R0
        MOV     R0,A
        MOV     A,#0x8
        SUBB    A,R1
        MOV     R1,A
        MOV     A,R0
        MOV     R6,A
        MOV     A,R1
        MOV     R7,A
// 1127     }
// 1128 
// 1129     pgLost[pg - OSAL_NV_PAGE_BEG] += len;
??writeItem_12:
        MOV     A,?V0 + 0
        MOV     R0,?V0 + 0
        MOV     R1,#0x0
        MOV     A,R0
        MOV     B,#0x2
        MUL     AB
        XCH     A,R0
        MOV     R2,B
        MOV     B,#0x0
        MUL     AB
        ADD     A,R2
        MOV     R2,A
        MOV     B,#0x2
        MOV     A,R1
        MUL     AB
        ADD     A,R2
        MOV     R1,A
        MOV     A,#(pgLost + 14) & 0xff
        ADD     A,R0
        MOV     DPL,A
        MOV     A,#((pgLost - 242) >> 8) & 0xff
        ADDC    A,R1
        MOV     DPH,A
        MOVX    A,@DPTR
        ADD     A,R6
        MOVX    @DPTR,A
        INC     DPTR
        MOVX    A,@DPTR
        ADDC    A,R7
        MOVX    @DPTR,A
// 1130   }
// 1131   pgOff[pg - OSAL_NV_PAGE_BEG] += len;
??writeItem_9:
        MOV     A,?V0 + 0
        MOV     R0,?V0 + 0
        MOV     R1,#0x0
        MOV     A,R0
        MOV     B,#0x2
        MUL     AB
        XCH     A,R0
        MOV     R2,B
        MOV     B,#0x0
        MUL     AB
        ADD     A,R2
        MOV     R2,A
        MOV     B,#0x2
        MOV     A,R1
        MUL     AB
        ADD     A,R2
        MOV     R1,A
        MOV     A,#(pgOff + 14) & 0xff
        ADD     A,R0
        MOV     DPL,A
        MOV     A,#((pgOff - 242) >> 8) & 0xff
        ADDC    A,R1
        MOV     DPH,A
        MOVX    A,@DPTR
        ADD     A,R6
        MOVX    @DPTR,A
        INC     DPTR
        MOVX    A,@DPTR
        ADDC    A,R7
        MOVX    @DPTR,A
// 1132 
// 1133   return rtrn;
        MOV     R1,?V0 + 1
        MOV     A,#0x8
        LCALL   ?DEALLOC_XSTACK8
        CFI CFA_XSP16 add(XSP16, 20)
        MOV     R7,#0xc
        LJMP    ?BANKED_LEAVE_XDATA
        CFI EndBlock cfiBlock16
// 1134 }
// 1135 
// 1136 /*********************************************************************
// 1137  * @fn      hotItem
// 1138  *
// 1139  * @brief   Look for the parameter 'id' in the hot items array.
// 1140  *
// 1141  * @param   id - A valid NV item Id.
// 1142  *
// 1143  * @return  A valid index into the hot items if the item is hot; OSAL_NV_MAX_HOT if not.
// 1144  */

        RSEG BANKED_CODE:CODE:NOROOT(0)
// 1145 static uint8 hotItem(uint16 id)
hotItem:
        CFI Block cfiBlock17 Using cfiCommon0
        CFI Function hotItem
        CODE
// 1146 {
        PUSH    DPL
        CFI DPL0 Frame(CFA_SP, 4)
        CFI CFA_SP SP+-4
        PUSH    DPH
        CFI DPH0 Frame(CFA_SP, 5)
        CFI CFA_SP SP+-5
        ; Saved register size: 2
        ; Auto size: 0
// 1147   uint8 hotIdx;
// 1148 
// 1149   for (hotIdx = 0; hotIdx < OSAL_NV_MAX_HOT; hotIdx++)
        MOV     R1,#0x0
??hotItem_0:
        MOV     A,R1
        CLR     C
        SUBB    A,#0x3
        JNC     ??hotItem_1
// 1150   {
// 1151     if (hotIds[hotIdx] == id)
        MOV     A,R1
        MOV     R4,A
        MOV     R5,#0x0
        MOV     A,R4
        MOV     B,#0x2
        MUL     AB
        XCH     A,R4
        MOV     R0,B
        MOV     B,#0x0
        MUL     AB
        ADD     A,R0
        MOV     R0,A
        MOV     B,#0x2
        MOV     A,R5
        MUL     AB
        ADD     A,R0
        MOV     R5,A
        MOV     A,#hotIds & 0xff
        ADD     A,R4
        MOV     DPL,A
        MOV     A,#(hotIds >> 8) & 0xff
        ADDC    A,R5
        MOV     DPH,A
        MOVX    A,@DPTR
        XRL     A,R2
        JNZ     ??hotItem_2
        INC     DPTR
        MOVX    A,@DPTR
        XRL     A,R3
??hotItem_2:
        JZ      ??hotItem_1
// 1152     {
// 1153       break;
// 1154     }
// 1155   }
        INC     R1
        SJMP    ??hotItem_0
// 1156 
// 1157   return hotIdx;
??hotItem_1:
        POP     DPH
        CFI DPH0 SameValue
        CFI CFA_SP SP+-4
        POP     DPL
        CFI DPL0 SameValue
        CFI CFA_SP SP+-3
        LJMP    ?BRET
        CFI EndBlock cfiBlock17
// 1158 }
// 1159 
// 1160 /*********************************************************************
// 1161  * @fn      hotItemUpdate
// 1162  *
// 1163  * @brief   If the parameter 'id' is a hot item, update the corresponding hot item data.
// 1164  *
// 1165  * @param   pg - The new NV page corresponding to the hot item.
// 1166  * @param   off - The new NV page offset corresponding to the hot item.
// 1167  * @param   id - A valid NV item Id.
// 1168  *
// 1169  * @return  none
// 1170  */

        RSEG BANKED_CODE:CODE:NOROOT(0)
// 1171 static void hotItemUpdate(uint8 pg, uint16 off, uint16 id)
hotItemUpdate:
        CFI Block cfiBlock18 Using cfiCommon0
        CFI Function hotItemUpdate
        CODE
// 1172 {
        FUNCALL hotItemUpdate, hotItem
        LOCFRAME ISTACK, 0, STACK
        LOCFRAME PSTACK, 0, STACK
        LOCFRAME XSTACK, 13, STACK
        LOCFRAME IOVERLAY, 0, STATIC
        LOCFRAME DOVERLAY, 0, STATIC
        ARGFRAME ISTACK, 0, STACK
        ARGFRAME PSTACK, 0, STACK
        ARGFRAME XSTACK, 13, STACK
        ARGFRAME IOVERLAY, 0, STATIC
        ARGFRAME DOVERLAY, 0, STATIC
        MOV     A,#-0xd
        LCALL   ?BANKED_ENTER_XDATA
        CFI DPH0 load(1, XDATA, add(CFA_XSP16, literal(-1)))
        CFI DPL0 load(1, XDATA, add(CFA_XSP16, literal(-2)))
        CFI ?BRET_EXT load(1, XDATA, add(CFA_XSP16, literal(-3)))
        CFI ?RET_HIGH load(1, XDATA, add(CFA_XSP16, literal(-4)))
        CFI ?RET_LOW load(1, XDATA, add(CFA_XSP16, literal(-5)))
        CFI R7 load(1, XDATA, add(CFA_XSP16, literal(-6)))
        CFI V4 load(1, XDATA, add(CFA_XSP16, literal(-7)))
        CFI V3 load(1, XDATA, add(CFA_XSP16, literal(-8)))
        CFI V2 load(1, XDATA, add(CFA_XSP16, literal(-9)))
        CFI V1 load(1, XDATA, add(CFA_XSP16, literal(-10)))
        CFI V0 load(1, XDATA, add(CFA_XSP16, literal(-11)))
        CFI VB load(1, XDATA, add(CFA_XSP16, literal(-12)))
        CFI R6 load(1, XDATA, add(CFA_XSP16, literal(-13)))
        CFI CFA_SP SP+0
        CFI CFA_XSP16 add(XSP16, 13)
        ; Saved register size: 13
        ; Auto size: 0
        MOV     ?V0 + 4,R1
        MOV     ?V0 + 2,R2
        MOV     ?V0 + 3,R3
        MOV     A,R4
        MOV     R6,A
        MOV     A,R5
        MOV     R7,A
// 1173   uint8 hotIdx = hotItem(id);
        ; Setup parameters for call to function hotItem
        MOV     A,R6
        MOV     R2,A
        MOV     A,R7
        MOV     R3,A
        LCALL   ??hotItem?relay
        MOV     A,R1
        MOV     R3,A
// 1174 
// 1175   if (hotIdx < OSAL_NV_MAX_HOT)
        MOV     A,R3
        CLR     C
        SUBB    A,#0x3
        JNC     ??hotItemUpdate_0
// 1176   {
// 1177     {
// 1178       hotPg[hotIdx] = pg;
        MOV     A,?V0 + 4
        MOV     ?V0 + 0,R3
        MOV     ?V0 + 1,#0x0
        MOV     A,#hotPg & 0xff
        ADD     A,?V0 + 0
        MOV     DPL,A
        MOV     A,#(hotPg >> 8) & 0xff
        ADDC    A,?V0 + 1
        MOV     DPH,A
        MOV     A,?V0 + 4
        MOVX    @DPTR,A
// 1179       hotOff[hotIdx] = off;
        MOV     A,R3
        MOV     R0,A
        MOV     R1,#0x0
        MOV     A,R0
        MOV     B,#0x2
        MUL     AB
        XCH     A,R0
        MOV     R2,B
        MOV     B,#0x0
        MUL     AB
        ADD     A,R2
        MOV     R2,A
        MOV     B,#0x2
        MOV     A,R1
        MUL     AB
        ADD     A,R2
        MOV     R1,A
        MOV     A,#hotOff & 0xff
        ADD     A,R0
        MOV     DPL,A
        MOV     A,#(hotOff >> 8) & 0xff
        ADDC    A,R1
        MOV     DPH,A
        MOV     A,?V0 + 2
        MOVX    @DPTR,A
        INC     DPTR
        MOV     A,?V0 + 3
        MOVX    @DPTR,A
// 1180     }
// 1181   }
// 1182 }
??hotItemUpdate_0:
        MOV     R7,#0x5
        LJMP    ?BANKED_LEAVE_XDATA
        CFI EndBlock cfiBlock18
// 1183 
// 1184 /*********************************************************************
// 1185  * @fn      osal_nv_init
// 1186  *
// 1187  * @brief   Initialize NV service.
// 1188  *
// 1189  * @param   p - Not used.
// 1190  *
// 1191  * @return  none
// 1192  */

        RSEG BANKED_CODE:CODE:NOROOT(0)
// 1193 void osal_nv_init( void *p )
osal_nv_init:
        CFI Block cfiBlock19 Using cfiCommon0
        CFI Function osal_nv_init
        CODE
// 1194 {
        FUNCALL osal_nv_init, initNV
        LOCFRAME ISTACK, 0, STACK
        LOCFRAME PSTACK, 0, STACK
        LOCFRAME XSTACK, 9, STACK
        LOCFRAME IOVERLAY, 0, STATIC
        LOCFRAME DOVERLAY, 0, STATIC
        ARGFRAME ISTACK, 0, STACK
        ARGFRAME PSTACK, 0, STACK
        ARGFRAME XSTACK, 9, STACK
        ARGFRAME IOVERLAY, 0, STATIC
        ARGFRAME DOVERLAY, 0, STATIC
        MOV     A,#-0x9
        LCALL   ?BANKED_ENTER_XDATA
        CFI DPH0 load(1, XDATA, add(CFA_XSP16, literal(-1)))
        CFI DPL0 load(1, XDATA, add(CFA_XSP16, literal(-2)))
        CFI ?BRET_EXT load(1, XDATA, add(CFA_XSP16, literal(-3)))
        CFI ?RET_HIGH load(1, XDATA, add(CFA_XSP16, literal(-4)))
        CFI ?RET_LOW load(1, XDATA, add(CFA_XSP16, literal(-5)))
        CFI R7 load(1, XDATA, add(CFA_XSP16, literal(-6)))
        CFI V0 load(1, XDATA, add(CFA_XSP16, literal(-7)))
        CFI VB load(1, XDATA, add(CFA_XSP16, literal(-8)))
        CFI R6 load(1, XDATA, add(CFA_XSP16, literal(-9)))
        CFI CFA_SP SP+0
        CFI CFA_XSP16 add(XSP16, 9)
        ; Saved register size: 9
        ; Auto size: 0
        MOV     A,R2
        MOV     R6,A
        MOV     A,R3
        MOV     R7,A
// 1195   (void)p;  // Suppress Lint warning.
// 1196   (void)initNV();  // Always returns TRUE after pages have been erased.
        ; Setup parameters for call to function initNV
        LCALL   ??initNV?relay
        MOV     A,R1
// 1197 }
        MOV     R7,#0x1
        LJMP    ?BANKED_LEAVE_XDATA
        CFI EndBlock cfiBlock19
// 1198 
// 1199 /*********************************************************************
// 1200  * @fn      osal_nv_item_init
// 1201  *
// 1202  * @brief   If the NV item does not already exist, it is created and
// 1203  *          initialized with the data passed to the function, if any.
// 1204  *          This function must be called before calling osal_nv_read() or
// 1205  *          osal_nv_write().
// 1206  *
// 1207  * @param   id  - Valid NV item Id.
// 1208  * @param   len - Item length.
// 1209  * @param  *buf - Pointer to item initalization data. Set to NULL if none.
// 1210  *
// 1211  * @return  NV_ITEM_UNINIT - Id did not exist and was created successfully.
// 1212  *          SUCCESS        - Id already existed, no action taken.
// 1213  *          NV_OPER_FAILED - Failure to find or create Id.
// 1214  */

        RSEG BANKED_CODE:CODE:NOROOT(0)
// 1215 uint8 osal_nv_item_init( uint16 id, uint16 len, void *buf )
osal_nv_item_init:
        CFI Block cfiBlock20 Using cfiCommon0
        CFI Function osal_nv_item_init
        CODE
// 1216 {
        FUNCALL osal_nv_item_init, HalAdcCheckVdd
        LOCFRAME ISTACK, 0, STACK
        LOCFRAME PSTACK, 0, STACK
        LOCFRAME XSTACK, 16, STACK
        LOCFRAME IOVERLAY, 0, STATIC
        LOCFRAME DOVERLAY, 0, STATIC
        ARGFRAME ISTACK, 0, STACK
        ARGFRAME PSTACK, 0, STACK
        ARGFRAME XSTACK, 16, STACK
        ARGFRAME IOVERLAY, 0, STATIC
        ARGFRAME DOVERLAY, 0, STATIC
        FUNCALL osal_nv_item_init, findItem
        LOCFRAME ISTACK, 0, STACK
        LOCFRAME PSTACK, 0, STACK
        LOCFRAME XSTACK, 16, STACK
        LOCFRAME IOVERLAY, 0, STATIC
        LOCFRAME DOVERLAY, 0, STATIC
        ARGFRAME ISTACK, 0, STACK
        ARGFRAME PSTACK, 0, STACK
        ARGFRAME XSTACK, 16, STACK
        ARGFRAME IOVERLAY, 0, STATIC
        ARGFRAME DOVERLAY, 0, STATIC
        FUNCALL osal_nv_item_init, hotItemUpdate
        LOCFRAME ISTACK, 0, STACK
        LOCFRAME PSTACK, 0, STACK
        LOCFRAME XSTACK, 16, STACK
        LOCFRAME IOVERLAY, 0, STATIC
        LOCFRAME DOVERLAY, 0, STATIC
        ARGFRAME ISTACK, 0, STACK
        ARGFRAME PSTACK, 0, STACK
        ARGFRAME XSTACK, 16, STACK
        ARGFRAME IOVERLAY, 0, STATIC
        ARGFRAME DOVERLAY, 0, STATIC
        FUNCALL osal_nv_item_init, initItem
        LOCFRAME ISTACK, 0, STACK
        LOCFRAME PSTACK, 0, STACK
        LOCFRAME XSTACK, 18, STACK
        LOCFRAME IOVERLAY, 0, STATIC
        LOCFRAME DOVERLAY, 0, STATIC
        ARGFRAME ISTACK, 0, STACK
        ARGFRAME PSTACK, 0, STACK
        ARGFRAME XSTACK, 18, STACK
        ARGFRAME IOVERLAY, 0, STATIC
        ARGFRAME DOVERLAY, 0, STATIC
        MOV     A,#-0x10
        LCALL   ?BANKED_ENTER_XDATA
        CFI DPH0 load(1, XDATA, add(CFA_XSP16, literal(-1)))
        CFI DPL0 load(1, XDATA, add(CFA_XSP16, literal(-2)))
        CFI ?BRET_EXT load(1, XDATA, add(CFA_XSP16, literal(-3)))
        CFI ?RET_HIGH load(1, XDATA, add(CFA_XSP16, literal(-4)))
        CFI ?RET_LOW load(1, XDATA, add(CFA_XSP16, literal(-5)))
        CFI R7 load(1, XDATA, add(CFA_XSP16, literal(-6)))
        CFI V7 load(1, XDATA, add(CFA_XSP16, literal(-7)))
        CFI V6 load(1, XDATA, add(CFA_XSP16, literal(-8)))
        CFI V5 load(1, XDATA, add(CFA_XSP16, literal(-9)))
        CFI V4 load(1, XDATA, add(CFA_XSP16, literal(-10)))
        CFI V3 load(1, XDATA, add(CFA_XSP16, literal(-11)))
        CFI V2 load(1, XDATA, add(CFA_XSP16, literal(-12)))
        CFI V1 load(1, XDATA, add(CFA_XSP16, literal(-13)))
        CFI V0 load(1, XDATA, add(CFA_XSP16, literal(-14)))
        CFI VB load(1, XDATA, add(CFA_XSP16, literal(-15)))
        CFI R6 load(1, XDATA, add(CFA_XSP16, literal(-16)))
        CFI CFA_SP SP+0
        CFI CFA_XSP16 add(XSP16, 16)
        ; Saved register size: 16
        ; Auto size: 0
        MOV     A,R2
        MOV     R6,A
        MOV     A,R3
        MOV     R7,A
        MOV     ?V0 + 2,R4
        MOV     ?V0 + 3,R5
        MOV     A,#0x10
        LCALL   ?XSTACK_DISP0_8
        MOVX    A,@DPTR
        MOV     ?V0 + 4,A
        INC     DPTR
        MOVX    A,@DPTR
        MOV     ?V0 + 5,A
// 1217   uint16 offset;
// 1218 
// 1219   if ( !OSAL_NV_CHECK_BUS_VOLTAGE )
        ; Setup parameters for call to function HalAdcCheckVdd
        MOV     R1,#0x4e
        LCALL   ??HalAdcCheckVdd?relay
        MOV     A,R1
        JNZ     ??osal_nv_item_init_0
// 1220   {
// 1221     return NV_OPER_FAILED;
        MOV     R1,#0xa
        SJMP    ??osal_nv_item_init_1
// 1222   }
// 1223   else if ((offset = findItem(id)) != OSAL_NV_ITEM_NULL)
??osal_nv_item_init_0:
        ; Setup parameters for call to function findItem
        MOV     A,R6
        MOV     R2,A
        MOV     A,R7
        MOV     R3,A
        LCALL   ??findItem?relay
        MOV     ?V0 + 6,R2
        MOV     ?V0 + 7,R3
        MOV     R0,?V0 + 6
        MOV     R1,?V0 + 7
        MOV     ?V0 + 0,R0
        MOV     ?V0 + 1,R1
        MOV     A,R0
        ORL     A,R1
        JZ      ??osal_nv_item_init_2
// 1224   {
// 1225     // Re-populate the NV hot item data if the corresponding items are already established.
// 1226     hotItemUpdate(findPg, offset, id);
        ; Setup parameters for call to function hotItemUpdate
        MOV     A,R6
        MOV     R4,A
        MOV     A,R7
        MOV     R5,A
        MOV     R2,?V0 + 0
        MOV     R3,?V0 + 1
        MOV     DPTR,#findPg
        MOVX    A,@DPTR
        MOV     R1,A
        LCALL   ??hotItemUpdate?relay
// 1227 
// 1228     return SUCCESS;
        MOV     R1,#0x0
        SJMP    ??osal_nv_item_init_1
// 1229   }
// 1230   else if ( initItem( TRUE, id, len, buf ) != OSAL_NV_PAGE_NULL )
??osal_nv_item_init_2:
        ; Setup parameters for call to function initItem
        MOV     R0,#?V0 + 4
        LCALL   ?PUSH_XSTACK_I_TWO
        CFI CFA_XSP16 add(XSP16, 18)
        MOV     R4,?V0 + 2
        MOV     R5,?V0 + 3
        MOV     A,R6
        MOV     R2,A
        MOV     A,R7
        MOV     R3,A
        MOV     R1,#0x1
        LCALL   ??initItem?relay
        MOV     A,#0x2
        LCALL   ?DEALLOC_XSTACK8
        CFI CFA_XSP16 add(XSP16, 16)
        MOV     A,R1
        JZ      ??osal_nv_item_init_3
// 1231   {
// 1232     return NV_ITEM_UNINIT;
        MOV     R1,#0x9
        SJMP    ??osal_nv_item_init_1
// 1233   }
// 1234   else
// 1235   {
// 1236     return NV_OPER_FAILED;
??osal_nv_item_init_3:
        MOV     R1,#0xa
??osal_nv_item_init_1:
        MOV     R7,#0x8
        LJMP    ?BANKED_LEAVE_XDATA
        CFI EndBlock cfiBlock20
// 1237   }
// 1238 }
// 1239 
// 1240 /*********************************************************************
// 1241  * @fn      osal_nv_item_len
// 1242  *
// 1243  * @brief   Get the data length of the item stored in NV memory.
// 1244  *
// 1245  * @param   id  - Valid NV item Id.
// 1246  *
// 1247  * @return  Item length, if found; zero otherwise.
// 1248  */

        RSEG BANKED_CODE:CODE:NOROOT(0)
// 1249 uint16 osal_nv_item_len( uint16 id )
osal_nv_item_len:
        CFI Block cfiBlock21 Using cfiCommon0
        CFI Function osal_nv_item_len
        CODE
// 1250 {
        FUNCALL osal_nv_item_len, hotItem
        LOCFRAME ISTACK, 0, STACK
        LOCFRAME PSTACK, 0, STACK
        LOCFRAME XSTACK, 22, STACK
        LOCFRAME IOVERLAY, 0, STATIC
        LOCFRAME DOVERLAY, 0, STATIC
        ARGFRAME ISTACK, 0, STACK
        ARGFRAME PSTACK, 0, STACK
        ARGFRAME XSTACK, 22, STACK
        ARGFRAME IOVERLAY, 0, STATIC
        ARGFRAME DOVERLAY, 0, STATIC
        FUNCALL osal_nv_item_len, findItem
        LOCFRAME ISTACK, 0, STACK
        LOCFRAME PSTACK, 0, STACK
        LOCFRAME XSTACK, 22, STACK
        LOCFRAME IOVERLAY, 0, STATIC
        LOCFRAME DOVERLAY, 0, STATIC
        ARGFRAME ISTACK, 0, STACK
        ARGFRAME PSTACK, 0, STACK
        ARGFRAME XSTACK, 22, STACK
        ARGFRAME IOVERLAY, 0, STATIC
        ARGFRAME DOVERLAY, 0, STATIC
        FUNCALL osal_nv_item_len, HalFlashRead
        LOCFRAME ISTACK, 0, STACK
        LOCFRAME PSTACK, 0, STACK
        LOCFRAME XSTACK, 24, STACK
        LOCFRAME IOVERLAY, 0, STATIC
        LOCFRAME DOVERLAY, 0, STATIC
        ARGFRAME ISTACK, 0, STACK
        ARGFRAME PSTACK, 0, STACK
        ARGFRAME XSTACK, 24, STACK
        ARGFRAME IOVERLAY, 0, STATIC
        ARGFRAME DOVERLAY, 0, STATIC
        MOV     A,#-0xe
        LCALL   ?BANKED_ENTER_XDATA
        CFI DPH0 load(1, XDATA, add(CFA_XSP16, literal(-1)))
        CFI DPL0 load(1, XDATA, add(CFA_XSP16, literal(-2)))
        CFI ?BRET_EXT load(1, XDATA, add(CFA_XSP16, literal(-3)))
        CFI ?RET_HIGH load(1, XDATA, add(CFA_XSP16, literal(-4)))
        CFI ?RET_LOW load(1, XDATA, add(CFA_XSP16, literal(-5)))
        CFI R7 load(1, XDATA, add(CFA_XSP16, literal(-6)))
        CFI V5 load(1, XDATA, add(CFA_XSP16, literal(-7)))
        CFI V4 load(1, XDATA, add(CFA_XSP16, literal(-8)))
        CFI V3 load(1, XDATA, add(CFA_XSP16, literal(-9)))
        CFI V2 load(1, XDATA, add(CFA_XSP16, literal(-10)))
        CFI V1 load(1, XDATA, add(CFA_XSP16, literal(-11)))
        CFI V0 load(1, XDATA, add(CFA_XSP16, literal(-12)))
        CFI VB load(1, XDATA, add(CFA_XSP16, literal(-13)))
        CFI R6 load(1, XDATA, add(CFA_XSP16, literal(-14)))
        CFI CFA_SP SP+0
        CFI CFA_XSP16 add(XSP16, 14)
        ; Saved register size: 14
        ; Auto size: 8
        MOV     A,#-0x8
        LCALL   ?ALLOC_XSTACK8
        CFI CFA_XSP16 add(XSP16, 22)
        MOV     ?V0 + 0,R2
        MOV     ?V0 + 1,R3
// 1251   osalNvHdr_t hdr;
// 1252   uint16 offset;
// 1253   uint8 hotIdx;
// 1254 
// 1255   if ((hotIdx = hotItem(id)) < OSAL_NV_MAX_HOT)
        ; Setup parameters for call to function hotItem
        MOV     R2,?V0 + 0
        MOV     R3,?V0 + 1
        LCALL   ??hotItem?relay
        MOV     A,R1
        MOV     R0,A
        MOV     ?V0 + 2,R0
        MOV     A,R0
        CLR     C
        SUBB    A,#0x3
        JNC     ??osal_nv_item_len_0
// 1256   {
// 1257     findPg = hotPg[hotIdx];
        MOV     ?V0 + 4,?V0 + 2
        MOV     ?V0 + 5,#0x0
        MOV     A,#hotPg & 0xff
        ADD     A,?V0 + 4
        MOV     DPL,A
        MOV     A,#(hotPg >> 8) & 0xff
        ADDC    A,?V0 + 5
        MOV     DPH,A
        MOVX    A,@DPTR
        MOV     DPTR,#findPg
        MOVX    @DPTR,A
// 1258     offset = hotOff[hotIdx];
        MOV     A,?V0 + 2
        MOV     R0,?V0 + 2
        MOV     R1,#0x0
        MOV     A,R0
        MOV     B,#0x2
        MUL     AB
        XCH     A,R0
        MOV     R2,B
        MOV     B,#0x0
        MUL     AB
        ADD     A,R2
        MOV     R2,A
        MOV     B,#0x2
        MOV     A,R1
        MUL     AB
        ADD     A,R2
        MOV     R1,A
        MOV     A,#hotOff & 0xff
        ADD     A,R0
        MOV     DPL,A
        MOV     A,#(hotOff >> 8) & 0xff
        ADDC    A,R1
        MOV     DPH,A
        MOVX    A,@DPTR
        MOV     R6,A
        INC     DPTR
        MOVX    A,@DPTR
        MOV     R7,A
        SJMP    ??osal_nv_item_len_1
// 1259   }
// 1260   else if ((offset = findItem(id)) == OSAL_NV_ITEM_NULL)
??osal_nv_item_len_0:
        ; Setup parameters for call to function findItem
        MOV     R2,?V0 + 0
        MOV     R3,?V0 + 1
        LCALL   ??findItem?relay
        MOV     ?V0 + 4,R2
        MOV     ?V0 + 5,R3
        MOV     R0,?V0 + 4
        MOV     R1,?V0 + 5
        MOV     A,R0
        MOV     R6,A
        MOV     A,R1
        MOV     R7,A
        MOV     A,R0
        ORL     A,R1
        JNZ     ??osal_nv_item_len_1
// 1261   {
// 1262     return 0;
        MOV     R2,#0x0
        MOV     R3,#0x0
        SJMP    ??osal_nv_item_len_2
// 1263   }
// 1264 
// 1265   HalFlashRead(findPg, (offset - OSAL_NV_HDR_SIZE), (uint8 *)(&hdr), OSAL_NV_HDR_SIZE);
??osal_nv_item_len_1:
        ; Setup parameters for call to function HalFlashRead
        MOV     ?V0 + 4,#0x8
        MOV     ?V0 + 5,#0x0
        MOV     R0,#?V0 + 4
        LCALL   ?PUSH_XSTACK_I_TWO
        CFI CFA_XSP16 add(XSP16, 24)
        MOV     A,#0x2
        LCALL   ?XSTACK_DISP0_8
        MOV     R4,DPL
        MOV     R5,DPH
        MOV     A,R6
        ADD     A,#-0x8
        MOV     R2,A
        MOV     A,R7
        ADDC    A,#-0x1
        MOV     R3,A
        MOV     DPTR,#findPg
        MOVX    A,@DPTR
        MOV     R1,A
        LCALL   ??HalFlashRead?relay
        MOV     A,#0x2
        LCALL   ?DEALLOC_XSTACK8
        CFI CFA_XSP16 add(XSP16, 22)
// 1266   return hdr.len;
        MOV     A,#0x2
        LCALL   ?XSTACK_DISP0_8
        MOVX    A,@DPTR
        MOV     R2,A
        INC     DPTR
        MOVX    A,@DPTR
        MOV     R3,A
??osal_nv_item_len_2:
        MOV     A,#0x8
        LCALL   ?DEALLOC_XSTACK8
        CFI CFA_XSP16 add(XSP16, 14)
        MOV     R7,#0x6
        LJMP    ?BANKED_LEAVE_XDATA
        CFI EndBlock cfiBlock21
// 1267 }
// 1268 
// 1269 /*********************************************************************
// 1270  * @fn      osal_nv_write
// 1271  *
// 1272  * @brief   Write a data item to NV. Function can write an entire item to NV or
// 1273  *          an element of an item by indexing into the item with an offset.
// 1274  *
// 1275  * @param   id  - Valid NV item Id.
// 1276  * @param   ndx - Index offset into item
// 1277  * @param   len - Length of data to write.
// 1278  * @param  *buf - Data to write.
// 1279  *
// 1280  * @return  SUCCESS if successful, NV_ITEM_UNINIT if item did not
// 1281  *          exist in NV and offset is non-zero, NV_OPER_FAILED if failure.
// 1282  */

        RSEG BANKED_CODE:CODE:NOROOT(0)
// 1283 uint8 osal_nv_write( uint16 id, uint16 ndx, uint16 len, void *buf )
osal_nv_write:
        CFI Block cfiBlock22 Using cfiCommon0
        CFI Function osal_nv_write
        CODE
// 1284 {
        FUNCALL osal_nv_write, HalAdcCheckVdd
        LOCFRAME ISTACK, 0, STACK
        LOCFRAME PSTACK, 0, STACK
        LOCFRAME XSTACK, 42, STACK
        LOCFRAME IOVERLAY, 0, STATIC
        LOCFRAME DOVERLAY, 0, STATIC
        ARGFRAME ISTACK, 0, STACK
        ARGFRAME PSTACK, 0, STACK
        ARGFRAME XSTACK, 42, STACK
        ARGFRAME IOVERLAY, 0, STATIC
        ARGFRAME DOVERLAY, 0, STATIC
        FUNCALL osal_nv_write, findItem
        LOCFRAME ISTACK, 0, STACK
        LOCFRAME PSTACK, 0, STACK
        LOCFRAME XSTACK, 42, STACK
        LOCFRAME IOVERLAY, 0, STATIC
        LOCFRAME DOVERLAY, 0, STATIC
        ARGFRAME ISTACK, 0, STACK
        ARGFRAME PSTACK, 0, STACK
        ARGFRAME XSTACK, 42, STACK
        ARGFRAME IOVERLAY, 0, STATIC
        ARGFRAME DOVERLAY, 0, STATIC
        FUNCALL osal_nv_write, HalFlashRead
        LOCFRAME ISTACK, 0, STACK
        LOCFRAME PSTACK, 0, STACK
        LOCFRAME XSTACK, 44, STACK
        LOCFRAME IOVERLAY, 0, STATIC
        LOCFRAME DOVERLAY, 0, STATIC
        ARGFRAME ISTACK, 0, STACK
        ARGFRAME PSTACK, 0, STACK
        ARGFRAME XSTACK, 44, STACK
        ARGFRAME IOVERLAY, 0, STATIC
        ARGFRAME DOVERLAY, 0, STATIC
        FUNCALL osal_nv_write, HalFlashRead
        LOCFRAME ISTACK, 0, STACK
        LOCFRAME PSTACK, 0, STACK
        LOCFRAME XSTACK, 44, STACK
        LOCFRAME IOVERLAY, 0, STATIC
        LOCFRAME DOVERLAY, 0, STATIC
        ARGFRAME ISTACK, 0, STACK
        ARGFRAME PSTACK, 0, STACK
        ARGFRAME XSTACK, 44, STACK
        ARGFRAME IOVERLAY, 0, STATIC
        ARGFRAME DOVERLAY, 0, STATIC
        FUNCALL osal_nv_write, initItem
        LOCFRAME ISTACK, 0, STACK
        LOCFRAME PSTACK, 0, STACK
        LOCFRAME XSTACK, 44, STACK
        LOCFRAME IOVERLAY, 0, STATIC
        LOCFRAME DOVERLAY, 0, STATIC
        ARGFRAME ISTACK, 0, STACK
        ARGFRAME PSTACK, 0, STACK
        ARGFRAME XSTACK, 44, STACK
        ARGFRAME IOVERLAY, 0, STATIC
        ARGFRAME DOVERLAY, 0, STATIC
        FUNCALL osal_nv_write, setItem
        LOCFRAME ISTACK, 0, STACK
        LOCFRAME PSTACK, 0, STACK
        LOCFRAME XSTACK, 42, STACK
        LOCFRAME IOVERLAY, 0, STATIC
        LOCFRAME DOVERLAY, 0, STATIC
        ARGFRAME ISTACK, 0, STACK
        ARGFRAME PSTACK, 0, STACK
        ARGFRAME XSTACK, 42, STACK
        ARGFRAME IOVERLAY, 0, STATIC
        ARGFRAME DOVERLAY, 0, STATIC
        FUNCALL osal_nv_write, xferBuf
        LOCFRAME ISTACK, 0, STACK
        LOCFRAME PSTACK, 0, STACK
        LOCFRAME XSTACK, 46, STACK
        LOCFRAME IOVERLAY, 0, STATIC
        LOCFRAME DOVERLAY, 0, STATIC
        ARGFRAME ISTACK, 0, STACK
        ARGFRAME PSTACK, 0, STACK
        ARGFRAME XSTACK, 46, STACK
        ARGFRAME IOVERLAY, 0, STATIC
        ARGFRAME DOVERLAY, 0, STATIC
        FUNCALL osal_nv_write, writeBuf
        LOCFRAME ISTACK, 0, STACK
        LOCFRAME PSTACK, 0, STACK
        LOCFRAME XSTACK, 44, STACK
        LOCFRAME IOVERLAY, 0, STATIC
        LOCFRAME DOVERLAY, 0, STATIC
        ARGFRAME ISTACK, 0, STACK
        ARGFRAME PSTACK, 0, STACK
        ARGFRAME XSTACK, 44, STACK
        ARGFRAME IOVERLAY, 0, STATIC
        ARGFRAME DOVERLAY, 0, STATIC
        FUNCALL osal_nv_write, xferBuf
        LOCFRAME ISTACK, 0, STACK
        LOCFRAME PSTACK, 0, STACK
        LOCFRAME XSTACK, 46, STACK
        LOCFRAME IOVERLAY, 0, STATIC
        LOCFRAME DOVERLAY, 0, STATIC
        ARGFRAME ISTACK, 0, STACK
        ARGFRAME PSTACK, 0, STACK
        ARGFRAME XSTACK, 46, STACK
        ARGFRAME IOVERLAY, 0, STATIC
        ARGFRAME DOVERLAY, 0, STATIC
        FUNCALL osal_nv_write, calcChkF
        LOCFRAME ISTACK, 0, STACK
        LOCFRAME PSTACK, 0, STACK
        LOCFRAME XSTACK, 42, STACK
        LOCFRAME IOVERLAY, 0, STATIC
        LOCFRAME DOVERLAY, 0, STATIC
        ARGFRAME ISTACK, 0, STACK
        ARGFRAME PSTACK, 0, STACK
        ARGFRAME XSTACK, 42, STACK
        ARGFRAME IOVERLAY, 0, STATIC
        ARGFRAME DOVERLAY, 0, STATIC
        FUNCALL osal_nv_write, setChk
        LOCFRAME ISTACK, 0, STACK
        LOCFRAME PSTACK, 0, STACK
        LOCFRAME XSTACK, 42, STACK
        LOCFRAME IOVERLAY, 0, STATIC
        LOCFRAME DOVERLAY, 0, STATIC
        ARGFRAME ISTACK, 0, STACK
        ARGFRAME PSTACK, 0, STACK
        ARGFRAME XSTACK, 42, STACK
        ARGFRAME IOVERLAY, 0, STATIC
        ARGFRAME DOVERLAY, 0, STATIC
        FUNCALL osal_nv_write, hotItemUpdate
        LOCFRAME ISTACK, 0, STACK
        LOCFRAME PSTACK, 0, STACK
        LOCFRAME XSTACK, 42, STACK
        LOCFRAME IOVERLAY, 0, STATIC
        LOCFRAME DOVERLAY, 0, STATIC
        ARGFRAME ISTACK, 0, STACK
        ARGFRAME PSTACK, 0, STACK
        ARGFRAME XSTACK, 42, STACK
        ARGFRAME IOVERLAY, 0, STATIC
        ARGFRAME DOVERLAY, 0, STATIC
        FUNCALL osal_nv_write, erasePage
        LOCFRAME ISTACK, 0, STACK
        LOCFRAME PSTACK, 0, STACK
        LOCFRAME XSTACK, 42, STACK
        LOCFRAME IOVERLAY, 0, STATIC
        LOCFRAME DOVERLAY, 0, STATIC
        ARGFRAME ISTACK, 0, STACK
        ARGFRAME PSTACK, 0, STACK
        ARGFRAME XSTACK, 42, STACK
        ARGFRAME IOVERLAY, 0, STATIC
        ARGFRAME DOVERLAY, 0, STATIC
        FUNCALL osal_nv_write, setPageUse
        LOCFRAME ISTACK, 0, STACK
        LOCFRAME PSTACK, 0, STACK
        LOCFRAME XSTACK, 42, STACK
        LOCFRAME IOVERLAY, 0, STATIC
        LOCFRAME DOVERLAY, 0, STATIC
        ARGFRAME ISTACK, 0, STACK
        ARGFRAME PSTACK, 0, STACK
        ARGFRAME XSTACK, 42, STACK
        ARGFRAME IOVERLAY, 0, STATIC
        ARGFRAME DOVERLAY, 0, STATIC
        FUNCALL osal_nv_write, erasePage
        LOCFRAME ISTACK, 0, STACK
        LOCFRAME PSTACK, 0, STACK
        LOCFRAME XSTACK, 42, STACK
        LOCFRAME IOVERLAY, 0, STATIC
        LOCFRAME DOVERLAY, 0, STATIC
        ARGFRAME ISTACK, 0, STACK
        ARGFRAME PSTACK, 0, STACK
        ARGFRAME XSTACK, 42, STACK
        ARGFRAME IOVERLAY, 0, STATIC
        ARGFRAME DOVERLAY, 0, STATIC
        FUNCALL osal_nv_write, setItem
        LOCFRAME ISTACK, 0, STACK
        LOCFRAME PSTACK, 0, STACK
        LOCFRAME XSTACK, 42, STACK
        LOCFRAME IOVERLAY, 0, STATIC
        LOCFRAME DOVERLAY, 0, STATIC
        ARGFRAME ISTACK, 0, STACK
        ARGFRAME PSTACK, 0, STACK
        ARGFRAME XSTACK, 42, STACK
        ARGFRAME IOVERLAY, 0, STATIC
        ARGFRAME DOVERLAY, 0, STATIC
        MOV     A,#-0x18
        LCALL   ?BANKED_ENTER_XDATA
        CFI DPH0 load(1, XDATA, add(CFA_XSP16, literal(-1)))
        CFI DPL0 load(1, XDATA, add(CFA_XSP16, literal(-2)))
        CFI ?BRET_EXT load(1, XDATA, add(CFA_XSP16, literal(-3)))
        CFI ?RET_HIGH load(1, XDATA, add(CFA_XSP16, literal(-4)))
        CFI ?RET_LOW load(1, XDATA, add(CFA_XSP16, literal(-5)))
        CFI R7 load(1, XDATA, add(CFA_XSP16, literal(-6)))
        CFI V15 load(1, XDATA, add(CFA_XSP16, literal(-7)))
        CFI V14 load(1, XDATA, add(CFA_XSP16, literal(-8)))
        CFI V13 load(1, XDATA, add(CFA_XSP16, literal(-9)))
        CFI V12 load(1, XDATA, add(CFA_XSP16, literal(-10)))
        CFI V11 load(1, XDATA, add(CFA_XSP16, literal(-11)))
        CFI V10 load(1, XDATA, add(CFA_XSP16, literal(-12)))
        CFI V9 load(1, XDATA, add(CFA_XSP16, literal(-13)))
        CFI V8 load(1, XDATA, add(CFA_XSP16, literal(-14)))
        CFI V7 load(1, XDATA, add(CFA_XSP16, literal(-15)))
        CFI V6 load(1, XDATA, add(CFA_XSP16, literal(-16)))
        CFI V5 load(1, XDATA, add(CFA_XSP16, literal(-17)))
        CFI V4 load(1, XDATA, add(CFA_XSP16, literal(-18)))
        CFI V3 load(1, XDATA, add(CFA_XSP16, literal(-19)))
        CFI V2 load(1, XDATA, add(CFA_XSP16, literal(-20)))
        CFI V1 load(1, XDATA, add(CFA_XSP16, literal(-21)))
        CFI V0 load(1, XDATA, add(CFA_XSP16, literal(-22)))
        CFI VB load(1, XDATA, add(CFA_XSP16, literal(-23)))
        CFI R6 load(1, XDATA, add(CFA_XSP16, literal(-24)))
        CFI CFA_SP SP+0
        CFI CFA_XSP16 add(XSP16, 24)
        ; Saved register size: 24
        ; Auto size: 18
        MOV     A,#-0x12
        LCALL   ?ALLOC_XSTACK8
        CFI CFA_XSP16 add(XSP16, 42)
        MOV     A,#0x10
        LCALL   ?XSTACK_DISP0_8
        MOV     A,R2
        MOVX    @DPTR,A
        INC     DPTR
        MOV     A,R3
        MOVX    @DPTR,A
        MOV     ?V0 + 8,R4
        MOV     ?V0 + 9,R5
        MOV     A,#0x2a
        LCALL   ?XSTACK_DISP0_8
        MOVX    A,@DPTR
        MOV     ?V0 + 14,A
        INC     DPTR
        MOVX    A,@DPTR
        MOV     ?V0 + 15,A
// 1285   uint8 rtrn = SUCCESS;
        MOV     ?V0 + 7,#0x0
// 1286 
// 1287   if ( !OSAL_NV_CHECK_BUS_VOLTAGE )
        ; Setup parameters for call to function HalAdcCheckVdd
        MOV     R1,#0x4e
        LCALL   ??HalAdcCheckVdd?relay
        MOV     A,R1
        JNZ     ??osal_nv_write_0
// 1288   {
// 1289     return NV_OPER_FAILED;
        MOV     R1,#0xa
        LJMP    ??osal_nv_write_1 & 0xFFFF
// 1290   }
// 1291   else if ( len != 0 )
??osal_nv_write_0:
        MOV     A,?V0 + 14
        ORL     A,?V0 + 15
        JNZ     $+5
        LJMP    ??osal_nv_write_2 & 0xFFFF
// 1292   {
// 1293     osalNvHdr_t hdr;
// 1294     uint16 origOff, srcOff;
// 1295     uint16 cnt, chk;
// 1296     uint8 *ptr, srcPg;
// 1297 
// 1298     origOff = srcOff = findItem( id );
        ; Setup parameters for call to function findItem
        MOV     A,#0x10
        LCALL   ?XSTACK_DISP0_8
        MOVX    A,@DPTR
        MOV     R2,A
        INC     DPTR
        MOVX    A,@DPTR
        MOV     R3,A
        LCALL   ??findItem?relay
        MOV     ?V0 + 0,R2
        MOV     ?V0 + 1,R3
        MOV     R0,?V0 + 0
        MOV     R1,?V0 + 1
        MOV     ?V0 + 4,R0
        MOV     ?V0 + 5,R1
        MOV     A,#0x6
        LCALL   ?XSTACK_DISP0_8
        MOV     A,R0
        MOVX    @DPTR,A
        INC     DPTR
        MOV     A,R1
        MOVX    @DPTR,A
// 1299     srcPg = findPg;
        MOV     DPTR,#findPg
        MOVX    A,@DPTR
        MOV     ?V0 + 12,A
// 1300     if ( srcOff == OSAL_NV_ITEM_NULL )
        MOV     A,?V0 + 4
        ORL     A,?V0 + 5
        JNZ     ??osal_nv_write_3
// 1301     {
// 1302       return NV_ITEM_UNINIT;
        MOV     R1,#0x9
        LJMP    ??osal_nv_write_1 & 0xFFFF
// 1303     }
// 1304 
// 1305     HalFlashRead(srcPg, (srcOff - OSAL_NV_HDR_SIZE), (uint8 *)(&hdr), OSAL_NV_HDR_SIZE);
??osal_nv_write_3:
        ; Setup parameters for call to function HalFlashRead
        MOV     ?V0 + 0,#0x8
        MOV     ?V0 + 1,#0x0
        MOV     R0,#?V0 + 0
        LCALL   ?PUSH_XSTACK_I_TWO
        CFI CFA_XSP16 add(XSP16, 44)
        MOV     A,#0xa
        LCALL   ?XSTACK_DISP0_8
        MOV     R4,DPL
        MOV     R5,DPH
        MOV     A,?V0 + 4
        ADD     A,#-0x8
        MOV     R2,A
        MOV     A,?V0 + 5
        ADDC    A,#-0x1
        MOV     R3,A
        MOV     R1,?V0 + 12
        LCALL   ??HalFlashRead?relay
        MOV     A,#0x2
        LCALL   ?DEALLOC_XSTACK8
        CFI CFA_XSP16 add(XSP16, 42)
// 1306     if ( hdr.len < (ndx + len) )
        MOV     A,#0xa
        LCALL   ?XSTACK_DISP0_8
        MOV     A,?V0 + 8
        ADD     A,?V0 + 14
        MOV     R0,A
        MOV     A,?V0 + 9
        ADDC    A,?V0 + 15
        MOV     R1,A
        CLR     C
        MOVX    A,@DPTR
        SUBB    A,R0
        INC     DPTR
        MOVX    A,@DPTR
        SUBB    A,R1
        JNC     ??osal_nv_write_4
// 1307     {
// 1308       return NV_OPER_FAILED;
        MOV     R1,#0xa
        LJMP    ??osal_nv_write_1 & 0xFFFF
// 1309     }
// 1310 
// 1311     srcOff += ndx;
??osal_nv_write_4:
        MOV     A,?V0 + 4
        ADD     A,?V0 + 8
        MOV     ?V0 + 4,A
        MOV     A,?V0 + 5
        ADDC    A,?V0 + 9
        MOV     ?V0 + 5,A
// 1312     ptr = buf;
        MOV     A,#0x2c
        LCALL   ?XSTACK_DISP0_8
        MOVX    A,@DPTR
        MOV     R0,A
        INC     DPTR
        MOVX    A,@DPTR
        MOV     R1,A
        MOV     A,#0x2
        LCALL   ?XSTACK_DISP0_8
        MOV     A,R0
        MOVX    @DPTR,A
        INC     DPTR
        MOV     A,R1
        MOVX    @DPTR,A
// 1313     cnt = len;
        MOV     ?V0 + 2,?V0 + 14
        MOV     ?V0 + 3,?V0 + 15
// 1314     chk = 0;
        MOV     A,#0x4
        LCALL   ?XSTACK_DISP0_8
        MOV     A,#0x0
        MOVX    @DPTR,A
        INC     DPTR
        MOV     A,#0x0
        MOVX    @DPTR,A
// 1315     while ( cnt-- )
??osal_nv_write_5:
        MOV     R0,?V0 + 2
        MOV     R1,?V0 + 3
        MOV     A,R0
        ADD     A,#-0x1
        MOV     ?V0 + 2,A
        MOV     A,R1
        ADDC    A,#-0x1
        MOV     ?V0 + 3,A
        MOV     A,R0
        ORL     A,R1
        JNZ     $+5
        LJMP    ??osal_nv_write_6 & 0xFFFF
// 1316     {
// 1317       uint8 tmp;
// 1318       HalFlashRead(srcPg, srcOff, &tmp, 1);
        ; Setup parameters for call to function HalFlashRead
        MOV     ?V0 + 0,#0x1
        MOV     ?V0 + 1,#0x0
        MOV     R0,#?V0 + 0
        LCALL   ?PUSH_XSTACK_I_TWO
        CFI CFA_XSP16 add(XSP16, 44)
        MOV     A,#0x3
        LCALL   ?XSTACK_DISP0_8
        MOV     R4,DPL
        MOV     R5,DPH
        MOV     R2,?V0 + 4
        MOV     R3,?V0 + 5
        MOV     R1,?V0 + 12
        LCALL   ??HalFlashRead?relay
        MOV     A,#0x2
        LCALL   ?DEALLOC_XSTACK8
        CFI CFA_XSP16 add(XSP16, 42)
// 1319       if ( tmp != *ptr )
        MOV     A,#0x1
        LCALL   ?XSTACK_DISP0_8
        MOVX    A,@DPTR
        MOV     R1,A
        MOV     A,#0x2
        LCALL   ?XSTACK_DISP0_8
        MOVX    A,@DPTR
        MOV     R0,A
        INC     DPTR
        MOVX    A,@DPTR
        MOV     DPH,A
        MOV     DPL,R0
        MOVX    A,@DPTR
        XRL     A,R1
        JZ      ??osal_nv_write_7
// 1320       {
// 1321         chk = 1;  // Mark that at least one byte is different.
        MOV     A,#0x4
        LCALL   ?XSTACK_DISP0_8
        MOV     A,#0x1
        MOVX    @DPTR,A
        INC     DPTR
        MOV     A,#0x0
        MOVX    @DPTR,A
// 1322         // Calculate expected checksum after transferring old data and writing new data.
// 1323         hdr.chk -= tmp;
        MOV     A,#0x1
        LCALL   ?XSTACK_DISP0_8
        MOVX    A,@DPTR
        MOV     R0,A
        MOV     R1,#0x0
        MOV     A,#0xc
        LCALL   ?XSTACK_DISP0_8
        CLR     C
        MOVX    A,@DPTR
        SUBB    A,R0
        MOVX    @DPTR,A
        INC     DPTR
        MOVX    A,@DPTR
        SUBB    A,R1
        MOVX    @DPTR,A
// 1324         hdr.chk += *ptr;
        MOV     A,#0x2
        LCALL   ?XSTACK_DISP0_8
        MOVX    A,@DPTR
        MOV     R0,A
        INC     DPTR
        MOVX    A,@DPTR
        MOV     DPH,A
        MOV     DPL,R0
        MOVX    A,@DPTR
        MOV     R0,A
        MOV     R1,#0x0
        MOV     A,#0xc
        LCALL   ?XSTACK_DISP0_8
        MOVX    A,@DPTR
        ADD     A,R0
        MOVX    @DPTR,A
        INC     DPTR
        MOVX    A,@DPTR
        ADDC    A,R1
        MOVX    @DPTR,A
// 1325       }
// 1326       srcOff++;
??osal_nv_write_7:
        MOV     A,?V0 + 4
        ADD     A,#0x1
        MOV     ?V0 + 4,A
        MOV     A,?V0 + 5
        ADDC    A,#0x0
        MOV     ?V0 + 5,A
// 1327       ptr++;
        MOV     A,#0x2
        LCALL   ?XSTACK_DISP0_8
        MOVX    A,@DPTR
        ADD     A,#0x1
        MOV     R0,A
        INC     DPTR
        MOVX    A,@DPTR
        ADDC    A,#0x0
        MOV     R1,A
        MOV     A,#0x2
        LCALL   ?XSTACK_DISP0_8
        MOV     A,R0
        MOVX    @DPTR,A
        INC     DPTR
        MOV     A,R1
        MOVX    @DPTR,A
        LJMP    ??osal_nv_write_5 & 0xFFFF
// 1328     }
// 1329 
// 1330     if ( chk != 0 )  // If the buffer to write is different in one or more bytes.
??osal_nv_write_6:
        MOV     A,#0x4
        LCALL   ?XSTACK_DISP0_8
        MOVX    A,@DPTR
        MOV     R0,A
        INC     DPTR
        MOVX    A,@DPTR
        MOV     R1,A
        MOV     A,R0
        ORL     A,R1
        JNZ     $+5
        LJMP    ??osal_nv_write_2 & 0xFFFF
// 1331     {
// 1332       uint8 comPg = OSAL_NV_PAGE_NULL;
        MOV     DPL,?XSP + 0
        MOV     DPH,?XSP + 1
        MOV     A,#0x0
        MOVX    @DPTR,A
// 1333       uint8 dstPg = initItem( FALSE, id, hdr.len, &comPg );
        ; Setup parameters for call to function initItem
        MOV     DPL,?XSP + 0
        MOV     DPH,?XSP + 1
        MOV     ?V0 + 0,DPL
        MOV     ?V0 + 1,DPH
        MOV     R0,#?V0 + 0
        LCALL   ?PUSH_XSTACK_I_TWO
        CFI CFA_XSP16 add(XSP16, 44)
        MOV     A,#0xc
        LCALL   ?XSTACK_DISP0_8
        MOVX    A,@DPTR
        MOV     R4,A
        INC     DPTR
        MOVX    A,@DPTR
        MOV     R5,A
        MOV     A,#0x12
        LCALL   ?XSTACK_DISP0_8
        MOVX    A,@DPTR
        MOV     R2,A
        INC     DPTR
        MOVX    A,@DPTR
        MOV     R3,A
        MOV     R1,#0x0
        LCALL   ??initItem?relay
        MOV     A,#0x2
        LCALL   ?DEALLOC_XSTACK8
        CFI CFA_XSP16 add(XSP16, 42)
        MOV     A,R1
        MOV     ?V0 + 6,A
// 1334 
// 1335       if ( dstPg != OSAL_NV_PAGE_NULL )
        MOV     A,?V0 + 6
        JNZ     $+5
        LJMP    ??osal_nv_write_8 & 0xFFFF
// 1336       {
// 1337         uint16 tmp = OSAL_NV_DATA_SIZE( hdr.len );
        MOV     A,#0xa
        LCALL   ?XSTACK_DISP0_8
        CLR     C
        MOVX    A,@DPTR
        SUBB    A,#-0x4
        INC     DPTR
        MOVX    A,@DPTR
        SUBB    A,#-0x1
        JC      ??osal_nv_write_9
        MOV     ?V0 + 0,#-0x4
        MOV     ?V0 + 1,#-0x1
        SJMP    ??osal_nv_write_10
??osal_nv_write_9:
        MOV     A,#0xa
        LCALL   ?XSTACK_DISP0_8
        MOVX    A,@DPTR
        ADD     A,#0x3
        MOV     ?V0 + 0,A
        INC     DPTR
        MOVX    A,@DPTR
        ADDC    A,#0x0
        MOV     ?V0 + 1,A
        MOV     A,#0x2
        MOV     R0,#?V0 + 0
        LCALL   ?US_SHR
        MOV     A,?V0 + 0
        MOV     B,#0x4
        MUL     AB
        XCH     A,?V0 + 0
        MOV     R0,B
        MOV     B,#0x0
        MUL     AB
        ADD     A,R0
        MOV     R0,A
        MOV     B,#0x4
        MOV     A,?V0 + 1
        MUL     AB
        ADD     A,R0
        MOV     ?V0 + 1,A
// 1338         uint16 dstOff = pgOff[dstPg-OSAL_NV_PAGE_BEG] - tmp;
??osal_nv_write_10:
        MOV     A,?V0 + 6
        MOV     R0,?V0 + 6
        MOV     R1,#0x0
        MOV     A,R0
        MOV     B,#0x2
        MUL     AB
        XCH     A,R0
        MOV     R2,B
        MOV     B,#0x0
        MUL     AB
        ADD     A,R2
        MOV     R2,A
        MOV     B,#0x2
        MOV     A,R1
        MUL     AB
        ADD     A,R2
        MOV     R1,A
        MOV     A,#(pgOff + 14) & 0xff
        ADD     A,R0
        MOV     DPL,A
        MOV     A,#((pgOff - 242) >> 8) & 0xff
        ADDC    A,R1
        MOV     DPH,A
        MOVX    A,@DPTR
        CLR     C
        SUBB    A,?V0 + 0
        MOV     R6,A
        INC     DPTR
        MOVX    A,@DPTR
        SUBB    A,?V0 + 1
        MOV     R7,A
// 1339         srcOff = origOff;
        MOV     A,#0x6
        LCALL   ?XSTACK_DISP0_8
        MOVX    A,@DPTR
        MOV     ?V0 + 4,A
        INC     DPTR
        MOVX    A,@DPTR
        MOV     ?V0 + 5,A
// 1340 
// 1341         /* Prevent excessive re-writes to item header caused by numerous, rapid, & successive
// 1342          * OSAL_Nv interruptions caused by resets.
// 1343          */
// 1344         if ( hdr.stat == OSAL_NV_ERASED_ID )
        MOV     A,#0xe
        LCALL   ?XSTACK_DISP0_8
        MOVX    A,@DPTR
        XRL     A,#0xff
        JNZ     ??osal_nv_write_11
        INC     DPTR
        MOVX    A,@DPTR
        XRL     A,#0xff
??osal_nv_write_11:
        JNZ     ??osal_nv_write_12
// 1345         {
// 1346           setItem( srcPg, srcOff, eNvXfer );
        ; Setup parameters for call to function setItem
        MOV     R4,#0x0
        MOV     R2,?V0 + 4
        MOV     R3,?V0 + 5
        MOV     R1,?V0 + 12
        LCALL   ??setItem?relay
// 1347         }
// 1348 
// 1349         xferBuf( srcPg, srcOff, dstPg, dstOff, ndx );
??osal_nv_write_12:
        ; Setup parameters for call to function xferBuf
        MOV     R0,#?V0 + 8
        LCALL   ?PUSH_XSTACK_I_TWO
        CFI CFA_XSP16 add(XSP16, 44)
        MOV     ?V0 + 10,R6
        MOV     ?V0 + 11,R7
        MOV     R0,#?V0 + 10
        LCALL   ?PUSH_XSTACK_I_TWO
        CFI CFA_XSP16 add(XSP16, 46)
        MOV     R4,?V0 + 6
        MOV     R2,?V0 + 4
        MOV     R3,?V0 + 5
        MOV     R1,?V0 + 12
        LCALL   ??xferBuf?relay
        MOV     A,#0x4
        LCALL   ?DEALLOC_XSTACK8
        CFI CFA_XSP16 add(XSP16, 42)
// 1350         srcOff += ndx;
        MOV     A,?V0 + 4
        ADD     A,?V0 + 8
        MOV     ?V0 + 4,A
        MOV     A,?V0 + 5
        ADDC    A,?V0 + 9
        MOV     ?V0 + 5,A
// 1351         dstOff += ndx;
        MOV     A,R6
        ADD     A,?V0 + 8
        MOV     R6,A
        MOV     A,R7
        ADDC    A,?V0 + 9
        MOV     R7,A
// 1352 
// 1353         writeBuf( dstPg, dstOff, len, buf );
        ; Setup parameters for call to function writeBuf
        MOV     A,#0x2c
        LCALL   ?XSTACK_DISP0_8
        LCALL   ?PUSH_XSTACK8_X_TWO
        CFI CFA_XSP16 add(XSP16, 44)
        MOV     R4,?V0 + 14
        MOV     R5,?V0 + 15
        MOV     A,R6
        MOV     R2,A
        MOV     A,R7
        MOV     R3,A
        MOV     R1,?V0 + 6
        LCALL   ??writeBuf?relay
        MOV     A,#0x2
        LCALL   ?DEALLOC_XSTACK8
        CFI CFA_XSP16 add(XSP16, 42)
// 1354         srcOff += len;
        MOV     A,?V0 + 4
        ADD     A,?V0 + 14
        MOV     ?V0 + 4,A
        MOV     A,?V0 + 5
        ADDC    A,?V0 + 15
        MOV     ?V0 + 5,A
// 1355         dstOff += len;
        MOV     A,R6
        ADD     A,?V0 + 14
        MOV     R6,A
        MOV     A,R7
        ADDC    A,?V0 + 15
        MOV     R7,A
// 1356 
// 1357         xferBuf( srcPg, srcOff, dstPg, dstOff, (hdr.len-ndx-len) );
        ; Setup parameters for call to function xferBuf
        MOV     A,#0xa
        LCALL   ?XSTACK_DISP0_8
        MOVX    A,@DPTR
        CLR     C
        SUBB    A,?V0 + 8
        MOV     R0,A
        INC     DPTR
        MOVX    A,@DPTR
        SUBB    A,?V0 + 9
        MOV     R1,A
        MOV     A,R0
        CLR     C
        SUBB    A,?V0 + 14
        MOV     ?V0 + 10,A
        MOV     A,R1
        SUBB    A,?V0 + 15
        MOV     ?V0 + 11,A
        MOV     R0,#?V0 + 10
        LCALL   ?PUSH_XSTACK_I_TWO
        CFI CFA_XSP16 add(XSP16, 44)
        MOV     ?V0 + 10,R6
        MOV     ?V0 + 11,R7
        MOV     R0,#?V0 + 10
        LCALL   ?PUSH_XSTACK_I_TWO
        CFI CFA_XSP16 add(XSP16, 46)
        MOV     R4,?V0 + 6
        MOV     R2,?V0 + 4
        MOV     R3,?V0 + 5
        MOV     R1,?V0 + 12
        LCALL   ??xferBuf?relay
        MOV     A,#0x4
        LCALL   ?DEALLOC_XSTACK8
        CFI CFA_XSP16 add(XSP16, 42)
// 1358 
// 1359         // Calculate and write the new checksum.
// 1360         dstOff = pgOff[dstPg-OSAL_NV_PAGE_BEG] - tmp;
        MOV     A,?V0 + 6
        MOV     R0,?V0 + 6
        MOV     R1,#0x0
        MOV     A,R0
        MOV     B,#0x2
        MUL     AB
        XCH     A,R0
        MOV     R2,B
        MOV     B,#0x0
        MUL     AB
        ADD     A,R2
        MOV     R2,A
        MOV     B,#0x2
        MOV     A,R1
        MUL     AB
        ADD     A,R2
        MOV     R1,A
        MOV     A,#(pgOff + 14) & 0xff
        ADD     A,R0
        MOV     DPL,A
        MOV     A,#((pgOff - 242) >> 8) & 0xff
        ADDC    A,R1
        MOV     DPH,A
        MOVX    A,@DPTR
        CLR     C
        SUBB    A,?V0 + 0
        MOV     R0,A
        INC     DPTR
        MOVX    A,@DPTR
        SUBB    A,?V0 + 1
        MOV     R1,A
        MOV     A,R0
        MOV     R6,A
        MOV     A,R1
        MOV     R7,A
// 1361 
// 1362         if ( hdr.chk == calcChkF( dstPg, dstOff, hdr.len ) )
        ; Setup parameters for call to function calcChkF
        MOV     A,#0xa
        LCALL   ?XSTACK_DISP0_8
        MOVX    A,@DPTR
        MOV     R4,A
        INC     DPTR
        MOVX    A,@DPTR
        MOV     R5,A
        MOV     A,R6
        MOV     R2,A
        MOV     A,R7
        MOV     R3,A
        MOV     R1,?V0 + 6
        LCALL   ??calcChkF?relay
        MOV     ?V0 + 10,R2
        MOV     ?V0 + 11,R3
        MOV     R0,?V0 + 10
        MOV     R1,?V0 + 11
        MOV     A,#0xc
        LCALL   ?XSTACK_DISP0_8
        MOVX    A,@DPTR
        XRL     A,R0
        JNZ     ??osal_nv_write_13
        INC     DPTR
        MOVX    A,@DPTR
        XRL     A,R1
??osal_nv_write_13:
        JNZ     ??osal_nv_write_14
// 1363         {
// 1364           if ( hdr.chk != setChk( dstPg, dstOff, hdr.chk ) )
        ; Setup parameters for call to function setChk
        MOV     A,#0xc
        LCALL   ?XSTACK_DISP0_8
        MOVX    A,@DPTR
        MOV     R4,A
        INC     DPTR
        MOVX    A,@DPTR
        MOV     R5,A
        MOV     A,R6
        MOV     R2,A
        MOV     A,R7
        MOV     R3,A
        MOV     R1,?V0 + 6
        LCALL   ??setChk?relay
        MOV     ?V0 + 10,R2
        MOV     ?V0 + 11,R3
        MOV     R0,?V0 + 10
        MOV     R1,?V0 + 11
        MOV     A,#0xc
        LCALL   ?XSTACK_DISP0_8
        MOVX    A,@DPTR
        XRL     A,R0
        JNZ     ??osal_nv_write_15
        INC     DPTR
        MOVX    A,@DPTR
        XRL     A,R1
??osal_nv_write_15:
        JZ      ??osal_nv_write_16
// 1365           {
// 1366             rtrn = NV_OPER_FAILED;
        MOV     ?V0 + 7,#0xa
        SJMP    ??osal_nv_write_17
// 1367           }
// 1368           else
// 1369           {
// 1370             hotItemUpdate(dstPg, dstOff, hdr.id);
??osal_nv_write_16:
        ; Setup parameters for call to function hotItemUpdate
        MOV     A,#0x8
        LCALL   ?XSTACK_DISP0_8
        MOVX    A,@DPTR
        MOV     R4,A
        INC     DPTR
        MOVX    A,@DPTR
        MOV     R5,A
        MOV     A,R6
        MOV     R2,A
        MOV     A,R7
        MOV     R3,A
        MOV     R1,?V0 + 6
        LCALL   ??hotItemUpdate?relay
        SJMP    ??osal_nv_write_17
// 1371           }
// 1372         }
// 1373         else
// 1374         {
// 1375           rtrn = NV_OPER_FAILED;
??osal_nv_write_14:
        MOV     ?V0 + 7,#0xa
        SJMP    ??osal_nv_write_17
// 1376         }
// 1377       }
// 1378       else
// 1379       {
// 1380         rtrn = NV_OPER_FAILED;
??osal_nv_write_8:
        MOV     ?V0 + 7,#0xa
// 1381       }
// 1382 
// 1383       if ( comPg != OSAL_NV_PAGE_NULL )
??osal_nv_write_17:
        MOV     DPL,?XSP + 0
        MOV     DPH,?XSP + 1
        MOVX    A,@DPTR
        JZ      ??osal_nv_write_18
// 1384       {
// 1385         /* Even though the page compaction succeeded, if the new item is coming from the compacted
// 1386          * page and writing the new value failed, then the compaction must be aborted.
// 1387          */
// 1388         if ( (srcPg == comPg) && (rtrn == NV_OPER_FAILED) )
        MOV     DPL,?XSP + 0
        MOV     DPH,?XSP + 1
        MOVX    A,@DPTR
        XRL     A,?V0 + 12
        JNZ     ??osal_nv_write_19
        MOV     A,#0xa
        XRL     A,?V0 + 7
        JNZ     ??osal_nv_write_19
// 1389         {
// 1390           erasePage( pgRes );
        ; Setup parameters for call to function erasePage
        MOV     DPTR,#pgRes
        MOVX    A,@DPTR
        MOV     R1,A
        LCALL   ??erasePage?relay
        SJMP    ??osal_nv_write_18
// 1391         }
// 1392         else
// 1393         {
// 1394           COMPACT_PAGE_CLEANUP( comPg );
??osal_nv_write_19:
        ; Setup parameters for call to function setPageUse
        MOV     R2,#0x1
        MOV     DPTR,#pgRes
        MOVX    A,@DPTR
        MOV     R1,A
        LCALL   ??setPageUse?relay
        ; Setup parameters for call to function erasePage
        MOV     DPL,?XSP + 0
        MOV     DPH,?XSP + 1
        MOVX    A,@DPTR
        MOV     R1,A
        LCALL   ??erasePage?relay
        MOV     DPL,?XSP + 0
        MOV     DPH,?XSP + 1
        MOVX    A,@DPTR
        MOV     DPTR,#pgRes
        MOVX    @DPTR,A
// 1395         }
// 1396       }
// 1397 
// 1398       /* Zero of the old item must wait until after compact page cleanup has finished - if the item
// 1399        * is zeroed before and cleanup is interrupted by a power-cycle, the new item can be lost.
// 1400        */
// 1401       if ( (srcPg != comPg) && (rtrn != NV_OPER_FAILED) )
??osal_nv_write_18:
        MOV     DPL,?XSP + 0
        MOV     DPH,?XSP + 1
        MOVX    A,@DPTR
        XRL     A,?V0 + 12
        JZ      ??osal_nv_write_2
        MOV     A,#0xa
        XRL     A,?V0 + 7
        JZ      ??osal_nv_write_2
// 1402       {
// 1403         setItem( srcPg, origOff, eNvZero );
        ; Setup parameters for call to function setItem
        MOV     R4,#0x1
        MOV     A,#0x6
        LCALL   ?XSTACK_DISP0_8
        MOVX    A,@DPTR
        MOV     R2,A
        INC     DPTR
        MOVX    A,@DPTR
        MOV     R3,A
        MOV     R1,?V0 + 12
        LCALL   ??setItem?relay
// 1404       }
// 1405     }
// 1406   }
// 1407 
// 1408   return rtrn;
??osal_nv_write_2:
        MOV     R1,?V0 + 7
??osal_nv_write_1:
        MOV     A,#0x12
        LCALL   ?DEALLOC_XSTACK8
        CFI CFA_XSP16 add(XSP16, 24)
        MOV     R7,#0x10
        LJMP    ?BANKED_LEAVE_XDATA
        CFI EndBlock cfiBlock22
// 1409 }
// 1410 
// 1411 /*********************************************************************
// 1412  * @fn      osal_nv_read
// 1413  *
// 1414  * @brief   Read data from NV. This function can be used to read an entire item from NV or
// 1415  *          an element of an item by indexing into the item with an offset.
// 1416  *          Read data is copied into *buf.
// 1417  *
// 1418  * @param   id  - Valid NV item Id.
// 1419  * @param   ndx - Index offset into item
// 1420  * @param   len - Length of data to read.
// 1421  * @param  *buf - Data is read into this buffer.
// 1422  *
// 1423  * @return  SUCCESS if NV data was copied to the parameter 'buf'.
// 1424  *          Otherwise, NV_OPER_FAILED for failure.
// 1425  */

        RSEG BANKED_CODE:CODE:NOROOT(0)
// 1426 uint8 osal_nv_read( uint16 id, uint16 ndx, uint16 len, void *buf )
osal_nv_read:
        CFI Block cfiBlock23 Using cfiCommon0
        CFI Function osal_nv_read
        CODE
// 1427 {
        FUNCALL osal_nv_read, hotItem
        LOCFRAME ISTACK, 0, STACK
        LOCFRAME PSTACK, 0, STACK
        LOCFRAME XSTACK, 20, STACK
        LOCFRAME IOVERLAY, 0, STATIC
        LOCFRAME DOVERLAY, 0, STATIC
        ARGFRAME ISTACK, 0, STACK
        ARGFRAME PSTACK, 0, STACK
        ARGFRAME XSTACK, 20, STACK
        ARGFRAME IOVERLAY, 0, STATIC
        ARGFRAME DOVERLAY, 0, STATIC
        FUNCALL osal_nv_read, HalFlashRead
        LOCFRAME ISTACK, 0, STACK
        LOCFRAME PSTACK, 0, STACK
        LOCFRAME XSTACK, 22, STACK
        LOCFRAME IOVERLAY, 0, STATIC
        LOCFRAME DOVERLAY, 0, STATIC
        ARGFRAME ISTACK, 0, STACK
        ARGFRAME PSTACK, 0, STACK
        ARGFRAME XSTACK, 22, STACK
        ARGFRAME IOVERLAY, 0, STATIC
        ARGFRAME DOVERLAY, 0, STATIC
        FUNCALL osal_nv_read, findItem
        LOCFRAME ISTACK, 0, STACK
        LOCFRAME PSTACK, 0, STACK
        LOCFRAME XSTACK, 20, STACK
        LOCFRAME IOVERLAY, 0, STATIC
        LOCFRAME DOVERLAY, 0, STATIC
        ARGFRAME ISTACK, 0, STACK
        ARGFRAME PSTACK, 0, STACK
        ARGFRAME XSTACK, 20, STACK
        ARGFRAME IOVERLAY, 0, STATIC
        ARGFRAME DOVERLAY, 0, STATIC
        FUNCALL osal_nv_read, HalFlashRead
        LOCFRAME ISTACK, 0, STACK
        LOCFRAME PSTACK, 0, STACK
        LOCFRAME XSTACK, 22, STACK
        LOCFRAME IOVERLAY, 0, STATIC
        LOCFRAME DOVERLAY, 0, STATIC
        ARGFRAME ISTACK, 0, STACK
        ARGFRAME PSTACK, 0, STACK
        ARGFRAME XSTACK, 22, STACK
        ARGFRAME IOVERLAY, 0, STATIC
        ARGFRAME DOVERLAY, 0, STATIC
        MOV     A,#-0x14
        LCALL   ?BANKED_ENTER_XDATA
        CFI DPH0 load(1, XDATA, add(CFA_XSP16, literal(-1)))
        CFI DPL0 load(1, XDATA, add(CFA_XSP16, literal(-2)))
        CFI ?BRET_EXT load(1, XDATA, add(CFA_XSP16, literal(-3)))
        CFI ?RET_HIGH load(1, XDATA, add(CFA_XSP16, literal(-4)))
        CFI ?RET_LOW load(1, XDATA, add(CFA_XSP16, literal(-5)))
        CFI R7 load(1, XDATA, add(CFA_XSP16, literal(-6)))
        CFI V11 load(1, XDATA, add(CFA_XSP16, literal(-7)))
        CFI V10 load(1, XDATA, add(CFA_XSP16, literal(-8)))
        CFI V9 load(1, XDATA, add(CFA_XSP16, literal(-9)))
        CFI V8 load(1, XDATA, add(CFA_XSP16, literal(-10)))
        CFI V7 load(1, XDATA, add(CFA_XSP16, literal(-11)))
        CFI V6 load(1, XDATA, add(CFA_XSP16, literal(-12)))
        CFI V5 load(1, XDATA, add(CFA_XSP16, literal(-13)))
        CFI V4 load(1, XDATA, add(CFA_XSP16, literal(-14)))
        CFI V3 load(1, XDATA, add(CFA_XSP16, literal(-15)))
        CFI V2 load(1, XDATA, add(CFA_XSP16, literal(-16)))
        CFI V1 load(1, XDATA, add(CFA_XSP16, literal(-17)))
        CFI V0 load(1, XDATA, add(CFA_XSP16, literal(-18)))
        CFI VB load(1, XDATA, add(CFA_XSP16, literal(-19)))
        CFI R6 load(1, XDATA, add(CFA_XSP16, literal(-20)))
        CFI CFA_SP SP+0
        CFI CFA_XSP16 add(XSP16, 20)
        ; Saved register size: 20
        ; Auto size: 0
        MOV     ?V0 + 2,R2
        MOV     ?V0 + 3,R3
        MOV     A,R4
        MOV     R6,A
        MOV     A,R5
        MOV     R7,A
        MOV     A,#0x14
        LCALL   ?XSTACK_DISP0_8
        MOVX    A,@DPTR
        MOV     ?V0 + 8,A
        INC     DPTR
        MOVX    A,@DPTR
        MOV     ?V0 + 9,A
        MOV     A,#0x16
        LCALL   ?XSTACK_DISP0_8
        MOVX    A,@DPTR
        MOV     ?V0 + 4,A
        INC     DPTR
        MOVX    A,@DPTR
        MOV     ?V0 + 5,A
// 1428   uint16 offset;
// 1429   uint8 hotIdx;
// 1430 
// 1431   if ((hotIdx = hotItem(id)) < OSAL_NV_MAX_HOT)
        ; Setup parameters for call to function hotItem
        MOV     R2,?V0 + 2
        MOV     R3,?V0 + 3
        LCALL   ??hotItem?relay
        MOV     A,R1
        MOV     R0,A
        MOV     ?V0 + 0,R0
        MOV     A,R0
        CLR     C
        SUBB    A,#0x3
        JNC     ??osal_nv_read_0
// 1432   {
// 1433     HalFlashRead(hotPg[hotIdx], hotOff[hotIdx]+ndx, buf, len);
        ; Setup parameters for call to function HalFlashRead
        MOV     R0,#?V0 + 8
        LCALL   ?PUSH_XSTACK_I_TWO
        CFI CFA_XSP16 add(XSP16, 22)
        MOV     R4,?V0 + 4
        MOV     R5,?V0 + 5
        MOV     A,?V0 + 0
        MOV     R0,?V0 + 0
        MOV     R1,#0x0
        MOV     A,R0
        MOV     B,#0x2
        MUL     AB
        XCH     A,R0
        MOV     R2,B
        MOV     B,#0x0
        MUL     AB
        ADD     A,R2
        MOV     R2,A
        MOV     B,#0x2
        MOV     A,R1
        MUL     AB
        ADD     A,R2
        MOV     R1,A
        MOV     A,#hotOff & 0xff
        ADD     A,R0
        MOV     DPL,A
        MOV     A,#(hotOff >> 8) & 0xff
        ADDC    A,R1
        MOV     DPH,A
        MOVX    A,@DPTR
        ADD     A,R6
        MOV     R2,A
        INC     DPTR
        MOVX    A,@DPTR
        ADDC    A,R7
        MOV     R3,A
        MOV     ?V0 + 10,?V0 + 0
        MOV     ?V0 + 11,#0x0
        MOV     A,#hotPg & 0xff
        ADD     A,?V0 + 10
        MOV     DPL,A
        MOV     A,#(hotPg >> 8) & 0xff
        ADDC    A,?V0 + 11
        MOV     DPH,A
        MOVX    A,@DPTR
        MOV     R1,A
        LCALL   ??HalFlashRead?relay
        MOV     A,#0x2
        LCALL   ?DEALLOC_XSTACK8
        CFI CFA_XSP16 add(XSP16, 20)
// 1434     return SUCCESS;
        MOV     R1,#0x0
        SJMP    ??osal_nv_read_1
// 1435   }
// 1436 
// 1437   if ((offset = findItem(id)) == OSAL_NV_ITEM_NULL)
??osal_nv_read_0:
        ; Setup parameters for call to function findItem
        MOV     R2,?V0 + 2
        MOV     R3,?V0 + 3
        LCALL   ??findItem?relay
        MOV     ?V0 + 10,R2
        MOV     ?V0 + 11,R3
        MOV     R0,?V0 + 10
        MOV     R1,?V0 + 11
        MOV     ?V0 + 6,R0
        MOV     ?V0 + 7,R1
        MOV     A,R0
        ORL     A,R1
        JNZ     ??osal_nv_read_2
// 1438   {
// 1439     return NV_OPER_FAILED;
        MOV     R1,#0xa
        SJMP    ??osal_nv_read_1
// 1440   }
// 1441   else
// 1442   {
// 1443     HalFlashRead(findPg, offset+ndx, buf, len);
??osal_nv_read_2:
        ; Setup parameters for call to function HalFlashRead
        MOV     R0,#?V0 + 8
        LCALL   ?PUSH_XSTACK_I_TWO
        CFI CFA_XSP16 add(XSP16, 22)
        MOV     R4,?V0 + 4
        MOV     R5,?V0 + 5
        MOV     A,?V0 + 6
        ADD     A,R6
        MOV     R2,A
        MOV     A,?V0 + 7
        ADDC    A,R7
        MOV     R3,A
        MOV     DPTR,#findPg
        MOVX    A,@DPTR
        MOV     R1,A
        LCALL   ??HalFlashRead?relay
        MOV     A,#0x2
        LCALL   ?DEALLOC_XSTACK8
        CFI CFA_XSP16 add(XSP16, 20)
// 1444     return SUCCESS;
        MOV     R1,#0x0
??osal_nv_read_1:
        MOV     R7,#0xc
        LJMP    ?BANKED_LEAVE_XDATA
        CFI EndBlock cfiBlock23
// 1445   }
// 1446 }
// 1447 
// 1448 /*********************************************************************
// 1449  * @fn      osal_nv_delete
// 1450  *
// 1451  * @brief   Delete item from NV. This function will fail if the length
// 1452  *          parameter does not match the length of the item in NV.
// 1453  *
// 1454  * @param   id  - Valid NV item Id.
// 1455  * @param   len - Length of item to delete.
// 1456  *
// 1457  * @return  SUCCESS if item was deleted,
// 1458  *          NV_ITEM_UNINIT if item did not exist in NV,
// 1459  *          NV_BAD_ITEM_LEN if length parameter not correct,
// 1460  *          NV_OPER_FAILED if attempted deletion failed.
// 1461  */

        RSEG BANKED_CODE:CODE:NOROOT(0)
// 1462 uint8 osal_nv_delete( uint16 id, uint16 len )
osal_nv_delete:
        CFI Block cfiBlock24 Using cfiCommon0
        CFI Function osal_nv_delete
        CODE
// 1463 {
        FUNCALL osal_nv_delete, findItem
        LOCFRAME ISTACK, 0, STACK
        LOCFRAME PSTACK, 0, STACK
        LOCFRAME XSTACK, 16, STACK
        LOCFRAME IOVERLAY, 0, STATIC
        LOCFRAME DOVERLAY, 0, STATIC
        ARGFRAME ISTACK, 0, STACK
        ARGFRAME PSTACK, 0, STACK
        ARGFRAME XSTACK, 16, STACK
        ARGFRAME IOVERLAY, 0, STATIC
        ARGFRAME DOVERLAY, 0, STATIC
        FUNCALL osal_nv_delete, osal_nv_item_len
        LOCFRAME ISTACK, 0, STACK
        LOCFRAME PSTACK, 0, STACK
        LOCFRAME XSTACK, 16, STACK
        LOCFRAME IOVERLAY, 0, STATIC
        LOCFRAME DOVERLAY, 0, STATIC
        ARGFRAME ISTACK, 0, STACK
        ARGFRAME PSTACK, 0, STACK
        ARGFRAME XSTACK, 16, STACK
        ARGFRAME IOVERLAY, 0, STATIC
        ARGFRAME DOVERLAY, 0, STATIC
        FUNCALL osal_nv_delete, setItem
        LOCFRAME ISTACK, 0, STACK
        LOCFRAME PSTACK, 0, STACK
        LOCFRAME XSTACK, 16, STACK
        LOCFRAME IOVERLAY, 0, STATIC
        LOCFRAME DOVERLAY, 0, STATIC
        ARGFRAME ISTACK, 0, STACK
        ARGFRAME PSTACK, 0, STACK
        ARGFRAME XSTACK, 16, STACK
        ARGFRAME IOVERLAY, 0, STATIC
        ARGFRAME DOVERLAY, 0, STATIC
        FUNCALL osal_nv_delete, findItem
        LOCFRAME ISTACK, 0, STACK
        LOCFRAME PSTACK, 0, STACK
        LOCFRAME XSTACK, 16, STACK
        LOCFRAME IOVERLAY, 0, STATIC
        LOCFRAME DOVERLAY, 0, STATIC
        ARGFRAME ISTACK, 0, STACK
        ARGFRAME PSTACK, 0, STACK
        ARGFRAME XSTACK, 16, STACK
        ARGFRAME IOVERLAY, 0, STATIC
        ARGFRAME DOVERLAY, 0, STATIC
        MOV     A,#-0x10
        LCALL   ?BANKED_ENTER_XDATA
        CFI DPH0 load(1, XDATA, add(CFA_XSP16, literal(-1)))
        CFI DPL0 load(1, XDATA, add(CFA_XSP16, literal(-2)))
        CFI ?BRET_EXT load(1, XDATA, add(CFA_XSP16, literal(-3)))
        CFI ?RET_HIGH load(1, XDATA, add(CFA_XSP16, literal(-4)))
        CFI ?RET_LOW load(1, XDATA, add(CFA_XSP16, literal(-5)))
        CFI R7 load(1, XDATA, add(CFA_XSP16, literal(-6)))
        CFI V7 load(1, XDATA, add(CFA_XSP16, literal(-7)))
        CFI V6 load(1, XDATA, add(CFA_XSP16, literal(-8)))
        CFI V5 load(1, XDATA, add(CFA_XSP16, literal(-9)))
        CFI V4 load(1, XDATA, add(CFA_XSP16, literal(-10)))
        CFI V3 load(1, XDATA, add(CFA_XSP16, literal(-11)))
        CFI V2 load(1, XDATA, add(CFA_XSP16, literal(-12)))
        CFI V1 load(1, XDATA, add(CFA_XSP16, literal(-13)))
        CFI V0 load(1, XDATA, add(CFA_XSP16, literal(-14)))
        CFI VB load(1, XDATA, add(CFA_XSP16, literal(-15)))
        CFI R6 load(1, XDATA, add(CFA_XSP16, literal(-16)))
        CFI CFA_SP SP+0
        CFI CFA_XSP16 add(XSP16, 16)
        ; Saved register size: 16
        ; Auto size: 0
        MOV     A,R2
        MOV     R6,A
        MOV     A,R3
        MOV     R7,A
        MOV     ?V0 + 2,R4
        MOV     ?V0 + 3,R5
// 1464   uint16 length;
// 1465   uint16 offset;
// 1466 
// 1467   offset = findItem( id );
        ; Setup parameters for call to function findItem
        MOV     A,R6
        MOV     R2,A
        MOV     A,R7
        MOV     R3,A
        LCALL   ??findItem?relay
        MOV     ?V0 + 6,R2
        MOV     ?V0 + 7,R3
        MOV     ?V0 + 4,?V0 + 6
        MOV     ?V0 + 5,?V0 + 7
// 1468   if ( offset == OSAL_NV_ITEM_NULL )
        MOV     A,?V0 + 4
        ORL     A,?V0 + 5
        JNZ     ??osal_nv_delete_0
// 1469   {
// 1470     // NV item does not exist
// 1471     return NV_ITEM_UNINIT;
        MOV     R1,#0x9
        SJMP    ??osal_nv_delete_1
// 1472   }
// 1473 
// 1474   length = osal_nv_item_len( id );
??osal_nv_delete_0:
        ; Setup parameters for call to function osal_nv_item_len
        MOV     A,R6
        MOV     R2,A
        MOV     A,R7
        MOV     R3,A
        LCALL   ??osal_nv_item_len?relay
        MOV     ?V0 + 6,R2
        MOV     ?V0 + 7,R3
        MOV     ?V0 + 0,?V0 + 6
        MOV     ?V0 + 1,?V0 + 7
// 1475   if ( length != len )
        MOV     A,?V0 + 2
        XRL     A,?V0 + 0
        JNZ     ??osal_nv_delete_2
        MOV     A,?V0 + 3
        XRL     A,?V0 + 1
??osal_nv_delete_2:
        JZ      ??osal_nv_delete_3
// 1476   {
// 1477     // NV item has different length
// 1478     return NV_BAD_ITEM_LEN;
        MOV     R1,#0xc
        SJMP    ??osal_nv_delete_1
// 1479   }
// 1480 
// 1481   // Set item header ID to zero to 'delete' the item
// 1482   setItem( findPg, offset, eNvZero );
??osal_nv_delete_3:
        ; Setup parameters for call to function setItem
        MOV     R4,#0x1
        MOV     R2,?V0 + 4
        MOV     R3,?V0 + 5
        MOV     DPTR,#findPg
        MOVX    A,@DPTR
        MOV     R1,A
        LCALL   ??setItem?relay
// 1483 
// 1484   // Verify that item has been removed
// 1485   offset = findItem( id );
        ; Setup parameters for call to function findItem
        MOV     A,R6
        MOV     R2,A
        MOV     A,R7
        MOV     R3,A
        LCALL   ??findItem?relay
        MOV     ?V0 + 6,R2
        MOV     ?V0 + 7,R3
        MOV     ?V0 + 4,?V0 + 6
        MOV     ?V0 + 5,?V0 + 7
// 1486   if ( offset != OSAL_NV_ITEM_NULL )
        MOV     A,?V0 + 4
        ORL     A,?V0 + 5
        JZ      ??osal_nv_delete_4
// 1487   {
// 1488     // Still there
// 1489     return NV_OPER_FAILED;
        MOV     R1,#0xa
        SJMP    ??osal_nv_delete_1
// 1490   }
// 1491   else
// 1492   {
// 1493     // Yes, it's gone
// 1494     return SUCCESS;
??osal_nv_delete_4:
        MOV     R1,#0x0
??osal_nv_delete_1:
        MOV     R7,#0x8
        LJMP    ?BANKED_LEAVE_XDATA
        CFI EndBlock cfiBlock24
// 1495   }
// 1496 }

        RSEG BANK_RELAYS:CODE:REORDER:NOROOT(0)
??initNV?relay:
        LCALL   ?BDISPATCH
        DATA
        DC24    initNV

        RSEG BANK_RELAYS:CODE:REORDER:NOROOT(0)
??setPageUse?relay:
        LCALL   ?BDISPATCH
        DATA
        DC24    setPageUse

        RSEG BANK_RELAYS:CODE:REORDER:NOROOT(0)
??initPage?relay:
        LCALL   ?BDISPATCH
        DATA
        DC24    initPage

        RSEG BANK_RELAYS:CODE:REORDER:NOROOT(0)
??erasePage?relay:
        LCALL   ?BDISPATCH
        DATA
        DC24    erasePage

        RSEG BANK_RELAYS:CODE:REORDER:NOROOT(0)
??compactPage?relay:
        LCALL   ?BDISPATCH
        DATA
        DC24    compactPage

        RSEG BANK_RELAYS:CODE:REORDER:NOROOT(0)
??findItem?relay:
        LCALL   ?BDISPATCH
        DATA
        DC24    findItem

        RSEG BANK_RELAYS:CODE:REORDER:NOROOT(0)
??initItem?relay:
        LCALL   ?BDISPATCH
        DATA
        DC24    initItem

        RSEG BANK_RELAYS:CODE:REORDER:NOROOT(0)
??setItem?relay:
        LCALL   ?BDISPATCH
        DATA
        DC24    setItem

        RSEG BANK_RELAYS:CODE:REORDER:NOROOT(0)
??setChk?relay:
        LCALL   ?BDISPATCH
        DATA
        DC24    setChk

        RSEG BANK_RELAYS:CODE:REORDER:NOROOT(0)
??calcChkB?relay:
        LCALL   ?BDISPATCH
        DATA
        DC24    calcChkB

        RSEG BANK_RELAYS:CODE:REORDER:NOROOT(0)
??calcChkF?relay:
        LCALL   ?BDISPATCH
        DATA
        DC24    calcChkF

        RSEG BANK_RELAYS:CODE:REORDER:NOROOT(0)
??writeWord?relay:
        LCALL   ?BDISPATCH
        DATA
        DC24    writeWord

        RSEG BANK_RELAYS:CODE:REORDER:NOROOT(0)
??writeWordM?relay:
        LCALL   ?BDISPATCH
        DATA
        DC24    writeWordM

        RSEG BANK_RELAYS:CODE:REORDER:NOROOT(0)
??writeWordH?relay:
        LCALL   ?BDISPATCH
        DATA
        DC24    writeWordH

        RSEG BANK_RELAYS:CODE:REORDER:NOROOT(0)
??writeBuf?relay:
        LCALL   ?BDISPATCH
        DATA
        DC24    writeBuf

        RSEG BANK_RELAYS:CODE:REORDER:NOROOT(0)
??xferBuf?relay:
        LCALL   ?BDISPATCH
        DATA
        DC24    xferBuf

        RSEG BANK_RELAYS:CODE:REORDER:NOROOT(0)
??writeItem?relay:
        LCALL   ?BDISPATCH
        DATA
        DC24    writeItem

        RSEG BANK_RELAYS:CODE:REORDER:NOROOT(0)
??hotItem?relay:
        LCALL   ?BDISPATCH
        DATA
        DC24    hotItem

        RSEG BANK_RELAYS:CODE:REORDER:NOROOT(0)
??hotItemUpdate?relay:
        LCALL   ?BDISPATCH
        DATA
        DC24    hotItemUpdate

        RSEG BANK_RELAYS:CODE:REORDER:NOROOT(0)
??osal_nv_init?relay:
        LCALL   ?BDISPATCH
        DATA
        DC24    osal_nv_init

        RSEG BANK_RELAYS:CODE:REORDER:NOROOT(0)
??osal_nv_item_init?relay:
        LCALL   ?BDISPATCH
        DATA
        DC24    osal_nv_item_init

        RSEG BANK_RELAYS:CODE:REORDER:NOROOT(0)
??osal_nv_item_len?relay:
        LCALL   ?BDISPATCH
        DATA
        DC24    osal_nv_item_len

        RSEG BANK_RELAYS:CODE:REORDER:NOROOT(0)
??osal_nv_write?relay:
        LCALL   ?BDISPATCH
        DATA
        DC24    osal_nv_write

        RSEG BANK_RELAYS:CODE:REORDER:NOROOT(0)
??osal_nv_read?relay:
        LCALL   ?BDISPATCH
        DATA
        DC24    osal_nv_read

        RSEG BANK_RELAYS:CODE:REORDER:NOROOT(0)
??osal_nv_delete?relay:
        LCALL   ?BDISPATCH
        DATA
        DC24    osal_nv_delete

        END
// 1497 
// 1498 /*********************************************************************
// 1499  */
// 
//  7 340 bytes in segment BANKED_CODE
//    150 bytes in segment BANK_RELAYS
//      6 bytes in segment XDATA_ROM_C
//     35 bytes in segment XDATA_Z
// 12 288 bytes in segment ZIGNV_ADDRESS_SPACE
// 
//  7 490 bytes of CODE  memory
//      6 bytes of CONST memory
// 12 323 bytes of XDATA memory
//
//Errors: none
//Warnings: none
