///////////////////////////////////////////////////////////////////////////////
//                                                                            /
// IAR C/C++ Compiler V8.10.1.10194/W32 for 8051        14/Jul/2015  13:43:54 /
// Copyright 2004-2011 IAR Systems AB.                                        /
//                                                                            /
//    Core               =  plain                                             /
//    Code model         =  banked                                            /
//    Data model         =  large                                             /
//    Calling convention =  xdata reentrant                                   /
//    Constant location  =  data_rom                                          /
//    Dptr setup         =  1,16                                              /
//    Source file        =  C:\Texas Instruments\ZStack-CC2530-2.5.1a\Compone /
//                          nts\stack\nwk\stub_aps.c                          /
//    Command line       =  -f "C:\Texas Instruments\ZStack-CC2530-2.5.1a\Pro /
//                          jects\zstack\Samples\WirelessMonitorSystem\CC2530 /
//                          DB\..\..\..\Tools\CC2530DB\f8wEndev.cfg"          /
//                          (-DCPU32MHZ -DROOT=__near_func                    /
//                          -DMAC_CFG_TX_DATA_MAX=3 -DMAC_CFG_TX_MAX=6        /
//                          -DMAC_CFG_RX_MAX=3) -f "C:\Texas                  /
//                          Instruments\ZStack-CC2530-2.5.1a\Projects\zstack\ /
//                          Samples\WirelessMonitorSystem\CC2530DB\..\..\..\T /
//                          ools\CC2530DB\f8wConfig.cfg" (-DZIGBEEPRO         /
//                          -DSECURE=0 -DZG_SECURE_DYNAMIC=0 -DREFLECTOR      /
//                          -DDEFAULT_CHANLIST=0x00000800                     /
//                          -DZDAPP_CONFIG_PAN_ID=0xFFFF                      /
//                          -DNWK_START_DELAY=100 -DEXTENDED_JOINING_RANDOM_M /
//                          ASK=0x007F -DBEACON_REQUEST_DELAY=100             /
//                          -DBEACON_REQ_DELAY_MASK=0x00FF                    /
//                          -DLINK_STATUS_JITTER_MASK=0x007F                  /
//                          -DROUTE_EXPIRY_TIME=30 -DAPSC_ACK_WAIT_DURATION_P /
//                          OLLED=3000 -DNWK_INDIRECT_MSG_TIMEOUT=7           /
//                          -DMAX_RREQ_ENTRIES=8 -DAPSC_MAX_FRAME_RETRIES=3   /
//                          -DNWK_MAX_DATA_RETRIES=2                          /
//                          -DMAX_POLL_FAILURE_RETRIES=2 -DMAX_BCAST=9        /
//                          -DAPS_MAX_GROUPS=16 -DMAX_RTG_ENTRIES=40          /
//                          -DNWK_MAX_BINDING_ENTRIES=4                       /
//                          -DMAX_BINDING_CLUSTER_IDS=4                       /
//                          "-DDEFAULT_KEY={0x01, 0x03, 0x05, 0x07, 0x09,     /
//                          0x0B, 0x0D, 0x0F, 0x00, 0x02, 0x04, 0x06, 0x08,   /
//                          0x0A, 0x0C, 0x0D}" -DMAC_MAX_FRAME_SIZE=116       /
//                          -DZDNWKMGR_MIN_TRANSMISSIONS=20 "-DCONST=const    /
//                          __code" -DGENERIC=__generic                       /
//                          -DRFD_RCVC_ALWAYS_ON=FALSE -DPOLL_RATE=500        /
//                          -DQUEUED_POLL_RATE=30 -DRESPONSE_POLL_RATE=100)   /
//                          -DREJOIN_POLL_RATE=440 "C:\Texas                  /
//                          Instruments\ZStack-CC2530-2.5.1a\Components\stack /
//                          \nwk\stub_aps.c" -D HAL_UART -lC "C:\Texas        /
//                          Instruments\ZStack-CC2530-2.5.1a\Projects\zstack\ /
//                          Samples\WirelessMonitorSystem\CC2530DB\LCD\List\" /
//                           -lA "C:\Texas Instruments\ZStack-CC2530-2.5.1a\P /
//                          rojects\zstack\Samples\WirelessMonitorSystem\CC25 /
//                          30DB\LCD\List\" --diag_suppress Pe001,Pa010 -o    /
//                          "C:\Texas Instruments\ZStack-CC2530-2.5.1a\Projec /
//                          ts\zstack\Samples\WirelessMonitorSystem\CC2530DB\ /
//                          LCD\Obj\" -e --no_cse --no_unroll --no_inline     /
//                          --no_code_motion --no_tbaa --debug --core=plain   /
//                          --dptr=16,1 --data_model=large                    /
//                          --code_model=banked --calling_convention=xdata_re /
//                          entrant --place_constants=data_rom                /
//                          --nr_virtual_regs 16 -I "C:\Texas                 /
//                          Instruments\ZStack-CC2530-2.5.1a\Projects\zstack\ /
//                          Samples\WirelessMonitorSystem\CC2530DB\" -I       /
//                          "C:\Texas Instruments\ZStack-CC2530-2.5.1a\Projec /
//                          ts\zstack\Samples\WirelessMonitorSystem\CC2530DB\ /
//                          ..\Source\" -I "C:\Texas                          /
//                          Instruments\ZStack-CC2530-2.5.1a\Projects\zstack\ /
//                          Samples\WirelessMonitorSystem\CC2530DB\..\..\..\Z /
//                          Main\TI2530DB\" -I "C:\Texas                      /
//                          Instruments\ZStack-CC2530-2.5.1a\Projects\zstack\ /
//                          Samples\WirelessMonitorSystem\CC2530DB\..\..\..\. /
//                          .\..\Components\hal\include\" -I "C:\Texas        /
//                          Instruments\ZStack-CC2530-2.5.1a\Projects\zstack\ /
//                          Samples\WirelessMonitorSystem\CC2530DB\..\..\..\. /
//                          .\..\Components\hal\target\CC2530EB\" -I          /
//                          "C:\Texas Instruments\ZStack-CC2530-2.5.1a\Projec /
//                          ts\zstack\Samples\WirelessMonitorSystem\CC2530DB\ /
//                          ..\..\..\..\..\Components\mac\include\" -I        /
//                          "C:\Texas Instruments\ZStack-CC2530-2.5.1a\Projec /
//                          ts\zstack\Samples\WirelessMonitorSystem\CC2530DB\ /
//                          ..\..\..\..\..\Components\mac\high_level\" -I     /
//                          "C:\Texas Instruments\ZStack-CC2530-2.5.1a\Projec /
//                          ts\zstack\Samples\WirelessMonitorSystem\CC2530DB\ /
//                          ..\..\..\..\..\Components\mac\low_level\srf04\"   /
//                          -I "C:\Texas Instruments\ZStack-CC2530-2.5.1a\Pro /
//                          jects\zstack\Samples\WirelessMonitorSystem\CC2530 /
//                          DB\..\..\..\..\..\Components\mac\low_level\srf04\ /
//                          single_chip\" -I "C:\Texas                        /
//                          Instruments\ZStack-CC2530-2.5.1a\Projects\zstack\ /
//                          Samples\WirelessMonitorSystem\CC2530DB\..\..\..\. /
//                          .\..\Components\mt\" -I "C:\Texas                 /
//                          Instruments\ZStack-CC2530-2.5.1a\Projects\zstack\ /
//                          Samples\WirelessMonitorSystem\CC2530DB\..\..\..\. /
//                          .\..\Components\osal\include\" -I "C:\Texas       /
//                          Instruments\ZStack-CC2530-2.5.1a\Projects\zstack\ /
//                          Samples\WirelessMonitorSystem\CC2530DB\..\..\..\. /
//                          .\..\Components\services\saddr\" -I "C:\Texas     /
//                          Instruments\ZStack-CC2530-2.5.1a\Projects\zstack\ /
//                          Samples\WirelessMonitorSystem\CC2530DB\..\..\..\. /
//                          .\..\Components\services\sdata\" -I "C:\Texas     /
//                          Instruments\ZStack-CC2530-2.5.1a\Projects\zstack\ /
//                          Samples\WirelessMonitorSystem\CC2530DB\..\..\..\. /
//                          .\..\Components\stack\af\" -I "C:\Texas           /
//                          Instruments\ZStack-CC2530-2.5.1a\Projects\zstack\ /
//                          Samples\WirelessMonitorSystem\CC2530DB\..\..\..\. /
//                          .\..\Components\stack\nwk\" -I "C:\Texas          /
//                          Instruments\ZStack-CC2530-2.5.1a\Projects\zstack\ /
//                          Samples\WirelessMonitorSystem\CC2530DB\..\..\..\. /
//                          .\..\Components\stack\sapi\" -I "C:\Texas         /
//                          Instruments\ZStack-CC2530-2.5.1a\Projects\zstack\ /
//                          Samples\WirelessMonitorSystem\CC2530DB\..\..\..\. /
//                          .\..\Components\stack\sec\" -I "C:\Texas          /
//                          Instruments\ZStack-CC2530-2.5.1a\Projects\zstack\ /
//                          Samples\WirelessMonitorSystem\CC2530DB\..\..\..\. /
//                          .\..\Components\stack\sys\" -I "C:\Texas          /
//                          Instruments\ZStack-CC2530-2.5.1a\Projects\zstack\ /
//                          Samples\WirelessMonitorSystem\CC2530DB\..\..\..\. /
//                          .\..\Components\stack\zdo\" -I "C:\Texas          /
//                          Instruments\ZStack-CC2530-2.5.1a\Projects\zstack\ /
//                          Samples\WirelessMonitorSystem\CC2530DB\..\..\..\. /
//                          .\..\Components\zmac\" -I "C:\Texas               /
//                          Instruments\ZStack-CC2530-2.5.1a\Projects\zstack\ /
//                          Samples\WirelessMonitorSystem\CC2530DB\..\..\..\. /
//                          .\..\Components\zmac\f8w\" -On                    /
//                          --require_prototypes                              /
//    List file          =  C:\Texas Instruments\ZStack-CC2530-2.5.1a\Project /
//                          s\zstack\Samples\WirelessMonitorSystem\CC2530DB\L /
//                          CD\List\stub_aps.s51                              /
//                                                                            /
//                                                                            /
///////////////////////////////////////////////////////////////////////////////

        NAME stub_aps

        RTMODEL "__SystemLibrary", "CLib"
        RTMODEL "__calling_convention", "xdata_reentrant"
        RTMODEL "__code_model", "banked"
        RTMODEL "__core", "plain"
        RTMODEL "__data_model", "large"
        RTMODEL "__dptr_size", "16"
        RTMODEL "__extended_stack", "disabled"
        RTMODEL "__location_for_constants", "data"
        RTMODEL "__number_of_dptrs", "1"
        RTMODEL "__rt_version", "1"

        RSEG DOVERLAY:DATA:NOROOT(0)
        RSEG IOVERLAY:IDATA:NOROOT(0)
        RSEG ISTACK:IDATA:NOROOT(0)
        RSEG PSTACK:XDATA:NOROOT(0)
        RSEG XSTACK:XDATA:NOROOT(0)

        EXTERN ?ALLOC_XSTACK8
        EXTERN ?BANKED_ENTER_XDATA
        EXTERN ?BANKED_LEAVE_XDATA
        EXTERN ?BDISPATCH
        EXTERN ?BRET
        EXTERN ?DEALLOC_XSTACK8
        EXTERN ?PUSH_XSTACK8_X_FOUR
        EXTERN ?PUSH_XSTACK8_X_TWO
        EXTERN ?PUSH_XSTACK_I_ONE
        EXTERN ?PUSH_XSTACK_I_THREE
        EXTERN ?PUSH_XSTACK_I_TWO
        EXTERN ?S_SHL
        EXTERN ?V0
        EXTERN ?XSP
        EXTERN ?XSTACK_DISP0_8
        EXTERN __INIT_XDATA_I
        EXTERN __INIT_XDATA_Z

        PUBLIC ??INTERP_DataConfirm?relay
        FUNCTION ??INTERP_DataConfirm?relay,0203H
        PUBLIC ??INTERP_DataIndication?relay
        FUNCTION ??INTERP_DataIndication?relay,0203H
        PUBLIC ??INTERP_DataReq?relay
        FUNCTION ??INTERP_DataReq?relay,0203H
        PUBLIC ??INTERP_DataReqMTU?relay
        FUNCTION ??INTERP_DataReqMTU?relay,0203H
        FUNCTION ??StubAPS_BuildFrameControl?relay,0203H
        FUNCTION ??StubAPS_BuildMsg?relay,0203H
        PUBLIC ??StubAPS_Init?relay
        FUNCTION ??StubAPS_Init?relay,0203H
        PUBLIC ??StubAPS_InterPan?relay
        FUNCTION ??StubAPS_InterPan?relay,0203H
        FUNCTION ??StubAPS_NotifyApp?relay,0203H
        FUNCTION ??StubAPS_ParseMsg?relay,0203H
        PUBLIC ??StubAPS_ProcessEvent?relay
        FUNCTION ??StubAPS_ProcessEvent?relay,0203H
        PUBLIC ??StubAPS_RegisterApp?relay
        FUNCTION ??StubAPS_RegisterApp?relay,0203H
        PUBLIC ??StubAPS_SetInterPanChannel?relay
        FUNCTION ??StubAPS_SetInterPanChannel?relay,0203H
        PUBLIC ??StubAPS_SetIntraPanChannel?relay
        FUNCTION ??StubAPS_SetIntraPanChannel?relay,0203H
        FUNCTION ??StubAPS_SetNewChannel?relay,0203H
        PUBLIC ??StubAPS_ZMacCallback?relay
        FUNCTION ??StubAPS_ZMacCallback?relay,0203H
        FUNCTION ??StubNWK_BuildMsg?relay,0203H
        FUNCTION ??StubNWK_ParseMsg?relay,0203H
        PUBLIC INTERP_DataConfirm
        FUNCTION INTERP_DataConfirm,021203H
        ARGFRAME XSTACK, 15, STACK
        ARGFRAME IOVERLAY, 0, STATIC
        ARGFRAME DOVERLAY, 0, STATIC
        LOCFRAME XSTACK, 9, STACK
        PUBLIC INTERP_DataIndication
        FUNCTION INTERP_DataIndication,021203H
        ARGFRAME XSTACK, 15, STACK
        ARGFRAME IOVERLAY, 0, STATIC
        ARGFRAME DOVERLAY, 0, STATIC
        LOCFRAME ISTACK, 1, STACK
        LOCFRAME XSTACK, 83, STACK
        PUBLIC INTERP_DataReq
        FUNCTION INTERP_DataReq,021203H
        ARGFRAME XSTACK, 0, STACK
        LOCFRAME ISTACK, 1, STACK
        LOCFRAME XSTACK, 51, STACK
        PUBLIC INTERP_DataReqMTU
        FUNCTION INTERP_DataReqMTU,0203H
        ARGFRAME XSTACK, 0, STACK
        FUNCTION StubAPS_BuildFrameControl,021203H
        ARGFRAME XSTACK, 51, STACK
        ARGFRAME IOVERLAY, 0, STATIC
        ARGFRAME DOVERLAY, 0, STATIC
        LOCFRAME ISTACK, 1, STACK
        LOCFRAME XSTACK, 14, STACK
        FUNCTION StubAPS_BuildMsg,021203H
        ARGFRAME XSTACK, 49, STACK
        ARGFRAME IOVERLAY, 0, STATIC
        ARGFRAME DOVERLAY, 0, STATIC
        LOCFRAME ISTACK, 1, STACK
        LOCFRAME XSTACK, 19, STACK
        PUBLIC StubAPS_Init
        FUNCTION StubAPS_Init,0203H
        ARGFRAME XSTACK, 0, STACK
        LOCFRAME ISTACK, 2, STACK
        PUBLIC StubAPS_InterPan
        FUNCTION StubAPS_InterPan,0203H
        ARGFRAME XSTACK, 47, STACK
        ARGFRAME IOVERLAY, 0, STATIC
        ARGFRAME DOVERLAY, 0, STATIC
        FUNCTION StubAPS_NotifyApp,021203H
        ARGFRAME XSTACK, 15, STACK
        ARGFRAME IOVERLAY, 0, STATIC
        ARGFRAME DOVERLAY, 0, STATIC
        LOCFRAME ISTACK, 1, STACK
        LOCFRAME XSTACK, 12, STACK
        FUNCTION StubAPS_ParseMsg,021203H
        ARGFRAME XSTACK, 74, STACK
        ARGFRAME IOVERLAY, 0, STATIC
        ARGFRAME DOVERLAY, 0, STATIC
        LOCFRAME ISTACK, 1, STACK
        LOCFRAME XSTACK, 13, STACK
        PUBLIC StubAPS_ProcessEvent
        FUNCTION StubAPS_ProcessEvent,021203H
        ARGFRAME XSTACK, 0, STACK
        LOCFRAME XSTACK, 15, STACK
        PUBLIC StubAPS_RegisterApp
        FUNCTION StubAPS_RegisterApp,0203H
        ARGFRAME XSTACK, 0, STACK
        LOCFRAME ISTACK, 2, STACK
        PUBLIC StubAPS_SetInterPanChannel
        FUNCTION StubAPS_SetInterPanChannel,021203H
        ARGFRAME XSTACK, 0, STACK
        LOCFRAME XSTACK, 11, STACK
        PUBLIC StubAPS_SetIntraPanChannel
        FUNCTION StubAPS_SetIntraPanChannel,021203H
        ARGFRAME XSTACK, 0, STACK
        LOCFRAME ISTACK, 2, STACK
        LOCFRAME XSTACK, 2, STACK
        FUNCTION StubAPS_SetNewChannel,021203H
        ARGFRAME XSTACK, 15, STACK
        ARGFRAME IOVERLAY, 0, STATIC
        ARGFRAME DOVERLAY, 0, STATIC
        LOCFRAME ISTACK, 3, STACK
        LOCFRAME XSTACK, 2, STACK
        PUBLIC StubAPS_TaskID
        PUBLIC StubAPS_ZMacCallback
        FUNCTION StubAPS_ZMacCallback,021603H
        ARGFRAME XSTACK, 0, STACK
        LOCFRAME XSTACK, 15, STACK
        FUNCTION StubNWK_BuildMsg,021203H
        ARGFRAME XSTACK, 47, STACK
        ARGFRAME IOVERLAY, 0, STATIC
        ARGFRAME DOVERLAY, 0, STATIC
        LOCFRAME ISTACK, 1, STACK
        LOCFRAME XSTACK, 12, STACK
        FUNCTION StubNWK_ParseMsg,021203H
        ARGFRAME XSTACK, 74, STACK
        ARGFRAME IOVERLAY, 0, STATIC
        ARGFRAME DOVERLAY, 0, STATIC
        LOCFRAME ISTACK, 1, STACK
        LOCFRAME XSTACK, 13, STACK
        
        CFI Names cfiNames0
        CFI StackFrame CFA_SP SP IDATA
        CFI StackFrame CFA_PSP16 PSP16 XDATA
        CFI StackFrame CFA_XSP16 XSP16 XDATA
        CFI StaticOverlayFrame CFA_IOVERLAY IOVERLAY
        CFI StaticOverlayFrame CFA_DOVERLAY DOVERLAY
        CFI Resource `PSW.CY`:1, `B.BR0`:1, `B.BR1`:1, `B.BR2`:1, `B.BR3`:1
        CFI Resource `B.BR4`:1, `B.BR5`:1, `B.BR6`:1, `B.BR7`:1, `VB.BR8`:1
        CFI Resource `VB.BR9`:1, `VB.BR10`:1, `VB.BR11`:1, `VB.BR12`:1
        CFI Resource `VB.BR13`:1, `VB.BR14`:1, `VB.BR15`:1, VB:8, B:8, A:8
        CFI Resource PSW:8, DPL0:8, DPH0:8, R0:8, R1:8, R2:8, R3:8, R4:8, R5:8
        CFI Resource R6:8, R7:8, V0:8, V1:8, V2:8, V3:8, V4:8, V5:8, V6:8, V7:8
        CFI Resource V8:8, V9:8, V10:8, V11:8, V12:8, V13:8, V14:8, V15:8, SP:8
        CFI Resource PSPH:8, PSPL:8, PSP16:16, XSPH:8, XSPL:8, XSP16:16
        CFI VirtualResource ?RET:24
        CFI Resource ?BRET_EXT:8
        CFI VirtualResource ?RET_HIGH:8, ?RET_LOW:8
        CFI ResourceParts PSP16 PSPH, PSPL
        CFI ResourceParts XSP16 XSPH, XSPL
        CFI ResourceParts ?RET ?BRET_EXT, ?RET_HIGH, ?RET_LOW
        CFI EndNames cfiNames0
        
        CFI Common cfiCommon0 Using cfiNames0
        CFI CodeAlign 1
        CFI DataAlign -1
        CFI ReturnAddress ?RET CODE
        CFI CFA_DOVERLAY Used
        CFI CFA_IOVERLAY Used
        CFI CFA_SP SP+-3
        CFI CFA_PSP16 PSP16+0
        CFI CFA_XSP16 XSP16+0
        CFI `PSW.CY` SameValue
        CFI `B.BR0` SameValue
        CFI `B.BR1` SameValue
        CFI `B.BR2` SameValue
        CFI `B.BR3` SameValue
        CFI `B.BR4` SameValue
        CFI `B.BR5` SameValue
        CFI `B.BR6` SameValue
        CFI `B.BR7` SameValue
        CFI `VB.BR8` SameValue
        CFI `VB.BR9` SameValue
        CFI `VB.BR10` SameValue
        CFI `VB.BR11` SameValue
        CFI `VB.BR12` SameValue
        CFI `VB.BR13` SameValue
        CFI `VB.BR14` SameValue
        CFI `VB.BR15` SameValue
        CFI VB SameValue
        CFI B Undefined
        CFI A Undefined
        CFI PSW SameValue
        CFI DPL0 SameValue
        CFI DPH0 SameValue
        CFI R0 Undefined
        CFI R1 Undefined
        CFI R2 Undefined
        CFI R3 Undefined
        CFI R4 Undefined
        CFI R5 Undefined
        CFI R6 SameValue
        CFI R7 SameValue
        CFI V0 SameValue
        CFI V1 SameValue
        CFI V2 SameValue
        CFI V3 SameValue
        CFI V4 SameValue
        CFI V5 SameValue
        CFI V6 SameValue
        CFI V7 SameValue
        CFI V8 SameValue
        CFI V9 SameValue
        CFI V10 SameValue
        CFI V11 SameValue
        CFI V12 SameValue
        CFI V13 SameValue
        CFI V14 SameValue
        CFI V15 SameValue
        CFI PSPH Undefined
        CFI PSPL Undefined
        CFI XSPH Undefined
        CFI XSPL Undefined
        CFI ?RET Concat
        CFI ?BRET_EXT Frame(CFA_SP, 3)
        CFI ?RET_HIGH Frame(CFA_SP, 2)
        CFI ?RET_LOW Frame(CFA_SP, 1)
        CFI EndCommon cfiCommon0
        
osal_msg_receive    SYMBOL "osal_msg_receive"
osal_msg_deallocate SYMBOL "osal_msg_deallocate"
ZMacSetReq          SYMBOL "ZMacSetReq"
nwk_setStateIdle    SYMBOL "nwk_setStateIdle"
osal_memset         SYMBOL "osal_memset"
NLDE_ParseFrameControl SYMBOL "NLDE_ParseFrameControl"
sAddrExtCpy         SYMBOL "sAddrExtCpy"
NLME_GetProtocolVersion SYMBOL "NLME_GetProtocolVersion"
osal_memcpy         SYMBOL "osal_memcpy"
nwkDB_CountTypes    SYMBOL "nwkDB_CountTypes"
ZMacStateIdle       SYMBOL "ZMacStateIdle"
osal_msg_allocate   SYMBOL "osal_msg_allocate"
osal_msg_send       SYMBOL "osal_msg_send"
ZMacGetReq          SYMBOL "ZMacGetReq"
osal_start_timerEx  SYMBOL "osal_start_timerEx"
osal_mem_alloc      SYMBOL "osal_mem_alloc"
ZMacDataReq         SYMBOL "ZMacDataReq"
osal_mem_free       SYMBOL "osal_mem_free"
afDataConfirm       SYMBOL "afDataConfirm"
sAddrCpy            SYMBOL "sAddrCpy"
APSDE_DataIndication SYMBOL "APSDE_DataIndication"
??APSDE_DataIndication?relay SYMBOL "?relay", APSDE_DataIndication
??NLDE_ParseFrameControl?relay SYMBOL "?relay", NLDE_ParseFrameControl
??NLME_GetProtocolVersion?relay SYMBOL "?relay", NLME_GetProtocolVersion
??ZMacDataReq?relay SYMBOL "?relay", ZMacDataReq
??ZMacGetReq?relay  SYMBOL "?relay", ZMacGetReq
??ZMacSetReq?relay  SYMBOL "?relay", ZMacSetReq
??ZMacStateIdle?relay SYMBOL "?relay", ZMacStateIdle
??afDataConfirm?relay SYMBOL "?relay", afDataConfirm
??nwkDB_CountTypes?relay SYMBOL "?relay", nwkDB_CountTypes
??nwk_setStateIdle?relay SYMBOL "?relay", nwk_setStateIdle
??osal_mem_alloc?relay SYMBOL "?relay", osal_mem_alloc
??osal_mem_free?relay SYMBOL "?relay", osal_mem_free
??osal_memcpy?relay SYMBOL "?relay", osal_memcpy
??osal_memset?relay SYMBOL "?relay", osal_memset
??osal_msg_allocate?relay SYMBOL "?relay", osal_msg_allocate
??osal_msg_deallocate?relay SYMBOL "?relay", osal_msg_deallocate
??osal_msg_receive?relay SYMBOL "?relay", osal_msg_receive
??osal_msg_send?relay SYMBOL "?relay", osal_msg_send
??osal_start_timerEx?relay SYMBOL "?relay", osal_start_timerEx
??sAddrCpy?relay    SYMBOL "?relay", sAddrCpy
??sAddrExtCpy?relay SYMBOL "?relay", sAddrExtCpy
INTERP_DataConfirm  SYMBOL "INTERP_DataConfirm"
??INTERP_DataConfirm?relay SYMBOL "?relay", INTERP_DataConfirm
INTERP_DataIndication SYMBOL "INTERP_DataIndication"
??INTERP_DataIndication?relay SYMBOL "?relay", INTERP_DataIndication
INTERP_DataReq      SYMBOL "INTERP_DataReq"
??INTERP_DataReq?relay SYMBOL "?relay", INTERP_DataReq
INTERP_DataReqMTU   SYMBOL "INTERP_DataReqMTU"
??INTERP_DataReqMTU?relay SYMBOL "?relay", INTERP_DataReqMTU
StubAPS_Init        SYMBOL "StubAPS_Init"
??StubAPS_Init?relay SYMBOL "?relay", StubAPS_Init
StubAPS_InterPan    SYMBOL "StubAPS_InterPan"
??StubAPS_InterPan?relay SYMBOL "?relay", StubAPS_InterPan
StubAPS_ProcessEvent SYMBOL "StubAPS_ProcessEvent"
??StubAPS_ProcessEvent?relay SYMBOL "?relay", StubAPS_ProcessEvent
StubAPS_RegisterApp SYMBOL "StubAPS_RegisterApp"
??StubAPS_RegisterApp?relay SYMBOL "?relay", StubAPS_RegisterApp
StubAPS_SetInterPanChannel SYMBOL "StubAPS_SetInterPanChannel"
??StubAPS_SetInterPanChannel?relay SYMBOL "?relay", StubAPS_SetInterPanChannel
StubAPS_SetIntraPanChannel SYMBOL "StubAPS_SetIntraPanChannel"
??StubAPS_SetIntraPanChannel?relay SYMBOL "?relay", StubAPS_SetIntraPanChannel
StubAPS_ZMacCallback SYMBOL "StubAPS_ZMacCallback"
??StubAPS_ZMacCallback?relay SYMBOL "?relay", StubAPS_ZMacCallback

        EXTERN osal_msg_receive
        FUNCTION osal_msg_receive,0202H
        ARGFRAME ISTACK, 0, STACK
        ARGFRAME PSTACK, 0, STACK
        ARGFRAME XSTACK, 15, STACK
        ARGFRAME IOVERLAY, 0, STATIC
        ARGFRAME DOVERLAY, 0, STATIC
        EXTERN osal_msg_deallocate
        FUNCTION osal_msg_deallocate,0202H
        ARGFRAME ISTACK, 0, STACK
        ARGFRAME PSTACK, 0, STACK
        ARGFRAME XSTACK, 15, STACK
        ARGFRAME IOVERLAY, 0, STATIC
        ARGFRAME DOVERLAY, 0, STATIC
        EXTERN ZMacSetReq
        FUNCTION ZMacSetReq,0202H
        ARGFRAME ISTACK, 2, STACK
        ARGFRAME PSTACK, 0, STACK
        ARGFRAME XSTACK, 15, STACK
        ARGFRAME IOVERLAY, 0, STATIC
        ARGFRAME DOVERLAY, 0, STATIC
        EXTERN nwk_setStateIdle
        FUNCTION nwk_setStateIdle,0202H
        ARGFRAME ISTACK, 2, STACK
        ARGFRAME PSTACK, 0, STACK
        ARGFRAME XSTACK, 15, STACK
        ARGFRAME IOVERLAY, 0, STATIC
        ARGFRAME DOVERLAY, 0, STATIC
        EXTERN osal_memset
        FUNCTION osal_memset,0202H
        ARGFRAME ISTACK, 0, STACK
        ARGFRAME PSTACK, 0, STACK
        ARGFRAME XSTACK, 47, STACK
        ARGFRAME IOVERLAY, 0, STATIC
        ARGFRAME DOVERLAY, 0, STATIC
        EXTERN NLDE_ParseFrameControl
        FUNCTION NLDE_ParseFrameControl,0202H
        ARGFRAME ISTACK, 0, STACK
        ARGFRAME PSTACK, 0, STACK
        ARGFRAME XSTACK, 13, STACK
        ARGFRAME IOVERLAY, 0, STATIC
        ARGFRAME DOVERLAY, 0, STATIC
        EXTERN sAddrExtCpy
        FUNCTION sAddrExtCpy,0202H
        ARGFRAME ISTACK, 0, STACK
        ARGFRAME PSTACK, 0, STACK
        ARGFRAME XSTACK, 14, STACK
        ARGFRAME IOVERLAY, 0, STATIC
        ARGFRAME DOVERLAY, 0, STATIC
        EXTERN NLME_GetProtocolVersion
        FUNCTION NLME_GetProtocolVersion,0202H
        ARGFRAME ISTACK, 0, STACK
        ARGFRAME PSTACK, 0, STACK
        ARGFRAME XSTACK, 74, STACK
        ARGFRAME IOVERLAY, 0, STATIC
        ARGFRAME DOVERLAY, 0, STATIC
        EXTERN osal_memcpy
        FUNCTION osal_memcpy,0202H
        ARGFRAME ISTACK, 0, STACK
        ARGFRAME PSTACK, 0, STACK
        ARGFRAME XSTACK, 19, STACK
        ARGFRAME IOVERLAY, 0, STATIC
        ARGFRAME DOVERLAY, 0, STATIC
        EXTERN nwkDB_CountTypes
        FUNCTION nwkDB_CountTypes,0202H
        ARGFRAME ISTACK, 2, STACK
        ARGFRAME PSTACK, 0, STACK
        ARGFRAME XSTACK, 2, STACK
        ARGFRAME IOVERLAY, 0, STATIC
        ARGFRAME DOVERLAY, 0, STATIC
        EXTERN ZMacStateIdle
        FUNCTION ZMacStateIdle,0202H
        ARGFRAME ISTACK, 2, STACK
        ARGFRAME PSTACK, 0, STACK
        ARGFRAME XSTACK, 2, STACK
        ARGFRAME IOVERLAY, 0, STATIC
        ARGFRAME DOVERLAY, 0, STATIC
        EXTERN osal_msg_allocate
        FUNCTION osal_msg_allocate,0202H
        ARGFRAME ISTACK, 0, STACK
        ARGFRAME PSTACK, 0, STACK
        ARGFRAME XSTACK, 12, STACK
        ARGFRAME IOVERLAY, 0, STATIC
        ARGFRAME DOVERLAY, 0, STATIC
        EXTERN osal_msg_send
        FUNCTION osal_msg_send,0202H
        ARGFRAME ISTACK, 0, STACK
        ARGFRAME PSTACK, 0, STACK
        ARGFRAME XSTACK, 15, STACK
        ARGFRAME IOVERLAY, 0, STATIC
        ARGFRAME DOVERLAY, 0, STATIC
        EXTERN ZMacGetReq
        FUNCTION ZMacGetReq,0202H
        ARGFRAME ISTACK, 2, STACK
        ARGFRAME PSTACK, 0, STACK
        ARGFRAME XSTACK, 11, STACK
        ARGFRAME IOVERLAY, 0, STATIC
        ARGFRAME DOVERLAY, 0, STATIC
        EXTERN osal_start_timerEx
        FUNCTION osal_start_timerEx,0202H
        ARGFRAME ISTACK, 0, STACK
        ARGFRAME PSTACK, 0, STACK
        ARGFRAME XSTACK, 11, STACK
        ARGFRAME IOVERLAY, 0, STATIC
        ARGFRAME DOVERLAY, 0, STATIC
        EXTERN osal_mem_alloc
        FUNCTION osal_mem_alloc,0202H
        ARGFRAME ISTACK, 0, STACK
        ARGFRAME PSTACK, 0, STACK
        ARGFRAME XSTACK, 47, STACK
        ARGFRAME IOVERLAY, 0, STATIC
        ARGFRAME DOVERLAY, 0, STATIC
        EXTERN ZMacDataReq
        FUNCTION ZMacDataReq,0202H
        ARGFRAME ISTACK, 0, STACK
        ARGFRAME PSTACK, 0, STACK
        ARGFRAME XSTACK, 47, STACK
        ARGFRAME IOVERLAY, 0, STATIC
        ARGFRAME DOVERLAY, 0, STATIC
        EXTERN osal_mem_free
        FUNCTION osal_mem_free,0202H
        ARGFRAME ISTACK, 0, STACK
        ARGFRAME PSTACK, 0, STACK
        ARGFRAME XSTACK, 47, STACK
        ARGFRAME IOVERLAY, 0, STATIC
        ARGFRAME DOVERLAY, 0, STATIC
        EXTERN afDataConfirm
        FUNCTION afDataConfirm,0202H
        ARGFRAME ISTACK, 0, STACK
        ARGFRAME PSTACK, 0, STACK
        ARGFRAME XSTACK, 9, STACK
        ARGFRAME IOVERLAY, 0, STATIC
        ARGFRAME DOVERLAY, 0, STATIC
        EXTERN sAddrCpy
        FUNCTION sAddrCpy,0202H
        ARGFRAME ISTACK, 0, STACK
        ARGFRAME PSTACK, 0, STACK
        ARGFRAME XSTACK, 74, STACK
        ARGFRAME IOVERLAY, 0, STATIC
        ARGFRAME DOVERLAY, 0, STATIC
        EXTERN APSDE_DataIndication
        FUNCTION APSDE_DataIndication,0202H
        ARGFRAME ISTACK, 0, STACK
        ARGFRAME PSTACK, 0, STACK
        ARGFRAME XSTACK, 83, STACK
        ARGFRAME IOVERLAY, 0, STATIC
        ARGFRAME DOVERLAY, 0, STATIC
        EXTERN ??APSDE_DataIndication?relay
        FUNCTION ??APSDE_DataIndication?relay,00H
        EXTERN ??NLDE_ParseFrameControl?relay
        FUNCTION ??NLDE_ParseFrameControl?relay,00H
        EXTERN ??NLME_GetProtocolVersion?relay
        FUNCTION ??NLME_GetProtocolVersion?relay,00H
        EXTERN ??ZMacDataReq?relay
        FUNCTION ??ZMacDataReq?relay,00H
        EXTERN ??ZMacGetReq?relay
        FUNCTION ??ZMacGetReq?relay,00H
        EXTERN ??ZMacSetReq?relay
        FUNCTION ??ZMacSetReq?relay,00H
        EXTERN ??ZMacStateIdle?relay
        FUNCTION ??ZMacStateIdle?relay,00H
        EXTERN ??afDataConfirm?relay
        FUNCTION ??afDataConfirm?relay,00H
        EXTERN ??nwkDB_CountTypes?relay
        FUNCTION ??nwkDB_CountTypes?relay,00H
        EXTERN ??nwk_setStateIdle?relay
        FUNCTION ??nwk_setStateIdle?relay,00H
        EXTERN ??osal_mem_alloc?relay
        FUNCTION ??osal_mem_alloc?relay,00H
        EXTERN ??osal_mem_free?relay
        FUNCTION ??osal_mem_free?relay,00H
        EXTERN ??osal_memcpy?relay
        FUNCTION ??osal_memcpy?relay,00H
        EXTERN ??osal_memset?relay
        FUNCTION ??osal_memset?relay,00H
        EXTERN ??osal_msg_allocate?relay
        FUNCTION ??osal_msg_allocate?relay,00H
        EXTERN ??osal_msg_deallocate?relay
        FUNCTION ??osal_msg_deallocate?relay,00H
        EXTERN ??osal_msg_receive?relay
        FUNCTION ??osal_msg_receive?relay,00H
        EXTERN ??osal_msg_send?relay
        FUNCTION ??osal_msg_send?relay,00H
        EXTERN ??osal_start_timerEx?relay
        FUNCTION ??osal_start_timerEx?relay,00H
        EXTERN ??sAddrCpy?relay
        FUNCTION ??sAddrCpy?relay,00H
        EXTERN ??sAddrExtCpy?relay
        FUNCTION ??sAddrExtCpy?relay,00H
        EXTERN _NIB
        EXTERN pZMac_AppCallback

// C:\Texas Instruments\ZStack-CC2530-2.5.1a\Components\stack\nwk\stub_aps.c
//    1 /**************************************************************************************************
//    2   Filename:       stub_aps.c
//    3   Revised:        $Date: 2011-04-20 10:16:44 -0700 (Wed, 20 Apr 2011) $
//    4   Revision:       $Revision: 25771 $
//    5 
//    6   Description:    Stub APS processing functions
//    7 
//    8 
//    9   Copyright 2008 - 2011 Texas Instruments Incorporated. All rights reserved.
//   10 
//   11   IMPORTANT: Your use of this Software is limited to those specific rights
//   12   granted under the terms of a software license agreement between the user
//   13   who downloaded the software, his/her employer (which must be your employer)
//   14   and Texas Instruments Incorporated (the "License").  You may not use this
//   15   Software unless you agree to abide by the terms of the License. The License
//   16   limits your use, and you acknowledge, that the Software may not be modified,
//   17   copied or distributed unless embedded on a Texas Instruments microcontroller
//   18   or used solely and exclusively in conjunction with a Texas Instruments radio
//   19   frequency transceiver, which is integrated into your product.  Other than for
//   20   the foregoing purpose, you may not use, reproduce, copy, prepare derivative
//   21   works of, modify, distribute, perform, display or sell this Software and/or
//   22   its documentation for any purpose.
//   23 
//   24   YOU FURTHER ACKNOWLEDGE AND AGREE THAT THE SOFTWARE AND DOCUMENTATION ARE
//   25   PROVIDED “AS IS” WITHOUT WARRANTY OF ANY KIND, EITHER EXPRESS OR IMPLIED,
//   26   INCLUDING WITHOUT LIMITATION, ANY WARRANTY OF MERCHANTABILITY, TITLE,
//   27   NON-INFRINGEMENT AND FITNESS FOR A PARTICULAR PURPOSE. IN NO EVENT SHALL
//   28   TEXAS INSTRUMENTS OR ITS LICENSORS BE LIABLE OR OBLIGATED UNDER CONTRACT,
//   29   NEGLIGENCE, STRICT LIABILITY, CONTRIBUTION, BREACH OF WARRANTY, OR OTHER
//   30   LEGAL EQUITABLE THEORY ANY DIRECT OR INDIRECT DAMAGES OR EXPENSES
//   31   INCLUDING BUT NOT LIMITED TO ANY INCIDENTAL, SPECIAL, INDIRECT, PUNITIVE
//   32   OR CONSEQUENTIAL DAMAGES, LOST PROFITS OR LOST DATA, COST OF PROCUREMENT
//   33   OF SUBSTITUTE GOODS, TECHNOLOGY, SERVICES, OR ANY CLAIMS BY THIRD PARTIES
//   34   (INCLUDING BUT NOT LIMITED TO ANY DEFENSE THEREOF), OR OTHER SIMILAR COSTS.
//   35 
//   36   Should you have any questions regarding your right to use this Software,
//   37   contact Texas Instruments Incorporated at www.TI.com.
//   38 **************************************************************************************************/
//   39 
//   40 /*********************************************************************
//   41  * INCLUDES
//   42  */
//   43 #include "osal.h"
//   44 #include "mac_spec.h"
//   45 #include "nwk_util.h"
//   46 #include "AF.h"
//   47 
//   48 #include "stub_aps.h"
//   49 
//   50 /*********************************************************************
//   51  * MACROS
//   52  */
//   53 
//   54 /*********************************************************************
//   55  * CONSTANTS
//   56  */
//   57 
//   58 // Stub NWK header length
//   59 #define STUB_NWK_HDR_LEN                2
//   60 
//   61 // Start of the Stub APS header in the Inter-PAN frame
//   62 #define STUB_APS_HDR_FRAME_CTRL         STUB_NWK_HDR_LEN
//   63 
//   64 // Stub APS event identifiers
//   65 #define CHANNEL_CHANGE_EVT              0x0001
//   66 
//   67 #define CHANNEL_CHANGE_RETRY_TIMEOUT    100
//   68 
//   69 /*********************************************************************
//   70  * TYPEDEFS
//   71  */
//   72 typedef struct
//   73 {
//   74   zAddrType_t addr;
//   75   uint16 panId;
//   76 } pan_t;
//   77 
//   78 /*********************************************************************
//   79  * GLOBAL VARIABLES
//   80  */
//   81 

        RSEG XDATA_I:XDATA:NOROOT(0)
//   82 uint8 StubAPS_TaskID = 0xFF;    // Task ID for internal task/event processing
StubAPS_TaskID:
        DATA8
        DS 1
        REQUIRE `?<Initializer for StubAPS_TaskID>`
        REQUIRE __INIT_XDATA_I
//   83 
//   84 /*********************************************************************
//   85  * EXTERNAL VARIABLES
//   86  */
//   87 
//   88 
//   89 /*********************************************************************
//   90  * EXTERNAL FUNCTIONS
//   91  */
//   92 
//   93 
//   94 /*********************************************************************
//   95  * LOCAL VARIABLES
//   96  */
//   97 

        RSEG XDATA_Z:XDATA:NOROOT(0)
        DATA8
//   98 static uint8 newChannel;
newChannel:
        DS 1
        REQUIRE __INIT_XDATA_Z

        RSEG XDATA_Z:XDATA:NOROOT(0)
        DATA8
//   99 static uint8 channelChangeInProgress = FALSE;
channelChangeInProgress:
        DS 1
        REQUIRE __INIT_XDATA_Z
//  100 
//  101 // Application info

        RSEG XDATA_I:XDATA:NOROOT(0)
//  102 static uint8 appTaskID = 0xFF;  // Application task id
appTaskID:
        DATA8
        DS 1
        REQUIRE `?<Initializer for appTaskID>`
        REQUIRE __INIT_XDATA_I

        RSEG XDATA_Z:XDATA:NOROOT(0)
        DATA8
//  103 static uint8 appEndPoint = 0;   // Application endpoint
appEndPoint:
        DS 1
        REQUIRE __INIT_XDATA_Z
//  104 
//  105 
//  106 /*********************************************************************
//  107  * LOCAL FUNCTIONS
//  108  */
//  109 
//  110 static void StubNWK_ParseMsg( uint8 *buf, uint8 bufLength, NLDE_FrameFormat_t *snff );
//  111 static void StubAPS_ParseMsg( NLDE_FrameFormat_t *snff, aps_FrameFormat_t *saff );
//  112 static void StubNWK_BuildMsg( uint8 *nwkHdr );
//  113 static void StubAPS_BuildMsg( uint8 *apsHdr, uint8 frmCtrl, uint16 groupID, APSDE_DataReq_t *req );
//  114 static ZStatus_t StubAPS_BuildFrameControl( uint8 *frmCtrl, zAddrType_t *dstAddr, 
//  115                                             uint16 *groupID, APSDE_DataReq_t *req );
//  116 static ZStatus_t StubAPS_SetNewChannel( uint8 channel );
//  117 static void StubAPS_NotifyApp( uint8 status );
//  118 
//  119 uint8 StubAPS_ZMacCallback( uint8 *msgPtr );
//  120 
//  121 /*********************************************************************
//  122  * @fn      StubAPS_Init()
//  123  *
//  124  * @brief   Initialize stub APS layer
//  125  *
//  126  * @param   task_id - Task identifier for the desired task
//  127  *
//  128  * @return  none
//  129  */

        RSEG BANKED_CODE:CODE:NOROOT(0)
//  130 void StubAPS_Init( uint8 task_id )
StubAPS_Init:
        CFI Block cfiBlock0 Using cfiCommon0
        CFI Function StubAPS_Init
        CODE
//  131 {
        PUSH    DPL
        CFI DPL0 Frame(CFA_SP, 4)
        CFI CFA_SP SP+-4
        PUSH    DPH
        CFI DPH0 Frame(CFA_SP, 5)
        CFI CFA_SP SP+-5
        ; Saved register size: 2
        ; Auto size: 0
//  132   StubAPS_TaskID = task_id;
        MOV     A,R1
        MOV     DPTR,#StubAPS_TaskID
        MOVX    @DPTR,A
//  133     
//  134   // register with ZMAC
//  135   pZMac_AppCallback = StubAPS_ZMacCallback;
        MOV     DPTR,#pZMac_AppCallback
        MOV     A,#??StubAPS_ZMacCallback?relay & 0xff
        MOVX    @DPTR,A
        INC     DPTR
        MOV     A,#(??StubAPS_ZMacCallback?relay >> 8) & 0xff
        MOVX    @DPTR,A
//  136   
//  137 } /* StubAPS_Init() */
        POP     DPH
        CFI DPH0 SameValue
        CFI CFA_SP SP+-4
        POP     DPL
        CFI DPL0 SameValue
        CFI CFA_SP SP+-3
        LJMP    ?BRET
        CFI EndBlock cfiBlock0
//  138 
//  139 /*********************************************************************
//  140  * @fn      StubAPS_ProcessEvent()
//  141  *
//  142  * @brief   Main event loop for Stub APS task. This function should be called
//  143  *          at periodic intervals when event occur.
//  144  *
//  145  * @param   task_id - Task ID
//  146  * @param   events  - Bitmap of events
//  147  *
//  148  * @return  none
//  149  */

        RSEG BANKED_CODE:CODE:NOROOT(0)
//  150 UINT16 StubAPS_ProcessEvent( uint8 task_id, uint16 events )
StubAPS_ProcessEvent:
        CFI Block cfiBlock1 Using cfiCommon0
        CFI Function StubAPS_ProcessEvent
        CODE
//  151 {
        FUNCALL StubAPS_ProcessEvent, osal_msg_receive
        LOCFRAME ISTACK, 0, STACK
        LOCFRAME PSTACK, 0, STACK
        LOCFRAME XSTACK, 15, STACK
        LOCFRAME IOVERLAY, 0, STATIC
        LOCFRAME DOVERLAY, 0, STATIC
        ARGFRAME ISTACK, 0, STACK
        ARGFRAME PSTACK, 0, STACK
        ARGFRAME XSTACK, 15, STACK
        ARGFRAME IOVERLAY, 0, STATIC
        ARGFRAME DOVERLAY, 0, STATIC
        FUNCALL StubAPS_ProcessEvent, INTERP_DataConfirm
        LOCFRAME ISTACK, 0, STACK
        LOCFRAME PSTACK, 0, STACK
        LOCFRAME XSTACK, 15, STACK
        LOCFRAME IOVERLAY, 0, STATIC
        LOCFRAME DOVERLAY, 0, STATIC
        ARGFRAME ISTACK, 0, STACK
        ARGFRAME PSTACK, 0, STACK
        ARGFRAME XSTACK, 15, STACK
        ARGFRAME IOVERLAY, 0, STATIC
        ARGFRAME DOVERLAY, 0, STATIC
        FUNCALL StubAPS_ProcessEvent, INTERP_DataIndication
        LOCFRAME ISTACK, 0, STACK
        LOCFRAME PSTACK, 0, STACK
        LOCFRAME XSTACK, 15, STACK
        LOCFRAME IOVERLAY, 0, STATIC
        LOCFRAME DOVERLAY, 0, STATIC
        ARGFRAME ISTACK, 0, STACK
        ARGFRAME PSTACK, 0, STACK
        ARGFRAME XSTACK, 15, STACK
        ARGFRAME IOVERLAY, 0, STATIC
        ARGFRAME DOVERLAY, 0, STATIC
        FUNCALL StubAPS_ProcessEvent, osal_msg_deallocate
        LOCFRAME ISTACK, 0, STACK
        LOCFRAME PSTACK, 0, STACK
        LOCFRAME XSTACK, 15, STACK
        LOCFRAME IOVERLAY, 0, STATIC
        LOCFRAME DOVERLAY, 0, STATIC
        ARGFRAME ISTACK, 0, STACK
        ARGFRAME PSTACK, 0, STACK
        ARGFRAME XSTACK, 15, STACK
        ARGFRAME IOVERLAY, 0, STATIC
        ARGFRAME DOVERLAY, 0, STATIC
        FUNCALL StubAPS_ProcessEvent, StubAPS_SetNewChannel
        LOCFRAME ISTACK, 0, STACK
        LOCFRAME PSTACK, 0, STACK
        LOCFRAME XSTACK, 15, STACK
        LOCFRAME IOVERLAY, 0, STATIC
        LOCFRAME DOVERLAY, 0, STATIC
        ARGFRAME ISTACK, 0, STACK
        ARGFRAME PSTACK, 0, STACK
        ARGFRAME XSTACK, 15, STACK
        ARGFRAME IOVERLAY, 0, STATIC
        ARGFRAME DOVERLAY, 0, STATIC
        FUNCALL StubAPS_ProcessEvent, ZMacSetReq
        LOCFRAME ISTACK, 0, STACK
        LOCFRAME PSTACK, 0, STACK
        LOCFRAME XSTACK, 15, STACK
        LOCFRAME IOVERLAY, 0, STATIC
        LOCFRAME DOVERLAY, 0, STATIC
        ARGFRAME ISTACK, 0, STACK
        ARGFRAME PSTACK, 0, STACK
        ARGFRAME XSTACK, 15, STACK
        ARGFRAME IOVERLAY, 0, STATIC
        ARGFRAME DOVERLAY, 0, STATIC
        FUNCALL StubAPS_ProcessEvent, nwk_setStateIdle
        LOCFRAME ISTACK, 0, STACK
        LOCFRAME PSTACK, 0, STACK
        LOCFRAME XSTACK, 15, STACK
        LOCFRAME IOVERLAY, 0, STATIC
        LOCFRAME DOVERLAY, 0, STATIC
        ARGFRAME ISTACK, 0, STACK
        ARGFRAME PSTACK, 0, STACK
        ARGFRAME XSTACK, 15, STACK
        ARGFRAME IOVERLAY, 0, STATIC
        ARGFRAME DOVERLAY, 0, STATIC
        FUNCALL StubAPS_ProcessEvent, StubAPS_NotifyApp
        LOCFRAME ISTACK, 0, STACK
        LOCFRAME PSTACK, 0, STACK
        LOCFRAME XSTACK, 15, STACK
        LOCFRAME IOVERLAY, 0, STATIC
        LOCFRAME DOVERLAY, 0, STATIC
        ARGFRAME ISTACK, 0, STACK
        ARGFRAME PSTACK, 0, STACK
        ARGFRAME XSTACK, 15, STACK
        ARGFRAME IOVERLAY, 0, STATIC
        ARGFRAME DOVERLAY, 0, STATIC
        MOV     A,#-0xe
        LCALL   ?BANKED_ENTER_XDATA
        CFI DPH0 load(1, XDATA, add(CFA_XSP16, literal(-1)))
        CFI DPL0 load(1, XDATA, add(CFA_XSP16, literal(-2)))
        CFI ?BRET_EXT load(1, XDATA, add(CFA_XSP16, literal(-3)))
        CFI ?RET_HIGH load(1, XDATA, add(CFA_XSP16, literal(-4)))
        CFI ?RET_LOW load(1, XDATA, add(CFA_XSP16, literal(-5)))
        CFI R7 load(1, XDATA, add(CFA_XSP16, literal(-6)))
        CFI V5 load(1, XDATA, add(CFA_XSP16, literal(-7)))
        CFI V4 load(1, XDATA, add(CFA_XSP16, literal(-8)))
        CFI V3 load(1, XDATA, add(CFA_XSP16, literal(-9)))
        CFI V2 load(1, XDATA, add(CFA_XSP16, literal(-10)))
        CFI V1 load(1, XDATA, add(CFA_XSP16, literal(-11)))
        CFI V0 load(1, XDATA, add(CFA_XSP16, literal(-12)))
        CFI VB load(1, XDATA, add(CFA_XSP16, literal(-13)))
        CFI R6 load(1, XDATA, add(CFA_XSP16, literal(-14)))
        CFI CFA_SP SP+0
        CFI CFA_XSP16 add(XSP16, 14)
        ; Saved register size: 14
        ; Auto size: 1
        MOV     A,#-0x1
        LCALL   ?ALLOC_XSTACK8
        CFI CFA_XSP16 add(XSP16, 15)
        MOV     ?V0 + 2,R1
        MOV     ?V0 + 0,R2
        MOV     ?V0 + 1,R3
//  152   (void)task_id; // Intentionally unreferenced parameter
//  153   
//  154   if ( events & SYS_EVENT_MSG )
        MOV     A,?V0 + 0
        ANL     A,#0x0
        MOV     R0,A
        MOV     A,?V0 + 1
        ANL     A,#0x80
        MOV     R1,A
        MOV     A,R0
        ORL     A,R1
        JZ      ??StubAPS_ProcessEvent_0
//  155   {
//  156     osal_event_hdr_t *msg_ptr;
//  157 
//  158     while ( (msg_ptr = (osal_event_hdr_t *)osal_msg_receive( StubAPS_TaskID )) != NULL )
??StubAPS_ProcessEvent_1:
        ; Setup parameters for call to function osal_msg_receive
        MOV     DPTR,#StubAPS_TaskID
        MOVX    A,@DPTR
        MOV     R1,A
        LCALL   ??osal_msg_receive?relay
        MOV     ?V0 + 4,R2
        MOV     ?V0 + 5,R3
        MOV     R0,?V0 + 4
        MOV     R1,?V0 + 5
        MOV     A,R0
        MOV     R6,A
        MOV     A,R1
        MOV     R7,A
        MOV     A,R0
        ORL     A,R1
        JZ      ??StubAPS_ProcessEvent_2
//  159     {
//  160       if ( msg_ptr->event == MAC_MCPS_DATA_CNF )
        MOV     DPL,R6
        MOV     DPH,R7
        MOVX    A,@DPTR
        XRL     A,#0xc
        JNZ     ??StubAPS_ProcessEvent_3
//  161       {
//  162         INTERP_DataConfirm( (ZMacDataCnf_t *)msg_ptr );
        ; Setup parameters for call to function INTERP_DataConfirm
        MOV     A,R6
        MOV     R2,A
        MOV     A,R7
        MOV     R3,A
        LCALL   ??INTERP_DataConfirm?relay
        SJMP    ??StubAPS_ProcessEvent_4
//  163       }
//  164       else if ( msg_ptr->event == MAC_MCPS_DATA_IND )
??StubAPS_ProcessEvent_3:
        MOV     DPL,R6
        MOV     DPH,R7
        MOVX    A,@DPTR
        XRL     A,#0xd
        JNZ     ??StubAPS_ProcessEvent_4
//  165       {
//  166         INTERP_DataIndication( (macMcpsDataInd_t *)msg_ptr );
        ; Setup parameters for call to function INTERP_DataIndication
        MOV     A,R6
        MOV     R2,A
        MOV     A,R7
        MOV     R3,A
        LCALL   ??INTERP_DataIndication?relay
//  167       }
//  168       
//  169       osal_msg_deallocate( (uint8 *)msg_ptr );
??StubAPS_ProcessEvent_4:
        ; Setup parameters for call to function osal_msg_deallocate
        MOV     A,R6
        MOV     R2,A
        MOV     A,R7
        MOV     R3,A
        LCALL   ??osal_msg_deallocate?relay
        MOV     A,R1
        SJMP    ??StubAPS_ProcessEvent_1
//  170     }
//  171     
//  172     // Return unproccessed events
//  173     return ( events ^ SYS_EVENT_MSG );
??StubAPS_ProcessEvent_2:
        MOV     A,?V0 + 0
        XRL     A,#0x0
        MOV     R2,A
        MOV     A,?V0 + 1
        XRL     A,#0x80
        MOV     R3,A
        SJMP    ??StubAPS_ProcessEvent_5
//  174   }
//  175 
//  176   if ( events & CHANNEL_CHANGE_EVT )
??StubAPS_ProcessEvent_0:
        MOV     A,?V0 + 0
        MOV     C,0xE0 /* A   */.0
        JNC     ??StubAPS_ProcessEvent_6
//  177   {
//  178     // try to change to the new channel
//  179     ZStatus_t status = StubAPS_SetNewChannel( newChannel );
        ; Setup parameters for call to function StubAPS_SetNewChannel
        MOV     DPTR,#newChannel
        MOVX    A,@DPTR
        MOV     R1,A
        LCALL   ??StubAPS_SetNewChannel?relay
        MOV     A,R1
        MOV     R6,A
//  180     if ( status != ZSuccess )
        MOV     A,R6
        JZ      ??StubAPS_ProcessEvent_7
//  181     {
//  182       // turn MAC receiver back on
//  183       uint8 rxOnIdle = true;
        MOV     DPL,?XSP + 0
        MOV     DPH,?XSP + 1
        MOV     A,#0x1
        MOVX    @DPTR,A
//  184       ZMacSetReq( ZMacRxOnIdle, &rxOnIdle );
        ; Setup parameters for call to function ZMacSetReq
        MOV     DPL,?XSP + 0
        MOV     DPH,?XSP + 1
        MOV     R2,DPL
        MOV     R3,DPH
        MOV     R1,#0x52
        LCALL   ??ZMacSetReq?relay
        MOV     A,R1
//  185    
//  186       // set NWK task to run
//  187       nwk_setStateIdle( FALSE );
        ; Setup parameters for call to function nwk_setStateIdle
        MOV     R1,#0x0
        LCALL   ??nwk_setStateIdle?relay
//  188       
//  189       channelChangeInProgress = FALSE;
        MOV     DPTR,#channelChangeInProgress
        MOV     A,#0x0
        MOVX    @DPTR,A
//  190     }
//  191     
//  192     // notify the application
//  193     StubAPS_NotifyApp( status );
??StubAPS_ProcessEvent_7:
        ; Setup parameters for call to function StubAPS_NotifyApp
        MOV     A,R6
        MOV     R1,A
        LCALL   ??StubAPS_NotifyApp?relay
//  194     
//  195     return ( events ^ CHANNEL_CHANGE_EVT );
        MOV     A,?V0 + 0
        XRL     A,#0x1
        MOV     R2,A
        MOV     A,?V0 + 1
        XRL     A,#0x0
        MOV     R3,A
        SJMP    ??StubAPS_ProcessEvent_5
//  196   }
//  197   
//  198   // If reach here, the events are unknown
//  199   // Discard or make more handlers
//  200   return 0;
??StubAPS_ProcessEvent_6:
        MOV     R2,#0x0
        MOV     R3,#0x0
??StubAPS_ProcessEvent_5:
        MOV     A,#0x1
        LCALL   ?DEALLOC_XSTACK8
        CFI CFA_XSP16 add(XSP16, 14)
        MOV     R7,#0x6
        LJMP    ?BANKED_LEAVE_XDATA
        CFI EndBlock cfiBlock1
//  201 
//  202 } /* StubAPS_ProcessEvent() */
//  203 
//  204 
//  205 /*********************************************************************
//  206  * @fn          StubNWK_ParseMsg
//  207  *
//  208  * @brief       Call this function to parse an incoming Stub NWK frame.
//  209  *
//  210  * @param       buf - pointer incoming message buffer
//  211  * @param       bufLength - length of incoming message
//  212  * @param       snff  - pointer Frame Format Parameters
//  213  *
//  214  * @return      pointer to network packet, NULL if error
//  215  */

        RSEG BANKED_CODE:CODE:NOROOT(0)
//  216 static void StubNWK_ParseMsg( uint8 *buf, uint8 bufLength, NLDE_FrameFormat_t *snff )
StubNWK_ParseMsg:
        CFI Block cfiBlock2 Using cfiCommon0
        CFI Function StubNWK_ParseMsg
        CODE
//  217 {
        FUNCALL StubNWK_ParseMsg, osal_memset
        LOCFRAME ISTACK, 0, STACK
        LOCFRAME PSTACK, 0, STACK
        LOCFRAME XSTACK, 13, STACK
        LOCFRAME IOVERLAY, 0, STATIC
        LOCFRAME DOVERLAY, 0, STATIC
        ARGFRAME ISTACK, 0, STACK
        ARGFRAME PSTACK, 0, STACK
        ARGFRAME XSTACK, 13, STACK
        ARGFRAME IOVERLAY, 0, STATIC
        ARGFRAME DOVERLAY, 0, STATIC
        FUNCALL StubNWK_ParseMsg, NLDE_ParseFrameControl
        LOCFRAME ISTACK, 0, STACK
        LOCFRAME PSTACK, 0, STACK
        LOCFRAME XSTACK, 13, STACK
        LOCFRAME IOVERLAY, 0, STATIC
        LOCFRAME DOVERLAY, 0, STATIC
        ARGFRAME ISTACK, 0, STACK
        ARGFRAME PSTACK, 0, STACK
        ARGFRAME XSTACK, 13, STACK
        ARGFRAME IOVERLAY, 0, STATIC
        ARGFRAME DOVERLAY, 0, STATIC
        MOV     A,#-0xd
        LCALL   ?BANKED_ENTER_XDATA
        CFI DPH0 load(1, XDATA, add(CFA_XSP16, literal(-1)))
        CFI DPL0 load(1, XDATA, add(CFA_XSP16, literal(-2)))
        CFI ?BRET_EXT load(1, XDATA, add(CFA_XSP16, literal(-3)))
        CFI ?RET_HIGH load(1, XDATA, add(CFA_XSP16, literal(-4)))
        CFI ?RET_LOW load(1, XDATA, add(CFA_XSP16, literal(-5)))
        CFI R7 load(1, XDATA, add(CFA_XSP16, literal(-6)))
        CFI V4 load(1, XDATA, add(CFA_XSP16, literal(-7)))
        CFI V3 load(1, XDATA, add(CFA_XSP16, literal(-8)))
        CFI V2 load(1, XDATA, add(CFA_XSP16, literal(-9)))
        CFI V1 load(1, XDATA, add(CFA_XSP16, literal(-10)))
        CFI V0 load(1, XDATA, add(CFA_XSP16, literal(-11)))
        CFI VB load(1, XDATA, add(CFA_XSP16, literal(-12)))
        CFI R6 load(1, XDATA, add(CFA_XSP16, literal(-13)))
        CFI CFA_SP SP+0
        CFI CFA_XSP16 add(XSP16, 13)
        ; Saved register size: 13
        ; Auto size: 0
        MOV     ?V0 + 0,R2
        MOV     ?V0 + 1,R3
        MOV     ?V0 + 4,R1
        MOV     A,R4
        MOV     R6,A
        MOV     A,R5
        MOV     R7,A
//  218   uint16 fc;
//  219 
//  220   osal_memset( snff, 0, sizeof(NLDE_FrameFormat_t) );
        ; Setup parameters for call to function osal_memset
        MOV     R4,#0x1f
        MOV     R5,#0x0
        MOV     R1,#0x0
        MOV     A,R6
        MOV     R2,A
        MOV     A,R7
        MOV     R3,A
        LCALL   ??osal_memset?relay
//  221   
//  222   snff->bufLength = bufLength;
        MOV     A,?V0 + 4
        MOV     DPL,R6
        MOV     DPH,R7
        MOV     A,?V0 + 4
        MOVX    @DPTR,A
//  223 
//  224   // get the frame control
//  225   fc = BUILD_UINT16( buf[NWK_HDR_FRAME_CTRL_LSB], buf[NWK_HDR_FRAME_CTRL_MSB] );
        MOV     DPL,?V0 + 0
        MOV     DPH,?V0 + 1
        MOVX    A,@DPTR
        MOV     R2,A
        MOV     R3,#0x0
        MOV     DPL,?V0 + 0
        MOV     DPH,?V0 + 1
        INC     DPTR
        MOVX    A,@DPTR
        MOV     R0,A
        MOV     R1,#0x0
        CLR     A
        XCH     A,R0
        MOV     R1,A
        MOV     A,R2
        ADD     A,R0
        MOV     R0,A
        MOV     A,R3
        ADDC    A,R1
        MOV     R1,A
        MOV     ?V0 + 2,R0
        MOV     ?V0 + 3,R1
//  226   
//  227   // parse the frame control
//  228   NLDE_ParseFrameControl( fc, snff );
        ; Setup parameters for call to function NLDE_ParseFrameControl
        MOV     A,R6
        MOV     R4,A
        MOV     A,R7
        MOV     R5,A
        MOV     R2,?V0 + 2
        MOV     R3,?V0 + 3
        LCALL   ??NLDE_ParseFrameControl?relay
        MOV     A,R1
//  229   
//  230   snff->hdrLen = STUB_NWK_HDR_LEN;
        MOV     DPL,R6
        MOV     DPH,R7
        INC     DPTR
        MOV     A,#0x2
        MOVX    @DPTR,A
//  231   
//  232   // Stub NWK payload
//  233   snff->nsdu = buf + snff->hdrLen;
        MOV     DPL,R6
        MOV     DPH,R7
        INC     DPTR
        MOVX    A,@DPTR
        MOV     R0,A
        MOV     R1,#0x0
        MOV     A,?V0 + 0
        ADD     A,R0
        MOV     R0,A
        MOV     A,?V0 + 1
        ADDC    A,R1
        MOV     R1,A
        MOV     A,R6
        ADD     A,#0x1d
        MOV     DPL,A
        MOV     A,R7
        ADDC    A,#0x0
        MOV     DPH,A
        MOV     A,R0
        MOVX    @DPTR,A
        INC     DPTR
        MOV     A,R1
        MOVX    @DPTR,A
//  234   snff->nsduLength = snff->bufLength - snff->hdrLen;
        MOV     DPL,R6
        MOV     DPH,R7
        INC     DPTR
        MOVX    A,@DPTR
        MOV     R0,A
        MOV     DPL,R6
        MOV     DPH,R7
        MOVX    A,@DPTR
        CLR     C
        SUBB    A,R0
        PUSH    A
        CFI CFA_SP SP+-1
        MOV     A,R6
        ADD     A,#0x17
        MOV     DPL,A
        MOV     A,R7
        ADDC    A,#0x0
        MOV     DPH,A
        POP     A
        CFI CFA_SP SP+0
        MOVX    @DPTR,A
//  235 
//  236 } /* StubNWK_ParseMsg */
        MOV     R7,#0x5
        LJMP    ?BANKED_LEAVE_XDATA
        CFI EndBlock cfiBlock2
//  237 
//  238 /*********************************************************************
//  239  * @fn          StubAPS_ParseMsg
//  240  *
//  241  * @brief       Call this function to parse an incoming Stub APS frame.
//  242  *
//  243  * @param       naff  - pointer Stub NWK Frame Format Parameters
//  244  * @param       saff  - pointer Stub APS Format Parameters
//  245  *
//  246  * @return      none
//  247  */

        RSEG BANKED_CODE:CODE:NOROOT(0)
//  248 static void StubAPS_ParseMsg( NLDE_FrameFormat_t *snff, aps_FrameFormat_t *saff )
StubAPS_ParseMsg:
        CFI Block cfiBlock3 Using cfiCommon0
        CFI Function StubAPS_ParseMsg
        CODE
//  249 {
        FUNCALL StubAPS_ParseMsg, osal_memset
        LOCFRAME ISTACK, 0, STACK
        LOCFRAME PSTACK, 0, STACK
        LOCFRAME XSTACK, 13, STACK
        LOCFRAME IOVERLAY, 0, STATIC
        LOCFRAME DOVERLAY, 0, STATIC
        ARGFRAME ISTACK, 0, STACK
        ARGFRAME PSTACK, 0, STACK
        ARGFRAME XSTACK, 13, STACK
        ARGFRAME IOVERLAY, 0, STATIC
        ARGFRAME DOVERLAY, 0, STATIC
        MOV     A,#-0xd
        LCALL   ?BANKED_ENTER_XDATA
        CFI DPH0 load(1, XDATA, add(CFA_XSP16, literal(-1)))
        CFI DPL0 load(1, XDATA, add(CFA_XSP16, literal(-2)))
        CFI ?BRET_EXT load(1, XDATA, add(CFA_XSP16, literal(-3)))
        CFI ?RET_HIGH load(1, XDATA, add(CFA_XSP16, literal(-4)))
        CFI ?RET_LOW load(1, XDATA, add(CFA_XSP16, literal(-5)))
        CFI R7 load(1, XDATA, add(CFA_XSP16, literal(-6)))
        CFI V4 load(1, XDATA, add(CFA_XSP16, literal(-7)))
        CFI V3 load(1, XDATA, add(CFA_XSP16, literal(-8)))
        CFI V2 load(1, XDATA, add(CFA_XSP16, literal(-9)))
        CFI V1 load(1, XDATA, add(CFA_XSP16, literal(-10)))
        CFI V0 load(1, XDATA, add(CFA_XSP16, literal(-11)))
        CFI VB load(1, XDATA, add(CFA_XSP16, literal(-12)))
        CFI R6 load(1, XDATA, add(CFA_XSP16, literal(-13)))
        CFI CFA_SP SP+0
        CFI CFA_XSP16 add(XSP16, 13)
        ; Saved register size: 13
        ; Auto size: 0
        MOV     A,R2
        MOV     R6,A
        MOV     A,R3
        MOV     R7,A
        MOV     ?V0 + 2,R4
        MOV     ?V0 + 3,R5
//  250   uint8 fcb;
//  251   uint8 *asdu;
//  252   
//  253   osal_memset( saff, 0, sizeof(aps_FrameFormat_t) );
        ; Setup parameters for call to function osal_memset
        MOV     R4,#0x15
        MOV     R5,#0x0
        MOV     R1,#0x0
        MOV     R2,?V0 + 2
        MOV     R3,?V0 + 3
        LCALL   ??osal_memset?relay
//  254   
//  255   saff->asduLength = snff->nsduLength;
        MOV     A,R6
        ADD     A,#0x17
        MOV     DPL,A
        MOV     A,R7
        ADDC    A,#0x0
        MOV     DPH,A
        MOVX    A,@DPTR
        PUSH    A
        CFI CFA_SP SP+-1
        MOV     A,?V0 + 2
        ADD     A,#0x10
        MOV     DPL,A
        MOV     A,?V0 + 3
        ADDC    A,#0x0
        MOV     DPH,A
        POP     A
        CFI CFA_SP SP+0
        MOVX    @DPTR,A
//  256   asdu = snff->nsdu;
        MOV     A,R6
        ADD     A,#0x1d
        MOV     DPL,A
        MOV     A,R7
        ADDC    A,#0x0
        MOV     DPH,A
        MOVX    A,@DPTR
        MOV     R0,A
        INC     DPTR
        MOVX    A,@DPTR
        MOV     R1,A
        MOV     ?V0 + 0,R0
        MOV     ?V0 + 1,R1
//  257   saff->macDestAddr = snff->macDstAddr;
        MOV     A,R6
        ADD     A,#0xd
        MOV     DPL,A
        MOV     A,R7
        ADDC    A,#0x0
        MOV     DPH,A
        MOVX    A,@DPTR
        MOV     R0,A
        INC     DPTR
        MOVX    A,@DPTR
        MOV     R1,A
        MOV     DPL,?V0 + 2
        MOV     DPH,?V0 + 3
        INC     DPTR
        INC     DPTR
        INC     DPTR
        INC     DPTR
        INC     DPTR
        INC     DPTR
        INC     DPTR
        INC     DPTR
        INC     DPTR
        INC     DPTR
        MOV     A,R0
        MOVX    @DPTR,A
        INC     DPTR
        MOV     A,R1
        MOVX    @DPTR,A
//  258   
//  259   // First byte is Frame Control.
//  260   saff->FrmCtrl = *asdu++;
        MOV     DPL,?V0 + 0
        MOV     DPH,?V0 + 1
        MOVX    A,@DPTR
        MOV     DPL,?V0 + 2
        MOV     DPH,?V0 + 3
        MOVX    @DPTR,A
        MOV     DPL,?V0 + 0
        MOV     DPH,?V0 + 1
        INC     DPTR
        MOV     ?V0 + 0,DPL
        MOV     ?V0 + 1,DPH
//  261 
//  262   fcb = saff->FrmCtrl & APS_FRAME_TYPE_MASK;
        MOV     DPL,?V0 + 2
        MOV     DPH,?V0 + 3
        MOVX    A,@DPTR
        ANL     A,#0x3
        MOV     ?V0 + 4,A
//  263   if ( fcb == STUB_APS_FRAME )
        MOV     A,#0x3
        XRL     A,?V0 + 4
        JZ      $+5
        LJMP    ??StubAPS_ParseMsg_0 & 0xFFFF
//  264   {
//  265     fcb = saff->FrmCtrl & APS_DELIVERYMODE_MASK;
        MOV     DPL,?V0 + 2
        MOV     DPH,?V0 + 3
        MOVX    A,@DPTR
        ANL     A,#0xc
        MOV     ?V0 + 4,A
//  266     if ( fcb == APS_FC_DM_BROADCAST )
        MOV     A,#0x8
        XRL     A,?V0 + 4
        JNZ     ??StubAPS_ParseMsg_1
//  267       saff->wasBroadcast = true;
        MOV     A,?V0 + 2
        ADD     A,#0xc
        MOV     DPL,A
        MOV     A,?V0 + 3
        ADDC    A,#0x0
        MOV     DPH,A
        MOV     A,#0x1
        MOVX    @DPTR,A
        SJMP    ??StubAPS_ParseMsg_2
//  268     else
//  269       saff->wasBroadcast = false;
??StubAPS_ParseMsg_1:
        MOV     A,?V0 + 2
        ADD     A,#0xc
        MOV     DPL,A
        MOV     A,?V0 + 3
        ADDC    A,#0x0
        MOV     DPH,A
        MOV     A,#0x0
        MOVX    @DPTR,A
//  270     
//  271     if ( fcb == APS_FC_DM_GROUP )
??StubAPS_ParseMsg_2:
        MOV     A,#0xc
        XRL     A,?V0 + 4
        JNZ     ??StubAPS_ParseMsg_3
//  272     {
//  273       saff->GroupID = BUILD_UINT16( asdu[0], asdu[1] );
        MOV     DPL,?V0 + 0
        MOV     DPH,?V0 + 1
        MOVX    A,@DPTR
        MOV     R2,A
        MOV     R3,#0x0
        MOV     DPL,?V0 + 0
        MOV     DPH,?V0 + 1
        INC     DPTR
        MOVX    A,@DPTR
        MOV     R0,A
        MOV     R1,#0x0
        CLR     A
        XCH     A,R0
        MOV     R1,A
        MOV     A,R2
        ADD     A,R0
        MOV     R0,A
        MOV     A,R3
        ADDC    A,R1
        MOV     R1,A
        MOV     DPL,?V0 + 2
        MOV     DPH,?V0 + 3
        INC     DPTR
        INC     DPTR
        INC     DPTR
        INC     DPTR
        MOV     A,R0
        MOVX    @DPTR,A
        INC     DPTR
        MOV     A,R1
        MOVX    @DPTR,A
//  274       asdu += sizeof( uint16 );
        MOV     A,?V0 + 0
        ADD     A,#0x2
        MOV     ?V0 + 0,A
        MOV     A,?V0 + 1
        ADDC    A,#0x0
        MOV     ?V0 + 1,A
//  275     }
//  276     
//  277     // Pull out the Cluster ID
//  278     saff->ClusterID = BUILD_UINT16( asdu[0], asdu[1] );
??StubAPS_ParseMsg_3:
        MOV     DPL,?V0 + 0
        MOV     DPH,?V0 + 1
        MOVX    A,@DPTR
        MOV     R2,A
        MOV     R3,#0x0
        MOV     DPL,?V0 + 0
        MOV     DPH,?V0 + 1
        INC     DPTR
        MOVX    A,@DPTR
        MOV     R0,A
        MOV     R1,#0x0
        CLR     A
        XCH     A,R0
        MOV     R1,A
        MOV     A,R2
        ADD     A,R0
        MOV     R0,A
        MOV     A,R3
        ADDC    A,R1
        MOV     R1,A
        MOV     DPL,?V0 + 2
        MOV     DPH,?V0 + 3
        INC     DPTR
        INC     DPTR
        INC     DPTR
        INC     DPTR
        INC     DPTR
        INC     DPTR
        MOV     A,R0
        MOVX    @DPTR,A
        INC     DPTR
        MOV     A,R1
        MOVX    @DPTR,A
//  279     asdu += sizeof( uint16 );
        MOV     A,?V0 + 0
        ADD     A,#0x2
        MOV     ?V0 + 0,A
        MOV     A,?V0 + 1
        ADDC    A,#0x0
        MOV     ?V0 + 1,A
//  280 
//  281     // Pull out the profile ID
//  282     saff->ProfileID = BUILD_UINT16( asdu[0], asdu[1] );
        MOV     DPL,?V0 + 0
        MOV     DPH,?V0 + 1
        MOVX    A,@DPTR
        MOV     R2,A
        MOV     R3,#0x0
        MOV     DPL,?V0 + 0
        MOV     DPH,?V0 + 1
        INC     DPTR
        MOVX    A,@DPTR
        MOV     R0,A
        MOV     R1,#0x0
        CLR     A
        XCH     A,R0
        MOV     R1,A
        MOV     A,R2
        ADD     A,R0
        MOV     R0,A
        MOV     A,R3
        ADDC    A,R1
        MOV     R1,A
        MOV     DPL,?V0 + 2
        MOV     DPH,?V0 + 3
        INC     DPTR
        INC     DPTR
        INC     DPTR
        INC     DPTR
        INC     DPTR
        INC     DPTR
        INC     DPTR
        INC     DPTR
        MOV     A,R0
        MOVX    @DPTR,A
        INC     DPTR
        MOV     A,R1
        MOVX    @DPTR,A
//  283     asdu += 2;
        MOV     A,?V0 + 0
        ADD     A,#0x2
        MOV     ?V0 + 0,A
        MOV     A,?V0 + 1
        ADDC    A,#0x0
        MOV     ?V0 + 1,A
//  284   }
//  285   
//  286   saff->asdu = asdu;
??StubAPS_ParseMsg_0:
        MOV     A,?V0 + 2
        ADD     A,#0xe
        MOV     DPL,A
        MOV     A,?V0 + 3
        ADDC    A,#0x0
        MOV     DPH,A
        MOV     A,?V0 + 0
        MOVX    @DPTR,A
        INC     DPTR
        MOV     A,?V0 + 1
        MOVX    @DPTR,A
//  287   saff->asduLength -= (uint8) (asdu - snff->nsdu);
        MOV     A,R6
        ADD     A,#0x1d
        MOV     DPL,A
        MOV     A,R7
        ADDC    A,#0x0
        MOV     DPH,A
        MOVX    A,@DPTR
        MOV     R0,A
        INC     DPTR
        MOVX    A,@DPTR
        MOV     R1,A
        MOV     A,?V0 + 0
        CLR     C
        SUBB    A,R0
        MOV     R0,A
        MOV     A,?V0 + 2
        ADD     A,#0x10
        MOV     DPL,A
        MOV     A,?V0 + 3
        ADDC    A,#0x0
        MOV     DPH,A
        MOVX    A,@DPTR
        CLR     C
        SUBB    A,R0
        MOVX    @DPTR,A
//  288   saff->apsHdrLen = snff->nsduLength - saff->asduLength;
        MOV     A,?V0 + 2
        ADD     A,#0x10
        MOV     DPL,A
        MOV     A,?V0 + 3
        ADDC    A,#0x0
        MOV     DPH,A
        MOVX    A,@DPTR
        MOV     R0,A
        MOV     A,R6
        ADD     A,#0x17
        MOV     DPL,A
        MOV     A,R7
        ADDC    A,#0x0
        MOV     DPH,A
        MOVX    A,@DPTR
        CLR     C
        SUBB    A,R0
        PUSH    A
        CFI CFA_SP SP+-1
        MOV     A,?V0 + 2
        ADD     A,#0xd
        MOV     DPL,A
        MOV     A,?V0 + 3
        ADDC    A,#0x0
        MOV     DPH,A
        POP     A
        CFI CFA_SP SP+0
        MOVX    @DPTR,A
//  289   
//  290 } /* StubAPS_ParseMsg */
        MOV     R7,#0x5
        LJMP    ?BANKED_LEAVE_XDATA
        CFI EndBlock cfiBlock3
//  291 
//  292 /******************************************************************************
//  293  * @fn          StubAPS_BuildFrameControl
//  294  *
//  295  * @brief       This function builds Stub APS Frame Control and the destination
//  296  *              address parameter for the MCPS-DATA Request.
//  297  *
//  298  * @param       frmCtrl - frame control
//  299  * @param       dstAddr - destination address for MCPS-DATA Request
//  300  * @param       groupID - group id
//  301  * @param       req - APSDE_DataReq_t
//  302  *
//  303  * @return      ZStatus_t
//  304  */

        RSEG BANKED_CODE:CODE:NOROOT(0)
//  305 static ZStatus_t StubAPS_BuildFrameControl( uint8 *frmCtrl, zAddrType_t *dstAddr, 
StubAPS_BuildFrameControl:
        CFI Block cfiBlock4 Using cfiCommon0
        CFI Function StubAPS_BuildFrameControl
        CODE
//  306                                             uint16 *groupID, APSDE_DataReq_t *req )
//  307 { 
        FUNCALL StubAPS_BuildFrameControl, sAddrExtCpy
        LOCFRAME ISTACK, 0, STACK
        LOCFRAME PSTACK, 0, STACK
        LOCFRAME XSTACK, 14, STACK
        LOCFRAME IOVERLAY, 0, STATIC
        LOCFRAME DOVERLAY, 0, STATIC
        ARGFRAME ISTACK, 0, STACK
        ARGFRAME PSTACK, 0, STACK
        ARGFRAME XSTACK, 14, STACK
        ARGFRAME IOVERLAY, 0, STATIC
        ARGFRAME DOVERLAY, 0, STATIC
        MOV     A,#-0xe
        LCALL   ?BANKED_ENTER_XDATA
        CFI DPH0 load(1, XDATA, add(CFA_XSP16, literal(-1)))
        CFI DPL0 load(1, XDATA, add(CFA_XSP16, literal(-2)))
        CFI ?BRET_EXT load(1, XDATA, add(CFA_XSP16, literal(-3)))
        CFI ?RET_HIGH load(1, XDATA, add(CFA_XSP16, literal(-4)))
        CFI ?RET_LOW load(1, XDATA, add(CFA_XSP16, literal(-5)))
        CFI R7 load(1, XDATA, add(CFA_XSP16, literal(-6)))
        CFI V5 load(1, XDATA, add(CFA_XSP16, literal(-7)))
        CFI V4 load(1, XDATA, add(CFA_XSP16, literal(-8)))
        CFI V3 load(1, XDATA, add(CFA_XSP16, literal(-9)))
        CFI V2 load(1, XDATA, add(CFA_XSP16, literal(-10)))
        CFI V1 load(1, XDATA, add(CFA_XSP16, literal(-11)))
        CFI V0 load(1, XDATA, add(CFA_XSP16, literal(-12)))
        CFI VB load(1, XDATA, add(CFA_XSP16, literal(-13)))
        CFI R6 load(1, XDATA, add(CFA_XSP16, literal(-14)))
        CFI CFA_SP SP+0
        CFI CFA_XSP16 add(XSP16, 14)
        ; Saved register size: 14
        ; Auto size: 0
        MOV     ?V0 + 2,R2
        MOV     ?V0 + 3,R3
        MOV     A,R4
        MOV     R6,A
        MOV     A,R5
        MOV     R7,A
        MOV     A,#0xe
        LCALL   ?XSTACK_DISP0_8
        MOVX    A,@DPTR
        MOV     ?V0 + 4,A
        INC     DPTR
        MOVX    A,@DPTR
        MOV     ?V0 + 5,A
        MOV     A,#0x10
        LCALL   ?XSTACK_DISP0_8
        MOVX    A,@DPTR
        MOV     ?V0 + 0,A
        INC     DPTR
        MOVX    A,@DPTR
        MOV     ?V0 + 1,A
//  308   // Security
//  309   if ( req->txOptions & APS_TX_OPTIONS_SECURITY_ENABLE )
        MOV     A,?V0 + 0
        ADD     A,#0x15
        MOV     DPL,A
        MOV     A,?V0 + 1
        ADDC    A,#0x0
        MOV     DPH,A
        MOVX    A,@DPTR
        MOV     R0,A
        INC     DPTR
        MOVX    A,@DPTR
        MOV     R1,A
        MOV     A,R0
        MOV     C,0xE0 /* A   */.0
        JNC     ??StubAPS_BuildFrameControl_0
//  310     return ( ZApsNotSupported );
        MOV     R1,#-0x4a
        LJMP    ??StubAPS_BuildFrameControl_1 & 0xFFFF
//  311     
//  312   // Ack request
//  313   if ( req->txOptions & APS_TX_OPTIONS_ACK )
??StubAPS_BuildFrameControl_0:
        MOV     A,?V0 + 0
        ADD     A,#0x15
        MOV     DPL,A
        MOV     A,?V0 + 1
        ADDC    A,#0x0
        MOV     DPH,A
        MOVX    A,@DPTR
        MOV     R0,A
        INC     DPTR
        MOVX    A,@DPTR
        MOV     R1,A
        MOV     A,R0
        ANL     A,#0x4
        JZ      ??StubAPS_BuildFrameControl_2
//  314     return ( ZApsNotSupported );
        MOV     R1,#-0x4a
        LJMP    ??StubAPS_BuildFrameControl_1 & 0xFFFF
//  315   
//  316    // Fragmentation
//  317   if ( req->txOptions & APS_TX_OPTIONS_PERMIT_FRAGMENT )
??StubAPS_BuildFrameControl_2:
        MOV     A,?V0 + 0
        ADD     A,#0x15
        MOV     DPL,A
        MOV     A,?V0 + 1
        ADDC    A,#0x0
        MOV     DPH,A
        MOVX    A,@DPTR
        MOV     R0,A
        INC     DPTR
        MOVX    A,@DPTR
        MOV     R1,A
        MOV     A,R0
        ANL     A,#0x8
        JZ      ??StubAPS_BuildFrameControl_3
//  318     return ( ZApsNotSupported );
        MOV     R1,#-0x4a
        LJMP    ??StubAPS_BuildFrameControl_1 & 0xFFFF
//  319   
//  320   // set delivery mode
//  321   if ( req->dstAddr.addrMode == AddrNotPresent )
??StubAPS_BuildFrameControl_3:
        MOV     DPL,?V0 + 0
        MOV     DPH,?V0 + 1
        INC     DPTR
        INC     DPTR
        INC     DPTR
        INC     DPTR
        INC     DPTR
        INC     DPTR
        INC     DPTR
        INC     DPTR
        MOVX    A,@DPTR
        JNZ     ??StubAPS_BuildFrameControl_4
//  322     return ( ZApsNotSupported ); // No REFLECTOR
        MOV     R1,#-0x4a
        LJMP    ??StubAPS_BuildFrameControl_1 & 0xFFFF
//  323 
//  324   // set frame type
//  325   *frmCtrl = STUB_APS_FRAME;
??StubAPS_BuildFrameControl_4:
        MOV     DPL,?V0 + 2
        MOV     DPH,?V0 + 3
        MOV     A,#0x3
        MOVX    @DPTR,A
//  326   
//  327   // set DstAddrMode of MCPS-DATA Request to DstAddrMode of INTERP-Data Request
//  328   dstAddr->addrMode = req->dstAddr.addrMode;
        MOV     DPL,?V0 + 0
        MOV     DPH,?V0 + 1
        INC     DPTR
        INC     DPTR
        INC     DPTR
        INC     DPTR
        INC     DPTR
        INC     DPTR
        INC     DPTR
        INC     DPTR
        MOVX    A,@DPTR
        MOV     DPL,R6
        MOV     DPH,R7
        INC     DPTR
        INC     DPTR
        INC     DPTR
        INC     DPTR
        INC     DPTR
        INC     DPTR
        INC     DPTR
        INC     DPTR
        MOVX    @DPTR,A
//  329 
//  330   // set DstAddr of MCPS-DATA Request to DstAddr of INTERP-Data Request
//  331   if ( req->dstAddr.addrMode == AddrBroadcast )
        MOV     DPL,?V0 + 0
        MOV     DPH,?V0 + 1
        INC     DPTR
        INC     DPTR
        INC     DPTR
        INC     DPTR
        INC     DPTR
        INC     DPTR
        INC     DPTR
        INC     DPTR
        MOVX    A,@DPTR
        XRL     A,#0xf
        JNZ     ??StubAPS_BuildFrameControl_5
//  332   {
//  333     *frmCtrl |= APS_FC_DM_BROADCAST;
        MOV     DPL,?V0 + 2
        MOV     DPH,?V0 + 3
        MOVX    A,@DPTR
        SETB    0xE0 /* A   */.3
        MOVX    @DPTR,A
//  334     
//  335     // set DstAddrMode of MCPS-DATA Request to short address
//  336     dstAddr->addrMode = Addr16Bit;
        MOV     DPL,R6
        MOV     DPH,R7
        INC     DPTR
        INC     DPTR
        INC     DPTR
        INC     DPTR
        INC     DPTR
        INC     DPTR
        INC     DPTR
        INC     DPTR
        MOV     A,#0x2
        MOVX    @DPTR,A
//  337     dstAddr->addr.shortAddr = req->dstAddr.addr.shortAddr;
        MOV     DPL,?V0 + 0
        MOV     DPH,?V0 + 1
        MOVX    A,@DPTR
        MOV     R0,A
        INC     DPTR
        MOVX    A,@DPTR
        MOV     R1,A
        MOV     DPL,R6
        MOV     DPH,R7
        MOV     A,R0
        MOVX    @DPTR,A
        INC     DPTR
        MOV     A,R1
        MOVX    @DPTR,A
        LJMP    ??StubAPS_BuildFrameControl_6 & 0xFFFF
//  338   }
//  339   else if ( req->dstAddr.addrMode == Addr16Bit )
??StubAPS_BuildFrameControl_5:
        MOV     DPL,?V0 + 0
        MOV     DPH,?V0 + 1
        INC     DPTR
        INC     DPTR
        INC     DPTR
        INC     DPTR
        INC     DPTR
        INC     DPTR
        INC     DPTR
        INC     DPTR
        MOVX    A,@DPTR
        XRL     A,#0x2
        JNZ     ??StubAPS_BuildFrameControl_7
//  340   {
//  341     *frmCtrl |= APS_FC_DM_UNICAST;
        MOV     DPL,?V0 + 2
        MOV     DPH,?V0 + 3
        MOVX    A,@DPTR
        MOV     DPL,?V0 + 2
        MOV     DPH,?V0 + 3
        MOVX    @DPTR,A
//  342     dstAddr->addr.shortAddr = req->dstAddr.addr.shortAddr;
        MOV     DPL,?V0 + 0
        MOV     DPH,?V0 + 1
        MOVX    A,@DPTR
        MOV     R0,A
        INC     DPTR
        MOVX    A,@DPTR
        MOV     R1,A
        MOV     DPL,R6
        MOV     DPH,R7
        MOV     A,R0
        MOVX    @DPTR,A
        INC     DPTR
        MOV     A,R1
        MOVX    @DPTR,A
        SJMP    ??StubAPS_BuildFrameControl_6
//  343   }
//  344   else if ( req->dstAddr.addrMode == Addr64Bit )
??StubAPS_BuildFrameControl_7:
        MOV     DPL,?V0 + 0
        MOV     DPH,?V0 + 1
        INC     DPTR
        INC     DPTR
        INC     DPTR
        INC     DPTR
        INC     DPTR
        INC     DPTR
        INC     DPTR
        INC     DPTR
        MOVX    A,@DPTR
        XRL     A,#0x3
        JNZ     ??StubAPS_BuildFrameControl_8
//  345   {
//  346     *frmCtrl |= APS_FC_DM_UNICAST;
        MOV     DPL,?V0 + 2
        MOV     DPH,?V0 + 3
        MOVX    A,@DPTR
        MOV     DPL,?V0 + 2
        MOV     DPH,?V0 + 3
        MOVX    @DPTR,A
//  347     osal_cpyExtAddr( dstAddr->addr.extAddr, req->dstAddr.addr.extAddr );
        ; Setup parameters for call to function sAddrExtCpy
        MOV     R4,?V0 + 0
        MOV     R5,?V0 + 1
        MOV     A,R6
        MOV     R2,A
        MOV     A,R7
        MOV     R3,A
        LCALL   ??sAddrExtCpy?relay
        SJMP    ??StubAPS_BuildFrameControl_6
//  348   }
//  349   else if ( req->dstAddr.addrMode == AddrGroup )
??StubAPS_BuildFrameControl_8:
        MOV     DPL,?V0 + 0
        MOV     DPH,?V0 + 1
        INC     DPTR
        INC     DPTR
        INC     DPTR
        INC     DPTR
        INC     DPTR
        INC     DPTR
        INC     DPTR
        INC     DPTR
        MOVX    A,@DPTR
        XRL     A,#0x1
        JNZ     ??StubAPS_BuildFrameControl_6
//  350   {
//  351     *frmCtrl |= APS_FC_DM_GROUP;
        MOV     DPL,?V0 + 2
        MOV     DPH,?V0 + 3
        MOVX    A,@DPTR
        ORL     A,#0xc
        MOVX    @DPTR,A
//  352     
//  353     // set DstAddrMode of MCPS-DATA Request to short address
//  354     dstAddr->addrMode = Addr16Bit;
        MOV     DPL,R6
        MOV     DPH,R7
        INC     DPTR
        INC     DPTR
        INC     DPTR
        INC     DPTR
        INC     DPTR
        INC     DPTR
        INC     DPTR
        INC     DPTR
        MOV     A,#0x2
        MOVX    @DPTR,A
//  355     
//  356     // set DstAddr of MCPS-DATA Request to 0xFFFF
//  357     dstAddr->addr.shortAddr = NWK_BROADCAST_SHORTADDR_DEVALL;
        MOV     DPL,R6
        MOV     DPH,R7
        MOV     A,#-0x1
        MOVX    @DPTR,A
        INC     DPTR
        MOV     A,#-0x1
        MOVX    @DPTR,A
//  358     
//  359     // set Group ID to DstAddr of INTERP-Data Request
//  360     *groupID = req->dstAddr.addr.shortAddr;
        MOV     DPL,?V0 + 0
        MOV     DPH,?V0 + 1
        MOVX    A,@DPTR
        MOV     R0,A
        INC     DPTR
        MOVX    A,@DPTR
        MOV     R1,A
        MOV     DPL,?V0 + 4
        MOV     DPH,?V0 + 5
        MOV     A,R0
        MOVX    @DPTR,A
        INC     DPTR
        MOV     A,R1
        MOVX    @DPTR,A
//  361   }
//  362   
//  363   return ( ZSuccess );
??StubAPS_BuildFrameControl_6:
        MOV     R1,#0x0
??StubAPS_BuildFrameControl_1:
        MOV     R7,#0x6
        LJMP    ?BANKED_LEAVE_XDATA
        CFI EndBlock cfiBlock4
//  364   
//  365 } /* StubAPS_BuildFrameControl */
//  366 
//  367 /******************************************************************************
//  368  * @fn          StubNWK_BuildMsg
//  369  *
//  370  * @brief       This function builds a Stub NWK frame.
//  371  *
//  372  * @param       nwkHdr - stub NWK header
//  373  *
//  374  * @return      none
//  375  */

        RSEG BANKED_CODE:CODE:NOROOT(0)
//  376 static void StubNWK_BuildMsg( uint8 *nwkHdr )
StubNWK_BuildMsg:
        CFI Block cfiBlock5 Using cfiCommon0
        CFI Function StubNWK_BuildMsg
        CODE
//  377 {
        FUNCALL StubNWK_BuildMsg, NLME_GetProtocolVersion
        LOCFRAME ISTACK, 0, STACK
        LOCFRAME PSTACK, 0, STACK
        LOCFRAME XSTACK, 12, STACK
        LOCFRAME IOVERLAY, 0, STATIC
        LOCFRAME DOVERLAY, 0, STATIC
        ARGFRAME ISTACK, 0, STACK
        ARGFRAME PSTACK, 0, STACK
        ARGFRAME XSTACK, 12, STACK
        ARGFRAME IOVERLAY, 0, STATIC
        ARGFRAME DOVERLAY, 0, STATIC
        MOV     A,#-0xc
        LCALL   ?BANKED_ENTER_XDATA
        CFI DPH0 load(1, XDATA, add(CFA_XSP16, literal(-1)))
        CFI DPL0 load(1, XDATA, add(CFA_XSP16, literal(-2)))
        CFI ?BRET_EXT load(1, XDATA, add(CFA_XSP16, literal(-3)))
        CFI ?RET_HIGH load(1, XDATA, add(CFA_XSP16, literal(-4)))
        CFI ?RET_LOW load(1, XDATA, add(CFA_XSP16, literal(-5)))
        CFI R7 load(1, XDATA, add(CFA_XSP16, literal(-6)))
        CFI V3 load(1, XDATA, add(CFA_XSP16, literal(-7)))
        CFI V2 load(1, XDATA, add(CFA_XSP16, literal(-8)))
        CFI V1 load(1, XDATA, add(CFA_XSP16, literal(-9)))
        CFI V0 load(1, XDATA, add(CFA_XSP16, literal(-10)))
        CFI VB load(1, XDATA, add(CFA_XSP16, literal(-11)))
        CFI R6 load(1, XDATA, add(CFA_XSP16, literal(-12)))
        CFI CFA_SP SP+0
        CFI CFA_XSP16 add(XSP16, 12)
        ; Saved register size: 12
        ; Auto size: 0
        MOV     A,R2
        MOV     R6,A
        MOV     A,R3
        MOV     R7,A
//  378   uint16 frmCtrl = 0;
        MOV     ?V0 + 0,#0x0
        MOV     ?V0 + 1,#0x0
//  379   uint8  protoVer = NLME_GetProtocolVersion();
        ; Setup parameters for call to function NLME_GetProtocolVersion
        LCALL   ??NLME_GetProtocolVersion?relay
        MOV     A,R1
        MOV     R2,A
//  380 
//  381   // frame type
//  382   frmCtrl |= (STUB_NWK_FRAME_TYPE << NWK_FC_FRAME_TYPE);
        MOV     A,#0x3
        ORL     A,?V0 + 0
        MOV     ?V0 + 0,A
        MOV     A,#0x0
        ORL     A,?V0 + 1
        MOV     ?V0 + 1,A
//  383 
//  384   // protocol version
//  385   frmCtrl |= (protoVer << NWK_FC_PROT_VERSION);
        MOV     ?V0 + 2,R2
        MOV     ?V0 + 3,#0x0
        MOV     A,#0x2
        MOV     R0,#?V0 + 2
        LCALL   ?S_SHL
        MOV     A,?V0 + 2
        ORL     A,?V0 + 0
        MOV     ?V0 + 0,A
        MOV     A,?V0 + 3
        ORL     A,?V0 + 1
        MOV     ?V0 + 1,A
//  386   
//  387   // set Stub NWK header
//  388   *nwkHdr++ = LO_UINT16( frmCtrl );
        MOV     A,?V0 + 0
        MOV     DPL,R6
        MOV     DPH,R7
        MOV     A,?V0 + 0
        MOVX    @DPTR,A
        MOV     DPL,R6
        MOV     DPH,R7
        INC     DPTR
        MOV     R6,DPL
        MOV     R7,DPH
//  389   *nwkHdr++ = HI_UINT16( frmCtrl );
        MOV     R0,?V0 + 0
        MOV     R1,?V0 + 1
        CLR     A
        MOV     A,?V0 + 1
        MOV     R0,?V0 + 1
        MOV     A,?V0 + 1
        MOV     DPL,R6
        MOV     DPH,R7
        MOV     A,?V0 + 1
        MOVX    @DPTR,A
        MOV     DPL,R6
        MOV     DPH,R7
        INC     DPTR
        MOV     R6,DPL
        MOV     R7,DPH
//  390   
//  391 } /* StubNWK_BuildMsg */
        MOV     R7,#0x4
        LJMP    ?BANKED_LEAVE_XDATA
        CFI EndBlock cfiBlock5
//  392 
//  393 /******************************************************************************
//  394  * @fn          StubAPS_BuildMsg
//  395  *
//  396  * @brief       This function builds a Stub APS frame.
//  397  *
//  398  * @param       apsHdr - stub APS header
//  399  * @param       frmCtrl - stub APS frame control
//  400  * @param       groupID - group id
//  401  * @param       req - APSDE_DataReq_t
//  402  *
//  403  * @return      none
//  404  */

        RSEG BANKED_CODE:CODE:NOROOT(0)
//  405 static void StubAPS_BuildMsg( uint8 *apsHdr, uint8 frmCtrl, uint16 groupID, APSDE_DataReq_t *req )
StubAPS_BuildMsg:
        CFI Block cfiBlock6 Using cfiCommon0
        CFI Function StubAPS_BuildMsg
        CODE
//  406 {
        FUNCALL StubAPS_BuildMsg, osal_memcpy
        LOCFRAME ISTACK, 0, STACK
        LOCFRAME PSTACK, 0, STACK
        LOCFRAME XSTACK, 19, STACK
        LOCFRAME IOVERLAY, 0, STATIC
        LOCFRAME DOVERLAY, 0, STATIC
        ARGFRAME ISTACK, 0, STACK
        ARGFRAME PSTACK, 0, STACK
        ARGFRAME XSTACK, 19, STACK
        ARGFRAME IOVERLAY, 0, STATIC
        ARGFRAME DOVERLAY, 0, STATIC
        MOV     A,#-0x10
        LCALL   ?BANKED_ENTER_XDATA
        CFI DPH0 load(1, XDATA, add(CFA_XSP16, literal(-1)))
        CFI DPL0 load(1, XDATA, add(CFA_XSP16, literal(-2)))
        CFI ?BRET_EXT load(1, XDATA, add(CFA_XSP16, literal(-3)))
        CFI ?RET_HIGH load(1, XDATA, add(CFA_XSP16, literal(-4)))
        CFI ?RET_LOW load(1, XDATA, add(CFA_XSP16, literal(-5)))
        CFI R7 load(1, XDATA, add(CFA_XSP16, literal(-6)))
        CFI V7 load(1, XDATA, add(CFA_XSP16, literal(-7)))
        CFI V6 load(1, XDATA, add(CFA_XSP16, literal(-8)))
        CFI V5 load(1, XDATA, add(CFA_XSP16, literal(-9)))
        CFI V4 load(1, XDATA, add(CFA_XSP16, literal(-10)))
        CFI V3 load(1, XDATA, add(CFA_XSP16, literal(-11)))
        CFI V2 load(1, XDATA, add(CFA_XSP16, literal(-12)))
        CFI V1 load(1, XDATA, add(CFA_XSP16, literal(-13)))
        CFI V0 load(1, XDATA, add(CFA_XSP16, literal(-14)))
        CFI VB load(1, XDATA, add(CFA_XSP16, literal(-15)))
        CFI R6 load(1, XDATA, add(CFA_XSP16, literal(-16)))
        CFI CFA_SP SP+0
        CFI CFA_XSP16 add(XSP16, 16)
        ; Saved register size: 16
        ; Auto size: 0
        MOV     A,R2
        MOV     R6,A
        MOV     A,R3
        MOV     R7,A
        MOV     ?V0 + 7,R1
        MOV     ?V0 + 2,R4
        MOV     ?V0 + 3,R5
        MOV     A,#0x10
        LCALL   ?XSTACK_DISP0_8
        MOVX    A,@DPTR
        MOV     ?V0 + 0,A
        INC     DPTR
        MOVX    A,@DPTR
        MOV     ?V0 + 1,A
//  407   // add frame type
//  408   *apsHdr++ = frmCtrl;
        MOV     A,?V0 + 7
        MOV     DPL,R6
        MOV     DPH,R7
        MOV     A,?V0 + 7
        MOVX    @DPTR,A
        MOV     DPL,R6
        MOV     DPH,R7
        INC     DPTR
        MOV     R6,DPL
        MOV     R7,DPH
//  409     
//  410   // add Group ID
//  411   if ( ( frmCtrl & APS_DELIVERYMODE_MASK ) == APS_FC_DM_GROUP )
        MOV     A,#0xc
        ANL     A,?V0 + 7
        XRL     A,#0xc
        JNZ     ??StubAPS_BuildMsg_0
//  412   {
//  413     *apsHdr++ = LO_UINT16( groupID );
        MOV     A,?V0 + 2
        MOV     DPL,R6
        MOV     DPH,R7
        MOV     A,?V0 + 2
        MOVX    @DPTR,A
        MOV     DPL,R6
        MOV     DPH,R7
        INC     DPTR
        MOV     R6,DPL
        MOV     R7,DPH
//  414     *apsHdr++ = HI_UINT16( groupID );
        MOV     R0,?V0 + 2
        MOV     R1,?V0 + 3
        CLR     A
        MOV     A,?V0 + 3
        MOV     R0,?V0 + 3
        MOV     A,?V0 + 3
        MOV     DPL,R6
        MOV     DPH,R7
        MOV     A,?V0 + 3
        MOVX    @DPTR,A
        MOV     DPL,R6
        MOV     DPH,R7
        INC     DPTR
        MOV     R6,DPL
        MOV     R7,DPH
//  415   }
//  416 
//  417   // add clusterID
//  418   *apsHdr++ = LO_UINT16( req->clusterID );
??StubAPS_BuildMsg_0:
        MOV     A,?V0 + 0
        ADD     A,#0xd
        MOV     DPL,A
        MOV     A,?V0 + 1
        ADDC    A,#0x0
        MOV     DPH,A
        MOVX    A,@DPTR
        MOV     R0,A
        INC     DPTR
        MOVX    A,@DPTR
        MOV     R1,A
        MOV     A,R0
        MOV     DPL,R6
        MOV     DPH,R7
        MOVX    @DPTR,A
        MOV     DPL,R6
        MOV     DPH,R7
        INC     DPTR
        MOV     R6,DPL
        MOV     R7,DPH
//  419   *apsHdr++ = HI_UINT16( req->clusterID );
        MOV     A,?V0 + 0
        ADD     A,#0xd
        MOV     DPL,A
        MOV     A,?V0 + 1
        ADDC    A,#0x0
        MOV     DPH,A
        MOVX    A,@DPTR
        MOV     R0,A
        INC     DPTR
        MOVX    A,@DPTR
        MOV     R1,A
        CLR     A
        MOV     A,R1
        MOV     R0,A
        MOV     DPL,R6
        MOV     DPH,R7
        MOVX    @DPTR,A
        MOV     DPL,R6
        MOV     DPH,R7
        INC     DPTR
        MOV     R6,DPL
        MOV     R7,DPH
//  420   
//  421   // add profile ID
//  422   *apsHdr++ = LO_UINT16( req->profileID );
        MOV     A,?V0 + 0
        ADD     A,#0xf
        MOV     DPL,A
        MOV     A,?V0 + 1
        ADDC    A,#0x0
        MOV     DPH,A
        MOVX    A,@DPTR
        MOV     R0,A
        INC     DPTR
        MOVX    A,@DPTR
        MOV     R1,A
        MOV     A,R0
        MOV     DPL,R6
        MOV     DPH,R7
        MOVX    @DPTR,A
        MOV     DPL,R6
        MOV     DPH,R7
        INC     DPTR
        MOV     R6,DPL
        MOV     R7,DPH
//  423   *apsHdr++ = HI_UINT16( req->profileID );
        MOV     A,?V0 + 0
        ADD     A,#0xf
        MOV     DPL,A
        MOV     A,?V0 + 1
        ADDC    A,#0x0
        MOV     DPH,A
        MOVX    A,@DPTR
        MOV     R0,A
        INC     DPTR
        MOVX    A,@DPTR
        MOV     R1,A
        CLR     A
        MOV     A,R1
        MOV     R0,A
        MOV     DPL,R6
        MOV     DPH,R7
        MOVX    @DPTR,A
        MOV     DPL,R6
        MOV     DPH,R7
        INC     DPTR
        MOV     R6,DPL
        MOV     R7,DPH
//  424     
//  425   // copy ASDU data into frame
//  426   osal_memcpy ( apsHdr, req->asdu, req->asduLen );
        ; Setup parameters for call to function osal_memcpy
        MOV     A,?V0 + 0
        ADD     A,#0x13
        MOV     DPL,A
        MOV     A,?V0 + 1
        ADDC    A,#0x0
        MOV     DPH,A
        MOVX    A,@DPTR
        MOV     ?V0 + 4,A
        INC     DPTR
        MOVX    A,@DPTR
        MOV     ?V0 + 5,A
        MOV     ?V0 + 6,#0x0
        MOV     R0,#?V0 + 4
        LCALL   ?PUSH_XSTACK_I_THREE
        CFI CFA_XSP16 add(XSP16, 19)
        MOV     A,?V0 + 0
        ADD     A,#0x11
        MOV     DPL,A
        MOV     A,?V0 + 1
        ADDC    A,#0x0
        MOV     DPH,A
        MOVX    A,@DPTR
        MOV     R4,A
        INC     DPTR
        MOVX    A,@DPTR
        MOV     R5,A
        MOV     A,R6
        MOV     R2,A
        MOV     A,R7
        MOV     R3,A
        LCALL   ??osal_memcpy?relay
        MOV     A,#0x3
        LCALL   ?DEALLOC_XSTACK8
        CFI CFA_XSP16 add(XSP16, 16)
//  427   
//  428 } /* StubAPS_BuildMsg */
        MOV     R7,#0x8
        LJMP    ?BANKED_LEAVE_XDATA
        CFI EndBlock cfiBlock6
//  429 
//  430 /******************************************************************************
//  431  * @fn          StubAPS_setNewChannel
//  432  *
//  433  * @brief       This function changes the device's channel.
//  434  *
//  435  * @param       none
//  436  *
//  437  * @return      ZStatus_t
//  438  */ 

        RSEG BANKED_CODE:CODE:NOROOT(0)
//  439 static ZStatus_t StubAPS_SetNewChannel( uint8 channel )
StubAPS_SetNewChannel:
        CFI Block cfiBlock7 Using cfiCommon0
        CFI Function StubAPS_SetNewChannel
        CODE
//  440 {
        FUNCALL StubAPS_SetNewChannel, nwkDB_CountTypes
        LOCFRAME ISTACK, 2, STACK
        LOCFRAME PSTACK, 0, STACK
        LOCFRAME XSTACK, 2, STACK
        LOCFRAME IOVERLAY, 0, STATIC
        LOCFRAME DOVERLAY, 0, STATIC
        ARGFRAME ISTACK, 2, STACK
        ARGFRAME PSTACK, 0, STACK
        ARGFRAME XSTACK, 2, STACK
        ARGFRAME IOVERLAY, 0, STATIC
        ARGFRAME DOVERLAY, 0, STATIC
        FUNCALL StubAPS_SetNewChannel, ZMacStateIdle
        LOCFRAME ISTACK, 2, STACK
        LOCFRAME PSTACK, 0, STACK
        LOCFRAME XSTACK, 2, STACK
        LOCFRAME IOVERLAY, 0, STATIC
        LOCFRAME DOVERLAY, 0, STATIC
        ARGFRAME ISTACK, 2, STACK
        ARGFRAME PSTACK, 0, STACK
        ARGFRAME XSTACK, 2, STACK
        ARGFRAME IOVERLAY, 0, STATIC
        ARGFRAME DOVERLAY, 0, STATIC
        FUNCALL StubAPS_SetNewChannel, ZMacSetReq
        LOCFRAME ISTACK, 2, STACK
        LOCFRAME PSTACK, 0, STACK
        LOCFRAME XSTACK, 2, STACK
        LOCFRAME IOVERLAY, 0, STATIC
        LOCFRAME DOVERLAY, 0, STATIC
        ARGFRAME ISTACK, 2, STACK
        ARGFRAME PSTACK, 0, STACK
        ARGFRAME XSTACK, 2, STACK
        ARGFRAME IOVERLAY, 0, STATIC
        ARGFRAME DOVERLAY, 0, STATIC
        FUNCALL StubAPS_SetNewChannel, ZMacSetReq
        LOCFRAME ISTACK, 2, STACK
        LOCFRAME PSTACK, 0, STACK
        LOCFRAME XSTACK, 2, STACK
        LOCFRAME IOVERLAY, 0, STATIC
        LOCFRAME DOVERLAY, 0, STATIC
        ARGFRAME ISTACK, 2, STACK
        ARGFRAME PSTACK, 0, STACK
        ARGFRAME XSTACK, 2, STACK
        ARGFRAME IOVERLAY, 0, STATIC
        ARGFRAME DOVERLAY, 0, STATIC
        PUSH    DPL
        CFI DPL0 Frame(CFA_SP, 4)
        CFI CFA_SP SP+-4
        PUSH    DPH
        CFI DPH0 Frame(CFA_SP, 5)
        CFI CFA_SP SP+-5
        ; Saved register size: 2
        ; Auto size: 2
        MOV     A,#-0x2
        LCALL   ?ALLOC_XSTACK8
        CFI CFA_XSP16 add(XSP16, 2)
        MOV     A,R1
        PUSH    A
        CFI CFA_SP SP+-6
        MOV     A,#0x1
        LCALL   ?XSTACK_DISP0_8
        POP     A
        CFI CFA_SP SP+-5
        MOVX    @DPTR,A
//  441   uint8 rxOnIdle;
//  442   
//  443   // make sure MAC has nothing to transmit
//  444   if ( ( nwkDB_CountTypes( NWK_DATABUF_SENT ) == 0 ) && ZMacStateIdle() )
        ; Setup parameters for call to function nwkDB_CountTypes
        MOV     R1,#0x2
        LCALL   ??nwkDB_CountTypes?relay
        MOV     A,R1
        JNZ     ??StubAPS_SetNewChannel_0
        ; Setup parameters for call to function ZMacStateIdle
        LCALL   ??ZMacStateIdle?relay
        MOV     A,R1
        JZ      ??StubAPS_SetNewChannel_0
//  445   {
//  446     // set the new channel
//  447     ZMacSetReq( ZMacChannel, &channel );
        ; Setup parameters for call to function ZMacSetReq
        MOV     A,#0x1
        LCALL   ?XSTACK_DISP0_8
        MOV     R2,DPL
        MOV     R3,DPH
        MOV     R1,#-0x1f
        LCALL   ??ZMacSetReq?relay
        MOV     A,R1
//  448 
//  449     // turn MAC receiver back on
//  450     rxOnIdle = true;
        MOV     DPL,?XSP + 0
        MOV     DPH,?XSP + 1
        MOV     A,#0x1
        MOVX    @DPTR,A
//  451     ZMacSetReq( ZMacRxOnIdle, &rxOnIdle );
        ; Setup parameters for call to function ZMacSetReq
        MOV     DPL,?XSP + 0
        MOV     DPH,?XSP + 1
        MOV     R2,DPL
        MOV     R3,DPH
        MOV     R1,#0x52
        LCALL   ??ZMacSetReq?relay
        MOV     A,R1
//  452   
//  453     channelChangeInProgress = FALSE;
        MOV     DPTR,#channelChangeInProgress
        MOV     A,#0x0
        MOVX    @DPTR,A
//  454     
//  455     return ( ZSuccess );
        MOV     R1,#0x0
        SJMP    ??StubAPS_SetNewChannel_1
//  456   }
//  457   
//  458   return ( ZFailure );
??StubAPS_SetNewChannel_0:
        MOV     R1,#0x1
??StubAPS_SetNewChannel_1:
        MOV     A,#0x2
        LCALL   ?DEALLOC_XSTACK8
        CFI CFA_XSP16 XSP16+0
        POP     DPH
        CFI DPH0 SameValue
        CFI CFA_SP SP+-4
        POP     DPL
        CFI DPL0 SameValue
        CFI CFA_SP SP+-3
        LJMP    ?BRET
        CFI EndBlock cfiBlock7
//  459   
//  460 } /* StubAPS_setNewChannel */
//  461 
//  462 
//  463 /******************************************************************************
//  464  * @fn          StubAPS_NotifyApp
//  465  *
//  466  * @brief       This function sends an OSAL message to the Application task.
//  467  *
//  468  * @param       status - command status
//  469  *
//  470  * @return      none
//  471  */

        RSEG BANKED_CODE:CODE:NOROOT(0)
//  472 static void StubAPS_NotifyApp( uint8 status )
StubAPS_NotifyApp:
        CFI Block cfiBlock8 Using cfiCommon0
        CFI Function StubAPS_NotifyApp
        CODE
//  473 {
        FUNCALL StubAPS_NotifyApp, osal_msg_allocate
        LOCFRAME ISTACK, 0, STACK
        LOCFRAME PSTACK, 0, STACK
        LOCFRAME XSTACK, 12, STACK
        LOCFRAME IOVERLAY, 0, STATIC
        LOCFRAME DOVERLAY, 0, STATIC
        ARGFRAME ISTACK, 0, STACK
        ARGFRAME PSTACK, 0, STACK
        ARGFRAME XSTACK, 12, STACK
        ARGFRAME IOVERLAY, 0, STATIC
        ARGFRAME DOVERLAY, 0, STATIC
        FUNCALL StubAPS_NotifyApp, osal_msg_send
        LOCFRAME ISTACK, 0, STACK
        LOCFRAME PSTACK, 0, STACK
        LOCFRAME XSTACK, 12, STACK
        LOCFRAME IOVERLAY, 0, STATIC
        LOCFRAME DOVERLAY, 0, STATIC
        ARGFRAME ISTACK, 0, STACK
        ARGFRAME PSTACK, 0, STACK
        ARGFRAME XSTACK, 12, STACK
        ARGFRAME IOVERLAY, 0, STATIC
        ARGFRAME DOVERLAY, 0, STATIC
        MOV     A,#-0xc
        LCALL   ?BANKED_ENTER_XDATA
        CFI DPH0 load(1, XDATA, add(CFA_XSP16, literal(-1)))
        CFI DPL0 load(1, XDATA, add(CFA_XSP16, literal(-2)))
        CFI ?BRET_EXT load(1, XDATA, add(CFA_XSP16, literal(-3)))
        CFI ?RET_HIGH load(1, XDATA, add(CFA_XSP16, literal(-4)))
        CFI ?RET_LOW load(1, XDATA, add(CFA_XSP16, literal(-5)))
        CFI R7 load(1, XDATA, add(CFA_XSP16, literal(-6)))
        CFI V3 load(1, XDATA, add(CFA_XSP16, literal(-7)))
        CFI V2 load(1, XDATA, add(CFA_XSP16, literal(-8)))
        CFI V1 load(1, XDATA, add(CFA_XSP16, literal(-9)))
        CFI V0 load(1, XDATA, add(CFA_XSP16, literal(-10)))
        CFI VB load(1, XDATA, add(CFA_XSP16, literal(-11)))
        CFI R6 load(1, XDATA, add(CFA_XSP16, literal(-12)))
        CFI CFA_SP SP+0
        CFI CFA_XSP16 add(XSP16, 12)
        ; Saved register size: 12
        ; Auto size: 0
        MOV     ?V0 + 0,R1
//  474   osal_event_hdr_t *msgPtr;
//  475   
//  476   // Notify the application task
//  477   msgPtr = (osal_event_hdr_t *)osal_msg_allocate( sizeof(osal_event_hdr_t) );
        ; Setup parameters for call to function osal_msg_allocate
        MOV     R2,#0x2
        MOV     R3,#0x0
        LCALL   ??osal_msg_allocate?relay
        MOV     ?V0 + 2,R2
        MOV     ?V0 + 3,R3
        MOV     R6,?V0 + 2
        MOV     R7,?V0 + 3
//  478   if ( msgPtr )
        MOV     A,R6
        ORL     A,R7
        JZ      ??StubAPS_NotifyApp_0
//  479   {
//  480     msgPtr->event = SAPS_CHANNEL_CHANGE;
        MOV     DPL,R6
        MOV     DPH,R7
        MOV     A,#0x33
        MOVX    @DPTR,A
//  481     msgPtr->status = status;
        MOV     A,?V0 + 0
        MOV     DPL,R6
        MOV     DPH,R7
        INC     DPTR
        MOV     A,?V0 + 0
        MOVX    @DPTR,A
//  482     
//  483     osal_msg_send( appTaskID, (uint8 *)msgPtr );
        ; Setup parameters for call to function osal_msg_send
        MOV     A,R6
        MOV     R2,A
        MOV     A,R7
        MOV     R3,A
        MOV     DPTR,#appTaskID
        MOVX    A,@DPTR
        MOV     R1,A
        LCALL   ??osal_msg_send?relay
        MOV     A,R1
//  484   }
//  485   
//  486 } /* StubAPS_NotifyApp */
??StubAPS_NotifyApp_0:
        MOV     R7,#0x4
        LJMP    ?BANKED_LEAVE_XDATA
        CFI EndBlock cfiBlock8
//  487 
//  488 /******************************************************************************
//  489  *
//  490  *  External APIs provided to the Application.
//  491  */
//  492 
//  493 /******************************************************************************
//  494  * @fn          StubAPS_SetInterPanChannel
//  495  *
//  496  * @brief       This function changes the device's channel for inter-PAN communication.
//  497  *
//  498  * @param       channel - new channel
//  499  *
//  500  * @return      ZStatus_t
//  501  */

        RSEG BANKED_CODE:CODE:NOROOT(0)
//  502 ZStatus_t StubAPS_SetInterPanChannel( uint8 channel )
StubAPS_SetInterPanChannel:
        CFI Block cfiBlock9 Using cfiCommon0
        CFI Function StubAPS_SetInterPanChannel
        CODE
//  503 {
        FUNCALL StubAPS_SetInterPanChannel, ZMacGetReq
        LOCFRAME ISTACK, 0, STACK
        LOCFRAME PSTACK, 0, STACK
        LOCFRAME XSTACK, 11, STACK
        LOCFRAME IOVERLAY, 0, STATIC
        LOCFRAME DOVERLAY, 0, STATIC
        ARGFRAME ISTACK, 0, STACK
        ARGFRAME PSTACK, 0, STACK
        ARGFRAME XSTACK, 11, STACK
        ARGFRAME IOVERLAY, 0, STATIC
        ARGFRAME DOVERLAY, 0, STATIC
        FUNCALL StubAPS_SetInterPanChannel, nwk_setStateIdle
        LOCFRAME ISTACK, 0, STACK
        LOCFRAME PSTACK, 0, STACK
        LOCFRAME XSTACK, 11, STACK
        LOCFRAME IOVERLAY, 0, STATIC
        LOCFRAME DOVERLAY, 0, STATIC
        ARGFRAME ISTACK, 0, STACK
        ARGFRAME PSTACK, 0, STACK
        ARGFRAME XSTACK, 11, STACK
        ARGFRAME IOVERLAY, 0, STATIC
        ARGFRAME DOVERLAY, 0, STATIC
        FUNCALL StubAPS_SetInterPanChannel, ZMacSetReq
        LOCFRAME ISTACK, 0, STACK
        LOCFRAME PSTACK, 0, STACK
        LOCFRAME XSTACK, 11, STACK
        LOCFRAME IOVERLAY, 0, STATIC
        LOCFRAME DOVERLAY, 0, STATIC
        ARGFRAME ISTACK, 0, STACK
        ARGFRAME PSTACK, 0, STACK
        ARGFRAME XSTACK, 11, STACK
        ARGFRAME IOVERLAY, 0, STATIC
        ARGFRAME DOVERLAY, 0, STATIC
        FUNCALL StubAPS_SetInterPanChannel, StubAPS_SetNewChannel
        LOCFRAME ISTACK, 0, STACK
        LOCFRAME PSTACK, 0, STACK
        LOCFRAME XSTACK, 11, STACK
        LOCFRAME IOVERLAY, 0, STATIC
        LOCFRAME DOVERLAY, 0, STATIC
        ARGFRAME ISTACK, 0, STACK
        ARGFRAME PSTACK, 0, STACK
        ARGFRAME XSTACK, 11, STACK
        ARGFRAME IOVERLAY, 0, STATIC
        ARGFRAME DOVERLAY, 0, STATIC
        FUNCALL StubAPS_SetInterPanChannel, osal_start_timerEx
        LOCFRAME ISTACK, 0, STACK
        LOCFRAME PSTACK, 0, STACK
        LOCFRAME XSTACK, 11, STACK
        LOCFRAME IOVERLAY, 0, STATIC
        LOCFRAME DOVERLAY, 0, STATIC
        ARGFRAME ISTACK, 0, STACK
        ARGFRAME PSTACK, 0, STACK
        ARGFRAME XSTACK, 11, STACK
        ARGFRAME IOVERLAY, 0, STATIC
        ARGFRAME DOVERLAY, 0, STATIC
        MOV     A,#-0x9
        LCALL   ?BANKED_ENTER_XDATA
        CFI DPH0 load(1, XDATA, add(CFA_XSP16, literal(-1)))
        CFI DPL0 load(1, XDATA, add(CFA_XSP16, literal(-2)))
        CFI ?BRET_EXT load(1, XDATA, add(CFA_XSP16, literal(-3)))
        CFI ?RET_HIGH load(1, XDATA, add(CFA_XSP16, literal(-4)))
        CFI ?RET_LOW load(1, XDATA, add(CFA_XSP16, literal(-5)))
        CFI R7 load(1, XDATA, add(CFA_XSP16, literal(-6)))
        CFI V0 load(1, XDATA, add(CFA_XSP16, literal(-7)))
        CFI VB load(1, XDATA, add(CFA_XSP16, literal(-8)))
        CFI R6 load(1, XDATA, add(CFA_XSP16, literal(-9)))
        CFI CFA_SP SP+0
        CFI CFA_XSP16 add(XSP16, 9)
        ; Saved register size: 9
        ; Auto size: 2
        MOV     A,#-0x2
        LCALL   ?ALLOC_XSTACK8
        CFI CFA_XSP16 add(XSP16, 11)
        MOV     A,R1
        MOV     R6,A
//  504   uint8 currChannel;
//  505   uint8 rxOnIdle;
//  506   
//  507   if ( channelChangeInProgress )
        MOV     DPTR,#channelChangeInProgress
        MOVX    A,@DPTR
        JZ      ??StubAPS_SetInterPanChannel_0
//  508     return ( ZFailure );
        MOV     R1,#0x1
        SJMP    ??StubAPS_SetInterPanChannel_1
//  509 
//  510   ZMacGetReq( ZMacChannel, &currChannel );
??StubAPS_SetInterPanChannel_0:
        ; Setup parameters for call to function ZMacGetReq
        MOV     A,#0x1
        LCALL   ?XSTACK_DISP0_8
        MOV     R2,DPL
        MOV     R3,DPH
        MOV     R1,#-0x1f
        LCALL   ??ZMacGetReq?relay
        MOV     A,R1
//  511   if ( currChannel == channel )
        MOV     A,#0x1
        LCALL   ?XSTACK_DISP0_8
        MOVX    A,@DPTR
        XRL     A,R6
        JNZ     ??StubAPS_SetInterPanChannel_2
//  512   {
//  513     // inter PANs communication within the same channel
//  514     return ( ZSuccess );
        MOV     R1,#0x0
        SJMP    ??StubAPS_SetInterPanChannel_1
//  515   }
//  516   
//  517   // go into channel transition state
//  518   channelChangeInProgress = TRUE;
??StubAPS_SetInterPanChannel_2:
        MOV     DPTR,#channelChangeInProgress
        MOV     A,#0x1
        MOVX    @DPTR,A
//  519   
//  520   // set NWK task to idle
//  521   nwk_setStateIdle( TRUE );
        ; Setup parameters for call to function nwk_setStateIdle
        MOV     R1,#0x1
        LCALL   ??nwk_setStateIdle?relay
//  522   
//  523   // turn MAC receiver off
//  524   rxOnIdle = false;
        MOV     DPL,?XSP + 0
        MOV     DPH,?XSP + 1
        MOV     A,#0x0
        MOVX    @DPTR,A
//  525   ZMacSetReq( ZMacRxOnIdle, &rxOnIdle );
        ; Setup parameters for call to function ZMacSetReq
        MOV     DPL,?XSP + 0
        MOV     DPH,?XSP + 1
        MOV     R2,DPL
        MOV     R3,DPH
        MOV     R1,#0x52
        LCALL   ??ZMacSetReq?relay
        MOV     A,R1
//  526 
//  527   // try to change to the new channel
//  528   if ( StubAPS_SetNewChannel( channel ) == ZSuccess )
        ; Setup parameters for call to function StubAPS_SetNewChannel
        MOV     A,R6
        MOV     R1,A
        LCALL   ??StubAPS_SetNewChannel?relay
        MOV     A,R1
        JNZ     ??StubAPS_SetInterPanChannel_3
//  529     return ( ZSuccess );
        MOV     R1,#0x0
        SJMP    ??StubAPS_SetInterPanChannel_1
//  530     
//  531   // save the new channel for retry
//  532   newChannel = channel;
??StubAPS_SetInterPanChannel_3:
        MOV     A,R6
        MOV     DPTR,#newChannel
        MOVX    @DPTR,A
//  533   
//  534   // ask StubAPS task to retry it later
//  535   osal_start_timerEx( StubAPS_TaskID, CHANNEL_CHANGE_EVT, CHANNEL_CHANGE_RETRY_TIMEOUT );
        ; Setup parameters for call to function osal_start_timerEx
        MOV     R4,#0x64
        MOV     R5,#0x0
        MOV     R2,#0x1
        MOV     R3,#0x0
        MOV     DPTR,#StubAPS_TaskID
        MOVX    A,@DPTR
        MOV     R1,A
        LCALL   ??osal_start_timerEx?relay
        MOV     A,R1
//  536     
//  537   return ( ZApsNotAllowed );
        MOV     R1,#-0x46
??StubAPS_SetInterPanChannel_1:
        MOV     A,#0x2
        LCALL   ?DEALLOC_XSTACK8
        CFI CFA_XSP16 add(XSP16, 9)
        MOV     R7,#0x1
        LJMP    ?BANKED_LEAVE_XDATA
        CFI EndBlock cfiBlock9
//  538   
//  539 } /* StubAPS_SetInterPanChannel */
//  540 
//  541 /******************************************************************************
//  542  * @fn          StubAPS_SetIntraPanChannel
//  543  *
//  544  * @brief       This function sets the device's channel back to the NIB channel.
//  545  *
//  546  * @param       none
//  547  *
//  548  * @return      ZStatus_t
//  549  */

        RSEG BANKED_CODE:CODE:NOROOT(0)
//  550 ZStatus_t StubAPS_SetIntraPanChannel( void )
StubAPS_SetIntraPanChannel:
        CFI Block cfiBlock10 Using cfiCommon0
        CFI Function StubAPS_SetIntraPanChannel
        CODE
//  551 {
        FUNCALL StubAPS_SetIntraPanChannel, ZMacGetReq
        LOCFRAME ISTACK, 2, STACK
        LOCFRAME PSTACK, 0, STACK
        LOCFRAME XSTACK, 2, STACK
        LOCFRAME IOVERLAY, 0, STATIC
        LOCFRAME DOVERLAY, 0, STATIC
        ARGFRAME ISTACK, 2, STACK
        ARGFRAME PSTACK, 0, STACK
        ARGFRAME XSTACK, 2, STACK
        ARGFRAME IOVERLAY, 0, STATIC
        ARGFRAME DOVERLAY, 0, STATIC
        FUNCALL StubAPS_SetIntraPanChannel, ZMacSetReq
        LOCFRAME ISTACK, 2, STACK
        LOCFRAME PSTACK, 0, STACK
        LOCFRAME XSTACK, 2, STACK
        LOCFRAME IOVERLAY, 0, STATIC
        LOCFRAME DOVERLAY, 0, STATIC
        ARGFRAME ISTACK, 2, STACK
        ARGFRAME PSTACK, 0, STACK
        ARGFRAME XSTACK, 2, STACK
        ARGFRAME IOVERLAY, 0, STATIC
        ARGFRAME DOVERLAY, 0, STATIC
        FUNCALL StubAPS_SetIntraPanChannel, ZMacSetReq
        LOCFRAME ISTACK, 2, STACK
        LOCFRAME PSTACK, 0, STACK
        LOCFRAME XSTACK, 2, STACK
        LOCFRAME IOVERLAY, 0, STATIC
        LOCFRAME DOVERLAY, 0, STATIC
        ARGFRAME ISTACK, 2, STACK
        ARGFRAME PSTACK, 0, STACK
        ARGFRAME XSTACK, 2, STACK
        ARGFRAME IOVERLAY, 0, STATIC
        ARGFRAME DOVERLAY, 0, STATIC
        FUNCALL StubAPS_SetIntraPanChannel, ZMacSetReq
        LOCFRAME ISTACK, 2, STACK
        LOCFRAME PSTACK, 0, STACK
        LOCFRAME XSTACK, 2, STACK
        LOCFRAME IOVERLAY, 0, STATIC
        LOCFRAME DOVERLAY, 0, STATIC
        ARGFRAME ISTACK, 2, STACK
        ARGFRAME PSTACK, 0, STACK
        ARGFRAME XSTACK, 2, STACK
        ARGFRAME IOVERLAY, 0, STATIC
        ARGFRAME DOVERLAY, 0, STATIC
        FUNCALL StubAPS_SetIntraPanChannel, nwk_setStateIdle
        LOCFRAME ISTACK, 2, STACK
        LOCFRAME PSTACK, 0, STACK
        LOCFRAME XSTACK, 2, STACK
        LOCFRAME IOVERLAY, 0, STATIC
        LOCFRAME DOVERLAY, 0, STATIC
        ARGFRAME ISTACK, 2, STACK
        ARGFRAME PSTACK, 0, STACK
        ARGFRAME XSTACK, 2, STACK
        ARGFRAME IOVERLAY, 0, STATIC
        ARGFRAME DOVERLAY, 0, STATIC
        PUSH    DPL
        CFI DPL0 Frame(CFA_SP, 4)
        CFI CFA_SP SP+-4
        PUSH    DPH
        CFI DPH0 Frame(CFA_SP, 5)
        CFI CFA_SP SP+-5
        ; Saved register size: 2
        ; Auto size: 2
        MOV     A,#-0x2
        LCALL   ?ALLOC_XSTACK8
        CFI CFA_XSP16 add(XSP16, 2)
//  552   uint8 currChannel;
//  553   uint8 rxOnIdle;
//  554   
//  555   if ( channelChangeInProgress )
        MOV     DPTR,#channelChangeInProgress
        MOVX    A,@DPTR
        JZ      ??StubAPS_SetIntraPanChannel_0
//  556     return ( ZFailure );
        MOV     R1,#0x1
        SJMP    ??StubAPS_SetIntraPanChannel_1
//  557   
//  558   ZMacGetReq( ZMacChannel, &currChannel );
??StubAPS_SetIntraPanChannel_0:
        ; Setup parameters for call to function ZMacGetReq
        MOV     A,#0x1
        LCALL   ?XSTACK_DISP0_8
        MOV     R2,DPL
        MOV     R3,DPH
        MOV     R1,#-0x1f
        LCALL   ??ZMacGetReq?relay
        MOV     A,R1
//  559   if ( currChannel == _NIB.nwkLogicalChannel )
        MOV     A,#0x1
        LCALL   ?XSTACK_DISP0_8
        MOVX    A,@DPTR
        MOV     R0,A
        MOV     DPTR,#_NIB + 22
        MOVX    A,@DPTR
        XRL     A,R0
        JNZ     ??StubAPS_SetIntraPanChannel_2
//  560     return ( ZSuccess );
        MOV     R1,#0x0
        SJMP    ??StubAPS_SetIntraPanChannel_1
//  561   
//  562   channelChangeInProgress = TRUE;
??StubAPS_SetIntraPanChannel_2:
        MOV     DPTR,#channelChangeInProgress
        MOV     A,#0x1
        MOVX    @DPTR,A
//  563   
//  564   // turn MAC receiver off
//  565   rxOnIdle = false;
        MOV     DPL,?XSP + 0
        MOV     DPH,?XSP + 1
        MOV     A,#0x0
        MOVX    @DPTR,A
//  566   ZMacSetReq( ZMacRxOnIdle, &rxOnIdle );
        ; Setup parameters for call to function ZMacSetReq
        MOV     DPL,?XSP + 0
        MOV     DPH,?XSP + 1
        MOV     R2,DPL
        MOV     R3,DPH
        MOV     R1,#0x52
        LCALL   ??ZMacSetReq?relay
        MOV     A,R1
//  567   
//  568   // set the NIB channel
//  569   ZMacSetReq( ZMacChannel, &(_NIB.nwkLogicalChannel) );
        ; Setup parameters for call to function ZMacSetReq
        MOV     R2,#(_NIB + 22) & 0xff
        MOV     R3,#((_NIB + 22) >> 8) & 0xff
        MOV     R1,#-0x1f
        LCALL   ??ZMacSetReq?relay
        MOV     A,R1
//  570   
//  571   // turn MAC receiver back on
//  572   rxOnIdle = true;
        MOV     DPL,?XSP + 0
        MOV     DPH,?XSP + 1
        MOV     A,#0x1
        MOVX    @DPTR,A
//  573   ZMacSetReq( ZMacRxOnIdle, &rxOnIdle );
        ; Setup parameters for call to function ZMacSetReq
        MOV     DPL,?XSP + 0
        MOV     DPH,?XSP + 1
        MOV     R2,DPL
        MOV     R3,DPH
        MOV     R1,#0x52
        LCALL   ??ZMacSetReq?relay
        MOV     A,R1
//  574    
//  575   // set NWK task to run
//  576   nwk_setStateIdle( FALSE );
        ; Setup parameters for call to function nwk_setStateIdle
        MOV     R1,#0x0
        LCALL   ??nwk_setStateIdle?relay
//  577   
//  578   channelChangeInProgress = FALSE;
        MOV     DPTR,#channelChangeInProgress
        MOV     A,#0x0
        MOVX    @DPTR,A
//  579   
//  580   return ( ZSuccess );
        MOV     R1,#0x0
??StubAPS_SetIntraPanChannel_1:
        MOV     A,#0x2
        LCALL   ?DEALLOC_XSTACK8
        CFI CFA_XSP16 XSP16+0
        POP     DPH
        CFI DPH0 SameValue
        CFI CFA_SP SP+-4
        POP     DPL
        CFI DPL0 SameValue
        CFI CFA_SP SP+-3
        LJMP    ?BRET
        CFI EndBlock cfiBlock10
//  581   
//  582 } /* StubAPS_SetIntraPanChannel */
//  583 
//  584 /******************************************************************************
//  585  * @fn          StubAPS_InterPan
//  586  *
//  587  * @brief       This function checks to see if a PAN is an Inter-PAN.
//  588  *
//  589  * @param       panId - PAN ID
//  590  * @param       endPoint - endpoint
//  591  *
//  592  * @return      TRUE if PAN is Inter-PAN, FALSE otherwise
//  593  */

        RSEG BANKED_CODE:CODE:NOROOT(0)
//  594 uint8 StubAPS_InterPan( uint16 panId, uint8 endPoint )
StubAPS_InterPan:
        CFI Block cfiBlock11 Using cfiCommon0
        CFI Function StubAPS_InterPan
        CODE
//  595 {
        ; Saved register size: 0
        ; Auto size: 0
        MOV     A,R1
        MOV     R0,A
//  596   (void)panId; // Intentionally unreferenced parameter
//  597 
//  598   // No need to check the MAC/NIB Channels or Source/Destination PAN IDs
//  599   // since it's possible to send Inter-PAN messages within the same network.
//  600   if ( endPoint == STUBAPS_INTER_PAN_EP )
        MOV     A,#-0x2
        XRL     A,R0
        JNZ     ??StubAPS_InterPan_0
//  601   {
//  602     // Inter-PAN endpoint
//  603     return ( TRUE );
        MOV     R1,#0x1
        SJMP    ??StubAPS_InterPan_1
//  604   }
//  605   
//  606   return ( FALSE );
??StubAPS_InterPan_0:
        MOV     R1,#0x0
??StubAPS_InterPan_1:
        LJMP    ?BRET
        CFI EndBlock cfiBlock11
//  607   
//  608 } /* StubAPS_InterPan */
//  609 
//  610 /******************************************************************************
//  611  * @fn          StubAPS_RegisterApp
//  612  *
//  613  * @brief       This function registers the Application with the Stub APS layer.
//  614  *
//  615  *              NOTE: Since Stub APS messages don't include the application
//  616  *                    endpoint, the application has to register its endpoint
//  617  *                    with Stub APS.
//  618  *
//  619  * @param       epDesc - application's endpoint descriptor
//  620  *
//  621  * @return      none
//  622  */

        RSEG BANKED_CODE:CODE:NOROOT(0)
//  623 void StubAPS_RegisterApp( endPointDesc_t *epDesc )
StubAPS_RegisterApp:
        CFI Block cfiBlock12 Using cfiCommon0
        CFI Function StubAPS_RegisterApp
        CODE
//  624 {
        PUSH    DPL
        CFI DPL0 Frame(CFA_SP, 4)
        CFI CFA_SP SP+-4
        PUSH    DPH
        CFI DPH0 Frame(CFA_SP, 5)
        CFI CFA_SP SP+-5
        ; Saved register size: 2
        ; Auto size: 0
//  625   appTaskID = *epDesc->task_id;
        MOV     DPL,R2
        MOV     DPH,R3
        INC     DPTR
        MOVX    A,@DPTR
        MOV     R0,A
        INC     DPTR
        MOVX    A,@DPTR
        MOV     DPH,A
        MOV     DPL,R0
        MOVX    A,@DPTR
        MOV     DPTR,#appTaskID
        MOVX    @DPTR,A
//  626   appEndPoint = epDesc->endPoint;
        MOV     DPL,R2
        MOV     DPH,R3
        MOVX    A,@DPTR
        MOV     DPTR,#appEndPoint
        MOVX    @DPTR,A
//  627   
//  628 } /* StubAPS_RegisterApp */
        POP     DPH
        CFI DPH0 SameValue
        CFI CFA_SP SP+-4
        POP     DPL
        CFI DPL0 SameValue
        CFI CFA_SP SP+-3
        LJMP    ?BRET
        CFI EndBlock cfiBlock12
//  629 
//  630 /******************************************************************************
//  631  * @fn          StubAPS_ZMacCallback
//  632  *
//  633  * @brief       This function accepts an inter-PAN message from ZMac.
//  634  *
//  635  * @param       msgPtr - received message
//  636  *
//  637  * @return      TRUE if message is processed. FALSE otherwise.
//  638  */

        RSEG BANKED_CODE:CODE:NOROOT(0)
//  639 uint8 StubAPS_ZMacCallback( uint8 *msgPtr )
StubAPS_ZMacCallback:
        CFI Block cfiBlock13 Using cfiCommon0
        CFI Function StubAPS_ZMacCallback
        CODE
//  640 {
        FUNCALL StubAPS_ZMacCallback, osal_msg_send
        LOCFRAME ISTACK, 0, STACK
        LOCFRAME PSTACK, 0, STACK
        LOCFRAME XSTACK, 15, STACK
        LOCFRAME IOVERLAY, 0, STATIC
        LOCFRAME DOVERLAY, 0, STATIC
        ARGFRAME ISTACK, 0, STACK
        ARGFRAME PSTACK, 0, STACK
        ARGFRAME XSTACK, 15, STACK
        ARGFRAME IOVERLAY, 0, STATIC
        ARGFRAME DOVERLAY, 0, STATIC
        MOV     A,#-0xf
        LCALL   ?BANKED_ENTER_XDATA
        CFI DPH0 load(1, XDATA, add(CFA_XSP16, literal(-1)))
        CFI DPL0 load(1, XDATA, add(CFA_XSP16, literal(-2)))
        CFI ?BRET_EXT load(1, XDATA, add(CFA_XSP16, literal(-3)))
        CFI ?RET_HIGH load(1, XDATA, add(CFA_XSP16, literal(-4)))
        CFI ?RET_LOW load(1, XDATA, add(CFA_XSP16, literal(-5)))
        CFI R7 load(1, XDATA, add(CFA_XSP16, literal(-6)))
        CFI V6 load(1, XDATA, add(CFA_XSP16, literal(-7)))
        CFI V5 load(1, XDATA, add(CFA_XSP16, literal(-8)))
        CFI V4 load(1, XDATA, add(CFA_XSP16, literal(-9)))
        CFI V3 load(1, XDATA, add(CFA_XSP16, literal(-10)))
        CFI V2 load(1, XDATA, add(CFA_XSP16, literal(-11)))
        CFI V1 load(1, XDATA, add(CFA_XSP16, literal(-12)))
        CFI V0 load(1, XDATA, add(CFA_XSP16, literal(-13)))
        CFI VB load(1, XDATA, add(CFA_XSP16, literal(-14)))
        CFI R6 load(1, XDATA, add(CFA_XSP16, literal(-15)))
        CFI CFA_SP SP+0
        CFI CFA_XSP16 add(XSP16, 15)
        ; Saved register size: 15
        ; Auto size: 0
        MOV     A,R2
        MOV     R6,A
        MOV     A,R3
        MOV     R7,A
//  641   uint16 nwk_fc;
//  642   uint8  aps_fc;
//  643   uint8  frameType;
//  644   uint8 *buf = NULL;
        MOV     ?V0 + 2,#0x0
        MOV     ?V0 + 3,#0x0
//  645   uint8  event = ((osal_event_hdr_t *)msgPtr)->event;
        MOV     DPL,R6
        MOV     DPH,R7
        MOVX    A,@DPTR
        MOV     ?V0 + 6,A
//  646 
//  647   if ( event == MAC_MCPS_DATA_IND )
        MOV     A,#0xd
        XRL     A,?V0 + 6
        JNZ     ??StubAPS_ZMacCallback_0
//  648   {
//  649     buf = ((macMcpsDataInd_t *)msgPtr)->msdu.p;
        MOV     DPL,R6
        MOV     DPH,R7
        INC     DPTR
        INC     DPTR
        MOVX    A,@DPTR
        MOV     R0,A
        INC     DPTR
        MOVX    A,@DPTR
        MOV     R1,A
        MOV     ?V0 + 2,R0
        MOV     ?V0 + 3,R1
        SJMP    ??StubAPS_ZMacCallback_1
//  650   }
//  651   else if ( event == MAC_MCPS_DATA_CNF )
??StubAPS_ZMacCallback_0:
        MOV     A,#0xc
        XRL     A,?V0 + 6
        JNZ     ??StubAPS_ZMacCallback_1
//  652   {
//  653     buf = ((macMcpsDataCnf_t *)msgPtr)->pDataReq->msdu.p;
        MOV     DPL,R6
        MOV     DPH,R7
        INC     DPTR
        INC     DPTR
        INC     DPTR
        MOVX    A,@DPTR
        MOV     R0,A
        INC     DPTR
        MOVX    A,@DPTR
        MOV     DPH,A
        MOV     DPL,R0
        INC     DPTR
        INC     DPTR
        MOVX    A,@DPTR
        MOV     R0,A
        INC     DPTR
        MOVX    A,@DPTR
        MOV     R1,A
        MOV     ?V0 + 2,R0
        MOV     ?V0 + 3,R1
//  654   }
//  655   
//  656   if ( buf )
??StubAPS_ZMacCallback_1:
        MOV     A,?V0 + 2
        ORL     A,?V0 + 3
        JZ      ??StubAPS_ZMacCallback_2
//  657   {
//  658     // get the NWK frame control
//  659     nwk_fc = BUILD_UINT16( buf[NWK_HDR_FRAME_CTRL_LSB], buf[NWK_HDR_FRAME_CTRL_MSB] );
        MOV     DPL,?V0 + 2
        MOV     DPH,?V0 + 3
        MOVX    A,@DPTR
        MOV     R2,A
        MOV     R3,#0x0
        MOV     DPL,?V0 + 2
        MOV     DPH,?V0 + 3
        INC     DPTR
        MOVX    A,@DPTR
        MOV     R0,A
        MOV     R1,#0x0
        CLR     A
        MOV     R0,A
        MOV     R1,A
        MOV     A,R2
        ADD     A,R0
        MOV     R0,A
        MOV     A,R3
        ADDC    A,R1
        MOV     R1,A
        MOV     ?V0 + 0,R0
        MOV     ?V0 + 1,R1
//  660   
//  661     // frame type
//  662     frameType = (uint8)((nwk_fc >> NWK_FC_FRAME_TYPE) & NWK_FC_FRAME_TYPE_MASK);
        MOV     A,?V0 + 0
        ANL     A,#0x3
        MOV     ?V0 + 5,A
//  663   
//  664     // check if incoming frame is of the right type
//  665     if ( frameType != STUB_NWK_FRAME_TYPE )
        MOV     A,#0x3
        XRL     A,?V0 + 5
        JZ      ??StubAPS_ZMacCallback_3
//  666     {
//  667       // message doesn't belong to Stub APS
//  668       return ( FALSE );
        MOV     R1,#0x0
        SJMP    ??StubAPS_ZMacCallback_4
//  669     }
//  670  
//  671     // get the APS frame control
//  672     aps_fc = buf[STUB_APS_HDR_FRAME_CTRL];
??StubAPS_ZMacCallback_3:
        MOV     DPL,?V0 + 2
        MOV     DPH,?V0 + 3
        INC     DPTR
        INC     DPTR
        MOVX    A,@DPTR
        MOV     ?V0 + 4,A
//  673   
//  674     // frame type
//  675     frameType = aps_fc & APS_FRAME_TYPE_MASK;
        MOV     A,#0x3
        ANL     A,?V0 + 4
        MOV     ?V0 + 5,A
//  676     
//  677     // check if incoming frame is of the right type
//  678     if ( frameType != STUB_APS_FRAME )
        MOV     A,#0x3
        XRL     A,?V0 + 5
        JZ      ??StubAPS_ZMacCallback_5
//  679     {
//  680       // message doesn't belong to Stub APS
//  681       return ( FALSE );
        MOV     R1,#0x0
        SJMP    ??StubAPS_ZMacCallback_4
//  682     }
//  683     
//  684     // message belongs to Stub APS
//  685     osal_msg_send( StubAPS_TaskID, (uint8 *)msgPtr );
??StubAPS_ZMacCallback_5:
        ; Setup parameters for call to function osal_msg_send
        MOV     A,R6
        MOV     R2,A
        MOV     A,R7
        MOV     R3,A
        MOV     DPTR,#StubAPS_TaskID
        MOVX    A,@DPTR
        MOV     R1,A
        LCALL   ??osal_msg_send?relay
        MOV     A,R1
//  686  
//  687     return ( TRUE );
        MOV     R1,#0x1
        SJMP    ??StubAPS_ZMacCallback_4
//  688   }
//  689   
//  690   // message doesn't belong to Stub APS
//  691   return ( FALSE );
??StubAPS_ZMacCallback_2:
        MOV     R1,#0x0
??StubAPS_ZMacCallback_4:
        MOV     R7,#0x7
        LJMP    ?BANKED_LEAVE_XDATA
        CFI EndBlock cfiBlock13
//  692     
//  693 } /* StubAPS_ZMacCallback */
//  694 
//  695 /******************************************************************************
//  696  *
//  697  *  Stub APS Inter-PAN interface INTERP and its callbacks.
//  698  */
//  699 
//  700 /******************************************************************************
//  701  * @fn          INTERP_DataReq
//  702  *
//  703  * @brief       This function requests the transfer of data from the next
//  704  *              higher layer to a single peer entity.
//  705  *
//  706  * @param       req - APSDE_DataReq_t
//  707  *
//  708  * @return      ZStatus_t
//  709  */

        RSEG BANKED_CODE:CODE:NOROOT(0)
//  710 ZStatus_t INTERP_DataReq( APSDE_DataReq_t *req )
INTERP_DataReq:
        CFI Block cfiBlock14 Using cfiCommon0
        CFI Function INTERP_DataReq
        CODE
//  711 {
        FUNCALL INTERP_DataReq, StubAPS_InterPan
        LOCFRAME ISTACK, 0, STACK
        LOCFRAME PSTACK, 0, STACK
        LOCFRAME XSTACK, 47, STACK
        LOCFRAME IOVERLAY, 0, STATIC
        LOCFRAME DOVERLAY, 0, STATIC
        ARGFRAME ISTACK, 0, STACK
        ARGFRAME PSTACK, 0, STACK
        ARGFRAME XSTACK, 47, STACK
        ARGFRAME IOVERLAY, 0, STATIC
        ARGFRAME DOVERLAY, 0, STATIC
        FUNCALL INTERP_DataReq, osal_memset
        LOCFRAME ISTACK, 0, STACK
        LOCFRAME PSTACK, 0, STACK
        LOCFRAME XSTACK, 47, STACK
        LOCFRAME IOVERLAY, 0, STATIC
        LOCFRAME DOVERLAY, 0, STATIC
        ARGFRAME ISTACK, 0, STACK
        ARGFRAME PSTACK, 0, STACK
        ARGFRAME XSTACK, 47, STACK
        ARGFRAME IOVERLAY, 0, STATIC
        ARGFRAME DOVERLAY, 0, STATIC
        FUNCALL INTERP_DataReq, StubAPS_BuildFrameControl
        LOCFRAME ISTACK, 0, STACK
        LOCFRAME PSTACK, 0, STACK
        LOCFRAME XSTACK, 51, STACK
        LOCFRAME IOVERLAY, 0, STATIC
        LOCFRAME DOVERLAY, 0, STATIC
        ARGFRAME ISTACK, 0, STACK
        ARGFRAME PSTACK, 0, STACK
        ARGFRAME XSTACK, 51, STACK
        ARGFRAME IOVERLAY, 0, STATIC
        ARGFRAME DOVERLAY, 0, STATIC
        FUNCALL INTERP_DataReq, osal_mem_alloc
        LOCFRAME ISTACK, 0, STACK
        LOCFRAME PSTACK, 0, STACK
        LOCFRAME XSTACK, 47, STACK
        LOCFRAME IOVERLAY, 0, STATIC
        LOCFRAME DOVERLAY, 0, STATIC
        ARGFRAME ISTACK, 0, STACK
        ARGFRAME PSTACK, 0, STACK
        ARGFRAME XSTACK, 47, STACK
        ARGFRAME IOVERLAY, 0, STATIC
        ARGFRAME DOVERLAY, 0, STATIC
        FUNCALL INTERP_DataReq, StubAPS_BuildMsg
        LOCFRAME ISTACK, 0, STACK
        LOCFRAME PSTACK, 0, STACK
        LOCFRAME XSTACK, 49, STACK
        LOCFRAME IOVERLAY, 0, STATIC
        LOCFRAME DOVERLAY, 0, STATIC
        ARGFRAME ISTACK, 0, STACK
        ARGFRAME PSTACK, 0, STACK
        ARGFRAME XSTACK, 49, STACK
        ARGFRAME IOVERLAY, 0, STATIC
        ARGFRAME DOVERLAY, 0, STATIC
        FUNCALL INTERP_DataReq, StubNWK_BuildMsg
        LOCFRAME ISTACK, 0, STACK
        LOCFRAME PSTACK, 0, STACK
        LOCFRAME XSTACK, 47, STACK
        LOCFRAME IOVERLAY, 0, STATIC
        LOCFRAME DOVERLAY, 0, STATIC
        ARGFRAME ISTACK, 0, STACK
        ARGFRAME PSTACK, 0, STACK
        ARGFRAME XSTACK, 47, STACK
        ARGFRAME IOVERLAY, 0, STATIC
        ARGFRAME DOVERLAY, 0, STATIC
        FUNCALL INTERP_DataReq, ZMacDataReq
        LOCFRAME ISTACK, 0, STACK
        LOCFRAME PSTACK, 0, STACK
        LOCFRAME XSTACK, 47, STACK
        LOCFRAME IOVERLAY, 0, STATIC
        LOCFRAME DOVERLAY, 0, STATIC
        ARGFRAME ISTACK, 0, STACK
        ARGFRAME PSTACK, 0, STACK
        ARGFRAME XSTACK, 47, STACK
        ARGFRAME IOVERLAY, 0, STATIC
        ARGFRAME DOVERLAY, 0, STATIC
        FUNCALL INTERP_DataReq, osal_mem_free
        LOCFRAME ISTACK, 0, STACK
        LOCFRAME PSTACK, 0, STACK
        LOCFRAME XSTACK, 47, STACK
        LOCFRAME IOVERLAY, 0, STATIC
        LOCFRAME DOVERLAY, 0, STATIC
        ARGFRAME ISTACK, 0, STACK
        ARGFRAME PSTACK, 0, STACK
        ARGFRAME XSTACK, 47, STACK
        ARGFRAME IOVERLAY, 0, STATIC
        ARGFRAME DOVERLAY, 0, STATIC
        MOV     A,#-0xe
        LCALL   ?BANKED_ENTER_XDATA
        CFI DPH0 load(1, XDATA, add(CFA_XSP16, literal(-1)))
        CFI DPL0 load(1, XDATA, add(CFA_XSP16, literal(-2)))
        CFI ?BRET_EXT load(1, XDATA, add(CFA_XSP16, literal(-3)))
        CFI ?RET_HIGH load(1, XDATA, add(CFA_XSP16, literal(-4)))
        CFI ?RET_LOW load(1, XDATA, add(CFA_XSP16, literal(-5)))
        CFI R7 load(1, XDATA, add(CFA_XSP16, literal(-6)))
        CFI V5 load(1, XDATA, add(CFA_XSP16, literal(-7)))
        CFI V4 load(1, XDATA, add(CFA_XSP16, literal(-8)))
        CFI V3 load(1, XDATA, add(CFA_XSP16, literal(-9)))
        CFI V2 load(1, XDATA, add(CFA_XSP16, literal(-10)))
        CFI V1 load(1, XDATA, add(CFA_XSP16, literal(-11)))
        CFI V0 load(1, XDATA, add(CFA_XSP16, literal(-12)))
        CFI VB load(1, XDATA, add(CFA_XSP16, literal(-13)))
        CFI R6 load(1, XDATA, add(CFA_XSP16, literal(-14)))
        CFI CFA_SP SP+0
        CFI CFA_XSP16 add(XSP16, 14)
        ; Saved register size: 14
        ; Auto size: 33
        MOV     A,#-0x21
        LCALL   ?ALLOC_XSTACK8
        CFI CFA_XSP16 add(XSP16, 47)
        MOV     ?V0 + 2,R2
        MOV     ?V0 + 3,R3
//  712   uint8 apsFrmCtrl;
//  713   uint16 groupID = 0;
        MOV     A,#0x1
        LCALL   ?XSTACK_DISP0_8
        MOV     A,#0x0
        MOVX    @DPTR,A
        INC     DPTR
        MOV     A,#0x0
        MOVX    @DPTR,A
//  714   uint8 *buf;
//  715   uint8 hdrLen;
//  716   ZMacDataReq_t dataReq;
//  717   ZStatus_t status;
//  718   
//  719   if ( channelChangeInProgress || !StubAPS_InterPan( req->dstPanId, req->dstEP ) )
        MOV     DPTR,#channelChangeInProgress
        MOVX    A,@DPTR
        JNZ     ??INTERP_DataReq_0
        ; Setup parameters for call to function StubAPS_InterPan
        MOV     DPL,?V0 + 2
        MOV     DPH,?V0 + 3
        INC     DPTR
        INC     DPTR
        INC     DPTR
        INC     DPTR
        INC     DPTR
        INC     DPTR
        INC     DPTR
        INC     DPTR
        INC     DPTR
        INC     DPTR
        MOVX    A,@DPTR
        MOV     R1,A
        MOV     A,?V0 + 2
        ADD     A,#0xb
        MOV     DPL,A
        MOV     A,?V0 + 3
        ADDC    A,#0x0
        MOV     DPH,A
        MOVX    A,@DPTR
        MOV     R2,A
        INC     DPTR
        MOVX    A,@DPTR
        MOV     R3,A
        LCALL   ??StubAPS_InterPan?relay
        MOV     A,R1
        JNZ     ??INTERP_DataReq_1
//  720     return ( ZFailure );
??INTERP_DataReq_0:
        MOV     R1,#0x1
        LJMP    ??INTERP_DataReq_2 & 0xFFFF
//  721   
//  722   osal_memset( &dataReq, 0, sizeof( ZMacDataReq_t ) );
??INTERP_DataReq_1:
        ; Setup parameters for call to function osal_memset
        MOV     R4,#0x1e
        MOV     R5,#0x0
        MOV     R1,#0x0
        MOV     A,#0x3
        LCALL   ?XSTACK_DISP0_8
        MOV     R2,DPL
        MOV     R3,DPH
        LCALL   ??osal_memset?relay
//  723   
//  724   // Build Stub APS header
//  725   status = StubAPS_BuildFrameControl( &apsFrmCtrl, &(dataReq.DstAddr), &groupID, req );
        ; Setup parameters for call to function StubAPS_BuildFrameControl
        MOV     R0,#?V0 + 2
        LCALL   ?PUSH_XSTACK_I_TWO
        CFI CFA_XSP16 add(XSP16, 49)
        MOV     A,#0x3
        LCALL   ?XSTACK_DISP0_8
        MOV     ?V0 + 4,DPL
        MOV     ?V0 + 5,DPH
        MOV     R0,#?V0 + 4
        LCALL   ?PUSH_XSTACK_I_TWO
        CFI CFA_XSP16 add(XSP16, 51)
        MOV     A,#0x7
        LCALL   ?XSTACK_DISP0_8
        MOV     R4,DPL
        MOV     R5,DPH
        MOV     A,#0x4
        LCALL   ?XSTACK_DISP0_8
        MOV     R2,DPL
        MOV     R3,DPH
        LCALL   ??StubAPS_BuildFrameControl?relay
        MOV     A,#0x4
        LCALL   ?DEALLOC_XSTACK8
        CFI CFA_XSP16 add(XSP16, 47)
        MOV     A,R1
        MOV     R7,A
//  726   if ( status != ZSuccess )
        MOV     A,R7
        JZ      ??INTERP_DataReq_3
//  727     return ( status );
        MOV     A,R7
        MOV     R1,A
        LJMP    ??INTERP_DataReq_2 & 0xFFFF
//  728 
//  729   // set default Stub APS header length
//  730   hdrLen = APS_FRAME_CTRL_FIELD_LEN;
??INTERP_DataReq_3:
        MOV     R6,#0x1
//  731   
//  732   // add group ID length
//  733   if ( ( apsFrmCtrl & APS_DELIVERYMODE_MASK ) == APS_FC_DM_GROUP )
        MOV     DPL,?XSP + 0
        MOV     DPH,?XSP + 1
        MOVX    A,@DPTR
        ANL     A,#0xc
        XRL     A,#0xc
        JNZ     ??INTERP_DataReq_4
//  734     hdrLen += APS_GROUP_ID_FIELD_LEN;
        INC     R6
        INC     R6
//  735   
//  736   // add cluster ID length
//  737   hdrLen += APS_CLUSTERID_FIELD_LEN;
??INTERP_DataReq_4:
        INC     R6
        INC     R6
//  738   
//  739   // add profile ID length
//  740   hdrLen += APS_PROFILEID_FIELD_LEN;
        INC     R6
        INC     R6
//  741   
//  742   // add default Stub NWK header length
//  743   hdrLen += STUB_NWK_HDR_LEN;
        INC     R6
        INC     R6
//  744   
//  745   // calculate MSDU length
//  746   dataReq.msduLength = hdrLen + req->asduLen;
        MOV     A,?V0 + 2
        ADD     A,#0x11
        MOV     DPL,A
        MOV     A,?V0 + 3
        ADDC    A,#0x0
        MOV     DPH,A
        MOVX    A,@DPTR
        MOV     R0,A
        INC     DPTR
        MOVX    A,@DPTR
        MOV     R1,A
        MOV     A,R0
        ADD     A,R6
        PUSH    A
        CFI CFA_SP SP+-1
        MOV     A,#0x1e
        LCALL   ?XSTACK_DISP0_8
        POP     A
        CFI CFA_SP SP+0
        MOVX    @DPTR,A
//  747   
//  748   // allocate buffer
//  749   buf = osal_mem_alloc( dataReq.msduLength );
        ; Setup parameters for call to function osal_mem_alloc
        MOV     A,#0x1e
        LCALL   ?XSTACK_DISP0_8
        MOVX    A,@DPTR
        MOV     R2,A
        MOV     R3,#0x0
        LCALL   ??osal_mem_alloc?relay
        MOV     ?V0 + 4,R2
        MOV     ?V0 + 5,R3
        MOV     ?V0 + 0,?V0 + 4
        MOV     ?V0 + 1,?V0 + 5
//  750   if ( buf != NULL )
        MOV     A,?V0 + 0
        ORL     A,?V0 + 1
        JNZ     $+5
        LJMP    ??INTERP_DataReq_5 & 0xFFFF
//  751   {
//  752     dataReq.msdu = buf;
        MOV     A,#0x1f
        LCALL   ?XSTACK_DISP0_8
        MOV     A,?V0 + 0
        MOVX    @DPTR,A
        INC     DPTR
        MOV     A,?V0 + 1
        MOVX    @DPTR,A
//  753     
//  754     // Add Stub APS header and data
//  755     StubAPS_BuildMsg( &buf[STUB_APS_HDR_FRAME_CTRL], apsFrmCtrl, groupID, req );
        ; Setup parameters for call to function StubAPS_BuildMsg
        MOV     R0,#?V0 + 2
        LCALL   ?PUSH_XSTACK_I_TWO
        CFI CFA_XSP16 add(XSP16, 49)
        MOV     A,#0x3
        LCALL   ?XSTACK_DISP0_8
        MOVX    A,@DPTR
        MOV     R4,A
        INC     DPTR
        MOVX    A,@DPTR
        MOV     R5,A
        MOV     A,#0x2
        LCALL   ?XSTACK_DISP0_8
        MOVX    A,@DPTR
        MOV     R1,A
        MOV     A,?V0 + 0
        ADD     A,#0x2
        MOV     R2,A
        MOV     A,?V0 + 1
        ADDC    A,#0x0
        MOV     R3,A
        LCALL   ??StubAPS_BuildMsg?relay
        MOV     A,#0x2
        LCALL   ?DEALLOC_XSTACK8
        CFI CFA_XSP16 add(XSP16, 47)
//  756     
//  757     // Add Stub NWK header
//  758     StubNWK_BuildMsg( buf );  
        ; Setup parameters for call to function StubNWK_BuildMsg
        MOV     R2,?V0 + 0
        MOV     R3,?V0 + 1
        LCALL   ??StubNWK_BuildMsg?relay
//  759 
//  760     // Set ZMac data request
//  761     dataReq.DstPANId = req->dstPanId;
        MOV     A,?V0 + 2
        ADD     A,#0xb
        MOV     DPL,A
        MOV     A,?V0 + 3
        ADDC    A,#0x0
        MOV     DPH,A
        MOVX    A,@DPTR
        MOV     R0,A
        INC     DPTR
        MOVX    A,@DPTR
        MOV     R1,A
        MOV     A,#0xc
        LCALL   ?XSTACK_DISP0_8
        MOV     A,R0
        MOVX    @DPTR,A
        INC     DPTR
        MOV     A,R1
        MOVX    @DPTR,A
//  762     dataReq.SrcAddrMode = Addr64Bit; 
        MOV     A,#0xe
        LCALL   ?XSTACK_DISP0_8
        MOV     A,#0x3
        MOVX    @DPTR,A
//  763     dataReq.Handle = req->transID;
        MOV     A,?V0 + 2
        ADD     A,#0x17
        MOV     DPL,A
        MOV     A,?V0 + 3
        ADDC    A,#0x0
        MOV     DPH,A
        MOVX    A,@DPTR
        PUSH    A
        CFI CFA_SP SP+-1
        MOV     A,#0xf
        LCALL   ?XSTACK_DISP0_8
        POP     A
        CFI CFA_SP SP+0
        MOVX    @DPTR,A
//  764   
//  765     if ( ( apsFrmCtrl & APS_DELIVERYMODE_MASK ) == APS_FC_DM_UNICAST )
        MOV     DPL,?XSP + 0
        MOV     DPH,?XSP + 1
        MOVX    A,@DPTR
        ANL     A,#0xc
        JNZ     ??INTERP_DataReq_6
//  766       dataReq.TxOptions = NWK_TXOPTIONS_ACK;
        MOV     A,#0x10
        LCALL   ?XSTACK_DISP0_8
        MOV     A,#0x1
        MOVX    @DPTR,A
        SJMP    ??INTERP_DataReq_7
//  767     else
//  768       dataReq.TxOptions = 0;
??INTERP_DataReq_6:
        MOV     A,#0x10
        LCALL   ?XSTACK_DISP0_8
        MOV     A,#0x0
        MOVX    @DPTR,A
//  769     
//  770     // send the frame
//  771     status = ZMacDataReq( &dataReq );
??INTERP_DataReq_7:
        ; Setup parameters for call to function ZMacDataReq
        MOV     A,#0x3
        LCALL   ?XSTACK_DISP0_8
        MOV     R2,DPL
        MOV     R3,DPH
        LCALL   ??ZMacDataReq?relay
        MOV     A,R1
        MOV     R7,A
//  772     
//  773     // free the frame
//  774     osal_mem_free( buf );
        ; Setup parameters for call to function osal_mem_free
        MOV     R2,?V0 + 0
        MOV     R3,?V0 + 1
        LCALL   ??osal_mem_free?relay
        SJMP    ??INTERP_DataReq_8
//  775   }
//  776   else
//  777   {
//  778     // flag a memory error
//  779     status = ZMemError;
??INTERP_DataReq_5:
        MOV     R7,#0x10
//  780   }
//  781   
//  782   return ( status );
??INTERP_DataReq_8:
        MOV     A,R7
        MOV     R1,A
??INTERP_DataReq_2:
        MOV     A,#0x21
        LCALL   ?DEALLOC_XSTACK8
        CFI CFA_XSP16 add(XSP16, 14)
        MOV     R7,#0x6
        LJMP    ?BANKED_LEAVE_XDATA
        CFI EndBlock cfiBlock14
//  783   
//  784 } /* INTERP_DataReq */
//  785 
//  786 /******************************************************************************
//  787  * @fn          INTERP_DataReqMTU
//  788  *
//  789  * @brief       This function requests the MTU (Max Transport Unit) of the
//  790  *              Inter-PAN Data Service.
//  791  *
//  792  * @param       none
//  793  *
//  794  * @return      uint8 - MTU
//  795  */

        RSEG BANKED_CODE:CODE:NOROOT(0)
//  796 uint8 INTERP_DataReqMTU( void )
INTERP_DataReqMTU:
        CFI Block cfiBlock15 Using cfiCommon0
        CFI Function INTERP_DataReqMTU
        CODE
//  797 {
        ; Saved register size: 0
        ; Auto size: 0
//  798   uint8 mtu;
//  799   uint8 hdrLen;
//  800   
//  801   // Use maximum header size for Stub APS header
//  802   hdrLen = APS_FRAME_CTRL_FIELD_LEN +
//  803            APS_GROUP_ID_FIELD_LEN   +
//  804            APS_CLUSTERID_FIELD_LEN  +
//  805            APS_PROFILEID_FIELD_LEN;
        MOV     R0,#0x7
//  806 
//  807   mtu = MAC_A_MAX_FRAME_SIZE - STUB_NWK_HDR_LEN - hdrLen;
        MOV     A,#0x64
        CLR     C
        SUBB    A,R0
        MOV     R1,A
//  808 
//  809   return ( mtu );
        LJMP    ?BRET
        CFI EndBlock cfiBlock15
//  810 
//  811 } /* INTERP_DataReqMTU */
//  812 
//  813 /****************************************************************************
//  814  * @fn          INTERP_DataConfirm
//  815  *
//  816  * @brief       This function processes the data confirm from the MAC layer.
//  817  *
//  818  * @param       dataCnf - data confirm primitive
//  819  *
//  820  * @return      none
//  821  */

        RSEG BANKED_CODE:CODE:NOROOT(0)
//  822 void INTERP_DataConfirm( ZMacDataCnf_t *dataCnf )
INTERP_DataConfirm:
        CFI Block cfiBlock16 Using cfiCommon0
        CFI Function INTERP_DataConfirm
        CODE
//  823 {
        FUNCALL INTERP_DataConfirm, afDataConfirm
        LOCFRAME ISTACK, 0, STACK
        LOCFRAME PSTACK, 0, STACK
        LOCFRAME XSTACK, 9, STACK
        LOCFRAME IOVERLAY, 0, STATIC
        LOCFRAME DOVERLAY, 0, STATIC
        ARGFRAME ISTACK, 0, STACK
        ARGFRAME PSTACK, 0, STACK
        ARGFRAME XSTACK, 9, STACK
        ARGFRAME IOVERLAY, 0, STATIC
        ARGFRAME DOVERLAY, 0, STATIC
        MOV     A,#-0x9
        LCALL   ?BANKED_ENTER_XDATA
        CFI DPH0 load(1, XDATA, add(CFA_XSP16, literal(-1)))
        CFI DPL0 load(1, XDATA, add(CFA_XSP16, literal(-2)))
        CFI ?BRET_EXT load(1, XDATA, add(CFA_XSP16, literal(-3)))
        CFI ?RET_HIGH load(1, XDATA, add(CFA_XSP16, literal(-4)))
        CFI ?RET_LOW load(1, XDATA, add(CFA_XSP16, literal(-5)))
        CFI R7 load(1, XDATA, add(CFA_XSP16, literal(-6)))
        CFI V0 load(1, XDATA, add(CFA_XSP16, literal(-7)))
        CFI VB load(1, XDATA, add(CFA_XSP16, literal(-8)))
        CFI R6 load(1, XDATA, add(CFA_XSP16, literal(-9)))
        CFI CFA_SP SP+0
        CFI CFA_XSP16 add(XSP16, 9)
        ; Saved register size: 9
        ; Auto size: 0
        MOV     A,R2
        MOV     R6,A
        MOV     A,R3
        MOV     R7,A
//  824   afDataConfirm( appEndPoint, dataCnf->msduHandle, dataCnf->hdr.Status );
        ; Setup parameters for call to function afDataConfirm
        MOV     DPL,R6
        MOV     DPH,R7
        INC     DPTR
        MOVX    A,@DPTR
        MOV     R3,A
        MOV     DPL,R6
        MOV     DPH,R7
        INC     DPTR
        INC     DPTR
        MOVX    A,@DPTR
        MOV     R2,A
        MOV     DPTR,#appEndPoint
        MOVX    A,@DPTR
        MOV     R1,A
        LCALL   ??afDataConfirm?relay
//  825 
//  826 } /* INTERP_DataConfirm */
        MOV     R7,#0x1
        LJMP    ?BANKED_LEAVE_XDATA
        CFI EndBlock cfiBlock16
//  827 
//  828 /****************************************************************************
//  829  * @fn          INTERP_DataIndication
//  830  *
//  831  * @brief       This function indicates the transfer of a data SPDU (MSDU)
//  832  *              from the MAC layer to the local application layer entity.
//  833  *
//  834  * @param       dataInd - data indicate primitive
//  835  *
//  836  * @return      none
//  837  */

        RSEG BANKED_CODE:CODE:NOROOT(0)
//  838 void INTERP_DataIndication( macMcpsDataInd_t *dataInd )
INTERP_DataIndication:
        CFI Block cfiBlock17 Using cfiCommon0
        CFI Function INTERP_DataIndication
        CODE
//  839 {
        FUNCALL INTERP_DataIndication, StubNWK_ParseMsg
        LOCFRAME ISTACK, 0, STACK
        LOCFRAME PSTACK, 0, STACK
        LOCFRAME XSTACK, 74, STACK
        LOCFRAME IOVERLAY, 0, STATIC
        LOCFRAME DOVERLAY, 0, STATIC
        ARGFRAME ISTACK, 0, STACK
        ARGFRAME PSTACK, 0, STACK
        ARGFRAME XSTACK, 74, STACK
        ARGFRAME IOVERLAY, 0, STATIC
        ARGFRAME DOVERLAY, 0, STATIC
        FUNCALL INTERP_DataIndication, sAddrCpy
        LOCFRAME ISTACK, 0, STACK
        LOCFRAME PSTACK, 0, STACK
        LOCFRAME XSTACK, 74, STACK
        LOCFRAME IOVERLAY, 0, STATIC
        LOCFRAME DOVERLAY, 0, STATIC
        ARGFRAME ISTACK, 0, STACK
        ARGFRAME PSTACK, 0, STACK
        ARGFRAME XSTACK, 74, STACK
        ARGFRAME IOVERLAY, 0, STATIC
        ARGFRAME DOVERLAY, 0, STATIC
        FUNCALL INTERP_DataIndication, NLME_GetProtocolVersion
        LOCFRAME ISTACK, 0, STACK
        LOCFRAME PSTACK, 0, STACK
        LOCFRAME XSTACK, 74, STACK
        LOCFRAME IOVERLAY, 0, STATIC
        LOCFRAME DOVERLAY, 0, STATIC
        ARGFRAME ISTACK, 0, STACK
        ARGFRAME PSTACK, 0, STACK
        ARGFRAME XSTACK, 74, STACK
        ARGFRAME IOVERLAY, 0, STATIC
        ARGFRAME DOVERLAY, 0, STATIC
        FUNCALL INTERP_DataIndication, StubAPS_ParseMsg
        LOCFRAME ISTACK, 0, STACK
        LOCFRAME PSTACK, 0, STACK
        LOCFRAME XSTACK, 74, STACK
        LOCFRAME IOVERLAY, 0, STATIC
        LOCFRAME DOVERLAY, 0, STATIC
        ARGFRAME ISTACK, 0, STACK
        ARGFRAME PSTACK, 0, STACK
        ARGFRAME XSTACK, 74, STACK
        ARGFRAME IOVERLAY, 0, STATIC
        ARGFRAME DOVERLAY, 0, STATIC
        FUNCALL INTERP_DataIndication, APSDE_DataIndication
        LOCFRAME ISTACK, 0, STACK
        LOCFRAME PSTACK, 0, STACK
        LOCFRAME XSTACK, 83, STACK
        LOCFRAME IOVERLAY, 0, STATIC
        LOCFRAME DOVERLAY, 0, STATIC
        ARGFRAME ISTACK, 0, STACK
        ARGFRAME PSTACK, 0, STACK
        ARGFRAME XSTACK, 83, STACK
        ARGFRAME IOVERLAY, 0, STATIC
        ARGFRAME DOVERLAY, 0, STATIC
        MOV     A,#-0xa
        LCALL   ?BANKED_ENTER_XDATA
        CFI DPH0 load(1, XDATA, add(CFA_XSP16, literal(-1)))
        CFI DPL0 load(1, XDATA, add(CFA_XSP16, literal(-2)))
        CFI ?BRET_EXT load(1, XDATA, add(CFA_XSP16, literal(-3)))
        CFI ?RET_HIGH load(1, XDATA, add(CFA_XSP16, literal(-4)))
        CFI ?RET_LOW load(1, XDATA, add(CFA_XSP16, literal(-5)))
        CFI R7 load(1, XDATA, add(CFA_XSP16, literal(-6)))
        CFI V1 load(1, XDATA, add(CFA_XSP16, literal(-7)))
        CFI V0 load(1, XDATA, add(CFA_XSP16, literal(-8)))
        CFI VB load(1, XDATA, add(CFA_XSP16, literal(-9)))
        CFI R6 load(1, XDATA, add(CFA_XSP16, literal(-10)))
        CFI CFA_SP SP+0
        CFI CFA_XSP16 add(XSP16, 10)
        ; Saved register size: 10
        ; Auto size: 64
        MOV     A,#-0x40
        LCALL   ?ALLOC_XSTACK8
        CFI CFA_XSP16 add(XSP16, 74)
        MOV     A,R2
        MOV     R6,A
        MOV     A,R3
        MOV     R7,A
//  840   NLDE_FrameFormat_t snff;
//  841   aps_FrameFormat_t saff;
//  842   zAddrType_t srcAddr;
//  843   NLDE_Signal_t sig;
//  844 
//  845   // parse the Stub NWK header
//  846   StubNWK_ParseMsg( dataInd->msdu.p, dataInd->msdu.len, &snff );
        ; Setup parameters for call to function StubNWK_ParseMsg
        MOV     A,#0x18
        LCALL   ?XSTACK_DISP0_8
        MOV     R4,DPL
        MOV     R5,DPH
        MOV     DPL,R6
        MOV     DPH,R7
        INC     DPTR
        INC     DPTR
        INC     DPTR
        INC     DPTR
        MOVX    A,@DPTR
        MOV     R1,A
        MOV     DPL,R6
        MOV     DPH,R7
        INC     DPTR
        INC     DPTR
        MOVX    A,@DPTR
        MOV     R2,A
        INC     DPTR
        MOVX    A,@DPTR
        MOV     R3,A
        LCALL   ??StubNWK_ParseMsg?relay
//  847 
//  848   // Fill in MAC destination address
//  849   snff.macDstAddr = dataInd->mac.dstAddr.addr.shortAddr;
        MOV     A,R6
        ADD     A,#0x1b
        MOV     DPL,A
        MOV     A,R7
        ADDC    A,#0x0
        MOV     DPH,A
        MOVX    A,@DPTR
        MOV     R0,A
        INC     DPTR
        MOVX    A,@DPTR
        MOV     R1,A
        MOV     A,#0x25
        LCALL   ?XSTACK_DISP0_8
        MOV     A,R0
        MOVX    @DPTR,A
        INC     DPTR
        MOV     A,R1
        MOVX    @DPTR,A
//  850   
//  851   // fill in MAC source address (Stub NWK frame doesn't have address fields)
//  852   osal_copyAddress( &srcAddr, (zAddrType_t *)&(dataInd->mac.srcAddr) );
        ; Setup parameters for call to function sAddrCpy
        MOV     A,R6
        ADD     A,#0x12
        MOV     R4,A
        MOV     A,R7
        ADDC    A,#0x0
        MOV     R5,A
        MOV     A,#0x37
        LCALL   ?XSTACK_DISP0_8
        MOV     R2,DPL
        MOV     R3,DPH
        LCALL   ??sAddrCpy?relay
//  853   
//  854   // check if incoming frame is of the right type
//  855   if ( snff.frameType != STUB_NWK_FRAME_TYPE )
        MOV     A,#0x1a
        LCALL   ?XSTACK_DISP0_8
        MOVX    A,@DPTR
        XRL     A,#0x3
        JZ      $+5
        LJMP    ??INTERP_DataIndication_0 & 0xFFFF
//  856     return;
//  857     
//  858   // check if incoming frame is of the right version
//  859   if ( snff.protocolVersion != NLME_GetProtocolVersion() )
        ; Setup parameters for call to function NLME_GetProtocolVersion
        LCALL   ??NLME_GetProtocolVersion?relay
        MOV     A,R1
        MOV     R0,A
        MOV     A,#0x1b
        LCALL   ?XSTACK_DISP0_8
        MOVX    A,@DPTR
        XRL     A,R0
        JZ      $+5
        LJMP    ??INTERP_DataIndication_0 & 0xFFFF
//  860     return;
//  861   
//  862   // check if the remaining sun-fields are zero
//  863   if ( ( snff.discoverRoute != 0 ) || ( snff.multicast != 0 )   ||
//  864        ( snff.secure != 0 )        || ( snff.srcRouteSet != 0 ) ||
//  865        ( snff.dstExtAddrSet != 0 ) || ( snff.srcExtAddrSet != 0 ) )
        MOV     A,#0x1c
        LCALL   ?XSTACK_DISP0_8
        MOVX    A,@DPTR
        JNZ     ??INTERP_DataIndication_1
        MOV     A,#0x1d
        LCALL   ?XSTACK_DISP0_8
        MOVX    A,@DPTR
        JNZ     ??INTERP_DataIndication_1
        MOV     A,#0x1e
        LCALL   ?XSTACK_DISP0_8
        MOVX    A,@DPTR
        JNZ     ??INTERP_DataIndication_1
        MOV     A,#0x30
        LCALL   ?XSTACK_DISP0_8
        MOVX    A,@DPTR
        JNZ     ??INTERP_DataIndication_1
        MOV     A,#0x1f
        LCALL   ?XSTACK_DISP0_8
        MOVX    A,@DPTR
        JNZ     ??INTERP_DataIndication_1
        MOV     A,#0x20
        LCALL   ?XSTACK_DISP0_8
        MOVX    A,@DPTR
        JZ      ??INTERP_DataIndication_2
//  866   {
//  867     return;
??INTERP_DataIndication_1:
        LJMP    ??INTERP_DataIndication_0 & 0xFFFF
//  868   }
//  869   
//  870   // parse the Stub APS header
//  871   StubAPS_ParseMsg( &snff, &saff );
??INTERP_DataIndication_2:
        ; Setup parameters for call to function StubAPS_ParseMsg
        MOV     A,#0x3
        LCALL   ?XSTACK_DISP0_8
        MOV     R4,DPL
        MOV     R5,DPH
        MOV     A,#0x18
        LCALL   ?XSTACK_DISP0_8
        MOV     R2,DPL
        MOV     R3,DPH
        LCALL   ??StubAPS_ParseMsg?relay
//  872 
//  873   // check if incoming frame is of the right type
//  874   if ( ( saff.FrmCtrl & APS_FRAME_TYPE_MASK ) != STUB_APS_FRAME )
        MOV     A,#0x3
        LCALL   ?XSTACK_DISP0_8
        MOVX    A,@DPTR
        ANL     A,#0x3
        XRL     A,#0x3
        JZ      $+5
        LJMP    ??INTERP_DataIndication_0 & 0xFFFF
//  875     return;
//  876    
//  877   // check if delivery mode is of the right type
//  878   if ( ( saff.FrmCtrl & APS_DELIVERYMODE_MASK ) == APS_FC_DM_INDIRECT )
        MOV     A,#0x3
        LCALL   ?XSTACK_DISP0_8
        MOVX    A,@DPTR
        ANL     A,#0xc
        XRL     A,#0x4
        JNZ     $+5
        LJMP    ??INTERP_DataIndication_0 & 0xFFFF
//  879     return;
//  880   
//  881   // check if incoming frame is unsecured
//  882   if ( saff.FrmCtrl & APS_FC_SECURITY )
        MOV     A,#0x3
        LCALL   ?XSTACK_DISP0_8
        MOVX    A,@DPTR
        MOV     C,0xE0 /* A   */.5
        JNC     $+5
        LJMP    ??INTERP_DataIndication_0 & 0xFFFF
//  883     return;
//  884   
//  885   // check if there's no extended header
//  886   if ( saff.FrmCtrl & APS_FC_EXTENDED )
        MOV     A,#0x3
        LCALL   ?XSTACK_DISP0_8
        MOVX    A,@DPTR
        MOV     C,0xE0 /* A   */.7
        JNC     $+5
        LJMP    ??INTERP_DataIndication_0 & 0xFFFF
//  887       return;
//  888   
//  889   // Set the endpoints
//  890   saff.DstEndPoint = appEndPoint;
        MOV     DPTR,#appEndPoint
        MOVX    A,@DPTR
        PUSH    A
        CFI CFA_SP SP+-1
        MOV     A,#0x5
        LCALL   ?XSTACK_DISP0_8
        POP     A
        CFI CFA_SP SP+0
        MOVX    @DPTR,A
//  891   saff.SrcEndPoint = STUBAPS_INTER_PAN_EP;
        MOV     A,#0x6
        LCALL   ?XSTACK_DISP0_8
        MOV     A,#-0x2
        MOVX    @DPTR,A
//  892   
//  893   // Set the signal strength information
//  894   sig.LinkQuality = dataInd->mac.mpduLinkQuality;
        MOV     A,R6
        ADD     A,#0x2e
        MOV     DPL,A
        MOV     A,R7
        ADDC    A,#0x0
        MOV     DPH,A
        MOVX    A,@DPTR
        MOV     DPL,?XSP + 0
        MOV     DPH,?XSP + 1
        MOVX    @DPTR,A
//  895   sig.correlation = dataInd->mac.correlation;
        MOV     A,R6
        ADD     A,#0x2f
        MOV     DPL,A
        MOV     A,R7
        ADDC    A,#0x0
        MOV     DPH,A
        MOVX    A,@DPTR
        PUSH    A
        CFI CFA_SP SP+-1
        MOV     A,#0x1
        LCALL   ?XSTACK_DISP0_8
        POP     A
        CFI CFA_SP SP+0
        MOVX    @DPTR,A
//  896   sig.rssi = dataInd->mac.rssi;
        MOV     A,R6
        ADD     A,#0x30
        MOV     DPL,A
        MOV     A,R7
        ADDC    A,#0x0
        MOV     DPH,A
        MOVX    A,@DPTR
        PUSH    A
        CFI CFA_SP SP+-1
        MOV     A,#0x2
        LCALL   ?XSTACK_DISP0_8
        POP     A
        CFI CFA_SP SP+0
        MOVX    @DPTR,A
//  897   
//  898   APSDE_DataIndication( &saff, &srcAddr, dataInd->mac.srcPanId, 
//  899                         &sig, snff.broadcastId, FALSE, dataInd->mac.timestamp );
        ; Setup parameters for call to function APSDE_DataIndication
        MOV     A,R6
        ADD     A,#0x24
        MOV     DPL,A
        MOV     A,R7
        ADDC    A,#0x0
        MOV     DPH,A
        LCALL   ?PUSH_XSTACK8_X_FOUR
        CFI CFA_XSP16 add(XSP16, 78)
        MOV     ?V0 + 0,#0x0
        MOV     R0,#?V0 + 0
        LCALL   ?PUSH_XSTACK_I_ONE
        CFI CFA_XSP16 add(XSP16, 79)
        MOV     A,#0x5
        LCALL   ?XSTACK_DISP0_8
        MOV     ?V0 + 0,DPL
        MOV     ?V0 + 1,DPH
        MOV     R0,#?V0 + 0
        LCALL   ?PUSH_XSTACK_I_TWO
        CFI CFA_XSP16 add(XSP16, 81)
        MOV     A,R6
        ADD     A,#0x2a
        MOV     DPL,A
        MOV     A,R7
        ADDC    A,#0x0
        MOV     DPH,A
        LCALL   ?PUSH_XSTACK8_X_TWO
        CFI CFA_XSP16 add(XSP16, 83)
        MOV     A,#0x33
        LCALL   ?XSTACK_DISP0_8
        MOVX    A,@DPTR
        MOV     R1,A
        MOV     A,#0x40
        LCALL   ?XSTACK_DISP0_8
        MOV     R4,DPL
        MOV     R5,DPH
        MOV     A,#0xc
        LCALL   ?XSTACK_DISP0_8
        MOV     R2,DPL
        MOV     R3,DPH
        LCALL   ??APSDE_DataIndication?relay
        MOV     A,#0x9
        LCALL   ?DEALLOC_XSTACK8
        CFI CFA_XSP16 add(XSP16, 74)
//  900 
//  901 } /* INTERP_DataIndication */
??INTERP_DataIndication_0:
        MOV     A,#0x40
        LCALL   ?DEALLOC_XSTACK8
        CFI CFA_XSP16 add(XSP16, 10)
        MOV     R7,#0x2
        LJMP    ?BANKED_LEAVE_XDATA
        CFI EndBlock cfiBlock17

        RSEG XDATA_ID:CODE:NOROOT(0)
`?<Initializer for StubAPS_TaskID>`:
        DATA8
        DB 255

        RSEG XDATA_ID:CODE:NOROOT(0)
`?<Initializer for appTaskID>`:
        DATA8
        DB 255

        RSEG BANK_RELAYS:CODE:REORDER:NOROOT(0)
??StubAPS_Init?relay:
        LCALL   ?BDISPATCH
        DATA
        DC24    StubAPS_Init

        RSEG BANK_RELAYS:CODE:REORDER:NOROOT(0)
??StubAPS_ProcessEvent?relay:
        LCALL   ?BDISPATCH
        DATA
        DC24    StubAPS_ProcessEvent

        RSEG BANK_RELAYS:CODE:REORDER:NOROOT(0)
??StubNWK_ParseMsg?relay:
        LCALL   ?BDISPATCH
        DATA
        DC24    StubNWK_ParseMsg

        RSEG BANK_RELAYS:CODE:REORDER:NOROOT(0)
??StubAPS_ParseMsg?relay:
        LCALL   ?BDISPATCH
        DATA
        DC24    StubAPS_ParseMsg

        RSEG BANK_RELAYS:CODE:REORDER:NOROOT(0)
??StubAPS_BuildFrameControl?relay:
        LCALL   ?BDISPATCH
        DATA
        DC24    StubAPS_BuildFrameControl

        RSEG BANK_RELAYS:CODE:REORDER:NOROOT(0)
??StubNWK_BuildMsg?relay:
        LCALL   ?BDISPATCH
        DATA
        DC24    StubNWK_BuildMsg

        RSEG BANK_RELAYS:CODE:REORDER:NOROOT(0)
??StubAPS_BuildMsg?relay:
        LCALL   ?BDISPATCH
        DATA
        DC24    StubAPS_BuildMsg

        RSEG BANK_RELAYS:CODE:REORDER:NOROOT(0)
??StubAPS_SetNewChannel?relay:
        LCALL   ?BDISPATCH
        DATA
        DC24    StubAPS_SetNewChannel

        RSEG BANK_RELAYS:CODE:REORDER:NOROOT(0)
??StubAPS_NotifyApp?relay:
        LCALL   ?BDISPATCH
        DATA
        DC24    StubAPS_NotifyApp

        RSEG BANK_RELAYS:CODE:REORDER:NOROOT(0)
??StubAPS_SetInterPanChannel?relay:
        LCALL   ?BDISPATCH
        DATA
        DC24    StubAPS_SetInterPanChannel

        RSEG BANK_RELAYS:CODE:REORDER:NOROOT(0)
??StubAPS_SetIntraPanChannel?relay:
        LCALL   ?BDISPATCH
        DATA
        DC24    StubAPS_SetIntraPanChannel

        RSEG BANK_RELAYS:CODE:REORDER:NOROOT(0)
??StubAPS_InterPan?relay:
        LCALL   ?BDISPATCH
        DATA
        DC24    StubAPS_InterPan

        RSEG BANK_RELAYS:CODE:REORDER:NOROOT(0)
??StubAPS_RegisterApp?relay:
        LCALL   ?BDISPATCH
        DATA
        DC24    StubAPS_RegisterApp

        RSEG BANK_RELAYS:CODE:REORDER:NOROOT(0)
??StubAPS_ZMacCallback?relay:
        LCALL   ?BDISPATCH
        DATA
        DC24    StubAPS_ZMacCallback

        RSEG BANK_RELAYS:CODE:REORDER:NOROOT(0)
??INTERP_DataReq?relay:
        LCALL   ?BDISPATCH
        DATA
        DC24    INTERP_DataReq

        RSEG BANK_RELAYS:CODE:REORDER:NOROOT(0)
??INTERP_DataReqMTU?relay:
        LCALL   ?BDISPATCH
        DATA
        DC24    INTERP_DataReqMTU

        RSEG BANK_RELAYS:CODE:REORDER:NOROOT(0)
??INTERP_DataConfirm?relay:
        LCALL   ?BDISPATCH
        DATA
        DC24    INTERP_DataConfirm

        RSEG BANK_RELAYS:CODE:REORDER:NOROOT(0)
??INTERP_DataIndication?relay:
        LCALL   ?BDISPATCH
        DATA
        DC24    INTERP_DataIndication

        END
//  902 
//  903 
//  904 /*********************************************************************
//  905 *********************************************************************/
// 
// 3 260 bytes in segment BANKED_CODE
//   108 bytes in segment BANK_RELAYS
//     2 bytes in segment XDATA_I
//     2 bytes in segment XDATA_ID
//     3 bytes in segment XDATA_Z
// 
// 3 370 bytes of CODE  memory
//     5 bytes of XDATA memory
//
//Errors: none
//Warnings: none
