###############################################################################
#                                                                             #
# IAR C/C++ Compiler V8.10.1.10194/W32 for 8051         14/Jul/2015  13:43:40 #
# Copyright 2004-2011 IAR Systems AB.                                         #
#                                                                             #
#    Core               =  plain                                              #
#    Code model         =  banked                                             #
#    Data model         =  large                                              #
#    Calling convention =  xdata reentrant                                    #
#    Constant location  =  data_rom                                           #
#    Dptr setup         =  1,16                                               #
#    Source file        =  C:\Texas Instruments\ZStack-CC2530-2.5.1a\Componen #
#                          ts\stack\zdo\ZDConfig.c                            #
#    Command line       =  -f "C:\Texas Instruments\ZStack-CC2530-2.5.1a\Proj #
#                          ects\zstack\Samples\WirelessMonitorSystem\CC2530DB #
#                          \..\..\..\Tools\CC2530DB\f8wEndev.cfg"             #
#                          (-DCPU32MHZ -DROOT=__near_func                     #
#                          -DMAC_CFG_TX_DATA_MAX=3 -DMAC_CFG_TX_MAX=6         #
#                          -DMAC_CFG_RX_MAX=3) -f "C:\Texas                   #
#                          Instruments\ZStack-CC2530-2.5.1a\Projects\zstack\S #
#                          amples\WirelessMonitorSystem\CC2530DB\..\..\..\Too #
#                          ls\CC2530DB\f8wConfig.cfg" (-DZIGBEEPRO            #
#                          -DSECURE=0 -DZG_SECURE_DYNAMIC=0 -DREFLECTOR       #
#                          -DDEFAULT_CHANLIST=0x00000800                      #
#                          -DZDAPP_CONFIG_PAN_ID=0xFFFF                       #
#                          -DNWK_START_DELAY=100 -DEXTENDED_JOINING_RANDOM_MA #
#                          SK=0x007F -DBEACON_REQUEST_DELAY=100               #
#                          -DBEACON_REQ_DELAY_MASK=0x00FF                     #
#                          -DLINK_STATUS_JITTER_MASK=0x007F                   #
#                          -DROUTE_EXPIRY_TIME=30 -DAPSC_ACK_WAIT_DURATION_PO #
#                          LLED=3000 -DNWK_INDIRECT_MSG_TIMEOUT=7             #
#                          -DMAX_RREQ_ENTRIES=8 -DAPSC_MAX_FRAME_RETRIES=3    #
#                          -DNWK_MAX_DATA_RETRIES=2                           #
#                          -DMAX_POLL_FAILURE_RETRIES=2 -DMAX_BCAST=9         #
#                          -DAPS_MAX_GROUPS=16 -DMAX_RTG_ENTRIES=40           #
#                          -DNWK_MAX_BINDING_ENTRIES=4                        #
#                          -DMAX_BINDING_CLUSTER_IDS=4 "-DDEFAULT_KEY={0x01,  #
#                          0x03, 0x05, 0x07, 0x09, 0x0B, 0x0D, 0x0F, 0x00,    #
#                          0x02, 0x04, 0x06, 0x08, 0x0A, 0x0C, 0x0D}"         #
#                          -DMAC_MAX_FRAME_SIZE=116                           #
#                          -DZDNWKMGR_MIN_TRANSMISSIONS=20 "-DCONST=const     #
#                          __code" -DGENERIC=__generic                        #
#                          -DRFD_RCVC_ALWAYS_ON=FALSE -DPOLL_RATE=500         #
#                          -DQUEUED_POLL_RATE=30 -DRESPONSE_POLL_RATE=100)    #
#                          -DREJOIN_POLL_RATE=440 "C:\Texas                   #
#                          Instruments\ZStack-CC2530-2.5.1a\Components\stack\ #
#                          zdo\ZDConfig.c" -D HAL_UART -lC "C:\Texas          #
#                          Instruments\ZStack-CC2530-2.5.1a\Projects\zstack\S #
#                          amples\WirelessMonitorSystem\CC2530DB\LCD\List\"   #
#                          -lA "C:\Texas Instruments\ZStack-CC2530-2.5.1a\Pro #
#                          jects\zstack\Samples\WirelessMonitorSystem\CC2530D #
#                          B\LCD\List\" --diag_suppress Pe001,Pa010 -o        #
#                          "C:\Texas Instruments\ZStack-CC2530-2.5.1a\Project #
#                          s\zstack\Samples\WirelessMonitorSystem\CC2530DB\LC #
#                          D\Obj\" -e --no_cse --no_unroll --no_inline        #
#                          --no_code_motion --no_tbaa --debug --core=plain    #
#                          --dptr=16,1 --data_model=large                     #
#                          --code_model=banked --calling_convention=xdata_ree #
#                          ntrant --place_constants=data_rom                  #
#                          --nr_virtual_regs 16 -I "C:\Texas                  #
#                          Instruments\ZStack-CC2530-2.5.1a\Projects\zstack\S #
#                          amples\WirelessMonitorSystem\CC2530DB\" -I         #
#                          "C:\Texas Instruments\ZStack-CC2530-2.5.1a\Project #
#                          s\zstack\Samples\WirelessMonitorSystem\CC2530DB\.. #
#                          \Source\" -I "C:\Texas Instruments\ZStack-CC2530-2 #
#                          .5.1a\Projects\zstack\Samples\WirelessMonitorSyste #
#                          m\CC2530DB\..\..\..\ZMain\TI2530DB\" -I "C:\Texas  #
#                          Instruments\ZStack-CC2530-2.5.1a\Projects\zstack\S #
#                          amples\WirelessMonitorSystem\CC2530DB\..\..\..\..\ #
#                          ..\Components\hal\include\" -I "C:\Texas           #
#                          Instruments\ZStack-CC2530-2.5.1a\Projects\zstack\S #
#                          amples\WirelessMonitorSystem\CC2530DB\..\..\..\..\ #
#                          ..\Components\hal\target\CC2530EB\" -I "C:\Texas   #
#                          Instruments\ZStack-CC2530-2.5.1a\Projects\zstack\S #
#                          amples\WirelessMonitorSystem\CC2530DB\..\..\..\..\ #
#                          ..\Components\mac\include\" -I "C:\Texas           #
#                          Instruments\ZStack-CC2530-2.5.1a\Projects\zstack\S #
#                          amples\WirelessMonitorSystem\CC2530DB\..\..\..\..\ #
#                          ..\Components\mac\high_level\" -I "C:\Texas        #
#                          Instruments\ZStack-CC2530-2.5.1a\Projects\zstack\S #
#                          amples\WirelessMonitorSystem\CC2530DB\..\..\..\..\ #
#                          ..\Components\mac\low_level\srf04\" -I "C:\Texas   #
#                          Instruments\ZStack-CC2530-2.5.1a\Projects\zstack\S #
#                          amples\WirelessMonitorSystem\CC2530DB\..\..\..\..\ #
#                          ..\Components\mac\low_level\srf04\single_chip\"    #
#                          -I "C:\Texas Instruments\ZStack-CC2530-2.5.1a\Proj #
#                          ects\zstack\Samples\WirelessMonitorSystem\CC2530DB #
#                          \..\..\..\..\..\Components\mt\" -I "C:\Texas       #
#                          Instruments\ZStack-CC2530-2.5.1a\Projects\zstack\S #
#                          amples\WirelessMonitorSystem\CC2530DB\..\..\..\..\ #
#                          ..\Components\osal\include\" -I "C:\Texas          #
#                          Instruments\ZStack-CC2530-2.5.1a\Projects\zstack\S #
#                          amples\WirelessMonitorSystem\CC2530DB\..\..\..\..\ #
#                          ..\Components\services\saddr\" -I "C:\Texas        #
#                          Instruments\ZStack-CC2530-2.5.1a\Projects\zstack\S #
#                          amples\WirelessMonitorSystem\CC2530DB\..\..\..\..\ #
#                          ..\Components\services\sdata\" -I "C:\Texas        #
#                          Instruments\ZStack-CC2530-2.5.1a\Projects\zstack\S #
#                          amples\WirelessMonitorSystem\CC2530DB\..\..\..\..\ #
#                          ..\Components\stack\af\" -I "C:\Texas              #
#                          Instruments\ZStack-CC2530-2.5.1a\Projects\zstack\S #
#                          amples\WirelessMonitorSystem\CC2530DB\..\..\..\..\ #
#                          ..\Components\stack\nwk\" -I "C:\Texas             #
#                          Instruments\ZStack-CC2530-2.5.1a\Projects\zstack\S #
#                          amples\WirelessMonitorSystem\CC2530DB\..\..\..\..\ #
#                          ..\Components\stack\sapi\" -I "C:\Texas            #
#                          Instruments\ZStack-CC2530-2.5.1a\Projects\zstack\S #
#                          amples\WirelessMonitorSystem\CC2530DB\..\..\..\..\ #
#                          ..\Components\stack\sec\" -I "C:\Texas             #
#                          Instruments\ZStack-CC2530-2.5.1a\Projects\zstack\S #
#                          amples\WirelessMonitorSystem\CC2530DB\..\..\..\..\ #
#                          ..\Components\stack\sys\" -I "C:\Texas             #
#                          Instruments\ZStack-CC2530-2.5.1a\Projects\zstack\S #
#                          amples\WirelessMonitorSystem\CC2530DB\..\..\..\..\ #
#                          ..\Components\stack\zdo\" -I "C:\Texas             #
#                          Instruments\ZStack-CC2530-2.5.1a\Projects\zstack\S #
#                          amples\WirelessMonitorSystem\CC2530DB\..\..\..\..\ #
#                          ..\Components\zmac\" -I "C:\Texas                  #
#                          Instruments\ZStack-CC2530-2.5.1a\Projects\zstack\S #
#                          amples\WirelessMonitorSystem\CC2530DB\..\..\..\..\ #
#                          ..\Components\zmac\f8w\" -On --require_prototypes  #
#    List file          =  C:\Texas Instruments\ZStack-CC2530-2.5.1a\Projects #
#                          \zstack\Samples\WirelessMonitorSystem\CC2530DB\LCD #
#                          \List\ZDConfig.lst                                 #
#    Object file        =  C:\Texas Instruments\ZStack-CC2530-2.5.1a\Projects #
#                          \zstack\Samples\WirelessMonitorSystem\CC2530DB\LCD #
#                          \Obj\ZDConfig.r51                                  #
#                                                                             #
#                                                                             #
###############################################################################

C:\Texas Instruments\ZStack-CC2530-2.5.1a\Components\stack\zdo\ZDConfig.c
      1          /**************************************************************************************************
      2            Filename:       ZDConfig.c
      3            Revised:        $Date: 2008-02-12 16:32:50 -0800 (Tue, 12 Feb 2008) $
      4            Revision:       $Revision: 16393 $
      5          
      6          
      7            Description:    This file contains the configuration attributes for the Zigbee Device Object.
      8                            These are references to Configuration items that MUST be defined in ZDApp.c.
      9                            The names mustn't change.
     10          
     11          
     12            Copyright 2004-2007 Texas Instruments Incorporated. All rights reserved.
     13          
     14            IMPORTANT: Your use of this Software is limited to those specific rights
     15            granted under the terms of a software license agreement between the user
     16            who downloaded the software, his/her employer (which must be your employer)
     17            and Texas Instruments Incorporated (the "License").  You may not use this
     18            Software unless you agree to abide by the terms of the License. The License
     19            limits your use, and you acknowledge, that the Software may not be modified,
     20            copied or distributed unless embedded on a Texas Instruments microcontroller
     21            or used solely and exclusively in conjunction with a Texas Instruments radio
     22            frequency transceiver, which is integrated into your product.  Other than for
     23            the foregoing purpose, you may not use, reproduce, copy, prepare derivative
     24            works of, modify, distribute, perform, display or sell this Software and/or
     25            its documentation for any purpose.
     26          
     27            YOU FURTHER ACKNOWLEDGE AND AGREE THAT THE SOFTWARE AND DOCUMENTATION ARE
     28            PROVIDED “AS IS” WITHOUT WARRANTY OF ANY KIND, EITHER EXPRESS OR IMPLIED, 
     29            INCLUDING WITHOUT LIMITATION, ANY WARRANTY OF MERCHANTABILITY, TITLE, 
     30            NON-INFRINGEMENT AND FITNESS FOR A PARTICULAR PURPOSE. IN NO EVENT SHALL
     31            TEXAS INSTRUMENTS OR ITS LICENSORS BE LIABLE OR OBLIGATED UNDER CONTRACT,
     32            NEGLIGENCE, STRICT LIABILITY, CONTRIBUTION, BREACH OF WARRANTY, OR OTHER
     33            LEGAL EQUITABLE THEORY ANY DIRECT OR INDIRECT DAMAGES OR EXPENSES
     34            INCLUDING BUT NOT LIMITED TO ANY INCIDENTAL, SPECIAL, INDIRECT, PUNITIVE
     35            OR CONSEQUENTIAL DAMAGES, LOST PROFITS OR LOST DATA, COST OF PROCUREMENT
     36            OF SUBSTITUTE GOODS, TECHNOLOGY, SERVICES, OR ANY CLAIMS BY THIRD PARTIES
     37            (INCLUDING BUT NOT LIMITED TO ANY DEFENSE THEREOF), OR OTHER SIMILAR COSTS.
     38          
     39            Should you have any questions regarding your right to use this Software,
     40            contact Texas Instruments Incorporated at www.TI.com. 
     41          **************************************************************************************************/
     42          
     43          /*********************************************************************
     44           * INCLUDES
     45           */
     46          #include "ZComdef.h"
     47          #include "AF.h"
     48          #include "ZDObject.h"
     49          #include "ZDConfig.h"
     50          
     51           /*********************************************************************
     52           * MACROS
     53           */
     54          
     55          /*********************************************************************
     56           * CONSTANTS
     57           */
     58          
     59          /*********************************************************************
     60           * TYPEDEFS
     61           */
     62          
     63          /*********************************************************************
     64           * GLOBAL VARIABLES
     65           */

   \                                 In  segment XDATA_Z, align 1, keep-with-next
     66          NodeDescriptorFormat_t ZDO_Config_Node_Descriptor;
   \                     ZDO_Config_Node_Descriptor:
   \   000000                DS 13
   \   00000D                REQUIRE __INIT_XDATA_Z

   \                                 In  segment XDATA_Z, align 1, keep-with-next
     67          NodePowerDescriptorFormat_t ZDO_Config_Power_Descriptor;
   \                     ZDO_Config_Power_Descriptor:
   \   000000                DS 2
   \   000002                REQUIRE __INIT_XDATA_Z
     68          
     69          /*********************************************************************
     70           * EXTERNAL VARIABLES
     71           */
     72          
     73          /*********************************************************************
     74           * EXTERNAL FUNCTIONS
     75           */
     76          
     77          /*********************************************************************
     78           * LOCAL FUNCTIONS
     79           */
     80          
     81          /*********************************************************************
     82           * LOCAL VARIABLES
     83           */
     84          
     85          /*********************************************************************
     86           * @fn      ZDConfig_InitDescriptors()
     87           *
     88           * @brief   Setup the ZDO descriptors 
     89           *             Node, Power
     90           *
     91           * @param   none
     92           *
     93           * @return  none
     94           */

   \                                 In  segment BANKED_CODE, align 1, keep-with-next
     95          void ZDConfig_InitDescriptors( void )
   \                     ZDConfig_InitDescriptors:
     96          {
   \   000000   C082         PUSH    DPL
   \   000002   C083         PUSH    DPH
   \   000004                ; Saved register size: 2
   \   000004                ; Auto size: 0
     97            ZDConfig_UpdateNodeDescriptor();
   \   000004                ; Setup parameters for call to function ZDConfig_UpdateNodeDescriptor
   \   000004   12....       LCALL   ??ZDConfig_UpdateNodeDescriptor?relay
     98            ZDConfig_UpdatePowerDescriptor();
   \   000007                ; Setup parameters for call to function ZDConfig_UpdatePowerDescriptor
   \   000007   12....       LCALL   ??ZDConfig_UpdatePowerDescriptor?relay
     99          }
   \   00000A   D083         POP     DPH
   \   00000C   D082         POP     DPL
   \   00000E   02....       LJMP    ?BRET
    100          
    101          /*********************************************************************
    102           * @fn      ZDConfig_UpdateNodeDescriptor()
    103           *
    104           * @brief   Update the ZDO Node Descriptor 
    105           *
    106           * @param   none
    107           *
    108           * @return  none
    109           */

   \                                 In  segment BANKED_CODE, align 1, keep-with-next
    110          void ZDConfig_UpdateNodeDescriptor( void )
   \                     ZDConfig_UpdateNodeDescriptor:
    111          {
   \   000000   C082         PUSH    DPL
   \   000002   C083         PUSH    DPH
   \   000004                ; Saved register size: 2
   \   000004                ; Auto size: 0
    112            // Build the Node Descriptor
    113            if ( ZG_BUILD_COORDINATOR_TYPE && ZG_DEVICE_COORDINATOR_TYPE )
    114              ZDO_Config_Node_Descriptor.LogicalType = NODETYPE_COORDINATOR;
    115            else if ( ZSTACK_ROUTER_BUILD )
    116              ZDO_Config_Node_Descriptor.LogicalType = NODETYPE_ROUTER;
    117            else if ( ZSTACK_END_DEVICE_BUILD )
    118              ZDO_Config_Node_Descriptor.LogicalType = NODETYPE_DEVICE;
   \   000004   90....       MOV     DPTR,#ZDO_Config_Node_Descriptor
   \   000007   E0           MOVX    A,@DPTR
   \   000008   54F8         ANL     A,#0xf8
   \   00000A   4402         ORL     A,#0x2
   \   00000C   90....       MOV     DPTR,#ZDO_Config_Node_Descriptor
   \   00000F   F0           MOVX    @DPTR,A
    119            
    120            ZDO_Config_Node_Descriptor.ComplexDescAvail = FALSE;      // set elsewhere
   \   000010   90....       MOV     DPTR,#ZDO_Config_Node_Descriptor
   \   000013   E0           MOVX    A,@DPTR
   \   000014   C2E3         CLR     0xE0 /* A   */.3
   \   000016   F0           MOVX    @DPTR,A
    121            ZDO_Config_Node_Descriptor.UserDescAvail = FALSE;         // set elsewhere
   \   000017   90....       MOV     DPTR,#ZDO_Config_Node_Descriptor
   \   00001A   E0           MOVX    A,@DPTR
   \   00001B   C2E4         CLR     0xE0 /* A   */.4
   \   00001D   F0           MOVX    @DPTR,A
    122            ZDO_Config_Node_Descriptor.Reserved = 0;                  // Reserved
   \   00001E   90....       MOV     DPTR,#ZDO_Config_Node_Descriptor
   \   000021   E0           MOVX    A,@DPTR
   \   000022   541F         ANL     A,#0x1f
   \   000024   F0           MOVX    @DPTR,A
    123            ZDO_Config_Node_Descriptor.APSFlags = 0;                  // NO APS flags
   \   000025   90....       MOV     DPTR,#ZDO_Config_Node_Descriptor + 1
   \   000028   E0           MOVX    A,@DPTR
   \   000029   54F8         ANL     A,#0xf8
   \   00002B   F0           MOVX    @DPTR,A
    124            ZDO_Config_Node_Descriptor.FrequencyBand = NODEFREQ_2400; // Frequency Band
   \   00002C   90....       MOV     DPTR,#ZDO_Config_Node_Descriptor + 1
   \   00002F   E0           MOVX    A,@DPTR
   \   000030   5407         ANL     A,#0x7
   \   000032   4440         ORL     A,#0x40
   \   000034   90....       MOV     DPTR,#ZDO_Config_Node_Descriptor + 1
   \   000037   F0           MOVX    @DPTR,A
    125            
    126            // MAC Capabilities
    127            if ( ZSTACK_ROUTER_BUILD )
    128            {
    129              ZDO_Config_Node_Descriptor.CapabilityFlags 
    130                        = (CAPINFO_DEVICETYPE_FFD | CAPINFO_POWER_AC | CAPINFO_RCVR_ON_IDLE);
    131              
    132              if ( ZG_BUILD_COORDINATOR_TYPE && ZG_DEVICE_COORDINATOR_TYPE )
    133                ZDO_Config_Node_Descriptor.CapabilityFlags |= CAPINFO_ALTPANCOORD;
    134            }
    135            else if ( ZSTACK_END_DEVICE_BUILD )
    136            {
    137              ZDO_Config_Node_Descriptor.CapabilityFlags = (CAPINFO_DEVICETYPE_RFD
    138            #if ( RFD_RCVC_ALWAYS_ON == TRUE)
    139                      | CAPINFO_RCVR_ON_IDLE
    140            #endif
    141                  );
   \   000038   90....       MOV     DPTR,#ZDO_Config_Node_Descriptor + 2
   \   00003B   7400         MOV     A,#0x0
   \   00003D   F0           MOVX    @DPTR,A
    142            }
    143            
    144            // Manufacturer Code - *YOU FILL IN*
    145            ZDO_Config_Node_Descriptor.ManufacturerCode[0] = 0;
   \   00003E   90....       MOV     DPTR,#ZDO_Config_Node_Descriptor + 3
   \   000041   7400         MOV     A,#0x0
   \   000043   F0           MOVX    @DPTR,A
    146            ZDO_Config_Node_Descriptor.ManufacturerCode[1] = 0;
   \   000044   90....       MOV     DPTR,#ZDO_Config_Node_Descriptor + 4
   \   000047   7400         MOV     A,#0x0
   \   000049   F0           MOVX    @DPTR,A
    147            
    148            // Maximum Buffer Size
    149            ZDO_Config_Node_Descriptor.MaxBufferSize = MAX_BUFFER_SIZE;
   \   00004A   90....       MOV     DPTR,#ZDO_Config_Node_Descriptor + 5
   \   00004D   7450         MOV     A,#0x50
   \   00004F   F0           MOVX    @DPTR,A
    150          
    151            // Maximum Incoming Transfer Size Field
    152            ZDO_Config_Node_Descriptor.MaxInTransferSize[0] = LO_UINT16( MAX_TRANSFER_SIZE );
   \   000050   90....       MOV     DPTR,#ZDO_Config_Node_Descriptor + 6
   \   000053   74A0         MOV     A,#-0x60
   \   000055   F0           MOVX    @DPTR,A
    153            ZDO_Config_Node_Descriptor.MaxInTransferSize[1] = HI_UINT16( MAX_TRANSFER_SIZE );
   \   000056   90....       MOV     DPTR,#ZDO_Config_Node_Descriptor + 7
   \   000059   7400         MOV     A,#0x0
   \   00005B   F0           MOVX    @DPTR,A
    154            
    155            // Maximum Outgoing Transfer Size Field
    156            ZDO_Config_Node_Descriptor.MaxOutTransferSize[0] = LO_UINT16( MAX_TRANSFER_SIZE );
   \   00005C   90....       MOV     DPTR,#ZDO_Config_Node_Descriptor + 10
   \   00005F   74A0         MOV     A,#-0x60
   \   000061   F0           MOVX    @DPTR,A
    157            ZDO_Config_Node_Descriptor.MaxOutTransferSize[1] = HI_UINT16( MAX_TRANSFER_SIZE );
   \   000062   90....       MOV     DPTR,#ZDO_Config_Node_Descriptor + 11
   \   000065   7400         MOV     A,#0x0
   \   000067   F0           MOVX    @DPTR,A
    158            
    159            // Server Mask
    160            ZDO_Config_Node_Descriptor.ServerMask = 0;
   \   000068   90....       MOV     DPTR,#ZDO_Config_Node_Descriptor + 8
   \   00006B   7400         MOV     A,#0x0
   \   00006D   F0           MOVX    @DPTR,A
   \   00006E   A3           INC     DPTR
   \   00006F   7400         MOV     A,#0x0
   \   000071   F0           MOVX    @DPTR,A
    161            
    162            // Descriptor Capability Field - extended active endpoint list and 
    163            // extended simple descriptor are not supported.
    164            ZDO_Config_Node_Descriptor.DescriptorCapability = 0;
   \   000072   90....       MOV     DPTR,#ZDO_Config_Node_Descriptor + 12
   \   000075   7400         MOV     A,#0x0
   \   000077   F0           MOVX    @DPTR,A
    165          }
   \   000078   D083         POP     DPH
   \   00007A   D082         POP     DPL
   \   00007C   02....       LJMP    ?BRET
    166          
    167          /*********************************************************************
    168           * @fn      ZDConfig_UpdatePowerDescriptor()
    169           *
    170           * @brief   Update the ZDO Power Descriptor 
    171           *
    172           * @param   none
    173           *
    174           * @return  none
    175           */

   \                                 In  segment BANKED_CODE, align 1, keep-with-next
    176          void ZDConfig_UpdatePowerDescriptor( void )
   \                     ZDConfig_UpdatePowerDescriptor:
    177          {
   \   000000   C082         PUSH    DPL
   \   000002   C083         PUSH    DPH
   \   000004                ; Saved register size: 2
   \   000004                ; Auto size: 0
    178            // Build the Power Descriptor  
    179            if ( ZSTACK_ROUTER_BUILD )
    180            {
    181              ZDO_Config_Power_Descriptor.PowerMode = NODECURPWR_RCVR_ALWAYS_ON;
    182              ZDO_Config_Power_Descriptor.AvailablePowerSources = NODEAVAILPWR_MAINS;
    183              ZDO_Config_Power_Descriptor.CurrentPowerSource = NODEAVAILPWR_MAINS;
    184              ZDO_Config_Power_Descriptor.CurrentPowerSourceLevel = NODEPOWER_LEVEL_100;
    185            }
    186            else if ( ZSTACK_END_DEVICE_BUILD )
    187            {
    188              if ( zgPollRate )
   \   000004   90....       MOV     DPTR,#zgPollRate
   \   000007   E0           MOVX    A,@DPTR
   \   000008   F8           MOV     R0,A
   \   000009   A3           INC     DPTR
   \   00000A   E0           MOVX    A,@DPTR
   \   00000B   F9           MOV     R1,A
   \   00000C   E8           MOV     A,R0
   \   00000D   49           ORL     A,R1
   \   00000E   601E         JZ      ??ZDConfig_UpdatePowerDescriptor_0
    189                ZDO_Config_Power_Descriptor.PowerMode = NODECURPWR_RCVR_AUTO;
   \   000010   90....       MOV     DPTR,#ZDO_Config_Power_Descriptor
   \   000013   E0           MOVX    A,@DPTR
   \   000014   54F0         ANL     A,#0xf0
   \   000016   F8           MOV     R0,A
   \   000017   A3           INC     DPTR
   \   000018   E0           MOVX    A,@DPTR
   \   000019   54FF         ANL     A,#0xff
   \   00001B   F9           MOV     R1,A
   \   00001C   E8           MOV     A,R0
   \   00001D   4401         ORL     A,#0x1
   \   00001F   F8           MOV     R0,A
   \   000020   E9           MOV     A,R1
   \   000021   4400         ORL     A,#0x0
   \   000023   F9           MOV     R1,A
   \   000024   90....       MOV     DPTR,#ZDO_Config_Power_Descriptor
   \   000027   E8           MOV     A,R0
   \   000028   F0           MOVX    @DPTR,A
   \   000029   A3           INC     DPTR
   \   00002A   E9           MOV     A,R1
   \   00002B   F0           MOVX    @DPTR,A
   \   00002C   801C         SJMP    ??ZDConfig_UpdatePowerDescriptor_1
    190              else
    191                ZDO_Config_Power_Descriptor.PowerMode = NODECURPWR_RCVR_STIM;
   \                     ??ZDConfig_UpdatePowerDescriptor_0:
   \   00002E   90....       MOV     DPTR,#ZDO_Config_Power_Descriptor
   \   000031   E0           MOVX    A,@DPTR
   \   000032   54F0         ANL     A,#0xf0
   \   000034   F8           MOV     R0,A
   \   000035   A3           INC     DPTR
   \   000036   E0           MOVX    A,@DPTR
   \   000037   54FF         ANL     A,#0xff
   \   000039   F9           MOV     R1,A
   \   00003A   E8           MOV     A,R0
   \   00003B   4402         ORL     A,#0x2
   \   00003D   F8           MOV     R0,A
   \   00003E   E9           MOV     A,R1
   \   00003F   4400         ORL     A,#0x0
   \   000041   F9           MOV     R1,A
   \   000042   90....       MOV     DPTR,#ZDO_Config_Power_Descriptor
   \   000045   E8           MOV     A,R0
   \   000046   F0           MOVX    @DPTR,A
   \   000047   A3           INC     DPTR
   \   000048   E9           MOV     A,R1
   \   000049   F0           MOVX    @DPTR,A
    192                
    193              ZDO_Config_Power_Descriptor.AvailablePowerSources = NODEAVAILPWR_RECHARGE;
   \                     ??ZDConfig_UpdatePowerDescriptor_1:
   \   00004A   90....       MOV     DPTR,#ZDO_Config_Power_Descriptor
   \   00004D   E0           MOVX    A,@DPTR
   \   00004E   540F         ANL     A,#0xf
   \   000050   F8           MOV     R0,A
   \   000051   A3           INC     DPTR
   \   000052   E0           MOVX    A,@DPTR
   \   000053   54FF         ANL     A,#0xff
   \   000055   F9           MOV     R1,A
   \   000056   E8           MOV     A,R0
   \   000057   4420         ORL     A,#0x20
   \   000059   F8           MOV     R0,A
   \   00005A   E9           MOV     A,R1
   \   00005B   4400         ORL     A,#0x0
   \   00005D   F9           MOV     R1,A
   \   00005E   90....       MOV     DPTR,#ZDO_Config_Power_Descriptor
   \   000061   E8           MOV     A,R0
   \   000062   F0           MOVX    @DPTR,A
   \   000063   A3           INC     DPTR
   \   000064   E9           MOV     A,R1
   \   000065   F0           MOVX    @DPTR,A
    194              ZDO_Config_Power_Descriptor.CurrentPowerSource = NODEAVAILPWR_RECHARGE;
   \   000066   90....       MOV     DPTR,#ZDO_Config_Power_Descriptor
   \   000069   E0           MOVX    A,@DPTR
   \   00006A   54FF         ANL     A,#0xff
   \   00006C   F8           MOV     R0,A
   \   00006D   A3           INC     DPTR
   \   00006E   E0           MOVX    A,@DPTR
   \   00006F   54F0         ANL     A,#0xf0
   \   000071   F9           MOV     R1,A
   \   000072   E8           MOV     A,R0
   \   000073   4400         ORL     A,#0x0
   \   000075   F8           MOV     R0,A
   \   000076   E9           MOV     A,R1
   \   000077   4402         ORL     A,#0x2
   \   000079   F9           MOV     R1,A
   \   00007A   90....       MOV     DPTR,#ZDO_Config_Power_Descriptor
   \   00007D   E8           MOV     A,R0
   \   00007E   F0           MOVX    @DPTR,A
   \   00007F   A3           INC     DPTR
   \   000080   E9           MOV     A,R1
   \   000081   F0           MOVX    @DPTR,A
    195              ZDO_Config_Power_Descriptor.CurrentPowerSourceLevel = NODEPOWER_LEVEL_66;
   \   000082   90....       MOV     DPTR,#ZDO_Config_Power_Descriptor
   \   000085   E0           MOVX    A,@DPTR
   \   000086   54FF         ANL     A,#0xff
   \   000088   F8           MOV     R0,A
   \   000089   A3           INC     DPTR
   \   00008A   E0           MOVX    A,@DPTR
   \   00008B   540F         ANL     A,#0xf
   \   00008D   F9           MOV     R1,A
   \   00008E   E8           MOV     A,R0
   \   00008F   4400         ORL     A,#0x0
   \   000091   F8           MOV     R0,A
   \   000092   E9           MOV     A,R1
   \   000093   4480         ORL     A,#0x80
   \   000095   F9           MOV     R1,A
   \   000096   90....       MOV     DPTR,#ZDO_Config_Power_Descriptor
   \   000099   E8           MOV     A,R0
   \   00009A   F0           MOVX    @DPTR,A
   \   00009B   A3           INC     DPTR
   \   00009C   E9           MOV     A,R1
   \   00009D   F0           MOVX    @DPTR,A
    196            }
    197          }
   \   00009E   D083         POP     DPH
   \   0000A0   D082         POP     DPL
   \   0000A2   02....       LJMP    ?BRET

   \                                 In  segment BANK_RELAYS, align 1
   \                     ??ZDConfig_InitDescriptors?relay:
   \   000000   12....       LCALL   ?BDISPATCH
   \   000003   ......       DC24    ZDConfig_InitDescriptors

   \                                 In  segment BANK_RELAYS, align 1
   \                     ??ZDConfig_UpdateNodeDescriptor?relay:
   \   000000   12....       LCALL   ?BDISPATCH
   \   000003   ......       DC24    ZDConfig_UpdateNodeDescriptor

   \                                 In  segment BANK_RELAYS, align 1
   \                     ??ZDConfig_UpdatePowerDescriptor?relay:
   \   000000   12....       LCALL   ?BDISPATCH
   \   000003   ......       DC24    ZDConfig_UpdatePowerDescriptor
    198          
    199          /*********************************************************************
    200          *********************************************************************/
    201          
    202          

   Maximum stack usage in bytes:

     Function                       ISTACK PSTACK XSTACK
     --------                       ------ ------ ------
     ZDConfig_InitDescriptors           2      0      0
       -> ZDConfig_UpdateNodeDescriptor
                                        4      0      0
       -> ZDConfig_UpdatePowerDescriptor
                                        4      0      0
     ZDConfig_UpdateNodeDescriptor      2      0      0
     ZDConfig_UpdatePowerDescriptor     2      0      0


   Segment part sizes:

     Function/Label                         Bytes
     --------------                         -----
     ZDO_Config_Node_Descriptor               13
     ZDO_Config_Power_Descriptor               2
     ZDConfig_InitDescriptors                 17
     ZDConfig_UpdateNodeDescriptor           127
     ZDConfig_UpdatePowerDescriptor          165
     ??ZDConfig_InitDescriptors?relay          6
     ??ZDConfig_UpdateNodeDescriptor?relay     6
     ??ZDConfig_UpdatePowerDescriptor?relay    6

 
 309 bytes in segment BANKED_CODE
  18 bytes in segment BANK_RELAYS
  15 bytes in segment XDATA_Z
 
 327 bytes of CODE  memory
  15 bytes of XDATA memory

Errors: none
Warnings: none
