###############################################################################
#                                                                             #
# IAR C/C++ Compiler V8.10.1.10194/W32 for 8051         14/Jul/2015  13:43:40 #
# Copyright 2004-2011 IAR Systems AB.                                         #
#                                                                             #
#    Core               =  plain                                              #
#    Code model         =  banked                                             #
#    Data model         =  large                                              #
#    Calling convention =  xdata reentrant                                    #
#    Constant location  =  data_rom                                           #
#    Dptr setup         =  1,16                                               #
#    Source file        =  C:\Texas Instruments\ZStack-CC2530-2.5.1a\Componen #
#                          ts\stack\zdo\ZDNwkMgr.c                            #
#    Command line       =  -f "C:\Texas Instruments\ZStack-CC2530-2.5.1a\Proj #
#                          ects\zstack\Samples\WirelessMonitorSystem\CC2530DB #
#                          \..\..\..\Tools\CC2530DB\f8wEndev.cfg"             #
#                          (-DCPU32MHZ -DROOT=__near_func                     #
#                          -DMAC_CFG_TX_DATA_MAX=3 -DMAC_CFG_TX_MAX=6         #
#                          -DMAC_CFG_RX_MAX=3) -f "C:\Texas                   #
#                          Instruments\ZStack-CC2530-2.5.1a\Projects\zstack\S #
#                          amples\WirelessMonitorSystem\CC2530DB\..\..\..\Too #
#                          ls\CC2530DB\f8wConfig.cfg" (-DZIGBEEPRO            #
#                          -DSECURE=0 -DZG_SECURE_DYNAMIC=0 -DREFLECTOR       #
#                          -DDEFAULT_CHANLIST=0x00000800                      #
#                          -DZDAPP_CONFIG_PAN_ID=0xFFFF                       #
#                          -DNWK_START_DELAY=100 -DEXTENDED_JOINING_RANDOM_MA #
#                          SK=0x007F -DBEACON_REQUEST_DELAY=100               #
#                          -DBEACON_REQ_DELAY_MASK=0x00FF                     #
#                          -DLINK_STATUS_JITTER_MASK=0x007F                   #
#                          -DROUTE_EXPIRY_TIME=30 -DAPSC_ACK_WAIT_DURATION_PO #
#                          LLED=3000 -DNWK_INDIRECT_MSG_TIMEOUT=7             #
#                          -DMAX_RREQ_ENTRIES=8 -DAPSC_MAX_FRAME_RETRIES=3    #
#                          -DNWK_MAX_DATA_RETRIES=2                           #
#                          -DMAX_POLL_FAILURE_RETRIES=2 -DMAX_BCAST=9         #
#                          -DAPS_MAX_GROUPS=16 -DMAX_RTG_ENTRIES=40           #
#                          -DNWK_MAX_BINDING_ENTRIES=4                        #
#                          -DMAX_BINDING_CLUSTER_IDS=4 "-DDEFAULT_KEY={0x01,  #
#                          0x03, 0x05, 0x07, 0x09, 0x0B, 0x0D, 0x0F, 0x00,    #
#                          0x02, 0x04, 0x06, 0x08, 0x0A, 0x0C, 0x0D}"         #
#                          -DMAC_MAX_FRAME_SIZE=116                           #
#                          -DZDNWKMGR_MIN_TRANSMISSIONS=20 "-DCONST=const     #
#                          __code" -DGENERIC=__generic                        #
#                          -DRFD_RCVC_ALWAYS_ON=FALSE -DPOLL_RATE=500         #
#                          -DQUEUED_POLL_RATE=30 -DRESPONSE_POLL_RATE=100)    #
#                          -DREJOIN_POLL_RATE=440 "C:\Texas                   #
#                          Instruments\ZStack-CC2530-2.5.1a\Components\stack\ #
#                          zdo\ZDNwkMgr.c" -D HAL_UART -lC "C:\Texas          #
#                          Instruments\ZStack-CC2530-2.5.1a\Projects\zstack\S #
#                          amples\WirelessMonitorSystem\CC2530DB\LCD\List\"   #
#                          -lA "C:\Texas Instruments\ZStack-CC2530-2.5.1a\Pro #
#                          jects\zstack\Samples\WirelessMonitorSystem\CC2530D #
#                          B\LCD\List\" --diag_suppress Pe001,Pa010 -o        #
#                          "C:\Texas Instruments\ZStack-CC2530-2.5.1a\Project #
#                          s\zstack\Samples\WirelessMonitorSystem\CC2530DB\LC #
#                          D\Obj\" -e --no_cse --no_unroll --no_inline        #
#                          --no_code_motion --no_tbaa --debug --core=plain    #
#                          --dptr=16,1 --data_model=large                     #
#                          --code_model=banked --calling_convention=xdata_ree #
#                          ntrant --place_constants=data_rom                  #
#                          --nr_virtual_regs 16 -I "C:\Texas                  #
#                          Instruments\ZStack-CC2530-2.5.1a\Projects\zstack\S #
#                          amples\WirelessMonitorSystem\CC2530DB\" -I         #
#                          "C:\Texas Instruments\ZStack-CC2530-2.5.1a\Project #
#                          s\zstack\Samples\WirelessMonitorSystem\CC2530DB\.. #
#                          \Source\" -I "C:\Texas Instruments\ZStack-CC2530-2 #
#                          .5.1a\Projects\zstack\Samples\WirelessMonitorSyste #
#                          m\CC2530DB\..\..\..\ZMain\TI2530DB\" -I "C:\Texas  #
#                          Instruments\ZStack-CC2530-2.5.1a\Projects\zstack\S #
#                          amples\WirelessMonitorSystem\CC2530DB\..\..\..\..\ #
#                          ..\Components\hal\include\" -I "C:\Texas           #
#                          Instruments\ZStack-CC2530-2.5.1a\Projects\zstack\S #
#                          amples\WirelessMonitorSystem\CC2530DB\..\..\..\..\ #
#                          ..\Components\hal\target\CC2530EB\" -I "C:\Texas   #
#                          Instruments\ZStack-CC2530-2.5.1a\Projects\zstack\S #
#                          amples\WirelessMonitorSystem\CC2530DB\..\..\..\..\ #
#                          ..\Components\mac\include\" -I "C:\Texas           #
#                          Instruments\ZStack-CC2530-2.5.1a\Projects\zstack\S #
#                          amples\WirelessMonitorSystem\CC2530DB\..\..\..\..\ #
#                          ..\Components\mac\high_level\" -I "C:\Texas        #
#                          Instruments\ZStack-CC2530-2.5.1a\Projects\zstack\S #
#                          amples\WirelessMonitorSystem\CC2530DB\..\..\..\..\ #
#                          ..\Components\mac\low_level\srf04\" -I "C:\Texas   #
#                          Instruments\ZStack-CC2530-2.5.1a\Projects\zstack\S #
#                          amples\WirelessMonitorSystem\CC2530DB\..\..\..\..\ #
#                          ..\Components\mac\low_level\srf04\single_chip\"    #
#                          -I "C:\Texas Instruments\ZStack-CC2530-2.5.1a\Proj #
#                          ects\zstack\Samples\WirelessMonitorSystem\CC2530DB #
#                          \..\..\..\..\..\Components\mt\" -I "C:\Texas       #
#                          Instruments\ZStack-CC2530-2.5.1a\Projects\zstack\S #
#                          amples\WirelessMonitorSystem\CC2530DB\..\..\..\..\ #
#                          ..\Components\osal\include\" -I "C:\Texas          #
#                          Instruments\ZStack-CC2530-2.5.1a\Projects\zstack\S #
#                          amples\WirelessMonitorSystem\CC2530DB\..\..\..\..\ #
#                          ..\Components\services\saddr\" -I "C:\Texas        #
#                          Instruments\ZStack-CC2530-2.5.1a\Projects\zstack\S #
#                          amples\WirelessMonitorSystem\CC2530DB\..\..\..\..\ #
#                          ..\Components\services\sdata\" -I "C:\Texas        #
#                          Instruments\ZStack-CC2530-2.5.1a\Projects\zstack\S #
#                          amples\WirelessMonitorSystem\CC2530DB\..\..\..\..\ #
#                          ..\Components\stack\af\" -I "C:\Texas              #
#                          Instruments\ZStack-CC2530-2.5.1a\Projects\zstack\S #
#                          amples\WirelessMonitorSystem\CC2530DB\..\..\..\..\ #
#                          ..\Components\stack\nwk\" -I "C:\Texas             #
#                          Instruments\ZStack-CC2530-2.5.1a\Projects\zstack\S #
#                          amples\WirelessMonitorSystem\CC2530DB\..\..\..\..\ #
#                          ..\Components\stack\sapi\" -I "C:\Texas            #
#                          Instruments\ZStack-CC2530-2.5.1a\Projects\zstack\S #
#                          amples\WirelessMonitorSystem\CC2530DB\..\..\..\..\ #
#                          ..\Components\stack\sec\" -I "C:\Texas             #
#                          Instruments\ZStack-CC2530-2.5.1a\Projects\zstack\S #
#                          amples\WirelessMonitorSystem\CC2530DB\..\..\..\..\ #
#                          ..\Components\stack\sys\" -I "C:\Texas             #
#                          Instruments\ZStack-CC2530-2.5.1a\Projects\zstack\S #
#                          amples\WirelessMonitorSystem\CC2530DB\..\..\..\..\ #
#                          ..\Components\stack\zdo\" -I "C:\Texas             #
#                          Instruments\ZStack-CC2530-2.5.1a\Projects\zstack\S #
#                          amples\WirelessMonitorSystem\CC2530DB\..\..\..\..\ #
#                          ..\Components\zmac\" -I "C:\Texas                  #
#                          Instruments\ZStack-CC2530-2.5.1a\Projects\zstack\S #
#                          amples\WirelessMonitorSystem\CC2530DB\..\..\..\..\ #
#                          ..\Components\zmac\f8w\" -On --require_prototypes  #
#    List file          =  C:\Texas Instruments\ZStack-CC2530-2.5.1a\Projects #
#                          \zstack\Samples\WirelessMonitorSystem\CC2530DB\LCD #
#                          \List\ZDNwkMgr.lst                                 #
#    Object file        =  C:\Texas Instruments\ZStack-CC2530-2.5.1a\Projects #
#                          \zstack\Samples\WirelessMonitorSystem\CC2530DB\LCD #
#                          \Obj\ZDNwkMgr.r51                                  #
#                                                                             #
#                                                                             #
###############################################################################

C:\Texas Instruments\ZStack-CC2530-2.5.1a\Components\stack\zdo\ZDNwkMgr.c
      1          /**************************************************************************************************
      2            Filename:       ZDNwkMgr.c
      3            Revised:        $Date: 2007-10-17 15:38:45 -0700 (Wed, 17 Oct 2007) $
      4            Revision:       $Revision: 15716 $
      5          
      6            Description:    The ZigBee Network Manager.
      7          
      8          
      9            Copyright 2007 Texas Instruments Incorporated. All rights reserved.
     10          
     11            IMPORTANT: Your use of this Software is limited to those specific rights
     12            granted under the terms of a software license agreement between the user
     13            who downloaded the software, his/her employer (which must be your employer)
     14            and Texas Instruments Incorporated (the "License").  You may not use this
     15            Software unless you agree to abide by the terms of the License. The License
     16            limits your use, and you acknowledge, that the Software may not be modified,
     17            copied or distributed unless embedded on a Texas Instruments microcontroller
     18            or used solely and exclusively in conjunction with a Texas Instruments radio
     19            frequency transceiver, which is integrated into your product.  Other than for
     20            the foregoing purpose, you may not use, reproduce, copy, prepare derivative
     21            works of, modify, distribute, perform, display or sell this Software and/or
     22            its documentation for any purpose.
     23          
     24            YOU FURTHER ACKNOWLEDGE AND AGREE THAT THE SOFTWARE AND DOCUMENTATION ARE
     25            PROVIDED “AS IS” WITHOUT WARRANTY OF ANY KIND, EITHER EXPRESS OR IMPLIED, 
     26            INCLUDING WITHOUT LIMITATION, ANY WARRANTY OF MERCHANTABILITY, TITLE, 
     27            NON-INFRINGEMENT AND FITNESS FOR A PARTICULAR PURPOSE. IN NO EVENT SHALL
     28            TEXAS INSTRUMENTS OR ITS LICENSORS BE LIABLE OR OBLIGATED UNDER CONTRACT,
     29            NEGLIGENCE, STRICT LIABILITY, CONTRIBUTION, BREACH OF WARRANTY, OR OTHER
     30            LEGAL EQUITABLE THEORY ANY DIRECT OR INDIRECT DAMAGES OR EXPENSES
     31            INCLUDING BUT NOT LIMITED TO ANY INCIDENTAL, SPECIAL, INDIRECT, PUNITIVE
     32            OR CONSEQUENTIAL DAMAGES, LOST PROFITS OR LOST DATA, COST OF PROCUREMENT
     33            OF SUBSTITUTE GOODS, TECHNOLOGY, SERVICES, OR ANY CLAIMS BY THIRD PARTIES
     34            (INCLUDING BUT NOT LIMITED TO ANY DEFENSE THEREOF), OR OTHER SIMILAR COSTS.
     35          
     36            Should you have any questions regarding your right to use this Software,
     37            contact Texas Instruments Incorporated at www.TI.com. 
     38          **************************************************************************************************/
     39          
     40          #ifdef __cplusplus
     41          extern "C"
     42          {
     43          #endif
     44          
     45          /******************************************************************************
     46           * INCLUDES
     47           */
     48          #include "ZComdef.h"
     49          #include "nwk_util.h"
     50          #include "ZDApp.h"
     51          #include "ZDObject.h"
     52          #include "ZGlobals.h"
     53          #include "ZDNwkMgr.h"
     54          
     55          #if defined( MT_ZDO_FUNC )
     56            #include "MT_ZDO.h"
     57          #endif
     58            
     59          #if defined ( LCD_SUPPORTED )
     60            #include "OnBoard.h"
     61          #endif
     62          
     63          /* HAL */
     64          #include "hal_lcd.h"
     65            
     66          /******************************************************************************
     67           * CONSTANTS
     68           */
     69          
     70          #define ONE_MINUTE             60000  // 1(m) * 60(s) * 1000(ms)
     71          
     72          #if defined ( LCD_SUPPORTED )
     73            const char NwkMgrStr_1[]     = "NM-fail not hi";
     74            const char NwkMgrStr_2[]     = "NM-cur<last fail";
     75            const char NwkMgrStr_3[]     = "NM-energy too hi";
     76            const char NwkMgrStr_4[]     = "NM-energy not up";
     77          #endif
     78            
     79          /******************************************************************************
     80           * TYPEDEFS
     81           */
     82          
     83          /*********************************************************************
     84           * GLOBAL VARIABLES
     85           */
     86            
     87          // Task ID for internal task/event processing. This variable will be
     88          // received when ZDNwkMgr_Init() is called.

   \                                 In  segment XDATA_Z, align 1, keep-with-next
     89          uint8 ZDNwkMgr_TaskID = 0;
   \                     ZDNwkMgr_TaskID:
   \   000000                DS 1
   \   000001                REQUIRE __INIT_XDATA_Z
     90          
     91          /******************************************************************************
     92           * LOCAL VARIABLES
     93           */
     94          
     95          // Frequency Agility variables

   \                                 In  segment XDATA_Z, align 1, keep-with-next
     96          uint8 ZDNwkMgr_MgmtNwkUpdateNotifyTransSeq = 0;
   \                     ZDNwkMgr_MgmtNwkUpdateNotifyTransSeq:
   \   000000                DS 1
   \   000001                REQUIRE __INIT_XDATA_Z

   \                                 In  segment XDATA_Z, align 1, keep-with-next
     97          zAddrType_t ZDNwkMgr_MgmtNwkUpdateNotifyAddr;
   \                     ZDNwkMgr_MgmtNwkUpdateNotifyAddr:
   \   000000                DS 9
   \   000009                REQUIRE __INIT_XDATA_Z

   \                                 In  segment XDATA_Z, align 1, keep-with-next
     98          uint16 ZDNwkMgr_UpdateNotifyTimer = 0;
   \                     ZDNwkMgr_UpdateNotifyTimer:
   \   000000                DS 2
   \   000002                REQUIRE __INIT_XDATA_Z

   \                                 In  segment XDATA_Z, align 1, keep-with-next
     99          uint8  ZDNwkMgr_NumUpdateNotifySent = 0;
   \                     ZDNwkMgr_NumUpdateNotifySent:
   \   000000                DS 1
   \   000001                REQUIRE __INIT_XDATA_Z

   \                                 In  segment XDATA_Z, align 1, keep-with-next
    100          uint8  ZDNwkMgr_WaitingForNotifyConfirm = FALSE;
   \                     ZDNwkMgr_WaitingForNotifyConfirm:
   \   000000                DS 1
   \   000001                REQUIRE __INIT_XDATA_Z

   \                                 In  segment XDATA_Z, align 1, keep-with-next
    101          uint16 ZDNwkMgr_TotalTransmissions;
   \                     ZDNwkMgr_TotalTransmissions:
   \   000000                DS 2
   \   000002                REQUIRE __INIT_XDATA_Z

   \                                 In  segment XDATA_Z, align 1, keep-with-next
    102          uint16 ZDNwkMgr_TxFailures;
   \                     ZDNwkMgr_TxFailures:
   \   000000                DS 2
   \   000002                REQUIRE __INIT_XDATA_Z
    103          

   \                                 In  segment XDATA_Z, align 1, keep-with-next
    104          ZDO_MgmtNwkUpdateReq_t ZDNwkMgr_MgmtNwkUpdateReq;
   \                     ZDNwkMgr_MgmtNwkUpdateReq:
   \   000000                DS 9
   \   000009                REQUIRE __INIT_XDATA_Z
    105            
    106          #if defined ( NWK_MANAGER )
    107          uint16 ZDNwkMgr_UpdateRequestTimer = 0;
    108          uint8  ZDNwkMgr_LastChannelEnergy = 0;
    109          uint16 ZDNwkMgr_LastChannelFailureRate = 0;
    110          #endif // NWK_MANAGER
    111          

   \                                 In  segment XDATA_Z, align 1, keep-with-next
    112          uint8 ZDNwkMgr_NewChannel;
   \                     ZDNwkMgr_NewChannel:
   \   000000                DS 1
   \   000001                REQUIRE __INIT_XDATA_Z
    113          
    114          // PAN ID Conflict variables
    115          #if defined ( NWK_MANAGER )
    116          uint8 ZDNwkMgr_PanIdUpdateInProgress = FALSE;
    117          #endif // NWK_MANAGER
    118          
    119          /*********************************************************************
    120           * GLOBAL FUNCTIONS
    121           */
    122          // Freguency Agility functions

   \                                 In  segment XDATA_Z, align 1, keep-with-next
    123          void (*pZDNwkMgr_ReportChannelInterference)( NLME_ChanInterference_t *chanInterference ) = NULL;
   \                     pZDNwkMgr_ReportChannelInterference:
   \   000000                DS 2
   \   000002                REQUIRE __INIT_XDATA_Z

   \                                 In  segment XDATA_Z, align 1, keep-with-next
    124          void (*pZDNwkMgr_ProcessDataConfirm)( afDataConfirm_t *afDataConfirm ) = NULL;
   \                     pZDNwkMgr_ProcessDataConfirm:
   \   000000                DS 2
   \   000002                REQUIRE __INIT_XDATA_Z

   \                                 In  segment XDATA_Z, align 1, keep-with-next
    125          void (*pZDNwkMgr_EDScanConfirmCB)( NLME_EDScanConfirm_t *EDScanConfirm ) = NULL;
   \                     pZDNwkMgr_EDScanConfirmCB:
   \   000000                DS 2
   \   000002                REQUIRE __INIT_XDATA_Z
    126          
    127          // PAN ID Conflict functions

   \                                 In  segment XDATA_Z, align 1, keep-with-next
    128          void (*pZDNwkMgr_NetworkReportCB)( ZDNwkMgr_NetworkReport_t *pReport ) = NULL;
   \                     pZDNwkMgr_NetworkReportCB:
   \   000000                DS 2
   \   000002                REQUIRE __INIT_XDATA_Z

   \                                 In  segment XDATA_Z, align 1, keep-with-next
    129          void (*pZDNwkMgr_NetworkUpdateCB)( ZDNwkMgr_NetworkUpdate_t *pUpdate ) = NULL;
   \                     pZDNwkMgr_NetworkUpdateCB:
   \   000000                DS 2
   \   000002                REQUIRE __INIT_XDATA_Z
    130          
    131          /******************************************************************************
    132           * LOCAL FUNCTIONS
    133           */
    134          
    135          void ZDNwkMgr_ProcessServerDiscRsp( zdoIncomingMsg_t *inMsg );
    136          void ZDNwkMgr_SetNwkManagerAddr( uint16 nwkManagerAddr );
    137          
    138          // Frequency Agility functions
    139          static void ZDNwkMgr_ProcessMsgCBs( zdoIncomingMsg_t *inMsg );
    140          
    141          static void ZDNwkMgr_ProcessMgmtNwkUpdateReq( zdoIncomingMsg_t *inMsg );
    142          static void ZDNwkMgr_ProcessChannelInterference( ZDNwkMgr_ChanInterference_t *pChanInterference );
    143          static void ZDNwkMgr_ProcessEDScanConfirm( ZDNwkMgr_EDScanConfirm_t *pEDScanConfirm );
    144          static void ZDNwkMgr_CheckForChannelInterference( ZDNwkMgr_EDScanConfirm_t *pEDScanConfirm );
    145          static void ZDNwkMgr_BuildAndSendUpdateNotify( uint8 TransSeq, zAddrType_t *dstAddr,
    146                                                         uint16 totalTransmissions, uint16 txFailures,
    147                                                         ZDNwkMgr_EDScanConfirm_t *pEDScanConfirm, uint8 txOptions );
    148          void ZDNwkMgr_EDScanConfirmCB( NLME_EDScanConfirm_t *EDScanConfirm );
    149          void ZDNwkMgr_ProcessDataConfirm( afDataConfirm_t *afDataConfirm );
    150          void ZDNwkMgr_ReportChannelInterference( NLME_ChanInterference_t *chanInterference );
    151          
    152          #if defined ( NWK_MANAGER )
    153          static void ZDNwkMgr_ProcessMgmtNwkUpdateNotify( zdoIncomingMsg_t *inMsg );
    154          static void ZDNwkMgr_CheckForChannelChange( ZDO_MgmtNwkUpdateNotify_t *pNotify );
    155          #endif // NWK_MANAGER
    156          
    157          // PAN ID Conflict functions
    158          #if defined ( NWK_MANAGER )
    159          void ZDNwkMgr_NetworkReportCB( ZDNwkMgr_NetworkReport_t *pReport );
    160          void ZDNwkMgr_NetworkUpdateCB( ZDNwkMgr_NetworkUpdate_t *pUpdate );
    161          
    162          void ZDNwkMgr_ProcessNetworkReport( ZDNwkMgr_NetworkReport_t *pNetworkReport );
    163          void ZDNwkMgr_ProcessNetworkUpdate( ZDNwkMgr_NetworkUpdate_t *pNetworkUpdate );
    164          #endif // NWK_MANAGER
    165          
    166          /*********************************************************************
    167           * @fn      ZDNwkMgr_Init
    168           *
    169           * @brief   Initialization function for the Network Manager Task.
    170           *          This is called during initialization and should contain
    171           *          any application specific initialization (ie. hardware
    172           *          initialization/setup, table initialization, power up
    173           *          notificaiton ... ).
    174           *
    175           * @param   task_id - the ID assigned by OSAL.  This ID should be
    176           *                    used to send messages and set timers.
    177           *
    178           * @return  none
    179           */

   \                                 In  segment BANKED_CODE, align 1, keep-with-next
    180          void ZDNwkMgr_Init( byte task_id )
   \                     ZDNwkMgr_Init:
    181          {
   \   000000   74F7         MOV     A,#-0x9
   \   000002   12....       LCALL   ?BANKED_ENTER_XDATA
   \   000005                ; Saved register size: 9
   \   000005                ; Auto size: 0
   \   000005   E9           MOV     A,R1
   \   000006   FE           MOV     R6,A
    182            // Save the task ID
    183            ZDNwkMgr_TaskID = task_id;
   \   000007   90....       MOV     DPTR,#ZDNwkMgr_TaskID
   \   00000A   F0           MOVX    @DPTR,A
    184          
    185            ZDO_RegisterForZDOMsg( ZDNwkMgr_TaskID, Server_Discovery_rsp );
   \   00000B                ; Setup parameters for call to function ZDO_RegisterForZDOMsg
   \   00000B   7A15         MOV     R2,#0x15
   \   00000D   7B80         MOV     R3,#-0x80
   \   00000F   90....       MOV     DPTR,#ZDNwkMgr_TaskID
   \   000012   E0           MOVX    A,@DPTR
   \   000013   F9           MOV     R1,A
   \   000014   12....       LCALL   ??ZDO_RegisterForZDOMsg?relay
   \   000017   E9           MOV     A,R1
    186          
    187            // Frequecy Agility initialization
    188            ZDO_RegisterForZDOMsg( ZDNwkMgr_TaskID, Mgmt_NWK_Update_req );
   \   000018                ; Setup parameters for call to function ZDO_RegisterForZDOMsg
   \   000018   7A38         MOV     R2,#0x38
   \   00001A   7B00         MOV     R3,#0x0
   \   00001C   90....       MOV     DPTR,#ZDNwkMgr_TaskID
   \   00001F   E0           MOVX    A,@DPTR
   \   000020   F9           MOV     R1,A
   \   000021   12....       LCALL   ??ZDO_RegisterForZDOMsg?relay
   \   000024   E9           MOV     A,R1
    189          #if defined ( NWK_MANAGER )
    190            ZDO_RegisterForZDOMsg( ZDNwkMgr_TaskID, Mgmt_NWK_Update_notify );
    191          #endif // NWK_MANAGER
    192          
    193            pZDNwkMgr_EDScanConfirmCB = ZDNwkMgr_EDScanConfirmCB;
   \   000025   90....       MOV     DPTR,#pZDNwkMgr_EDScanConfirmCB
   \   000028   74..         MOV     A,#??ZDNwkMgr_EDScanConfirmCB?relay & 0xff
   \   00002A   F0           MOVX    @DPTR,A
   \   00002B   A3           INC     DPTR
   \   00002C   74..         MOV     A,#(??ZDNwkMgr_EDScanConfirmCB?relay >> 8) & 0xff
   \   00002E   F0           MOVX    @DPTR,A
    194            pZDNwkMgr_ProcessDataConfirm = ZDNwkMgr_ProcessDataConfirm;
   \   00002F   90....       MOV     DPTR,#pZDNwkMgr_ProcessDataConfirm
   \   000032   74..         MOV     A,#??ZDNwkMgr_ProcessDataConfirm?relay & 0xff
   \   000034   F0           MOVX    @DPTR,A
   \   000035   A3           INC     DPTR
   \   000036   74..         MOV     A,#(??ZDNwkMgr_ProcessDataConfirm?relay >> 8) & 0xff
   \   000038   F0           MOVX    @DPTR,A
    195            pZDNwkMgr_ReportChannelInterference = ZDNwkMgr_ReportChannelInterference;
   \   000039   90....       MOV     DPTR,#pZDNwkMgr_ReportChannelInterference
   \   00003C   74..         MOV     A,#??ZDNwkMgr_ReportChannelInterference?relay & 0xff
   \   00003E   F0           MOVX    @DPTR,A
   \   00003F   A3           INC     DPTR
   \   000040   74..         MOV     A,#(??ZDNwkMgr_ReportChannelInterference?relay >> 8) & 0xff
   \   000042   F0           MOVX    @DPTR,A
    196            
    197            // PAN ID Conflict initialization
    198          #if defined ( NWK_MANAGER )
    199            pZDNwkMgr_NetworkReportCB = ZDNwkMgr_NetworkReportCB;
    200            pZDNwkMgr_NetworkUpdateCB = ZDNwkMgr_NetworkUpdateCB;
    201          #endif // NWK_MANAGER
    202            
    203            ZDNwkMgr_MgmtNwkUpdateNotifyAddr.addrMode = Addr16Bit;
   \   000043   90....       MOV     DPTR,#ZDNwkMgr_MgmtNwkUpdateNotifyAddr + 8
   \   000046   7402         MOV     A,#0x2
   \   000048   F0           MOVX    @DPTR,A
    204            ZDNwkMgr_MgmtNwkUpdateNotifyAddr.addr.shortAddr = INVALID_NODE_ADDR;
   \   000049   90....       MOV     DPTR,#ZDNwkMgr_MgmtNwkUpdateNotifyAddr
   \   00004C   74FE         MOV     A,#-0x2
   \   00004E   F0           MOVX    @DPTR,A
   \   00004F   A3           INC     DPTR
   \   000050   74FF         MOV     A,#-0x1
   \   000052   F0           MOVX    @DPTR,A
    205          }
   \   000053   7F01         MOV     R7,#0x1
   \   000055   02....       LJMP    ?BANKED_LEAVE_XDATA
    206          
    207          /*********************************************************************
    208           * @fn      ZDNwkMgr_event_loop
    209           *
    210           * @brief   Main event loop for the Network Manager task. This function
    211           *          is called to process all events for the task.  Events
    212           *          include timers, messages and any other user defined events.
    213           *
    214           * @param   task_id  - The OSAL assigned task ID.
    215           * @param   events - events to process.  This is a bit map and can
    216           *                   contain more than one event.
    217           *
    218           * @return  none
    219           */

   \                                 In  segment BANKED_CODE, align 1, keep-with-next
    220          UINT16 ZDNwkMgr_event_loop( byte task_id, UINT16 events )
   \                     ZDNwkMgr_event_loop:
    221          {
   \   000000   74F2         MOV     A,#-0xe
   \   000002   12....       LCALL   ?BANKED_ENTER_XDATA
   \   000005                ; Saved register size: 14
   \   000005                ; Auto size: 0
   \   000005   89..         MOV     ?V0 + 2,R1
   \   000007   EA           MOV     A,R2
   \   000008   FE           MOV     R6,A
   \   000009   EB           MOV     A,R3
   \   00000A   FF           MOV     R7,A
    222            osal_event_hdr_t *msgPtr;
    223            (void)task_id;  // Intentionally unreferenced parameter
    224          
    225            if ( events & SYS_EVENT_MSG )
   \   00000B   EE           MOV     A,R6
   \   00000C   5400         ANL     A,#0x0
   \   00000E   F8           MOV     R0,A
   \   00000F   EF           MOV     A,R7
   \   000010   5480         ANL     A,#0x80
   \   000012   F9           MOV     R1,A
   \   000013   E8           MOV     A,R0
   \   000014   49           ORL     A,R1
   \   000015   606A         JZ      ??ZDNwkMgr_event_loop_0
    226            {
    227              msgPtr = (osal_event_hdr_t *)osal_msg_receive( ZDNwkMgr_TaskID );
   \   000017                ; Setup parameters for call to function osal_msg_receive
   \   000017   90....       MOV     DPTR,#ZDNwkMgr_TaskID
   \   00001A   E0           MOVX    A,@DPTR
   \   00001B   F9           MOV     R1,A
   \   00001C   12....       LCALL   ??osal_msg_receive?relay
   \   00001F   8A..         MOV     ?V0 + 4,R2
   \   000021   8B..         MOV     ?V0 + 5,R3
   \   000023   85....       MOV     ?V0 + 0,?V0 + 4
   \   000026   85....       MOV     ?V0 + 1,?V0 + 5
    228              while ( msgPtr )
   \                     ??ZDNwkMgr_event_loop_1:
   \   000029   E5..         MOV     A,?V0 + 0
   \   00002B   45..         ORL     A,?V0 + 1
   \   00002D   6047         JZ      ??ZDNwkMgr_event_loop_2
    229              {
    230                switch ( msgPtr->event )
   \   00002F   85..82       MOV     DPL,?V0 + 0
   \   000032   85..83       MOV     DPH,?V0 + 1
   \   000035   E0           MOVX    A,@DPTR
   \   000036   24CF         ADD     A,#-0x31
   \   000038   6010         JZ      ??ZDNwkMgr_event_loop_3
   \   00003A   14           DEC     A
   \   00003B   6016         JZ      ??ZDNwkMgr_event_loop_4
   \   00003D   245F         ADD     A,#0x5f
   \   00003F   7019         JNZ     ??ZDNwkMgr_event_loop_5
    231                {
    232                  case ZDO_CB_MSG:
    233                    // ZDO sends the message that we registered for
    234                    ZDNwkMgr_ProcessMsgCBs( (zdoIncomingMsg_t *)msgPtr );
   \   000041                ; Setup parameters for call to function ZDNwkMgr_ProcessMsgCBs
   \   000041   AA..         MOV     R2,?V0 + 0
   \   000043   AB..         MOV     R3,?V0 + 1
   \   000045   12....       LCALL   ??ZDNwkMgr_ProcessMsgCBs?relay
    235                    break;
   \   000048   8010         SJMP    ??ZDNwkMgr_event_loop_5
    236                   
    237                  case NM_CHANNEL_INTERFERE:
    238                    // NWK layer sends the message when it detectes Channel Interference
    239                    ZDNwkMgr_ProcessChannelInterference( (ZDNwkMgr_ChanInterference_t *)msgPtr );
   \                     ??ZDNwkMgr_event_loop_3:
   \   00004A                ; Setup parameters for call to function ZDNwkMgr_ProcessChannelInterference
   \   00004A   AA..         MOV     R2,?V0 + 0
   \   00004C   AB..         MOV     R3,?V0 + 1
   \   00004E   12....       LCALL   ??ZDNwkMgr_ProcessChannelInterference?relay
    240                    break;
   \   000051   8007         SJMP    ??ZDNwkMgr_event_loop_5
    241             
    242                  case NM_ED_SCAN_CONFIRM:
    243                    // NWK layer sends the message when it receives an ED scan confirmation
    244                    ZDNwkMgr_ProcessEDScanConfirm( (ZDNwkMgr_EDScanConfirm_t *)msgPtr );
   \                     ??ZDNwkMgr_event_loop_4:
   \   000053                ; Setup parameters for call to function ZDNwkMgr_ProcessEDScanConfirm
   \   000053   AA..         MOV     R2,?V0 + 0
   \   000055   AB..         MOV     R3,?V0 + 1
   \   000057   12....       LCALL   ??ZDNwkMgr_ProcessEDScanConfirm?relay
    245                    break;
    246          #if defined ( NWK_MANAGER )
    247                  case ZDO_NETWORK_REPORT:
    248                    // NWK layer sends this message when it receives a Network Report message
    249                    ZDNwkMgr_ProcessNetworkReport( (ZDNwkMgr_NetworkReport_t *)msgPtr );
    250                    break;
    251                 
    252                  case ZDO_NETWORK_UPDATE:
    253                    // NKW layer sends this message when it receives a Network Update message
    254                    ZDNwkMgr_ProcessNetworkUpdate( (ZDNwkMgr_NetworkUpdate_t *)msgPtr );
    255                    break;
    256          #endif // NWK_MANAGER         
    257                  default:
    258                    break;
    259                }
    260          
    261                // Release the memory
    262                osal_msg_deallocate( (uint8 *)msgPtr );
   \                     ??ZDNwkMgr_event_loop_5:
   \   00005A                ; Setup parameters for call to function osal_msg_deallocate
   \   00005A   AA..         MOV     R2,?V0 + 0
   \   00005C   AB..         MOV     R3,?V0 + 1
   \   00005E   12....       LCALL   ??osal_msg_deallocate?relay
   \   000061   E9           MOV     A,R1
    263          
    264                // Next
    265                msgPtr = (osal_event_hdr_t *)osal_msg_receive( ZDNwkMgr_TaskID );
   \   000062                ; Setup parameters for call to function osal_msg_receive
   \   000062   90....       MOV     DPTR,#ZDNwkMgr_TaskID
   \   000065   E0           MOVX    A,@DPTR
   \   000066   F9           MOV     R1,A
   \   000067   12....       LCALL   ??osal_msg_receive?relay
   \   00006A   8A..         MOV     ?V0 + 4,R2
   \   00006C   8B..         MOV     ?V0 + 5,R3
   \   00006E   85....       MOV     ?V0 + 0,?V0 + 4
   \   000071   85....       MOV     ?V0 + 1,?V0 + 5
   \   000074   80B3         SJMP    ??ZDNwkMgr_event_loop_1
    266              }
    267              
    268              // Return unprocessed events
    269              return (events ^ SYS_EVENT_MSG);
   \                     ??ZDNwkMgr_event_loop_2:
   \   000076   EE           MOV     A,R6
   \   000077   6400         XRL     A,#0x0
   \   000079   FA           MOV     R2,A
   \   00007A   EF           MOV     A,R7
   \   00007B   6480         XRL     A,#0x80
   \   00007D   FB           MOV     R3,A
   \   00007E   02....       LJMP    ??ZDNwkMgr_event_loop_6 & 0xFFFF
    270            }
    271          
    272            if ( events & ZDNWKMGR_CHANNEL_CHANGE_EVT )
   \                     ??ZDNwkMgr_event_loop_0:
   \   000081   EE           MOV     A,R6
   \   000082   A2E0         MOV     C,0xE0 /* A   */.0
   \   000084   502E         JNC     ??ZDNwkMgr_event_loop_7
    273            {       
    274              // Switch channel
    275              _NIB.nwkLogicalChannel = ZDNwkMgr_NewChannel;
   \   000086   90....       MOV     DPTR,#ZDNwkMgr_NewChannel
   \   000089   E0           MOVX    A,@DPTR
   \   00008A   90....       MOV     DPTR,#_NIB + 22
   \   00008D   F0           MOVX    @DPTR,A
    276              ZMacSetReq( ZMacChannel, &ZDNwkMgr_NewChannel );
   \   00008E                ; Setup parameters for call to function ZMacSetReq
   \   00008E   7A..         MOV     R2,#ZDNwkMgr_NewChannel & 0xff
   \   000090   7B..         MOV     R3,#(ZDNwkMgr_NewChannel >> 8) & 0xff
   \   000092   79E1         MOV     R1,#-0x1f
   \   000094   12....       LCALL   ??ZMacSetReq?relay
   \   000097   E9           MOV     A,R1
    277           
    278              // Our Channel has been changed -- notify to save info into NV
    279              ZDApp_NwkStateUpdateCB();
   \   000098                ; Setup parameters for call to function ZDApp_NwkStateUpdateCB
   \   000098   12....       LCALL   ??ZDApp_NwkStateUpdateCB?relay
    280              
    281              // Reset the total transmit count and the transmit failure counters
    282              _NIB.nwkTotalTransmissions = 0;
   \   00009B   90....       MOV     DPTR,#_NIB + 107
   \   00009E   7400         MOV     A,#0x0
   \   0000A0   F0           MOVX    @DPTR,A
   \   0000A1   A3           INC     DPTR
   \   0000A2   7400         MOV     A,#0x0
   \   0000A4   F0           MOVX    @DPTR,A
    283              nwkTransmissionFailures( TRUE );
   \   0000A5                ; Setup parameters for call to function nwkTransmissionFailures
   \   0000A5   7901         MOV     R1,#0x1
   \   0000A7   12....       LCALL   ??nwkTransmissionFailures?relay
    284              
    285              return ( events ^ ZDNWKMGR_CHANNEL_CHANGE_EVT );
   \   0000AA   EE           MOV     A,R6
   \   0000AB   6401         XRL     A,#0x1
   \   0000AD   FA           MOV     R2,A
   \   0000AE   EF           MOV     A,R7
   \   0000AF   6400         XRL     A,#0x0
   \   0000B1   FB           MOV     R3,A
   \   0000B2   8074         SJMP    ??ZDNwkMgr_event_loop_6
    286            }
    287          
    288            if ( events & ZDNWKMGR_UPDATE_NOTIFY_EVT )
   \                     ??ZDNwkMgr_event_loop_7:
   \   0000B4   EE           MOV     A,R6
   \   0000B5   5402         ANL     A,#0x2
   \   0000B7   603B         JZ      ??ZDNwkMgr_event_loop_8
    289            {
    290              // Update the Update Notify timer
    291              if ( ZDNwkMgr_UpdateNotifyTimer > 0 )
   \   0000B9   90....       MOV     DPTR,#ZDNwkMgr_UpdateNotifyTimer
   \   0000BC   E0           MOVX    A,@DPTR
   \   0000BD   F8           MOV     R0,A
   \   0000BE   A3           INC     DPTR
   \   0000BF   E0           MOVX    A,@DPTR
   \   0000C0   F9           MOV     R1,A
   \   0000C1   E8           MOV     A,R0
   \   0000C2   49           ORL     A,R1
   \   0000C3   601F         JZ      ??ZDNwkMgr_event_loop_9
    292              {
    293                ZDNwkMgr_UpdateNotifyTimer--;
   \   0000C5   90....       MOV     DPTR,#ZDNwkMgr_UpdateNotifyTimer
   \   0000C8   E0           MOVX    A,@DPTR
   \   0000C9   24FF         ADD     A,#-0x1
   \   0000CB   F0           MOVX    @DPTR,A
   \   0000CC   A3           INC     DPTR
   \   0000CD   E0           MOVX    A,@DPTR
   \   0000CE   34FF         ADDC    A,#-0x1
   \   0000D0   F0           MOVX    @DPTR,A
    294                osal_start_timerEx( ZDNwkMgr_TaskID, ZDNWKMGR_UPDATE_NOTIFY_EVT, ONE_MINUTE );
   \   0000D1                ; Setup parameters for call to function osal_start_timerEx
   \   0000D1   7C60         MOV     R4,#0x60
   \   0000D3   7DEA         MOV     R5,#-0x16
   \   0000D5   7A02         MOV     R2,#0x2
   \   0000D7   7B00         MOV     R3,#0x0
   \   0000D9   90....       MOV     DPTR,#ZDNwkMgr_TaskID
   \   0000DC   E0           MOVX    A,@DPTR
   \   0000DD   F9           MOV     R1,A
   \   0000DE   12....       LCALL   ??osal_start_timerEx?relay
   \   0000E1   E9           MOV     A,R1
   \   0000E2   8006         SJMP    ??ZDNwkMgr_event_loop_10
    295              }
    296              else
    297              {
    298                ZDNwkMgr_NumUpdateNotifySent = 0;
   \                     ??ZDNwkMgr_event_loop_9:
   \   0000E4   90....       MOV     DPTR,#ZDNwkMgr_NumUpdateNotifySent
   \   0000E7   7400         MOV     A,#0x0
   \   0000E9   F0           MOVX    @DPTR,A
    299              }
    300              
    301              return ( events ^ ZDNWKMGR_UPDATE_NOTIFY_EVT );
   \                     ??ZDNwkMgr_event_loop_10:
   \   0000EA   EE           MOV     A,R6
   \   0000EB   6402         XRL     A,#0x2
   \   0000ED   FA           MOV     R2,A
   \   0000EE   EF           MOV     A,R7
   \   0000EF   6400         XRL     A,#0x0
   \   0000F1   FB           MOV     R3,A
   \   0000F2   8034         SJMP    ??ZDNwkMgr_event_loop_6
    302            }
    303            
    304          #if defined ( NWK_MANAGER )
    305            if ( events & ZDNWKMGR_UPDATE_REQUEST_EVT )
    306            {
    307              // Update the Update Request timer
    308              if ( ZDNwkMgr_UpdateRequestTimer > 0 )
    309              {
    310                ZDNwkMgr_UpdateRequestTimer--;
    311                osal_start_timerEx( ZDNwkMgr_TaskID, ZDNWKMGR_UPDATE_REQUEST_EVT, ONE_MINUTE );
    312              }
    313              
    314              return ( events ^ ZDNWKMGR_UPDATE_REQUEST_EVT );
    315            }
    316          #endif // NWK_MANAGER
    317            
    318            if ( events & ZDNWKMGR_SCAN_REQUEST_EVT )
   \                     ??ZDNwkMgr_event_loop_8:
   \   0000F4   EE           MOV     A,R6
   \   0000F5   5408         ANL     A,#0x8
   \   0000F7   602B         JZ      ??ZDNwkMgr_event_loop_11
    319            {  
    320              if ( ZDNwkMgr_MgmtNwkUpdateReq.scanCount > 0 )
   \   0000F9   90....       MOV     DPTR,#ZDNwkMgr_MgmtNwkUpdateReq + 5
   \   0000FC   E0           MOVX    A,@DPTR
   \   0000FD   C3           CLR     C
   \   0000FE   9401         SUBB    A,#0x1
   \   000100   4018         JC      ??ZDNwkMgr_event_loop_12
    321              {
    322                if (  NLME_EDScanRequest( ZDNwkMgr_MgmtNwkUpdateReq.channelMask, 
    323                                          ZDNwkMgr_MgmtNwkUpdateReq.scanDuration ) == ZSuccess )
   \   000102                ; Setup parameters for call to function NLME_EDScanRequest
   \   000102   90....       MOV     DPTR,#ZDNwkMgr_MgmtNwkUpdateReq + 4
   \   000105   E0           MOVX    A,@DPTR
   \   000106   F9           MOV     R1,A
   \   000107   90....       MOV     DPTR,#ZDNwkMgr_MgmtNwkUpdateReq
   \   00010A   12....       LCALL   ?XLOAD_R2345
   \   00010D   12....       LCALL   ??NLME_EDScanRequest?relay
   \   000110   E9           MOV     A,R1
   \   000111   7007         JNZ     ??ZDNwkMgr_event_loop_12
    324                {
    325                  ZDNwkMgr_MgmtNwkUpdateReq.scanCount--;
   \   000113   90....       MOV     DPTR,#ZDNwkMgr_MgmtNwkUpdateReq + 5
   \   000116   E0           MOVX    A,@DPTR
   \   000117   24FF         ADD     A,#-0x1
   \   000119   F0           MOVX    @DPTR,A
    326                }
    327              }
    328                
    329              return ( events ^ ZDNWKMGR_SCAN_REQUEST_EVT );
   \                     ??ZDNwkMgr_event_loop_12:
   \   00011A   EE           MOV     A,R6
   \   00011B   6408         XRL     A,#0x8
   \   00011D   FA           MOV     R2,A
   \   00011E   EF           MOV     A,R7
   \   00011F   6400         XRL     A,#0x0
   \   000121   FB           MOV     R3,A
   \   000122   8004         SJMP    ??ZDNwkMgr_event_loop_6
    330            }
    331            
    332            // Discard or make more handlers
    333            return 0;
   \                     ??ZDNwkMgr_event_loop_11:
   \   000124   7A00         MOV     R2,#0x0
   \   000126   7B00         MOV     R3,#0x0
   \                     ??ZDNwkMgr_event_loop_6:
   \   000128   7F06         MOV     R7,#0x6
   \   00012A   02....       LJMP    ?BANKED_LEAVE_XDATA
    334          }
    335          
    336          /*********************************************************************
    337           * @fn      ZDNwkMgr_ProcessMsgCBs
    338           *
    339           * @brief   Process the incoming messages.
    340           *
    341           * @param   msgPtr - message to process
    342           *
    343           * @return  TRUE if message to be freed. FALSE otherwise.
    344           */

   \                                 In  segment BANKED_CODE, align 1, keep-with-next
    345          static void ZDNwkMgr_ProcessMsgCBs( zdoIncomingMsg_t *inMsg )
   \                     ZDNwkMgr_ProcessMsgCBs:
    346          {
   \   000000   74F6         MOV     A,#-0xa
   \   000002   12....       LCALL   ?BANKED_ENTER_XDATA
   \   000005                ; Saved register size: 10
   \   000005                ; Auto size: 0
   \   000005   EA           MOV     A,R2
   \   000006   FE           MOV     R6,A
   \   000007   EB           MOV     A,R3
   \   000008   FF           MOV     R7,A
    347            switch ( inMsg->clusterID )
   \   000009   EE           MOV     A,R6
   \   00000A   240C         ADD     A,#0xc
   \   00000C   F582         MOV     DPL,A
   \   00000E   EF           MOV     A,R7
   \   00000F   3400         ADDC    A,#0x0
   \   000011   F583         MOV     DPH,A
   \   000013   E0           MOVX    A,@DPTR
   \   000014   F5..         MOV     ?V0 + 0,A
   \   000016   A3           INC     DPTR
   \   000017   E0           MOVX    A,@DPTR
   \   000018   F5..         MOV     ?V0 + 1,A
   \   00001A   78..         MOV     R0,#?V0 + 0
   \   00001C   12....       LCALL   ?US_SWITCH_SPARSE
   \                     `?<Jumptable for ZDNwkMgr_ProcessMsgCBs>_0`:
   \   00001F   0000         DW        0
   \   000021   0200         DW        2
   \   000023   3800         DW        56
   \   000025   ....         DW        ??ZDNwkMgr_ProcessMsgCBs_0
   \   000027   1580         DW        32789
   \   000029   ....         DW        ??ZDNwkMgr_ProcessMsgCBs_1
   \   00002B   ....         DW        ??ZDNwkMgr_ProcessMsgCBs_2
    348            {   
    349              case Mgmt_NWK_Update_req:
    350                ZDNwkMgr_ProcessMgmtNwkUpdateReq( inMsg );
   \                     ??ZDNwkMgr_ProcessMsgCBs_0:
   \   00002D                ; Setup parameters for call to function ZDNwkMgr_ProcessMgmtNwkUpdateReq
   \   00002D   EE           MOV     A,R6
   \   00002E   FA           MOV     R2,A
   \   00002F   EF           MOV     A,R7
   \   000030   FB           MOV     R3,A
   \   000031   12....       LCALL   ??ZDNwkMgr_ProcessMgmtNwkUpdateReq?relay
    351                break;    
   \   000034   8007         SJMP    ??ZDNwkMgr_ProcessMsgCBs_2
    352          #if defined ( NWK_MANAGER )  
    353              case Mgmt_NWK_Update_notify:
    354                ZDNwkMgr_ProcessMgmtNwkUpdateNotify( inMsg );
    355                break;
    356          #endif // NWK_MANAGER
    357              case Server_Discovery_rsp:
    358                ZDNwkMgr_ProcessServerDiscRsp( inMsg );
   \                     ??ZDNwkMgr_ProcessMsgCBs_1:
   \   000036                ; Setup parameters for call to function ZDNwkMgr_ProcessServerDiscRsp
   \   000036   EE           MOV     A,R6
   \   000037   FA           MOV     R2,A
   \   000038   EF           MOV     A,R7
   \   000039   FB           MOV     R3,A
   \   00003A   12....       LCALL   ??ZDNwkMgr_ProcessServerDiscRsp?relay
    359                break;
    360                
    361              default:
    362                // Unknown message
    363                break;
    364            }
    365          }
   \                     ??ZDNwkMgr_ProcessMsgCBs_2:
   \   00003D   7F02         MOV     R7,#0x2
   \   00003F   02....       LJMP    ?BANKED_LEAVE_XDATA
    366          
    367          /*********************************************************************
    368           * Frequency Agility Routines
    369           */
    370          #if defined ( NWK_MANAGER )
    371          /*********************************************************************
    372           * @fn          ZDNwkMgr_ProcessMgmtNwkUpdateNotify
    373           *
    374           * @brief       This function processes the incoming Management
    375           *              Network Update notify.
    376           *
    377           * @param       pUpdateNotify - notify message
    378           *
    379           * @return      TRUE if message to be freed. FALSE otherwise.
    380           */
    381          static void ZDNwkMgr_ProcessMgmtNwkUpdateNotify( zdoIncomingMsg_t *inMsg )
    382          {
    383            if ( zgNwkMgrMode == ZDNWKMGR_ENABLE )
    384            {
    385              ZDO_MgmtNwkUpdateNotify_t *pNotify = ZDO_ParseMgmtNwkUpdateNotify( inMsg ); 
    386              if ( pNotify )
    387              {
    388                ZDNwkMgr_CheckForChannelChange( pNotify );
    389          
    390                osal_mem_free( pNotify );
    391              }
    392            }
    393          }
    394          
    395          /*********************************************************************
    396           * @fn          ZDNwkMgr_CheckForChannelChange
    397           *
    398           * @brief       This function processes the incoming Management Network
    399           *              Update notify and starts an Update Request if a channel
    400           *              change is needed.
    401           *
    402           * @param       pUpdateNotify - notify message
    403           *
    404           * @return      none
    405           */
    406          static void ZDNwkMgr_CheckForChannelChange( ZDO_MgmtNwkUpdateNotify_t *pNotify )
    407          {
    408            uint8  i;
    409            uint16 failureRate;
    410            uint8  lowestEnergyIndex;
    411            uint8  lowestEnergyValue = 0xFF;
    412                
    413            // If any device has more than 50% transmission failures, a channel
    414            // change should be considered
    415            failureRate = ( pNotify->transmissionFailures * 100 ) / pNotify->totalTransmissions;
    416            if ( failureRate < ZDNWKMGR_CC_TX_FAILURE )
    417            {
    418          #if defined ( LCD_SUPPORTED )
    419              HalLcdWriteString( (char*)NwkMgrStr_1, HAL_LCD_LINE_1 );
    420              HalLcdWriteStringValueValue( ": ", failureRate, 10, ZDNWKMGR_CC_TX_FAILURE, 10, HAL_LCD_LINE_2 );
    421          #endif
    422              return;
    423            }
    424          
    425            // If the current failure rate is higher than the last failure rate,
    426            // a channel change should be considered
    427            if ( failureRate < ZDNwkMgr_LastChannelFailureRate )
    428            {
    429          #if defined ( LCD_SUPPORTED )
    430              HalLcdWriteString( (char*)NwkMgrStr_2, HAL_LCD_LINE_1 );
    431              HalLcdWriteStringValueValue( ": ", failureRate, 10, 
    432                                           ZDNwkMgr_LastChannelFailureRate, 10, HAL_LCD_LINE_2 );
    433          #endif
    434              return;
    435            }
    436            
    437            // Select a single channel based on the Mgmt_NWK_Update_notify based on
    438            // the lowest energy. This is the proposed new channel. 
    439            for ( i = 0; i < pNotify->listCount; i++ )
    440            {
    441              if ( pNotify->energyValues[i] < lowestEnergyValue )
    442              {
    443                lowestEnergyIndex = i;
    444                lowestEnergyValue = pNotify->energyValues[i];
    445              }
    446            }
    447                
    448            // If this new channel does not have an energy level below an acceptable
    449            // threshold, a channel change should not be done.
    450            if ( lowestEnergyValue > ZDNWKMGR_ACCEPTABLE_ENERGY_LEVEL )
    451            {
    452          #if defined ( LCD_SUPPORTED )
    453              HalLcdWriteString( (char*)NwkMgrStr_3, HAL_LCD_LINE_1 );
    454              HalLcdWriteStringValueValue( ": ", lowestEnergyValue, 10, 
    455                                           ZDNWKMGR_ACCEPTABLE_ENERGY_LEVEL, 10, HAL_LCD_LINE_2 );
    456          #endif
    457              return;
    458            }
    459          
    460            // Channel change should be done -- find out the new active channel
    461            for ( i = 0; i < ED_SCAN_MAXCHANNELS; i++ )
    462            {
    463              if ( ( (uint32)1 << i ) & pNotify->scannedChannels )
    464              {
    465                if ( lowestEnergyIndex == 0 )
    466                  break;
    467                lowestEnergyIndex--;
    468              }
    469            }
    470            
    471            if ( ( _NIB.nwkLogicalChannel != i ) && ( ZDNwkMgr_UpdateRequestTimer == 0 ) )
    472            {
    473              uint32 channelMask;
    474              zAddrType_t dstAddr;
    475              
    476              // The new channel
    477              ZDNwkMgr_NewChannel = i;
    478                  
    479              // Prior to changing channels, the network manager should store the 
    480              // energy scan value as the last energy scan value and the failure 
    481              // rate from the existing channel as the last failure rate.  These 
    482              // values are useful to allow comparison of the failure rate and energy
    483              // level on the previous channel to evaluate if the network is causing
    484              // its own interference.
    485              ZDNwkMgr_LastChannelEnergy = lowestEnergyValue;
    486              ZDNwkMgr_LastChannelFailureRate = failureRate;
    487                 
    488              // The network manager should broadcast a Mgmt_NWK_Update_req notifying
    489              // devices of the new channel.  The broadcast shall be to all routers 
    490              // and coordinator.
    491              dstAddr.addrMode = AddrBroadcast;
    492              dstAddr.addr.shortAddr = NWK_BROADCAST_SHORTADDR_DEVRXON;
    493              channelMask = (uint32)1 << i;
    494                  
    495              // Increment the nwkUpdateId parameter and set the updateID in the beacon
    496              NLME_SetUpdateID(_NIB.nwkUpdateId + 1); 
    497              
    498              ZDP_MgmtNwkUpdateReq( &dstAddr, channelMask, 0xfe, 0, _NIB.nwkUpdateId, 0 );
    499                  
    500              // The network manager shall set a timer based on the value of 
    501              // apsChannelTimer upon issue of a Mgmt_NWK_Update_req that changes 
    502              // channels and shall not issue another such command until this 
    503              // timer expires.  
    504              ZDNwkMgr_UpdateRequestTimer = ZDNWKMGR_UPDATE_REQUEST_TIMER;
    505              osal_start_timerEx( ZDNwkMgr_TaskID, ZDNWKMGR_UPDATE_REQUEST_EVT, ONE_MINUTE );
    506                            
    507              // Upon receipt of a Mgmt_NWK_Update_req with a change of channels, 
    508              // the local network manager shall set a timer equal to the 
    509              // nwkNetworkBroadcastDeliveryTime and shall switch channels upon 
    510              // expiration of this timer.  NOTE: since we won't recevied our own
    511              // broadcasted Update Request, we start the channel change timer here.  
    512              osal_start_timerEx( ZDNwkMgr_TaskID, ZDNWKMGR_CHANNEL_CHANGE_EVT, 
    513                                  ZDNWKMGR_BCAST_DELIVERY_TIME );
    514            }
    515          }
    516          #endif  // NWK_MANAGER
    517          
    518          /*********************************************************************
    519           * @fn          ZDNwkMgr_ProcessMgmtNwkUpdateReq
    520           *
    521           * @brief       This function processes the incoming Management
    522           *              Network Update request and starts the request (if needed).
    523           *
    524           * @param       Request message
    525           *
    526           * @return      none
    527           */

   \                                 In  segment BANKED_CODE, align 1, keep-with-next
    528          static void ZDNwkMgr_ProcessMgmtNwkUpdateReq( zdoIncomingMsg_t *inMsg )
   \                     ZDNwkMgr_ProcessMgmtNwkUpdateReq:
    529          {
   \   000000   74F0         MOV     A,#-0x10
   \   000002   12....       LCALL   ?BANKED_ENTER_XDATA
   \   000005                ; Saved register size: 16
   \   000005                ; Auto size: 9
   \   000005   74F7         MOV     A,#-0x9
   \   000007   12....       LCALL   ?ALLOC_XSTACK8
   \   00000A   EA           MOV     A,R2
   \   00000B   FE           MOV     R6,A
   \   00000C   EB           MOV     A,R3
   \   00000D   FF           MOV     R7,A
    530            ZDO_MgmtNwkUpdateReq_t Req;
    531            
    532            ZDO_ParseMgmtNwkUpdateReq( inMsg, &Req );
   \   00000E                ; Setup parameters for call to function ZDO_ParseMgmtNwkUpdateReq
   \   00000E   85..82       MOV     DPL,?XSP + 0
   \   000011   85..83       MOV     DPH,?XSP + 1
   \   000014   AC82         MOV     R4,DPL
   \   000016   AD83         MOV     R5,DPH
   \   000018   EE           MOV     A,R6
   \   000019   FA           MOV     R2,A
   \   00001A   EF           MOV     A,R7
   \   00001B   FB           MOV     R3,A
   \   00001C   12....       LCALL   ??ZDO_ParseMgmtNwkUpdateReq?relay
    533             
    534            if ( Req.scanDuration <= 0x05 )
   \   00001F   7404         MOV     A,#0x4
   \   000021   12....       LCALL   ?XSTACK_DISP0_8
   \   000024   E0           MOVX    A,@DPTR
   \   000025   C3           CLR     C
   \   000026   9406         SUBB    A,#0x6
   \   000028   4003         JC      $+5
   \   00002A   02....       LJMP    ??ZDNwkMgr_ProcessMgmtNwkUpdateReq_0 & 0xFFFF
    535            {
    536              // Request is to scan over channelMask. The result will be reported by Confirm   
    537              if ( ( !inMsg->wasBroadcast )                     && 
    538                   ( Req.scanCount >  ZDNWKMGR_MIN_SCAN_COUNT ) && 
    539                   ( Req.scanCount <= ZDNWKMGR_MAX_SCAN_COUNT ) )
   \   00002D   EE           MOV     A,R6
   \   00002E   240B         ADD     A,#0xb
   \   000030   F582         MOV     DPL,A
   \   000032   EF           MOV     A,R7
   \   000033   3400         ADDC    A,#0x0
   \   000035   F583         MOV     DPH,A
   \   000037   E0           MOVX    A,@DPTR
   \   000038   6003         JZ      $+5
   \   00003A   02....       LJMP    ??ZDNwkMgr_ProcessMgmtNwkUpdateReq_1 & 0xFFFF
   \   00003D   7405         MOV     A,#0x5
   \   00003F   12....       LCALL   ?XSTACK_DISP0_8
   \   000042   E0           MOVX    A,@DPTR
   \   000043   C3           CLR     C
   \   000044   9401         SUBB    A,#0x1
   \   000046   5003         JNC     $+5
   \   000048   02....       LJMP    ??ZDNwkMgr_ProcessMgmtNwkUpdateReq_1 & 0xFFFF
   \   00004B   7405         MOV     A,#0x5
   \   00004D   12....       LCALL   ?XSTACK_DISP0_8
   \   000050   E0           MOVX    A,@DPTR
   \   000051   C3           CLR     C
   \   000052   9406         SUBB    A,#0x6
   \   000054   4003         JC      $+5
   \   000056   02....       LJMP    ??ZDNwkMgr_ProcessMgmtNwkUpdateReq_1 & 0xFFFF
    540              {
    541                if ( NLME_EDScanRequest( Req.channelMask, Req.scanDuration ) == ZSuccess )
   \   000059                ; Setup parameters for call to function NLME_EDScanRequest
   \   000059   7404         MOV     A,#0x4
   \   00005B   12....       LCALL   ?XSTACK_DISP0_8
   \   00005E   E0           MOVX    A,@DPTR
   \   00005F   F9           MOV     R1,A
   \   000060   85..82       MOV     DPL,?XSP + 0
   \   000063   85..83       MOV     DPH,?XSP + 1
   \   000066   12....       LCALL   ?XLOAD_R2345
   \   000069   12....       LCALL   ??NLME_EDScanRequest?relay
   \   00006C   E9           MOV     A,R1
   \   00006D   6003         JZ      $+5
   \   00006F   02....       LJMP    ??ZDNwkMgr_ProcessMgmtNwkUpdateReq_1 & 0xFFFF
    542                {
    543                  // Save off the information to be used for the notify
    544                  ZDNwkMgr_MgmtNwkUpdateNotifyTransSeq            = inMsg->TransSeq;
   \   000072   EE           MOV     A,R6
   \   000073   240F         ADD     A,#0xf
   \   000075   F582         MOV     DPL,A
   \   000077   EF           MOV     A,R7
   \   000078   3400         ADDC    A,#0x0
   \   00007A   F583         MOV     DPH,A
   \   00007C   E0           MOVX    A,@DPTR
   \   00007D   90....       MOV     DPTR,#ZDNwkMgr_MgmtNwkUpdateNotifyTransSeq
   \   000080   F0           MOVX    @DPTR,A
    545                  ZDNwkMgr_MgmtNwkUpdateNotifyAddr.addr.shortAddr = inMsg->srcAddr.addr.shortAddr;
   \   000081   8E82         MOV     DPL,R6
   \   000083   8F83         MOV     DPH,R7
   \   000085   A3           INC     DPTR
   \   000086   A3           INC     DPTR
   \   000087   E0           MOVX    A,@DPTR
   \   000088   F8           MOV     R0,A
   \   000089   A3           INC     DPTR
   \   00008A   E0           MOVX    A,@DPTR
   \   00008B   F9           MOV     R1,A
   \   00008C   90....       MOV     DPTR,#ZDNwkMgr_MgmtNwkUpdateNotifyAddr
   \   00008F   E8           MOV     A,R0
   \   000090   F0           MOVX    @DPTR,A
   \   000091   A3           INC     DPTR
   \   000092   E9           MOV     A,R1
   \   000093   F0           MOVX    @DPTR,A
    546                  
    547                  Req.scanCount--;
   \   000094   7405         MOV     A,#0x5
   \   000096   12....       LCALL   ?XSTACK_DISP0_8
   \   000099   E0           MOVX    A,@DPTR
   \   00009A   24FF         ADD     A,#-0x1
   \   00009C   F0           MOVX    @DPTR,A
    548                  
    549                  // Save off scan info for the subsequent scans
    550                  ZDNwkMgr_MgmtNwkUpdateReq = Req;
   \   00009D   85..82       MOV     DPL,?XSP + 0
   \   0000A0   85..83       MOV     DPH,?XSP + 1
   \   0000A3   7C..         MOV     R4,#ZDNwkMgr_MgmtNwkUpdateReq & 0xff
   \   0000A5   7D..         MOV     R5,#(ZDNwkMgr_MgmtNwkUpdateReq >> 8) & 0xff
   \   0000A7   7409         MOV     A,#0x9
   \   0000A9   12....       LCALL   ?MOVE_LONG8_XDATA_XDATA
   \   0000AC   02....       LJMP    ??ZDNwkMgr_ProcessMgmtNwkUpdateReq_1 & 0xFFFF
    551                }
    552              }
    553            }
    554            else if ( Req.scanDuration == 0xFE )
   \                     ??ZDNwkMgr_ProcessMgmtNwkUpdateReq_0:
   \   0000AF   7404         MOV     A,#0x4
   \   0000B1   12....       LCALL   ?XSTACK_DISP0_8
   \   0000B4   E0           MOVX    A,@DPTR
   \   0000B5   64FE         XRL     A,#0xfe
   \   0000B7   6003         JZ      $+5
   \   0000B9   02....       LJMP    ??ZDNwkMgr_ProcessMgmtNwkUpdateReq_2 & 0xFFFF
    555            {
    556              // Request is to change Channel. The command provide a new active
    557              // channel as a single channel in the channelMask.
    558              if ( Req.nwkUpdateId > _NIB.nwkUpdateId )
   \   0000BC   7406         MOV     A,#0x6
   \   0000BE   12....       LCALL   ?XSTACK_DISP0_8
   \   0000C1   E0           MOVX    A,@DPTR
   \   0000C2   F8           MOV     R0,A
   \   0000C3   90....       MOV     DPTR,#_NIB + 109
   \   0000C6   E0           MOVX    A,@DPTR
   \   0000C7   C3           CLR     C
   \   0000C8   98           SUBB    A,R0
   \   0000C9   4003         JC      $+5
   \   0000CB   02....       LJMP    ??ZDNwkMgr_ProcessMgmtNwkUpdateReq_1 & 0xFFFF
    559              {
    560                uint8 i;
    561                
    562                // Set update ID in the Beacon
    563                NLME_SetUpdateID(Req.nwkUpdateId); 
   \   0000CE                ; Setup parameters for call to function NLME_SetUpdateID
   \   0000CE   7406         MOV     A,#0x6
   \   0000D0   12....       LCALL   ?XSTACK_DISP0_8
   \   0000D3   E0           MOVX    A,@DPTR
   \   0000D4   F9           MOV     R1,A
   \   0000D5   12....       LCALL   ??NLME_SetUpdateID?relay
    564                
    565                // Find out the new active channel
    566                for ( i = 0; i < ED_SCAN_MAXCHANNELS; i++ )
   \   0000D8   75..00       MOV     ?V0 + 0,#0x0
   \                     ??ZDNwkMgr_ProcessMgmtNwkUpdateReq_3:
   \   0000DB   E5..         MOV     A,?V0 + 0
   \   0000DD   C3           CLR     C
   \   0000DE   941B         SUBB    A,#0x1b
   \   0000E0   502C         JNC     ??ZDNwkMgr_ProcessMgmtNwkUpdateReq_4
    567                {
    568                  if ( ( (uint32)1 << i ) & Req.channelMask )
   \   0000E2   75..01       MOV     ?V0 + 4,#0x1
   \   0000E5   75..00       MOV     ?V0 + 5,#0x0
   \   0000E8   75..00       MOV     ?V0 + 6,#0x0
   \   0000EB   75..00       MOV     ?V0 + 7,#0x0
   \   0000EE   E5..         MOV     A,?V0 + 0
   \   0000F0   78..         MOV     R0,#?V0 + 4
   \   0000F2   12....       LCALL   ?L_SHL
   \   0000F5   85..82       MOV     DPL,?XSP + 0
   \   0000F8   85..83       MOV     DPH,?XSP + 1
   \   0000FB   78..         MOV     R0,#?V0 + 4
   \   0000FD   12....       LCALL   ?L_AND_X
   \   000100   E5..         MOV     A,?V0 + 4
   \   000102   45..         ORL     A,?V0 + 5
   \   000104   45..         ORL     A,?V0 + 6
   \   000106   45..         ORL     A,?V0 + 7
   \   000108   7004         JNZ     ??ZDNwkMgr_ProcessMgmtNwkUpdateReq_4
    569                  {
    570                    break;
    571                  }
    572                }
   \   00010A   05..         INC     ?V0 + 0
   \   00010C   80CD         SJMP    ??ZDNwkMgr_ProcessMgmtNwkUpdateReq_3
    573          
    574                if ( _NIB.nwkLogicalChannel != i )
   \                     ??ZDNwkMgr_ProcessMgmtNwkUpdateReq_4:
   \   00010E   90....       MOV     DPTR,#_NIB + 22
   \   000111   E0           MOVX    A,@DPTR
   \   000112   65..         XRL     A,?V0 + 0
   \   000114   7003         JNZ     $+5
   \   000116   02....       LJMP    ??ZDNwkMgr_ProcessMgmtNwkUpdateReq_1 & 0xFFFF
    575                {
    576                  ZDNwkMgr_NewChannel = i;
   \   000119   E5..         MOV     A,?V0 + 0
   \   00011B   90....       MOV     DPTR,#ZDNwkMgr_NewChannel
   \   00011E   F0           MOVX    @DPTR,A
    577                    
    578                  // Upon receipt of a Mgmt_NWK_Update_req with a change of channels, 
    579                  // the local network manager shall set a timer equal to the 
    580                  // nwkNetworkBroadcastDeliveryTime and shall switch channels upon 
    581                  // expiration of this timer.  Each node shall also increment the 
    582                  // nwkUpdateId parameter and also reset the total transmit count 
    583                  // and the transmit failure counters.  
    584                  osal_start_timerEx( ZDNwkMgr_TaskID, ZDNWKMGR_CHANNEL_CHANGE_EVT, 
    585                                      ZDNWKMGR_BCAST_DELIVERY_TIME );
   \   00011F                ; Setup parameters for call to function osal_start_timerEx
   \   00011F   90....       MOV     DPTR,#_NIB + 7
   \   000122   E0           MOVX    A,@DPTR
   \   000123   FC           MOV     R4,A
   \   000124   7D00         MOV     R5,#0x0
   \   000126   EC           MOV     A,R4
   \   000127   75F064       MOV     B,#0x64
   \   00012A   A4           MUL     AB
   \   00012B   CC           XCH     A,R4
   \   00012C   A8F0         MOV     R0,B
   \   00012E   75F000       MOV     B,#0x0
   \   000131   A4           MUL     AB
   \   000132   28           ADD     A,R0
   \   000133   F8           MOV     R0,A
   \   000134   75F064       MOV     B,#0x64
   \   000137   ED           MOV     A,R5
   \   000138   A4           MUL     AB
   \   000139   28           ADD     A,R0
   \   00013A   FD           MOV     R5,A
   \   00013B   7A01         MOV     R2,#0x1
   \   00013D   7B00         MOV     R3,#0x0
   \   00013F   90....       MOV     DPTR,#ZDNwkMgr_TaskID
   \   000142   E0           MOVX    A,@DPTR
   \   000143   F9           MOV     R1,A
   \   000144   12....       LCALL   ??osal_start_timerEx?relay
   \   000147   E9           MOV     A,R1
   \   000148   02....       LJMP    ??ZDNwkMgr_ProcessMgmtNwkUpdateReq_1 & 0xFFFF
    586                }
    587              }
    588            }
    589            else if ( Req.scanDuration == 0xFF )
   \                     ??ZDNwkMgr_ProcessMgmtNwkUpdateReq_2:
   \   00014B   7404         MOV     A,#0x4
   \   00014D   12....       LCALL   ?XSTACK_DISP0_8
   \   000150   E0           MOVX    A,@DPTR
   \   000151   64FF         XRL     A,#0xff
   \   000153   706F         JNZ     ??ZDNwkMgr_ProcessMgmtNwkUpdateReq_5
    590            {
    591              // Request is to change apsChannelMask and nwkManagerAddr
    592              if ( Req.nwkUpdateId > _NIB.nwkUpdateId )
   \   000155   7406         MOV     A,#0x6
   \   000157   12....       LCALL   ?XSTACK_DISP0_8
   \   00015A   E0           MOVX    A,@DPTR
   \   00015B   F8           MOV     R0,A
   \   00015C   90....       MOV     DPTR,#_NIB + 109
   \   00015F   E0           MOVX    A,@DPTR
   \   000160   C3           CLR     C
   \   000161   98           SUBB    A,R0
   \   000162   4003         JC      $+5
   \   000164   02....       LJMP    ??ZDNwkMgr_ProcessMgmtNwkUpdateReq_1 & 0xFFFF
    593              {
    594                NLME_SetUpdateID(Req.nwkUpdateId); // Set the updateID in the beacon
   \   000167                ; Setup parameters for call to function NLME_SetUpdateID
   \   000167   7406         MOV     A,#0x6
   \   000169   12....       LCALL   ?XSTACK_DISP0_8
   \   00016C   E0           MOVX    A,@DPTR
   \   00016D   F9           MOV     R1,A
   \   00016E   12....       LCALL   ??NLME_SetUpdateID?relay
    595                 
    596                if ( ( Req.channelMask != 0 ) && ( _NIB.channelList != Req.channelMask ) )
   \   000171   85..82       MOV     DPL,?XSP + 0
   \   000174   85..83       MOV     DPH,?XSP + 1
   \   000177   78..         MOV     R0,#?V0 + 0
   \   000179   12....       LCALL   ?L_MOV_X
   \   00017C   E5..         MOV     A,?V0 + 0
   \   00017E   45..         ORL     A,?V0 + 1
   \   000180   45..         ORL     A,?V0 + 2
   \   000182   45..         ORL     A,?V0 + 3
   \   000184   602F         JZ      ??ZDNwkMgr_ProcessMgmtNwkUpdateReq_6
   \   000186   90....       MOV     DPTR,#_NIB + 36
   \   000189   C082         PUSH    DPL
   \   00018B   C083         PUSH    DPH
   \   00018D   85..82       MOV     DPL,?XSP + 0
   \   000190   85..83       MOV     DPH,?XSP + 1
   \   000193   78..         MOV     R0,#?V0 + 0
   \   000195   12....       LCALL   ?L_MOV_X
   \   000198   D083         POP     DPH
   \   00019A   D082         POP     DPL
   \   00019C   78..         MOV     R0,#?V0 + 0
   \   00019E   12....       LCALL   ?L_EQ_X
   \   0001A1   6012         JZ      ??ZDNwkMgr_ProcessMgmtNwkUpdateReq_6
    597                {
    598                  _NIB.channelList = Req.channelMask;
   \   0001A3   85..82       MOV     DPL,?XSP + 0
   \   0001A6   85..83       MOV     DPH,?XSP + 1
   \   0001A9   12....       LCALL   ?XLOAD_R2345
   \   0001AC   90....       MOV     DPTR,#_NIB + 36
   \   0001AF   12....       LCALL   ?XSTORE_R2345
    599                
    600                  // Our Channel List has been changed -- notify to save info into NV
    601                  ZDApp_NwkStateUpdateCB();
   \   0001B2                ; Setup parameters for call to function ZDApp_NwkStateUpdateCB
   \   0001B2   12....       LCALL   ??ZDApp_NwkStateUpdateCB?relay
    602                }
    603              
    604                ZDNwkMgr_SetNwkManagerAddr( Req.nwkManagerAddr );
   \                     ??ZDNwkMgr_ProcessMgmtNwkUpdateReq_6:
   \   0001B5                ; Setup parameters for call to function ZDNwkMgr_SetNwkManagerAddr
   \   0001B5   7407         MOV     A,#0x7
   \   0001B7   12....       LCALL   ?XSTACK_DISP0_8
   \   0001BA   E0           MOVX    A,@DPTR
   \   0001BB   FA           MOV     R2,A
   \   0001BC   A3           INC     DPTR
   \   0001BD   E0           MOVX    A,@DPTR
   \   0001BE   FB           MOV     R3,A
   \   0001BF   12....       LCALL   ??ZDNwkMgr_SetNwkManagerAddr?relay
   \   0001C2   8071         SJMP    ??ZDNwkMgr_ProcessMgmtNwkUpdateReq_1
    605              }
    606            }
    607            else // 0x06-0xFD
    608            {
    609              // Request is invalid
    610              if ( !inMsg->wasBroadcast )
   \                     ??ZDNwkMgr_ProcessMgmtNwkUpdateReq_5:
   \   0001C4   EE           MOV     A,R6
   \   0001C5   240B         ADD     A,#0xb
   \   0001C7   F582         MOV     DPL,A
   \   0001C9   EF           MOV     A,R7
   \   0001CA   3400         ADDC    A,#0x0
   \   0001CC   F583         MOV     DPH,A
   \   0001CE   E0           MOVX    A,@DPTR
   \   0001CF   7064         JNZ     ??ZDNwkMgr_ProcessMgmtNwkUpdateReq_1
    611              {
    612                ZDNwkMgr_MgmtNwkUpdateNotifyAddr.addr.shortAddr = inMsg->srcAddr.addr.shortAddr;
   \   0001D1   8E82         MOV     DPL,R6
   \   0001D3   8F83         MOV     DPH,R7
   \   0001D5   A3           INC     DPTR
   \   0001D6   A3           INC     DPTR
   \   0001D7   E0           MOVX    A,@DPTR
   \   0001D8   F8           MOV     R0,A
   \   0001D9   A3           INC     DPTR
   \   0001DA   E0           MOVX    A,@DPTR
   \   0001DB   F9           MOV     R1,A
   \   0001DC   90....       MOV     DPTR,#ZDNwkMgr_MgmtNwkUpdateNotifyAddr
   \   0001DF   E8           MOV     A,R0
   \   0001E0   F0           MOVX    @DPTR,A
   \   0001E1   A3           INC     DPTR
   \   0001E2   E9           MOV     A,R1
   \   0001E3   F0           MOVX    @DPTR,A
    613                ZDP_MgmtNwkUpdateNotify( inMsg->TransSeq, &ZDNwkMgr_MgmtNwkUpdateNotifyAddr,
    614                                         ZDP_INVALID_REQTYPE, 0, 0, 0, 0, NULL, AF_TX_OPTIONS_NONE, false );
   \   0001E4                ; Setup parameters for call to function ZDP_MgmtNwkUpdateNotify
   \   0001E4   75..00       MOV     ?V0 + 0,#0x0
   \   0001E7   78..         MOV     R0,#?V0 + 0
   \   0001E9   12....       LCALL   ?PUSH_XSTACK_I_ONE
   \   0001EC   75..00       MOV     ?V0 + 0,#0x0
   \   0001EF   78..         MOV     R0,#?V0 + 0
   \   0001F1   12....       LCALL   ?PUSH_XSTACK_I_ONE
   \   0001F4   E4           CLR     A
   \   0001F5   F5..         MOV     ?V0 + 0,A
   \   0001F7   F5..         MOV     ?V0 + 1,A
   \   0001F9   78..         MOV     R0,#?V0 + 0
   \   0001FB   12....       LCALL   ?PUSH_XSTACK_I_TWO
   \   0001FE   E4           CLR     A
   \   0001FF   F5..         MOV     ?V0 + 0,A
   \   000201   F5..         MOV     ?V0 + 1,A
   \   000203   78..         MOV     R0,#?V0 + 0
   \   000205   12....       LCALL   ?PUSH_XSTACK_I_TWO
   \   000208   E4           CLR     A
   \   000209   F5..         MOV     ?V0 + 0,A
   \   00020B   F5..         MOV     ?V0 + 1,A
   \   00020D   78..         MOV     R0,#?V0 + 0
   \   00020F   12....       LCALL   ?PUSH_XSTACK_I_TWO
   \   000212   90....       MOV     DPTR,#__Constant_0
   \   000215   12....       LCALL   ?PUSH_XSTACK8_X_FOUR
   \   000218   7D00         MOV     R5,#0x0
   \   00021A   7C80         MOV     R4,#-0x80
   \   00021C   7A..         MOV     R2,#ZDNwkMgr_MgmtNwkUpdateNotifyAddr & 0xff
   \   00021E   7B..         MOV     R3,#(ZDNwkMgr_MgmtNwkUpdateNotifyAddr >> 8) & 0xff
   \   000220   EE           MOV     A,R6
   \   000221   240F         ADD     A,#0xf
   \   000223   F582         MOV     DPL,A
   \   000225   EF           MOV     A,R7
   \   000226   3400         ADDC    A,#0x0
   \   000228   F583         MOV     DPH,A
   \   00022A   E0           MOVX    A,@DPTR
   \   00022B   F9           MOV     R1,A
   \   00022C   12....       LCALL   ??ZDP_MgmtNwkUpdateNotify?relay
   \   00022F   740C         MOV     A,#0xc
   \   000231   12....       LCALL   ?DEALLOC_XSTACK8
   \   000234   E9           MOV     A,R1
    615              }
    616            }
    617          }
   \                     ??ZDNwkMgr_ProcessMgmtNwkUpdateReq_1:
   \   000235   7409         MOV     A,#0x9
   \   000237   12....       LCALL   ?DEALLOC_XSTACK8
   \   00023A   7F08         MOV     R7,#0x8
   \   00023C   02....       LJMP    ?BANKED_LEAVE_XDATA
    618          
    619          /*********************************************************************
    620           * @fn      ZDNwkMgr_ProcessServerDiscRsp
    621           *
    622           * @brief   Process the incoming System Server Discovery Response
    623           *
    624           * @param   pRsp - Structure containing Server Discovery response
    625           *
    626           * @return  none
    627           */

   \                                 In  segment BANKED_CODE, align 1, keep-with-next
    628          void ZDNwkMgr_ProcessServerDiscRsp( zdoIncomingMsg_t *inMsg )
   \                     ZDNwkMgr_ProcessServerDiscRsp:
    629          {
   \   000000   74F7         MOV     A,#-0x9
   \   000002   12....       LCALL   ?BANKED_ENTER_XDATA
   \   000005                ; Saved register size: 9
   \   000005                ; Auto size: 3
   \   000005   74FD         MOV     A,#-0x3
   \   000007   12....       LCALL   ?ALLOC_XSTACK8
   \   00000A   EA           MOV     A,R2
   \   00000B   FE           MOV     R6,A
   \   00000C   EB           MOV     A,R3
   \   00000D   FF           MOV     R7,A
    630            ZDO_ServerDiscRsp_t Rsp;
    631            
    632            ZDO_ParseServerDiscRsp( inMsg, &Rsp );
   \   00000E                ; Setup parameters for call to function ZDO_ParseServerDiscRsp
   \   00000E   85..82       MOV     DPL,?XSP + 0
   \   000011   85..83       MOV     DPH,?XSP + 1
   \   000014   AC82         MOV     R4,DPL
   \   000016   AD83         MOV     R5,DPH
   \   000018   EE           MOV     A,R6
   \   000019   FA           MOV     R2,A
   \   00001A   EF           MOV     A,R7
   \   00001B   FB           MOV     R3,A
   \   00001C   12....       LCALL   ??ZDO_ParseServerDiscRsp?relay
    633            
    634            if ( Rsp.status == ZSuccess )
   \   00001F   85..82       MOV     DPL,?XSP + 0
   \   000022   85..83       MOV     DPH,?XSP + 1
   \   000025   E0           MOVX    A,@DPTR
   \   000026   701D         JNZ     ??ZDNwkMgr_ProcessServerDiscRsp_0
    635            {
    636              // Is the Network Manager bit set in the response?
    637              if ( Rsp.serverMask & NETWORK_MANAGER )
   \   000028   7401         MOV     A,#0x1
   \   00002A   12....       LCALL   ?XSTACK_DISP0_8
   \   00002D   E0           MOVX    A,@DPTR
   \   00002E   F8           MOV     R0,A
   \   00002F   A3           INC     DPTR
   \   000030   E0           MOVX    A,@DPTR
   \   000031   F9           MOV     R1,A
   \   000032   E8           MOV     A,R0
   \   000033   5440         ANL     A,#0x40
   \   000035   600E         JZ      ??ZDNwkMgr_ProcessServerDiscRsp_0
    638              {
    639                // Set the Remote Device's NWK Address as the Network Manager Address
    640                ZDNwkMgr_SetNwkManagerAddr( inMsg->srcAddr.addr.shortAddr );
   \   000037                ; Setup parameters for call to function ZDNwkMgr_SetNwkManagerAddr
   \   000037   8E82         MOV     DPL,R6
   \   000039   8F83         MOV     DPH,R7
   \   00003B   A3           INC     DPTR
   \   00003C   A3           INC     DPTR
   \   00003D   E0           MOVX    A,@DPTR
   \   00003E   FA           MOV     R2,A
   \   00003F   A3           INC     DPTR
   \   000040   E0           MOVX    A,@DPTR
   \   000041   FB           MOV     R3,A
   \   000042   12....       LCALL   ??ZDNwkMgr_SetNwkManagerAddr?relay
    641              }
    642            }
    643          }
   \                     ??ZDNwkMgr_ProcessServerDiscRsp_0:
   \   000045   7403         MOV     A,#0x3
   \   000047   12....       LCALL   ?DEALLOC_XSTACK8
   \   00004A   7F01         MOV     R7,#0x1
   \   00004C   02....       LJMP    ?BANKED_LEAVE_XDATA
    644          
    645          /*********************************************************************
    646           * @fn          ZDNwkMgr_ProcessChannelInterference
    647           *
    648           * @brief       This function processes the incoming Channel Interference
    649           *              detection message and sends out a notify (if needed).
    650           *
    651           * @param       pChannelInterference - interference message
    652           *
    653           * @return      none
    654           */

   \                                 In  segment BANKED_CODE, align 1, keep-with-next
    655          static void ZDNwkMgr_ProcessChannelInterference( ZDNwkMgr_ChanInterference_t *pChanInterference )
   \                     ZDNwkMgr_ProcessChannelInterference:
    656          {
   \   000000   74F7         MOV     A,#-0x9
   \   000002   12....       LCALL   ?BANKED_ENTER_XDATA
   \   000005                ; Saved register size: 9
   \   000005                ; Auto size: 0
   \   000005   EA           MOV     A,R2
   \   000006   FE           MOV     R6,A
   \   000007   EB           MOV     A,R3
   \   000008   FF           MOV     R7,A
    657            // To avoid a device with communication problems from constantly 
    658            // sending reports to the network manager, the device should not 
    659            // send a Mgmt_NWK_Update_notify more than 4 times per hour.
    660            if ( ZDNwkMgr_NumUpdateNotifySent < 4 )
   \   000009   90....       MOV     DPTR,#ZDNwkMgr_NumUpdateNotifySent
   \   00000C   E0           MOVX    A,@DPTR
   \   00000D   C3           CLR     C
   \   00000E   9404         SUBB    A,#0x4
   \   000010   503F         JNC     ??ZDNwkMgr_ProcessChannelInterference_0
    661            {
    662              // Conduct an energy scan on all channels.
    663              if ( NLME_EDScanRequest( MAX_CHANNELS_24GHZ, _NIB.scanDuration ) == ZSuccess )
   \   000012                ; Setup parameters for call to function NLME_EDScanRequest
   \   000012   90....       MOV     DPTR,#_NIB + 42
   \   000015   E0           MOVX    A,@DPTR
   \   000016   F9           MOV     R1,A
   \   000017   90....       MOV     DPTR,#__Constant_7fff800
   \   00001A   12....       LCALL   ?XLOAD_R2345
   \   00001D   12....       LCALL   ??NLME_EDScanRequest?relay
   \   000020   E9           MOV     A,R1
   \   000021   702E         JNZ     ??ZDNwkMgr_ProcessChannelInterference_0
    664              {
    665                // Save the counters for the Update Notify message to be sent
    666                ZDNwkMgr_TotalTransmissions = pChanInterference->totalTransmissions;
   \   000023   8E82         MOV     DPL,R6
   \   000025   8F83         MOV     DPH,R7
   \   000027   A3           INC     DPTR
   \   000028   A3           INC     DPTR
   \   000029   E0           MOVX    A,@DPTR
   \   00002A   F8           MOV     R0,A
   \   00002B   A3           INC     DPTR
   \   00002C   E0           MOVX    A,@DPTR
   \   00002D   F9           MOV     R1,A
   \   00002E   90....       MOV     DPTR,#ZDNwkMgr_TotalTransmissions
   \   000031   E8           MOV     A,R0
   \   000032   F0           MOVX    @DPTR,A
   \   000033   A3           INC     DPTR
   \   000034   E9           MOV     A,R1
   \   000035   F0           MOVX    @DPTR,A
    667                ZDNwkMgr_TxFailures = pChanInterference->txFailures;
   \   000036   8E82         MOV     DPL,R6
   \   000038   8F83         MOV     DPH,R7
   \   00003A   A3           INC     DPTR
   \   00003B   A3           INC     DPTR
   \   00003C   A3           INC     DPTR
   \   00003D   A3           INC     DPTR
   \   00003E   E0           MOVX    A,@DPTR
   \   00003F   F8           MOV     R0,A
   \   000040   A3           INC     DPTR
   \   000041   E0           MOVX    A,@DPTR
   \   000042   F9           MOV     R1,A
   \   000043   90....       MOV     DPTR,#ZDNwkMgr_TxFailures
   \   000046   E8           MOV     A,R0
   \   000047   F0           MOVX    @DPTR,A
   \   000048   A3           INC     DPTR
   \   000049   E9           MOV     A,R1
   \   00004A   F0           MOVX    @DPTR,A
    668          
    669                // Mark scan as channel inetrference check
    670                ZDNwkMgr_MgmtNwkUpdateReq.scanCount = 0xFF;
   \   00004B   90....       MOV     DPTR,#ZDNwkMgr_MgmtNwkUpdateReq + 5
   \   00004E   74FF         MOV     A,#-0x1
   \   000050   F0           MOVX    @DPTR,A
    671              }
    672            }
    673          }
   \                     ??ZDNwkMgr_ProcessChannelInterference_0:
   \   000051   7F01         MOV     R7,#0x1
   \   000053   02....       LJMP    ?BANKED_LEAVE_XDATA
    674          
    675          /*********************************************************************
    676           * @fn          ZDNwkMgr_ProcessEDScanConfirm
    677           *
    678           * @brief       This function processes the incoming ED Scan Confirm
    679           *              message and sends out a notify (if needed).
    680           *
    681           * @param       pEDScanConfirm - SD Scan Confirmation message
    682           *
    683           * @return      none
    684           */

   \                                 In  segment BANKED_CODE, align 1, keep-with-next
    685          static void ZDNwkMgr_ProcessEDScanConfirm( ZDNwkMgr_EDScanConfirm_t *pEDScanConfirm )
   \                     ZDNwkMgr_ProcessEDScanConfirm:
    686          { 
   \   000000   74F2         MOV     A,#-0xe
   \   000002   12....       LCALL   ?BANKED_ENTER_XDATA
   \   000005                ; Saved register size: 14
   \   000005                ; Auto size: 0
   \   000005   8A..         MOV     ?V0 + 2,R2
   \   000007   8B..         MOV     ?V0 + 3,R3
    687            if ( ZDNwkMgr_MgmtNwkUpdateReq.scanCount == 0xFF )
   \   000009   90....       MOV     DPTR,#ZDNwkMgr_MgmtNwkUpdateReq + 5
   \   00000C   E0           MOVX    A,@DPTR
   \   00000D   64FF         XRL     A,#0xff
   \   00000F   700F         JNZ     ??ZDNwkMgr_ProcessEDScanConfirm_0
    688            {
    689              // Confirm to scan all channels for channel interference check
    690              ZDNwkMgr_CheckForChannelInterference( pEDScanConfirm ); 
   \   000011                ; Setup parameters for call to function ZDNwkMgr_CheckForChannelInterference
   \   000011   AA..         MOV     R2,?V0 + 2
   \   000013   AB..         MOV     R3,?V0 + 3
   \   000015   12....       LCALL   ??ZDNwkMgr_CheckForChannelInterference?relay
    691              
    692              ZDNwkMgr_MgmtNwkUpdateReq.scanCount = 0;
   \   000018   90....       MOV     DPTR,#ZDNwkMgr_MgmtNwkUpdateReq + 5
   \   00001B   7400         MOV     A,#0x0
   \   00001D   F0           MOVX    @DPTR,A
   \   00001E   8054         SJMP    ??ZDNwkMgr_ProcessEDScanConfirm_1
    693            }
    694            else
    695            {
    696              // Confirm to the requested scan
    697              uint16 txFailures = nwkTransmissionFailures( FALSE );
   \                     ??ZDNwkMgr_ProcessEDScanConfirm_0:
   \   000020                ; Setup parameters for call to function nwkTransmissionFailures
   \   000020   7900         MOV     R1,#0x0
   \   000022   12....       LCALL   ??nwkTransmissionFailures?relay
   \   000025   8A..         MOV     ?V0 + 4,R2
   \   000027   8B..         MOV     ?V0 + 5,R3
   \   000029   85....       MOV     ?V0 + 0,?V0 + 4
   \   00002C   85....       MOV     ?V0 + 1,?V0 + 5
    698              
    699              ZDNwkMgr_BuildAndSendUpdateNotify( ZDNwkMgr_MgmtNwkUpdateNotifyTransSeq,
    700                                                 &ZDNwkMgr_MgmtNwkUpdateNotifyAddr, 
    701                                                 _NIB.nwkTotalTransmissions, txFailures, 
    702                                                 pEDScanConfirm, AF_TX_OPTIONS_NONE );
   \   00002F                ; Setup parameters for call to function ZDNwkMgr_BuildAndSendUpdateNotify
   \   00002F   75..00       MOV     ?V0 + 4,#0x0
   \   000032   78..         MOV     R0,#?V0 + 4
   \   000034   12....       LCALL   ?PUSH_XSTACK_I_ONE
   \   000037   78..         MOV     R0,#?V0 + 2
   \   000039   12....       LCALL   ?PUSH_XSTACK_I_TWO
   \   00003C   78..         MOV     R0,#?V0 + 0
   \   00003E   12....       LCALL   ?PUSH_XSTACK_I_TWO
   \   000041   90....       MOV     DPTR,#_NIB + 107
   \   000044   E0           MOVX    A,@DPTR
   \   000045   FC           MOV     R4,A
   \   000046   A3           INC     DPTR
   \   000047   E0           MOVX    A,@DPTR
   \   000048   FD           MOV     R5,A
   \   000049   7A..         MOV     R2,#ZDNwkMgr_MgmtNwkUpdateNotifyAddr & 0xff
   \   00004B   7B..         MOV     R3,#(ZDNwkMgr_MgmtNwkUpdateNotifyAddr >> 8) & 0xff
   \   00004D   90....       MOV     DPTR,#ZDNwkMgr_MgmtNwkUpdateNotifyTransSeq
   \   000050   E0           MOVX    A,@DPTR
   \   000051   F9           MOV     R1,A
   \   000052   12....       LCALL   ??ZDNwkMgr_BuildAndSendUpdateNotify?relay
   \   000055   7405         MOV     A,#0x5
   \   000057   12....       LCALL   ?DEALLOC_XSTACK8
    703              // More scans needed?
    704              if ( ZDNwkMgr_MgmtNwkUpdateReq.scanCount > 0 )
   \   00005A   90....       MOV     DPTR,#ZDNwkMgr_MgmtNwkUpdateReq + 5
   \   00005D   E0           MOVX    A,@DPTR
   \   00005E   C3           CLR     C
   \   00005F   9401         SUBB    A,#0x1
   \   000061   4011         JC      ??ZDNwkMgr_ProcessEDScanConfirm_1
    705              {
    706                osal_start_timerEx( ZDNwkMgr_TaskID, ZDNWKMGR_SCAN_REQUEST_EVT, 50 );
   \   000063                ; Setup parameters for call to function osal_start_timerEx
   \   000063   7C32         MOV     R4,#0x32
   \   000065   7D00         MOV     R5,#0x0
   \   000067   7A08         MOV     R2,#0x8
   \   000069   7B00         MOV     R3,#0x0
   \   00006B   90....       MOV     DPTR,#ZDNwkMgr_TaskID
   \   00006E   E0           MOVX    A,@DPTR
   \   00006F   F9           MOV     R1,A
   \   000070   12....       LCALL   ??osal_start_timerEx?relay
   \   000073   E9           MOV     A,R1
    707              }
    708            }
    709          }
   \                     ??ZDNwkMgr_ProcessEDScanConfirm_1:
   \   000074   7F06         MOV     R7,#0x6
   \   000076   02....       LJMP    ?BANKED_LEAVE_XDATA
    710          
    711          /*********************************************************************
    712           * @fn          ZDNwkMgr_CheckForChannelInterference
    713           *
    714           * @brief       This function processes the incoming ED Scan Confirm
    715           *              message and sends out an Update Notify (if needed).
    716           *
    717           * @param       pEDScanConfirm - SD Scan Confirmation message
    718           *
    719           * @return      none
    720           */

   \                                 In  segment BANKED_CODE, align 1, keep-with-next
    721          static void ZDNwkMgr_CheckForChannelInterference( ZDNwkMgr_EDScanConfirm_t *pEDScanConfirm )
   \                     ZDNwkMgr_CheckForChannelInterference:
    722          {
   \   000000   74F0         MOV     A,#-0x10
   \   000002   12....       LCALL   ?BANKED_ENTER_XDATA
   \   000005                ; Saved register size: 16
   \   000005                ; Auto size: 0
   \   000005   8A..         MOV     ?V0 + 2,R2
   \   000007   8B..         MOV     ?V0 + 3,R3
    723            uint8 i;
    724            uint8 channelEnergy = 0;
   \   000009   7F00         MOV     R7,#0x0
    725            uint8 energyIncreased = FALSE;
   \   00000B   75..00       MOV     ?V0 + 0,#0x0
    726              
    727            // Get the current channel energy
    728            if ( ( (uint32)1 << _NIB.nwkLogicalChannel ) & pEDScanConfirm->scannedChannels )
   \   00000E   75..01       MOV     ?V0 + 4,#0x1
   \   000011   75..00       MOV     ?V0 + 5,#0x0
   \   000014   75..00       MOV     ?V0 + 6,#0x0
   \   000017   75..00       MOV     ?V0 + 7,#0x0
   \   00001A   90....       MOV     DPTR,#_NIB + 22
   \   00001D   E0           MOVX    A,@DPTR
   \   00001E   78..         MOV     R0,#?V0 + 4
   \   000020   12....       LCALL   ?L_SHL
   \   000023   85..82       MOV     DPL,?V0 + 2
   \   000026   85..83       MOV     DPH,?V0 + 3
   \   000029   A3           INC     DPTR
   \   00002A   A3           INC     DPTR
   \   00002B   A3           INC     DPTR
   \   00002C   78..         MOV     R0,#?V0 + 4
   \   00002E   12....       LCALL   ?L_AND_X
   \   000031   E5..         MOV     A,?V0 + 4
   \   000033   45..         ORL     A,?V0 + 5
   \   000035   45..         ORL     A,?V0 + 6
   \   000037   45..         ORL     A,?V0 + 7
   \   000039   601A         JZ      ??ZDNwkMgr_CheckForChannelInterference_0
    729            {
    730              channelEnergy = pEDScanConfirm->energyDetectList[_NIB.nwkLogicalChannel];
   \   00003B   90....       MOV     DPTR,#_NIB + 22
   \   00003E   E0           MOVX    A,@DPTR
   \   00003F   F8           MOV     R0,A
   \   000040   7900         MOV     R1,#0x0
   \   000042   E5..         MOV     A,?V0 + 2
   \   000044   28           ADD     A,R0
   \   000045   F582         MOV     DPL,A
   \   000047   E5..         MOV     A,?V0 + 3
   \   000049   39           ADDC    A,R1
   \   00004A   F583         MOV     DPH,A
   \   00004C   A3           INC     DPTR
   \   00004D   A3           INC     DPTR
   \   00004E   A3           INC     DPTR
   \   00004F   A3           INC     DPTR
   \   000050   A3           INC     DPTR
   \   000051   A3           INC     DPTR
   \   000052   A3           INC     DPTR
   \   000053   E0           MOVX    A,@DPTR
   \   000054   FF           MOV     R7,A
    731            }
    732              
    733            // If this energy scan does not indicate higher energy on the current 
    734            // channel then other channels, no action is taken. The device should 
    735            // continue to operate as normal and the message counters are not reset.
    736            for ( i = 0; i < ED_SCAN_MAXCHANNELS; i++ )
   \                     ??ZDNwkMgr_CheckForChannelInterference_0:
   \   000055   7E00         MOV     R6,#0x0
   \                     ??ZDNwkMgr_CheckForChannelInterference_1:
   \   000057   EE           MOV     A,R6
   \   000058   C3           CLR     C
   \   000059   941B         SUBB    A,#0x1b
   \   00005B   504F         JNC     ??ZDNwkMgr_CheckForChannelInterference_2
    737            {
    738              if ( ( ( (uint32)1 << i ) & pEDScanConfirm->scannedChannels ) && 
    739                   ( channelEnergy > pEDScanConfirm->energyDetectList[i] ) )
   \   00005D   75..01       MOV     ?V0 + 4,#0x1
   \   000060   75..00       MOV     ?V0 + 5,#0x0
   \   000063   75..00       MOV     ?V0 + 6,#0x0
   \   000066   75..00       MOV     ?V0 + 7,#0x0
   \   000069   EE           MOV     A,R6
   \   00006A   78..         MOV     R0,#?V0 + 4
   \   00006C   12....       LCALL   ?L_SHL
   \   00006F   85..82       MOV     DPL,?V0 + 2
   \   000072   85..83       MOV     DPH,?V0 + 3
   \   000075   A3           INC     DPTR
   \   000076   A3           INC     DPTR
   \   000077   A3           INC     DPTR
   \   000078   78..         MOV     R0,#?V0 + 4
   \   00007A   12....       LCALL   ?L_AND_X
   \   00007D   E5..         MOV     A,?V0 + 4
   \   00007F   45..         ORL     A,?V0 + 5
   \   000081   45..         ORL     A,?V0 + 6
   \   000083   45..         ORL     A,?V0 + 7
   \   000085   6022         JZ      ??ZDNwkMgr_CheckForChannelInterference_3
   \   000087   8E..         MOV     ?V0 + 4,R6
   \   000089   75..00       MOV     ?V0 + 5,#0x0
   \   00008C   E5..         MOV     A,?V0 + 2
   \   00008E   25..         ADD     A,?V0 + 4
   \   000090   F582         MOV     DPL,A
   \   000092   E5..         MOV     A,?V0 + 3
   \   000094   35..         ADDC    A,?V0 + 5
   \   000096   F583         MOV     DPH,A
   \   000098   A3           INC     DPTR
   \   000099   A3           INC     DPTR
   \   00009A   A3           INC     DPTR
   \   00009B   A3           INC     DPTR
   \   00009C   A3           INC     DPTR
   \   00009D   A3           INC     DPTR
   \   00009E   A3           INC     DPTR
   \   00009F   E0           MOVX    A,@DPTR
   \   0000A0   C3           CLR     C
   \   0000A1   9F           SUBB    A,R7
   \   0000A2   5005         JNC     ??ZDNwkMgr_CheckForChannelInterference_3
    740              {
    741                energyIncreased = TRUE;
   \   0000A4   75..01       MOV     ?V0 + 0,#0x1
    742                break;
   \   0000A7   8003         SJMP    ??ZDNwkMgr_CheckForChannelInterference_2
    743              }
    744            }
   \                     ??ZDNwkMgr_CheckForChannelInterference_3:
   \   0000A9   0E           INC     R6
   \   0000AA   80AB         SJMP    ??ZDNwkMgr_CheckForChannelInterference_1
    745              
    746            // If the energy scan does indicate increased energy on the channel
    747            // in use, a Mgmt_NWK_Update_notify should be sent to the Network 
    748            // Manager to indicate interference is present.
    749            if ( energyIncreased )
   \                     ??ZDNwkMgr_CheckForChannelInterference_2:
   \   0000AC   E5..         MOV     A,?V0 + 0
   \   0000AE   6067         JZ      ??ZDNwkMgr_CheckForChannelInterference_4
    750            {
    751              // Send a Management Network Update notify to the Network Manager
    752              ZDNwkMgr_MgmtNwkUpdateNotifyAddr.addr.shortAddr = _NIB.nwkManagerAddr;
   \   0000B0   90....       MOV     DPTR,#_NIB + 105
   \   0000B3   E0           MOVX    A,@DPTR
   \   0000B4   F8           MOV     R0,A
   \   0000B5   A3           INC     DPTR
   \   0000B6   E0           MOVX    A,@DPTR
   \   0000B7   F9           MOV     R1,A
   \   0000B8   90....       MOV     DPTR,#ZDNwkMgr_MgmtNwkUpdateNotifyAddr
   \   0000BB   E8           MOV     A,R0
   \   0000BC   F0           MOVX    @DPTR,A
   \   0000BD   A3           INC     DPTR
   \   0000BE   E9           MOV     A,R1
   \   0000BF   F0           MOVX    @DPTR,A
    753              ZDNwkMgr_BuildAndSendUpdateNotify( 0, &ZDNwkMgr_MgmtNwkUpdateNotifyAddr, 
    754                                                 ZDNwkMgr_TotalTransmissions, ZDNwkMgr_TxFailures,
    755                                                 pEDScanConfirm, AF_MSG_ACK_REQUEST );
   \   0000C0                ; Setup parameters for call to function ZDNwkMgr_BuildAndSendUpdateNotify
   \   0000C0   75..10       MOV     ?V0 + 1,#0x10
   \   0000C3   78..         MOV     R0,#?V0 + 1
   \   0000C5   12....       LCALL   ?PUSH_XSTACK_I_ONE
   \   0000C8   78..         MOV     R0,#?V0 + 2
   \   0000CA   12....       LCALL   ?PUSH_XSTACK_I_TWO
   \   0000CD   90....       MOV     DPTR,#ZDNwkMgr_TxFailures
   \   0000D0   12....       LCALL   ?PUSH_XSTACK8_X_TWO
   \   0000D3   90....       MOV     DPTR,#ZDNwkMgr_TotalTransmissions
   \   0000D6   E0           MOVX    A,@DPTR
   \   0000D7   FC           MOV     R4,A
   \   0000D8   A3           INC     DPTR
   \   0000D9   E0           MOVX    A,@DPTR
   \   0000DA   FD           MOV     R5,A
   \   0000DB   7A..         MOV     R2,#ZDNwkMgr_MgmtNwkUpdateNotifyAddr & 0xff
   \   0000DD   7B..         MOV     R3,#(ZDNwkMgr_MgmtNwkUpdateNotifyAddr >> 8) & 0xff
   \   0000DF   7900         MOV     R1,#0x0
   \   0000E1   12....       LCALL   ??ZDNwkMgr_BuildAndSendUpdateNotify?relay
   \   0000E4   7405         MOV     A,#0x5
   \   0000E6   12....       LCALL   ?DEALLOC_XSTACK8
    756              ZDNwkMgr_WaitingForNotifyConfirm = TRUE; // Confirm will clear the counters
   \   0000E9   90....       MOV     DPTR,#ZDNwkMgr_WaitingForNotifyConfirm
   \   0000EC   7401         MOV     A,#0x1
   \   0000EE   F0           MOVX    @DPTR,A
    757                
    758              if ( ZDNwkMgr_NumUpdateNotifySent == 0 )
   \   0000EF   90....       MOV     DPTR,#ZDNwkMgr_NumUpdateNotifySent
   \   0000F2   E0           MOVX    A,@DPTR
   \   0000F3   701B         JNZ     ??ZDNwkMgr_CheckForChannelInterference_5
    759              {
    760                // First notify message sent within this hour. Start the Update Notify timer.
    761                ZDNwkMgr_UpdateNotifyTimer = ZDNWKMGR_UPDATE_NOTIFY_TIMER;
   \   0000F5   90....       MOV     DPTR,#ZDNwkMgr_UpdateNotifyTimer
   \   0000F8   743C         MOV     A,#0x3c
   \   0000FA   F0           MOVX    @DPTR,A
   \   0000FB   A3           INC     DPTR
   \   0000FC   7400         MOV     A,#0x0
   \   0000FE   F0           MOVX    @DPTR,A
    762                osal_start_timerEx( ZDNwkMgr_TaskID, ZDNWKMGR_UPDATE_NOTIFY_EVT, ONE_MINUTE );
   \   0000FF                ; Setup parameters for call to function osal_start_timerEx
   \   0000FF   7C60         MOV     R4,#0x60
   \   000101   7DEA         MOV     R5,#-0x16
   \   000103   7A02         MOV     R2,#0x2
   \   000105   7B00         MOV     R3,#0x0
   \   000107   90....       MOV     DPTR,#ZDNwkMgr_TaskID
   \   00010A   E0           MOVX    A,@DPTR
   \   00010B   F9           MOV     R1,A
   \   00010C   12....       LCALL   ??osal_start_timerEx?relay
   \   00010F   E9           MOV     A,R1
    763              }
    764              
    765              ZDNwkMgr_NumUpdateNotifySent++;
   \                     ??ZDNwkMgr_CheckForChannelInterference_5:
   \   000110   90....       MOV     DPTR,#ZDNwkMgr_NumUpdateNotifySent
   \   000113   E0           MOVX    A,@DPTR
   \   000114   2401         ADD     A,#0x1
   \   000116   F0           MOVX    @DPTR,A
    766            }
    767          #if defined ( LCD_SUPPORTED )
    768            else
    769            {
    770              HalLcdWriteString( (char*)NwkMgrStr_4, HAL_LCD_LINE_1 );
    771              HalLcdWriteStringValueValue( ": ", _NIB.nwkLogicalChannel, 10, channelEnergy, 10, HAL_LCD_LINE_2 );
    772            }
    773          #endif
    774          }
   \                     ??ZDNwkMgr_CheckForChannelInterference_4:
   \   000117   7F08         MOV     R7,#0x8
   \   000119   02....       LJMP    ?BANKED_LEAVE_XDATA
    775          
    776          /*********************************************************************
    777           * @fn          ZDNwkMgr_BuildAndSendUpdateNotify
    778           *
    779           * @brief       This builds and send a Mgmt_NWK_Update_notify message. This
    780           *              function sends a unicast message.
    781           *
    782           * @param       TransSeq - transaction sequence number
    783           * @param       dstAddr - destination address of the message
    784           * @param       pEDScanConfirm - update notify info
    785           *
    786           * @return      afStatus_t
    787           */

   \                                 In  segment BANKED_CODE, align 1, keep-with-next
    788          static void ZDNwkMgr_BuildAndSendUpdateNotify( uint8 TransSeq, zAddrType_t *dstAddr,
   \                     ZDNwkMgr_BuildAndSendUpdateNotify:
    789                                                         uint16 totalTransmissions, uint16 txFailures,
    790                                                         ZDNwkMgr_EDScanConfirm_t *pEDScanConfirm,
    791                                                         uint8 txOptions )
    792          {
   \   000000   74E8         MOV     A,#-0x18
   \   000002   12....       LCALL   ?BANKED_ENTER_XDATA
   \   000005                ; Saved register size: 24
   \   000005                ; Auto size: 0
   \   000005   89..         MOV     ?V0 + 13,R1
   \   000007   8A..         MOV     ?V0 + 14,R2
   \   000009   8B..         MOV     ?V0 + 15,R3
   \   00000B   8C..         MOV     ?V0 + 0,R4
   \   00000D   8D..         MOV     ?V0 + 1,R5
   \   00000F   7418         MOV     A,#0x18
   \   000011   12....       LCALL   ?XSTACK_DISP0_8
   \   000014   E0           MOVX    A,@DPTR
   \   000015   FE           MOV     R6,A
   \   000016   A3           INC     DPTR
   \   000017   E0           MOVX    A,@DPTR
   \   000018   FF           MOV     R7,A
   \   000019   741A         MOV     A,#0x1a
   \   00001B   12....       LCALL   ?XSTACK_DISP0_8
   \   00001E   E0           MOVX    A,@DPTR
   \   00001F   F5..         MOV     ?V0 + 10,A
   \   000021   A3           INC     DPTR
   \   000022   E0           MOVX    A,@DPTR
   \   000023   F5..         MOV     ?V0 + 11,A
   \   000025   741C         MOV     A,#0x1c
   \   000027   12....       LCALL   ?XSTACK_DISP0_8
   \   00002A   E0           MOVX    A,@DPTR
   \   00002B   F5..         MOV     ?V0 + 12,A
    793            uint8 i;
    794            uint8 listCount = 0;
   \   00002D   75..00       MOV     ?V0 + 3,#0x0
    795            uint8 *energyValues = NULL;
   \   000030   75..00       MOV     ?V0 + 8,#0x0
   \   000033   75..00       MOV     ?V0 + 9,#0x0
    796            
    797            // Count number of energy detects
    798            for ( i = 0; i < ED_SCAN_MAXCHANNELS; i++ )
   \   000036   75..00       MOV     ?V0 + 2,#0x0
   \                     ??ZDNwkMgr_BuildAndSendUpdateNotify_0:
   \   000039   E5..         MOV     A,?V0 + 2
   \   00003B   C3           CLR     C
   \   00003C   941B         SUBB    A,#0x1b
   \   00003E   5031         JNC     ??ZDNwkMgr_BuildAndSendUpdateNotify_1
    799            {
    800              if ( ( (uint32)1 << i ) & pEDScanConfirm->scannedChannels )
   \   000040   75..01       MOV     ?V0 + 4,#0x1
   \   000043   75..00       MOV     ?V0 + 5,#0x0
   \   000046   75..00       MOV     ?V0 + 6,#0x0
   \   000049   75..00       MOV     ?V0 + 7,#0x0
   \   00004C   E5..         MOV     A,?V0 + 2
   \   00004E   78..         MOV     R0,#?V0 + 4
   \   000050   12....       LCALL   ?L_SHL
   \   000053   85..82       MOV     DPL,?V0 + 10
   \   000056   85..83       MOV     DPH,?V0 + 11
   \   000059   A3           INC     DPTR
   \   00005A   A3           INC     DPTR
   \   00005B   A3           INC     DPTR
   \   00005C   78..         MOV     R0,#?V0 + 4
   \   00005E   12....       LCALL   ?L_AND_X
   \   000061   E5..         MOV     A,?V0 + 4
   \   000063   45..         ORL     A,?V0 + 5
   \   000065   45..         ORL     A,?V0 + 6
   \   000067   45..         ORL     A,?V0 + 7
   \   000069   6002         JZ      ??ZDNwkMgr_BuildAndSendUpdateNotify_2
    801                listCount++;
   \   00006B   05..         INC     ?V0 + 3
    802            }
   \                     ??ZDNwkMgr_BuildAndSendUpdateNotify_2:
   \   00006D   05..         INC     ?V0 + 2
   \   00006F   80C8         SJMP    ??ZDNwkMgr_BuildAndSendUpdateNotify_0
    803            
    804            if ( listCount > 0 )
   \                     ??ZDNwkMgr_BuildAndSendUpdateNotify_1:
   \   000071   E5..         MOV     A,?V0 + 3
   \   000073   C3           CLR     C
   \   000074   9401         SUBB    A,#0x1
   \   000076   5003         JNC     $+5
   \   000078   02....       LJMP    ??ZDNwkMgr_BuildAndSendUpdateNotify_3 & 0xFFFF
    805            {
    806              energyValues = (uint8 *)osal_mem_alloc( listCount );
   \   00007B                ; Setup parameters for call to function osal_mem_alloc
   \   00007B   85....       MOV     ?V0 + 4,?V0 + 3
   \   00007E   75..00       MOV     ?V0 + 5,#0x0
   \   000081   AA..         MOV     R2,?V0 + 4
   \   000083   AB..         MOV     R3,?V0 + 5
   \   000085   12....       LCALL   ??osal_mem_alloc?relay
   \   000088   8A..         MOV     ?V0 + 4,R2
   \   00008A   8B..         MOV     ?V0 + 5,R3
   \   00008C   85....       MOV     ?V0 + 8,?V0 + 4
   \   00008F   85....       MOV     ?V0 + 9,?V0 + 5
    807              if ( energyValues )
   \   000092   E5..         MOV     A,?V0 + 8
   \   000094   45..         ORL     A,?V0 + 9
   \   000096   606C         JZ      ??ZDNwkMgr_BuildAndSendUpdateNotify_3
    808              {
    809                uint8 j = 0;
   \   000098   7900         MOV     R1,#0x0
    810          
    811                for ( i = 0; i < ED_SCAN_MAXCHANNELS; i++ )
   \   00009A   75..00       MOV     ?V0 + 2,#0x0
   \                     ??ZDNwkMgr_BuildAndSendUpdateNotify_4:
   \   00009D   E5..         MOV     A,?V0 + 2
   \   00009F   C3           CLR     C
   \   0000A0   941B         SUBB    A,#0x1b
   \   0000A2   5060         JNC     ??ZDNwkMgr_BuildAndSendUpdateNotify_3
    812                {
    813                  if ( ( (uint32)1 << i ) & pEDScanConfirm->scannedChannels )
   \   0000A4   75..01       MOV     ?V0 + 4,#0x1
   \   0000A7   75..00       MOV     ?V0 + 5,#0x0
   \   0000AA   75..00       MOV     ?V0 + 6,#0x0
   \   0000AD   75..00       MOV     ?V0 + 7,#0x0
   \   0000B0   E5..         MOV     A,?V0 + 2
   \   0000B2   78..         MOV     R0,#?V0 + 4
   \   0000B4   12....       LCALL   ?L_SHL
   \   0000B7   85..82       MOV     DPL,?V0 + 10
   \   0000BA   85..83       MOV     DPH,?V0 + 11
   \   0000BD   A3           INC     DPTR
   \   0000BE   A3           INC     DPTR
   \   0000BF   A3           INC     DPTR
   \   0000C0   78..         MOV     R0,#?V0 + 4
   \   0000C2   12....       LCALL   ?L_AND_X
   \   0000C5   E5..         MOV     A,?V0 + 4
   \   0000C7   45..         ORL     A,?V0 + 5
   \   0000C9   45..         ORL     A,?V0 + 6
   \   0000CB   45..         ORL     A,?V0 + 7
   \   0000CD   6031         JZ      ??ZDNwkMgr_BuildAndSendUpdateNotify_5
    814                    energyValues[j++] = pEDScanConfirm->energyDetectList[i];
   \   0000CF   85....       MOV     ?V0 + 4,?V0 + 2
   \   0000D2   75..00       MOV     ?V0 + 5,#0x0
   \   0000D5   E5..         MOV     A,?V0 + 10
   \   0000D7   25..         ADD     A,?V0 + 4
   \   0000D9   F582         MOV     DPL,A
   \   0000DB   E5..         MOV     A,?V0 + 11
   \   0000DD   35..         ADDC    A,?V0 + 5
   \   0000DF   F583         MOV     DPH,A
   \   0000E1   A3           INC     DPTR
   \   0000E2   A3           INC     DPTR
   \   0000E3   A3           INC     DPTR
   \   0000E4   A3           INC     DPTR
   \   0000E5   A3           INC     DPTR
   \   0000E6   A3           INC     DPTR
   \   0000E7   A3           INC     DPTR
   \   0000E8   E0           MOVX    A,@DPTR
   \   0000E9   C0E0         PUSH    A
   \   0000EB   89..         MOV     ?V0 + 4,R1
   \   0000ED   75..00       MOV     ?V0 + 5,#0x0
   \   0000F0   E5..         MOV     A,?V0 + 8
   \   0000F2   25..         ADD     A,?V0 + 4
   \   0000F4   F582         MOV     DPL,A
   \   0000F6   E5..         MOV     A,?V0 + 9
   \   0000F8   35..         ADDC    A,?V0 + 5
   \   0000FA   F583         MOV     DPH,A
   \   0000FC   D0E0         POP     A
   \   0000FE   F0           MOVX    @DPTR,A
   \   0000FF   09           INC     R1
    815                }
   \                     ??ZDNwkMgr_BuildAndSendUpdateNotify_5:
   \   000100   05..         INC     ?V0 + 2
   \   000102   8099         SJMP    ??ZDNwkMgr_BuildAndSendUpdateNotify_4
    816              }
    817            }
    818              
    819            // Send a Management Network Update notify back
    820            ZDP_MgmtNwkUpdateNotify( TransSeq, dstAddr, pEDScanConfirm->status, 
    821                                     pEDScanConfirm->scannedChannels,
    822                                     totalTransmissions, txFailures,
    823                                     listCount, energyValues, txOptions, false );
   \                     ??ZDNwkMgr_BuildAndSendUpdateNotify_3:
   \   000104                ; Setup parameters for call to function ZDP_MgmtNwkUpdateNotify
   \   000104   75..00       MOV     ?V0 + 4,#0x0
   \   000107   78..         MOV     R0,#?V0 + 4
   \   000109   12....       LCALL   ?PUSH_XSTACK_I_ONE
   \   00010C   E5..         MOV     A,?V0 + 12
   \   00010E   F5..         MOV     ?V0 + 4,A
   \   000110   78..         MOV     R0,#?V0 + 4
   \   000112   12....       LCALL   ?PUSH_XSTACK_I_ONE
   \   000115   78..         MOV     R0,#?V0 + 8
   \   000117   12....       LCALL   ?PUSH_XSTACK_I_TWO
   \   00011A   8E..         MOV     ?V0 + 4,R6
   \   00011C   8F..         MOV     ?V0 + 5,R7
   \   00011E   78..         MOV     R0,#?V0 + 4
   \   000120   12....       LCALL   ?PUSH_XSTACK_I_TWO
   \   000123   78..         MOV     R0,#?V0 + 0
   \   000125   12....       LCALL   ?PUSH_XSTACK_I_TWO
   \   000128   85..82       MOV     DPL,?V0 + 10
   \   00012B   85..83       MOV     DPH,?V0 + 11
   \   00012E   A3           INC     DPTR
   \   00012F   A3           INC     DPTR
   \   000130   A3           INC     DPTR
   \   000131   12....       LCALL   ?PUSH_XSTACK8_X_FOUR
   \   000134   AD..         MOV     R5,?V0 + 3
   \   000136   85..82       MOV     DPL,?V0 + 10
   \   000139   85..83       MOV     DPH,?V0 + 11
   \   00013C   A3           INC     DPTR
   \   00013D   A3           INC     DPTR
   \   00013E   E0           MOVX    A,@DPTR
   \   00013F   FC           MOV     R4,A
   \   000140   AA..         MOV     R2,?V0 + 14
   \   000142   AB..         MOV     R3,?V0 + 15
   \   000144   A9..         MOV     R1,?V0 + 13
   \   000146   12....       LCALL   ??ZDP_MgmtNwkUpdateNotify?relay
   \   000149   740C         MOV     A,#0xc
   \   00014B   12....       LCALL   ?DEALLOC_XSTACK8
   \   00014E   E9           MOV     A,R1
    824            if ( energyValues )
   \   00014F   E5..         MOV     A,?V0 + 8
   \   000151   45..         ORL     A,?V0 + 9
   \   000153   6007         JZ      ??ZDNwkMgr_BuildAndSendUpdateNotify_6
    825              osal_mem_free( energyValues );
   \   000155                ; Setup parameters for call to function osal_mem_free
   \   000155   AA..         MOV     R2,?V0 + 8
   \   000157   AB..         MOV     R3,?V0 + 9
   \   000159   12....       LCALL   ??osal_mem_free?relay
    826          }
   \                     ??ZDNwkMgr_BuildAndSendUpdateNotify_6:
   \   00015C   7F10         MOV     R7,#0x10
   \   00015E   02....       LJMP    ?BANKED_LEAVE_XDATA
    827          
    828          #if defined ( NWK_MANAGER )
    829          /*********************************************************************
    830           * @fn      NwkMgr_SetNwkManager
    831           *
    832           * @brief   Set the local device as the Network Manager
    833           *
    834           * @param   none
    835           *
    836           * @return  none
    837           */
    838          void NwkMgr_SetNwkManager( void )
    839          {
    840            if ( zgNwkMgrMode == ZDNWKMGR_ENABLE )
    841            {
    842              // We're the Network Manager. Set our address as the Network Manager Address
    843              ZDNwkMgr_SetNwkManagerAddr( _NIB.nwkDevAddress );
    844              
    845              // Set the Network Manager bit of the Server Mask
    846              ZDO_Config_Node_Descriptor.ServerMask |= NETWORK_MANAGER;
    847            }
    848          }
    849          #endif // NWK_MANAGER
    850          
    851          /*********************************************************************
    852           * @fn      ZDApp_SetNwkManagerAddr()
    853           *
    854           * @brief   Sets the nwkManagerAddr in NIB.
    855           *
    856           * @param   nwkManagerAddr
    857           *
    858           * @return  none
    859           */

   \                                 In  segment BANKED_CODE, align 1, keep-with-next
    860          void ZDNwkMgr_SetNwkManagerAddr( uint16 nwkManagerAddr )
   \                     ZDNwkMgr_SetNwkManagerAddr:
    861          {
   \   000000   74F7         MOV     A,#-0x9
   \   000002   12....       LCALL   ?BANKED_ENTER_XDATA
   \   000005                ; Saved register size: 9
   \   000005                ; Auto size: 0
   \   000005   EA           MOV     A,R2
   \   000006   FE           MOV     R6,A
   \   000007   EB           MOV     A,R3
   \   000008   FF           MOV     R7,A
    862            if ( _NIB.nwkManagerAddr != nwkManagerAddr )
   \   000009   90....       MOV     DPTR,#_NIB + 105
   \   00000C   E0           MOVX    A,@DPTR
   \   00000D   6E           XRL     A,R6
   \   00000E   7003         JNZ     ??ZDNwkMgr_SetNwkManagerAddr_0
   \   000010   A3           INC     DPTR
   \   000011   E0           MOVX    A,@DPTR
   \   000012   6F           XRL     A,R7
   \                     ??ZDNwkMgr_SetNwkManagerAddr_0:
   \   000013   600B         JZ      ??ZDNwkMgr_SetNwkManagerAddr_1
    863            {
    864              // Update the Network Manager Address
    865              _NIB.nwkManagerAddr = nwkManagerAddr;
   \   000015   90....       MOV     DPTR,#_NIB + 105
   \   000018   EE           MOV     A,R6
   \   000019   F0           MOVX    @DPTR,A
   \   00001A   A3           INC     DPTR
   \   00001B   EF           MOV     A,R7
   \   00001C   F0           MOVX    @DPTR,A
    866            
    867              // Our Network Manger Address has been changed -- notify to save info into NV
    868              ZDApp_NwkStateUpdateCB();
   \   00001D                ; Setup parameters for call to function ZDApp_NwkStateUpdateCB
   \   00001D   12....       LCALL   ??ZDApp_NwkStateUpdateCB?relay
    869            }
    870          }
   \                     ??ZDNwkMgr_SetNwkManagerAddr_1:
   \   000020   7F01         MOV     R7,#0x1
   \   000022   02....       LJMP    ?BANKED_LEAVE_XDATA
    871          
    872          /*********************************************************************
    873           * @fn          ZDNwkMgr_ReportChannelInterference
    874           *
    875           * @brief       This function builds a Channel Interference detection
    876           *              message and then forwards it to the Network Manager.
    877           *
    878           * @param       chanInterference
    879           *
    880           * @return      none
    881           */

   \                                 In  segment BANKED_CODE, align 1, keep-with-next
    882          void ZDNwkMgr_ReportChannelInterference(  NLME_ChanInterference_t *chanInterference  )
   \                     ZDNwkMgr_ReportChannelInterference:
    883          {
   \   000000   74F4         MOV     A,#-0xc
   \   000002   12....       LCALL   ?BANKED_ENTER_XDATA
   \   000005                ; Saved register size: 12
   \   000005                ; Auto size: 0
   \   000005   8A..         MOV     ?V0 + 0,R2
   \   000007   8B..         MOV     ?V0 + 1,R3
    884            ZDNwkMgr_ChanInterference_t *pChanInterference;
    885          
    886            // Send Channel Interference message to the Network Manager task
    887            pChanInterference = (ZDNwkMgr_ChanInterference_t *)osal_msg_allocate( sizeof( ZDNwkMgr_ChanInterference_t ) );
   \   000009                ; Setup parameters for call to function osal_msg_allocate
   \   000009   7A06         MOV     R2,#0x6
   \   00000B   7B00         MOV     R3,#0x0
   \   00000D   12....       LCALL   ??osal_msg_allocate?relay
   \   000010   8A..         MOV     ?V0 + 2,R2
   \   000012   8B..         MOV     ?V0 + 3,R3
   \   000014   AE..         MOV     R6,?V0 + 2
   \   000016   AF..         MOV     R7,?V0 + 3
    888            if ( pChanInterference )
   \   000018   EE           MOV     A,R6
   \   000019   4F           ORL     A,R7
   \   00001A   6044         JZ      ??ZDNwkMgr_ReportChannelInterference_0
    889            {
    890              pChanInterference->hdr.event = NM_CHANNEL_INTERFERE;
   \   00001C   8E82         MOV     DPL,R6
   \   00001E   8F83         MOV     DPH,R7
   \   000020   7431         MOV     A,#0x31
   \   000022   F0           MOVX    @DPTR,A
    891                
    892              // Build the structure
    893              pChanInterference->totalTransmissions = chanInterference->totalTransmissions;
   \   000023   85..82       MOV     DPL,?V0 + 0
   \   000026   85..83       MOV     DPH,?V0 + 1
   \   000029   E0           MOVX    A,@DPTR
   \   00002A   F8           MOV     R0,A
   \   00002B   A3           INC     DPTR
   \   00002C   E0           MOVX    A,@DPTR
   \   00002D   F9           MOV     R1,A
   \   00002E   8E82         MOV     DPL,R6
   \   000030   8F83         MOV     DPH,R7
   \   000032   A3           INC     DPTR
   \   000033   A3           INC     DPTR
   \   000034   E8           MOV     A,R0
   \   000035   F0           MOVX    @DPTR,A
   \   000036   A3           INC     DPTR
   \   000037   E9           MOV     A,R1
   \   000038   F0           MOVX    @DPTR,A
    894              pChanInterference->txFailures = chanInterference->txFailures;
   \   000039   85..82       MOV     DPL,?V0 + 0
   \   00003C   85..83       MOV     DPH,?V0 + 1
   \   00003F   A3           INC     DPTR
   \   000040   A3           INC     DPTR
   \   000041   E0           MOVX    A,@DPTR
   \   000042   F8           MOV     R0,A
   \   000043   A3           INC     DPTR
   \   000044   E0           MOVX    A,@DPTR
   \   000045   F9           MOV     R1,A
   \   000046   8E82         MOV     DPL,R6
   \   000048   8F83         MOV     DPH,R7
   \   00004A   A3           INC     DPTR
   \   00004B   A3           INC     DPTR
   \   00004C   A3           INC     DPTR
   \   00004D   A3           INC     DPTR
   \   00004E   E8           MOV     A,R0
   \   00004F   F0           MOVX    @DPTR,A
   \   000050   A3           INC     DPTR
   \   000051   E9           MOV     A,R1
   \   000052   F0           MOVX    @DPTR,A
    895                        
    896              osal_msg_send( ZDNwkMgr_TaskID, (uint8 *)pChanInterference );
   \   000053                ; Setup parameters for call to function osal_msg_send
   \   000053   EE           MOV     A,R6
   \   000054   FA           MOV     R2,A
   \   000055   EF           MOV     A,R7
   \   000056   FB           MOV     R3,A
   \   000057   90....       MOV     DPTR,#ZDNwkMgr_TaskID
   \   00005A   E0           MOVX    A,@DPTR
   \   00005B   F9           MOV     R1,A
   \   00005C   12....       LCALL   ??osal_msg_send?relay
   \   00005F   E9           MOV     A,R1
    897            }
    898          }
   \                     ??ZDNwkMgr_ReportChannelInterference_0:
   \   000060   7F04         MOV     R7,#0x4
   \   000062   02....       LJMP    ?BANKED_LEAVE_XDATA
    899          
    900          /*********************************************************************
    901           * @fn          ZDNwkMgr_EDScanConfirmCB
    902           *
    903           * @brief       Handle Energy Scan confirm callback
    904           *
    905           * @param       scannedChannels  - scanned channels
    906           * @param       energyDetectList - measured energy for channels
    907           *
    908           * @return      none
    909           */

   \                                 In  segment BANKED_CODE, align 1, keep-with-next
    910          void ZDNwkMgr_EDScanConfirmCB( NLME_EDScanConfirm_t *EDScanConfirm )
   \                     ZDNwkMgr_EDScanConfirmCB:
    911          {
   \   000000   74F1         MOV     A,#-0xf
   \   000002   12....       LCALL   ?BANKED_ENTER_XDATA
   \   000005                ; Saved register size: 15
   \   000005                ; Auto size: 0
   \   000005   8A..         MOV     ?V0 + 0,R2
   \   000007   8B..         MOV     ?V0 + 1,R3
    912            ZDNwkMgr_EDScanConfirm_t *pEDScanConfirm;
    913          
    914            // Send ED Confirm to the Network Manager task
    915            pEDScanConfirm = (ZDNwkMgr_EDScanConfirm_t *)osal_msg_allocate( sizeof( ZDNwkMgr_EDScanConfirm_t ) );
   \   000009                ; Setup parameters for call to function osal_msg_allocate
   \   000009   7A22         MOV     R2,#0x22
   \   00000B   7B00         MOV     R3,#0x0
   \   00000D   12....       LCALL   ??osal_msg_allocate?relay
   \   000010   8A..         MOV     ?V0 + 2,R2
   \   000012   8B..         MOV     ?V0 + 3,R3
   \   000014   AE..         MOV     R6,?V0 + 2
   \   000016   AF..         MOV     R7,?V0 + 3
    916            if ( pEDScanConfirm )
   \   000018   EE           MOV     A,R6
   \   000019   4F           ORL     A,R7
   \   00001A   6064         JZ      ??ZDNwkMgr_EDScanConfirmCB_0
    917            {
    918              pEDScanConfirm->hdr.event = NM_ED_SCAN_CONFIRM;
   \   00001C   8E82         MOV     DPL,R6
   \   00001E   8F83         MOV     DPH,R7
   \   000020   7432         MOV     A,#0x32
   \   000022   F0           MOVX    @DPTR,A
    919                
    920              // Build the structure
    921              pEDScanConfirm->status = EDScanConfirm->status;
   \   000023   85..82       MOV     DPL,?V0 + 0
   \   000026   85..83       MOV     DPH,?V0 + 1
   \   000029   E0           MOVX    A,@DPTR
   \   00002A   8E82         MOV     DPL,R6
   \   00002C   8F83         MOV     DPH,R7
   \   00002E   A3           INC     DPTR
   \   00002F   A3           INC     DPTR
   \   000030   F0           MOVX    @DPTR,A
    922              pEDScanConfirm->scannedChannels = EDScanConfirm->scannedChannels;
   \   000031   85..82       MOV     DPL,?V0 + 0
   \   000034   85..83       MOV     DPH,?V0 + 1
   \   000037   A3           INC     DPTR
   \   000038   12....       LCALL   ?XLOAD_R2345
   \   00003B   8E82         MOV     DPL,R6
   \   00003D   8F83         MOV     DPH,R7
   \   00003F   A3           INC     DPTR
   \   000040   A3           INC     DPTR
   \   000041   A3           INC     DPTR
   \   000042   12....       LCALL   ?XSTORE_R2345
    923              osal_memcpy( pEDScanConfirm->energyDetectList, EDScanConfirm->energyDetectList, ED_SCAN_MAXCHANNELS );
   \   000045                ; Setup parameters for call to function osal_memcpy
   \   000045   85..82       MOV     DPL,?V0 + 0
   \   000048   85..83       MOV     DPH,?V0 + 1
   \   00004B   A3           INC     DPTR
   \   00004C   A3           INC     DPTR
   \   00004D   A3           INC     DPTR
   \   00004E   A3           INC     DPTR
   \   00004F   A3           INC     DPTR
   \   000050   E0           MOVX    A,@DPTR
   \   000051   F5..         MOV     ?V0 + 4,A
   \   000053   A3           INC     DPTR
   \   000054   E0           MOVX    A,@DPTR
   \   000055   F5..         MOV     ?V0 + 5,A
   \   000057   75..00       MOV     ?V0 + 6,#0x0
   \   00005A   78..         MOV     R0,#?V0 + 4
   \   00005C   12....       LCALL   ?PUSH_XSTACK_I_THREE
   \   00005F   7C1B         MOV     R4,#0x1b
   \   000061   7D00         MOV     R5,#0x0
   \   000063   EE           MOV     A,R6
   \   000064   2407         ADD     A,#0x7
   \   000066   FA           MOV     R2,A
   \   000067   EF           MOV     A,R7
   \   000068   3400         ADDC    A,#0x0
   \   00006A   FB           MOV     R3,A
   \   00006B   12....       LCALL   ??osal_memcpy?relay
   \   00006E   7403         MOV     A,#0x3
   \   000070   12....       LCALL   ?DEALLOC_XSTACK8
    924                
    925              osal_msg_send( ZDNwkMgr_TaskID, (uint8 *)pEDScanConfirm );
   \   000073                ; Setup parameters for call to function osal_msg_send
   \   000073   EE           MOV     A,R6
   \   000074   FA           MOV     R2,A
   \   000075   EF           MOV     A,R7
   \   000076   FB           MOV     R3,A
   \   000077   90....       MOV     DPTR,#ZDNwkMgr_TaskID
   \   00007A   E0           MOVX    A,@DPTR
   \   00007B   F9           MOV     R1,A
   \   00007C   12....       LCALL   ??osal_msg_send?relay
   \   00007F   E9           MOV     A,R1
    926            }
    927          }
   \                     ??ZDNwkMgr_EDScanConfirmCB_0:
   \   000080   7F07         MOV     R7,#0x7
   \   000082   02....       LJMP    ?BANKED_LEAVE_XDATA
    928          
    929          /*********************************************************************
    930           * @fn      ZDNwkMgr_ProcessDataConfirm
    931           *
    932           * @brief   Process received Confirmation for Mgmt NWK Update Notify message
    933           *
    934           * @param   none
    935           *
    936           * @return  none
    937           */

   \                                 In  segment BANKED_CODE, align 1, keep-with-next
    938          void ZDNwkMgr_ProcessDataConfirm( afDataConfirm_t *afDataConfirm )
   \                     ZDNwkMgr_ProcessDataConfirm:
    939          {
   \   000000   74F7         MOV     A,#-0x9
   \   000002   12....       LCALL   ?BANKED_ENTER_XDATA
   \   000005                ; Saved register size: 9
   \   000005                ; Auto size: 0
   \   000005   EA           MOV     A,R2
   \   000006   FE           MOV     R6,A
   \   000007   EB           MOV     A,R3
   \   000008   FF           MOV     R7,A
    940            if (   ZDNwkMgr_WaitingForNotifyConfirm  && 
    941                 ( afDataConfirm->transID == 0 )     && 
    942                 ( afDataConfirm->hdr.status == ZSuccess ) )
   \   000009   90....       MOV     DPTR,#ZDNwkMgr_WaitingForNotifyConfirm
   \   00000C   E0           MOVX    A,@DPTR
   \   00000D   6027         JZ      ??ZDNwkMgr_ProcessDataConfirm_0
   \   00000F   8E82         MOV     DPL,R6
   \   000011   8F83         MOV     DPH,R7
   \   000013   A3           INC     DPTR
   \   000014   A3           INC     DPTR
   \   000015   A3           INC     DPTR
   \   000016   E0           MOVX    A,@DPTR
   \   000017   701D         JNZ     ??ZDNwkMgr_ProcessDataConfirm_0
   \   000019   8E82         MOV     DPL,R6
   \   00001B   8F83         MOV     DPH,R7
   \   00001D   A3           INC     DPTR
   \   00001E   E0           MOVX    A,@DPTR
   \   00001F   7015         JNZ     ??ZDNwkMgr_ProcessDataConfirm_0
    943            {
    944              // The Mgmt NWK Update Notify was sent as an APS Unicast with  
    945              // acknowledgement and once the acknowledgment is received the 
    946              // total transmit and transmit failure counters are reset to zero.  
    947              _NIB.nwkTotalTransmissions = 0;
   \   000021   90....       MOV     DPTR,#_NIB + 107
   \   000024   7400         MOV     A,#0x0
   \   000026   F0           MOVX    @DPTR,A
   \   000027   A3           INC     DPTR
   \   000028   7400         MOV     A,#0x0
   \   00002A   F0           MOVX    @DPTR,A
    948              nwkTransmissionFailures( TRUE );
   \   00002B                ; Setup parameters for call to function nwkTransmissionFailures
   \   00002B   7901         MOV     R1,#0x1
   \   00002D   12....       LCALL   ??nwkTransmissionFailures?relay
    949              
    950              ZDNwkMgr_WaitingForNotifyConfirm = FALSE;
   \   000030   90....       MOV     DPTR,#ZDNwkMgr_WaitingForNotifyConfirm
   \   000033   7400         MOV     A,#0x0
   \   000035   F0           MOVX    @DPTR,A
    951            }
    952          }
   \                     ??ZDNwkMgr_ProcessDataConfirm_0:
   \   000036   7F01         MOV     R7,#0x1
   \   000038   02....       LJMP    ?BANKED_LEAVE_XDATA

   \                                 In  segment XDATA_ROM_C, align 1
   \                     __Constant_0:
   \   000000   00000000     DD 0

   \                                 In  segment XDATA_ROM_C, align 1
   \                     __Constant_7fff800:
   \   000000   00F8FF07     DD 134215680

   \                                 In  segment BANK_RELAYS, align 1
   \                     ??ZDNwkMgr_Init?relay:
   \   000000   12....       LCALL   ?BDISPATCH
   \   000003   ......       DC24    ZDNwkMgr_Init

   \                                 In  segment BANK_RELAYS, align 1
   \                     ??ZDNwkMgr_event_loop?relay:
   \   000000   12....       LCALL   ?BDISPATCH
   \   000003   ......       DC24    ZDNwkMgr_event_loop

   \                                 In  segment BANK_RELAYS, align 1
   \                     ??ZDNwkMgr_ProcessMsgCBs?relay:
   \   000000   12....       LCALL   ?BDISPATCH
   \   000003   ......       DC24    ZDNwkMgr_ProcessMsgCBs

   \                                 In  segment BANK_RELAYS, align 1
   \                     ??ZDNwkMgr_ProcessMgmtNwkUpdateReq?relay:
   \   000000   12....       LCALL   ?BDISPATCH
   \   000003   ......       DC24    ZDNwkMgr_ProcessMgmtNwkUpdateReq

   \                                 In  segment BANK_RELAYS, align 1
   \                     ??ZDNwkMgr_ProcessServerDiscRsp?relay:
   \   000000   12....       LCALL   ?BDISPATCH
   \   000003   ......       DC24    ZDNwkMgr_ProcessServerDiscRsp

   \                                 In  segment BANK_RELAYS, align 1
   \                     ??ZDNwkMgr_ProcessChannelInterference?relay:
   \   000000   12....       LCALL   ?BDISPATCH
   \   000003   ......       DC24    ZDNwkMgr_ProcessChannelInterference

   \                                 In  segment BANK_RELAYS, align 1
   \                     ??ZDNwkMgr_ProcessEDScanConfirm?relay:
   \   000000   12....       LCALL   ?BDISPATCH
   \   000003   ......       DC24    ZDNwkMgr_ProcessEDScanConfirm

   \                                 In  segment BANK_RELAYS, align 1
   \                     ??ZDNwkMgr_CheckForChannelInterference?relay:
   \   000000   12....       LCALL   ?BDISPATCH
   \   000003   ......       DC24    ZDNwkMgr_CheckForChannelInterference

   \                                 In  segment BANK_RELAYS, align 1
   \                     ??ZDNwkMgr_BuildAndSendUpdateNotify?relay:
   \   000000   12....       LCALL   ?BDISPATCH
   \   000003   ......       DC24    ZDNwkMgr_BuildAndSendUpdateNotify

   \                                 In  segment BANK_RELAYS, align 1
   \                     ??ZDNwkMgr_SetNwkManagerAddr?relay:
   \   000000   12....       LCALL   ?BDISPATCH
   \   000003   ......       DC24    ZDNwkMgr_SetNwkManagerAddr

   \                                 In  segment BANK_RELAYS, align 1
   \                     ??ZDNwkMgr_ReportChannelInterference?relay:
   \   000000   12....       LCALL   ?BDISPATCH
   \   000003   ......       DC24    ZDNwkMgr_ReportChannelInterference

   \                                 In  segment BANK_RELAYS, align 1
   \                     ??ZDNwkMgr_EDScanConfirmCB?relay:
   \   000000   12....       LCALL   ?BDISPATCH
   \   000003   ......       DC24    ZDNwkMgr_EDScanConfirmCB

   \                                 In  segment BANK_RELAYS, align 1
   \                     ??ZDNwkMgr_ProcessDataConfirm?relay:
   \   000000   12....       LCALL   ?BDISPATCH
   \   000003   ......       DC24    ZDNwkMgr_ProcessDataConfirm
    953          
    954          /*********************************************************************
    955           * PAN ID Conflict Routines
    956           */
    957          #if defined ( NWK_MANAGER )
    958          /*********************************************************************
    959           * @fn          ZDNwkMgr_NetworkReportCB
    960           *
    961           * @brief       Handle the Network Report Command
    962           *
    963           * @param       srcAddr     - Source Address of the message.
    964           * @param       status      - ZSuccess.
    965           * @param       serverMask  - Bit mask of services matching the req serverMask.
    966           * @param       securityUse -
    967           *
    968           * @return      none
    969           */
    970          void ZDNwkMgr_NetworkReportCB( ZDNwkMgr_NetworkReport_t *pReport )
    971          { 
    972            // Send Network Report message to the Network Manager task
    973            osal_msg_send( ZDNwkMgr_TaskID, (uint8 *)pReport );
    974          }
    975          
    976          /*********************************************************************
    977           * @fn          ZDNwkMgr_NetworkUpdateCB
    978           *
    979           * @brief       Handle the Network Update Command
    980           *
    981           * @param       srcAddr     - Source Address of the message.
    982           * @param       status      - ZSuccess.
    983           * @param       serverMask  - Bit mask of services matching the req serverMask.
    984           * @param       securityUse -
    985           *
    986           * @return      none
    987           */
    988          void ZDNwkMgr_NetworkUpdateCB( ZDNwkMgr_NetworkUpdate_t *pUpdate )
    989          {
    990            // Send Network Update message to the Network Manager task
    991            osal_msg_send( ZDNwkMgr_TaskID, (uint8 *)pUpdate );
    992          }
    993          
    994          /*********************************************************************
    995           * @fn      ZDNwkMgr_ProcessNetworkReport
    996           *
    997           * @brief   Process the incoming Network Report message
    998           *
    999           * @param   pNetworkReport - Structure containing Network Report message
   1000           *
   1001           * @return  none
   1002           */
   1003          void ZDNwkMgr_ProcessNetworkReport( ZDNwkMgr_NetworkReport_t *pNetworkReport )
   1004          {
   1005            uint8 i;
   1006            uint16 newPID;
   1007            uint8 unique = TRUE;
   1008          
   1009            if ( pNetworkReport->reportType == NWKREPORT_PANID_CONFLICT )
   1010            {
   1011              if ( ZDNwkMgr_PanIdUpdateInProgress == FALSE )
   1012              {
   1013                do
   1014                {
   1015                  // select a new PAN ID
   1016                  newPID = (uint16)osal_rand();
   1017                
   1018                  // Make sure that the chosen PAN ID is not already in use in the
   1019                  // local neighborhood and also not contained within the Report 
   1020                  // Information field of the Network Report Command frame
   1021                  for ( i = 0; i < pNetworkReport->reportInfoCnt; i++ )
   1022                  {
   1023                    if ( pNetworkReport->panIDs[i] == newPID )
   1024                    {
   1025                      unique = FALSE;
   1026                      break;
   1027                    }
   1028                  }
   1029                } while ( !unique );
   1030                   
   1031                // Send out a Network Update command.
   1032                NLME_SendNetworkUpdate( NWK_BROADCAST_SHORTADDR, NWKUPDATE_PANID_UPDATE,
   1033                                        _NIB.extendedPANID, _NIB.nwkUpdateId+1, newPID );
   1034              
   1035                ZDNwkMgr_PanIdUpdateInProgress = TRUE;
   1036              }
   1037            }
   1038          }
   1039          
   1040          /*********************************************************************
   1041           * @fn      ZDNwkMgr_ProcessNetworkUpdate
   1042           *
   1043           * @brief   Process the incoming Network Update message
   1044           *
   1045           * @param   pNetworkReport - Structure containing Network Update message
   1046           *
   1047           * @return  none
   1048           */
   1049          void ZDNwkMgr_ProcessNetworkUpdate( ZDNwkMgr_NetworkUpdate_t *pNetworkUpdate )
   1050          {
   1051            if ( pNetworkUpdate->updateType == NWKUPDATE_PANID_UPDATE )
   1052            { 
   1053              // Our PAN ID has been changed -- notify to save info into NV
   1054              ZDApp_NwkStateUpdateCB();
   1055              
   1056              ZDNwkMgr_PanIdUpdateInProgress = FALSE;
   1057            }
   1058          }
   1059          #endif // NWK_MANAGER
   1060          
   1061          
   1062          /*********************************************************************
   1063          *********************************************************************/

   Maximum stack usage in bytes:

     Function                       ISTACK PSTACK XSTACK
     --------                       ------ ------ ------
     ZDNwkMgr_BuildAndSendUpdateNotify
                                        1      0     57
       -> osal_mem_alloc                0      0     48
       -> ZDP_MgmtNwkUpdateNotify       0      0     72
       -> osal_mem_free                 0      0     48
     ZDNwkMgr_CheckForChannelInterference
                                        0      0     35
       -> ZDNwkMgr_BuildAndSendUpdateNotify
                                        0      0     42
       -> osal_start_timerEx            0      0     32
     ZDNwkMgr_EDScanConfirmCB           1      0     18
       -> osal_msg_allocate             0      0     30
       -> osal_memcpy                   0      0     36
       -> osal_msg_send                 0      0     30
     ZDNwkMgr_Init                      0      0      9
       -> ZDO_RegisterForZDOMsg         0      0     18
       -> ZDO_RegisterForZDOMsg         0      0     18
     ZDNwkMgr_ProcessChannelInterference
                                        0      0     23
       -> NLME_EDScanRequest            0      0     18
     ZDNwkMgr_ProcessDataConfirm        0      0      9
       -> nwkTransmissionFailures       0      0     18
     ZDNwkMgr_ProcessEDScanConfirm      0      0     33
       -> ZDNwkMgr_CheckForChannelInterference
                                        0      0     28
       -> nwkTransmissionFailures       0      0     28
       -> ZDNwkMgr_BuildAndSendUpdateNotify
                                        0      0     38
       -> osal_start_timerEx            0      0     28
     ZDNwkMgr_ProcessMgmtNwkUpdateReq
                                        2      0     47
       -> ZDO_ParseMgmtNwkUpdateReq     0      0     50
       -> NLME_EDScanRequest            0      0     50
       -> NLME_SetUpdateID              0      0     50
       -> osal_start_timerEx            0      0     50
       -> NLME_SetUpdateID              0      0     50
       -> ZDApp_NwkStateUpdateCB        0      0     50
       -> ZDNwkMgr_SetNwkManagerAddr
                                        0      0     50
       -> ZDP_MgmtNwkUpdateNotify       0      0     74
     ZDNwkMgr_ProcessMsgCBs             0      0     24
       -> ZDNwkMgr_ProcessMgmtNwkUpdateReq
                                        0      0     20
       -> ZDNwkMgr_ProcessServerDiscRsp
                                        0      0     20
     ZDNwkMgr_ProcessServerDiscRsp      0      0     22
       -> ZDO_ParseServerDiscRsp        0      0     24
       -> ZDNwkMgr_SetNwkManagerAddr
                                        0      0     24
     ZDNwkMgr_ReportChannelInterference
                                        0      0     12
       -> osal_msg_allocate             0      0     24
       -> osal_msg_send                 0      0     24
     ZDNwkMgr_SetNwkManagerAddr         0      0     34
       -> ZDApp_NwkStateUpdateCB        0      0     18
     ZDNwkMgr_event_loop                0      0     14
       -> osal_msg_receive              0      0     28
       -> ZDNwkMgr_ProcessMsgCBs        0      0     28
       -> ZDNwkMgr_ProcessChannelInterference
                                        0      0     28
       -> ZDNwkMgr_ProcessEDScanConfirm
                                        0      0     28
       -> osal_msg_deallocate           0      0     28
       -> osal_msg_receive              0      0     28
       -> ZMacSetReq                    0      0     28
       -> ZDApp_NwkStateUpdateCB        0      0     28
       -> nwkTransmissionFailures       0      0     28
       -> osal_start_timerEx            0      0     28
       -> NLME_EDScanRequest            0      0     28


   Segment part sizes:

     Function/Label                               Bytes
     --------------                               -----
     ZDNwkMgr_TaskID                                 1
     ZDNwkMgr_MgmtNwkUpdateNotifyTransSeq
                                                     1
     ZDNwkMgr_MgmtNwkUpdateNotifyAddr
                                                     9
     ZDNwkMgr_UpdateNotifyTimer                      2
     ZDNwkMgr_NumUpdateNotifySent                    1
     ZDNwkMgr_WaitingForNotifyConfirm
                                                     1
     ZDNwkMgr_TotalTransmissions                     2
     ZDNwkMgr_TxFailures                             2
     ZDNwkMgr_MgmtNwkUpdateReq                       9
     ZDNwkMgr_NewChannel                             1
     pZDNwkMgr_ReportChannelInterference
                                                     2
     pZDNwkMgr_ProcessDataConfirm                    2
     pZDNwkMgr_EDScanConfirmCB                       2
     pZDNwkMgr_NetworkReportCB                       2
     pZDNwkMgr_NetworkUpdateCB                       2
     ZDNwkMgr_Init                                  88
     ZDNwkMgr_event_loop                           301
     ZDNwkMgr_ProcessMsgCBs                         66
     ZDNwkMgr_ProcessMgmtNwkUpdateReq
                                                   575
     ZDNwkMgr_ProcessServerDiscRsp                  79
     ZDNwkMgr_ProcessChannelInterference
                                                    86
     ZDNwkMgr_ProcessEDScanConfirm                 121
     ZDNwkMgr_CheckForChannelInterference
                                                   284
     ZDNwkMgr_BuildAndSendUpdateNotify
                                                   353
     ZDNwkMgr_SetNwkManagerAddr                     37
     ZDNwkMgr_ReportChannelInterference
                                                   101
     ZDNwkMgr_EDScanConfirmCB                      133
     ZDNwkMgr_ProcessDataConfirm                    59
     __Constant_0                                    4
     __Constant_7fff800                              4
     ??ZDNwkMgr_Init?relay                           6
     ??ZDNwkMgr_event_loop?relay                     6
     ??ZDNwkMgr_ProcessMsgCBs?relay                  6
     ??ZDNwkMgr_ProcessMgmtNwkUpdateReq?relay        6
     ??ZDNwkMgr_ProcessServerDiscRsp?relay           6
     ??ZDNwkMgr_ProcessChannelInterference?relay     6
     ??ZDNwkMgr_ProcessEDScanConfirm?relay           6
     ??ZDNwkMgr_CheckForChannelInterference?relay    6
     ??ZDNwkMgr_BuildAndSendUpdateNotify?relay       6
     ??ZDNwkMgr_SetNwkManagerAddr?relay              6
     ??ZDNwkMgr_ReportChannelInterference?relay      6
     ??ZDNwkMgr_EDScanConfirmCB?relay                6
     ??ZDNwkMgr_ProcessDataConfirm?relay             6

 
 2 283 bytes in segment BANKED_CODE
    78 bytes in segment BANK_RELAYS
     8 bytes in segment XDATA_ROM_C
    39 bytes in segment XDATA_Z
 
 2 361 bytes of CODE  memory
     0 bytes of CONST memory (+ 8 bytes shared)
    39 bytes of XDATA memory

Errors: none
Warnings: none
